ARM GAS  C:\Users\USER\AppData\Local\Temp\cckaTAyR.s 			page 1


   1              		.cpu cortex-m4
   2              		.eabi_attribute 27, 1
   3              		.eabi_attribute 28, 1
   4              		.eabi_attribute 20, 1
   5              		.eabi_attribute 21, 1
   6              		.eabi_attribute 23, 3
   7              		.eabi_attribute 24, 1
   8              		.eabi_attribute 25, 1
   9              		.eabi_attribute 26, 1
  10              		.eabi_attribute 30, 2
  11              		.eabi_attribute 34, 1
  12              		.eabi_attribute 18, 4
  13              		.file	"chevents.c"
  14              		.text
  15              	.Ltext0:
  16              		.cfi_sections	.debug_frame
  17              		.section	.text.chEvtRegisterMaskWithFlags,"ax",%progbits
  18              		.align	1
  19              		.p2align 4,,15
  20              		.global	chEvtRegisterMaskWithFlags
  21              		.arch armv7e-m
  22              		.syntax unified
  23              		.thumb
  24              		.thumb_func
  25              		.fpu fpv4-sp-d16
  26              		.type	chEvtRegisterMaskWithFlags, %function
  27              	chEvtRegisterMaskWithFlags:
  28              	.LVL0:
  29              	.LFB219:
  30              		.file 1 "src/ChibiOS_3.0.2/os/rt/src/chevents.c"
  31              		.loc 1 106 54 view -0
  32              		.cfi_startproc
  33              		@ args = 0, pretend = 0, frame = 0
  34              		@ frame_needed = 0, uses_anonymous_args = 0
  35              		@ link register save eliminated.
  36              		.loc 1 108 3 view .LVU1
  37              		.loc 1 108 3 view .LVU2
  38              		.loc 1 110 3 view .LVU3
  39              	.LBB174:
  40              	.LBI174:
  41              		.file 2 "src/ChibiOS_3.0.2/os/rt/include/chsys.h"
  42              		.loc 2 346 20 view .LVU4
  43              	.LBE174:
  44              		.loc 2 348 3 view .LVU5
  45              	.LBB182:
  46              	.LBB175:
  47              	.LBI175:
  48              		.file 3 "src/ChibiOS_3.0.2/os/rt/ports/ARMCMx/chcore_v7m.h"
  49              		.loc 3 444 20 view .LVU6
  50              	.LBE175:
  51              	.LBE182:
  52              		.loc 3 447 3 view .LVU7
  53              	.LBB183:
  54              	.LBB180:
  55              	.LBB176:
  56              	.LBI176:
  57              		.file 4 "src/ChibiOS_3.0.2/os/ext/CMSIS/include/core_cmFunc.h"
ARM GAS  C:\Users\USER\AppData\Local\Temp\cckaTAyR.s 			page 2


  58              		.loc 4 544 57 view .LVU8
  59              	.LBB177:
  60              		.loc 4 546 3 view .LVU9
  61              	.LBE177:
  62              	.LBE176:
  63              	.LBE180:
  64              	.LBE183:
  65              		.loc 1 106 54 is_stmt 0 view .LVU10
  66 0000 30B4     		push	{r4, r5}
  67              		.cfi_def_cfa_offset 8
  68              		.cfi_offset 4, -8
  69              		.cfi_offset 5, -4
  70              	.LBB184:
  71              	.LBB181:
  72              	.LBB179:
  73              	.LBB178:
  74              		.loc 4 546 3 view .LVU11
  75 0002 2024     		movs	r4, #32
  76              		.syntax unified
  77              	@ 546 "src/ChibiOS_3.0.2/os/ext/CMSIS/include/core_cmFunc.h" 1
  78 0004 84F31188 		MSR basepri, r4
  79              	@ 0 "" 2
  80              	.LVL1:
  81              		.loc 4 546 3 view .LVU12
  82              		.thumb
  83              		.syntax unified
  84              	.LBE178:
  85              	.LBE179:
  86              	.LBE181:
  87              	.LBE184:
  88              		.loc 2 349 34 is_stmt 1 view .LVU13
  89              		.loc 2 350 20 view .LVU14
  90              		.loc 1 111 3 view .LVU15
  91              		.loc 1 113 22 is_stmt 0 view .LVU16
  92 0008 064D     		ldr	r5, .L4
  93              		.loc 1 111 20 view .LVU17
  94 000a 0468     		ldr	r4, [r0]
  95              		.loc 1 113 20 view .LVU18
  96 000c AD69     		ldr	r5, [r5, #24]
  97              		.loc 1 111 20 view .LVU19
  98 000e 0C60     		str	r4, [r1]
  99              		.loc 1 112 3 is_stmt 1 view .LVU20
 100              		.loc 1 115 20 is_stmt 0 view .LVU21
 101 0010 0024     		movs	r4, #0
 102              		.loc 1 112 20 view .LVU22
 103 0012 0160     		str	r1, [r0]
 104              		.loc 1 113 3 is_stmt 1 view .LVU23
 105              		.loc 1 114 20 is_stmt 0 view .LVU24
 106 0014 C1E90152 		strd	r5, r2, [r1, #4]
 107              		.loc 1 115 3 is_stmt 1 view .LVU25
 108              		.loc 1 115 20 is_stmt 0 view .LVU26
 109 0018 C1E90343 		strd	r4, r3, [r1, #12]
 110              		.loc 1 116 3 is_stmt 1 view .LVU27
 111              		.loc 1 117 3 view .LVU28
 112              	.LBB185:
 113              	.LBI185:
 114              		.loc 2 358 20 view .LVU29
ARM GAS  C:\Users\USER\AppData\Local\Temp\cckaTAyR.s 			page 3


 115              	.LBB186:
 116              		.loc 2 360 22 view .LVU30
 117              		.loc 2 361 33 view .LVU31
 118              		.loc 2 367 3 view .LVU32
 119              		.loc 2 367 3 view .LVU33
 120              		.loc 2 371 3 view .LVU34
 121              	.LBB187:
 122              	.LBI187:
 123              		.loc 3 458 20 view .LVU35
 124              	.LBE187:
 125              	.LBE186:
 126              	.LBE185:
 127              		.loc 3 461 3 view .LVU36
 128              	.LVL2:
 129              	.LBB192:
 130              	.LBB191:
 131              	.LBB190:
 132              	.LBB188:
 133              	.LBI188:
 134              		.loc 4 544 57 view .LVU37
 135              	.LBB189:
 136              		.loc 4 546 3 view .LVU38
 137              		.syntax unified
 138              	@ 546 "src/ChibiOS_3.0.2/os/ext/CMSIS/include/core_cmFunc.h" 1
 139 001c 84F31188 		MSR basepri, r4
 140              	@ 0 "" 2
 141              	.LVL3:
 142              		.loc 4 546 3 is_stmt 0 view .LVU39
 143              		.thumb
 144              		.syntax unified
 145              	.LBE189:
 146              	.LBE188:
 147              	.LBE190:
 148              	.LBE191:
 149              	.LBE192:
 150              		.loc 1 118 1 view .LVU40
 151 0020 30BC     		pop	{r4, r5}
 152              		.cfi_restore 5
 153              		.cfi_restore 4
 154              		.cfi_def_cfa_offset 0
 155 0022 7047     		bx	lr
 156              	.L5:
 157              		.align	2
 158              	.L4:
 159 0024 00000000 		.word	ch
 160              		.cfi_endproc
 161              	.LFE219:
 162              		.size	chEvtRegisterMaskWithFlags, .-chEvtRegisterMaskWithFlags
 163              		.section	.text.chEvtUnregister,"ax",%progbits
 164              		.align	1
 165              		.p2align 4,,15
 166              		.global	chEvtUnregister
 167              		.syntax unified
 168              		.thumb
 169              		.thumb_func
 170              		.fpu fpv4-sp-d16
 171              		.type	chEvtUnregister, %function
ARM GAS  C:\Users\USER\AppData\Local\Temp\cckaTAyR.s 			page 4


 172              	chEvtUnregister:
 173              	.LVL4:
 174              	.LFB220:
 175              		.loc 1 133 66 is_stmt 1 view -0
 176              		.cfi_startproc
 177              		@ args = 0, pretend = 0, frame = 0
 178              		@ frame_needed = 0, uses_anonymous_args = 0
 179              		@ link register save eliminated.
 180              		.loc 1 134 3 view .LVU42
 181              		.loc 1 136 3 view .LVU43
 182              		.loc 1 136 3 view .LVU44
 183              		.loc 1 139 3 view .LVU45
 184              		.loc 1 141 3 view .LVU46
 185              	.LBB193:
 186              	.LBI193:
 187              		.loc 2 346 20 view .LVU47
 188              	.LBE193:
 189              		.loc 2 348 3 view .LVU48
 190              	.LBB198:
 191              	.LBB194:
 192              	.LBI194:
 193              		.loc 3 444 20 view .LVU49
 194              	.LBE194:
 195              	.LBE198:
 196              		.loc 3 447 3 view .LVU50
 197              	.LBB199:
 198              	.LBB197:
 199              	.LBB195:
 200              	.LBI195:
 201              		.loc 4 544 57 view .LVU51
 202              	.LBB196:
 203              		.loc 4 546 3 view .LVU52
 204 0000 2023     		movs	r3, #32
 205              		.syntax unified
 206              	@ 546 "src/ChibiOS_3.0.2/os/ext/CMSIS/include/core_cmFunc.h" 1
 207 0002 83F31188 		MSR basepri, r3
 208              	@ 0 "" 2
 209              	.LVL5:
 210              		.loc 4 546 3 is_stmt 0 view .LVU53
 211              		.thumb
 212              		.syntax unified
 213              	.LBE196:
 214              	.LBE195:
 215              	.LBE197:
 216              	.LBE199:
 217              		.loc 2 349 34 is_stmt 1 view .LVU54
 218              		.loc 2 350 20 view .LVU55
 219              		.loc 1 139 5 is_stmt 0 view .LVU56
 220 0006 0246     		mov	r2, r0
 221 0008 02E0     		b	.L7
 222              	.LVL6:
 223              	.L9:
 224              		.loc 1 145 8 view .LVU57
 225 000a 8B42     		cmp	r3, r1
 226 000c 07D0     		beq	.L11
 227 000e 1A46     		mov	r2, r3
 228              	.LVL7:
ARM GAS  C:\Users\USER\AppData\Local\Temp\cckaTAyR.s 			page 5


 229              	.L7:
 230              		.loc 1 145 5 is_stmt 1 view .LVU58
 231              		.loc 1 143 11 is_stmt 0 view .LVU59
 232 0010 1368     		ldr	r3, [r2]
 233              		.loc 1 143 9 view .LVU60
 234 0012 8342     		cmp	r3, r0
 235 0014 F9D1     		bne	.L9
 236              		.loc 1 151 3 is_stmt 1 view .LVU61
 237              	.LBB200:
 238              	.LBI200:
 239              		.loc 2 358 20 view .LVU62
 240              	.LBB201:
 241              		.loc 2 360 22 view .LVU63
 242              		.loc 2 361 33 view .LVU64
 243              		.loc 2 367 3 view .LVU65
 244              		.loc 2 367 3 view .LVU66
 245              		.loc 2 371 3 view .LVU67
 246              	.LBB202:
 247              	.LBI202:
 248              		.loc 3 458 20 view .LVU68
 249              	.LBE202:
 250              	.LBE201:
 251              	.LBE200:
 252              		.loc 3 461 3 view .LVU69
 253              	.LVL8:
 254              	.LBB213:
 255              	.LBB210:
 256              	.LBB207:
 257              	.LBB203:
 258              	.LBI203:
 259              		.loc 4 544 57 view .LVU70
 260              	.LBB204:
 261              		.loc 4 546 3 view .LVU71
 262 0016 0023     		movs	r3, #0
 263              		.syntax unified
 264              	@ 546 "src/ChibiOS_3.0.2/os/ext/CMSIS/include/core_cmFunc.h" 1
 265 0018 83F31188 		MSR basepri, r3
 266              	@ 0 "" 2
 267              	.LVL9:
 268              		.loc 4 546 3 is_stmt 0 view .LVU72
 269              		.thumb
 270              		.syntax unified
 271              	.LBE204:
 272              	.LBE203:
 273              	.LBE207:
 274              	.LBE210:
 275              	.LBE213:
 276              		.loc 1 152 1 view .LVU73
 277 001c 7047     		bx	lr
 278              	.L11:
 279              		.loc 1 146 7 is_stmt 1 view .LVU74
 280              		.loc 1 146 23 is_stmt 0 view .LVU75
 281 001e 0B68     		ldr	r3, [r1]
 282              		.loc 1 146 18 view .LVU76
 283 0020 1360     		str	r3, [r2]
 284              		.loc 1 147 7 is_stmt 1 view .LVU77
 285              		.loc 1 151 3 view .LVU78
ARM GAS  C:\Users\USER\AppData\Local\Temp\cckaTAyR.s 			page 6


 286              	.LBB214:
 287              		.loc 2 358 20 view .LVU79
 288              	.LBB211:
 289              		.loc 2 360 22 view .LVU80
 290              		.loc 2 361 33 view .LVU81
 291              		.loc 2 367 3 view .LVU82
 292              		.loc 2 367 3 view .LVU83
 293              		.loc 2 371 3 view .LVU84
 294              	.LBB208:
 295              		.loc 3 458 20 view .LVU85
 296              	.LBE208:
 297              	.LBE211:
 298              	.LBE214:
 299              		.loc 3 461 3 view .LVU86
 300              	.LVL10:
 301              	.LBB215:
 302              	.LBB212:
 303              	.LBB209:
 304              	.LBB206:
 305              		.loc 4 544 57 view .LVU87
 306              	.LBB205:
 307              		.loc 4 546 3 view .LVU88
 308 0022 0023     		movs	r3, #0
 309              		.syntax unified
 310              	@ 546 "src/ChibiOS_3.0.2/os/ext/CMSIS/include/core_cmFunc.h" 1
 311 0024 83F31188 		MSR basepri, r3
 312              	@ 0 "" 2
 313              	.LVL11:
 314              		.loc 4 546 3 is_stmt 0 view .LVU89
 315              		.thumb
 316              		.syntax unified
 317              	.LBE205:
 318              	.LBE206:
 319              	.LBE209:
 320              	.LBE212:
 321              	.LBE215:
 322              		.loc 1 152 1 view .LVU90
 323 0028 7047     		bx	lr
 324              		.cfi_endproc
 325              	.LFE220:
 326              		.size	chEvtUnregister, .-chEvtUnregister
 327 002a 00BF     		.section	.text.chEvtGetAndClearEvents,"ax",%progbits
 328              		.align	1
 329              		.p2align 4,,15
 330              		.global	chEvtGetAndClearEvents
 331              		.syntax unified
 332              		.thumb
 333              		.thumb_func
 334              		.fpu fpv4-sp-d16
 335              		.type	chEvtGetAndClearEvents, %function
 336              	chEvtGetAndClearEvents:
 337              	.LVL12:
 338              	.LFB221:
 339              		.loc 1 162 56 is_stmt 1 view -0
 340              		.cfi_startproc
 341              		@ args = 0, pretend = 0, frame = 0
 342              		@ frame_needed = 0, uses_anonymous_args = 0
ARM GAS  C:\Users\USER\AppData\Local\Temp\cckaTAyR.s 			page 7


 343              		@ link register save eliminated.
 344              		.loc 1 163 3 view .LVU92
 345              		.loc 1 165 3 view .LVU93
 346              	.LBB216:
 347              	.LBI216:
 348              		.loc 2 346 20 view .LVU94
 349              	.LBE216:
 350              		.loc 2 348 3 view .LVU95
 351              	.LBB221:
 352              	.LBB217:
 353              	.LBI217:
 354              		.loc 3 444 20 view .LVU96
 355              	.LBE217:
 356              	.LBE221:
 357              		.loc 3 447 3 view .LVU97
 358              	.LBB222:
 359              	.LBB220:
 360              	.LBB218:
 361              	.LBI218:
 362              		.loc 4 544 57 view .LVU98
 363              	.LBB219:
 364              		.loc 4 546 3 view .LVU99
 365 0000 2023     		movs	r3, #32
 366              		.syntax unified
 367              	@ 546 "src/ChibiOS_3.0.2/os/ext/CMSIS/include/core_cmFunc.h" 1
 368 0002 83F31188 		MSR basepri, r3
 369              	@ 0 "" 2
 370              	.LVL13:
 371              		.loc 4 546 3 is_stmt 0 view .LVU100
 372              		.thumb
 373              		.syntax unified
 374              	.LBE219:
 375              	.LBE218:
 376              	.LBE220:
 377              	.LBE222:
 378              		.loc 2 349 34 is_stmt 1 view .LVU101
 379              		.loc 2 350 20 view .LVU102
 380              		.loc 1 166 3 view .LVU103
 381              		.loc 1 166 7 is_stmt 0 view .LVU104
 382 0006 054B     		ldr	r3, .L13
 383 0008 9A69     		ldr	r2, [r3, #24]
 384              		.loc 1 166 12 view .LVU105
 385 000a 936B     		ldr	r3, [r2, #56]
 386              	.LVL14:
 387              		.loc 1 167 3 is_stmt 1 view .LVU106
 388              		.loc 1 167 21 is_stmt 0 view .LVU107
 389 000c 23EA0001 		bic	r1, r3, r0
 390 0010 9163     		str	r1, [r2, #56]
 391              		.loc 1 168 3 is_stmt 1 view .LVU108
 392              	.LBB223:
 393              	.LBI223:
 394              		.loc 2 358 20 view .LVU109
 395              	.LBB224:
 396              		.loc 2 360 22 view .LVU110
 397              		.loc 2 361 33 view .LVU111
 398              		.loc 2 367 3 view .LVU112
 399              		.loc 2 367 3 view .LVU113
ARM GAS  C:\Users\USER\AppData\Local\Temp\cckaTAyR.s 			page 8


 400              		.loc 2 371 3 view .LVU114
 401              	.LBB225:
 402              	.LBI225:
 403              		.loc 3 458 20 view .LVU115
 404              	.LBE225:
 405              	.LBE224:
 406              	.LBE223:
 407              		.loc 3 461 3 view .LVU116
 408              	.LVL15:
 409              	.LBB230:
 410              	.LBB229:
 411              	.LBB228:
 412              	.LBB226:
 413              	.LBI226:
 414              		.loc 4 544 57 view .LVU117
 415              	.LBB227:
 416              		.loc 4 546 3 view .LVU118
 417 0012 0022     		movs	r2, #0
 418              		.syntax unified
 419              	@ 546 "src/ChibiOS_3.0.2/os/ext/CMSIS/include/core_cmFunc.h" 1
 420 0014 82F31188 		MSR basepri, r2
 421              	@ 0 "" 2
 422              	.LVL16:
 423              		.loc 4 546 3 is_stmt 0 view .LVU119
 424              		.thumb
 425              		.syntax unified
 426              	.LBE227:
 427              	.LBE226:
 428              	.LBE228:
 429              	.LBE229:
 430              	.LBE230:
 431              		.loc 1 170 3 is_stmt 1 view .LVU120
 432              		.loc 1 171 1 is_stmt 0 view .LVU121
 433 0018 1840     		ands	r0, r0, r3
 434              	.LVL17:
 435              		.loc 1 171 1 view .LVU122
 436 001a 7047     		bx	lr
 437              	.L14:
 438              		.align	2
 439              	.L13:
 440 001c 00000000 		.word	ch
 441              		.cfi_endproc
 442              	.LFE221:
 443              		.size	chEvtGetAndClearEvents, .-chEvtGetAndClearEvents
 444              		.section	.text.chEvtAddEvents,"ax",%progbits
 445              		.align	1
 446              		.p2align 4,,15
 447              		.global	chEvtAddEvents
 448              		.syntax unified
 449              		.thumb
 450              		.thumb_func
 451              		.fpu fpv4-sp-d16
 452              		.type	chEvtAddEvents, %function
 453              	chEvtAddEvents:
 454              	.LVL18:
 455              	.LFB222:
 456              		.loc 1 182 48 is_stmt 1 view -0
ARM GAS  C:\Users\USER\AppData\Local\Temp\cckaTAyR.s 			page 9


 457              		.cfi_startproc
 458              		@ args = 0, pretend = 0, frame = 0
 459              		@ frame_needed = 0, uses_anonymous_args = 0
 460              		@ link register save eliminated.
 461              		.loc 1 184 3 view .LVU124
 462              	.LBB231:
 463              	.LBI231:
 464              		.loc 2 346 20 view .LVU125
 465              	.LBE231:
 466              		.loc 2 348 3 view .LVU126
 467              	.LBB236:
 468              	.LBB232:
 469              	.LBI232:
 470              		.loc 3 444 20 view .LVU127
 471              	.LBE232:
 472              	.LBE236:
 473              		.loc 3 447 3 view .LVU128
 474              	.LBB237:
 475              	.LBB235:
 476              	.LBB233:
 477              	.LBI233:
 478              		.loc 4 544 57 view .LVU129
 479              	.LBB234:
 480              		.loc 4 546 3 view .LVU130
 481 0000 2023     		movs	r3, #32
 482              		.syntax unified
 483              	@ 546 "src/ChibiOS_3.0.2/os/ext/CMSIS/include/core_cmFunc.h" 1
 484 0002 83F31188 		MSR basepri, r3
 485              	@ 0 "" 2
 486              	.LVL19:
 487              		.loc 4 546 3 is_stmt 0 view .LVU131
 488              		.thumb
 489              		.syntax unified
 490              	.LBE234:
 491              	.LBE233:
 492              	.LBE235:
 493              	.LBE237:
 494              		.loc 2 349 34 is_stmt 1 view .LVU132
 495              		.loc 2 350 20 view .LVU133
 496              		.loc 1 185 3 view .LVU134
 497 0006 044B     		ldr	r3, .L16
 498 0008 9B69     		ldr	r3, [r3, #24]
 499              		.loc 1 185 21 is_stmt 0 view .LVU135
 500 000a 9A6B     		ldr	r2, [r3, #56]
 501 000c 1043     		orrs	r0, r0, r2
 502              	.LVL20:
 503              		.loc 1 185 21 view .LVU136
 504 000e 9863     		str	r0, [r3, #56]
 505              		.loc 1 186 3 is_stmt 1 view .LVU137
 506              	.LVL21:
 507              		.loc 1 187 3 view .LVU138
 508              	.LBB238:
 509              	.LBI238:
 510              		.loc 2 358 20 view .LVU139
 511              	.LBB239:
 512              		.loc 2 360 22 view .LVU140
 513              		.loc 2 361 33 view .LVU141
ARM GAS  C:\Users\USER\AppData\Local\Temp\cckaTAyR.s 			page 10


 514              		.loc 2 367 3 view .LVU142
 515              		.loc 2 367 3 view .LVU143
 516              		.loc 2 371 3 view .LVU144
 517              	.LBB240:
 518              	.LBI240:
 519              		.loc 3 458 20 view .LVU145
 520              	.LBE240:
 521              	.LBE239:
 522              	.LBE238:
 523              		.loc 3 461 3 view .LVU146
 524              	.LBB245:
 525              	.LBB244:
 526              	.LBB243:
 527              	.LBB241:
 528              	.LBI241:
 529              		.loc 4 544 57 view .LVU147
 530              	.LBB242:
 531              		.loc 4 546 3 view .LVU148
 532 0010 0023     		movs	r3, #0
 533              		.syntax unified
 534              	@ 546 "src/ChibiOS_3.0.2/os/ext/CMSIS/include/core_cmFunc.h" 1
 535 0012 83F31188 		MSR basepri, r3
 536              	@ 0 "" 2
 537              	.LVL22:
 538              		.loc 4 546 3 is_stmt 0 view .LVU149
 539              		.thumb
 540              		.syntax unified
 541              	.LBE242:
 542              	.LBE241:
 543              	.LBE243:
 544              	.LBE244:
 545              	.LBE245:
 546              		.loc 1 189 3 is_stmt 1 view .LVU150
 547              		.loc 1 190 1 is_stmt 0 view .LVU151
 548 0016 7047     		bx	lr
 549              	.L17:
 550              		.align	2
 551              	.L16:
 552 0018 00000000 		.word	ch
 553              		.cfi_endproc
 554              	.LFE222:
 555              		.size	chEvtAddEvents, .-chEvtAddEvents
 556              		.section	.text.chEvtGetAndClearFlags,"ax",%progbits
 557              		.align	1
 558              		.p2align 4,,15
 559              		.global	chEvtGetAndClearFlags
 560              		.syntax unified
 561              		.thumb
 562              		.thumb_func
 563              		.fpu fpv4-sp-d16
 564              		.type	chEvtGetAndClearFlags, %function
 565              	chEvtGetAndClearFlags:
 566              	.LVL23:
 567              	.LFB224:
 568              		.loc 1 241 59 is_stmt 1 view -0
 569              		.cfi_startproc
 570              		@ args = 0, pretend = 0, frame = 0
ARM GAS  C:\Users\USER\AppData\Local\Temp\cckaTAyR.s 			page 11


 571              		@ frame_needed = 0, uses_anonymous_args = 0
 572              		@ link register save eliminated.
 573              		.loc 1 242 3 view .LVU153
 574              		.loc 1 244 3 view .LVU154
 575              	.LBB246:
 576              	.LBI246:
 577              		.loc 2 346 20 view .LVU155
 578              	.LBE246:
 579              		.loc 2 348 3 view .LVU156
 580              	.LBB254:
 581              	.LBB247:
 582              	.LBI247:
 583              		.loc 3 444 20 view .LVU157
 584              	.LBE247:
 585              	.LBE254:
 586              		.loc 3 447 3 view .LVU158
 587              	.LBB255:
 588              	.LBB252:
 589              	.LBB248:
 590              	.LBI248:
 591              		.loc 4 544 57 view .LVU159
 592              	.LBB249:
 593              		.loc 4 546 3 view .LVU160
 594              	.LBE249:
 595              	.LBE248:
 596              	.LBE252:
 597              	.LBE255:
 598              		.loc 1 241 59 is_stmt 0 view .LVU161
 599 0000 0246     		mov	r2, r0
 600              	.LBB256:
 601              	.LBB253:
 602              	.LBB251:
 603              	.LBB250:
 604              		.loc 4 546 3 view .LVU162
 605 0002 2023     		movs	r3, #32
 606              		.syntax unified
 607              	@ 546 "src/ChibiOS_3.0.2/os/ext/CMSIS/include/core_cmFunc.h" 1
 608 0004 83F31188 		MSR basepri, r3
 609              	@ 0 "" 2
 610              	.LVL24:
 611              		.loc 4 546 3 view .LVU163
 612              		.thumb
 613              		.syntax unified
 614              	.LBE250:
 615              	.LBE251:
 616              	.LBE253:
 617              	.LBE256:
 618              		.loc 2 349 34 is_stmt 1 view .LVU164
 619              		.loc 2 350 20 view .LVU165
 620              		.loc 1 245 3 view .LVU166
 621              		.loc 1 246 17 is_stmt 0 view .LVU167
 622 0008 0023     		movs	r3, #0
 623              		.loc 1 245 9 view .LVU168
 624 000a C068     		ldr	r0, [r0, #12]
 625              	.LVL25:
 626              		.loc 1 246 3 is_stmt 1 view .LVU169
 627              		.loc 1 246 17 is_stmt 0 view .LVU170
ARM GAS  C:\Users\USER\AppData\Local\Temp\cckaTAyR.s 			page 12


 628 000c D360     		str	r3, [r2, #12]
 629              		.loc 1 247 3 is_stmt 1 view .LVU171
 630              	.LBB257:
 631              	.LBI257:
 632              		.loc 2 358 20 view .LVU172
 633              	.LBB258:
 634              		.loc 2 360 22 view .LVU173
 635              		.loc 2 361 33 view .LVU174
 636              		.loc 2 367 3 view .LVU175
 637              		.loc 2 367 3 view .LVU176
 638              		.loc 2 371 3 view .LVU177
 639              	.LBB259:
 640              	.LBI259:
 641              		.loc 3 458 20 view .LVU178
 642              	.LBE259:
 643              	.LBE258:
 644              	.LBE257:
 645              		.loc 3 461 3 view .LVU179
 646              	.LVL26:
 647              	.LBB264:
 648              	.LBB263:
 649              	.LBB262:
 650              	.LBB260:
 651              	.LBI260:
 652              		.loc 4 544 57 view .LVU180
 653              	.LBB261:
 654              		.loc 4 546 3 view .LVU181
 655              		.syntax unified
 656              	@ 546 "src/ChibiOS_3.0.2/os/ext/CMSIS/include/core_cmFunc.h" 1
 657 000e 83F31188 		MSR basepri, r3
 658              	@ 0 "" 2
 659              	.LVL27:
 660              		.loc 4 546 3 is_stmt 0 view .LVU182
 661              		.thumb
 662              		.syntax unified
 663              	.LBE261:
 664              	.LBE260:
 665              	.LBE262:
 666              	.LBE263:
 667              	.LBE264:
 668              		.loc 1 249 3 is_stmt 1 view .LVU183
 669              		.loc 1 250 1 is_stmt 0 view .LVU184
 670 0012 7047     		bx	lr
 671              		.cfi_endproc
 672              	.LFE224:
 673              		.size	chEvtGetAndClearFlags, .-chEvtGetAndClearFlags
 674              		.section	.text.chEvtSignalI,"ax",%progbits
 675              		.align	1
 676              		.p2align 4,,15
 677              		.global	chEvtSignalI
 678              		.syntax unified
 679              		.thumb
 680              		.thumb_func
 681              		.fpu fpv4-sp-d16
 682              		.type	chEvtSignalI, %function
 683              	chEvtSignalI:
 684              	.LVL28:
ARM GAS  C:\Users\USER\AppData\Local\Temp\cckaTAyR.s 			page 13


 685              	.LFB226:
 686              		.loc 1 282 53 is_stmt 1 view -0
 687              		.cfi_startproc
 688              		@ args = 0, pretend = 0, frame = 0
 689              		@ frame_needed = 0, uses_anonymous_args = 0
 690              		@ link register save eliminated.
 691              		.loc 1 284 21 view .LVU186
 692              		.loc 1 285 3 view .LVU187
 693              		.loc 1 285 3 view .LVU188
 694              		.loc 1 287 3 view .LVU189
 695              		.loc 1 287 18 is_stmt 0 view .LVU190
 696 0000 836B     		ldr	r3, [r0, #56]
 697              		.loc 1 289 11 view .LVU191
 698 0002 027F     		ldrb	r2, [r0, #28]	@ zero_extendqisi2
 699              		.loc 1 287 18 view .LVU192
 700 0004 1943     		orrs	r1, r1, r3
 701              	.LVL29:
 702              		.loc 1 289 6 view .LVU193
 703 0006 0A2A     		cmp	r2, #10
 704              		.loc 1 287 18 view .LVU194
 705 0008 8163     		str	r1, [r0, #56]
 706              		.loc 1 289 3 is_stmt 1 view .LVU195
 707              		.loc 1 289 6 is_stmt 0 view .LVU196
 708 000a 09D0     		beq	.L23
 709              		.loc 1 290 63 view .LVU197
 710 000c 0B2A     		cmp	r2, #11
 711 000e 00D0     		beq	.L24
 712              	.L19:
 713              		.loc 1 296 1 view .LVU198
 714 0010 7047     		bx	lr
 715              	.L24:
 716              		.loc 1 292 34 view .LVU199
 717 0012 436A     		ldr	r3, [r0, #36]
 718              		.loc 1 291 43 view .LVU200
 719 0014 8B43     		bics	r3, r3, r1
 720 0016 FBD1     		bne	.L19
 721              	.L21:
 722              		.loc 1 293 5 is_stmt 1 view .LVU201
 723              		.loc 1 293 20 is_stmt 0 view .LVU202
 724 0018 0023     		movs	r3, #0
 725 001a 4362     		str	r3, [r0, #36]
 726              		.loc 1 294 5 is_stmt 1 view .LVU203
 727              		.loc 1 294 12 is_stmt 0 view .LVU204
 728 001c FFF7FEBF 		b	chSchReadyI
 729              	.LVL30:
 730              	.L23:
 731              		.loc 1 290 25 discriminator 1 view .LVU205
 732 0020 436A     		ldr	r3, [r0, #36]
 733              		.loc 1 289 42 discriminator 1 view .LVU206
 734 0022 1942     		tst	r1, r3
 735 0024 F8D1     		bne	.L21
 736 0026 7047     		bx	lr
 737              		.cfi_endproc
 738              	.LFE226:
 739              		.size	chEvtSignalI, .-chEvtSignalI
 740              		.section	.text.chEvtBroadcastFlagsI,"ax",%progbits
 741              		.align	1
ARM GAS  C:\Users\USER\AppData\Local\Temp\cckaTAyR.s 			page 14


 742              		.p2align 4,,15
 743              		.global	chEvtBroadcastFlagsI
 744              		.syntax unified
 745              		.thumb
 746              		.thumb_func
 747              		.fpu fpv4-sp-d16
 748              		.type	chEvtBroadcastFlagsI, %function
 749              	chEvtBroadcastFlagsI:
 750              	.LVL31:
 751              	.LFB223:
 752              		.loc 1 209 68 is_stmt 1 view -0
 753              		.cfi_startproc
 754              		@ args = 0, pretend = 0, frame = 0
 755              		@ frame_needed = 0, uses_anonymous_args = 0
 756              		.loc 1 210 3 view .LVU208
 757              		.loc 1 212 21 view .LVU209
 758              		.loc 1 213 3 view .LVU210
 759              		.loc 1 213 3 view .LVU211
 760              		.loc 1 215 3 view .LVU212
 761              		.loc 1 209 68 is_stmt 0 view .LVU213
 762 0000 70B5     		push	{r4, r5, r6, lr}
 763              		.cfi_def_cfa_offset 16
 764              		.cfi_offset 4, -16
 765              		.cfi_offset 5, -12
 766              		.cfi_offset 6, -8
 767              		.cfi_offset 14, -4
 768              		.loc 1 215 7 view .LVU214
 769 0002 0468     		ldr	r4, [r0]
 770              	.LVL32:
 771              		.loc 1 217 3 is_stmt 1 view .LVU215
 772              		.loc 1 217 9 is_stmt 0 view .LVU216
 773 0004 A042     		cmp	r0, r4
 774 0006 0FD0     		beq	.L25
 775 0008 0646     		mov	r6, r0
 776 000a 0D46     		mov	r5, r1
 777              	.LVL33:
 778              	.L29:
 779              		.loc 1 219 5 is_stmt 1 view .LVU217
 780              		.loc 1 224 7 view .LVU218
 781              		.loc 1 219 19 is_stmt 0 view .LVU219
 782 000c E368     		ldr	r3, [r4, #12]
 783 000e 2B43     		orrs	r3, r3, r5
 784 0010 E360     		str	r3, [r4, #12]
 785              		.loc 1 222 5 is_stmt 1 view .LVU220
 786              		.loc 1 222 8 is_stmt 0 view .LVU221
 787 0012 15B1     		cbz	r5, .L27
 788              		.loc 1 223 25 discriminator 1 view .LVU222
 789 0014 2269     		ldr	r2, [r4, #16]
 790              		.loc 1 222 36 discriminator 1 view .LVU223
 791 0016 1342     		tst	r3, r2
 792 0018 03D0     		beq	.L28
 793              	.L27:
 794              		.loc 1 224 7 view .LVU224
 795 001a D4E90101 		ldrd	r0, r1, [r4, #4]
 796 001e FFF7FEFF 		bl	chEvtSignalI
 797              	.LVL34:
 798              	.L28:
ARM GAS  C:\Users\USER\AppData\Local\Temp\cckaTAyR.s 			page 15


 799              		.loc 1 226 5 is_stmt 1 view .LVU225
 800              		.loc 1 226 9 is_stmt 0 view .LVU226
 801 0022 2468     		ldr	r4, [r4]
 802              	.LVL35:
 803              		.loc 1 217 9 view .LVU227
 804 0024 A642     		cmp	r6, r4
 805 0026 F1D1     		bne	.L29
 806              	.LVL36:
 807              	.L25:
 808              		.loc 1 228 1 view .LVU228
 809 0028 70BD     		pop	{r4, r5, r6, pc}
 810              		.loc 1 228 1 view .LVU229
 811              		.cfi_endproc
 812              	.LFE223:
 813              		.size	chEvtBroadcastFlagsI, .-chEvtBroadcastFlagsI
 814 002a 00BF     		.section	.text.chEvtSignal,"ax",%progbits
 815              		.align	1
 816              		.p2align 4,,15
 817              		.global	chEvtSignal
 818              		.syntax unified
 819              		.thumb
 820              		.thumb_func
 821              		.fpu fpv4-sp-d16
 822              		.type	chEvtSignal, %function
 823              	chEvtSignal:
 824              	.LVL37:
 825              	.LFB225:
 826              		.loc 1 260 52 is_stmt 1 view -0
 827              		.cfi_startproc
 828              		@ args = 0, pretend = 0, frame = 0
 829              		@ frame_needed = 0, uses_anonymous_args = 0
 830              		.loc 1 262 3 view .LVU231
 831              		.loc 1 262 3 view .LVU232
 832              		.loc 1 264 3 view .LVU233
 833              	.LBB265:
 834              	.LBI265:
 835              		.loc 2 346 20 view .LVU234
 836              	.LBE265:
 837              		.loc 2 348 3 view .LVU235
 838              	.LBB273:
 839              	.LBB266:
 840              	.LBI266:
 841              		.loc 3 444 20 view .LVU236
 842              	.LBE266:
 843              	.LBE273:
 844              		.loc 3 447 3 view .LVU237
 845              	.LBB274:
 846              	.LBB271:
 847              	.LBB267:
 848              	.LBI267:
 849              		.loc 4 544 57 view .LVU238
 850              	.LBB268:
 851              		.loc 4 546 3 view .LVU239
 852              	.LBE268:
 853              	.LBE267:
 854              	.LBE271:
 855              	.LBE274:
ARM GAS  C:\Users\USER\AppData\Local\Temp\cckaTAyR.s 			page 16


 856              		.loc 1 260 52 is_stmt 0 view .LVU240
 857 0000 08B5     		push	{r3, lr}
 858              		.cfi_def_cfa_offset 8
 859              		.cfi_offset 3, -8
 860              		.cfi_offset 14, -4
 861              	.LBB275:
 862              	.LBB272:
 863              	.LBB270:
 864              	.LBB269:
 865              		.loc 4 546 3 view .LVU241
 866 0002 2023     		movs	r3, #32
 867              		.syntax unified
 868              	@ 546 "src/ChibiOS_3.0.2/os/ext/CMSIS/include/core_cmFunc.h" 1
 869 0004 83F31188 		MSR basepri, r3
 870              	@ 0 "" 2
 871              	.LVL38:
 872              		.loc 4 546 3 view .LVU242
 873              		.thumb
 874              		.syntax unified
 875              	.LBE269:
 876              	.LBE270:
 877              	.LBE272:
 878              	.LBE275:
 879              		.loc 2 349 34 is_stmt 1 view .LVU243
 880              		.loc 2 350 20 view .LVU244
 881              		.loc 1 265 3 view .LVU245
 882 0008 FFF7FEFF 		bl	chEvtSignalI
 883              	.LVL39:
 884              		.loc 1 266 3 view .LVU246
 885 000c FFF7FEFF 		bl	chSchRescheduleS
 886              	.LVL40:
 887              		.loc 1 267 3 view .LVU247
 888              	.LBB276:
 889              	.LBI276:
 890              		.loc 2 358 20 view .LVU248
 891              	.LBB277:
 892              		.loc 2 360 22 view .LVU249
 893              		.loc 2 361 33 view .LVU250
 894              		.loc 2 367 3 view .LVU251
 895              		.loc 2 367 3 view .LVU252
 896              		.loc 2 371 3 view .LVU253
 897              	.LBB278:
 898              	.LBI278:
 899              		.loc 3 458 20 view .LVU254
 900              	.LBE278:
 901              	.LBE277:
 902              	.LBE276:
 903              		.loc 3 461 3 view .LVU255
 904              	.LBB283:
 905              	.LBB282:
 906              	.LBB281:
 907              	.LBB279:
 908              	.LBI279:
 909              		.loc 4 544 57 view .LVU256
 910              	.LBB280:
 911              		.loc 4 546 3 view .LVU257
 912 0010 0023     		movs	r3, #0
ARM GAS  C:\Users\USER\AppData\Local\Temp\cckaTAyR.s 			page 17


 913              		.syntax unified
 914              	@ 546 "src/ChibiOS_3.0.2/os/ext/CMSIS/include/core_cmFunc.h" 1
 915 0012 83F31188 		MSR basepri, r3
 916              	@ 0 "" 2
 917              	.LVL41:
 918              		.loc 4 546 3 is_stmt 0 view .LVU258
 919              		.thumb
 920              		.syntax unified
 921              	.LBE280:
 922              	.LBE279:
 923              	.LBE281:
 924              	.LBE282:
 925              	.LBE283:
 926              		.loc 1 268 1 view .LVU259
 927 0016 08BD     		pop	{r3, pc}
 928              		.cfi_endproc
 929              	.LFE225:
 930              		.size	chEvtSignal, .-chEvtSignal
 931              		.section	.text.chEvtBroadcastFlags,"ax",%progbits
 932              		.align	1
 933              		.p2align 4,,15
 934              		.global	chEvtBroadcastFlags
 935              		.syntax unified
 936              		.thumb
 937              		.thumb_func
 938              		.fpu fpv4-sp-d16
 939              		.type	chEvtBroadcastFlags, %function
 940              	chEvtBroadcastFlags:
 941              	.LVL42:
 942              	.LFB227:
 943              		.loc 1 311 67 is_stmt 1 view -0
 944              		.cfi_startproc
 945              		@ args = 0, pretend = 0, frame = 0
 946              		@ frame_needed = 0, uses_anonymous_args = 0
 947              		.loc 1 313 3 view .LVU261
 948              	.LBB284:
 949              	.LBI284:
 950              		.loc 2 346 20 view .LVU262
 951              	.LBE284:
 952              		.loc 2 348 3 view .LVU263
 953              	.LBB292:
 954              	.LBB285:
 955              	.LBI285:
 956              		.loc 3 444 20 view .LVU264
 957              	.LBE285:
 958              	.LBE292:
 959              		.loc 3 447 3 view .LVU265
 960              	.LBB293:
 961              	.LBB290:
 962              	.LBB286:
 963              	.LBI286:
 964              		.loc 4 544 57 view .LVU266
 965              	.LBB287:
 966              		.loc 4 546 3 view .LVU267
 967              	.LBE287:
 968              	.LBE286:
 969              	.LBE290:
ARM GAS  C:\Users\USER\AppData\Local\Temp\cckaTAyR.s 			page 18


 970              	.LBE293:
 971              		.loc 1 311 67 is_stmt 0 view .LVU268
 972 0000 08B5     		push	{r3, lr}
 973              		.cfi_def_cfa_offset 8
 974              		.cfi_offset 3, -8
 975              		.cfi_offset 14, -4
 976              	.LBB294:
 977              	.LBB291:
 978              	.LBB289:
 979              	.LBB288:
 980              		.loc 4 546 3 view .LVU269
 981 0002 2023     		movs	r3, #32
 982              		.syntax unified
 983              	@ 546 "src/ChibiOS_3.0.2/os/ext/CMSIS/include/core_cmFunc.h" 1
 984 0004 83F31188 		MSR basepri, r3
 985              	@ 0 "" 2
 986              	.LVL43:
 987              		.loc 4 546 3 view .LVU270
 988              		.thumb
 989              		.syntax unified
 990              	.LBE288:
 991              	.LBE289:
 992              	.LBE291:
 993              	.LBE294:
 994              		.loc 2 349 34 is_stmt 1 view .LVU271
 995              		.loc 2 350 20 view .LVU272
 996              		.loc 1 314 3 view .LVU273
 997 0008 FFF7FEFF 		bl	chEvtBroadcastFlagsI
 998              	.LVL44:
 999              		.loc 1 315 3 view .LVU274
 1000 000c FFF7FEFF 		bl	chSchRescheduleS
 1001              	.LVL45:
 1002              		.loc 1 316 3 view .LVU275
 1003              	.LBB295:
 1004              	.LBI295:
 1005              		.loc 2 358 20 view .LVU276
 1006              	.LBB296:
 1007              		.loc 2 360 22 view .LVU277
 1008              		.loc 2 361 33 view .LVU278
 1009              		.loc 2 367 3 view .LVU279
 1010              		.loc 2 367 3 view .LVU280
 1011              		.loc 2 371 3 view .LVU281
 1012              	.LBB297:
 1013              	.LBI297:
 1014              		.loc 3 458 20 view .LVU282
 1015              	.LBE297:
 1016              	.LBE296:
 1017              	.LBE295:
 1018              		.loc 3 461 3 view .LVU283
 1019              	.LBB302:
 1020              	.LBB301:
 1021              	.LBB300:
 1022              	.LBB298:
 1023              	.LBI298:
 1024              		.loc 4 544 57 view .LVU284
 1025              	.LBB299:
 1026              		.loc 4 546 3 view .LVU285
ARM GAS  C:\Users\USER\AppData\Local\Temp\cckaTAyR.s 			page 19


 1027 0010 0023     		movs	r3, #0
 1028              		.syntax unified
 1029              	@ 546 "src/ChibiOS_3.0.2/os/ext/CMSIS/include/core_cmFunc.h" 1
 1030 0012 83F31188 		MSR basepri, r3
 1031              	@ 0 "" 2
 1032              	.LVL46:
 1033              		.loc 4 546 3 is_stmt 0 view .LVU286
 1034              		.thumb
 1035              		.syntax unified
 1036              	.LBE299:
 1037              	.LBE298:
 1038              	.LBE300:
 1039              	.LBE301:
 1040              	.LBE302:
 1041              		.loc 1 317 1 view .LVU287
 1042 0016 08BD     		pop	{r3, pc}
 1043              		.cfi_endproc
 1044              	.LFE227:
 1045              		.size	chEvtBroadcastFlags, .-chEvtBroadcastFlags
 1046              		.section	.text.chEvtGetAndClearFlagsI,"ax",%progbits
 1047              		.align	1
 1048              		.p2align 4,,15
 1049              		.global	chEvtGetAndClearFlagsI
 1050              		.syntax unified
 1051              		.thumb
 1052              		.thumb_func
 1053              		.fpu fpv4-sp-d16
 1054              		.type	chEvtGetAndClearFlagsI, %function
 1055              	chEvtGetAndClearFlagsI:
 1056              	.LVL47:
 1057              	.LFB228:
 1058              		.loc 1 330 60 is_stmt 1 view -0
 1059              		.cfi_startproc
 1060              		@ args = 0, pretend = 0, frame = 0
 1061              		@ frame_needed = 0, uses_anonymous_args = 0
 1062              		@ link register save eliminated.
 1063              		.loc 1 331 3 view .LVU289
 1064              		.loc 1 333 3 view .LVU290
 1065              		.loc 1 330 60 is_stmt 0 view .LVU291
 1066 0000 0346     		mov	r3, r0
 1067              		.loc 1 334 17 view .LVU292
 1068 0002 0022     		movs	r2, #0
 1069              		.loc 1 333 9 view .LVU293
 1070 0004 C068     		ldr	r0, [r0, #12]
 1071              	.LVL48:
 1072              		.loc 1 334 3 is_stmt 1 view .LVU294
 1073              		.loc 1 334 17 is_stmt 0 view .LVU295
 1074 0006 DA60     		str	r2, [r3, #12]
 1075              		.loc 1 336 3 is_stmt 1 view .LVU296
 1076              		.loc 1 337 1 is_stmt 0 view .LVU297
 1077 0008 7047     		bx	lr
 1078              		.cfi_endproc
 1079              	.LFE228:
 1080              		.size	chEvtGetAndClearFlagsI, .-chEvtGetAndClearFlagsI
 1081 000a 00BF     		.section	.text.chEvtDispatch,"ax",%progbits
 1082              		.align	1
 1083              		.p2align 4,,15
ARM GAS  C:\Users\USER\AppData\Local\Temp\cckaTAyR.s 			page 20


 1084              		.global	chEvtDispatch
 1085              		.syntax unified
 1086              		.thumb
 1087              		.thumb_func
 1088              		.fpu fpv4-sp-d16
 1089              		.type	chEvtDispatch, %function
 1090              	chEvtDispatch:
 1091              	.LVL49:
 1092              	.LFB229:
 1093              		.loc 1 348 69 is_stmt 1 view -0
 1094              		.cfi_startproc
 1095              		@ args = 0, pretend = 0, frame = 0
 1096              		@ frame_needed = 0, uses_anonymous_args = 0
 1097              		.loc 1 349 3 view .LVU299
 1098              		.loc 1 351 3 view .LVU300
 1099              		.loc 1 351 3 view .LVU301
 1100              		.loc 1 353 3 view .LVU302
 1101              		.loc 1 354 3 view .LVU303
 1102              		.loc 1 354 9 is_stmt 0 view .LVU304
 1103 0000 B9B1     		cbz	r1, .L50
 1104              		.loc 1 348 69 view .LVU305
 1105 0002 F8B5     		push	{r3, r4, r5, r6, r7, lr}
 1106              		.cfi_def_cfa_offset 24
 1107              		.cfi_offset 3, -24
 1108              		.cfi_offset 4, -20
 1109              		.cfi_offset 5, -16
 1110              		.cfi_offset 6, -12
 1111              		.cfi_offset 7, -8
 1112              		.cfi_offset 14, -4
 1113 0004 0746     		mov	r7, r0
 1114 0006 0D46     		mov	r5, r1
 1115              		.loc 1 353 7 view .LVU306
 1116 0008 0024     		movs	r4, #0
 1117              		.loc 1 357 18 view .LVU307
 1118 000a 0126     		movs	r6, #1
 1119              	.LVL50:
 1120              	.L44:
 1121              		.loc 1 355 5 is_stmt 1 view .LVU308
 1122              		.loc 1 356 7 view .LVU309
 1123              		.loc 1 356 7 view .LVU310
 1124              		.loc 1 357 7 view .LVU311
 1125              		.loc 1 360 5 view .LVU312
 1126              		.loc 1 355 36 is_stmt 0 view .LVU313
 1127 000c 25FA04F3 		lsr	r3, r5, r4
 1128              		.loc 1 355 8 view .LVU314
 1129 0010 13F0010F 		tst	r3, #1
 1130              		.loc 1 357 18 view .LVU315
 1131 0014 06FA04F2 		lsl	r2, r6, r4
 1132              		.loc 1 358 7 view .LVU316
 1133 0018 2046     		mov	r0, r4
 1134              		.loc 1 355 8 view .LVU317
 1135 001a 08D0     		beq	.L46
 1136              		.loc 1 358 7 view .LVU318
 1137 001c 57F82430 		ldr	r3, [r7, r4, lsl #2]
 1138              		.loc 1 357 14 view .LVU319
 1139 0020 25EA0205 		bic	r5, r5, r2
 1140              	.LVL51:
ARM GAS  C:\Users\USER\AppData\Local\Temp\cckaTAyR.s 			page 21


 1141              		.loc 1 358 7 is_stmt 1 view .LVU320
 1142              		.loc 1 360 8 is_stmt 0 view .LVU321
 1143 0024 0134     		adds	r4, r4, #1
 1144              	.LVL52:
 1145              		.loc 1 358 7 view .LVU322
 1146 0026 9847     		blx	r3
 1147              	.LVL53:
 1148              		.loc 1 360 5 is_stmt 1 view .LVU323
 1149              		.loc 1 354 9 is_stmt 0 view .LVU324
 1150 0028 002D     		cmp	r5, #0
 1151 002a EFD1     		bne	.L44
 1152              		.loc 1 362 1 view .LVU325
 1153 002c F8BD     		pop	{r3, r4, r5, r6, r7, pc}
 1154              	.LVL54:
 1155              	.L46:
 1156              		.loc 1 360 8 view .LVU326
 1157 002e 0134     		adds	r4, r4, #1
 1158              	.LVL55:
 1159              		.loc 1 360 8 view .LVU327
 1160 0030 ECE7     		b	.L44
 1161              	.LVL56:
 1162              	.L50:
 1163              		.cfi_def_cfa_offset 0
 1164              		.cfi_restore 3
 1165              		.cfi_restore 4
 1166              		.cfi_restore 5
 1167              		.cfi_restore 6
 1168              		.cfi_restore 7
 1169              		.cfi_restore 14
 1170              		.loc 1 360 8 view .LVU328
 1171 0032 7047     		bx	lr
 1172              		.cfi_endproc
 1173              	.LFE229:
 1174              		.size	chEvtDispatch, .-chEvtDispatch
 1175              		.section	.text.chEvtWaitOne,"ax",%progbits
 1176              		.align	1
 1177              		.p2align 4,,15
 1178              		.global	chEvtWaitOne
 1179              		.syntax unified
 1180              		.thumb
 1181              		.thumb_func
 1182              		.fpu fpv4-sp-d16
 1183              		.type	chEvtWaitOne, %function
 1184              	chEvtWaitOne:
 1185              	.LVL57:
 1186              	.LFB230:
 1187              		.loc 1 383 46 is_stmt 1 view -0
 1188              		.cfi_startproc
 1189              		@ args = 0, pretend = 0, frame = 0
 1190              		@ frame_needed = 0, uses_anonymous_args = 0
 1191              		.loc 1 384 3 view .LVU330
 1192              		.loc 1 383 46 is_stmt 0 view .LVU331
 1193 0000 38B5     		push	{r3, r4, r5, lr}
 1194              		.cfi_def_cfa_offset 16
 1195              		.cfi_offset 3, -16
 1196              		.cfi_offset 4, -12
 1197              		.cfi_offset 5, -8
ARM GAS  C:\Users\USER\AppData\Local\Temp\cckaTAyR.s 			page 22


 1198              		.cfi_offset 14, -4
 1199              		.loc 1 384 13 view .LVU332
 1200 0002 0D4B     		ldr	r3, .L57
 1201 0004 9D69     		ldr	r5, [r3, #24]
 1202              	.LVL58:
 1203              		.loc 1 385 3 is_stmt 1 view .LVU333
 1204              		.loc 1 387 3 view .LVU334
 1205              	.LBB303:
 1206              	.LBI303:
 1207              		.loc 2 346 20 view .LVU335
 1208              	.LBE303:
 1209              		.loc 2 348 3 view .LVU336
 1210              	.LBB308:
 1211              	.LBB304:
 1212              	.LBI304:
 1213              		.loc 3 444 20 view .LVU337
 1214              	.LBE304:
 1215              	.LBE308:
 1216              		.loc 3 447 3 view .LVU338
 1217              	.LBB309:
 1218              	.LBB307:
 1219              	.LBB305:
 1220              	.LBI305:
 1221              		.loc 4 544 57 view .LVU339
 1222              	.LBB306:
 1223              		.loc 4 546 3 view .LVU340
 1224 0006 2023     		movs	r3, #32
 1225              		.syntax unified
 1226              	@ 546 "src/ChibiOS_3.0.2/os/ext/CMSIS/include/core_cmFunc.h" 1
 1227 0008 83F31188 		MSR basepri, r3
 1228              	@ 0 "" 2
 1229              	.LVL59:
 1230              		.loc 4 546 3 is_stmt 0 view .LVU341
 1231              		.thumb
 1232              		.syntax unified
 1233              	.LBE306:
 1234              	.LBE305:
 1235              	.LBE307:
 1236              	.LBE309:
 1237              		.loc 2 349 34 is_stmt 1 view .LVU342
 1238              		.loc 2 350 20 view .LVU343
 1239              		.loc 1 388 3 view .LVU344
 1240              		.loc 1 388 10 is_stmt 0 view .LVU345
 1241 000c AB6B     		ldr	r3, [r5, #56]
 1242              	.LVL60:
 1243              		.loc 1 389 3 is_stmt 1 view .LVU346
 1244              		.loc 1 389 6 is_stmt 0 view .LVU347
 1245 000e 13EA0004 		ands	r4, r3, r0
 1246              	.LVL61:
 1247              		.loc 1 389 6 view .LVU348
 1248 0012 08D0     		beq	.L56
 1249              	.LVL62:
 1250              	.L54:
 1251              		.loc 1 394 3 is_stmt 1 view .LVU349
 1252              		.loc 1 394 5 is_stmt 0 view .LVU350
 1253 0014 6042     		rsbs	r0, r4, #0
 1254 0016 2040     		ands	r0, r0, r4
ARM GAS  C:\Users\USER\AppData\Local\Temp\cckaTAyR.s 			page 23


 1255              	.LVL63:
 1256              		.loc 1 395 3 is_stmt 1 view .LVU351
 1257              		.loc 1 395 19 is_stmt 0 view .LVU352
 1258 0018 23EA0003 		bic	r3, r3, r0
 1259 001c AB63     		str	r3, [r5, #56]
 1260              		.loc 1 396 3 is_stmt 1 view .LVU353
 1261              	.LBB310:
 1262              	.LBI310:
 1263              		.loc 2 358 20 view .LVU354
 1264              	.LBB311:
 1265              		.loc 2 360 22 view .LVU355
 1266              		.loc 2 361 33 view .LVU356
 1267              		.loc 2 367 3 view .LVU357
 1268              		.loc 2 367 3 view .LVU358
 1269              		.loc 2 371 3 view .LVU359
 1270              	.LBB312:
 1271              	.LBI312:
 1272              		.loc 3 458 20 view .LVU360
 1273              	.LBE312:
 1274              	.LBE311:
 1275              	.LBE310:
 1276              		.loc 3 461 3 view .LVU361
 1277              	.LVL64:
 1278              	.LBB317:
 1279              	.LBB316:
 1280              	.LBB315:
 1281              	.LBB313:
 1282              	.LBI313:
 1283              		.loc 4 544 57 view .LVU362
 1284              	.LBB314:
 1285              		.loc 4 546 3 view .LVU363
 1286 001e 0023     		movs	r3, #0
 1287              		.syntax unified
 1288              	@ 546 "src/ChibiOS_3.0.2/os/ext/CMSIS/include/core_cmFunc.h" 1
 1289 0020 83F31188 		MSR basepri, r3
 1290              	@ 0 "" 2
 1291              	.LVL65:
 1292              		.loc 4 546 3 is_stmt 0 view .LVU364
 1293              		.thumb
 1294              		.syntax unified
 1295              	.LBE314:
 1296              	.LBE313:
 1297              	.LBE315:
 1298              	.LBE316:
 1299              	.LBE317:
 1300              		.loc 1 398 3 is_stmt 1 view .LVU365
 1301              		.loc 1 399 1 is_stmt 0 view .LVU366
 1302 0024 38BD     		pop	{r3, r4, r5, pc}
 1303              	.LVL66:
 1304              	.L56:
 1305              		.loc 1 399 1 view .LVU367
 1306 0026 0446     		mov	r4, r0
 1307              	.LVL67:
 1308              		.loc 1 390 5 is_stmt 1 view .LVU368
 1309              		.loc 1 390 21 is_stmt 0 view .LVU369
 1310 0028 6862     		str	r0, [r5, #36]
 1311              		.loc 1 391 5 is_stmt 1 view .LVU370
ARM GAS  C:\Users\USER\AppData\Local\Temp\cckaTAyR.s 			page 24


 1312 002a 0A20     		movs	r0, #10
 1313              	.LVL68:
 1314              		.loc 1 391 5 is_stmt 0 view .LVU371
 1315 002c FFF7FEFF 		bl	chSchGoSleepS
 1316              	.LVL69:
 1317              		.loc 1 392 5 is_stmt 1 view .LVU372
 1318              		.loc 1 392 12 is_stmt 0 view .LVU373
 1319 0030 AB6B     		ldr	r3, [r5, #56]
 1320              		.loc 1 392 7 view .LVU374
 1321 0032 1C40     		ands	r4, r4, r3
 1322              	.LVL70:
 1323              		.loc 1 392 7 view .LVU375
 1324 0034 EEE7     		b	.L54
 1325              	.L58:
 1326 0036 00BF     		.align	2
 1327              	.L57:
 1328 0038 00000000 		.word	ch
 1329              		.cfi_endproc
 1330              	.LFE230:
 1331              		.size	chEvtWaitOne, .-chEvtWaitOne
 1332              		.section	.text.chEvtWaitAny,"ax",%progbits
 1333              		.align	1
 1334              		.p2align 4,,15
 1335              		.global	chEvtWaitAny
 1336              		.syntax unified
 1337              		.thumb
 1338              		.thumb_func
 1339              		.fpu fpv4-sp-d16
 1340              		.type	chEvtWaitAny, %function
 1341              	chEvtWaitAny:
 1342              	.LVL71:
 1343              	.LFB231:
 1344              		.loc 1 413 46 is_stmt 1 view -0
 1345              		.cfi_startproc
 1346              		@ args = 0, pretend = 0, frame = 0
 1347              		@ frame_needed = 0, uses_anonymous_args = 0
 1348              		.loc 1 414 3 view .LVU377
 1349              		.loc 1 413 46 is_stmt 0 view .LVU378
 1350 0000 38B5     		push	{r3, r4, r5, lr}
 1351              		.cfi_def_cfa_offset 16
 1352              		.cfi_offset 3, -16
 1353              		.cfi_offset 4, -12
 1354              		.cfi_offset 5, -8
 1355              		.cfi_offset 14, -4
 1356              		.loc 1 414 13 view .LVU379
 1357 0002 0C4B     		ldr	r3, .L63
 1358 0004 9D69     		ldr	r5, [r3, #24]
 1359              	.LVL72:
 1360              		.loc 1 415 3 is_stmt 1 view .LVU380
 1361              		.loc 1 417 3 view .LVU381
 1362              	.LBB318:
 1363              	.LBI318:
 1364              		.loc 2 346 20 view .LVU382
 1365              	.LBE318:
 1366              		.loc 2 348 3 view .LVU383
 1367              	.LBB323:
 1368              	.LBB319:
ARM GAS  C:\Users\USER\AppData\Local\Temp\cckaTAyR.s 			page 25


 1369              	.LBI319:
 1370              		.loc 3 444 20 view .LVU384
 1371              	.LBE319:
 1372              	.LBE323:
 1373              		.loc 3 447 3 view .LVU385
 1374              	.LBB324:
 1375              	.LBB322:
 1376              	.LBB320:
 1377              	.LBI320:
 1378              		.loc 4 544 57 view .LVU386
 1379              	.LBB321:
 1380              		.loc 4 546 3 view .LVU387
 1381 0006 2023     		movs	r3, #32
 1382              		.syntax unified
 1383              	@ 546 "src/ChibiOS_3.0.2/os/ext/CMSIS/include/core_cmFunc.h" 1
 1384 0008 83F31188 		MSR basepri, r3
 1385              	@ 0 "" 2
 1386              	.LVL73:
 1387              		.loc 4 546 3 is_stmt 0 view .LVU388
 1388              		.thumb
 1389              		.syntax unified
 1390              	.LBE321:
 1391              	.LBE320:
 1392              	.LBE322:
 1393              	.LBE324:
 1394              		.loc 2 349 34 is_stmt 1 view .LVU389
 1395              		.loc 2 350 20 view .LVU390
 1396              		.loc 1 418 3 view .LVU391
 1397              		.loc 1 418 10 is_stmt 0 view .LVU392
 1398 000c AB6B     		ldr	r3, [r5, #56]
 1399              	.LVL74:
 1400              		.loc 1 419 3 is_stmt 1 view .LVU393
 1401              		.loc 1 419 6 is_stmt 0 view .LVU394
 1402 000e 13EA0004 		ands	r4, r3, r0
 1403              	.LVL75:
 1404              		.loc 1 419 6 view .LVU395
 1405 0012 07D0     		beq	.L62
 1406              	.LVL76:
 1407              	.L60:
 1408              		.loc 1 424 3 is_stmt 1 view .LVU396
 1409              		.loc 1 424 19 is_stmt 0 view .LVU397
 1410 0014 23EA0403 		bic	r3, r3, r4
 1411 0018 AB63     		str	r3, [r5, #56]
 1412              		.loc 1 425 3 is_stmt 1 view .LVU398
 1413              	.LBB325:
 1414              	.LBI325:
 1415              		.loc 2 358 20 view .LVU399
 1416              	.LBB326:
 1417              		.loc 2 360 22 view .LVU400
 1418              		.loc 2 361 33 view .LVU401
 1419              		.loc 2 367 3 view .LVU402
 1420              		.loc 2 367 3 view .LVU403
 1421              		.loc 2 371 3 view .LVU404
 1422              	.LBB327:
 1423              	.LBI327:
 1424              		.loc 3 458 20 view .LVU405
 1425              	.LBE327:
ARM GAS  C:\Users\USER\AppData\Local\Temp\cckaTAyR.s 			page 26


 1426              	.LBE326:
 1427              	.LBE325:
 1428              		.loc 3 461 3 view .LVU406
 1429              	.LVL77:
 1430              	.LBB332:
 1431              	.LBB331:
 1432              	.LBB330:
 1433              	.LBB328:
 1434              	.LBI328:
 1435              		.loc 4 544 57 view .LVU407
 1436              	.LBB329:
 1437              		.loc 4 546 3 view .LVU408
 1438 001a 0023     		movs	r3, #0
 1439              		.syntax unified
 1440              	@ 546 "src/ChibiOS_3.0.2/os/ext/CMSIS/include/core_cmFunc.h" 1
 1441 001c 83F31188 		MSR basepri, r3
 1442              	@ 0 "" 2
 1443              	.LVL78:
 1444              		.loc 4 546 3 is_stmt 0 view .LVU409
 1445              		.thumb
 1446              		.syntax unified
 1447              	.LBE329:
 1448              	.LBE328:
 1449              	.LBE330:
 1450              	.LBE331:
 1451              	.LBE332:
 1452              		.loc 1 427 3 is_stmt 1 view .LVU410
 1453              		.loc 1 428 1 is_stmt 0 view .LVU411
 1454 0020 2046     		mov	r0, r4
 1455 0022 38BD     		pop	{r3, r4, r5, pc}
 1456              	.LVL79:
 1457              	.L62:
 1458              		.loc 1 428 1 view .LVU412
 1459 0024 0446     		mov	r4, r0
 1460              	.LVL80:
 1461              		.loc 1 420 5 is_stmt 1 view .LVU413
 1462              		.loc 1 420 21 is_stmt 0 view .LVU414
 1463 0026 6862     		str	r0, [r5, #36]
 1464              		.loc 1 421 5 is_stmt 1 view .LVU415
 1465 0028 0A20     		movs	r0, #10
 1466              	.LVL81:
 1467              		.loc 1 421 5 is_stmt 0 view .LVU416
 1468 002a FFF7FEFF 		bl	chSchGoSleepS
 1469              	.LVL82:
 1470              		.loc 1 422 5 is_stmt 1 view .LVU417
 1471              		.loc 1 422 12 is_stmt 0 view .LVU418
 1472 002e AB6B     		ldr	r3, [r5, #56]
 1473              		.loc 1 422 7 view .LVU419
 1474 0030 1C40     		ands	r4, r4, r3
 1475              	.LVL83:
 1476              		.loc 1 422 7 view .LVU420
 1477 0032 EFE7     		b	.L60
 1478              	.L64:
 1479              		.align	2
 1480              	.L63:
 1481 0034 00000000 		.word	ch
 1482              		.cfi_endproc
ARM GAS  C:\Users\USER\AppData\Local\Temp\cckaTAyR.s 			page 27


 1483              	.LFE231:
 1484              		.size	chEvtWaitAny, .-chEvtWaitAny
 1485              		.section	.text.chEvtWaitAll,"ax",%progbits
 1486              		.align	1
 1487              		.p2align 4,,15
 1488              		.global	chEvtWaitAll
 1489              		.syntax unified
 1490              		.thumb
 1491              		.thumb_func
 1492              		.fpu fpv4-sp-d16
 1493              		.type	chEvtWaitAll, %function
 1494              	chEvtWaitAll:
 1495              	.LVL84:
 1496              	.LFB232:
 1497              		.loc 1 441 46 is_stmt 1 view -0
 1498              		.cfi_startproc
 1499              		@ args = 0, pretend = 0, frame = 0
 1500              		@ frame_needed = 0, uses_anonymous_args = 0
 1501              		.loc 1 442 3 view .LVU422
 1502              		.loc 1 441 46 is_stmt 0 view .LVU423
 1503 0000 38B5     		push	{r3, r4, r5, lr}
 1504              		.cfi_def_cfa_offset 16
 1505              		.cfi_offset 3, -16
 1506              		.cfi_offset 4, -12
 1507              		.cfi_offset 5, -8
 1508              		.cfi_offset 14, -4
 1509              		.loc 1 442 13 view .LVU424
 1510 0002 0B4B     		ldr	r3, .L68
 1511              		.loc 1 441 46 view .LVU425
 1512 0004 0446     		mov	r4, r0
 1513              		.loc 1 442 13 view .LVU426
 1514 0006 9D69     		ldr	r5, [r3, #24]
 1515              	.LVL85:
 1516              		.loc 1 444 3 is_stmt 1 view .LVU427
 1517              	.LBB333:
 1518              	.LBI333:
 1519              		.loc 2 346 20 view .LVU428
 1520              	.LBE333:
 1521              		.loc 2 348 3 view .LVU429
 1522              	.LBB338:
 1523              	.LBB334:
 1524              	.LBI334:
 1525              		.loc 3 444 20 view .LVU430
 1526              	.LBE334:
 1527              	.LBE338:
 1528              		.loc 3 447 3 view .LVU431
 1529              	.LBB339:
 1530              	.LBB337:
 1531              	.LBB335:
 1532              	.LBI335:
 1533              		.loc 4 544 57 view .LVU432
 1534              	.LBB336:
 1535              		.loc 4 546 3 view .LVU433
 1536 0008 2023     		movs	r3, #32
 1537              		.syntax unified
 1538              	@ 546 "src/ChibiOS_3.0.2/os/ext/CMSIS/include/core_cmFunc.h" 1
 1539 000a 83F31188 		MSR basepri, r3
ARM GAS  C:\Users\USER\AppData\Local\Temp\cckaTAyR.s 			page 28


 1540              	@ 0 "" 2
 1541              	.LVL86:
 1542              		.loc 4 546 3 is_stmt 0 view .LVU434
 1543              		.thumb
 1544              		.syntax unified
 1545              	.LBE336:
 1546              	.LBE335:
 1547              	.LBE337:
 1548              	.LBE339:
 1549              		.loc 2 349 34 is_stmt 1 view .LVU435
 1550              		.loc 2 350 20 view .LVU436
 1551              		.loc 1 445 3 view .LVU437
 1552              		.loc 1 445 11 is_stmt 0 view .LVU438
 1553 000e AB6B     		ldr	r3, [r5, #56]
 1554              		.loc 1 445 6 view .LVU439
 1555 0010 30EA0302 		bics	r2, r0, r3
 1556 0014 04D0     		beq	.L66
 1557              		.loc 1 446 5 is_stmt 1 view .LVU440
 1558              		.loc 1 446 21 is_stmt 0 view .LVU441
 1559 0016 6862     		str	r0, [r5, #36]
 1560              		.loc 1 447 5 is_stmt 1 view .LVU442
 1561 0018 0B20     		movs	r0, #11
 1562              	.LVL87:
 1563              		.loc 1 447 5 is_stmt 0 view .LVU443
 1564 001a FFF7FEFF 		bl	chSchGoSleepS
 1565              	.LVL88:
 1566 001e AB6B     		ldr	r3, [r5, #56]
 1567              	.L66:
 1568              		.loc 1 449 3 is_stmt 1 view .LVU444
 1569              		.loc 1 449 19 is_stmt 0 view .LVU445
 1570 0020 23EA0403 		bic	r3, r3, r4
 1571 0024 AB63     		str	r3, [r5, #56]
 1572              		.loc 1 450 3 is_stmt 1 view .LVU446
 1573              	.LBB340:
 1574              	.LBI340:
 1575              		.loc 2 358 20 view .LVU447
 1576              	.LBB341:
 1577              		.loc 2 360 22 view .LVU448
 1578              		.loc 2 361 33 view .LVU449
 1579              		.loc 2 367 3 view .LVU450
 1580              		.loc 2 367 3 view .LVU451
 1581              		.loc 2 371 3 view .LVU452
 1582              	.LBB342:
 1583              	.LBI342:
 1584              		.loc 3 458 20 view .LVU453
 1585              	.LBE342:
 1586              	.LBE341:
 1587              	.LBE340:
 1588              		.loc 3 461 3 view .LVU454
 1589              	.LVL89:
 1590              	.LBB347:
 1591              	.LBB346:
 1592              	.LBB345:
 1593              	.LBB343:
 1594              	.LBI343:
 1595              		.loc 4 544 57 view .LVU455
 1596              	.LBB344:
ARM GAS  C:\Users\USER\AppData\Local\Temp\cckaTAyR.s 			page 29


 1597              		.loc 4 546 3 view .LVU456
 1598 0026 0023     		movs	r3, #0
 1599              		.syntax unified
 1600              	@ 546 "src/ChibiOS_3.0.2/os/ext/CMSIS/include/core_cmFunc.h" 1
 1601 0028 83F31188 		MSR basepri, r3
 1602              	@ 0 "" 2
 1603              	.LVL90:
 1604              		.loc 4 546 3 is_stmt 0 view .LVU457
 1605              		.thumb
 1606              		.syntax unified
 1607              	.LBE344:
 1608              	.LBE343:
 1609              	.LBE345:
 1610              	.LBE346:
 1611              	.LBE347:
 1612              		.loc 1 452 3 is_stmt 1 view .LVU458
 1613              		.loc 1 453 1 is_stmt 0 view .LVU459
 1614 002c 2046     		mov	r0, r4
 1615 002e 38BD     		pop	{r3, r4, r5, pc}
 1616              	.LVL91:
 1617              	.L69:
 1618              		.loc 1 453 1 view .LVU460
 1619              		.align	2
 1620              	.L68:
 1621 0030 00000000 		.word	ch
 1622              		.cfi_endproc
 1623              	.LFE232:
 1624              		.size	chEvtWaitAll, .-chEvtWaitAll
 1625              		.section	.text.chEvtWaitOneTimeout,"ax",%progbits
 1626              		.align	1
 1627              		.p2align 4,,15
 1628              		.global	chEvtWaitOneTimeout
 1629              		.syntax unified
 1630              		.thumb
 1631              		.thumb_func
 1632              		.fpu fpv4-sp-d16
 1633              		.type	chEvtWaitOneTimeout, %function
 1634              	chEvtWaitOneTimeout:
 1635              	.LVL92:
 1636              	.LFB233:
 1637              		.loc 1 479 69 is_stmt 1 view -0
 1638              		.cfi_startproc
 1639              		@ args = 0, pretend = 0, frame = 0
 1640              		@ frame_needed = 0, uses_anonymous_args = 0
 1641              		.loc 1 480 3 view .LVU462
 1642              		.loc 1 480 13 is_stmt 0 view .LVU463
 1643 0000 114B     		ldr	r3, .L77
 1644              		.loc 1 479 69 view .LVU464
 1645 0002 70B5     		push	{r4, r5, r6, lr}
 1646              		.cfi_def_cfa_offset 16
 1647              		.cfi_offset 4, -16
 1648              		.cfi_offset 5, -12
 1649              		.cfi_offset 6, -8
 1650              		.cfi_offset 14, -4
 1651              		.loc 1 480 13 view .LVU465
 1652 0004 9E69     		ldr	r6, [r3, #24]
 1653              	.LVL93:
ARM GAS  C:\Users\USER\AppData\Local\Temp\cckaTAyR.s 			page 30


 1654              		.loc 1 481 3 is_stmt 1 view .LVU466
 1655              		.loc 1 483 3 view .LVU467
 1656              	.LBB348:
 1657              	.LBI348:
 1658              		.loc 2 346 20 view .LVU468
 1659              	.LBE348:
 1660              		.loc 2 348 3 view .LVU469
 1661              	.LBB353:
 1662              	.LBB349:
 1663              	.LBI349:
 1664              		.loc 3 444 20 view .LVU470
 1665              	.LBE349:
 1666              	.LBE353:
 1667              		.loc 3 447 3 view .LVU471
 1668              	.LBB354:
 1669              	.LBB352:
 1670              	.LBB350:
 1671              	.LBI350:
 1672              		.loc 4 544 57 view .LVU472
 1673              	.LBB351:
 1674              		.loc 4 546 3 view .LVU473
 1675 0006 2023     		movs	r3, #32
 1676              		.syntax unified
 1677              	@ 546 "src/ChibiOS_3.0.2/os/ext/CMSIS/include/core_cmFunc.h" 1
 1678 0008 83F31188 		MSR basepri, r3
 1679              	@ 0 "" 2
 1680              	.LVL94:
 1681              		.loc 4 546 3 is_stmt 0 view .LVU474
 1682              		.thumb
 1683              		.syntax unified
 1684              	.LBE351:
 1685              	.LBE350:
 1686              	.LBE352:
 1687              	.LBE354:
 1688              		.loc 2 349 34 is_stmt 1 view .LVU475
 1689              		.loc 2 350 20 view .LVU476
 1690              		.loc 1 484 3 view .LVU477
 1691              		.loc 1 484 10 is_stmt 0 view .LVU478
 1692 000c B36B     		ldr	r3, [r6, #56]
 1693              	.LVL95:
 1694              		.loc 1 485 3 is_stmt 1 view .LVU479
 1695              		.loc 1 485 6 is_stmt 0 view .LVU480
 1696 000e 13EA0004 		ands	r4, r3, r0
 1697              	.LVL96:
 1698              		.loc 1 485 6 view .LVU481
 1699 0012 0ED1     		bne	.L71
 1700              		.loc 1 486 5 is_stmt 1 view .LVU482
 1701              		.loc 1 486 8 is_stmt 0 view .LVU483
 1702 0014 19B9     		cbnz	r1, .L72
 1703              	.LVL97:
 1704              	.L76:
 1705              		.loc 1 492 7 is_stmt 1 view .LVU484
 1706              	.LBB355:
 1707              	.LBI355:
 1708              		.loc 2 358 20 view .LVU485
 1709              	.LBB356:
 1710              		.loc 2 360 22 view .LVU486
ARM GAS  C:\Users\USER\AppData\Local\Temp\cckaTAyR.s 			page 31


 1711              		.loc 2 361 33 view .LVU487
 1712              		.loc 2 367 3 view .LVU488
 1713              		.loc 2 367 3 view .LVU489
 1714              		.loc 2 371 3 view .LVU490
 1715              	.LBB357:
 1716              	.LBI357:
 1717              		.loc 3 458 20 view .LVU491
 1718              	.LBE357:
 1719              	.LBE356:
 1720              	.LBE355:
 1721              		.loc 3 461 3 view .LVU492
 1722              	.LBB362:
 1723              	.LBB361:
 1724              	.LBB360:
 1725              	.LBB358:
 1726              	.LBI358:
 1727              		.loc 4 544 57 view .LVU493
 1728              	.LBB359:
 1729              		.loc 4 546 3 view .LVU494
 1730              		.syntax unified
 1731              	@ 546 "src/ChibiOS_3.0.2/os/ext/CMSIS/include/core_cmFunc.h" 1
 1732 0016 84F31188 		MSR basepri, r4
 1733              	@ 0 "" 2
 1734              	.LVL98:
 1735              		.loc 4 546 3 is_stmt 0 view .LVU495
 1736              		.thumb
 1737              		.syntax unified
 1738              	.LBE359:
 1739              	.LBE358:
 1740              	.LBE360:
 1741              	.LBE361:
 1742              	.LBE362:
 1743              		.loc 1 493 7 is_stmt 1 view .LVU496
 1744              		.loc 1 502 1 is_stmt 0 view .LVU497
 1745 001a 2046     		mov	r0, r4
 1746 001c 70BD     		pop	{r4, r5, r6, pc}
 1747              	.LVL99:
 1748              	.L72:
 1749              		.loc 1 490 5 is_stmt 1 view .LVU498
 1750              		.loc 1 490 21 is_stmt 0 view .LVU499
 1751 001e 7062     		str	r0, [r6, #36]
 1752              		.loc 1 491 5 is_stmt 1 view .LVU500
 1753 0020 0546     		mov	r5, r0
 1754              		.loc 1 491 9 is_stmt 0 view .LVU501
 1755 0022 0A20     		movs	r0, #10
 1756              	.LVL100:
 1757              		.loc 1 491 9 view .LVU502
 1758 0024 FFF7FEFF 		bl	chSchGoSleepTimeoutS
 1759              	.LVL101:
 1760              		.loc 1 491 8 view .LVU503
 1761 0028 0028     		cmp	r0, #0
 1762 002a F4DB     		blt	.L76
 1763              		.loc 1 495 5 is_stmt 1 view .LVU504
 1764              		.loc 1 495 12 is_stmt 0 view .LVU505
 1765 002c B36B     		ldr	r3, [r6, #56]
 1766              		.loc 1 495 7 view .LVU506
 1767 002e 03EA0504 		and	r4, r3, r5
ARM GAS  C:\Users\USER\AppData\Local\Temp\cckaTAyR.s 			page 32


 1768              	.LVL102:
 1769              	.L71:
 1770              		.loc 1 497 3 is_stmt 1 view .LVU507
 1771              		.loc 1 497 5 is_stmt 0 view .LVU508
 1772 0032 6242     		rsbs	r2, r4, #0
 1773 0034 1440     		ands	r4, r4, r2
 1774              	.LVL103:
 1775              		.loc 1 498 3 is_stmt 1 view .LVU509
 1776              		.loc 1 498 19 is_stmt 0 view .LVU510
 1777 0036 23EA0403 		bic	r3, r3, r4
 1778 003a B363     		str	r3, [r6, #56]
 1779              		.loc 1 499 3 is_stmt 1 view .LVU511
 1780              	.LBB363:
 1781              	.LBI363:
 1782              		.loc 2 358 20 view .LVU512
 1783              	.LBB364:
 1784              		.loc 2 360 22 view .LVU513
 1785              		.loc 2 361 33 view .LVU514
 1786              		.loc 2 367 3 view .LVU515
 1787              		.loc 2 367 3 view .LVU516
 1788              		.loc 2 371 3 view .LVU517
 1789              	.LBB365:
 1790              	.LBI365:
 1791              		.loc 3 458 20 view .LVU518
 1792              	.LBE365:
 1793              	.LBE364:
 1794              	.LBE363:
 1795              		.loc 3 461 3 view .LVU519
 1796              	.LVL104:
 1797              	.LBB370:
 1798              	.LBB369:
 1799              	.LBB368:
 1800              	.LBB366:
 1801              	.LBI366:
 1802              		.loc 4 544 57 view .LVU520
 1803              	.LBB367:
 1804              		.loc 4 546 3 view .LVU521
 1805 003c 0023     		movs	r3, #0
 1806              		.syntax unified
 1807              	@ 546 "src/ChibiOS_3.0.2/os/ext/CMSIS/include/core_cmFunc.h" 1
 1808 003e 83F31188 		MSR basepri, r3
 1809              	@ 0 "" 2
 1810              	.LVL105:
 1811              		.loc 4 546 3 is_stmt 0 view .LVU522
 1812              		.thumb
 1813              		.syntax unified
 1814              	.LBE367:
 1815              	.LBE366:
 1816              	.LBE368:
 1817              	.LBE369:
 1818              	.LBE370:
 1819              		.loc 1 501 3 is_stmt 1 view .LVU523
 1820              		.loc 1 502 1 is_stmt 0 view .LVU524
 1821 0042 2046     		mov	r0, r4
 1822 0044 70BD     		pop	{r4, r5, r6, pc}
 1823              	.LVL106:
 1824              	.L78:
ARM GAS  C:\Users\USER\AppData\Local\Temp\cckaTAyR.s 			page 33


 1825              		.loc 1 502 1 view .LVU525
 1826 0046 00BF     		.align	2
 1827              	.L77:
 1828 0048 00000000 		.word	ch
 1829              		.cfi_endproc
 1830              	.LFE233:
 1831              		.size	chEvtWaitOneTimeout, .-chEvtWaitOneTimeout
 1832              		.section	.text.chEvtWaitAnyTimeout,"ax",%progbits
 1833              		.align	1
 1834              		.p2align 4,,15
 1835              		.global	chEvtWaitAnyTimeout
 1836              		.syntax unified
 1837              		.thumb
 1838              		.thumb_func
 1839              		.fpu fpv4-sp-d16
 1840              		.type	chEvtWaitAnyTimeout, %function
 1841              	chEvtWaitAnyTimeout:
 1842              	.LVL107:
 1843              	.LFB234:
 1844              		.loc 1 522 69 is_stmt 1 view -0
 1845              		.cfi_startproc
 1846              		@ args = 0, pretend = 0, frame = 0
 1847              		@ frame_needed = 0, uses_anonymous_args = 0
 1848              		.loc 1 523 3 view .LVU527
 1849              		.loc 1 523 13 is_stmt 0 view .LVU528
 1850 0000 104B     		ldr	r3, .L86
 1851              		.loc 1 522 69 view .LVU529
 1852 0002 70B5     		push	{r4, r5, r6, lr}
 1853              		.cfi_def_cfa_offset 16
 1854              		.cfi_offset 4, -16
 1855              		.cfi_offset 5, -12
 1856              		.cfi_offset 6, -8
 1857              		.cfi_offset 14, -4
 1858              		.loc 1 523 13 view .LVU530
 1859 0004 9E69     		ldr	r6, [r3, #24]
 1860              	.LVL108:
 1861              		.loc 1 524 3 is_stmt 1 view .LVU531
 1862              		.loc 1 526 3 view .LVU532
 1863              	.LBB371:
 1864              	.LBI371:
 1865              		.loc 2 346 20 view .LVU533
 1866              	.LBE371:
 1867              		.loc 2 348 3 view .LVU534
 1868              	.LBB376:
 1869              	.LBB372:
 1870              	.LBI372:
 1871              		.loc 3 444 20 view .LVU535
 1872              	.LBE372:
 1873              	.LBE376:
 1874              		.loc 3 447 3 view .LVU536
 1875              	.LBB377:
 1876              	.LBB375:
 1877              	.LBB373:
 1878              	.LBI373:
 1879              		.loc 4 544 57 view .LVU537
 1880              	.LBB374:
 1881              		.loc 4 546 3 view .LVU538
ARM GAS  C:\Users\USER\AppData\Local\Temp\cckaTAyR.s 			page 34


 1882 0006 2023     		movs	r3, #32
 1883              		.syntax unified
 1884              	@ 546 "src/ChibiOS_3.0.2/os/ext/CMSIS/include/core_cmFunc.h" 1
 1885 0008 83F31188 		MSR basepri, r3
 1886              	@ 0 "" 2
 1887              	.LVL109:
 1888              		.loc 4 546 3 is_stmt 0 view .LVU539
 1889              		.thumb
 1890              		.syntax unified
 1891              	.LBE374:
 1892              	.LBE373:
 1893              	.LBE375:
 1894              	.LBE377:
 1895              		.loc 2 349 34 is_stmt 1 view .LVU540
 1896              		.loc 2 350 20 view .LVU541
 1897              		.loc 1 527 3 view .LVU542
 1898              		.loc 1 527 10 is_stmt 0 view .LVU543
 1899 000c B36B     		ldr	r3, [r6, #56]
 1900              	.LVL110:
 1901              		.loc 1 528 3 is_stmt 1 view .LVU544
 1902              		.loc 1 528 6 is_stmt 0 view .LVU545
 1903 000e 13EA0005 		ands	r5, r3, r0
 1904              	.LVL111:
 1905              		.loc 1 528 6 view .LVU546
 1906 0012 0ED1     		bne	.L80
 1907              		.loc 1 529 5 is_stmt 1 view .LVU547
 1908              		.loc 1 529 8 is_stmt 0 view .LVU548
 1909 0014 19B9     		cbnz	r1, .L81
 1910              	.LVL112:
 1911              	.L85:
 1912              		.loc 1 535 7 is_stmt 1 view .LVU549
 1913              	.LBB378:
 1914              	.LBI378:
 1915              		.loc 2 358 20 view .LVU550
 1916              	.LBB379:
 1917              		.loc 2 360 22 view .LVU551
 1918              		.loc 2 361 33 view .LVU552
 1919              		.loc 2 367 3 view .LVU553
 1920              		.loc 2 367 3 view .LVU554
 1921              		.loc 2 371 3 view .LVU555
 1922              	.LBB380:
 1923              	.LBI380:
 1924              		.loc 3 458 20 view .LVU556
 1925              	.LBE380:
 1926              	.LBE379:
 1927              	.LBE378:
 1928              		.loc 3 461 3 view .LVU557
 1929              	.LBB385:
 1930              	.LBB384:
 1931              	.LBB383:
 1932              	.LBB381:
 1933              	.LBI381:
 1934              		.loc 4 544 57 view .LVU558
 1935              	.LBB382:
 1936              		.loc 4 546 3 view .LVU559
 1937              		.syntax unified
 1938              	@ 546 "src/ChibiOS_3.0.2/os/ext/CMSIS/include/core_cmFunc.h" 1
ARM GAS  C:\Users\USER\AppData\Local\Temp\cckaTAyR.s 			page 35


 1939 0016 85F31188 		MSR basepri, r5
 1940              	@ 0 "" 2
 1941              	.LVL113:
 1942              		.loc 4 546 3 is_stmt 0 view .LVU560
 1943              		.thumb
 1944              		.syntax unified
 1945              	.LBE382:
 1946              	.LBE381:
 1947              	.LBE383:
 1948              	.LBE384:
 1949              	.LBE385:
 1950              		.loc 1 536 7 is_stmt 1 view .LVU561
 1951              		.loc 1 544 1 is_stmt 0 view .LVU562
 1952 001a 2846     		mov	r0, r5
 1953 001c 70BD     		pop	{r4, r5, r6, pc}
 1954              	.LVL114:
 1955              	.L81:
 1956              		.loc 1 533 5 is_stmt 1 view .LVU563
 1957              		.loc 1 533 21 is_stmt 0 view .LVU564
 1958 001e 7062     		str	r0, [r6, #36]
 1959              		.loc 1 534 5 is_stmt 1 view .LVU565
 1960 0020 0446     		mov	r4, r0
 1961              		.loc 1 534 9 is_stmt 0 view .LVU566
 1962 0022 0A20     		movs	r0, #10
 1963              	.LVL115:
 1964              		.loc 1 534 9 view .LVU567
 1965 0024 FFF7FEFF 		bl	chSchGoSleepTimeoutS
 1966              	.LVL116:
 1967              		.loc 1 534 8 view .LVU568
 1968 0028 0028     		cmp	r0, #0
 1969 002a F4DB     		blt	.L85
 1970              		.loc 1 538 5 is_stmt 1 view .LVU569
 1971              		.loc 1 538 12 is_stmt 0 view .LVU570
 1972 002c B36B     		ldr	r3, [r6, #56]
 1973              		.loc 1 538 7 view .LVU571
 1974 002e 03EA0405 		and	r5, r3, r4
 1975              	.LVL117:
 1976              	.L80:
 1977              		.loc 1 540 3 is_stmt 1 view .LVU572
 1978              		.loc 1 540 19 is_stmt 0 view .LVU573
 1979 0032 23EA0503 		bic	r3, r3, r5
 1980 0036 B363     		str	r3, [r6, #56]
 1981              		.loc 1 541 3 is_stmt 1 view .LVU574
 1982              	.LBB386:
 1983              	.LBI386:
 1984              		.loc 2 358 20 view .LVU575
 1985              	.LBB387:
 1986              		.loc 2 360 22 view .LVU576
 1987              		.loc 2 361 33 view .LVU577
 1988              		.loc 2 367 3 view .LVU578
 1989              		.loc 2 367 3 view .LVU579
 1990              		.loc 2 371 3 view .LVU580
 1991              	.LBB388:
 1992              	.LBI388:
 1993              		.loc 3 458 20 view .LVU581
 1994              	.LBE388:
 1995              	.LBE387:
ARM GAS  C:\Users\USER\AppData\Local\Temp\cckaTAyR.s 			page 36


 1996              	.LBE386:
 1997              		.loc 3 461 3 view .LVU582
 1998              	.LVL118:
 1999              	.LBB393:
 2000              	.LBB392:
 2001              	.LBB391:
 2002              	.LBB389:
 2003              	.LBI389:
 2004              		.loc 4 544 57 view .LVU583
 2005              	.LBB390:
 2006              		.loc 4 546 3 view .LVU584
 2007 0038 0023     		movs	r3, #0
 2008              		.syntax unified
 2009              	@ 546 "src/ChibiOS_3.0.2/os/ext/CMSIS/include/core_cmFunc.h" 1
 2010 003a 83F31188 		MSR basepri, r3
 2011              	@ 0 "" 2
 2012              	.LVL119:
 2013              		.loc 4 546 3 is_stmt 0 view .LVU585
 2014              		.thumb
 2015              		.syntax unified
 2016              	.LBE390:
 2017              	.LBE389:
 2018              	.LBE391:
 2019              	.LBE392:
 2020              	.LBE393:
 2021              		.loc 1 543 3 is_stmt 1 view .LVU586
 2022              		.loc 1 544 1 is_stmt 0 view .LVU587
 2023 003e 2846     		mov	r0, r5
 2024 0040 70BD     		pop	{r4, r5, r6, pc}
 2025              	.LVL120:
 2026              	.L87:
 2027              		.loc 1 544 1 view .LVU588
 2028 0042 00BF     		.align	2
 2029              	.L86:
 2030 0044 00000000 		.word	ch
 2031              		.cfi_endproc
 2032              	.LFE234:
 2033              		.size	chEvtWaitAnyTimeout, .-chEvtWaitAnyTimeout
 2034              		.section	.text.chEvtWaitAllTimeout,"ax",%progbits
 2035              		.align	1
 2036              		.p2align 4,,15
 2037              		.global	chEvtWaitAllTimeout
 2038              		.syntax unified
 2039              		.thumb
 2040              		.thumb_func
 2041              		.fpu fpv4-sp-d16
 2042              		.type	chEvtWaitAllTimeout, %function
 2043              	chEvtWaitAllTimeout:
 2044              	.LVL121:
 2045              	.LFB235:
 2046              		.loc 1 563 69 is_stmt 1 view -0
 2047              		.cfi_startproc
 2048              		@ args = 0, pretend = 0, frame = 0
 2049              		@ frame_needed = 0, uses_anonymous_args = 0
 2050              		.loc 1 564 3 view .LVU590
 2051              		.loc 1 563 69 is_stmt 0 view .LVU591
 2052 0000 38B5     		push	{r3, r4, r5, lr}
ARM GAS  C:\Users\USER\AppData\Local\Temp\cckaTAyR.s 			page 37


 2053              		.cfi_def_cfa_offset 16
 2054              		.cfi_offset 3, -16
 2055              		.cfi_offset 4, -12
 2056              		.cfi_offset 5, -8
 2057              		.cfi_offset 14, -4
 2058              		.loc 1 564 13 view .LVU592
 2059 0002 104B     		ldr	r3, .L95
 2060              		.loc 1 563 69 view .LVU593
 2061 0004 0446     		mov	r4, r0
 2062              		.loc 1 564 13 view .LVU594
 2063 0006 9D69     		ldr	r5, [r3, #24]
 2064              	.LVL122:
 2065              		.loc 1 566 3 is_stmt 1 view .LVU595
 2066              	.LBB394:
 2067              	.LBI394:
 2068              		.loc 2 346 20 view .LVU596
 2069              	.LBE394:
 2070              		.loc 2 348 3 view .LVU597
 2071              	.LBB399:
 2072              	.LBB395:
 2073              	.LBI395:
 2074              		.loc 3 444 20 view .LVU598
 2075              	.LBE395:
 2076              	.LBE399:
 2077              		.loc 3 447 3 view .LVU599
 2078              	.LBB400:
 2079              	.LBB398:
 2080              	.LBB396:
 2081              	.LBI396:
 2082              		.loc 4 544 57 view .LVU600
 2083              	.LBB397:
 2084              		.loc 4 546 3 view .LVU601
 2085 0008 2023     		movs	r3, #32
 2086              		.syntax unified
 2087              	@ 546 "src/ChibiOS_3.0.2/os/ext/CMSIS/include/core_cmFunc.h" 1
 2088 000a 83F31188 		MSR basepri, r3
 2089              	@ 0 "" 2
 2090              	.LVL123:
 2091              		.loc 4 546 3 is_stmt 0 view .LVU602
 2092              		.thumb
 2093              		.syntax unified
 2094              	.LBE397:
 2095              	.LBE396:
 2096              	.LBE398:
 2097              	.LBE400:
 2098              		.loc 2 349 34 is_stmt 1 view .LVU603
 2099              		.loc 2 350 20 view .LVU604
 2100              		.loc 1 567 3 view .LVU605
 2101              		.loc 1 567 11 is_stmt 0 view .LVU606
 2102 000e AB6B     		ldr	r3, [r5, #56]
 2103              		.loc 1 567 6 view .LVU607
 2104 0010 30EA0302 		bics	r2, r0, r3
 2105 0014 0BD0     		beq	.L89
 2106              		.loc 1 568 5 is_stmt 1 view .LVU608
 2107 0016 0846     		mov	r0, r1
 2108              	.LVL124:
 2109              		.loc 1 568 8 is_stmt 0 view .LVU609
ARM GAS  C:\Users\USER\AppData\Local\Temp\cckaTAyR.s 			page 38


 2110 0018 11B9     		cbnz	r1, .L90
 2111              	.LVL125:
 2112              	.L94:
 2113              	.LBB401:
 2114              	.LBB402:
 2115              	.LBB403:
 2116              	.LBB404:
 2117              	.LBB405:
 2118              		.loc 4 546 3 view .LVU610
 2119              		.syntax unified
 2120              	@ 546 "src/ChibiOS_3.0.2/os/ext/CMSIS/include/core_cmFunc.h" 1
 2121 001a 80F31188 		MSR basepri, r0
 2122              	@ 0 "" 2
 2123              		.thumb
 2124              		.syntax unified
 2125              	.LBE405:
 2126              	.LBE404:
 2127              	.LBE403:
 2128              	.LBE402:
 2129              	.LBE401:
 2130              		.loc 1 575 7 is_stmt 1 view .LVU611
 2131              		.loc 1 582 1 is_stmt 0 view .LVU612
 2132 001e 38BD     		pop	{r3, r4, r5, pc}
 2133              	.LVL126:
 2134              	.L90:
 2135              		.loc 1 572 5 is_stmt 1 view .LVU613
 2136              		.loc 1 572 21 is_stmt 0 view .LVU614
 2137 0020 6C62     		str	r4, [r5, #36]
 2138              		.loc 1 573 5 is_stmt 1 view .LVU615
 2139              		.loc 1 573 9 is_stmt 0 view .LVU616
 2140 0022 0B20     		movs	r0, #11
 2141              	.LVL127:
 2142              		.loc 1 573 9 view .LVU617
 2143 0024 FFF7FEFF 		bl	chSchGoSleepTimeoutS
 2144              	.LVL128:
 2145              		.loc 1 573 8 view .LVU618
 2146 0028 0028     		cmp	r0, #0
 2147 002a 08DB     		blt	.L92
 2148 002c AB6B     		ldr	r3, [r5, #56]
 2149              	.L89:
 2150              		.loc 1 578 3 is_stmt 1 view .LVU619
 2151              		.loc 1 578 19 is_stmt 0 view .LVU620
 2152 002e 23EA0403 		bic	r3, r3, r4
 2153 0032 AB63     		str	r3, [r5, #56]
 2154              		.loc 1 579 3 is_stmt 1 view .LVU621
 2155              	.LBB412:
 2156              	.LBI412:
 2157              		.loc 2 358 20 view .LVU622
 2158              	.LBB413:
 2159              		.loc 2 360 22 view .LVU623
 2160              		.loc 2 361 33 view .LVU624
 2161              		.loc 2 367 3 view .LVU625
 2162              		.loc 2 367 3 view .LVU626
 2163              		.loc 2 371 3 view .LVU627
 2164              	.LBB414:
 2165              	.LBI414:
 2166              		.loc 3 458 20 view .LVU628
ARM GAS  C:\Users\USER\AppData\Local\Temp\cckaTAyR.s 			page 39


 2167              	.LBE414:
 2168              	.LBE413:
 2169              	.LBE412:
 2170              		.loc 3 461 3 view .LVU629
 2171              	.LVL129:
 2172              	.LBB419:
 2173              	.LBB418:
 2174              	.LBB417:
 2175              	.LBB415:
 2176              	.LBI415:
 2177              		.loc 4 544 57 view .LVU630
 2178              	.LBB416:
 2179              		.loc 4 546 3 view .LVU631
 2180 0034 0023     		movs	r3, #0
 2181              		.syntax unified
 2182              	@ 546 "src/ChibiOS_3.0.2/os/ext/CMSIS/include/core_cmFunc.h" 1
 2183 0036 83F31188 		MSR basepri, r3
 2184              	@ 0 "" 2
 2185              	.LVL130:
 2186              		.loc 4 546 3 is_stmt 0 view .LVU632
 2187              		.thumb
 2188              		.syntax unified
 2189              	.LBE416:
 2190              	.LBE415:
 2191              	.LBE417:
 2192              	.LBE418:
 2193              	.LBE419:
 2194              		.loc 1 581 3 is_stmt 1 view .LVU633
 2195              		.loc 1 581 10 is_stmt 0 view .LVU634
 2196 003a 2046     		mov	r0, r4
 2197              		.loc 1 582 1 view .LVU635
 2198 003c 38BD     		pop	{r3, r4, r5, pc}
 2199              	.LVL131:
 2200              	.L92:
 2201              		.loc 1 574 7 is_stmt 1 view .LVU636
 2202              	.LBB420:
 2203              	.LBI401:
 2204              		.loc 2 358 20 view .LVU637
 2205              	.LBB410:
 2206              		.loc 2 360 22 view .LVU638
 2207              		.loc 2 361 33 view .LVU639
 2208              		.loc 2 367 3 view .LVU640
 2209              		.loc 2 367 3 view .LVU641
 2210              		.loc 2 371 3 view .LVU642
 2211              	.LBB408:
 2212              	.LBI403:
 2213              		.loc 3 458 20 view .LVU643
 2214              	.LBE408:
 2215              	.LBE410:
 2216              	.LBE420:
 2217              		.loc 3 461 3 view .LVU644
 2218              	.LBB421:
 2219              	.LBB411:
 2220              	.LBB409:
 2221              	.LBB407:
 2222              	.LBI404:
 2223              		.loc 4 544 57 view .LVU645
ARM GAS  C:\Users\USER\AppData\Local\Temp\cckaTAyR.s 			page 40


 2224              	.LBB406:
 2225              		.loc 4 546 3 view .LVU646
 2226 003e 0020     		movs	r0, #0
 2227 0040 EBE7     		b	.L94
 2228              	.L96:
 2229 0042 00BF     		.align	2
 2230              	.L95:
 2231 0044 00000000 		.word	ch
 2232              	.LBE406:
 2233              	.LBE407:
 2234              	.LBE409:
 2235              	.LBE411:
 2236              	.LBE421:
 2237              		.cfi_endproc
 2238              	.LFE235:
 2239              		.size	chEvtWaitAllTimeout, .-chEvtWaitAllTimeout
 2240              		.text
 2241              	.Letext0:
 2242              		.file 5 "c:\\program files (x86)\\gnu tools arm embedded\\8 2018-q4-major\\arm-none-eabi\\include\
 2243              		.file 6 "c:\\program files (x86)\\gnu tools arm embedded\\8 2018-q4-major\\arm-none-eabi\\include\
 2244              		.file 7 "src/ChibiOS_3.0.2/os/rt/ports/ARMCMx/compilers/GCC/chtypes.h"
 2245              		.file 8 "src/ChibiOS_3.0.2/os/rt/include/chsystypes.h"
 2246              		.file 9 "src/ChibiOS_3.0.2/os/rt/include/chschd.h"
 2247              		.file 10 "src/ChibiOS_3.0.2/os/ext/CMSIS/include/core_cm4.h"
 2248              		.file 11 "src/ChibiOS_3.0.2/os/ext/CMSIS/ST/system_stm32f4xx.h"
 2249              		.file 12 "src/ChibiOS_3.0.2/os/rt/ports/ARMCMx/chcore.h"
 2250              		.file 13 "src/ChibiOS_3.0.2/os/rt/include/chtm.h"
 2251              		.file 14 "src/ChibiOS_3.0.2/os/rt/include/chsem.h"
 2252              		.file 15 "src/ChibiOS_3.0.2/os/rt/include/chmtx.h"
 2253              		.file 16 "src/ChibiOS_3.0.2/os/rt/include/chregistry.h"
 2254              		.file 17 "src/ChibiOS_3.0.2/os/rt/include/chevents.h"