ARM GAS  C:\Users\USER\AppData\Local\Temp\cckJWSmr.s 			page 1


   1              		.cpu cortex-m4
   2              		.eabi_attribute 27, 1
   3              		.eabi_attribute 28, 1
   4              		.eabi_attribute 20, 1
   5              		.eabi_attribute 21, 1
   6              		.eabi_attribute 23, 3
   7              		.eabi_attribute 24, 1
   8              		.eabi_attribute 25, 1
   9              		.eabi_attribute 26, 1
  10              		.eabi_attribute 30, 2
  11              		.eabi_attribute 34, 1
  12              		.eabi_attribute 18, 4
  13              		.file	"chheap.c"
  14              		.text
  15              	.Ltext0:
  16              		.cfi_sections	.debug_frame
  17              		.section	.text._heap_init,"ax",%progbits
  18              		.align	1
  19              		.p2align 4,,15
  20              		.global	_heap_init
  21              		.arch armv7e-m
  22              		.syntax unified
  23              		.thumb
  24              		.thumb_func
  25              		.fpu fpv4-sp-d16
  26              		.type	_heap_init, %function
  27              	_heap_init:
  28              	.LFB219:
  29              		.file 1 "src/ChibiOS_3.0.2/os/rt/src/chheap.c"
  30              		.loc 1 91 23 view -0
  31              		.cfi_startproc
  32              		@ args = 0, pretend = 0, frame = 0
  33              		@ frame_needed = 0, uses_anonymous_args = 0
  34              		@ link register save eliminated.
  35              		.loc 1 93 3 view .LVU1
  36              		.loc 1 93 27 is_stmt 0 view .LVU2
  37 0000 044B     		ldr	r3, .L3
  38 0002 054A     		ldr	r2, .L3+4
  39 0004 1A60     		str	r2, [r3]
  40              		.loc 1 94 3 is_stmt 1 view .LVU3
  41              		.loc 1 97 3 is_stmt 0 view .LVU4
  42 0006 03F11000 		add	r0, r3, #16
  43              		.loc 1 94 32 view .LVU5
  44 000a 0022     		movs	r2, #0
  45              		.loc 1 95 30 view .LVU6
  46 000c C3E90222 		strd	r2, r2, [r3, #8]
  47              		.loc 1 97 3 is_stmt 1 view .LVU7
  48 0010 FFF7FEBF 		b	chMtxObjectInit
  49              	.LVL0:
  50              	.L4:
  51              		.align	2
  52              	.L3:
  53 0014 00000000 		.word	.LANCHOR0
  54 0018 00000000 		.word	chCoreAlloc
  55              		.cfi_endproc
  56              	.LFE219:
  57              		.size	_heap_init, .-_heap_init
ARM GAS  C:\Users\USER\AppData\Local\Temp\cckJWSmr.s 			page 2


  58              		.section	.text.chHeapObjectInit,"ax",%progbits
  59              		.align	1
  60              		.p2align 4,,15
  61              		.global	chHeapObjectInit
  62              		.syntax unified
  63              		.thumb
  64              		.thumb_func
  65              		.fpu fpv4-sp-d16
  66              		.type	chHeapObjectInit, %function
  67              	chHeapObjectInit:
  68              	.LVL1:
  69              	.LFB220:
  70              		.loc 1 114 69 view -0
  71              		.cfi_startproc
  72              		@ args = 0, pretend = 0, frame = 0
  73              		@ frame_needed = 0, uses_anonymous_args = 0
  74              		@ link register save eliminated.
  75              		.loc 1 115 3 view .LVU9
  76              		.loc 1 117 3 view .LVU10
  77              		.loc 1 117 3 view .LVU11
  78              		.loc 1 119 3 view .LVU12
  79              		.loc 1 119 21 is_stmt 0 view .LVU13
  80 0000 0023     		movs	r3, #0
  81              		.loc 1 123 21 view .LVU14
  82 0002 083A     		subs	r2, r2, #8
  83              	.LVL2:
  84              		.loc 1 120 26 view .LVU15
  85 0004 8160     		str	r1, [r0, #8]
  86              		.loc 1 119 21 view .LVU16
  87 0006 0360     		str	r3, [r0]
  88              		.loc 1 120 3 is_stmt 1 view .LVU17
  89              		.loc 1 121 3 view .LVU18
  90              		.loc 1 121 24 is_stmt 0 view .LVU19
  91 0008 C360     		str	r3, [r0, #12]
  92              		.loc 1 122 3 is_stmt 1 view .LVU20
  93              		.loc 1 125 3 is_stmt 0 view .LVU21
  94 000a 1030     		adds	r0, r0, #16
  95              	.LVL3:
  96              		.loc 1 122 16 view .LVU22
  97 000c C1E90032 		strd	r3, r2, [r1]
  98              		.loc 1 123 3 is_stmt 1 view .LVU23
  99              		.loc 1 125 3 view .LVU24
 100 0010 FFF7FEBF 		b	chMtxObjectInit
 101              	.LVL4:
 102              		.loc 1 125 3 is_stmt 0 view .LVU25
 103              		.cfi_endproc
 104              	.LFE220:
 105              		.size	chHeapObjectInit, .-chHeapObjectInit
 106              		.section	.text.chHeapAlloc,"ax",%progbits
 107              		.align	1
 108              		.p2align 4,,15
 109              		.global	chHeapAlloc
 110              		.syntax unified
 111              		.thumb
 112              		.thumb_func
 113              		.fpu fpv4-sp-d16
 114              		.type	chHeapAlloc, %function
ARM GAS  C:\Users\USER\AppData\Local\Temp\cckJWSmr.s 			page 3


 115              	chHeapAlloc:
 116              	.LVL5:
 117              	.LFB221:
 118              		.loc 1 147 54 is_stmt 1 view -0
 119              		.cfi_startproc
 120              		@ args = 0, pretend = 0, frame = 0
 121              		@ frame_needed = 0, uses_anonymous_args = 0
 122              		.loc 1 148 3 view .LVU27
 123              		.loc 1 150 3 view .LVU28
 124              		.loc 1 147 54 is_stmt 0 view .LVU29
 125 0000 F8B5     		push	{r3, r4, r5, r6, r7, lr}
 126              		.cfi_def_cfa_offset 24
 127              		.cfi_offset 3, -24
 128              		.cfi_offset 4, -20
 129              		.cfi_offset 5, -16
 130              		.cfi_offset 6, -12
 131              		.cfi_offset 7, -8
 132              		.cfi_offset 14, -4
 133              		.loc 1 151 11 view .LVU30
 134 0002 204E     		ldr	r6, .L21
 135 0004 0028     		cmp	r0, #0
 136 0006 18BF     		it	ne
 137 0008 0646     		movne	r6, r0
 138              	.LVL6:
 139              		.loc 1 154 3 is_stmt 1 view .LVU31
 140              		.loc 1 157 3 is_stmt 0 view .LVU32
 141 000a 06F11007 		add	r7, r6, #16
 142              		.loc 1 154 10 view .LVU33
 143 000e 0731     		adds	r1, r1, #7
 144              	.LVL7:
 145              		.loc 1 157 3 view .LVU34
 146 0010 3846     		mov	r0, r7
 147              		.loc 1 154 8 view .LVU35
 148 0012 21F00705 		bic	r5, r1, #7
 149              	.LVL8:
 150              		.loc 1 155 3 is_stmt 1 view .LVU36
 151              		.loc 1 155 6 is_stmt 0 view .LVU37
 152 0016 06F10804 		add	r4, r6, #8
 153              	.LVL9:
 154              		.loc 1 157 3 is_stmt 1 view .LVU38
 155 001a FFF7FEFF 		bl	chMtxLock
 156              	.LVL10:
 157              		.loc 1 158 3 view .LVU39
 158              		.loc 1 158 9 is_stmt 0 view .LVU40
 159 001e 03E0     		b	.L8
 160              	.LVL11:
 161              	.L12:
 162              		.loc 1 160 14 view .LVU41
 163 0020 4368     		ldr	r3, [r0, #4]
 164              		.loc 1 160 8 view .LVU42
 165 0022 AB42     		cmp	r3, r5
 166 0024 12D2     		bcs	.L20
 167              		.loc 1 160 8 view .LVU43
 168 0026 0446     		mov	r4, r0
 169              	.LVL12:
 170              	.L8:
 171              		.loc 1 159 5 is_stmt 1 view .LVU44
ARM GAS  C:\Users\USER\AppData\Local\Temp\cckJWSmr.s 			page 4


 172              		.loc 1 158 17 is_stmt 0 view .LVU45
 173 0028 2068     		ldr	r0, [r4]
 174              	.LVL13:
 175              		.loc 1 160 5 is_stmt 1 view .LVU46
 176              		.loc 1 158 9 is_stmt 0 view .LVU47
 177 002a 0028     		cmp	r0, #0
 178 002c F8D1     		bne	.L12
 179              		.loc 1 186 3 is_stmt 1 view .LVU48
 180 002e 3846     		mov	r0, r7
 181              	.LVL14:
 182              		.loc 1 186 3 is_stmt 0 view .LVU49
 183 0030 FFF7FEFF 		bl	chMtxUnlock
 184              	.LVL15:
 185              		.loc 1 190 3 is_stmt 1 view .LVU50
 186              		.loc 1 190 12 is_stmt 0 view .LVU51
 187 0034 3368     		ldr	r3, [r6]
 188              		.loc 1 190 6 view .LVU52
 189 0036 13B3     		cbz	r3, .L14
 190              		.loc 1 191 5 is_stmt 1 view .LVU53
 191              		.loc 1 191 10 is_stmt 0 view .LVU54
 192 0038 05F10800 		add	r0, r5, #8
 193 003c 9847     		blx	r3
 194              	.LVL16:
 195              		.loc 1 192 5 is_stmt 1 view .LVU55
 196              		.loc 1 192 8 is_stmt 0 view .LVU56
 197 003e F0B1     		cbz	r0, .L14
 198              		.loc 1 193 7 is_stmt 1 view .LVU57
 199              		.loc 1 195 9 is_stmt 0 view .LVU58
 200 0040 00F10804 		add	r4, r0, #8
 201              	.LVL17:
 202              		.loc 1 194 18 view .LVU59
 203 0044 C0E90065 		strd	r6, r5, [r0]
 204              		.loc 1 195 7 is_stmt 1 view .LVU60
 205              	.LVL18:
 206              		.loc 1 198 7 view .LVU61
 207              		.loc 1 204 1 is_stmt 0 view .LVU62
 208 0048 2046     		mov	r0, r4
 209 004a F8BD     		pop	{r3, r4, r5, r6, r7, pc}
 210              	.LVL19:
 211              	.L20:
 212              		.loc 1 161 7 is_stmt 1 view .LVU63
 213              		.loc 1 161 30 is_stmt 0 view .LVU64
 214 004c 05F10802 		add	r2, r5, #8
 215              		.loc 1 161 10 view .LVU65
 216 0050 9342     		cmp	r3, r2
 217 0052 0168     		ldr	r1, [r0]
 218 0054 08D2     		bcs	.L9
 219              		.loc 1 165 9 is_stmt 1 view .LVU66
 220              		.loc 1 165 22 is_stmt 0 view .LVU67
 221 0056 2160     		str	r1, [r4]
 222              	.L10:
 223              		.loc 1 177 7 is_stmt 1 view .LVU68
 224              		.loc 1 177 20 is_stmt 0 view .LVU69
 225 0058 0446     		mov	r4, r0
 226              	.LVL20:
 227              		.loc 1 178 7 view .LVU70
 228 005a 3846     		mov	r0, r7
ARM GAS  C:\Users\USER\AppData\Local\Temp\cckJWSmr.s 			page 5


 229              	.LVL21:
 230              		.loc 1 177 20 view .LVU71
 231 005c 44F8086B 		str	r6, [r4], #8
 232              	.LVL22:
 233              		.loc 1 178 7 is_stmt 1 view .LVU72
 234 0060 FFF7FEFF 		bl	chMtxUnlock
 235              	.LVL23:
 236              		.loc 1 181 7 view .LVU73
 237              		.loc 1 204 1 is_stmt 0 view .LVU74
 238 0064 2046     		mov	r0, r4
 239 0066 F8BD     		pop	{r3, r4, r5, r6, r7, pc}
 240              	.LVL24:
 241              	.L9:
 242              		.loc 1 170 9 is_stmt 1 view .LVU75
 243              		.loc 1 170 12 is_stmt 0 view .LVU76
 244 0068 00EB020C 		add	ip, r0, r2
 245              	.LVL25:
 246              		.loc 1 172 9 is_stmt 1 view .LVU77
 247              		.loc 1 173 63 is_stmt 0 view .LVU78
 248 006c 5B1B     		subs	r3, r3, r5
 249 006e 083B     		subs	r3, r3, #8
 250              		.loc 1 172 22 view .LVU79
 251 0070 8150     		str	r1, [r0, r2]
 252              		.loc 1 173 9 is_stmt 1 view .LVU80
 253              		.loc 1 173 20 is_stmt 0 view .LVU81
 254 0072 CCF80430 		str	r3, [ip, #4]
 255              		.loc 1 174 9 is_stmt 1 view .LVU82
 256              		.loc 1 174 22 is_stmt 0 view .LVU83
 257 0076 C4F800C0 		str	ip, [r4]
 258              		.loc 1 175 9 is_stmt 1 view .LVU84
 259              		.loc 1 175 20 is_stmt 0 view .LVU85
 260 007a 4560     		str	r5, [r0, #4]
 261 007c ECE7     		b	.L10
 262              	.LVL26:
 263              	.L14:
 264              		.loc 1 203 10 view .LVU86
 265 007e 0024     		movs	r4, #0
 266              	.LVL27:
 267              		.loc 1 204 1 view .LVU87
 268 0080 2046     		mov	r0, r4
 269 0082 F8BD     		pop	{r3, r4, r5, r6, r7, pc}
 270              	.LVL28:
 271              	.L22:
 272              		.loc 1 204 1 view .LVU88
 273              		.align	2
 274              	.L21:
 275 0084 00000000 		.word	.LANCHOR0
 276              		.cfi_endproc
 277              	.LFE221:
 278              		.size	chHeapAlloc, .-chHeapAlloc
 279              		.section	.text.chHeapFree,"ax",%progbits
 280              		.align	1
 281              		.p2align 4,,15
 282              		.global	chHeapFree
 283              		.syntax unified
 284              		.thumb
 285              		.thumb_func
ARM GAS  C:\Users\USER\AppData\Local\Temp\cckJWSmr.s 			page 6


 286              		.fpu fpv4-sp-d16
 287              		.type	chHeapFree, %function
 288              	chHeapFree:
 289              	.LVL29:
 290              	.LFB222:
 291              		.loc 1 213 26 is_stmt 1 view -0
 292              		.cfi_startproc
 293              		@ args = 0, pretend = 0, frame = 0
 294              		@ frame_needed = 0, uses_anonymous_args = 0
 295              		.loc 1 214 3 view .LVU90
 296              		.loc 1 215 3 view .LVU91
 297              		.loc 1 217 3 view .LVU92
 298              		.loc 1 217 3 view .LVU93
 299              		.loc 1 220 3 view .LVU94
 300              		.loc 1 213 26 is_stmt 0 view .LVU95
 301 0000 F8B5     		push	{r3, r4, r5, r6, r7, lr}
 302              		.cfi_def_cfa_offset 24
 303              		.cfi_offset 3, -24
 304              		.cfi_offset 4, -20
 305              		.cfi_offset 5, -16
 306              		.cfi_offset 6, -12
 307              		.cfi_offset 7, -8
 308              		.cfi_offset 14, -4
 309              		.loc 1 222 9 view .LVU96
 310 0002 50F8085C 		ldr	r5, [r0, #-8]
 311              		.loc 1 225 3 view .LVU97
 312 0006 05F11007 		add	r7, r5, #16
 313              		.loc 1 213 26 view .LVU98
 314 000a 0646     		mov	r6, r0
 315              		.loc 1 220 6 view .LVU99
 316 000c A0F10804 		sub	r4, r0, #8
 317              	.LVL30:
 318              		.loc 1 222 3 is_stmt 1 view .LVU100
 319              		.loc 1 223 3 view .LVU101
 320              		.loc 1 223 6 is_stmt 0 view .LVU102
 321 0010 0835     		adds	r5, r5, #8
 322              	.LVL31:
 323              		.loc 1 225 3 is_stmt 1 view .LVU103
 324 0012 3846     		mov	r0, r7
 325              	.LVL32:
 326              		.loc 1 225 3 is_stmt 0 view .LVU104
 327 0014 FFF7FEFF 		bl	chMtxLock
 328              	.LVL33:
 329              		.loc 1 223 6 view .LVU105
 330 0018 2B46     		mov	r3, r5
 331              	.LVL34:
 332              	.L24:
 333              		.loc 1 226 3 is_stmt 1 view .LVU106
 334              		.loc 1 227 5 view .LVU107
 335              		.loc 1 227 5 view .LVU108
 336              		.loc 1 229 5 view .LVU109
 337              		.loc 1 229 8 is_stmt 0 view .LVU110
 338 001a AB42     		cmp	r3, r5
 339 001c 1A68     		ldr	r2, [r3]
 340 001e 01D0     		beq	.L25
 341              		.loc 1 229 33 discriminator 2 view .LVU111
 342 0020 A342     		cmp	r3, r4
ARM GAS  C:\Users\USER\AppData\Local\Temp\cckJWSmr.s 			page 7


 343 0022 02D2     		bcs	.L26
 344              	.L25:
 345              		.loc 1 229 47 discriminator 3 view .LVU112
 346 0024 1AB1     		cbz	r2, .L27
 347              		.loc 1 230 33 view .LVU113
 348 0026 9442     		cmp	r4, r2
 349 0028 01D3     		bcc	.L27
 350              	.L26:
 351              		.loc 1 213 26 view .LVU114
 352 002a 1346     		mov	r3, r2
 353              	.LVL35:
 354              		.loc 1 213 26 view .LVU115
 355 002c F5E7     		b	.L24
 356              	.LVL36:
 357              	.L27:
 358              		.loc 1 232 7 is_stmt 1 view .LVU116
 359              		.loc 1 232 20 is_stmt 0 view .LVU117
 360 002e 46F8082C 		str	r2, [r6, #-8]
 361              		.loc 1 233 7 is_stmt 1 view .LVU118
 362              		.loc 1 235 11 is_stmt 0 view .LVU119
 363 0032 56F8042C 		ldr	r2, [r6, #-4]
 364              		.loc 1 233 20 view .LVU120
 365 0036 1C60     		str	r4, [r3]
 366              		.loc 1 235 7 is_stmt 1 view .LVU121
 367              		.loc 1 235 31 is_stmt 0 view .LVU122
 368 0038 56F8081C 		ldr	r1, [r6, #-8]
 369              		.loc 1 235 11 view .LVU123
 370 003c B018     		adds	r0, r6, r2
 371              		.loc 1 235 10 view .LVU124
 372 003e 8142     		cmp	r1, r0
 373 0040 0AD0     		beq	.L34
 374              		.loc 1 240 7 is_stmt 1 view .LVU125
 375              		.loc 1 240 12 is_stmt 0 view .LVU126
 376 0042 5968     		ldr	r1, [r3, #4]
 377 0044 01F10802 		add	r2, r1, #8
 378 0048 1A44     		add	r2, r2, r3
 379              		.loc 1 240 10 view .LVU127
 380 004a 9442     		cmp	r4, r2
 381 004c 12D0     		beq	.L35
 382              	.L29:
 383              		.loc 1 245 7 is_stmt 1 view .LVU128
 384              		.loc 1 249 3 view .LVU129
 385 004e 3846     		mov	r0, r7
 386              		.loc 1 252 1 is_stmt 0 view .LVU130
 387 0050 BDE8F840 		pop	{r3, r4, r5, r6, r7, lr}
 388              		.cfi_remember_state
 389              		.cfi_restore 14
 390              		.cfi_restore 7
 391              		.cfi_restore 6
 392              		.cfi_restore 5
 393              		.cfi_restore 4
 394              		.cfi_restore 3
 395              		.cfi_def_cfa_offset 0
 396              	.LVL37:
 397              		.loc 1 249 3 view .LVU131
 398 0054 FFF7FEBF 		b	chMtxUnlock
 399              	.LVL38:
ARM GAS  C:\Users\USER\AppData\Local\Temp\cckJWSmr.s 			page 8


 400              	.L34:
 401              		.cfi_restore_state
 402              		.loc 1 237 9 is_stmt 1 view .LVU132
 403              		.loc 1 238 41 is_stmt 0 view .LVU133
 404 0058 D1E90010 		ldrd	r1, r0, [r1]
 405              		.loc 1 237 20 view .LVU134
 406 005c 0832     		adds	r2, r2, #8
 407 005e 0244     		add	r2, r2, r0
 408 0060 46F8042C 		str	r2, [r6, #-4]
 409              		.loc 1 238 9 is_stmt 1 view .LVU135
 410              		.loc 1 240 7 view .LVU136
 411              		.loc 1 238 22 is_stmt 0 view .LVU137
 412 0064 46F8081C 		str	r1, [r6, #-8]
 413              		.loc 1 240 12 view .LVU138
 414 0068 5968     		ldr	r1, [r3, #4]
 415 006a 01F10802 		add	r2, r1, #8
 416 006e 1A44     		add	r2, r2, r3
 417              		.loc 1 240 10 view .LVU139
 418 0070 9442     		cmp	r4, r2
 419 0072 ECD1     		bne	.L29
 420              	.L35:
 421              		.loc 1 242 9 is_stmt 1 view .LVU140
 422              		.loc 1 243 31 is_stmt 0 view .LVU141
 423 0074 56E90202 		ldrd	r0, r2, [r6, #-8]
 424              		.loc 1 242 20 view .LVU142
 425 0078 0832     		adds	r2, r2, #8
 426 007a 1144     		add	r1, r1, r2
 427              		.loc 1 243 22 view .LVU143
 428 007c 1860     		str	r0, [r3]
 429              		.loc 1 242 20 view .LVU144
 430 007e 5960     		str	r1, [r3, #4]
 431              		.loc 1 243 9 is_stmt 1 view .LVU145
 432              		.loc 1 245 7 view .LVU146
 433              		.loc 1 249 3 view .LVU147
 434 0080 3846     		mov	r0, r7
 435              		.loc 1 252 1 is_stmt 0 view .LVU148
 436 0082 BDE8F840 		pop	{r3, r4, r5, r6, r7, lr}
 437              		.cfi_restore 14
 438              		.cfi_restore 7
 439              		.cfi_restore 6
 440              		.cfi_restore 5
 441              		.cfi_restore 4
 442              		.cfi_restore 3
 443              		.cfi_def_cfa_offset 0
 444              	.LVL39:
 445              		.loc 1 249 3 view .LVU149
 446 0086 FFF7FEBF 		b	chMtxUnlock
 447              	.LVL40:
 448              		.loc 1 249 3 view .LVU150
 449              		.cfi_endproc
 450              	.LFE222:
 451              		.size	chHeapFree, .-chHeapFree
 452 008a 00BF     		.section	.text.chHeapStatus,"ax",%progbits
 453              		.align	1
 454              		.p2align 4,,15
 455              		.global	chHeapStatus
 456              		.syntax unified
ARM GAS  C:\Users\USER\AppData\Local\Temp\cckJWSmr.s 			page 9


 457              		.thumb
 458              		.thumb_func
 459              		.fpu fpv4-sp-d16
 460              		.type	chHeapStatus, %function
 461              	chHeapStatus:
 462              	.LVL41:
 463              	.LFB223:
 464              		.loc 1 267 58 is_stmt 1 view -0
 465              		.cfi_startproc
 466              		@ args = 0, pretend = 0, frame = 0
 467              		@ frame_needed = 0, uses_anonymous_args = 0
 468              		.loc 1 268 3 view .LVU152
 469              		.loc 1 269 3 view .LVU153
 470              		.loc 1 271 3 view .LVU154
 471              		.loc 1 267 58 is_stmt 0 view .LVU155
 472 0000 70B5     		push	{r4, r5, r6, lr}
 473              		.cfi_def_cfa_offset 16
 474              		.cfi_offset 4, -16
 475              		.cfi_offset 5, -12
 476              		.cfi_offset 6, -8
 477              		.cfi_offset 14, -4
 478              		.loc 1 272 11 view .LVU156
 479 0002 0F4C     		ldr	r4, .L47
 480 0004 0028     		cmp	r0, #0
 481 0006 18BF     		it	ne
 482 0008 0446     		movne	r4, r0
 483              	.LVL42:
 484              		.loc 1 275 3 is_stmt 1 view .LVU157
 485 000a 04F11005 		add	r5, r4, #16
 486 000e 2846     		mov	r0, r5
 487              		.loc 1 267 58 is_stmt 0 view .LVU158
 488 0010 0E46     		mov	r6, r1
 489              		.loc 1 275 3 view .LVU159
 490 0012 FFF7FEFF 		bl	chMtxLock
 491              	.LVL43:
 492              		.loc 1 276 3 is_stmt 1 view .LVU160
 493              		.loc 1 277 3 view .LVU161
 494              		.loc 1 278 3 view .LVU162
 495              		.loc 1 279 3 view .LVU163
 496              		.loc 1 279 17 is_stmt 0 view .LVU164
 497 0016 A368     		ldr	r3, [r4, #8]
 498              		.loc 1 279 9 view .LVU165
 499 0018 73B1     		cbz	r3, .L41
 500              		.loc 1 276 6 view .LVU166
 501 001a 0022     		movs	r2, #0
 502              		.loc 1 277 5 view .LVU167
 503 001c 1446     		mov	r4, r2
 504              	.LVL44:
 505              	.L39:
 506              		.loc 1 280 5 is_stmt 1 view .LVU168
 507              		.loc 1 279 17 is_stmt 0 view .LVU169
 508 001e D3E90030 		ldrd	r3, r0, [r3]
 509              		.loc 1 281 6 view .LVU170
 510 0022 0134     		adds	r4, r4, #1
 511              	.LVL45:
 512              		.loc 1 280 8 view .LVU171
 513 0024 0244     		add	r2, r2, r0
ARM GAS  C:\Users\USER\AppData\Local\Temp\cckJWSmr.s 			page 10


 514              	.LVL46:
 515              		.loc 1 281 5 is_stmt 1 view .LVU172
 516              		.loc 1 282 5 view .LVU173
 517              		.loc 1 279 9 is_stmt 0 view .LVU174
 518 0026 002B     		cmp	r3, #0
 519 0028 F9D1     		bne	.L39
 520              	.LVL47:
 521              	.L38:
 522              		.loc 1 284 3 is_stmt 1 view .LVU175
 523              		.loc 1 284 6 is_stmt 0 view .LVU176
 524 002a 06B1     		cbz	r6, .L40
 525              		.loc 1 285 5 is_stmt 1 view .LVU177
 526              		.loc 1 285 12 is_stmt 0 view .LVU178
 527 002c 3260     		str	r2, [r6]
 528              	.L40:
 529              		.loc 1 287 3 is_stmt 1 view .LVU179
 530 002e 2846     		mov	r0, r5
 531 0030 FFF7FEFF 		bl	chMtxUnlock
 532              	.LVL48:
 533              		.loc 1 289 3 view .LVU180
 534              		.loc 1 290 1 is_stmt 0 view .LVU181
 535 0034 2046     		mov	r0, r4
 536 0036 70BD     		pop	{r4, r5, r6, pc}
 537              	.LVL49:
 538              	.L41:
 539              		.loc 1 276 6 view .LVU182
 540 0038 1A46     		mov	r2, r3
 541              		.loc 1 277 5 view .LVU183
 542 003a 1C46     		mov	r4, r3
 543              	.LVL50:
 544              		.loc 1 277 5 view .LVU184
 545 003c F5E7     		b	.L38
 546              	.L48:
 547 003e 00BF     		.align	2
 548              	.L47:
 549 0040 00000000 		.word	.LANCHOR0
 550              		.cfi_endproc
 551              	.LFE223:
 552              		.size	chHeapStatus, .-chHeapStatus
 553              		.section	.bss.default_heap,"aw",%nobits
 554              		.align	3
 555              		.set	.LANCHOR0,. + 0
 556              		.type	default_heap, %object
 557              		.size	default_heap, 32
 558              	default_heap:
 559 0000 00000000 		.space	32
 559      00000000 
 559      00000000 
 559      00000000 
 559      00000000 
 560              		.text
 561              	.Letext0:
 562              		.file 2 "c:\\program files (x86)\\gnu tools arm embedded\\8 2018-q4-major\\lib\\gcc\\arm-none-eabi
 563              		.file 3 "c:\\program files (x86)\\gnu tools arm embedded\\8 2018-q4-major\\arm-none-eabi\\include\
 564              		.file 4 "c:\\program files (x86)\\gnu tools arm embedded\\8 2018-q4-major\\arm-none-eabi\\include\
 565              		.file 5 "src/ChibiOS_3.0.2/os/rt/ports/ARMCMx/compilers/GCC/chtypes.h"
 566              		.file 6 "src/ChibiOS_3.0.2/os/rt/include/chsystypes.h"
ARM GAS  C:\Users\USER\AppData\Local\Temp\cckJWSmr.s 			page 11


 567              		.file 7 "src/ChibiOS_3.0.2/os/rt/include/chschd.h"
 568              		.file 8 "src/ChibiOS_3.0.2/os/ext/CMSIS/include/core_cm4.h"
 569              		.file 9 "src/ChibiOS_3.0.2/os/ext/CMSIS/ST/system_stm32f4xx.h"
 570              		.file 10 "src/ChibiOS_3.0.2/os/rt/ports/ARMCMx/chcore.h"
 571              		.file 11 "src/ChibiOS_3.0.2/os/rt/ports/ARMCMx/chcore_v7m.h"
 572              		.file 12 "src/ChibiOS_3.0.2/os/rt/include/chtm.h"
 573              		.file 13 "src/ChibiOS_3.0.2/os/rt/include/chsem.h"
 574              		.file 14 "src/ChibiOS_3.0.2/os/rt/include/chmtx.h"
 575              		.file 15 "src/ChibiOS_3.0.2/os/rt/include/chregistry.h"
 576              		.file 16 "src/ChibiOS_3.0.2/os/rt/include/chmemcore.h"
 577              		.file 17 "src/ChibiOS_3.0.2/os/rt/include/chheap.h"