ARM GAS  C:\Users\USER\AppData\Local\Temp\ccXJCGbr.s 			page 1


   1              		.cpu cortex-m4
   2              		.eabi_attribute 27, 1
   3              		.eabi_attribute 28, 1
   4              		.eabi_attribute 20, 1
   5              		.eabi_attribute 21, 1
   6              		.eabi_attribute 23, 3
   7              		.eabi_attribute 24, 1
   8              		.eabi_attribute 25, 1
   9              		.eabi_attribute 26, 1
  10              		.eabi_attribute 30, 2
  11              		.eabi_attribute 34, 1
  12              		.eabi_attribute 18, 4
  13              		.file	"chmboxes.c"
  14              		.text
  15              	.Ltext0:
  16              		.cfi_sections	.debug_frame
  17              		.section	.text.chMBObjectInit,"ax",%progbits
  18              		.align	1
  19              		.p2align 4,,15
  20              		.global	chMBObjectInit
  21              		.arch armv7e-m
  22              		.syntax unified
  23              		.thumb
  24              		.thumb_func
  25              		.fpu fpv4-sp-d16
  26              		.type	chMBObjectInit, %function
  27              	chMBObjectInit:
  28              	.LVL0:
  29              	.LFB219:
  30              		.file 1 "src/ChibiOS_3.0.2/os/rt/src/chmboxes.c"
  31              		.loc 1 86 58 view -0
  32              		.cfi_startproc
  33              		@ args = 0, pretend = 0, frame = 0
  34              		@ frame_needed = 0, uses_anonymous_args = 0
  35              		.loc 1 88 3 view .LVU1
  36              		.loc 1 88 3 view .LVU2
  37              		.loc 1 90 3 view .LVU3
  38              		.loc 1 86 58 is_stmt 0 view .LVU4
  39 0000 10B5     		push	{r4, lr}
  40              		.cfi_def_cfa_offset 8
  41              		.cfi_offset 4, -8
  42              		.cfi_offset 14, -4
  43              		.loc 1 86 58 view .LVU5
  44 0002 0B46     		mov	r3, r1
  45              		.loc 1 93 17 view .LVU6
  46 0004 01EB8201 		add	r1, r1, r2, lsl #2
  47              	.LVL1:
  48              		.loc 1 93 15 view .LVU7
  49 0008 4160     		str	r1, [r0, #4]
  50              		.loc 1 86 58 view .LVU8
  51 000a 0446     		mov	r4, r0
  52              		.loc 1 90 18 view .LVU9
  53 000c 0360     		str	r3, [r0]
  54              		.loc 1 91 3 is_stmt 1 view .LVU10
  55              		.loc 1 92 17 is_stmt 0 view .LVU11
  56 000e C0E90233 		strd	r3, r3, [r0, #8]
  57              		.loc 1 93 3 is_stmt 1 view .LVU12
ARM GAS  C:\Users\USER\AppData\Local\Temp\ccXJCGbr.s 			page 2


  58              		.loc 1 94 3 view .LVU13
  59 0012 1146     		mov	r1, r2
  60 0014 1C30     		adds	r0, r0, #28
  61              	.LVL2:
  62              		.loc 1 94 3 is_stmt 0 view .LVU14
  63 0016 FFF7FEFF 		bl	chSemObjectInit
  64              	.LVL3:
  65              		.loc 1 95 3 is_stmt 1 view .LVU15
  66 001a 04F11000 		add	r0, r4, #16
  67 001e 0021     		movs	r1, #0
  68              		.loc 1 96 1 is_stmt 0 view .LVU16
  69 0020 BDE81040 		pop	{r4, lr}
  70              		.cfi_restore 14
  71              		.cfi_restore 4
  72              		.cfi_def_cfa_offset 0
  73              	.LVL4:
  74              		.loc 1 95 3 view .LVU17
  75 0024 FFF7FEBF 		b	chSemObjectInit
  76              	.LVL5:
  77              		.loc 1 95 3 view .LVU18
  78              		.cfi_endproc
  79              	.LFE219:
  80              		.size	chMBObjectInit, .-chMBObjectInit
  81              		.section	.text.chMBResetI,"ax",%progbits
  82              		.align	1
  83              		.p2align 4,,15
  84              		.global	chMBResetI
  85              		.syntax unified
  86              		.thumb
  87              		.thumb_func
  88              		.fpu fpv4-sp-d16
  89              		.type	chMBResetI, %function
  90              	chMBResetI:
  91              	.LVL6:
  92              	.LFB221:
  93              		.loc 1 124 33 is_stmt 1 view -0
  94              		.cfi_startproc
  95              		@ args = 0, pretend = 0, frame = 0
  96              		@ frame_needed = 0, uses_anonymous_args = 0
  97              		.loc 1 126 21 view .LVU20
  98              		.loc 1 127 3 view .LVU21
  99              		.loc 1 127 3 view .LVU22
 100              		.loc 1 129 3 view .LVU23
 101              		.loc 1 124 33 is_stmt 0 view .LVU24
 102 0000 10B5     		push	{r4, lr}
 103              		.cfi_def_cfa_offset 8
 104              		.cfi_offset 4, -8
 105              		.cfi_offset 14, -4
 106              		.loc 1 124 33 view .LVU25
 107 0002 0446     		mov	r4, r0
 108              		.loc 1 131 54 view .LVU26
 109 0004 D4E90031 		ldrd	r3, r1, [r4]
 110 0008 C91A     		subs	r1, r1, r3
 111              		.loc 1 131 3 view .LVU27
 112 000a 1C30     		adds	r0, r0, #28
 113              	.LVL7:
 114              		.loc 1 129 17 view .LVU28
ARM GAS  C:\Users\USER\AppData\Local\Temp\ccXJCGbr.s 			page 3


 115 000c A360     		str	r3, [r4, #8]
 116              		.loc 1 130 3 is_stmt 1 view .LVU29
 117              		.loc 1 130 17 is_stmt 0 view .LVU30
 118 000e E360     		str	r3, [r4, #12]
 119              		.loc 1 131 3 is_stmt 1 view .LVU31
 120 0010 8910     		asrs	r1, r1, #2
 121 0012 FFF7FEFF 		bl	chSemResetI
 122              	.LVL8:
 123              		.loc 1 132 3 view .LVU32
 124 0016 04F11000 		add	r0, r4, #16
 125 001a 0021     		movs	r1, #0
 126              		.loc 1 133 1 is_stmt 0 view .LVU33
 127 001c BDE81040 		pop	{r4, lr}
 128              		.cfi_restore 14
 129              		.cfi_restore 4
 130              		.cfi_def_cfa_offset 0
 131              	.LVL9:
 132              		.loc 1 132 3 view .LVU34
 133 0020 FFF7FEBF 		b	chSemResetI
 134              	.LVL10:
 135              		.loc 1 132 3 view .LVU35
 136              		.cfi_endproc
 137              	.LFE221:
 138              		.size	chMBResetI, .-chMBResetI
 139              		.section	.text.chMBReset,"ax",%progbits
 140              		.align	1
 141              		.p2align 4,,15
 142              		.global	chMBReset
 143              		.syntax unified
 144              		.thumb
 145              		.thumb_func
 146              		.fpu fpv4-sp-d16
 147              		.type	chMBReset, %function
 148              	chMBReset:
 149              	.LVL11:
 150              	.LFB220:
 151              		.loc 1 107 32 is_stmt 1 view -0
 152              		.cfi_startproc
 153              		@ args = 0, pretend = 0, frame = 0
 154              		@ frame_needed = 0, uses_anonymous_args = 0
 155              		.loc 1 109 3 view .LVU37
 156              	.LBB70:
 157              	.LBI70:
 158              		.file 2 "src/ChibiOS_3.0.2/os/rt/include/chsys.h"
 159              		.loc 2 346 20 view .LVU38
 160              	.LBE70:
 161              		.loc 2 348 3 view .LVU39
 162              	.LBB78:
 163              	.LBB71:
 164              	.LBI71:
 165              		.file 3 "src/ChibiOS_3.0.2/os/rt/ports/ARMCMx/chcore_v7m.h"
 166              		.loc 3 444 20 view .LVU40
 167              	.LBE71:
 168              	.LBE78:
 169              		.loc 3 447 3 view .LVU41
 170              	.LBB79:
 171              	.LBB76:
ARM GAS  C:\Users\USER\AppData\Local\Temp\ccXJCGbr.s 			page 4


 172              	.LBB72:
 173              	.LBI72:
 174              		.file 4 "src/ChibiOS_3.0.2/os/ext/CMSIS/include/core_cmFunc.h"
 175              		.loc 4 544 57 view .LVU42
 176              	.LBB73:
 177              		.loc 4 546 3 view .LVU43
 178              	.LBE73:
 179              	.LBE72:
 180              	.LBE76:
 181              	.LBE79:
 182              		.loc 1 107 32 is_stmt 0 view .LVU44
 183 0000 08B5     		push	{r3, lr}
 184              		.cfi_def_cfa_offset 8
 185              		.cfi_offset 3, -8
 186              		.cfi_offset 14, -4
 187              	.LBB80:
 188              	.LBB77:
 189              	.LBB75:
 190              	.LBB74:
 191              		.loc 4 546 3 view .LVU45
 192 0002 2023     		movs	r3, #32
 193              		.syntax unified
 194              	@ 546 "src/ChibiOS_3.0.2/os/ext/CMSIS/include/core_cmFunc.h" 1
 195 0004 83F31188 		MSR basepri, r3
 196              	@ 0 "" 2
 197              	.LVL12:
 198              		.loc 4 546 3 view .LVU46
 199              		.thumb
 200              		.syntax unified
 201              	.LBE74:
 202              	.LBE75:
 203              	.LBE77:
 204              	.LBE80:
 205              		.loc 2 349 34 is_stmt 1 view .LVU47
 206              		.loc 2 350 20 view .LVU48
 207              		.loc 1 110 3 view .LVU49
 208 0008 FFF7FEFF 		bl	chMBResetI
 209              	.LVL13:
 210              		.loc 1 111 3 view .LVU50
 211 000c FFF7FEFF 		bl	chSchRescheduleS
 212              	.LVL14:
 213              		.loc 1 112 3 view .LVU51
 214              	.LBB81:
 215              	.LBI81:
 216              		.loc 2 358 20 view .LVU52
 217              	.LBB82:
 218              		.loc 2 360 22 view .LVU53
 219              		.loc 2 361 33 view .LVU54
 220              		.loc 2 367 3 view .LVU55
 221              		.loc 2 367 3 view .LVU56
 222              		.loc 2 371 3 view .LVU57
 223              	.LBB83:
 224              	.LBI83:
 225              		.loc 3 458 20 view .LVU58
 226              	.LBE83:
 227              	.LBE82:
 228              	.LBE81:
ARM GAS  C:\Users\USER\AppData\Local\Temp\ccXJCGbr.s 			page 5


 229              		.loc 3 461 3 view .LVU59
 230              	.LBB88:
 231              	.LBB87:
 232              	.LBB86:
 233              	.LBB84:
 234              	.LBI84:
 235              		.loc 4 544 57 view .LVU60
 236              	.LBB85:
 237              		.loc 4 546 3 view .LVU61
 238 0010 0023     		movs	r3, #0
 239              		.syntax unified
 240              	@ 546 "src/ChibiOS_3.0.2/os/ext/CMSIS/include/core_cmFunc.h" 1
 241 0012 83F31188 		MSR basepri, r3
 242              	@ 0 "" 2
 243              	.LVL15:
 244              		.loc 4 546 3 is_stmt 0 view .LVU62
 245              		.thumb
 246              		.syntax unified
 247              	.LBE85:
 248              	.LBE84:
 249              	.LBE86:
 250              	.LBE87:
 251              	.LBE88:
 252              		.loc 1 113 1 view .LVU63
 253 0016 08BD     		pop	{r3, pc}
 254              		.cfi_endproc
 255              	.LFE220:
 256              		.size	chMBReset, .-chMBReset
 257              		.section	.text.chMBPost,"ax",%progbits
 258              		.align	1
 259              		.p2align 4,,15
 260              		.global	chMBPost
 261              		.syntax unified
 262              		.thumb
 263              		.thumb_func
 264              		.fpu fpv4-sp-d16
 265              		.type	chMBPost, %function
 266              	chMBPost:
 267              	.LVL16:
 268              	.LFB222:
 269              		.loc 1 154 62 is_stmt 1 view -0
 270              		.cfi_startproc
 271              		@ args = 0, pretend = 0, frame = 0
 272              		@ frame_needed = 0, uses_anonymous_args = 0
 273              		.loc 1 154 62 is_stmt 0 view .LVU65
 274 0000 70B5     		push	{r4, r5, r6, lr}
 275              		.cfi_def_cfa_offset 16
 276              		.cfi_offset 4, -16
 277              		.cfi_offset 5, -12
 278              		.cfi_offset 6, -8
 279              		.cfi_offset 14, -4
 280              	.LBB102:
 281              	.LBB103:
 282              	.LBB104:
 283              	.LBB105:
 284              		.loc 4 546 3 view .LVU66
 285 0002 2023     		movs	r3, #32
ARM GAS  C:\Users\USER\AppData\Local\Temp\ccXJCGbr.s 			page 6


 286              	.LBE105:
 287              	.LBE104:
 288              	.LBE103:
 289              	.LBE102:
 290              		.loc 1 154 62 view .LVU67
 291 0004 0446     		mov	r4, r0
 292 0006 0E46     		mov	r6, r1
 293              		.loc 1 155 3 is_stmt 1 view .LVU68
 294              		.loc 1 157 3 view .LVU69
 295              	.LBB110:
 296              	.LBI102:
 297              		.loc 2 346 20 view .LVU70
 298              	.LBE110:
 299              		.loc 2 348 3 view .LVU71
 300              	.LBB111:
 301              	.LBB108:
 302              	.LBI103:
 303              		.loc 3 444 20 view .LVU72
 304              	.LBE108:
 305              	.LBE111:
 306              		.loc 3 447 3 view .LVU73
 307              	.LVL17:
 308              	.LBB112:
 309              	.LBB109:
 310              	.LBB107:
 311              	.LBI104:
 312              		.loc 4 544 57 view .LVU74
 313              	.LBB106:
 314              		.loc 4 546 3 view .LVU75
 315              		.syntax unified
 316              	@ 546 "src/ChibiOS_3.0.2/os/ext/CMSIS/include/core_cmFunc.h" 1
 317 0008 83F31188 		MSR basepri, r3
 318              	@ 0 "" 2
 319              	.LVL18:
 320              		.loc 4 546 3 is_stmt 0 view .LVU76
 321              		.thumb
 322              		.syntax unified
 323              	.LBE106:
 324              	.LBE107:
 325              	.LBE109:
 326              	.LBE112:
 327              		.loc 2 349 34 is_stmt 1 view .LVU77
 328              		.loc 2 350 20 view .LVU78
 329              		.loc 1 158 3 view .LVU79
 330              	.LBB113:
 331              	.LBI113:
 332              		.loc 1 183 7 view .LVU80
 333              	.LBB114:
 334              		.loc 1 184 3 view .LVU81
 335              		.loc 1 186 21 view .LVU82
 336              		.loc 1 187 3 view .LVU83
 337              		.loc 1 187 3 view .LVU84
 338              		.loc 1 189 3 view .LVU85
 339              		.loc 1 189 12 is_stmt 0 view .LVU86
 340 000c 1146     		mov	r1, r2
 341              	.LVL19:
 342              		.loc 1 189 12 view .LVU87
ARM GAS  C:\Users\USER\AppData\Local\Temp\ccXJCGbr.s 			page 7


 343 000e 1C30     		adds	r0, r0, #28
 344              	.LVL20:
 345              		.loc 1 189 12 view .LVU88
 346 0010 FFF7FEFF 		bl	chSemWaitTimeoutS
 347              	.LVL21:
 348              		.loc 1 190 3 is_stmt 1 view .LVU89
 349              		.loc 1 190 6 is_stmt 0 view .LVU90
 350 0014 0546     		mov	r5, r0
 351 0016 78B9     		cbnz	r0, .L9
 352              	.LVL22:
 353              	.LBB115:
 354              	.LBI115:
 355              		.loc 1 183 7 is_stmt 1 view .LVU91
 356              	.LBB116:
 357              		.loc 1 191 5 view .LVU92
 358              		.loc 1 192 8 is_stmt 0 view .LVU93
 359 0018 D4E90112 		ldrd	r1, r2, [r4, #4]
 360              		.loc 1 191 19 view .LVU94
 361 001c 131D     		adds	r3, r2, #4
 362              		.loc 1 192 8 view .LVU95
 363 001e 8B42     		cmp	r3, r1
 364              		.loc 1 191 19 view .LVU96
 365 0020 A360     		str	r3, [r4, #8]
 366              		.loc 1 193 21 view .LVU97
 367 0022 28BF     		it	cs
 368 0024 2368     		ldrcs	r3, [r4]
 369              		.loc 1 191 22 view .LVU98
 370 0026 1660     		str	r6, [r2]
 371              		.loc 1 192 5 is_stmt 1 view .LVU99
 372              		.loc 1 193 7 view .LVU100
 373              		.loc 1 195 5 view .LVU101
 374 0028 04F11000 		add	r0, r4, #16
 375              	.LVL23:
 376              		.loc 1 193 21 is_stmt 0 view .LVU102
 377 002c 28BF     		it	cs
 378 002e A360     		strcs	r3, [r4, #8]
 379              		.loc 1 195 5 view .LVU103
 380 0030 FFF7FEFF 		bl	chSemSignalI
 381              	.LVL24:
 382              		.loc 1 196 5 is_stmt 1 view .LVU104
 383 0034 FFF7FEFF 		bl	chSchRescheduleS
 384              	.LVL25:
 385              	.L9:
 386              		.loc 1 196 5 is_stmt 0 view .LVU105
 387              	.LBE116:
 388              	.LBE115:
 389              		.loc 1 199 3 is_stmt 1 view .LVU106
 390              		.loc 1 199 3 is_stmt 0 view .LVU107
 391              	.LBE114:
 392              	.LBE113:
 393              		.loc 1 159 3 is_stmt 1 view .LVU108
 394              	.LBB117:
 395              	.LBI117:
 396              		.loc 2 358 20 view .LVU109
 397              	.LBB118:
 398              		.loc 2 360 22 view .LVU110
 399              		.loc 2 361 33 view .LVU111
ARM GAS  C:\Users\USER\AppData\Local\Temp\ccXJCGbr.s 			page 8


 400              		.loc 2 367 3 view .LVU112
 401              		.loc 2 367 3 view .LVU113
 402              		.loc 2 371 3 view .LVU114
 403              	.LBB119:
 404              	.LBI119:
 405              		.loc 3 458 20 view .LVU115
 406              	.LBE119:
 407              	.LBE118:
 408              	.LBE117:
 409              		.loc 3 461 3 view .LVU116
 410              	.LBB124:
 411              	.LBB123:
 412              	.LBB122:
 413              	.LBB120:
 414              	.LBI120:
 415              		.loc 4 544 57 view .LVU117
 416              	.LBB121:
 417              		.loc 4 546 3 view .LVU118
 418 0038 0023     		movs	r3, #0
 419              		.syntax unified
 420              	@ 546 "src/ChibiOS_3.0.2/os/ext/CMSIS/include/core_cmFunc.h" 1
 421 003a 83F31188 		MSR basepri, r3
 422              	@ 0 "" 2
 423              	.LVL26:
 424              		.loc 4 546 3 is_stmt 0 view .LVU119
 425              		.thumb
 426              		.syntax unified
 427              	.LBE121:
 428              	.LBE120:
 429              	.LBE122:
 430              	.LBE123:
 431              	.LBE124:
 432              		.loc 1 161 3 is_stmt 1 view .LVU120
 433              		.loc 1 162 1 is_stmt 0 view .LVU121
 434 003e 2846     		mov	r0, r5
 435 0040 70BD     		pop	{r4, r5, r6, pc}
 436              		.loc 1 162 1 view .LVU122
 437              		.cfi_endproc
 438              	.LFE222:
 439              		.size	chMBPost, .-chMBPost
 440 0042 00BF     		.section	.text.chMBPostS,"ax",%progbits
 441              		.align	1
 442              		.p2align 4,,15
 443              		.global	chMBPostS
 444              		.syntax unified
 445              		.thumb
 446              		.thumb_func
 447              		.fpu fpv4-sp-d16
 448              		.type	chMBPostS, %function
 449              	chMBPostS:
 450              	.LVL27:
 451              	.LFB223:
 452              		.loc 1 183 63 is_stmt 1 view -0
 453              		.cfi_startproc
 454              		@ args = 0, pretend = 0, frame = 0
 455              		@ frame_needed = 0, uses_anonymous_args = 0
 456              		.loc 1 183 63 is_stmt 0 view .LVU124
ARM GAS  C:\Users\USER\AppData\Local\Temp\ccXJCGbr.s 			page 9


 457 0000 70B5     		push	{r4, r5, r6, lr}
 458              		.cfi_def_cfa_offset 16
 459              		.cfi_offset 4, -16
 460              		.cfi_offset 5, -12
 461              		.cfi_offset 6, -8
 462              		.cfi_offset 14, -4
 463              		.loc 1 183 63 view .LVU125
 464 0002 0446     		mov	r4, r0
 465 0004 0E46     		mov	r6, r1
 466              		.loc 1 184 3 is_stmt 1 view .LVU126
 467              		.loc 1 186 21 view .LVU127
 468              		.loc 1 187 3 view .LVU128
 469              		.loc 1 187 3 view .LVU129
 470              		.loc 1 189 3 view .LVU130
 471              		.loc 1 189 12 is_stmt 0 view .LVU131
 472 0006 1C30     		adds	r0, r0, #28
 473              	.LVL28:
 474              		.loc 1 189 12 view .LVU132
 475 0008 1146     		mov	r1, r2
 476              	.LVL29:
 477              		.loc 1 189 12 view .LVU133
 478 000a FFF7FEFF 		bl	chSemWaitTimeoutS
 479              	.LVL30:
 480              		.loc 1 190 3 is_stmt 1 view .LVU134
 481              		.loc 1 190 6 is_stmt 0 view .LVU135
 482 000e 0546     		mov	r5, r0
 483 0010 78B9     		cbnz	r0, .L12
 484              	.LVL31:
 485              	.LBB127:
 486              	.LBI127:
 487              		.loc 1 183 7 is_stmt 1 view .LVU136
 488              	.LBB128:
 489              		.loc 1 191 5 view .LVU137
 490              		.loc 1 192 8 is_stmt 0 view .LVU138
 491 0012 D4E90112 		ldrd	r1, r2, [r4, #4]
 492              		.loc 1 191 19 view .LVU139
 493 0016 131D     		adds	r3, r2, #4
 494              		.loc 1 192 8 view .LVU140
 495 0018 8B42     		cmp	r3, r1
 496              		.loc 1 191 19 view .LVU141
 497 001a A360     		str	r3, [r4, #8]
 498              		.loc 1 193 21 view .LVU142
 499 001c 28BF     		it	cs
 500 001e 2368     		ldrcs	r3, [r4]
 501              		.loc 1 191 22 view .LVU143
 502 0020 1660     		str	r6, [r2]
 503              		.loc 1 192 5 is_stmt 1 view .LVU144
 504              		.loc 1 193 7 view .LVU145
 505              		.loc 1 195 5 view .LVU146
 506 0022 04F11000 		add	r0, r4, #16
 507              	.LVL32:
 508              		.loc 1 193 21 is_stmt 0 view .LVU147
 509 0026 28BF     		it	cs
 510 0028 A360     		strcs	r3, [r4, #8]
 511              		.loc 1 195 5 view .LVU148
 512 002a FFF7FEFF 		bl	chSemSignalI
 513              	.LVL33:
ARM GAS  C:\Users\USER\AppData\Local\Temp\ccXJCGbr.s 			page 10


 514              		.loc 1 196 5 is_stmt 1 view .LVU149
 515 002e FFF7FEFF 		bl	chSchRescheduleS
 516              	.LVL34:
 517              	.LBE128:
 518              	.LBE127:
 519              		.loc 1 199 3 view .LVU150
 520              	.L12:
 521              		.loc 1 200 1 is_stmt 0 view .LVU151
 522 0032 2846     		mov	r0, r5
 523 0034 70BD     		pop	{r4, r5, r6, pc}
 524              		.loc 1 200 1 view .LVU152
 525              		.cfi_endproc
 526              	.LFE223:
 527              		.size	chMBPostS, .-chMBPostS
 528 0036 00BF     		.section	.text.chMBPostI,"ax",%progbits
 529              		.align	1
 530              		.p2align 4,,15
 531              		.global	chMBPostI
 532              		.syntax unified
 533              		.thumb
 534              		.thumb_func
 535              		.fpu fpv4-sp-d16
 536              		.type	chMBPostI, %function
 537              	chMBPostI:
 538              	.LVL35:
 539              	.LFB224:
 540              		.loc 1 216 44 is_stmt 1 view -0
 541              		.cfi_startproc
 542              		@ args = 0, pretend = 0, frame = 0
 543              		@ frame_needed = 0, uses_anonymous_args = 0
 544              		.loc 1 218 21 view .LVU154
 545              		.loc 1 219 3 view .LVU155
 546              		.loc 1 219 3 view .LVU156
 547              		.loc 1 221 3 view .LVU157
 548              		.loc 1 216 44 is_stmt 0 view .LVU158
 549 0000 38B5     		push	{r3, r4, r5, lr}
 550              		.cfi_def_cfa_offset 16
 551              		.cfi_offset 3, -16
 552              		.cfi_offset 4, -12
 553              		.cfi_offset 5, -8
 554              		.cfi_offset 14, -4
 555              		.loc 1 221 7 view .LVU159
 556 0002 436A     		ldr	r3, [r0, #36]
 557              	.LVL36:
 558              		.file 5 "src/ChibiOS_3.0.2/os/rt/include/chsem.h"
 559              		.loc 5 151 21 is_stmt 1 view .LVU160
 560              		.loc 5 153 3 view .LVU161
 561              		.loc 1 221 6 is_stmt 0 view .LVU162
 562 0004 002B     		cmp	r3, #0
 563 0006 12DD     		ble	.L19
 564              		.loc 1 225 3 is_stmt 1 view .LVU163
 565              	.LBB129:
 566              	.LBI129:
 567              		.loc 5 118 20 view .LVU164
 568              	.LVL37:
 569              	.LBB130:
 570              		.loc 5 120 21 view .LVU165
ARM GAS  C:\Users\USER\AppData\Local\Temp\ccXJCGbr.s 			page 11


 571              		.loc 5 122 3 view .LVU166
 572              	.LBE130:
 573              	.LBE129:
 574              		.loc 1 227 6 is_stmt 0 view .LVU167
 575 0008 D0E90154 		ldrd	r5, r4, [r0, #4]
 576              		.loc 1 226 17 view .LVU168
 577 000c 221D     		adds	r2, r4, #4
 578              	.LBB133:
 579              	.LBB131:
 580              		.loc 5 122 12 view .LVU169
 581 000e 013B     		subs	r3, r3, #1
 582              	.LBE131:
 583              	.LBE133:
 584              		.loc 1 227 6 view .LVU170
 585 0010 AA42     		cmp	r2, r5
 586              	.LBB134:
 587              	.LBB132:
 588              		.loc 5 122 12 view .LVU171
 589 0012 4362     		str	r3, [r0, #36]
 590              	.LBE132:
 591              	.LBE134:
 592              		.loc 1 226 3 is_stmt 1 view .LVU172
 593              		.loc 1 228 20 is_stmt 0 view .LVU173
 594 0014 28BF     		it	cs
 595 0016 0368     		ldrcs	r3, [r0]
 596              		.loc 1 226 17 view .LVU174
 597 0018 8260     		str	r2, [r0, #8]
 598              		.loc 1 226 20 view .LVU175
 599 001a 2160     		str	r1, [r4]
 600              		.loc 1 227 3 is_stmt 1 view .LVU176
 601              		.loc 1 228 6 view .LVU177
 602              		.loc 1 230 3 view .LVU178
 603 001c 00F11000 		add	r0, r0, #16
 604              	.LVL38:
 605              		.loc 1 228 20 is_stmt 0 view .LVU179
 606 0020 28BF     		it	cs
 607 0022 40F8083C 		strcs	r3, [r0, #-8]
 608              		.loc 1 230 3 view .LVU180
 609 0026 FFF7FEFF 		bl	chSemSignalI
 610              	.LVL39:
 611              		.loc 1 232 3 is_stmt 1 view .LVU181
 612              		.loc 1 232 10 is_stmt 0 view .LVU182
 613 002a 0020     		movs	r0, #0
 614              		.loc 1 233 1 view .LVU183
 615 002c 38BD     		pop	{r3, r4, r5, pc}
 616              	.LVL40:
 617              	.L19:
 618              		.loc 1 222 12 view .LVU184
 619 002e 4FF0FF30 		mov	r0, #-1
 620              	.LVL41:
 621              		.loc 1 233 1 view .LVU185
 622 0032 38BD     		pop	{r3, r4, r5, pc}
 623              		.cfi_endproc
 624              	.LFE224:
 625              		.size	chMBPostI, .-chMBPostI
 626              		.section	.text.chMBPostAheadS,"ax",%progbits
 627              		.align	1
ARM GAS  C:\Users\USER\AppData\Local\Temp\ccXJCGbr.s 			page 12


 628              		.p2align 4,,15
 629              		.global	chMBPostAheadS
 630              		.syntax unified
 631              		.thumb
 632              		.thumb_func
 633              		.fpu fpv4-sp-d16
 634              		.type	chMBPostAheadS, %function
 635              	chMBPostAheadS:
 636              	.LVL42:
 637              	.LFB226:
 638              		.loc 1 283 68 is_stmt 1 view -0
 639              		.cfi_startproc
 640              		@ args = 0, pretend = 0, frame = 0
 641              		@ frame_needed = 0, uses_anonymous_args = 0
 642              		.loc 1 283 68 is_stmt 0 view .LVU187
 643 0000 70B5     		push	{r4, r5, r6, lr}
 644              		.cfi_def_cfa_offset 16
 645              		.cfi_offset 4, -16
 646              		.cfi_offset 5, -12
 647              		.cfi_offset 6, -8
 648              		.cfi_offset 14, -4
 649              		.loc 1 283 68 view .LVU188
 650 0002 0446     		mov	r4, r0
 651 0004 0E46     		mov	r6, r1
 652              		.loc 1 284 3 is_stmt 1 view .LVU189
 653              		.loc 1 286 21 view .LVU190
 654              		.loc 1 287 3 view .LVU191
 655              		.loc 1 287 3 view .LVU192
 656              		.loc 1 289 3 view .LVU193
 657              		.loc 1 289 12 is_stmt 0 view .LVU194
 658 0006 1C30     		adds	r0, r0, #28
 659              	.LVL43:
 660              		.loc 1 289 12 view .LVU195
 661 0008 1146     		mov	r1, r2
 662              	.LVL44:
 663              		.loc 1 289 12 view .LVU196
 664 000a FFF7FEFF 		bl	chSemWaitTimeoutS
 665              	.LVL45:
 666              		.loc 1 290 3 is_stmt 1 view .LVU197
 667              		.loc 1 290 6 is_stmt 0 view .LVU198
 668 000e 0546     		mov	r5, r0
 669 0010 78B9     		cbnz	r0, .L21
 670              		.loc 1 291 5 is_stmt 1 view .LVU199
 671              		.loc 1 291 9 is_stmt 0 view .LVU200
 672 0012 E368     		ldr	r3, [r4, #12]
 673              		.loc 1 291 8 view .LVU201
 674 0014 2268     		ldr	r2, [r4]
 675              		.loc 1 291 9 view .LVU202
 676 0016 043B     		subs	r3, r3, #4
 677              		.loc 1 291 8 view .LVU203
 678 0018 9342     		cmp	r3, r2
 679 001a E360     		str	r3, [r4, #12]
 680 001c 02D2     		bcs	.L23
 681              		.loc 1 292 7 is_stmt 1 view .LVU204
 682              		.loc 1 292 35 is_stmt 0 view .LVU205
 683 001e 6368     		ldr	r3, [r4, #4]
 684 0020 043B     		subs	r3, r3, #4
ARM GAS  C:\Users\USER\AppData\Local\Temp\ccXJCGbr.s 			page 13


 685              		.loc 1 292 21 view .LVU206
 686 0022 E360     		str	r3, [r4, #12]
 687              	.L23:
 688              	.LVL46:
 689              	.LBB137:
 690              	.LBI137:
 691              		.loc 1 283 7 is_stmt 1 view .LVU207
 692              	.LBB138:
 693              		.loc 1 294 5 view .LVU208
 694              		.loc 1 294 20 is_stmt 0 view .LVU209
 695 0024 1E60     		str	r6, [r3]
 696              		.loc 1 295 5 is_stmt 1 view .LVU210
 697 0026 04F11000 		add	r0, r4, #16
 698              	.LVL47:
 699              		.loc 1 295 5 is_stmt 0 view .LVU211
 700 002a FFF7FEFF 		bl	chSemSignalI
 701              	.LVL48:
 702              		.loc 1 296 5 is_stmt 1 view .LVU212
 703 002e FFF7FEFF 		bl	chSchRescheduleS
 704              	.LVL49:
 705              	.LBE138:
 706              	.LBE137:
 707              		.loc 1 299 3 view .LVU213
 708              	.L21:
 709              		.loc 1 300 1 is_stmt 0 view .LVU214
 710 0032 2846     		mov	r0, r5
 711 0034 70BD     		pop	{r4, r5, r6, pc}
 712              		.loc 1 300 1 view .LVU215
 713              		.cfi_endproc
 714              	.LFE226:
 715              		.size	chMBPostAheadS, .-chMBPostAheadS
 716 0036 00BF     		.section	.text.chMBPostAhead,"ax",%progbits
 717              		.align	1
 718              		.p2align 4,,15
 719              		.global	chMBPostAhead
 720              		.syntax unified
 721              		.thumb
 722              		.thumb_func
 723              		.fpu fpv4-sp-d16
 724              		.type	chMBPostAhead, %function
 725              	chMBPostAhead:
 726              	.LVL50:
 727              	.LFB225:
 728              		.loc 1 254 67 is_stmt 1 view -0
 729              		.cfi_startproc
 730              		@ args = 0, pretend = 0, frame = 0
 731              		@ frame_needed = 0, uses_anonymous_args = 0
 732              		.loc 1 255 3 view .LVU217
 733              		.loc 1 257 3 view .LVU218
 734              	.LBB139:
 735              	.LBI139:
 736              		.loc 2 346 20 view .LVU219
 737              	.LBE139:
 738              		.loc 2 348 3 view .LVU220
 739              	.LBB147:
 740              	.LBB140:
 741              	.LBI140:
ARM GAS  C:\Users\USER\AppData\Local\Temp\ccXJCGbr.s 			page 14


 742              		.loc 3 444 20 view .LVU221
 743              	.LBE140:
 744              	.LBE147:
 745              		.loc 3 447 3 view .LVU222
 746              	.LBB148:
 747              	.LBB145:
 748              	.LBB141:
 749              	.LBI141:
 750              		.loc 4 544 57 view .LVU223
 751              	.LBB142:
 752              		.loc 4 546 3 view .LVU224
 753              	.LBE142:
 754              	.LBE141:
 755              	.LBE145:
 756              	.LBE148:
 757              		.loc 1 254 67 is_stmt 0 view .LVU225
 758 0000 08B5     		push	{r3, lr}
 759              		.cfi_def_cfa_offset 8
 760              		.cfi_offset 3, -8
 761              		.cfi_offset 14, -4
 762              	.LBB149:
 763              	.LBB146:
 764              	.LBB144:
 765              	.LBB143:
 766              		.loc 4 546 3 view .LVU226
 767 0002 2023     		movs	r3, #32
 768              		.syntax unified
 769              	@ 546 "src/ChibiOS_3.0.2/os/ext/CMSIS/include/core_cmFunc.h" 1
 770 0004 83F31188 		MSR basepri, r3
 771              	@ 0 "" 2
 772              	.LVL51:
 773              		.loc 4 546 3 view .LVU227
 774              		.thumb
 775              		.syntax unified
 776              	.LBE143:
 777              	.LBE144:
 778              	.LBE146:
 779              	.LBE149:
 780              		.loc 2 349 34 is_stmt 1 view .LVU228
 781              		.loc 2 350 20 view .LVU229
 782              		.loc 1 258 3 view .LVU230
 783              		.loc 1 258 12 is_stmt 0 view .LVU231
 784 0008 FFF7FEFF 		bl	chMBPostAheadS
 785              	.LVL52:
 786              		.loc 1 259 3 is_stmt 1 view .LVU232
 787              	.LBB150:
 788              	.LBI150:
 789              		.loc 2 358 20 view .LVU233
 790              	.LBB151:
 791              		.loc 2 360 22 view .LVU234
 792              		.loc 2 361 33 view .LVU235
 793              		.loc 2 367 3 view .LVU236
 794              		.loc 2 367 3 view .LVU237
 795              		.loc 2 371 3 view .LVU238
 796              	.LBB152:
 797              	.LBI152:
 798              		.loc 3 458 20 view .LVU239
ARM GAS  C:\Users\USER\AppData\Local\Temp\ccXJCGbr.s 			page 15


 799              	.LBE152:
 800              	.LBE151:
 801              	.LBE150:
 802              		.loc 3 461 3 view .LVU240
 803              	.LBB157:
 804              	.LBB156:
 805              	.LBB155:
 806              	.LBB153:
 807              	.LBI153:
 808              		.loc 4 544 57 view .LVU241
 809              	.LBB154:
 810              		.loc 4 546 3 view .LVU242
 811 000c 0023     		movs	r3, #0
 812              		.syntax unified
 813              	@ 546 "src/ChibiOS_3.0.2/os/ext/CMSIS/include/core_cmFunc.h" 1
 814 000e 83F31188 		MSR basepri, r3
 815              	@ 0 "" 2
 816              	.LVL53:
 817              		.loc 4 546 3 is_stmt 0 view .LVU243
 818              		.thumb
 819              		.syntax unified
 820              	.LBE154:
 821              	.LBE153:
 822              	.LBE155:
 823              	.LBE156:
 824              	.LBE157:
 825              		.loc 1 261 3 is_stmt 1 view .LVU244
 826              		.loc 1 262 1 is_stmt 0 view .LVU245
 827 0012 08BD     		pop	{r3, pc}
 828              		.cfi_endproc
 829              	.LFE225:
 830              		.size	chMBPostAhead, .-chMBPostAhead
 831              		.section	.text.chMBPostAheadI,"ax",%progbits
 832              		.align	1
 833              		.p2align 4,,15
 834              		.global	chMBPostAheadI
 835              		.syntax unified
 836              		.thumb
 837              		.thumb_func
 838              		.fpu fpv4-sp-d16
 839              		.type	chMBPostAheadI, %function
 840              	chMBPostAheadI:
 841              	.LVL54:
 842              	.LFB227:
 843              		.loc 1 316 49 is_stmt 1 view -0
 844              		.cfi_startproc
 845              		@ args = 0, pretend = 0, frame = 0
 846              		@ frame_needed = 0, uses_anonymous_args = 0
 847              		.loc 1 318 21 view .LVU247
 848              		.loc 1 319 3 view .LVU248
 849              		.loc 1 319 3 view .LVU249
 850              		.loc 1 321 3 view .LVU250
 851              		.loc 1 321 7 is_stmt 0 view .LVU251
 852 0000 426A     		ldr	r2, [r0, #36]
 853              	.LVL55:
 854              		.loc 5 151 21 is_stmt 1 view .LVU252
 855              		.loc 5 153 3 view .LVU253
ARM GAS  C:\Users\USER\AppData\Local\Temp\ccXJCGbr.s 			page 16


 856              		.loc 1 321 6 is_stmt 0 view .LVU254
 857 0002 002A     		cmp	r2, #0
 858 0004 11DD     		ble	.L30
 859              		.loc 1 324 3 is_stmt 1 view .LVU255
 860              	.LBB158:
 861              	.LBI158:
 862              		.loc 5 118 20 view .LVU256
 863              	.LVL56:
 864              	.LBB159:
 865              		.loc 5 120 21 view .LVU257
 866              		.loc 5 122 3 view .LVU258
 867              	.LBE159:
 868              	.LBE158:
 869              		.loc 1 325 7 is_stmt 0 view .LVU259
 870 0006 C368     		ldr	r3, [r0, #12]
 871              		.loc 1 316 49 view .LVU260
 872 0008 10B5     		push	{r4, lr}
 873              		.cfi_def_cfa_offset 8
 874              		.cfi_offset 4, -8
 875              		.cfi_offset 14, -4
 876              		.loc 1 325 6 view .LVU261
 877 000a 0468     		ldr	r4, [r0]
 878              		.loc 1 325 7 view .LVU262
 879 000c 043B     		subs	r3, r3, #4
 880              	.LBB162:
 881              	.LBB160:
 882              		.loc 5 122 12 view .LVU263
 883 000e 013A     		subs	r2, r2, #1
 884              	.LBE160:
 885              	.LBE162:
 886              		.loc 1 325 6 view .LVU264
 887 0010 A342     		cmp	r3, r4
 888              	.LBB163:
 889              	.LBB161:
 890              		.loc 5 122 12 view .LVU265
 891 0012 4262     		str	r2, [r0, #36]
 892              	.LBE161:
 893              	.LBE163:
 894              		.loc 1 325 3 is_stmt 1 view .LVU266
 895              		.loc 1 325 6 is_stmt 0 view .LVU267
 896 0014 C360     		str	r3, [r0, #12]
 897 0016 02D2     		bcs	.L29
 898              		.loc 1 326 5 is_stmt 1 view .LVU268
 899              		.loc 1 326 33 is_stmt 0 view .LVU269
 900 0018 4368     		ldr	r3, [r0, #4]
 901 001a 043B     		subs	r3, r3, #4
 902              		.loc 1 326 19 view .LVU270
 903 001c C360     		str	r3, [r0, #12]
 904              	.L29:
 905              		.loc 1 328 3 is_stmt 1 view .LVU271
 906              		.loc 1 328 18 is_stmt 0 view .LVU272
 907 001e 1960     		str	r1, [r3]
 908              		.loc 1 329 3 is_stmt 1 view .LVU273
 909 0020 1030     		adds	r0, r0, #16
 910              	.LVL57:
 911              		.loc 1 329 3 is_stmt 0 view .LVU274
 912 0022 FFF7FEFF 		bl	chSemSignalI
ARM GAS  C:\Users\USER\AppData\Local\Temp\ccXJCGbr.s 			page 17


 913              	.LVL58:
 914              		.loc 1 331 3 is_stmt 1 view .LVU275
 915              		.loc 1 331 10 is_stmt 0 view .LVU276
 916 0026 0020     		movs	r0, #0
 917              		.loc 1 332 1 view .LVU277
 918 0028 10BD     		pop	{r4, pc}
 919              	.LVL59:
 920              	.L30:
 921              		.cfi_def_cfa_offset 0
 922              		.cfi_restore 4
 923              		.cfi_restore 14
 924              		.loc 1 322 12 view .LVU278
 925 002a 4FF0FF30 		mov	r0, #-1
 926              	.LVL60:
 927              		.loc 1 332 1 view .LVU279
 928 002e 7047     		bx	lr
 929              		.cfi_endproc
 930              	.LFE227:
 931              		.size	chMBPostAheadI, .-chMBPostAheadI
 932              		.section	.text.chMBFetch,"ax",%progbits
 933              		.align	1
 934              		.p2align 4,,15
 935              		.global	chMBFetch
 936              		.syntax unified
 937              		.thumb
 938              		.thumb_func
 939              		.fpu fpv4-sp-d16
 940              		.type	chMBFetch, %function
 941              	chMBFetch:
 942              	.LVL61:
 943              	.LFB228:
 944              		.loc 1 353 65 is_stmt 1 view -0
 945              		.cfi_startproc
 946              		@ args = 0, pretend = 0, frame = 0
 947              		@ frame_needed = 0, uses_anonymous_args = 0
 948              		.loc 1 353 65 is_stmt 0 view .LVU281
 949 0000 70B5     		push	{r4, r5, r6, lr}
 950              		.cfi_def_cfa_offset 16
 951              		.cfi_offset 4, -16
 952              		.cfi_offset 5, -12
 953              		.cfi_offset 6, -8
 954              		.cfi_offset 14, -4
 955              	.LBB177:
 956              	.LBB178:
 957              	.LBB179:
 958              	.LBB180:
 959              		.loc 4 546 3 view .LVU282
 960 0002 2023     		movs	r3, #32
 961              	.LBE180:
 962              	.LBE179:
 963              	.LBE178:
 964              	.LBE177:
 965              		.loc 1 353 65 view .LVU283
 966 0004 0446     		mov	r4, r0
 967 0006 0E46     		mov	r6, r1
 968              		.loc 1 354 3 is_stmt 1 view .LVU284
 969              		.loc 1 356 3 view .LVU285
ARM GAS  C:\Users\USER\AppData\Local\Temp\ccXJCGbr.s 			page 18


 970              	.LBB185:
 971              	.LBI177:
 972              		.loc 2 346 20 view .LVU286
 973              	.LBE185:
 974              		.loc 2 348 3 view .LVU287
 975              	.LBB186:
 976              	.LBB183:
 977              	.LBI178:
 978              		.loc 3 444 20 view .LVU288
 979              	.LBE183:
 980              	.LBE186:
 981              		.loc 3 447 3 view .LVU289
 982              	.LVL62:
 983              	.LBB187:
 984              	.LBB184:
 985              	.LBB182:
 986              	.LBI179:
 987              		.loc 4 544 57 view .LVU290
 988              	.LBB181:
 989              		.loc 4 546 3 view .LVU291
 990              		.syntax unified
 991              	@ 546 "src/ChibiOS_3.0.2/os/ext/CMSIS/include/core_cmFunc.h" 1
 992 0008 83F31188 		MSR basepri, r3
 993              	@ 0 "" 2
 994              	.LVL63:
 995              		.loc 4 546 3 is_stmt 0 view .LVU292
 996              		.thumb
 997              		.syntax unified
 998              	.LBE181:
 999              	.LBE182:
 1000              	.LBE184:
 1001              	.LBE187:
 1002              		.loc 2 349 34 is_stmt 1 view .LVU293
 1003              		.loc 2 350 20 view .LVU294
 1004              		.loc 1 357 3 view .LVU295
 1005              	.LBB188:
 1006              	.LBI188:
 1007              		.loc 1 382 7 view .LVU296
 1008              	.LBB189:
 1009              		.loc 1 383 3 view .LVU297
 1010              		.loc 1 385 21 view .LVU298
 1011              		.loc 1 386 3 view .LVU299
 1012              		.loc 1 386 3 view .LVU300
 1013              		.loc 1 388 3 view .LVU301
 1014              		.loc 1 388 12 is_stmt 0 view .LVU302
 1015 000c 1146     		mov	r1, r2
 1016              	.LVL64:
 1017              		.loc 1 388 12 view .LVU303
 1018 000e 1030     		adds	r0, r0, #16
 1019              	.LVL65:
 1020              		.loc 1 388 12 view .LVU304
 1021 0010 FFF7FEFF 		bl	chSemWaitTimeoutS
 1022              	.LVL66:
 1023              		.loc 1 389 3 is_stmt 1 view .LVU305
 1024              		.loc 1 389 6 is_stmt 0 view .LVU306
 1025 0014 0546     		mov	r5, r0
 1026 0016 80B9     		cbnz	r0, .L36
ARM GAS  C:\Users\USER\AppData\Local\Temp\ccXJCGbr.s 			page 19


 1027              	.LVL67:
 1028              	.LBB190:
 1029              	.LBI190:
 1030              		.loc 1 382 7 is_stmt 1 view .LVU307
 1031              	.LBB191:
 1032              		.loc 1 390 5 view .LVU308
 1033              		.loc 1 390 17 is_stmt 0 view .LVU309
 1034 0018 E368     		ldr	r3, [r4, #12]
 1035              		.loc 1 391 8 view .LVU310
 1036 001a 6268     		ldr	r2, [r4, #4]
 1037              		.loc 1 390 13 view .LVU311
 1038 001c 1968     		ldr	r1, [r3]
 1039              		.loc 1 390 27 view .LVU312
 1040 001e 0433     		adds	r3, r3, #4
 1041              		.loc 1 391 8 view .LVU313
 1042 0020 9342     		cmp	r3, r2
 1043              		.loc 1 390 27 view .LVU314
 1044 0022 E360     		str	r3, [r4, #12]
 1045              		.loc 1 392 21 view .LVU315
 1046 0024 28BF     		it	cs
 1047 0026 2368     		ldrcs	r3, [r4]
 1048              		.loc 1 390 11 view .LVU316
 1049 0028 3160     		str	r1, [r6]
 1050              		.loc 1 391 5 is_stmt 1 view .LVU317
 1051              		.loc 1 392 7 view .LVU318
 1052              		.loc 1 394 5 view .LVU319
 1053 002a 04F11C00 		add	r0, r4, #28
 1054              	.LVL68:
 1055              		.loc 1 392 21 is_stmt 0 view .LVU320
 1056 002e 28BF     		it	cs
 1057 0030 E360     		strcs	r3, [r4, #12]
 1058              		.loc 1 394 5 view .LVU321
 1059 0032 FFF7FEFF 		bl	chSemSignalI
 1060              	.LVL69:
 1061              		.loc 1 395 5 is_stmt 1 view .LVU322
 1062 0036 FFF7FEFF 		bl	chSchRescheduleS
 1063              	.LVL70:
 1064              	.L36:
 1065              		.loc 1 395 5 is_stmt 0 view .LVU323
 1066              	.LBE191:
 1067              	.LBE190:
 1068              		.loc 1 398 3 is_stmt 1 view .LVU324
 1069              		.loc 1 398 3 is_stmt 0 view .LVU325
 1070              	.LBE189:
 1071              	.LBE188:
 1072              		.loc 1 358 3 is_stmt 1 view .LVU326
 1073              	.LBB192:
 1074              	.LBI192:
 1075              		.loc 2 358 20 view .LVU327
 1076              	.LBB193:
 1077              		.loc 2 360 22 view .LVU328
 1078              		.loc 2 361 33 view .LVU329
 1079              		.loc 2 367 3 view .LVU330
 1080              		.loc 2 367 3 view .LVU331
 1081              		.loc 2 371 3 view .LVU332
 1082              	.LBB194:
 1083              	.LBI194:
ARM GAS  C:\Users\USER\AppData\Local\Temp\ccXJCGbr.s 			page 20


 1084              		.loc 3 458 20 view .LVU333
 1085              	.LBE194:
 1086              	.LBE193:
 1087              	.LBE192:
 1088              		.loc 3 461 3 view .LVU334
 1089              	.LBB199:
 1090              	.LBB198:
 1091              	.LBB197:
 1092              	.LBB195:
 1093              	.LBI195:
 1094              		.loc 4 544 57 view .LVU335
 1095              	.LBB196:
 1096              		.loc 4 546 3 view .LVU336
 1097 003a 0023     		movs	r3, #0
 1098              		.syntax unified
 1099              	@ 546 "src/ChibiOS_3.0.2/os/ext/CMSIS/include/core_cmFunc.h" 1
 1100 003c 83F31188 		MSR basepri, r3
 1101              	@ 0 "" 2
 1102              	.LVL71:
 1103              		.loc 4 546 3 is_stmt 0 view .LVU337
 1104              		.thumb
 1105              		.syntax unified
 1106              	.LBE196:
 1107              	.LBE195:
 1108              	.LBE197:
 1109              	.LBE198:
 1110              	.LBE199:
 1111              		.loc 1 360 3 is_stmt 1 view .LVU338
 1112              		.loc 1 361 1 is_stmt 0 view .LVU339
 1113 0040 2846     		mov	r0, r5
 1114 0042 70BD     		pop	{r4, r5, r6, pc}
 1115              		.loc 1 361 1 view .LVU340
 1116              		.cfi_endproc
 1117              	.LFE228:
 1118              		.size	chMBFetch, .-chMBFetch
 1119              		.section	.text.chMBFetchS,"ax",%progbits
 1120              		.align	1
 1121              		.p2align 4,,15
 1122              		.global	chMBFetchS
 1123              		.syntax unified
 1124              		.thumb
 1125              		.thumb_func
 1126              		.fpu fpv4-sp-d16
 1127              		.type	chMBFetchS, %function
 1128              	chMBFetchS:
 1129              	.LVL72:
 1130              	.LFB229:
 1131              		.loc 1 382 66 is_stmt 1 view -0
 1132              		.cfi_startproc
 1133              		@ args = 0, pretend = 0, frame = 0
 1134              		@ frame_needed = 0, uses_anonymous_args = 0
 1135              		.loc 1 382 66 is_stmt 0 view .LVU342
 1136 0000 70B5     		push	{r4, r5, r6, lr}
 1137              		.cfi_def_cfa_offset 16
 1138              		.cfi_offset 4, -16
 1139              		.cfi_offset 5, -12
 1140              		.cfi_offset 6, -8
ARM GAS  C:\Users\USER\AppData\Local\Temp\ccXJCGbr.s 			page 21


 1141              		.cfi_offset 14, -4
 1142              		.loc 1 382 66 view .LVU343
 1143 0002 0446     		mov	r4, r0
 1144 0004 0E46     		mov	r6, r1
 1145              		.loc 1 383 3 is_stmt 1 view .LVU344
 1146              		.loc 1 385 21 view .LVU345
 1147              		.loc 1 386 3 view .LVU346
 1148              		.loc 1 386 3 view .LVU347
 1149              		.loc 1 388 3 view .LVU348
 1150              		.loc 1 388 12 is_stmt 0 view .LVU349
 1151 0006 1030     		adds	r0, r0, #16
 1152              	.LVL73:
 1153              		.loc 1 388 12 view .LVU350
 1154 0008 1146     		mov	r1, r2
 1155              	.LVL74:
 1156              		.loc 1 388 12 view .LVU351
 1157 000a FFF7FEFF 		bl	chSemWaitTimeoutS
 1158              	.LVL75:
 1159              		.loc 1 389 3 is_stmt 1 view .LVU352
 1160              		.loc 1 389 6 is_stmt 0 view .LVU353
 1161 000e 0546     		mov	r5, r0
 1162 0010 80B9     		cbnz	r0, .L39
 1163              	.LVL76:
 1164              	.LBB202:
 1165              	.LBI202:
 1166              		.loc 1 382 7 is_stmt 1 view .LVU354
 1167              	.LBB203:
 1168              		.loc 1 390 5 view .LVU355
 1169              		.loc 1 390 17 is_stmt 0 view .LVU356
 1170 0012 E368     		ldr	r3, [r4, #12]
 1171              		.loc 1 391 8 view .LVU357
 1172 0014 6268     		ldr	r2, [r4, #4]
 1173              		.loc 1 390 13 view .LVU358
 1174 0016 1968     		ldr	r1, [r3]
 1175              		.loc 1 390 27 view .LVU359
 1176 0018 0433     		adds	r3, r3, #4
 1177              		.loc 1 391 8 view .LVU360
 1178 001a 9342     		cmp	r3, r2
 1179              		.loc 1 390 27 view .LVU361
 1180 001c E360     		str	r3, [r4, #12]
 1181              		.loc 1 392 21 view .LVU362
 1182 001e 28BF     		it	cs
 1183 0020 2368     		ldrcs	r3, [r4]
 1184              		.loc 1 390 11 view .LVU363
 1185 0022 3160     		str	r1, [r6]
 1186              		.loc 1 391 5 is_stmt 1 view .LVU364
 1187              		.loc 1 392 7 view .LVU365
 1188              		.loc 1 394 5 view .LVU366
 1189 0024 04F11C00 		add	r0, r4, #28
 1190              	.LVL77:
 1191              		.loc 1 392 21 is_stmt 0 view .LVU367
 1192 0028 28BF     		it	cs
 1193 002a E360     		strcs	r3, [r4, #12]
 1194              		.loc 1 394 5 view .LVU368
 1195 002c FFF7FEFF 		bl	chSemSignalI
 1196              	.LVL78:
 1197              		.loc 1 395 5 is_stmt 1 view .LVU369
ARM GAS  C:\Users\USER\AppData\Local\Temp\ccXJCGbr.s 			page 22


 1198 0030 FFF7FEFF 		bl	chSchRescheduleS
 1199              	.LVL79:
 1200              	.LBE203:
 1201              	.LBE202:
 1202              		.loc 1 398 3 view .LVU370
 1203              	.L39:
 1204              		.loc 1 399 1 is_stmt 0 view .LVU371
 1205 0034 2846     		mov	r0, r5
 1206 0036 70BD     		pop	{r4, r5, r6, pc}
 1207              		.loc 1 399 1 view .LVU372
 1208              		.cfi_endproc
 1209              	.LFE229:
 1210              		.size	chMBFetchS, .-chMBFetchS
 1211              		.section	.text.chMBFetchI,"ax",%progbits
 1212              		.align	1
 1213              		.p2align 4,,15
 1214              		.global	chMBFetchI
 1215              		.syntax unified
 1216              		.thumb
 1217              		.thumb_func
 1218              		.fpu fpv4-sp-d16
 1219              		.type	chMBFetchI, %function
 1220              	chMBFetchI:
 1221              	.LVL80:
 1222              	.LFB230:
 1223              		.loc 1 415 47 is_stmt 1 view -0
 1224              		.cfi_startproc
 1225              		@ args = 0, pretend = 0, frame = 0
 1226              		@ frame_needed = 0, uses_anonymous_args = 0
 1227              		.loc 1 417 21 view .LVU374
 1228              		.loc 1 418 3 view .LVU375
 1229              		.loc 1 418 3 view .LVU376
 1230              		.loc 1 420 3 view .LVU377
 1231              		.loc 1 420 7 is_stmt 0 view .LVU378
 1232 0000 8269     		ldr	r2, [r0, #24]
 1233              	.LVL81:
 1234              		.loc 5 151 21 is_stmt 1 view .LVU379
 1235              		.loc 5 153 3 view .LVU380
 1236              		.loc 1 420 6 is_stmt 0 view .LVU381
 1237 0002 002A     		cmp	r2, #0
 1238 0004 14DD     		ble	.L46
 1239              		.loc 1 423 3 is_stmt 1 view .LVU382
 1240              	.LBB204:
 1241              	.LBI204:
 1242              		.loc 5 118 20 view .LVU383
 1243              	.LVL82:
 1244              	.LBB205:
 1245              		.loc 5 120 21 view .LVU384
 1246              		.loc 5 122 3 view .LVU385
 1247              	.LBE205:
 1248              	.LBE204:
 1249              		.loc 1 424 15 is_stmt 0 view .LVU386
 1250 0006 C368     		ldr	r3, [r0, #12]
 1251              	.LBB208:
 1252              	.LBB206:
 1253              		.loc 5 122 12 view .LVU387
 1254 0008 013A     		subs	r2, r2, #1
ARM GAS  C:\Users\USER\AppData\Local\Temp\ccXJCGbr.s 			page 23


 1255              	.LBE206:
 1256              	.LBE208:
 1257              		.loc 1 415 47 view .LVU388
 1258 000a 10B5     		push	{r4, lr}
 1259              		.cfi_def_cfa_offset 8
 1260              		.cfi_offset 4, -8
 1261              		.cfi_offset 14, -4
 1262              	.LBB209:
 1263              	.LBB207:
 1264              		.loc 5 122 12 view .LVU389
 1265 000c 8261     		str	r2, [r0, #24]
 1266              	.LBE207:
 1267              	.LBE209:
 1268              		.loc 1 424 3 is_stmt 1 view .LVU390
 1269              		.loc 1 425 6 is_stmt 0 view .LVU391
 1270 000e 4268     		ldr	r2, [r0, #4]
 1271              		.loc 1 424 11 view .LVU392
 1272 0010 1C68     		ldr	r4, [r3]
 1273              		.loc 1 424 25 view .LVU393
 1274 0012 0433     		adds	r3, r3, #4
 1275              		.loc 1 425 6 view .LVU394
 1276 0014 9342     		cmp	r3, r2
 1277              		.loc 1 424 25 view .LVU395
 1278 0016 C360     		str	r3, [r0, #12]
 1279              		.loc 1 426 19 view .LVU396
 1280 0018 28BF     		it	cs
 1281 001a 0368     		ldrcs	r3, [r0]
 1282              		.loc 1 424 9 view .LVU397
 1283 001c 0C60     		str	r4, [r1]
 1284              		.loc 1 425 3 is_stmt 1 view .LVU398
 1285              		.loc 1 426 5 view .LVU399
 1286              		.loc 1 428 3 view .LVU400
 1287 001e 00F11C00 		add	r0, r0, #28
 1288              	.LVL83:
 1289              		.loc 1 426 19 is_stmt 0 view .LVU401
 1290 0022 28BF     		it	cs
 1291 0024 40F8103C 		strcs	r3, [r0, #-16]
 1292              		.loc 1 428 3 view .LVU402
 1293 0028 FFF7FEFF 		bl	chSemSignalI
 1294              	.LVL84:
 1295              		.loc 1 430 3 is_stmt 1 view .LVU403
 1296              		.loc 1 430 10 is_stmt 0 view .LVU404
 1297 002c 0020     		movs	r0, #0
 1298              		.loc 1 431 1 view .LVU405
 1299 002e 10BD     		pop	{r4, pc}
 1300              	.LVL85:
 1301              	.L46:
 1302              		.cfi_def_cfa_offset 0
 1303              		.cfi_restore 4
 1304              		.cfi_restore 14
 1305              		.loc 1 421 12 view .LVU406
 1306 0030 4FF0FF30 		mov	r0, #-1
 1307              	.LVL86:
 1308              		.loc 1 431 1 view .LVU407
 1309 0034 7047     		bx	lr
 1310              		.cfi_endproc
 1311              	.LFE230:
ARM GAS  C:\Users\USER\AppData\Local\Temp\ccXJCGbr.s 			page 24


 1312              		.size	chMBFetchI, .-chMBFetchI
 1313 0036 00BF     		.text
 1314              	.Letext0:
 1315              		.file 6 "c:\\program files (x86)\\gnu tools arm embedded\\8 2018-q4-major\\arm-none-eabi\\include\
 1316              		.file 7 "c:\\program files (x86)\\gnu tools arm embedded\\8 2018-q4-major\\arm-none-eabi\\include\
 1317              		.file 8 "src/ChibiOS_3.0.2/os/rt/ports/ARMCMx/compilers/GCC/chtypes.h"
 1318              		.file 9 "src/ChibiOS_3.0.2/os/rt/include/chsystypes.h"
 1319              		.file 10 "src/ChibiOS_3.0.2/os/rt/include/chschd.h"
 1320              		.file 11 "src/ChibiOS_3.0.2/os/ext/CMSIS/include/core_cm4.h"
 1321              		.file 12 "src/ChibiOS_3.0.2/os/ext/CMSIS/ST/system_stm32f4xx.h"
 1322              		.file 13 "src/ChibiOS_3.0.2/os/rt/ports/ARMCMx/chcore.h"
 1323              		.file 14 "src/ChibiOS_3.0.2/os/rt/include/chtm.h"
 1324              		.file 15 "src/ChibiOS_3.0.2/os/rt/include/chmtx.h"
 1325              		.file 16 "src/ChibiOS_3.0.2/os/rt/include/chregistry.h"
 1326              		.file 17 "src/ChibiOS_3.0.2/os/rt/include/chmboxes.h"