ARM GAS  C:\Users\USER\AppData\Local\Temp\ccE3RbfQ.s 			page 1


   1              		.cpu cortex-m4
   2              		.eabi_attribute 27, 1
   3              		.eabi_attribute 28, 1
   4              		.eabi_attribute 20, 1
   5              		.eabi_attribute 21, 1
   6              		.eabi_attribute 23, 3
   7              		.eabi_attribute 24, 1
   8              		.eabi_attribute 25, 1
   9              		.eabi_attribute 26, 1
  10              		.eabi_attribute 30, 2
  11              		.eabi_attribute 34, 1
  12              		.eabi_attribute 18, 4
  13              		.file	"chmempools.c"
  14              		.text
  15              	.Ltext0:
  16              		.cfi_sections	.debug_frame
  17              		.section	.text.chPoolObjectInit,"ax",%progbits
  18              		.align	1
  19              		.p2align 4,,15
  20              		.global	chPoolObjectInit
  21              		.arch armv7e-m
  22              		.syntax unified
  23              		.thumb
  24              		.thumb_func
  25              		.fpu fpv4-sp-d16
  26              		.type	chPoolObjectInit, %function
  27              	chPoolObjectInit:
  28              	.LVL0:
  29              	.LFB219:
  30              		.file 1 "src/ChibiOS_3.0.2/os/rt/src/chmempools.c"
  31              		.loc 1 75 78 view -0
  32              		.cfi_startproc
  33              		@ args = 0, pretend = 0, frame = 0
  34              		@ frame_needed = 0, uses_anonymous_args = 0
  35              		@ link register save eliminated.
  36              		.loc 1 77 3 view .LVU1
  37              		.loc 1 77 3 view .LVU2
  38              		.loc 1 79 3 view .LVU3
  39              		.loc 1 79 15 is_stmt 0 view .LVU4
  40 0000 0023     		movs	r3, #0
  41              		.loc 1 81 19 view .LVU5
  42 0002 C0E90112 		strd	r1, r2, [r0, #4]
  43              		.loc 1 79 15 view .LVU6
  44 0006 0360     		str	r3, [r0]
  45              		.loc 1 80 3 is_stmt 1 view .LVU7
  46              		.loc 1 81 3 view .LVU8
  47              		.loc 1 82 1 is_stmt 0 view .LVU9
  48 0008 7047     		bx	lr
  49              		.cfi_endproc
  50              	.LFE219:
  51              		.size	chPoolObjectInit, .-chPoolObjectInit
  52 000a 00BF     		.section	.text.chPoolLoadArray,"ax",%progbits
  53              		.align	1
  54              		.p2align 4,,15
  55              		.global	chPoolLoadArray
  56              		.syntax unified
  57              		.thumb
ARM GAS  C:\Users\USER\AppData\Local\Temp\ccE3RbfQ.s 			page 2


  58              		.thumb_func
  59              		.fpu fpv4-sp-d16
  60              		.type	chPoolLoadArray, %function
  61              	chPoolLoadArray:
  62              	.LVL1:
  63              	.LFB220:
  64              		.loc 1 97 60 is_stmt 1 view -0
  65              		.cfi_startproc
  66              		@ args = 0, pretend = 0, frame = 0
  67              		@ frame_needed = 0, uses_anonymous_args = 0
  68              		@ link register save eliminated.
  69              		.loc 1 99 3 view .LVU11
  70              		.loc 1 99 3 view .LVU12
  71              		.loc 1 101 3 view .LVU13
  72              		.loc 1 101 9 is_stmt 0 view .LVU14
  73 0000 7AB1     		cbz	r2, .L11
  74              		.loc 1 97 60 view .LVU15
  75 0002 30B4     		push	{r4, r5}
  76              		.cfi_def_cfa_offset 8
  77              		.cfi_offset 4, -8
  78              		.cfi_offset 5, -4
  79              	.LBB77:
  80              	.LBB78:
  81              	.LBB79:
  82              	.LBB80:
  83              	.LBB81:
  84              	.LBB82:
  85              		.file 2 "src/ChibiOS_3.0.2/os/ext/CMSIS/include/core_cmFunc.h"
  86              		.loc 2 546 3 view .LVU16
  87 0004 2025     		movs	r5, #32
  88              	.LBE82:
  89              	.LBE81:
  90              	.LBE80:
  91              	.LBE79:
  92              	.LBB87:
  93              	.LBB88:
  94              	.LBB89:
  95              	.LBB90:
  96              	.LBB91:
  97 0006 0024     		movs	r4, #0
  98              	.LVL2:
  99              	.L5:
 100              		.loc 2 546 3 view .LVU17
 101              	.LBE91:
 102              	.LBE90:
 103              	.LBE89:
 104              	.LBE88:
 105              	.LBE87:
 106              	.LBE78:
 107              	.LBE77:
 108              		.loc 1 102 5 is_stmt 1 view .LVU18
 109              	.LBB112:
 110              	.LBI77:
 111              		.file 3 "src/ChibiOS_3.0.2/os/rt/include/chmempools.h"
 112              		.loc 3 137 20 view .LVU19
 113              		.loc 3 137 20 is_stmt 0 view .LVU20
 114              	.LBE112:
ARM GAS  C:\Users\USER\AppData\Local\Temp\ccE3RbfQ.s 			page 3


 115              		.loc 3 139 3 is_stmt 1 view .LVU21
 116              	.LBB113:
 117              	.LBB105:
 118              	.LBI78:
 119              		.loc 1 193 6 view .LVU22
 120              	.LBE105:
 121              	.LBE113:
 122              		.loc 1 195 3 view .LVU23
 123              	.LBB114:
 124              	.LBB106:
 125              	.LBB98:
 126              	.LBI79:
 127              		.file 4 "src/ChibiOS_3.0.2/os/rt/include/chsys.h"
 128              		.loc 4 346 20 view .LVU24
 129              	.LBE98:
 130              	.LBE106:
 131              	.LBE114:
 132              		.loc 4 348 3 view .LVU25
 133              	.LBB115:
 134              	.LBB107:
 135              	.LBB99:
 136              	.LBB85:
 137              	.LBI80:
 138              		.file 5 "src/ChibiOS_3.0.2/os/rt/ports/ARMCMx/chcore_v7m.h"
 139              		.loc 5 444 20 view .LVU26
 140              	.LBE85:
 141              	.LBE99:
 142              	.LBE107:
 143              	.LBE115:
 144              		.loc 5 447 3 view .LVU27
 145              	.LBB116:
 146              	.LBB108:
 147              	.LBB100:
 148              	.LBB86:
 149              	.LBB84:
 150              	.LBI81:
 151              		.loc 2 544 57 view .LVU28
 152              	.LBB83:
 153              		.loc 2 546 3 view .LVU29
 154              		.syntax unified
 155              	@ 546 "src/ChibiOS_3.0.2/os/ext/CMSIS/include/core_cmFunc.h" 1
 156 0008 85F31188 		MSR basepri, r5
 157              	@ 0 "" 2
 158              	.LVL3:
 159              		.loc 2 546 3 is_stmt 0 view .LVU30
 160              		.thumb
 161              		.syntax unified
 162              	.LBE83:
 163              	.LBE84:
 164              	.LBE86:
 165              	.LBE100:
 166              	.LBE108:
 167              	.LBE116:
 168              		.loc 4 349 34 is_stmt 1 view .LVU31
 169              		.loc 4 350 20 view .LVU32
 170              		.loc 1 196 3 view .LVU33
 171              	.LBB117:
ARM GAS  C:\Users\USER\AppData\Local\Temp\ccE3RbfQ.s 			page 4


 172              	.LBB109:
 173              	.LBB101:
 174              	.LBI101:
 175              		.loc 1 171 6 view .LVU34
 176              	.LBB102:
 177              		.loc 1 172 3 view .LVU35
 178              		.loc 1 174 21 view .LVU36
 179              		.loc 1 175 3 view .LVU37
 180              		.loc 1 175 3 view .LVU38
 181              		.loc 1 177 3 view .LVU39
 182              		.loc 1 177 20 is_stmt 0 view .LVU40
 183 000c 0368     		ldr	r3, [r0]
 184              		.loc 1 177 16 view .LVU41
 185 000e 0B60     		str	r3, [r1]
 186              		.loc 1 178 3 is_stmt 1 view .LVU42
 187              		.loc 1 178 15 is_stmt 0 view .LVU43
 188 0010 0160     		str	r1, [r0]
 189              	.LVL4:
 190              		.loc 1 178 15 view .LVU44
 191              	.LBE102:
 192              	.LBE101:
 193              	.LBE109:
 194              	.LBE117:
 195              		.loc 1 197 3 is_stmt 1 view .LVU45
 196              	.LBB118:
 197              	.LBB110:
 198              	.LBB103:
 199              	.LBI87:
 200              		.loc 4 358 20 view .LVU46
 201              	.LBB96:
 202              		.loc 4 360 22 view .LVU47
 203              		.loc 4 361 33 view .LVU48
 204              		.loc 4 367 3 view .LVU49
 205              		.loc 4 367 3 view .LVU50
 206              		.loc 4 371 3 view .LVU51
 207              	.LBB94:
 208              	.LBI89:
 209              		.loc 5 458 20 view .LVU52
 210              	.LBE94:
 211              	.LBE96:
 212              	.LBE103:
 213              	.LBE110:
 214              	.LBE118:
 215              		.loc 5 461 3 view .LVU53
 216              	.LBB119:
 217              	.LBB111:
 218              	.LBB104:
 219              	.LBB97:
 220              	.LBB95:
 221              	.LBB93:
 222              	.LBI90:
 223              		.loc 2 544 57 view .LVU54
 224              	.LBB92:
 225              		.loc 2 546 3 view .LVU55
 226              		.syntax unified
 227              	@ 546 "src/ChibiOS_3.0.2/os/ext/CMSIS/include/core_cmFunc.h" 1
 228 0012 84F31188 		MSR basepri, r4
ARM GAS  C:\Users\USER\AppData\Local\Temp\ccE3RbfQ.s 			page 5


 229              	@ 0 "" 2
 230              	.LVL5:
 231              		.loc 2 546 3 is_stmt 0 view .LVU56
 232              		.thumb
 233              		.syntax unified
 234              	.LBE92:
 235              	.LBE93:
 236              	.LBE95:
 237              	.LBE97:
 238              	.LBE104:
 239              	.LBE111:
 240              	.LBE119:
 241              		.loc 1 104 5 is_stmt 1 view .LVU57
 242              		.loc 1 104 7 is_stmt 0 view .LVU58
 243 0016 4368     		ldr	r3, [r0, #4]
 244              		.loc 1 101 9 view .LVU59
 245 0018 013A     		subs	r2, r2, #1
 246              	.LVL6:
 247              		.loc 1 104 7 view .LVU60
 248 001a 1944     		add	r1, r1, r3
 249              	.LVL7:
 250              		.loc 1 106 5 is_stmt 1 view .LVU61
 251              		.loc 1 101 9 is_stmt 0 view .LVU62
 252 001c F4D1     		bne	.L5
 253              		.loc 1 108 1 view .LVU63
 254 001e 30BC     		pop	{r4, r5}
 255              		.cfi_restore 5
 256              		.cfi_restore 4
 257              		.cfi_def_cfa_offset 0
 258 0020 7047     		bx	lr
 259              	.LVL8:
 260              	.L11:
 261              		.loc 1 108 1 view .LVU64
 262 0022 7047     		bx	lr
 263              		.cfi_endproc
 264              	.LFE220:
 265              		.size	chPoolLoadArray, .-chPoolLoadArray
 266              		.section	.text.chPoolAllocI,"ax",%progbits
 267              		.align	1
 268              		.p2align 4,,15
 269              		.global	chPoolAllocI
 270              		.syntax unified
 271              		.thumb
 272              		.thumb_func
 273              		.fpu fpv4-sp-d16
 274              		.type	chPoolAllocI, %function
 275              	chPoolAllocI:
 276              	.LVL9:
 277              	.LFB221:
 278              		.loc 1 120 39 is_stmt 1 view -0
 279              		.cfi_startproc
 280              		@ args = 0, pretend = 0, frame = 0
 281              		@ frame_needed = 0, uses_anonymous_args = 0
 282              		@ link register save eliminated.
 283              		.loc 1 121 3 view .LVU66
 284              		.loc 1 123 21 view .LVU67
 285              		.loc 1 124 3 view .LVU68
ARM GAS  C:\Users\USER\AppData\Local\Temp\ccE3RbfQ.s 			page 6


 286              		.loc 1 124 3 view .LVU69
 287              		.loc 1 126 3 view .LVU70
 288              		.loc 1 126 8 is_stmt 0 view .LVU71
 289 0000 0368     		ldr	r3, [r0]
 290              	.LVL10:
 291              		.loc 1 128 3 is_stmt 1 view .LVU72
 292              		.loc 1 128 6 is_stmt 0 view .LVU73
 293 0002 1BB1     		cbz	r3, .L15
 294              		.loc 1 129 5 is_stmt 1 view .LVU74
 295              		.loc 1 129 17 is_stmt 0 view .LVU75
 296 0004 1A68     		ldr	r2, [r3]
 297 0006 0260     		str	r2, [r0]
 298              	.L14:
 299              		.loc 1 137 1 view .LVU76
 300 0008 1846     		mov	r0, r3
 301              	.LVL11:
 302              		.loc 1 137 1 view .LVU77
 303 000a 7047     		bx	lr
 304              	.LVL12:
 305              	.L15:
 306              	.LBB122:
 307              	.LBI122:
 308              		.loc 1 120 7 is_stmt 1 view .LVU78
 309              	.LBB123:
 310              		.loc 1 131 8 view .LVU79
 311              		.loc 1 131 14 is_stmt 0 view .LVU80
 312 000c 8268     		ldr	r2, [r0, #8]
 313              		.loc 1 131 11 view .LVU81
 314 000e 002A     		cmp	r2, #0
 315 0010 FAD0     		beq	.L14
 316              		.loc 1 132 5 is_stmt 1 view .LVU82
 317              		.loc 1 132 12 is_stmt 0 view .LVU83
 318 0012 4068     		ldr	r0, [r0, #4]
 319              	.LVL13:
 320              		.loc 1 132 12 view .LVU84
 321 0014 1047     		bx	r2
 322              	.LVL14:
 323              		.loc 1 132 12 view .LVU85
 324              	.LBE123:
 325              	.LBE122:
 326              		.cfi_endproc
 327              	.LFE221:
 328              		.size	chPoolAllocI, .-chPoolAllocI
 329 0016 00BF     		.section	.text.chPoolAlloc,"ax",%progbits
 330              		.align	1
 331              		.p2align 4,,15
 332              		.global	chPoolAlloc
 333              		.syntax unified
 334              		.thumb
 335              		.thumb_func
 336              		.fpu fpv4-sp-d16
 337              		.type	chPoolAlloc, %function
 338              	chPoolAlloc:
 339              	.LVL15:
 340              	.LFB222:
 341              		.loc 1 149 38 is_stmt 1 view -0
 342              		.cfi_startproc
ARM GAS  C:\Users\USER\AppData\Local\Temp\ccE3RbfQ.s 			page 7


 343              		@ args = 0, pretend = 0, frame = 0
 344              		@ frame_needed = 0, uses_anonymous_args = 0
 345              		.loc 1 150 3 view .LVU87
 346              		.loc 1 152 3 view .LVU88
 347              	.LBB137:
 348              	.LBI137:
 349              		.loc 4 346 20 view .LVU89
 350              	.LBE137:
 351              		.loc 4 348 3 view .LVU90
 352              	.LBB148:
 353              	.LBB138:
 354              	.LBI138:
 355              		.loc 5 444 20 view .LVU91
 356              	.LBE138:
 357              	.LBE148:
 358              		.loc 5 447 3 view .LVU92
 359              	.LBB149:
 360              	.LBB145:
 361              	.LBB139:
 362              	.LBI139:
 363              		.loc 2 544 57 view .LVU93
 364              	.LBB140:
 365              		.loc 2 546 3 view .LVU94
 366              	.LBE140:
 367              	.LBE139:
 368              	.LBE145:
 369              	.LBE149:
 370              		.loc 1 149 38 is_stmt 0 view .LVU95
 371 0000 08B5     		push	{r3, lr}
 372              		.cfi_def_cfa_offset 8
 373              		.cfi_offset 3, -8
 374              		.cfi_offset 14, -4
 375              	.LBB150:
 376              	.LBB146:
 377              	.LBB143:
 378              	.LBB141:
 379              		.loc 2 546 3 view .LVU96
 380 0002 2022     		movs	r2, #32
 381              	.LBE141:
 382              	.LBE143:
 383              	.LBE146:
 384              	.LBE150:
 385              		.loc 1 149 38 view .LVU97
 386 0004 0346     		mov	r3, r0
 387              	.LBB151:
 388              	.LBB147:
 389              	.LBB144:
 390              	.LBB142:
 391              		.loc 2 546 3 view .LVU98
 392              		.syntax unified
 393              	@ 546 "src/ChibiOS_3.0.2/os/ext/CMSIS/include/core_cmFunc.h" 1
 394 0006 82F31188 		MSR basepri, r2
 395              	@ 0 "" 2
 396              	.LVL16:
 397              		.loc 2 546 3 view .LVU99
 398              		.thumb
 399              		.syntax unified
ARM GAS  C:\Users\USER\AppData\Local\Temp\ccE3RbfQ.s 			page 8


 400              	.LBE142:
 401              	.LBE144:
 402              	.LBE147:
 403              	.LBE151:
 404              		.loc 4 349 34 is_stmt 1 view .LVU100
 405              		.loc 4 350 20 view .LVU101
 406              		.loc 1 153 3 view .LVU102
 407              	.LBB152:
 408              	.LBI152:
 409              		.loc 1 120 7 view .LVU103
 410              	.LBB153:
 411              		.loc 1 121 3 view .LVU104
 412              		.loc 1 123 21 view .LVU105
 413              		.loc 1 124 3 view .LVU106
 414              		.loc 1 124 3 view .LVU107
 415              		.loc 1 126 3 view .LVU108
 416              		.loc 1 126 8 is_stmt 0 view .LVU109
 417 000a 0068     		ldr	r0, [r0]
 418              	.LVL17:
 419              		.loc 1 128 3 is_stmt 1 view .LVU110
 420              		.loc 1 128 6 is_stmt 0 view .LVU111
 421 000c 28B1     		cbz	r0, .L21
 422              		.loc 1 129 5 is_stmt 1 view .LVU112
 423              		.loc 1 129 17 is_stmt 0 view .LVU113
 424 000e 0268     		ldr	r2, [r0]
 425 0010 1A60     		str	r2, [r3]
 426              	.L22:
 427              		.loc 1 136 3 is_stmt 1 view .LVU114
 428              	.LVL18:
 429              		.loc 1 136 3 is_stmt 0 view .LVU115
 430              	.LBE153:
 431              	.LBE152:
 432              		.loc 1 154 3 is_stmt 1 view .LVU116
 433              	.LBB157:
 434              	.LBI157:
 435              		.loc 4 358 20 view .LVU117
 436              	.LBB158:
 437              		.loc 4 360 22 view .LVU118
 438              		.loc 4 361 33 view .LVU119
 439              		.loc 4 367 3 view .LVU120
 440              		.loc 4 367 3 view .LVU121
 441              		.loc 4 371 3 view .LVU122
 442              	.LBB159:
 443              	.LBI159:
 444              		.loc 5 458 20 view .LVU123
 445              	.LBE159:
 446              	.LBE158:
 447              	.LBE157:
 448              		.loc 5 461 3 view .LVU124
 449              	.LBB170:
 450              	.LBB167:
 451              	.LBB164:
 452              	.LBB160:
 453              	.LBI160:
 454              		.loc 2 544 57 view .LVU125
 455              	.LBB161:
 456              		.loc 2 546 3 view .LVU126
ARM GAS  C:\Users\USER\AppData\Local\Temp\ccE3RbfQ.s 			page 9


 457 0012 0023     		movs	r3, #0
 458              	.LVL19:
 459              		.loc 2 546 3 is_stmt 0 view .LVU127
 460              		.syntax unified
 461              	@ 546 "src/ChibiOS_3.0.2/os/ext/CMSIS/include/core_cmFunc.h" 1
 462 0014 83F31188 		MSR basepri, r3
 463              	@ 0 "" 2
 464              	.LVL20:
 465              		.loc 2 546 3 view .LVU128
 466              		.thumb
 467              		.syntax unified
 468              	.LBE161:
 469              	.LBE160:
 470              	.LBE164:
 471              	.LBE167:
 472              	.LBE170:
 473              		.loc 1 156 3 is_stmt 1 view .LVU129
 474              		.loc 1 157 1 is_stmt 0 view .LVU130
 475 0018 08BD     		pop	{r3, pc}
 476              	.LVL21:
 477              	.L21:
 478              	.LBB171:
 479              	.LBB156:
 480              	.LBB154:
 481              	.LBI154:
 482              		.loc 1 120 7 is_stmt 1 view .LVU131
 483              	.LBB155:
 484              		.loc 1 131 8 view .LVU132
 485              		.loc 1 131 14 is_stmt 0 view .LVU133
 486 001a 9A68     		ldr	r2, [r3, #8]
 487              		.loc 1 131 11 view .LVU134
 488 001c 002A     		cmp	r2, #0
 489 001e F8D0     		beq	.L22
 490              		.loc 1 132 5 is_stmt 1 view .LVU135
 491              		.loc 1 132 12 is_stmt 0 view .LVU136
 492 0020 5868     		ldr	r0, [r3, #4]
 493              	.LVL22:
 494              		.loc 1 132 12 view .LVU137
 495 0022 9047     		blx	r2
 496              	.LVL23:
 497              		.loc 1 132 12 view .LVU138
 498              	.LBE155:
 499              	.LBE154:
 500              		.loc 1 136 3 is_stmt 1 view .LVU139
 501              		.loc 1 136 3 is_stmt 0 view .LVU140
 502              	.LBE156:
 503              	.LBE171:
 504              		.loc 1 154 3 is_stmt 1 view .LVU141
 505              	.LBB172:
 506              		.loc 4 358 20 view .LVU142
 507              	.LBB168:
 508              		.loc 4 360 22 view .LVU143
 509              		.loc 4 361 33 view .LVU144
 510              		.loc 4 367 3 view .LVU145
 511              		.loc 4 367 3 view .LVU146
 512              		.loc 4 371 3 view .LVU147
 513              	.LBB165:
ARM GAS  C:\Users\USER\AppData\Local\Temp\ccE3RbfQ.s 			page 10


 514              		.loc 5 458 20 view .LVU148
 515              	.LBE165:
 516              	.LBE168:
 517              	.LBE172:
 518              		.loc 5 461 3 view .LVU149
 519              	.LBB173:
 520              	.LBB169:
 521              	.LBB166:
 522              	.LBB163:
 523              		.loc 2 544 57 view .LVU150
 524              	.LBB162:
 525              		.loc 2 546 3 view .LVU151
 526 0024 0023     		movs	r3, #0
 527              		.syntax unified
 528              	@ 546 "src/ChibiOS_3.0.2/os/ext/CMSIS/include/core_cmFunc.h" 1
 529 0026 83F31188 		MSR basepri, r3
 530              	@ 0 "" 2
 531              	.LVL24:
 532              		.loc 2 546 3 is_stmt 0 view .LVU152
 533              		.thumb
 534              		.syntax unified
 535              	.LBE162:
 536              	.LBE163:
 537              	.LBE166:
 538              	.LBE169:
 539              	.LBE173:
 540              		.loc 1 156 3 is_stmt 1 view .LVU153
 541              		.loc 1 157 1 is_stmt 0 view .LVU154
 542 002a 08BD     		pop	{r3, pc}
 543              		.cfi_endproc
 544              	.LFE222:
 545              		.size	chPoolAlloc, .-chPoolAlloc
 546              		.section	.text.chPoolFreeI,"ax",%progbits
 547              		.align	1
 548              		.p2align 4,,15
 549              		.global	chPoolFreeI
 550              		.syntax unified
 551              		.thumb
 552              		.thumb_func
 553              		.fpu fpv4-sp-d16
 554              		.type	chPoolFreeI, %function
 555              	chPoolFreeI:
 556              	.LVL25:
 557              	.LFB223:
 558              		.loc 1 171 49 is_stmt 1 view -0
 559              		.cfi_startproc
 560              		@ args = 0, pretend = 0, frame = 0
 561              		@ frame_needed = 0, uses_anonymous_args = 0
 562              		@ link register save eliminated.
 563              		.loc 1 172 3 view .LVU156
 564              		.loc 1 174 21 view .LVU157
 565              		.loc 1 175 3 view .LVU158
 566              		.loc 1 175 3 view .LVU159
 567              		.loc 1 177 3 view .LVU160
 568              		.loc 1 177 16 is_stmt 0 view .LVU161
 569 0000 0368     		ldr	r3, [r0]
 570 0002 0B60     		str	r3, [r1]
ARM GAS  C:\Users\USER\AppData\Local\Temp\ccE3RbfQ.s 			page 11


 571              		.loc 1 178 3 is_stmt 1 view .LVU162
 572              		.loc 1 178 15 is_stmt 0 view .LVU163
 573 0004 0160     		str	r1, [r0]
 574              		.loc 1 179 1 view .LVU164
 575 0006 7047     		bx	lr
 576              		.cfi_endproc
 577              	.LFE223:
 578              		.size	chPoolFreeI, .-chPoolFreeI
 579              		.section	.text.chPoolFree,"ax",%progbits
 580              		.align	1
 581              		.p2align 4,,15
 582              		.global	chPoolFree
 583              		.syntax unified
 584              		.thumb
 585              		.thumb_func
 586              		.fpu fpv4-sp-d16
 587              		.type	chPoolFree, %function
 588              	chPoolFree:
 589              	.LVL26:
 590              	.LFB224:
 591              		.loc 1 193 48 is_stmt 1 view -0
 592              		.cfi_startproc
 593              		@ args = 0, pretend = 0, frame = 0
 594              		@ frame_needed = 0, uses_anonymous_args = 0
 595              		@ link register save eliminated.
 596              		.loc 1 195 3 view .LVU166
 597              	.LBB174:
 598              	.LBI174:
 599              		.loc 4 346 20 view .LVU167
 600              	.LBE174:
 601              		.loc 4 348 3 view .LVU168
 602              	.LBB179:
 603              	.LBB175:
 604              	.LBI175:
 605              		.loc 5 444 20 view .LVU169
 606              	.LBE175:
 607              	.LBE179:
 608              		.loc 5 447 3 view .LVU170
 609              	.LBB180:
 610              	.LBB178:
 611              	.LBB176:
 612              	.LBI176:
 613              		.loc 2 544 57 view .LVU171
 614              	.LBB177:
 615              		.loc 2 546 3 view .LVU172
 616 0000 2023     		movs	r3, #32
 617              		.syntax unified
 618              	@ 546 "src/ChibiOS_3.0.2/os/ext/CMSIS/include/core_cmFunc.h" 1
 619 0002 83F31188 		MSR basepri, r3
 620              	@ 0 "" 2
 621              	.LVL27:
 622              		.loc 2 546 3 is_stmt 0 view .LVU173
 623              		.thumb
 624              		.syntax unified
 625              	.LBE177:
 626              	.LBE176:
 627              	.LBE178:
ARM GAS  C:\Users\USER\AppData\Local\Temp\ccE3RbfQ.s 			page 12


 628              	.LBE180:
 629              		.loc 4 349 34 is_stmt 1 view .LVU174
 630              		.loc 4 350 20 view .LVU175
 631              		.loc 1 196 3 view .LVU176
 632              	.LBB181:
 633              	.LBI181:
 634              		.loc 1 171 6 view .LVU177
 635              	.LBB182:
 636              		.loc 1 172 3 view .LVU178
 637              		.loc 1 174 21 view .LVU179
 638              		.loc 1 175 3 view .LVU180
 639              		.loc 1 175 3 view .LVU181
 640              		.loc 1 177 3 view .LVU182
 641              		.loc 1 177 16 is_stmt 0 view .LVU183
 642 0006 0368     		ldr	r3, [r0]
 643 0008 0B60     		str	r3, [r1]
 644              		.loc 1 178 3 is_stmt 1 view .LVU184
 645              	.LBE182:
 646              	.LBE181:
 647              	.LBB184:
 648              	.LBB185:
 649              	.LBB186:
 650              	.LBB187:
 651              	.LBB188:
 652              		.loc 2 546 3 is_stmt 0 view .LVU185
 653 000a 0023     		movs	r3, #0
 654              	.LBE188:
 655              	.LBE187:
 656              	.LBE186:
 657              	.LBE185:
 658              	.LBE184:
 659              	.LBB195:
 660              	.LBB183:
 661              		.loc 1 178 15 view .LVU186
 662 000c 0160     		str	r1, [r0]
 663              	.LVL28:
 664              		.loc 1 178 15 view .LVU187
 665              	.LBE183:
 666              	.LBE195:
 667              		.loc 1 197 3 is_stmt 1 view .LVU188
 668              	.LBB196:
 669              	.LBI184:
 670              		.loc 4 358 20 view .LVU189
 671              	.LBB193:
 672              		.loc 4 360 22 view .LVU190
 673              		.loc 4 361 33 view .LVU191
 674              		.loc 4 367 3 view .LVU192
 675              		.loc 4 367 3 view .LVU193
 676              		.loc 4 371 3 view .LVU194
 677              	.LBB191:
 678              	.LBI186:
 679              		.loc 5 458 20 view .LVU195
 680              	.LBE191:
 681              	.LBE193:
 682              	.LBE196:
 683              		.loc 5 461 3 view .LVU196
 684              	.LBB197:
ARM GAS  C:\Users\USER\AppData\Local\Temp\ccE3RbfQ.s 			page 13


 685              	.LBB194:
 686              	.LBB192:
 687              	.LBB190:
 688              	.LBI187:
 689              		.loc 2 544 57 view .LVU197
 690              	.LBB189:
 691              		.loc 2 546 3 view .LVU198
 692              		.syntax unified
 693              	@ 546 "src/ChibiOS_3.0.2/os/ext/CMSIS/include/core_cmFunc.h" 1
 694 000e 83F31188 		MSR basepri, r3
 695              	@ 0 "" 2
 696              	.LVL29:
 697              		.loc 2 546 3 is_stmt 0 view .LVU199
 698              		.thumb
 699              		.syntax unified
 700              	.LBE189:
 701              	.LBE190:
 702              	.LBE192:
 703              	.LBE194:
 704              	.LBE197:
 705              		.loc 1 198 1 view .LVU200
 706 0012 7047     		bx	lr
 707              		.cfi_endproc
 708              	.LFE224:
 709              		.size	chPoolFree, .-chPoolFree
 710              		.text
 711              	.Letext0:
 712              		.file 6 "c:\\program files (x86)\\gnu tools arm embedded\\8 2018-q4-major\\lib\\gcc\\arm-none-eabi
 713              		.file 7 "c:\\program files (x86)\\gnu tools arm embedded\\8 2018-q4-major\\arm-none-eabi\\include\
 714              		.file 8 "c:\\program files (x86)\\gnu tools arm embedded\\8 2018-q4-major\\arm-none-eabi\\include\
 715              		.file 9 "src/ChibiOS_3.0.2/os/rt/ports/ARMCMx/compilers/GCC/chtypes.h"
 716              		.file 10 "src/ChibiOS_3.0.2/os/rt/include/chsystypes.h"
 717              		.file 11 "src/ChibiOS_3.0.2/os/rt/include/chschd.h"
 718              		.file 12 "src/ChibiOS_3.0.2/os/ext/CMSIS/include/core_cm4.h"
 719              		.file 13 "src/ChibiOS_3.0.2/os/ext/CMSIS/ST/system_stm32f4xx.h"
 720              		.file 14 "src/ChibiOS_3.0.2/os/rt/ports/ARMCMx/chcore.h"
 721              		.file 15 "src/ChibiOS_3.0.2/os/rt/include/chtm.h"
 722              		.file 16 "src/ChibiOS_3.0.2/os/rt/include/chsem.h"
 723              		.file 17 "src/ChibiOS_3.0.2/os/rt/include/chmtx.h"
 724              		.file 18 "src/ChibiOS_3.0.2/os/rt/include/chregistry.h"
 725              		.file 19 "src/ChibiOS_3.0.2/os/rt/include/chmemcore.h"