ARM GAS  C:\Users\USER\AppData\Local\Temp\ccLH1kGg.s 			page 1


   1              		.cpu cortex-m4
   2              		.eabi_attribute 27, 1
   3              		.eabi_attribute 28, 1
   4              		.eabi_attribute 20, 1
   5              		.eabi_attribute 21, 1
   6              		.eabi_attribute 23, 3
   7              		.eabi_attribute 24, 1
   8              		.eabi_attribute 25, 1
   9              		.eabi_attribute 26, 1
  10              		.eabi_attribute 30, 2
  11              		.eabi_attribute 34, 1
  12              		.eabi_attribute 18, 4
  13              		.file	"chmemcore.c"
  14              		.text
  15              	.Ltext0:
  16              		.cfi_sections	.debug_frame
  17              		.section	.text._core_init,"ax",%progbits
  18              		.align	1
  19              		.p2align 4,,15
  20              		.global	_core_init
  21              		.arch armv7e-m
  22              		.syntax unified
  23              		.thumb
  24              		.thumb_func
  25              		.fpu fpv4-sp-d16
  26              		.type	_core_init, %function
  27              	_core_init:
  28              	.LFB219:
  29              		.file 1 "src/ChibiOS_3.0.2/os/rt/src/chmemcore.c"
  30              		.loc 1 78 23 view -0
  31              		.cfi_startproc
  32              		@ args = 0, pretend = 0, frame = 0
  33              		@ frame_needed = 0, uses_anonymous_args = 0
  34              		@ link register save eliminated.
  35              		.loc 1 80 3 view .LVU1
  36              		.loc 1 81 3 view .LVU2
  37              		.loc 1 84 3 view .LVU3
  38              		.loc 1 84 24 is_stmt 0 view .LVU4
  39 0000 054A     		ldr	r2, .L3
  40              		.loc 1 85 23 view .LVU5
  41 0002 064B     		ldr	r3, .L3+4
  42              		.loc 1 84 11 view .LVU6
  43 0004 0648     		ldr	r0, .L3+8
  44              		.loc 1 85 10 view .LVU7
  45 0006 0749     		ldr	r1, .L3+12
  46              		.loc 1 84 24 view .LVU8
  47 0008 22F00702 		bic	r2, r2, #7
  48              		.loc 1 85 23 view .LVU9
  49 000c 23F00703 		bic	r3, r3, #7
  50              		.loc 1 84 11 view .LVU10
  51 0010 0260     		str	r2, [r0]
  52              		.loc 1 85 3 is_stmt 1 view .LVU11
  53              		.loc 1 85 10 is_stmt 0 view .LVU12
  54 0012 0B60     		str	r3, [r1]
  55              		.loc 1 95 1 view .LVU13
  56 0014 7047     		bx	lr
  57              	.L4:
ARM GAS  C:\Users\USER\AppData\Local\Temp\ccLH1kGg.s 			page 2


  58 0016 00BF     		.align	2
  59              	.L3:
  60 0018 07000000 		.word	__heap_base__+7
  61 001c 00000000 		.word	__heap_end__
  62 0020 00000000 		.word	.LANCHOR0
  63 0024 00000000 		.word	.LANCHOR1
  64              		.cfi_endproc
  65              	.LFE219:
  66              		.size	_core_init, .-_core_init
  67              		.section	.text.chCoreAlloc,"ax",%progbits
  68              		.align	1
  69              		.p2align 4,,15
  70              		.global	chCoreAlloc
  71              		.syntax unified
  72              		.thumb
  73              		.thumb_func
  74              		.fpu fpv4-sp-d16
  75              		.type	chCoreAlloc, %function
  76              	chCoreAlloc:
  77              	.LVL0:
  78              	.LFB220:
  79              		.loc 1 109 32 is_stmt 1 view -0
  80              		.cfi_startproc
  81              		@ args = 0, pretend = 0, frame = 0
  82              		@ frame_needed = 0, uses_anonymous_args = 0
  83              		@ link register save eliminated.
  84              		.loc 1 110 3 view .LVU15
  85              		.loc 1 112 3 view .LVU16
  86              	.LBB26:
  87              	.LBI26:
  88              		.file 2 "src/ChibiOS_3.0.2/os/rt/include/chsys.h"
  89              		.loc 2 346 20 view .LVU17
  90              	.LBE26:
  91              		.loc 2 348 3 view .LVU18
  92              	.LBB34:
  93              	.LBB27:
  94              	.LBI27:
  95              		.file 3 "src/ChibiOS_3.0.2/os/rt/ports/ARMCMx/chcore_v7m.h"
  96              		.loc 3 444 20 view .LVU19
  97              	.LBE27:
  98              	.LBE34:
  99              		.loc 3 447 3 view .LVU20
 100              	.LBB35:
 101              	.LBB32:
 102              	.LBB28:
 103              	.LBI28:
 104              		.file 4 "src/ChibiOS_3.0.2/os/ext/CMSIS/include/core_cmFunc.h"
 105              		.loc 4 544 57 view .LVU21
 106              	.LBB29:
 107              		.loc 4 546 3 view .LVU22
 108              	.LBE29:
 109              	.LBE28:
 110              	.LBE32:
 111              	.LBE35:
 112              		.loc 1 109 32 is_stmt 0 view .LVU23
 113 0000 0346     		mov	r3, r0
 114              	.LBB36:
ARM GAS  C:\Users\USER\AppData\Local\Temp\ccLH1kGg.s 			page 3


 115              	.LBB33:
 116              	.LBB31:
 117              	.LBB30:
 118              		.loc 4 546 3 view .LVU24
 119 0002 2022     		movs	r2, #32
 120              		.syntax unified
 121              	@ 546 "src/ChibiOS_3.0.2/os/ext/CMSIS/include/core_cmFunc.h" 1
 122 0004 82F31188 		MSR basepri, r2
 123              	@ 0 "" 2
 124              	.LVL1:
 125              		.loc 4 546 3 view .LVU25
 126              		.thumb
 127              		.syntax unified
 128              	.LBE30:
 129              	.LBE31:
 130              	.LBE33:
 131              	.LBE36:
 132              		.loc 2 349 34 is_stmt 1 view .LVU26
 133              		.loc 2 350 20 view .LVU27
 134              		.loc 1 113 3 view .LVU28
 135              	.LBB37:
 136              	.LBI37:
 137              		.loc 1 131 7 view .LVU29
 138              	.LBB38:
 139              		.loc 1 132 3 view .LVU30
 140              		.loc 1 134 21 view .LVU31
 141              		.loc 1 136 3 view .LVU32
 142              		.loc 1 138 23 is_stmt 0 view .LVU33
 143 0008 0849     		ldr	r1, .L8
 144 000a 094A     		ldr	r2, .L8+4
 145 000c 0868     		ldr	r0, [r1]
 146              	.LVL2:
 147              		.loc 1 138 23 view .LVU34
 148 000e 1268     		ldr	r2, [r2]
 149              		.loc 1 136 10 view .LVU35
 150 0010 0733     		adds	r3, r3, #7
 151              	.LVL3:
 152              		.loc 1 136 8 view .LVU36
 153 0012 23F00703 		bic	r3, r3, #7
 154              	.LVL4:
 155              		.loc 1 138 3 is_stmt 1 view .LVU37
 156              		.loc 1 138 23 is_stmt 0 view .LVU38
 157 0016 121A     		subs	r2, r2, r0
 158              		.loc 1 138 6 view .LVU39
 159 0018 9342     		cmp	r3, r2
 160              		.loc 1 142 3 is_stmt 1 view .LVU40
 161              	.LVL5:
 162              		.loc 1 143 3 view .LVU41
 163              		.loc 1 143 11 is_stmt 0 view .LVU42
 164 001a 9ABF     		itte	ls
 165 001c 1B18     		addls	r3, r3, r0
 166              	.LVL6:
 167              		.loc 1 143 11 view .LVU43
 168 001e 0B60     		strls	r3, [r1]
 169              		.loc 1 145 3 is_stmt 1 view .LVU44
 170              		.loc 1 140 12 is_stmt 0 view .LVU45
 171 0020 0020     		movhi	r0, #0
ARM GAS  C:\Users\USER\AppData\Local\Temp\ccLH1kGg.s 			page 4


 172              	.LVL7:
 173              		.loc 1 140 12 view .LVU46
 174              	.LBE38:
 175              	.LBE37:
 176              		.loc 1 114 3 is_stmt 1 view .LVU47
 177              	.LBB39:
 178              	.LBI39:
 179              		.loc 2 358 20 view .LVU48
 180              	.LBB40:
 181              		.loc 2 360 22 view .LVU49
 182              		.loc 2 361 33 view .LVU50
 183              		.loc 2 367 3 view .LVU51
 184              		.loc 2 367 3 view .LVU52
 185              		.loc 2 371 3 view .LVU53
 186              	.LBB41:
 187              	.LBI41:
 188              		.loc 3 458 20 view .LVU54
 189              	.LBE41:
 190              	.LBE40:
 191              	.LBE39:
 192              		.loc 3 461 3 view .LVU55
 193              	.LBB46:
 194              	.LBB45:
 195              	.LBB44:
 196              	.LBB42:
 197              	.LBI42:
 198              		.loc 4 544 57 view .LVU56
 199              	.LBB43:
 200              		.loc 4 546 3 view .LVU57
 201 0022 0023     		movs	r3, #0
 202              		.syntax unified
 203              	@ 546 "src/ChibiOS_3.0.2/os/ext/CMSIS/include/core_cmFunc.h" 1
 204 0024 83F31188 		MSR basepri, r3
 205              	@ 0 "" 2
 206              	.LVL8:
 207              		.loc 4 546 3 is_stmt 0 view .LVU58
 208              		.thumb
 209              		.syntax unified
 210              	.LBE43:
 211              	.LBE42:
 212              	.LBE44:
 213              	.LBE45:
 214              	.LBE46:
 215              		.loc 1 116 3 is_stmt 1 view .LVU59
 216              		.loc 1 117 1 is_stmt 0 view .LVU60
 217 0028 7047     		bx	lr
 218              	.L9:
 219 002a 00BF     		.align	2
 220              	.L8:
 221 002c 00000000 		.word	.LANCHOR0
 222 0030 00000000 		.word	.LANCHOR1
 223              		.cfi_endproc
 224              	.LFE220:
 225              		.size	chCoreAlloc, .-chCoreAlloc
 226              		.section	.text.chCoreAllocI,"ax",%progbits
 227              		.align	1
 228              		.p2align 4,,15
ARM GAS  C:\Users\USER\AppData\Local\Temp\ccLH1kGg.s 			page 5


 229              		.global	chCoreAllocI
 230              		.syntax unified
 231              		.thumb
 232              		.thumb_func
 233              		.fpu fpv4-sp-d16
 234              		.type	chCoreAllocI, %function
 235              	chCoreAllocI:
 236              	.LVL9:
 237              	.LFB221:
 238              		.loc 1 131 33 is_stmt 1 view -0
 239              		.cfi_startproc
 240              		@ args = 0, pretend = 0, frame = 0
 241              		@ frame_needed = 0, uses_anonymous_args = 0
 242              		@ link register save eliminated.
 243              		.loc 1 132 3 view .LVU62
 244              		.loc 1 134 21 view .LVU63
 245              		.loc 1 136 3 view .LVU64
 246              		.loc 1 138 23 is_stmt 0 view .LVU65
 247 0000 0749     		ldr	r1, .L13
 248 0002 084B     		ldr	r3, .L13+4
 249 0004 0A68     		ldr	r2, [r1]
 250 0006 1B68     		ldr	r3, [r3]
 251              		.loc 1 136 10 view .LVU66
 252 0008 0730     		adds	r0, r0, #7
 253              	.LVL10:
 254              		.loc 1 136 8 view .LVU67
 255 000a 20F00700 		bic	r0, r0, #7
 256              	.LVL11:
 257              		.loc 1 138 3 is_stmt 1 view .LVU68
 258              		.loc 1 138 23 is_stmt 0 view .LVU69
 259 000e 9B1A     		subs	r3, r3, r2
 260              		.loc 1 138 6 view .LVU70
 261 0010 8342     		cmp	r3, r0
 262              		.loc 1 142 3 is_stmt 1 view .LVU71
 263              	.LVL12:
 264              		.loc 1 143 3 view .LVU72
 265              		.loc 1 143 11 is_stmt 0 view .LVU73
 266 0012 2ABF     		itet	cs
 267 0014 8018     		addcs	r0, r0, r2
 268              	.LVL13:
 269              		.loc 1 140 12 view .LVU74
 270 0016 0022     		movcc	r2, #0
 271              	.LVL14:
 272              		.loc 1 143 11 view .LVU75
 273 0018 0860     		strcs	r0, [r1]
 274              	.LVL15:
 275              		.loc 1 145 3 is_stmt 1 view .LVU76
 276              		.loc 1 146 1 is_stmt 0 view .LVU77
 277 001a 1046     		mov	r0, r2
 278 001c 7047     		bx	lr
 279              	.L14:
 280 001e 00BF     		.align	2
 281              	.L13:
 282 0020 00000000 		.word	.LANCHOR0
 283 0024 00000000 		.word	.LANCHOR1
 284              		.cfi_endproc
 285              	.LFE221:
ARM GAS  C:\Users\USER\AppData\Local\Temp\ccLH1kGg.s 			page 6


 286              		.size	chCoreAllocI, .-chCoreAllocI
 287              		.section	.text.chCoreGetStatusX,"ax",%progbits
 288              		.align	1
 289              		.p2align 4,,15
 290              		.global	chCoreGetStatusX
 291              		.syntax unified
 292              		.thumb
 293              		.thumb_func
 294              		.fpu fpv4-sp-d16
 295              		.type	chCoreGetStatusX, %function
 296              	chCoreGetStatusX:
 297              	.LFB222:
 298              		.loc 1 155 31 is_stmt 1 view -0
 299              		.cfi_startproc
 300              		@ args = 0, pretend = 0, frame = 0
 301              		@ frame_needed = 0, uses_anonymous_args = 0
 302              		@ link register save eliminated.
 303              		.loc 1 158 3 view .LVU79
 304              		.loc 1 158 26 is_stmt 0 view .LVU80
 305 0000 024A     		ldr	r2, .L16
 306 0002 034B     		ldr	r3, .L16+4
 307 0004 1068     		ldr	r0, [r2]
 308 0006 1B68     		ldr	r3, [r3]
 309              		.loc 1 160 1 view .LVU81
 310 0008 C01A     		subs	r0, r0, r3
 311 000a 7047     		bx	lr
 312              	.L17:
 313              		.align	2
 314              	.L16:
 315 000c 00000000 		.word	.LANCHOR1
 316 0010 00000000 		.word	.LANCHOR0
 317              		.cfi_endproc
 318              	.LFE222:
 319              		.size	chCoreGetStatusX, .-chCoreGetStatusX
 320              		.section	.bss.endmem,"aw",%nobits
 321              		.align	2
 322              		.set	.LANCHOR1,. + 0
 323              		.type	endmem, %object
 324              		.size	endmem, 4
 325              	endmem:
 326 0000 00000000 		.space	4
 327              		.section	.bss.nextmem,"aw",%nobits
 328              		.align	2
 329              		.set	.LANCHOR0,. + 0
 330              		.type	nextmem, %object
 331              		.size	nextmem, 4
 332              	nextmem:
 333 0000 00000000 		.space	4
 334              		.text
 335              	.Letext0:
 336              		.file 5 "c:\\program files (x86)\\gnu tools arm embedded\\8 2018-q4-major\\lib\\gcc\\arm-none-eabi
 337              		.file 6 "c:\\program files (x86)\\gnu tools arm embedded\\8 2018-q4-major\\arm-none-eabi\\include\
 338              		.file 7 "c:\\program files (x86)\\gnu tools arm embedded\\8 2018-q4-major\\arm-none-eabi\\include\
 339              		.file 8 "src/ChibiOS_3.0.2/os/rt/ports/ARMCMx/compilers/GCC/chtypes.h"
 340              		.file 9 "src/ChibiOS_3.0.2/os/rt/include/chsystypes.h"
 341              		.file 10 "src/ChibiOS_3.0.2/os/rt/include/chschd.h"
 342              		.file 11 "src/ChibiOS_3.0.2/os/ext/CMSIS/include/core_cm4.h"
ARM GAS  C:\Users\USER\AppData\Local\Temp\ccLH1kGg.s 			page 7


 343              		.file 12 "src/ChibiOS_3.0.2/os/ext/CMSIS/ST/system_stm32f4xx.h"
 344              		.file 13 "src/ChibiOS_3.0.2/os/rt/ports/ARMCMx/chcore.h"
 345              		.file 14 "src/ChibiOS_3.0.2/os/rt/include/chtm.h"
 346              		.file 15 "src/ChibiOS_3.0.2/os/rt/include/chsem.h"
 347              		.file 16 "src/ChibiOS_3.0.2/os/rt/include/chmtx.h"
 348              		.file 17 "src/ChibiOS_3.0.2/os/rt/include/chregistry.h"