ARM GAS  C:\Users\USER\AppData\Local\Temp\ccE3RbfQ.s 			page 1


   1              		.cpu cortex-m4
   2              		.eabi_attribute 27, 1
   3              		.eabi_attribute 28, 1
   4              		.eabi_attribute 20, 1
   5              		.eabi_attribute 21, 1
   6              		.eabi_attribute 23, 3
   7              		.eabi_attribute 24, 1
   8              		.eabi_attribute 25, 1
   9              		.eabi_attribute 26, 1
  10              		.eabi_attribute 30, 2
  11              		.eabi_attribute 34, 1
  12              		.eabi_attribute 18, 4
  13              		.file	"chmempools.c"
  14              		.text
  15              	.Ltext0:
  16              		.cfi_sections	.debug_frame
  17              		.section	.text.chPoolObjectInit,"ax",%progbits
  18              		.align	1
  19              		.p2align 4,,15
  20              		.global	chPoolObjectInit
  21              		.arch armv7e-m
  22              		.syntax unified
  23              		.thumb
  24              		.thumb_func
  25              		.fpu fpv4-sp-d16
  26              		.type	chPoolObjectInit, %function
  27              	chPoolObjectInit:
  28              	.LVL0:
  29              	.LFB219:
  30              		.file 1 "src/ChibiOS_3.0.2/os/rt/src/chmempools.c"
  31              		.loc 1 75 78 view -0
  32              		.cfi_startproc
  33              		@ args = 0, pretend = 0, frame = 0
  34              		@ frame_needed = 0, uses_anonymous_args = 0
  35              		@ link register save eliminated.
  36              		.loc 1 77 3 view .LVU1
  37              		.loc 1 77 3 view .LVU2
  38              		.loc 1 79 3 view .LVU3
  39              		.loc 1 79 15 is_stmt 0 view .LVU4
  40 0000 0023     		movs	r3, #0
  41              		.loc 1 81 19 view .LVU5
  42 0002 C0E90112 		strd	r1, r2, [r0, #4]
  43              		.loc 1 79 15 view .LVU6
  44 0006 0360     		str	r3, [r0]
  45              		.loc 1 80 3 is_stmt 1 view .LVU7
  46              		.loc 1 81 3 view .LVU8
  47              		.loc 1 82 1 is_stmt 0 view .LVU9
  48 0008 7047     		bx	lr
  49              		.cfi_endproc
  50              	.LFE219:
  51              		.size	chPoolObjectInit, .-chPoolObjectInit
  52 000a 00BF     		.section	.text.chPoolLoadArray,"ax",%progbits
  53              		.align	1
  54              		.p2align 4,,15
  55              		.global	chPoolLoadArray
  56              		.syntax unified
  57              		.thumb
ARM GAS  C:\Users\USER\AppData\Local\Temp\ccE3RbfQ.s 			page 2


  58              		.thumb_func
  59              		.fpu fpv4-sp-d16
  60              		.type	chPoolLoadArray, %function
  61              	chPoolLoadArray:
  62              	.LVL1:
  63              	.LFB220:
  64              		.loc 1 97 60 is_stmt 1 view -0
  65              		.cfi_startproc
  66              		@ args = 0, pretend = 0, frame = 0
  67              		@ frame_needed = 0, uses_anonymous_args = 0
  68              		@ link register save eliminated.
  69              		.loc 1 99 3 view .LVU11
  70              		.loc 1 99 3 view .LVU12
  71              		.loc 1 101 3 view .LVU13
  72              		.loc 1 101 9 is_stmt 0 view .LVU14
  73 0000 7AB1     		cbz	r2, .L11
  74              		.loc 1 97 60 view .LVU15
  75 0002 30B4     		push	{r4, r5}
  76              		.cfi_def_cfa_offset 8
  77              		.cfi_offset 4, -8
  78              		.cfi_offset 5, -4
  79              	.LBB77:
  80              	.LBB78:
  81              	.LBB79:
  82              	.LBB80:
  83              	.LBB81:
  84              	.LBB82:
  85              		.file 2 "src/ChibiOS_3.0.2/os/ext/CMSIS/include/core_cmFunc.h"
  86              		.loc 2 546 3 view .LVU16
  87 0004 2025     		movs	r5, #32
  88              	.LBE82:
  89              	.LBE81:
  90              	.LBE80:
  91              	.LBE79:
  92              	.LBB87:
  93              	.LBB88:
  94              	.LBB89:
  95              	.LBB90:
  96              	.LBB91:
  97 0006 0024     		movs	r4, #0
  98              	.LVL2:
  99              	.L5:
 100              		.loc 2 546 3 view .LVU17
 101              	.LBE91:
 102              	.LBE90:
 103              	.LBE89:
 104              	.LBE88:
 105              	.LBE87:
 106              	.LBE78:
 107              	.LBE77:
 108              		.loc 1 102 5 is_stmt 1 view .LVU18
 109              	.LBB112:
 110              	.LBI77:
 111              		.file 3 "src/ChibiOS_3.0.2/os/rt/include/chmempools.h"
 112              		.loc 3 137 20 view .LVU19
 113              		.loc 3 137 20 is_stmt 0 view .LVU20
 114              	.LBE112:
ARM GAS  C:\Users\USER\AppData\Local\Temp\ccE3RbfQ.s 			page 3


 115              		.loc 3 139 3 is_stmt 1 view .LVU21
 116              	.LBB113:
 117              	.LBB105:
 118              	.LBI78:
 119              		.loc 1 193 6 view .LVU22
 120              	.LBE105:
 121              	.LBE113:
 122              		.loc 1 195 3 view .LVU23
 123              	.LBB114:
 124              	.LBB106:
 125              	.LBB98:
 126              	.LBI79:
 127              		.file 4 "src/ChibiOS_3.0.2/os/rt/include/chsys.h"
 128              		.loc 4 346 20 view .LVU24
 129              	.LBE98:
 130              	.LBE106:
 131              	.LBE114:
 132              		.loc 4 348 3 view .LVU25
 133              	.LBB115:
 134              	.LBB107:
 135              	.LBB99:
 136              	.LBB85:
 137              	.LBI80:
 138              		.file 5 "src/ChibiOS_3.0.2/os/rt/ports/ARMCMx/chcore_v7m.h"
 139              		.loc 5 444 20 view .LVU26
 140              	.LBE85:
 141              	.LBE99:
 142              	.LBE107:
 143              	.LBE115:
 144              		.loc 5 447 3 view .LVU27
 145              	.LBB116:
 146              	.LBB108:
 147              	.LBB100:
 148              	.LBB86:
 149              	.LBB84:
 150              	.LBI81:
 151              		.loc 2 544 57 view .LVU28
 152              	.LBB83:
 153              		.loc 2 546 3 view .LVU29
 154              		.syntax unified
 155              	@ 546 "src/ChibiOS_3.0.2/os/ext/CMSIS/include/core_cmFunc.h" 1
 156 0008 85F31188 		MSR basepri, r5
 157              	@ 0 "" 2
 158              	.LVL3:
 159              		.loc 2 546 3 is_stmt 0 view .LVU30
 160              		.thumb
 161              		.syntax unified
 162              	.LBE83:
 163              	.LBE84:
 164              	.LBE86:
 165              	.LBE100:
 166              	.LBE108:
 167              	.LBE116:
 168              		.loc 4 349 34 is_stmt 1 view .LVU31
 169              		.loc 4 350 20 view .LVU32
 170              		.loc 1 196 3 view .LVU33
 171              	.LBB117:
ARM GAS  C:\Users\USER\AppData\Local\Temp\ccE3RbfQ.s 			page 4


 172              	.LBB109:
 173              	.LBB101:
 174              	.LBI101:
 175              		.loc 1 171 6 view .LVU34
 176              	.LBB102:
 177              		.loc 1 172 3 view .LVU35
 178              		.loc 1 174 21 view .LVU36
 179              		.loc 1 175 3 view .LVU37
 180              		.loc 1 175 3 view .LVU38
 181              		.loc 1 177 3 view .LVU39
 182              		.loc 1 177 20 is_stmt 0 view .LVU40
 183 000c 0368     		ldr	r3, [r0]
 184              		.loc 1 177 16 view .LVU41
 185 000e 0B60     		str	r3, [r1]
 186              		.loc 1 178 3 is_stmt 1 view .LVU42
 187              		.loc 1 178 15 is_stmt 0 view .LVU43
 188 0010 0160     		str	r1, [r0]
 189              	.LVL4:
 190              		.loc 1 178 15 view .LVU44
 191              	.LBE102:
 192              	.LBE101:
 193              	.LBE109:
 194              	.LBE117:
 195              		.loc 1 197 3 is_stmt 1 view .LVU45
 196              	.LBB118:
 197              	.LBB110:
 198              	.LBB103:
 199              	.LBI87:
 200              		.loc 4 358 20 view .LVU46
 201              	.LBB96:
 202              		.loc 4 360 22 view .LVU47
 203              		.loc 4 361 33 view .LVU48
 204              		.loc 4 367 3 view .LVU49
 205              		.loc 4 367 3 view .LVU50
 206              		.loc 4 371 3 view .LVU51
 207              	.LBB94:
 208              	.LBI89:
 209              		.loc 5 458 20 view .LVU52
 210              	.LBE94:
 211              	.LBE96:
 212              	.LBE103:
 213              	.LBE110:
 214              	.LBE118:
 215              		.loc 5 461 3 view .LVU53
 216              	.LBB119:
 217              	.LBB111:
 218              	.LBB104:
 219              	.LBB97:
 220              	.LBB95:
 221              	.LBB93:
 222              	.LBI90:
 223              		.loc 2 544 57 view .LVU54
 224              	.LBB92:
 225              		.loc 2 546 3 view .LVU55
 226              		.syntax unified
 227              	@ 546 "src/ChibiOS_3.0.2/os/ext/CMSIS/include/core_cmFunc.h" 1
 228 0012 84F31188 		MSR basepri, r4
ARM GAS  C:\Users\USER\AppData\Local\Temp\ccE3RbfQ.s 			page 5


 229              	@ 0 "" 2
 230              	.LVL5:
 231              		.loc 2 546 3 is_stmt 0 view .LVU56
 232              		.thumb
 233              		.syntax unified
 234              	.LBE92:
 235              	.LBE93:
 236              	.LBE95:
 237              	.LBE97:
 238              	.LBE104:
 239              	.LBE111:
 240              	.LBE119:
 241              		.loc 1 104 5 is_stmt 1 view .LVU57
 242              		.loc 1 104 7 is_stmt 0 view .LVU58
 243 0016 4368     		ldr	r3, [r0, #4]
 244              		.loc 1 101 9 view .LVU59
 245 0018 013A     		subs	r2, r2, #1
 246              	.LVL6:
 247              		.loc 1 104 7 view .LVU60
 248 001a 1944     		add	r1, r1, r3
 249              	.LVL7:
 250              		.loc 1 106 5 is_stmt 1 view .LVU61
 251              		.loc 1 101 9 is_stmt 0 view .LVU62
 252 001c F4D1     		bne	.L5
 253              		.loc 1 108 1 view .LVU63
 254 001e 30BC     		pop	{r4, r5}
 255              		.cfi_restore 5
 256              		.cfi_restore 4
 257              		.cfi_def_cfa_offset 0
 258 0020 7047     		bx	lr
 259              	.LVL8:
 260              	.L11:
 261              		.loc 1 108 1 view .LVU64
 262 0022 7047     		bx	lr
 263              		.cfi_endproc
 264              	.LFE220:
 265              		.size	chPoolLoadArray, .-chPoolLoadArray
 266              		.section	.text.chPoolAllocI,"ax",%progbits
 267              		.align	1
 268              		.p2align 4,,15
 269              		.global	chPoolAllocI
 270              		.syntax unified
 271              		.thumb
 272              		.thumb_func
 273              		.fpu fpv4-sp-d16
 274              		.type	chPoolAllocI, %function
 275              	chPoolAllocI:
 276              	.LVL9:
 277              	.LFB221:
 278              		.loc 1 120 39 is_stmt 1 view -0
 279              		.cfi_startproc
 280              		@ args = 0, pretend = 0, frame = 0
 281              		@ frame_needed = 0, uses_anonymous_args = 0
 282              		@ link register save eliminated.
 283              		.loc 1 121 3 view .LVU66
 284              		.loc 1 123 21 view .LVU67
 285              		.loc 1 124 3 view .LVU68
ARM GAS  C:\Users\USER\AppData\Local\Temp\ccE3RbfQ.s 			page 6


 286              		.loc 1 124 3 view .LVU69
 287              		.loc 1 126 3 view .LVU70
 288              		.loc 1 126 8 is_stmt 0 view .LVU71
 289 0000 0368     		ldr	r3, [r0]
 290              	.LVL10:
 291              		.loc 1 128 3 is_stmt 1 view .LVU72
 292              		.loc 1 128 6 is_stmt 0 view .LVU73
 293 0002 1BB1     		cbz	r3, .L15
 294              		.loc 1 129 5 is_stmt 1 view .LVU74
 295              		.loc 1 129 17 is_stmt 0 view .LVU75
 296 0004 1A68     		ldr	r2, [r3]
 297 0006 0260     		str	r2, [r0]
 298              	.L14:
 299              		.loc 1 137 1 view .LVU76
 300 0008 1846     		mov	r0, r3
 301              	.LVL11:
 302              		.loc 1 137 1 view .LVU77
 303 000a 7047     		bx	lr
 304              	.LVL12:
 305              	.L15:
 306              	.LBB122:
 307              	.LBI122:
 308              		.loc 1 120 7 is_stmt 1 view .LVU78
 309              	.LBB123:
 310              		.loc 1 131 8 view .LVU79
 311              		.loc 1 131 14 is_stmt 0 view .LVU80
 312 000c 8268     		ldr	r2, [r0, #8]
 313              		.loc 1 131 11 view .LVU81
 314 000e 002A     		cmp	r2, #0
 315 0010 FAD0     		beq	.L14
 316              		.loc 1 132 5 is_stmt 1 view .LVU82
 317              		.loc 1 132 12 is_stmt 0 view .LVU83
 318 0012 4068     		ldr	r0, [r0, #4]
 319              	.LVL13:
 320              		.loc 1 132 12 view .LVU84
 321 0014 1047     		bx	r2
 322              	.LVL14:
 323              		.loc 1 132 12 view .LVU85
 324              	.LBE123:
 325              	.LBE122:
 326              		.cfi_endproc
 327              	.LFE221:
 328              		.size	chPoolAllocI, .-chPoolAllocI
 329 0016 00BF     		.section	.text.chPoolAlloc,"ax",%progbits
 330              		.align	1
 331              		.p2align 4,,15
 332              		.global	chPoolAlloc
 333              		.syntax unified
 334              		.thumb
 335              		.thumb_func
 336              		.fpu fpv4-sp-d16
 337              		.type	chPoolAlloc, %function
 338              	chPoolAlloc:
 339              	.LVL15:
 340              	.LFB222:
 341              		.loc 1 149 38 is_stmt 1 view -0
 342              		.cfi_startproc
ARM GAS  C:\Users\USER\AppData\Local\Temp\ccE3RbfQ.s 			page 7


 343              		@ args = 0, pretend = 0, frame = 0
 344              		@ frame_needed = 0, uses_anonymous_args = 0
 345              		.loc 1 150 3 view .LVU87
 346              		.loc 1 152 3 view .LVU88
 347              	.LBB137:
 348              	.LBI137:
 349              		.loc 4 346 20 view .LVU89
 350              	.LBE137:
 351              		.loc 4 348 3 view .LVU90
 352              	.LBB148:
 353              	.LBB138:
 354              	.LBI138:
 355              		.loc 5 444 20 view .LVU91
 356              	.LBE138:
 357              	.LBE148:
 358              		.loc 5 447 3 view .LVU92
 359              	.LBB149:
 360              	.LBB145:
 361              	.LBB139:
 362              	.LBI139:
 363              		.loc 2 544 57 view .LVU93
 364              	.LBB140:
 365              		.loc 2 546 3 view .LVU94
 366              	.LBE140:
 367              	.LBE139:
 368              	.LBE145:
 369              	.LBE149:
 370              		.loc 1 149 38 is_stmt 0 view .LVU95
 371 0000 08B5     		push	{r3, lr}
 372              		.cfi_def_cfa_offset 8
 373              		.cfi_offset 3, -8
 374              		.cfi_offset 14, -4
 375              	.LBB150:
 376              	.LBB146:
 377              	.LBB143:
 378              	.LBB141:
 379              		.loc 2 546 3 view .LVU96
 380 0002 2022     		movs	r2, #32
 381              	.LBE141:
 382              	.LBE143:
 383              	.LBE146:
 384              	.LBE150:
 385              		.loc 1 149 38 view .LVU97
 386 0004 0346     		mov	r3, r0
 387              	.LBB151:
 388              	.LBB147:
 389              	.LBB144:
 390              	.LBB142:
 391              		.loc 2 546 3 view .LVU98
 392              		.syntax unified
 393              	@ 546 "src/ChibiOS_3.0.2/os/ext/CMSIS/include/core_cmFunc.h" 1
 394 0006 82F31188 		MSR basepri, r2
 395              	@ 0 "" 2
 396              	.LVL16:
 397              		.loc 2 546 3 view .LVU99
 398              		.thumb
 399              		.syntax unified
ARM GAS  C:\Users\USER\AppData\Local\Temp\ccE3RbfQ.s 			page 8


 400              	.LBE142:
 401              	.LBE144:
 402              	.LBE147:
 403              	.LBE151:
 404              		.loc 4 349 34 is_stmt 1 view .LVU100
 405              		.loc 4 350 20 view .LVU101
 406              		.loc 1 153 3 view .LVU102
 407              	.LBB152:
 408              	.LBI152:
 409              		.loc 1 120 7 view .LVU103
 410              	.LBB153:
 411              		.loc 1 121 3 view .LVU104
 412              		.loc 1 123 21 view .LVU105
 413              		.loc 1 124 3 view .LVU106
 414              		.loc 1 124 3 view .LVU107
 415              		.loc 1 126 3 view .LVU108
 416              		.loc 1 126 8 is_stmt 0 view .LVU109
 417 000a 0068     		ldr	r0, [r0]
 418              	.LVL17:
 419              		.loc 1 128 3 is_stmt 1 view .LVU110
 420              		.loc 1 128 6 is_stmt 0 view .LVU111
 421 000c 28B1     		cbz	r0, .L21
 422              		.loc 1 129 5 is_stmt 1 view .LVU112
 423              		.loc 1 129 17 is_stmt 0 view .LVU113
 424 000e 0268     		ldr	r2, [r0]
 425 0010 1A60     		str	r2, [r3]
 426              	.L22:
 427              		.loc 1 136 3 is_stmt 1 view .LVU114
 428              	.LVL18:
 429              		.loc 1 136 3 is_stmt 0 view .LVU115
 430              	.LBE153:
 431              	.LBE152:
 432              		.loc 1 154 3 is_stmt 1 view .LVU116
 433              	.LBB157:
 434              	.LBI157:
 435              		.loc 4 358 20 view .LVU117
 436              	.LBB158:
 437              		.loc 4 360 22 view .LVU118
 438              		.loc 4 361 33 view .LVU119
 439              		.loc 4 367 3 view .LVU120
 440              		.loc 4 367 3 view .LVU121
 441              		.loc 4 371 3 view .LVU122
 442              	.LBB159:
 443              	.LBI159:
 444              		.loc 5 458 20 view .LVU123
 445              	.LBE159:
 446              	.LBE158:
 447              	.LBE157:
 448              		.loc 5 461 3 view .LVU124
 449              	.LBB170:
 450              	.LBB167:
 451              	.LBB164:
 452              	.LBB160:
 453              	.LBI160:
 454              		.loc 2 544 57 view .LVU125
 455              	.LBB161:
 456              		.loc 2 546 3 view .LVU126
ARM GAS  C:\Users\USER\AppData\Local\Temp\ccE3RbfQ.s 			page 9


 457 0012 0023     		movs	r3, #0
 458              	.LVL19:
 459              		.loc 2 546 3 is_stmt 0 view .LVU127
 460              		.syntax unified
 461              	@ 546 "src/ChibiOS_3.0.2/os/ext/CMSIS/include/core_cmFunc.h" 1
 462 0014 83F31188 		MSR basepri, r3
 463              	@ 0 "" 2
 464              	.LVL20:
 465              		.loc 2 546 3 view .LVU128
 466              		.thumb
 467              		.syntax unified
 468              	.LBE161:
 469              	.LBE160:
 470              	.LBE164:
 471              	.LBE167:
 472              	.LBE170:
 473              		.loc 1 156 3 is_stmt 1 view .LVU129
 474              		.loc 1 157 1 is_stmt 0 view .LVU130
 475 0018 08BD     		pop	{r3, pc}
 476              	.LVL21:
 477              	.L21:
 478              	.LBB171:
 479              	.LBB156:
 480              	.LBB154:
 481              	.LBI154:
 482              		.loc 1 120 7 is_stmt 1 view .LVU131
 483              	.LBB155:
 484              		.loc 1 131 8 view .LVU132
 485              		.loc 1 131 14 is_stmt 0 view .LVU133
 486 001a 9A68     		ldr	r2, [r3, #8]
 487              		.loc 1 131 11 view .LVU134
 488 001c 002A     		cmp	r2, #0
 489 001e F8D0     		beq	.L22
 490              		.loc 1 132 5 is_stmt 1 view .LVU135
 491              		.loc 1 132 12 is_stmt 0 view .LVU136
 492 0020 5868     		ldr	r0, [r3, #4]
 493              	.LVL22:
 494              		.loc 1 132 12 view .LVU137
 495 0022 9047     		blx	r2
 496              	.LVL23:
 497              		.loc 1 132 12 view .LVU138
 498              	.LBE155:
 499              	.LBE154:
 500              		.loc 1 136 3 is_stmt 1 view .LVU139
 501              		.loc 1 136 3 is_stmt 0 view .LVU140
 502              	.LBE156:
 503              	.LBE171:
 504              		.loc 1 154 3 is_stmt 1 view .LVU141
 505              	.LBB172:
 506              		.loc 4 358 20 view .LVU142
 507              	.LBB168:
 508              		.loc 4 360 22 view .LVU143
 509              		.loc 4 361 33 view .LVU144
 510              		.loc 4 367 3 view .LVU145
 511              		.loc 4 367 3 view .LVU146
 512              		.loc 4 371 3 view .LVU147
 513              	.LBB165:
ARM GAS  C:\Users\USER\AppData\Local\Temp\ccE3RbfQ.s 			page 10


 514              		.loc 5 458 20 view .LVU148
 515              	.LBE165:
 516              	.LBE168:
 517              	.LBE172:
 518              		.loc 5 461 3 view .LVU149
 519              	.LBB173:
 520              	.LBB169:
 521              	.LBB166:
 522              	.LBB163:
 523              		.loc 2 544 57 view .LVU150
 524              	.LBB162:
 525              		.loc 2 546 3 view .LVU151
 526 0024 0023     		movs	r3, #0
 527              		.syntax unified
 528              	@ 546 "src/ChibiOS_3.0.2/os/ext/CMSIS/include/core_cmFunc.h" 1
 529 0026 83F31188 		MSR basepri, r3
 530              	@ 0 "" 2
 531              	.LVL24:
 532              		.loc 2 546 3 is_stmt 0 view .LVU152
 533              		.thumb
 534              		.syntax unified
 535              	.LBE162:
 536              	.LBE163:
 537              	.LBE166:
 538              	.LBE169:
 539              	.LBE173:
 540              		.loc 1 156 3 is_stmt 1 view .LVU153
 541              		.loc 1 157 1 is_stmt 0 view .LVU154
 542 002a 08BD     		pop	{r3, pc}
 543              		.cfi_endproc
 544              	.LFE222:
 545              		.size	chPoolAlloc, .-chPoolAlloc
 546              		.section	.text.chPoolFreeI,"ax",%progbits
 547              		.align	1
 548              		.p2align 4,,15
 549              		.global	chPoolFreeI
 550              		.syntax unified
 551              		.thumb
 552              		.thumb_func
 553              		.fpu fpv4-sp-d16
 554              		.type	chPoolFreeI, %function
 555              	chPoolFreeI:
 556              	.LVL25:
 557              	.LFB223:
 558              		.loc 1 171 49 is_stmt 1 view -0
 559              		.cfi_startproc
 560              		@ args = 0, pretend = 0, frame = 0
 561              		@ frame_needed = 0, uses_anonymous_args = 0
 562              		@ link register save eliminated.
 563              		.loc 1 172 3 view .LVU156
 564              		.loc 1 174 21 view .LVU157
 565              		.loc 1 175 3 view .LVU158
 566              		.loc 1 175 3 view .LVU159
 567              		.loc 1 177 3 view .LVU160
 568              		.loc 1 177 16 is_stmt 0 view .LVU161
 569 0000 0368     		ldr	r3, [r0]
 570 0002 0B60     		str	r3, [r1]
ARM GAS  C:\Users\USER\AppData\Local\Temp\ccE3RbfQ.s 			page 11


 571              		.loc 1 178 3 is_stmt 1 view .LVU162
 572              		.loc 1 178 15 is_stmt 0 view .LVU163
 573 0004 0160     		str	r1, [r0]
 574              		.loc 1 179 1 view .LVU164
 575 0006 7047     		bx	lr
 576              		.cfi_endproc
 577              	.LFE223:
 578              		.size	chPoolFreeI, .-chPoolFreeI
 579              		.section	.text.chPoolFree,"ax",%progbits
 580              		.align	1
 581              		.p2align 4,,15
 582              		.global	chPoolFree
 583              		.syntax unified
 584              		.thumb
 585              		.thumb_func
 586              		.fpu fpv4-sp-d16
 587              		.type	chPoolFree, %function
 588              	chPoolFree:
 589              	.LVL26:
 590              	.LFB224:
 591              		.loc 1 193 48 is_stmt 1 view -0
 592              		.cfi_startproc
 593              		@ args = 0, pretend = 0, frame = 0
 594              		@ frame_needed = 0, uses_anonymous_args = 0
 595              		@ link register save eliminated.
 596              		.loc 1 195 3 view .LVU166
 597              	.LBB174:
 598              	.LBI174:
 599              		.loc 4 346 20 view .LVU167
 600              	.LBE174:
 601              		.loc 4 348 3 view .LVU168
 602              	.LBB179:
 603              	.LBB175:
 604              	.LBI175:
 605              		.loc 5 444 20 view .LVU169
 606              	.LBE175:
 607              	.LBE179:
 608              		.loc 5 447 3 view .LVU170
 609              	.LBB180:
 610              	.LBB178:
 611              	.LBB176:
 612              	.LBI176:
 613              		.loc 2 544 57 view .LVU171
 614              	.LBB177:
 615              		.loc 2 546 3 view .LVU172
 616 0000 2023     		movs	r3, #32
 617              		.syntax unified
 618              	@ 546 "src/ChibiOS_3.0.2/os/ext/CMSIS/include/core_cmFunc.h" 1
 619 0002 83F31188 		MSR basepri, r3
 620              	@ 0 "" 2
 621              	.LVL27:
 622              		.loc 2 546 3 is_stmt 0 view .LVU173
 623              		.thumb
 624              		.syntax unified
 625              	.LBE177:
 626              	.LBE176:
 627              	.LBE178:
ARM GAS  C:\Users\USER\AppData\Local\Temp\ccE3RbfQ.s 			page 12


 628              	.LBE180:
 629              		.loc 4 349 34 is_stmt 1 view .LVU174
 630              		.loc 4 350 20 view .LVU175
 631              		.loc 1 196 3 view .LVU176
 632              	.LBB181:
 633              	.LBI181:
 634              		.loc 1 171 6 view .LVU177
 635              	.LBB182:
 636              		.loc 1 172 3 view .LVU178
 637              		.loc 1 174 21 view .LVU179
 638              		.loc 1 175 3 view .LVU180
 639              		.loc 1 175 3 view .LVU181
 640              		.loc 1 177 3 view .LVU182
 641              		.loc 1 177 16 is_stmt 0 view .LVU183
 642 0006 0368     		ldr	r3, [r0]
 643 0008 0B60     		str	r3, [r1]
 644              		.loc 1 178 3 is_stmt 1 view .LVU184
 645              	.LBE182:
 646              	.LBE181:
 647              	.LBB184:
 648              	.LBB185:
 649              	.LBB186:
 650              	.LBB187:
 651              	.LBB188:
 652              		.loc 2 546 3 is_stmt 0 view .LVU185
 653 000a 0023     		movs	r3, #0
 654              	.LBE188:
 655              	.LBE187:
 656              	.LBE186:
 657              	.LBE185:
 658              	.LBE184:
 659              	.LBB195:
 660              	.LBB183:
 661              		.loc 1 178 15 view .LVU186
 662 000c 0160     		str	r1, [r0]
 663              	.LVL28:
 664              		.loc 1 178 15 view .LVU187
 665              	.LBE183:
 666              	.LBE195:
 667              		.loc 1 197 3 is_stmt 1 view .LVU188
 668              	.LBB196:
 669              	.LBI184:
 670              		.loc 4 358 20 view .LVU189
 671              	.LBB193:
 672              		.loc 4 360 22 view .LVU190
 673              		.loc 4 361 33 view .LVU191
 674              		.loc 4 367 3 view .LVU192
 675              		.loc 4 367 3 view .LVU193
 676              		.loc 4 371 3 view .LVU194
 677              	.LBB191:
 678              	.LBI186:
 679              		.loc 5 458 20 view .LVU195
 680              	.LBE191:
 681              	.LBE193:
 682              	.LBE196:
 683              		.loc 5 461 3 view .LVU196
 684              	.LBB197:
ARM GAS  C:\Users\USER\AppData\Local\Temp\ccE3RbfQ.s 			page 13


 685              	.LBB194:
 686              	.LBB192:
 687              	.LBB190:
 688              	.LBI187:
 689              		.loc 2 544 57 view .LVU197
 690              	.LBB189:
 691              		.loc 2 546 3 view .LVU198
 692              		.syntax unified
 693              	@ 546 "src/ChibiOS_3.0.2/os/ext/CMSIS/include/core_cmFunc.h" 1
 694 000e 83F31188 		MSR basepri, r3
 695              	@ 0 "" 2
 696              	.LVL29:
 697              		.loc 2 546 3 is_stmt 0 view .LVU199
 698              		.thumb
 699              		.syntax unified
 700              	.LBE189:
 701              	.LBE190:
 702              	.LBE192:
 703              	.LBE194:
 704              	.LBE197:
 705              		.loc 1 198 1 view .LVU200
 706 0012 7047     		bx	lr
 707              		.cfi_endproc
 708              	.LFE224:
 709              		.size	chPoolFree, .-chPoolFree
 710              		.text
 711              	.Letext0:
 712              		.file 6 "c:\\program files (x86)\\gnu tools arm embedded\\8 2018-q4-major\\lib\\gcc\\arm-none-eabi
 713              		.file 7 "c:\\program files (x86)\\gnu tools arm embedded\\8 2018-q4-major\\arm-none-eabi\\include\
 714              		.file 8 "c:\\program files (x86)\\gnu tools arm embedded\\8 2018-q4-major\\arm-none-eabi\\include\
 715              		.file 9 "src/ChibiOS_3.0.2/os/rt/ports/ARMCMx/compilers/GCC/chtypes.h"
 716              		.file 10 "src/ChibiOS_3.0.2/os/rt/include/chsystypes.h"
 717              		.file 11 "src/ChibiOS_3.0.2/os/rt/include/chschd.h"
 718              		.file 12 "src/ChibiOS_3.0.2/os/ext/CMSIS/include/core_cm4.h"
 719              		.file 13 "src/ChibiOS_3.0.2/os/ext/CMSIS/ST/system_stm32f4xx.h"
 720              		.file 14 "src/ChibiOS_3.0.2/os/rt/ports/ARMCMx/chcore.h"
 721              		.file 15 "src/ChibiOS_3.0.2/os/rt/include/chtm.h"
 722              		.file 16 "src/ChibiOS_3.0.2/os/rt/include/chsem.h"
 723              		.file 17 "src/ChibiOS_3.0.2/os/rt/include/chmtx.h"
 724              		.file 18 "src/ChibiOS_3.0.2/os/rt/include/chregistry.h"
 725              		.file 19 "src/ChibiOS_3.0.2/os/rt/include/chmemcore.h"
 726              		.section	.debug_info,"",%progbits
 727              	.Ldebug_info0:
 728 0000 6D0F0000 		.4byte	0xf6d
 729 0004 0400     		.2byte	0x4
 730 0006 00000000 		.4byte	.Ldebug_abbrev0
 731 000a 04       		.byte	0x4
 732 000b 01       		.uleb128 0x1
 733 000c BC010000 		.4byte	.LASF150
 734 0010 0C       		.byte	0xc
 735 0011 B7060000 		.4byte	.LASF151
 736 0015 0B070000 		.4byte	.LASF152
 737 0019 28020000 		.4byte	.Ldebug_ranges0+0x228
 738 001d 00000000 		.4byte	0
 739 0021 00000000 		.4byte	.Ldebug_line0
 740 0025 02       		.uleb128 0x2
 741 0026 04       		.byte	0x4
ARM GAS  C:\Users\USER\AppData\Local\Temp\ccE3RbfQ.s 			page 14


 742 0027 05       		.byte	0x5
 743 0028 696E7400 		.ascii	"int\000"
 744 002c 03       		.uleb128 0x3
 745 002d 1A000000 		.4byte	.LASF2
 746 0031 06       		.byte	0x6
 747 0032 D8       		.byte	0xd8
 748 0033 17       		.byte	0x17
 749 0034 38000000 		.4byte	0x38
 750 0038 04       		.uleb128 0x4
 751 0039 04       		.byte	0x4
 752 003a 07       		.byte	0x7
 753 003b 0D030000 		.4byte	.LASF0
 754 003f 04       		.uleb128 0x4
 755 0040 01       		.byte	0x1
 756 0041 06       		.byte	0x6
 757 0042 05010000 		.4byte	.LASF1
 758 0046 03       		.uleb128 0x3
 759 0047 31000000 		.4byte	.LASF3
 760 004b 07       		.byte	0x7
 761 004c 2B       		.byte	0x2b
 762 004d 18       		.byte	0x18
 763 004e 52000000 		.4byte	0x52
 764 0052 04       		.uleb128 0x4
 765 0053 01       		.byte	0x1
 766 0054 08       		.byte	0x8
 767 0055 2E050000 		.4byte	.LASF4
 768 0059 04       		.uleb128 0x4
 769 005a 02       		.byte	0x2
 770 005b 05       		.byte	0x5
 771 005c 46050000 		.4byte	.LASF5
 772 0060 03       		.uleb128 0x3
 773 0061 43060000 		.4byte	.LASF6
 774 0065 07       		.byte	0x7
 775 0066 39       		.byte	0x39
 776 0067 19       		.byte	0x19
 777 0068 6C000000 		.4byte	0x6c
 778 006c 04       		.uleb128 0x4
 779 006d 02       		.byte	0x2
 780 006e 07       		.byte	0x7
 781 006f 82030000 		.4byte	.LASF7
 782 0073 03       		.uleb128 0x3
 783 0074 F2030000 		.4byte	.LASF8
 784 0078 07       		.byte	0x7
 785 0079 4D       		.byte	0x4d
 786 007a 18       		.byte	0x18
 787 007b 7F000000 		.4byte	0x7f
 788 007f 04       		.uleb128 0x4
 789 0080 04       		.byte	0x4
 790 0081 05       		.byte	0x5
 791 0082 6B010000 		.4byte	.LASF9
 792 0086 03       		.uleb128 0x3
 793 0087 7C060000 		.4byte	.LASF10
 794 008b 07       		.byte	0x7
 795 008c 4F       		.byte	0x4f
 796 008d 19       		.byte	0x19
 797 008e 92000000 		.4byte	0x92
 798 0092 04       		.uleb128 0x4
ARM GAS  C:\Users\USER\AppData\Local\Temp\ccE3RbfQ.s 			page 15


 799 0093 04       		.byte	0x4
 800 0094 07       		.byte	0x7
 801 0095 25060000 		.4byte	.LASF11
 802 0099 04       		.uleb128 0x4
 803 009a 08       		.byte	0x8
 804 009b 05       		.byte	0x5
 805 009c F7000000 		.4byte	.LASF12
 806 00a0 03       		.uleb128 0x3
 807 00a1 D1040000 		.4byte	.LASF13
 808 00a5 07       		.byte	0x7
 809 00a6 69       		.byte	0x69
 810 00a7 19       		.byte	0x19
 811 00a8 AC000000 		.4byte	0xac
 812 00ac 04       		.uleb128 0x4
 813 00ad 08       		.byte	0x8
 814 00ae 07       		.byte	0x7
 815 00af 76000000 		.4byte	.LASF14
 816 00b3 03       		.uleb128 0x3
 817 00b4 48070000 		.4byte	.LASF15
 818 00b8 08       		.byte	0x8
 819 00b9 18       		.byte	0x18
 820 00ba 13       		.byte	0x13
 821 00bb 46000000 		.4byte	0x46
 822 00bf 03       		.uleb128 0x3
 823 00c0 22030000 		.4byte	.LASF16
 824 00c4 08       		.byte	0x8
 825 00c5 24       		.byte	0x24
 826 00c6 14       		.byte	0x14
 827 00c7 60000000 		.4byte	0x60
 828 00cb 03       		.uleb128 0x3
 829 00cc 26050000 		.4byte	.LASF17
 830 00d0 08       		.byte	0x8
 831 00d1 2C       		.byte	0x2c
 832 00d2 13       		.byte	0x13
 833 00d3 73000000 		.4byte	0x73
 834 00d7 05       		.uleb128 0x5
 835 00d8 CB000000 		.4byte	0xcb
 836 00dc 03       		.uleb128 0x3
 837 00dd F0050000 		.4byte	.LASF18
 838 00e1 08       		.byte	0x8
 839 00e2 30       		.byte	0x30
 840 00e3 14       		.byte	0x14
 841 00e4 86000000 		.4byte	0x86
 842 00e8 03       		.uleb128 0x3
 843 00e9 28000000 		.4byte	.LASF19
 844 00ed 08       		.byte	0x8
 845 00ee 3C       		.byte	0x3c
 846 00ef 14       		.byte	0x14
 847 00f0 A0000000 		.4byte	0xa0
 848 00f4 03       		.uleb128 0x3
 849 00f5 3B040000 		.4byte	.LASF20
 850 00f9 09       		.byte	0x9
 851 00fa 45       		.byte	0x45
 852 00fb 1D       		.byte	0x1d
 853 00fc DC000000 		.4byte	0xdc
 854 0100 03       		.uleb128 0x3
 855 0101 7B050000 		.4byte	.LASF21
ARM GAS  C:\Users\USER\AppData\Local\Temp\ccE3RbfQ.s 			page 16


 856 0105 09       		.byte	0x9
 857 0106 48       		.byte	0x48
 858 0107 1D       		.byte	0x1d
 859 0108 B3000000 		.4byte	0xb3
 860 010c 03       		.uleb128 0x3
 861 010d 74010000 		.4byte	.LASF22
 862 0111 09       		.byte	0x9
 863 0112 49       		.byte	0x49
 864 0113 1D       		.byte	0x1d
 865 0114 B3000000 		.4byte	0xb3
 866 0118 03       		.uleb128 0x3
 867 0119 E4040000 		.4byte	.LASF23
 868 011d 09       		.byte	0x9
 869 011e 4A       		.byte	0x4a
 870 011f 1D       		.byte	0x1d
 871 0120 B3000000 		.4byte	0xb3
 872 0124 03       		.uleb128 0x3
 873 0125 51010000 		.4byte	.LASF24
 874 0129 09       		.byte	0x9
 875 012a 4B       		.byte	0x4b
 876 012b 1D       		.byte	0x1d
 877 012c B3000000 		.4byte	0xb3
 878 0130 03       		.uleb128 0x3
 879 0131 0E050000 		.4byte	.LASF25
 880 0135 09       		.byte	0x9
 881 0136 4C       		.byte	0x4c
 882 0137 1D       		.byte	0x1d
 883 0138 DC000000 		.4byte	0xdc
 884 013c 03       		.uleb128 0x3
 885 013d 9F030000 		.4byte	.LASF26
 886 0141 09       		.byte	0x9
 887 0142 4D       		.byte	0x4d
 888 0143 1D       		.byte	0x1d
 889 0144 CB000000 		.4byte	0xcb
 890 0148 03       		.uleb128 0x3
 891 0149 E6030000 		.4byte	.LASF27
 892 014d 09       		.byte	0x9
 893 014e 4F       		.byte	0x4f
 894 014f 1D       		.byte	0x1d
 895 0150 DC000000 		.4byte	0xdc
 896 0154 03       		.uleb128 0x3
 897 0155 07030000 		.4byte	.LASF28
 898 0159 09       		.byte	0x9
 899 015a 51       		.byte	0x51
 900 015b 1D       		.byte	0x1d
 901 015c CB000000 		.4byte	0xcb
 902 0160 03       		.uleb128 0x3
 903 0161 5E060000 		.4byte	.LASF29
 904 0165 0A       		.byte	0xa
 905 0166 33       		.byte	0x33
 906 0167 12       		.byte	0x12
 907 0168 DC000000 		.4byte	0xdc
 908 016c 05       		.uleb128 0x5
 909 016d 60010000 		.4byte	0x160
 910 0171 03       		.uleb128 0x3
 911 0172 4E060000 		.4byte	.LASF30
 912 0176 0A       		.byte	0xa
ARM GAS  C:\Users\USER\AppData\Local\Temp\ccE3RbfQ.s 			page 17


 913 0177 3F       		.byte	0x3f
 914 0178 1A       		.byte	0x1a
 915 0179 7D010000 		.4byte	0x17d
 916 017d 06       		.uleb128 0x6
 917 017e 95030000 		.4byte	.LASF52
 918 0182 48       		.byte	0x48
 919 0183 0B       		.byte	0xb
 920 0184 C2       		.byte	0xc2
 921 0185 08       		.byte	0x8
 922 0186 97020000 		.4byte	0x297
 923 018a 07       		.uleb128 0x7
 924 018b 74050000 		.4byte	.LASF31
 925 018f 0B       		.byte	0xb
 926 0190 C3       		.byte	0xc3
 927 0191 1A       		.byte	0x1a
 928 0192 A3020000 		.4byte	0x2a3
 929 0196 00       		.byte	0
 930 0197 07       		.uleb128 0x7
 931 0198 07050000 		.4byte	.LASF32
 932 019c 0B       		.byte	0xb
 933 019d C5       		.byte	0xc5
 934 019e 1A       		.byte	0x1a
 935 019f A3020000 		.4byte	0x2a3
 936 01a3 04       		.byte	0x4
 937 01a4 07       		.uleb128 0x7
 938 01a5 E3000000 		.4byte	.LASF33
 939 01a9 0B       		.byte	0xb
 940 01aa C7       		.byte	0xc7
 941 01ab 19       		.byte	0x19
 942 01ac 30010000 		.4byte	0x130
 943 01b0 08       		.byte	0x8
 944 01b1 07       		.uleb128 0x7
 945 01b2 99040000 		.4byte	.LASF34
 946 01b6 0B       		.byte	0xb
 947 01b7 C8       		.byte	0xc8
 948 01b8 19       		.byte	0x19
 949 01b9 0F050000 		.4byte	0x50f
 950 01bd 0C       		.byte	0xc
 951 01be 07       		.uleb128 0x7
 952 01bf 87010000 		.4byte	.LASF35
 953 01c3 0B       		.byte	0xb
 954 01c4 CA       		.byte	0xca
 955 01c5 1A       		.byte	0x1a
 956 01c6 A3020000 		.4byte	0x2a3
 957 01ca 10       		.byte	0x10
 958 01cb 07       		.uleb128 0x7
 959 01cc 8B040000 		.4byte	.LASF36
 960 01d0 0B       		.byte	0xb
 961 01d1 CB       		.byte	0xcb
 962 01d2 1A       		.byte	0x1a
 963 01d3 A3020000 		.4byte	0x2a3
 964 01d7 14       		.byte	0x14
 965 01d8 07       		.uleb128 0x7
 966 01d9 81070000 		.4byte	.LASF37
 967 01dd 0B       		.byte	0xb
 968 01de D2       		.byte	0xd2
 969 01df 1A       		.byte	0x1a
ARM GAS  C:\Users\USER\AppData\Local\Temp\ccE3RbfQ.s 			page 18


 970 01e0 82070000 		.4byte	0x782
 971 01e4 18       		.byte	0x18
 972 01e5 07       		.uleb128 0x7
 973 01e6 50050000 		.4byte	.LASF38
 974 01ea 0B       		.byte	0xb
 975 01eb DD       		.byte	0xdd
 976 01ec 19       		.byte	0x19
 977 01ed 0C010000 		.4byte	0x10c
 978 01f1 1C       		.byte	0x1c
 979 01f2 07       		.uleb128 0x7
 980 01f3 98070000 		.4byte	.LASF39
 981 01f7 0B       		.byte	0xb
 982 01f8 E1       		.byte	0xe1
 983 01f9 19       		.byte	0x19
 984 01fa 00010000 		.4byte	0x100
 985 01fe 1D       		.byte	0x1d
 986 01ff 07       		.uleb128 0x7
 987 0200 04070000 		.4byte	.LASF40
 988 0204 0B       		.byte	0xb
 989 0205 E6       		.byte	0xe6
 990 0206 19       		.byte	0x19
 991 0207 18010000 		.4byte	0x118
 992 020b 1E       		.byte	0x1e
 993 020c 07       		.uleb128 0x7
 994 020d 58050000 		.4byte	.LASF41
 995 0211 0B       		.byte	0xb
 996 0212 EC       		.byte	0xec
 997 0213 19       		.byte	0x19
 998 0214 24010000 		.4byte	0x124
 999 0218 1F       		.byte	0x1f
 1000 0219 07       		.uleb128 0x7
 1001 021a 3B030000 		.4byte	.LASF42
 1002 021e 0B       		.byte	0xb
 1003 021f F3       		.byte	0xf3
 1004 0220 19       		.byte	0x19
 1005 0221 6C010000 		.4byte	0x16c
 1006 0225 20       		.byte	0x20
 1007 0226 08       		.uleb128 0x8
 1008 0227 705F7500 		.ascii	"p_u\000"
 1009 022b 0B       		.byte	0xb
 1010 022c 3101     		.2byte	0x131
 1011 022e 19       		.byte	0x19
 1012 022f AE060000 		.4byte	0x6ae
 1013 0233 24       		.byte	0x24
 1014 0234 09       		.uleb128 0x9
 1015 0235 31040000 		.4byte	.LASF43
 1016 0239 0B       		.byte	0xb
 1017 023a 3601     		.2byte	0x136
 1018 023c 19       		.byte	0x19
 1019 023d A9020000 		.4byte	0x2a9
 1020 0241 28       		.byte	0x28
 1021 0242 09       		.uleb128 0x9
 1022 0243 52030000 		.4byte	.LASF44
 1023 0247 0B       		.byte	0xb
 1024 0248 3C01     		.2byte	0x13c
 1025 024a 19       		.byte	0x19
 1026 024b D0020000 		.4byte	0x2d0
ARM GAS  C:\Users\USER\AppData\Local\Temp\ccE3RbfQ.s 			page 19


 1027 024f 2C       		.byte	0x2c
 1028 0250 09       		.uleb128 0x9
 1029 0251 E0060000 		.4byte	.LASF45
 1030 0255 0B       		.byte	0xb
 1031 0256 4001     		.2byte	0x140
 1032 0258 19       		.byte	0x19
 1033 0259 3C010000 		.4byte	0x13c
 1034 025d 34       		.byte	0x34
 1035 025e 09       		.uleb128 0x9
 1036 025f E5050000 		.4byte	.LASF46
 1037 0263 0B       		.byte	0xb
 1038 0264 4601     		.2byte	0x146
 1039 0266 19       		.byte	0x19
 1040 0267 48010000 		.4byte	0x148
 1041 026b 38       		.byte	0x38
 1042 026c 09       		.uleb128 0x9
 1043 026d 3C050000 		.4byte	.LASF47
 1044 0271 0B       		.byte	0xb
 1045 0272 4D01     		.2byte	0x14d
 1046 0274 1A       		.byte	0x1a
 1047 0275 7C070000 		.4byte	0x77c
 1048 0279 3C       		.byte	0x3c
 1049 027a 09       		.uleb128 0x9
 1050 027b 68060000 		.4byte	.LASF48
 1051 027f 0B       		.byte	0xb
 1052 0280 5101     		.2byte	0x151
 1053 0282 19       		.byte	0x19
 1054 0283 30010000 		.4byte	0x130
 1055 0287 40       		.byte	0x40
 1056 0288 09       		.uleb128 0x9
 1057 0289 2E010000 		.4byte	.LASF49
 1058 028d 0B       		.byte	0xb
 1059 028e 5801     		.2byte	0x158
 1060 0290 1A       		.byte	0x1a
 1061 0291 90030000 		.4byte	0x390
 1062 0295 44       		.byte	0x44
 1063 0296 00       		.byte	0
 1064 0297 03       		.uleb128 0x3
 1065 0298 67070000 		.4byte	.LASF50
 1066 029c 0A       		.byte	0xa
 1067 029d 44       		.byte	0x44
 1068 029e 14       		.byte	0x14
 1069 029f A3020000 		.4byte	0x2a3
 1070 02a3 0A       		.uleb128 0xa
 1071 02a4 04       		.byte	0x4
 1072 02a5 71010000 		.4byte	0x171
 1073 02a9 03       		.uleb128 0x3
 1074 02aa 07040000 		.4byte	.LASF51
 1075 02ae 0A       		.byte	0xa
 1076 02af 49       		.byte	0x49
 1077 02b0 20       		.byte	0x20
 1078 02b1 B5020000 		.4byte	0x2b5
 1079 02b5 06       		.uleb128 0x6
 1080 02b6 0D060000 		.4byte	.LASF53
 1081 02ba 04       		.byte	0x4
 1082 02bb 0B       		.byte	0xb
 1083 02bc B0       		.byte	0xb0
ARM GAS  C:\Users\USER\AppData\Local\Temp\ccE3RbfQ.s 			page 20


 1084 02bd 08       		.byte	0x8
 1085 02be D0020000 		.4byte	0x2d0
 1086 02c2 07       		.uleb128 0x7
 1087 02c3 74050000 		.4byte	.LASF31
 1088 02c7 0B       		.byte	0xb
 1089 02c8 B1       		.byte	0xb1
 1090 02c9 1A       		.byte	0x1a
 1091 02ca A3020000 		.4byte	0x2a3
 1092 02ce 00       		.byte	0
 1093 02cf 00       		.byte	0
 1094 02d0 03       		.uleb128 0x3
 1095 02d1 AA050000 		.4byte	.LASF54
 1096 02d5 0A       		.byte	0xa
 1097 02d6 50       		.byte	0x50
 1098 02d7 21       		.byte	0x21
 1099 02d8 DC020000 		.4byte	0x2dc
 1100 02dc 06       		.uleb128 0x6
 1101 02dd D2000000 		.4byte	.LASF55
 1102 02e1 08       		.byte	0x8
 1103 02e2 0B       		.byte	0xb
 1104 02e3 B7       		.byte	0xb7
 1105 02e4 08       		.byte	0x8
 1106 02e5 04030000 		.4byte	0x304
 1107 02e9 07       		.uleb128 0x7
 1108 02ea 74050000 		.4byte	.LASF31
 1109 02ee 0B       		.byte	0xb
 1110 02ef B8       		.byte	0xb8
 1111 02f0 1A       		.byte	0x1a
 1112 02f1 A3020000 		.4byte	0x2a3
 1113 02f5 00       		.byte	0
 1114 02f6 07       		.uleb128 0x7
 1115 02f7 07050000 		.4byte	.LASF32
 1116 02fb 0B       		.byte	0xb
 1117 02fc B9       		.byte	0xb9
 1118 02fd 1A       		.byte	0x1a
 1119 02fe A3020000 		.4byte	0x2a3
 1120 0302 04       		.byte	0x4
 1121 0303 00       		.byte	0
 1122 0304 03       		.uleb128 0x3
 1123 0305 0D000000 		.4byte	.LASF56
 1124 0309 0A       		.byte	0xa
 1125 030a 57       		.byte	0x57
 1126 030b 1E       		.byte	0x1e
 1127 030c 10030000 		.4byte	0x310
 1128 0310 0B       		.uleb128 0xb
 1129 0311 D8030000 		.4byte	.LASF57
 1130 0315 1C       		.byte	0x1c
 1131 0316 0B       		.byte	0xb
 1132 0317 9001     		.2byte	0x190
 1133 0319 08       		.byte	0x8
 1134 031a 73030000 		.4byte	0x373
 1135 031e 09       		.uleb128 0x9
 1136 031f 05060000 		.4byte	.LASF58
 1137 0323 0B       		.byte	0xb
 1138 0324 9101     		.2byte	0x191
 1139 0326 19       		.byte	0x19
 1140 0327 D0020000 		.4byte	0x2d0
ARM GAS  C:\Users\USER\AppData\Local\Temp\ccE3RbfQ.s 			page 21


 1141 032b 00       		.byte	0
 1142 032c 09       		.uleb128 0x9
 1143 032d 2A040000 		.4byte	.LASF59
 1144 0331 0B       		.byte	0xb
 1145 0332 9201     		.2byte	0x192
 1146 0334 19       		.byte	0x19
 1147 0335 30010000 		.4byte	0x130
 1148 0339 08       		.byte	0x8
 1149 033a 09       		.uleb128 0x9
 1150 033b 93040000 		.4byte	.LASF60
 1151 033f 0B       		.byte	0xb
 1152 0340 9401     		.2byte	0x194
 1153 0342 19       		.byte	0x19
 1154 0343 0F050000 		.4byte	0x50f
 1155 0347 0C       		.byte	0xc
 1156 0348 09       		.uleb128 0x9
 1157 0349 97010000 		.4byte	.LASF61
 1158 034d 0B       		.byte	0xb
 1159 034e 9701     		.2byte	0x197
 1160 0350 1A       		.byte	0x1a
 1161 0351 A3020000 		.4byte	0x2a3
 1162 0355 10       		.byte	0x10
 1163 0356 09       		.uleb128 0x9
 1164 0357 C9040000 		.4byte	.LASF62
 1165 035b 0B       		.byte	0xb
 1166 035c 9801     		.2byte	0x198
 1167 035e 1A       		.byte	0x1a
 1168 035f A3020000 		.4byte	0x2a3
 1169 0363 14       		.byte	0x14
 1170 0364 09       		.uleb128 0x9
 1171 0365 BF040000 		.4byte	.LASF63
 1172 0369 0B       		.byte	0xb
 1173 036a 9B01     		.2byte	0x19b
 1174 036c 1A       		.byte	0x1a
 1175 036d A3020000 		.4byte	0x2a3
 1176 0371 18       		.byte	0x18
 1177 0372 00       		.byte	0
 1178 0373 03       		.uleb128 0x3
 1179 0374 73060000 		.4byte	.LASF64
 1180 0378 0A       		.byte	0xa
 1181 0379 5C       		.byte	0x5c
 1182 037a 10       		.byte	0x10
 1183 037b 7F030000 		.4byte	0x37f
 1184 037f 0A       		.uleb128 0xa
 1185 0380 04       		.byte	0x4
 1186 0381 85030000 		.4byte	0x385
 1187 0385 0C       		.uleb128 0xc
 1188 0386 90030000 		.4byte	0x390
 1189 038a 0D       		.uleb128 0xd
 1190 038b 90030000 		.4byte	0x390
 1191 038f 00       		.byte	0
 1192 0390 0E       		.uleb128 0xe
 1193 0391 04       		.byte	0x4
 1194 0392 03       		.uleb128 0x3
 1195 0393 F7040000 		.4byte	.LASF65
 1196 0397 0A       		.byte	0xa
 1197 0398 61       		.byte	0x61
ARM GAS  C:\Users\USER\AppData\Local\Temp\ccE3RbfQ.s 			page 22


 1198 0399 21       		.byte	0x21
 1199 039a 9E030000 		.4byte	0x39e
 1200 039e 0B       		.uleb128 0xb
 1201 039f BA050000 		.4byte	.LASF66
 1202 03a3 14       		.byte	0x14
 1203 03a4 0B       		.byte	0xb
 1204 03a5 6B01     		.2byte	0x16b
 1205 03a7 08       		.byte	0x8
 1206 03a8 F3030000 		.4byte	0x3f3
 1207 03ac 09       		.uleb128 0x9
 1208 03ad 1A030000 		.4byte	.LASF67
 1209 03b1 0B       		.byte	0xb
 1210 03b2 6C01     		.2byte	0x16c
 1211 03b4 1A       		.byte	0x1a
 1212 03b5 99070000 		.4byte	0x799
 1213 03b9 00       		.byte	0
 1214 03ba 09       		.uleb128 0x9
 1215 03bb B4010000 		.4byte	.LASF68
 1216 03bf 0B       		.byte	0xb
 1217 03c0 6D01     		.2byte	0x16d
 1218 03c2 1A       		.byte	0x1a
 1219 03c3 99070000 		.4byte	0x799
 1220 03c7 04       		.byte	0x4
 1221 03c8 09       		.uleb128 0x9
 1222 03c9 49030000 		.4byte	.LASF69
 1223 03cd 0B       		.byte	0xb
 1224 03ce 6E01     		.2byte	0x16e
 1225 03d0 19       		.byte	0x19
 1226 03d1 60010000 		.4byte	0x160
 1227 03d5 08       		.byte	0x8
 1228 03d6 09       		.uleb128 0x9
 1229 03d7 D2070000 		.4byte	.LASF70
 1230 03db 0B       		.byte	0xb
 1231 03dc 6F01     		.2byte	0x16f
 1232 03de 19       		.byte	0x19
 1233 03df 73030000 		.4byte	0x373
 1234 03e3 0C       		.byte	0xc
 1235 03e4 09       		.uleb128 0x9
 1236 03e5 E6060000 		.4byte	.LASF71
 1237 03e9 0B       		.byte	0xb
 1238 03ea 7101     		.2byte	0x171
 1239 03ec 1A       		.byte	0x1a
 1240 03ed 90030000 		.4byte	0x390
 1241 03f1 10       		.byte	0x10
 1242 03f2 00       		.byte	0
 1243 03f3 03       		.uleb128 0x3
 1244 03f4 AF000000 		.4byte	.LASF72
 1245 03f8 0A       		.byte	0xa
 1246 03f9 66       		.byte	0x66
 1247 03fa 28       		.byte	0x28
 1248 03fb FF030000 		.4byte	0x3ff
 1249 03ff 0B       		.uleb128 0xb
 1250 0400 43040000 		.4byte	.LASF73
 1251 0404 10       		.byte	0x10
 1252 0405 0B       		.byte	0xb
 1253 0406 7B01     		.2byte	0x17b
 1254 0408 08       		.byte	0x8
ARM GAS  C:\Users\USER\AppData\Local\Temp\ccE3RbfQ.s 			page 23


 1255 0409 46040000 		.4byte	0x446
 1256 040d 09       		.uleb128 0x9
 1257 040e 1A030000 		.4byte	.LASF67
 1258 0412 0B       		.byte	0xb
 1259 0413 7C01     		.2byte	0x17c
 1260 0415 1A       		.byte	0x1a
 1261 0416 99070000 		.4byte	0x799
 1262 041a 00       		.byte	0
 1263 041b 09       		.uleb128 0x9
 1264 041c B4010000 		.4byte	.LASF68
 1265 0420 0B       		.byte	0xb
 1266 0421 7E01     		.2byte	0x17e
 1267 0423 1A       		.byte	0x1a
 1268 0424 99070000 		.4byte	0x799
 1269 0428 04       		.byte	0x4
 1270 0429 09       		.uleb128 0x9
 1271 042a 49030000 		.4byte	.LASF69
 1272 042e 0B       		.byte	0xb
 1273 042f 8001     		.2byte	0x180
 1274 0431 19       		.byte	0x19
 1275 0432 60010000 		.4byte	0x160
 1276 0436 08       		.byte	0x8
 1277 0437 09       		.uleb128 0x9
 1278 0438 8D070000 		.4byte	.LASF74
 1279 043c 0B       		.byte	0xb
 1280 043d 8201     		.2byte	0x182
 1281 043f 19       		.byte	0x19
 1282 0440 6C010000 		.4byte	0x16c
 1283 0444 0C       		.byte	0xc
 1284 0445 00       		.byte	0
 1285 0446 03       		.uleb128 0x3
 1286 0447 47000000 		.4byte	.LASF75
 1287 044b 0A       		.byte	0xa
 1288 044c 6B       		.byte	0x6b
 1289 044d 20       		.byte	0x20
 1290 044e 52040000 		.4byte	0x452
 1291 0452 0B       		.uleb128 0xb
 1292 0453 16050000 		.4byte	.LASF76
 1293 0457 04       		.byte	0x4
 1294 0458 0B       		.byte	0xb
 1295 0459 A201     		.2byte	0x1a2
 1296 045b 08       		.byte	0x8
 1297 045c 6F040000 		.4byte	0x46f
 1298 0460 09       		.uleb128 0x9
 1299 0461 95060000 		.4byte	.LASF77
 1300 0465 0B       		.byte	0xb
 1301 0466 AA01     		.2byte	0x1aa
 1302 0468 24       		.byte	0x24
 1303 0469 88070000 		.4byte	0x788
 1304 046d 00       		.byte	0
 1305 046e 00       		.byte	0
 1306 046f 03       		.uleb128 0x3
 1307 0470 A5030000 		.4byte	.LASF78
 1308 0474 0A       		.byte	0xa
 1309 0475 70       		.byte	0x70
 1310 0476 1A       		.byte	0x1a
 1311 0477 7B040000 		.4byte	0x47b
ARM GAS  C:\Users\USER\AppData\Local\Temp\ccE3RbfQ.s 			page 24


 1312 047b 0F       		.uleb128 0xf
 1313 047c 61010000 		.4byte	.LASF79
 1314 0480 5802     		.2byte	0x258
 1315 0482 0B       		.byte	0xb
 1316 0483 C201     		.2byte	0x1c2
 1317 0485 08       		.byte	0x8
 1318 0486 DE040000 		.4byte	0x4de
 1319 048a 09       		.uleb128 0x9
 1320 048b 42070000 		.4byte	.LASF80
 1321 048f 0B       		.byte	0xb
 1322 0490 C601     		.2byte	0x1c6
 1323 0492 19       		.byte	0x19
 1324 0493 04030000 		.4byte	0x304
 1325 0497 00       		.byte	0
 1326 0498 09       		.uleb128 0x9
 1327 0499 3E010000 		.4byte	.LASF81
 1328 049d 0B       		.byte	0xb
 1329 049e CA01     		.2byte	0x1ca
 1330 04a0 19       		.byte	0x19
 1331 04a1 F3030000 		.4byte	0x3f3
 1332 04a5 1C       		.byte	0x1c
 1333 04a6 08       		.uleb128 0x8
 1334 04a7 64626700 		.ascii	"dbg\000"
 1335 04ab 0B       		.byte	0xb
 1336 04ac CE01     		.2byte	0x1ce
 1337 04ae 19       		.byte	0x19
 1338 04af 46040000 		.4byte	0x446
 1339 04b3 2C       		.byte	0x2c
 1340 04b4 09       		.uleb128 0x9
 1341 04b5 A4000000 		.4byte	.LASF82
 1342 04b9 0B       		.byte	0xb
 1343 04ba D201     		.2byte	0x1d2
 1344 04bc 19       		.byte	0x19
 1345 04bd 71010000 		.4byte	0x171
 1346 04c1 30       		.byte	0x30
 1347 04c2 08       		.uleb128 0x8
 1348 04c3 746D00   		.ascii	"tm\000"
 1349 04c6 0B       		.byte	0xb
 1350 04c7 D701     		.2byte	0x1d7
 1351 04c9 19       		.byte	0x19
 1352 04ca A2060000 		.4byte	0x6a2
 1353 04ce 78       		.byte	0x78
 1354 04cf 09       		.uleb128 0x9
 1355 04d0 F8020000 		.4byte	.LASF83
 1356 04d4 0B       		.byte	0xb
 1357 04d5 E301     		.2byte	0x1e3
 1358 04d7 03       		.byte	0x3
 1359 04d8 9F070000 		.4byte	0x79f
 1360 04dc 80       		.byte	0x80
 1361 04dd 00       		.byte	0
 1362 04de 10       		.uleb128 0x10
 1363 04df C5000000 		.4byte	.LASF84
 1364 04e3 0C       		.byte	0xc
 1365 04e4 A706     		.2byte	0x6a7
 1366 04e6 19       		.byte	0x19
 1367 04e7 D7000000 		.4byte	0xd7
 1368 04eb 11       		.uleb128 0x11
ARM GAS  C:\Users\USER\AppData\Local\Temp\ccE3RbfQ.s 			page 25


 1369 04ec 2B030000 		.4byte	.LASF85
 1370 04f0 0D       		.byte	0xd
 1371 04f1 4C       		.byte	0x4c
 1372 04f2 11       		.byte	0x11
 1373 04f3 DC000000 		.4byte	0xdc
 1374 04f7 03       		.uleb128 0x3
 1375 04f8 AB010000 		.4byte	.LASF86
 1376 04fc 0E       		.byte	0xe
 1377 04fd 65       		.byte	0x65
 1378 04fe 0F       		.byte	0xf
 1379 04ff 90030000 		.4byte	0x390
 1380 0503 03       		.uleb128 0x3
 1381 0504 FC030000 		.4byte	.LASF87
 1382 0508 0E       		.byte	0xe
 1383 0509 6D       		.byte	0x6d
 1384 050a 12       		.byte	0x12
 1385 050b E8000000 		.4byte	0xe8
 1386 050f 06       		.uleb128 0x6
 1387 0510 7A030000 		.4byte	.LASF88
 1388 0514 04       		.byte	0x4
 1389 0515 0E       		.byte	0xe
 1390 0516 89       		.byte	0x89
 1391 0517 08       		.byte	0x8
 1392 0518 2A050000 		.4byte	0x52a
 1393 051c 12       		.uleb128 0x12
 1394 051d 72313300 		.ascii	"r13\000"
 1395 0521 0E       		.byte	0xe
 1396 0522 8A       		.byte	0x8a
 1397 0523 17       		.byte	0x17
 1398 0524 85060000 		.4byte	0x685
 1399 0528 00       		.byte	0
 1400 0529 00       		.byte	0
 1401 052a 06       		.uleb128 0x6
 1402 052b 3B000000 		.4byte	.LASF89
 1403 052f 64       		.byte	0x64
 1404 0530 05       		.byte	0x5
 1405 0531 F4       		.byte	0xf4
 1406 0532 08       		.byte	0x8
 1407 0533 85060000 		.4byte	0x685
 1408 0537 12       		.uleb128 0x12
 1409 0538 73313600 		.ascii	"s16\000"
 1410 053c 05       		.byte	0x5
 1411 053d F6       		.byte	0xf6
 1412 053e 11       		.byte	0x11
 1413 053f F7040000 		.4byte	0x4f7
 1414 0543 00       		.byte	0
 1415 0544 12       		.uleb128 0x12
 1416 0545 73313700 		.ascii	"s17\000"
 1417 0549 05       		.byte	0x5
 1418 054a F7       		.byte	0xf7
 1419 054b 11       		.byte	0x11
 1420 054c F7040000 		.4byte	0x4f7
 1421 0550 04       		.byte	0x4
 1422 0551 12       		.uleb128 0x12
 1423 0552 73313800 		.ascii	"s18\000"
 1424 0556 05       		.byte	0x5
 1425 0557 F8       		.byte	0xf8
ARM GAS  C:\Users\USER\AppData\Local\Temp\ccE3RbfQ.s 			page 26


 1426 0558 11       		.byte	0x11
 1427 0559 F7040000 		.4byte	0x4f7
 1428 055d 08       		.byte	0x8
 1429 055e 12       		.uleb128 0x12
 1430 055f 73313900 		.ascii	"s19\000"
 1431 0563 05       		.byte	0x5
 1432 0564 F9       		.byte	0xf9
 1433 0565 11       		.byte	0x11
 1434 0566 F7040000 		.4byte	0x4f7
 1435 056a 0C       		.byte	0xc
 1436 056b 12       		.uleb128 0x12
 1437 056c 73323000 		.ascii	"s20\000"
 1438 0570 05       		.byte	0x5
 1439 0571 FA       		.byte	0xfa
 1440 0572 11       		.byte	0x11
 1441 0573 F7040000 		.4byte	0x4f7
 1442 0577 10       		.byte	0x10
 1443 0578 12       		.uleb128 0x12
 1444 0579 73323100 		.ascii	"s21\000"
 1445 057d 05       		.byte	0x5
 1446 057e FB       		.byte	0xfb
 1447 057f 11       		.byte	0x11
 1448 0580 F7040000 		.4byte	0x4f7
 1449 0584 14       		.byte	0x14
 1450 0585 12       		.uleb128 0x12
 1451 0586 73323200 		.ascii	"s22\000"
 1452 058a 05       		.byte	0x5
 1453 058b FC       		.byte	0xfc
 1454 058c 11       		.byte	0x11
 1455 058d F7040000 		.4byte	0x4f7
 1456 0591 18       		.byte	0x18
 1457 0592 12       		.uleb128 0x12
 1458 0593 73323300 		.ascii	"s23\000"
 1459 0597 05       		.byte	0x5
 1460 0598 FD       		.byte	0xfd
 1461 0599 11       		.byte	0x11
 1462 059a F7040000 		.4byte	0x4f7
 1463 059e 1C       		.byte	0x1c
 1464 059f 12       		.uleb128 0x12
 1465 05a0 73323400 		.ascii	"s24\000"
 1466 05a4 05       		.byte	0x5
 1467 05a5 FE       		.byte	0xfe
 1468 05a6 11       		.byte	0x11
 1469 05a7 F7040000 		.4byte	0x4f7
 1470 05ab 20       		.byte	0x20
 1471 05ac 12       		.uleb128 0x12
 1472 05ad 73323500 		.ascii	"s25\000"
 1473 05b1 05       		.byte	0x5
 1474 05b2 FF       		.byte	0xff
 1475 05b3 11       		.byte	0x11
 1476 05b4 F7040000 		.4byte	0x4f7
 1477 05b8 24       		.byte	0x24
 1478 05b9 08       		.uleb128 0x8
 1479 05ba 73323600 		.ascii	"s26\000"
 1480 05be 05       		.byte	0x5
 1481 05bf 0001     		.2byte	0x100
 1482 05c1 11       		.byte	0x11
ARM GAS  C:\Users\USER\AppData\Local\Temp\ccE3RbfQ.s 			page 27


 1483 05c2 F7040000 		.4byte	0x4f7
 1484 05c6 28       		.byte	0x28
 1485 05c7 08       		.uleb128 0x8
 1486 05c8 73323700 		.ascii	"s27\000"
 1487 05cc 05       		.byte	0x5
 1488 05cd 0101     		.2byte	0x101
 1489 05cf 11       		.byte	0x11
 1490 05d0 F7040000 		.4byte	0x4f7
 1491 05d4 2C       		.byte	0x2c
 1492 05d5 08       		.uleb128 0x8
 1493 05d6 73323800 		.ascii	"s28\000"
 1494 05da 05       		.byte	0x5
 1495 05db 0201     		.2byte	0x102
 1496 05dd 11       		.byte	0x11
 1497 05de F7040000 		.4byte	0x4f7
 1498 05e2 30       		.byte	0x30
 1499 05e3 08       		.uleb128 0x8
 1500 05e4 73323900 		.ascii	"s29\000"
 1501 05e8 05       		.byte	0x5
 1502 05e9 0301     		.2byte	0x103
 1503 05eb 11       		.byte	0x11
 1504 05ec F7040000 		.4byte	0x4f7
 1505 05f0 34       		.byte	0x34
 1506 05f1 08       		.uleb128 0x8
 1507 05f2 73333000 		.ascii	"s30\000"
 1508 05f6 05       		.byte	0x5
 1509 05f7 0401     		.2byte	0x104
 1510 05f9 11       		.byte	0x11
 1511 05fa F7040000 		.4byte	0x4f7
 1512 05fe 38       		.byte	0x38
 1513 05ff 08       		.uleb128 0x8
 1514 0600 73333100 		.ascii	"s31\000"
 1515 0604 05       		.byte	0x5
 1516 0605 0501     		.2byte	0x105
 1517 0607 11       		.byte	0x11
 1518 0608 F7040000 		.4byte	0x4f7
 1519 060c 3C       		.byte	0x3c
 1520 060d 08       		.uleb128 0x8
 1521 060e 723400   		.ascii	"r4\000"
 1522 0611 05       		.byte	0x5
 1523 0612 0701     		.2byte	0x107
 1524 0614 11       		.byte	0x11
 1525 0615 F7040000 		.4byte	0x4f7
 1526 0619 40       		.byte	0x40
 1527 061a 08       		.uleb128 0x8
 1528 061b 723500   		.ascii	"r5\000"
 1529 061e 05       		.byte	0x5
 1530 061f 0801     		.2byte	0x108
 1531 0621 11       		.byte	0x11
 1532 0622 F7040000 		.4byte	0x4f7
 1533 0626 44       		.byte	0x44
 1534 0627 08       		.uleb128 0x8
 1535 0628 723600   		.ascii	"r6\000"
 1536 062b 05       		.byte	0x5
 1537 062c 0901     		.2byte	0x109
 1538 062e 11       		.byte	0x11
 1539 062f F7040000 		.4byte	0x4f7
ARM GAS  C:\Users\USER\AppData\Local\Temp\ccE3RbfQ.s 			page 28


 1540 0633 48       		.byte	0x48
 1541 0634 08       		.uleb128 0x8
 1542 0635 723700   		.ascii	"r7\000"
 1543 0638 05       		.byte	0x5
 1544 0639 0A01     		.2byte	0x10a
 1545 063b 11       		.byte	0x11
 1546 063c F7040000 		.4byte	0x4f7
 1547 0640 4C       		.byte	0x4c
 1548 0641 08       		.uleb128 0x8
 1549 0642 723800   		.ascii	"r8\000"
 1550 0645 05       		.byte	0x5
 1551 0646 0B01     		.2byte	0x10b
 1552 0648 11       		.byte	0x11
 1553 0649 F7040000 		.4byte	0x4f7
 1554 064d 50       		.byte	0x50
 1555 064e 08       		.uleb128 0x8
 1556 064f 723900   		.ascii	"r9\000"
 1557 0652 05       		.byte	0x5
 1558 0653 0C01     		.2byte	0x10c
 1559 0655 11       		.byte	0x11
 1560 0656 F7040000 		.4byte	0x4f7
 1561 065a 54       		.byte	0x54
 1562 065b 08       		.uleb128 0x8
 1563 065c 72313000 		.ascii	"r10\000"
 1564 0660 05       		.byte	0x5
 1565 0661 0D01     		.2byte	0x10d
 1566 0663 11       		.byte	0x11
 1567 0664 F7040000 		.4byte	0x4f7
 1568 0668 58       		.byte	0x58
 1569 0669 08       		.uleb128 0x8
 1570 066a 72313100 		.ascii	"r11\000"
 1571 066e 05       		.byte	0x5
 1572 066f 0E01     		.2byte	0x10e
 1573 0671 11       		.byte	0x11
 1574 0672 F7040000 		.4byte	0x4f7
 1575 0676 5C       		.byte	0x5c
 1576 0677 08       		.uleb128 0x8
 1577 0678 6C7200   		.ascii	"lr\000"
 1578 067b 05       		.byte	0x5
 1579 067c 0F01     		.2byte	0x10f
 1580 067e 11       		.byte	0x11
 1581 067f F7040000 		.4byte	0x4f7
 1582 0683 60       		.byte	0x60
 1583 0684 00       		.byte	0
 1584 0685 0A       		.uleb128 0xa
 1585 0686 04       		.byte	0x4
 1586 0687 2A050000 		.4byte	0x52a
 1587 068b 13       		.uleb128 0x13
 1588 068c 04       		.byte	0x4
 1589 068d 0F       		.byte	0xf
 1590 068e 38       		.byte	0x38
 1591 068f 09       		.byte	0x9
 1592 0690 A2060000 		.4byte	0x6a2
 1593 0694 07       		.uleb128 0x7
 1594 0695 9F060000 		.4byte	.LASF90
 1595 0699 0F       		.byte	0xf
 1596 069a 3C       		.byte	0x3c
ARM GAS  C:\Users\USER\AppData\Local\Temp\ccE3RbfQ.s 			page 29


 1597 069b 19       		.byte	0x19
 1598 069c F4000000 		.4byte	0xf4
 1599 06a0 00       		.byte	0
 1600 06a1 00       		.byte	0
 1601 06a2 03       		.uleb128 0x3
 1602 06a3 AE040000 		.4byte	.LASF91
 1603 06a7 0F       		.byte	0xf
 1604 06a8 3D       		.byte	0x3d
 1605 06a9 03       		.byte	0x3
 1606 06aa 8B060000 		.4byte	0x68b
 1607 06ae 14       		.uleb128 0x14
 1608 06af 04       		.byte	0x4
 1609 06b0 0B       		.byte	0xb
 1610 06b1 FA       		.byte	0xfa
 1611 06b2 03       		.byte	0x3
 1612 06b3 13070000 		.4byte	0x713
 1613 06b7 15       		.uleb128 0x15
 1614 06b8 21000000 		.4byte	.LASF92
 1615 06bc 0B       		.byte	0xb
 1616 06bd 0101     		.2byte	0x101
 1617 06bf 19       		.byte	0x19
 1618 06c0 3C010000 		.4byte	0x13c
 1619 06c4 15       		.uleb128 0x15
 1620 06c5 9B000000 		.4byte	.LASF93
 1621 06c9 0B       		.byte	0xb
 1622 06ca 0801     		.2byte	0x108
 1623 06cc 19       		.byte	0x19
 1624 06cd 3C010000 		.4byte	0x13c
 1625 06d1 15       		.uleb128 0x15
 1626 06d2 7A070000 		.4byte	.LASF94
 1627 06d6 0B       		.byte	0xb
 1628 06d7 0F01     		.2byte	0x10f
 1629 06d9 1A       		.byte	0x1a
 1630 06da 90030000 		.4byte	0x390
 1631 06de 15       		.uleb128 0x15
 1632 06df 5B010000 		.4byte	.LASF95
 1633 06e3 0B       		.byte	0xb
 1634 06e4 1601     		.2byte	0x116
 1635 06e6 1A       		.byte	0x1a
 1636 06e7 13070000 		.4byte	0x713
 1637 06eb 15       		.uleb128 0x15
 1638 06ec 42030000 		.4byte	.LASF96
 1639 06f0 0B       		.byte	0xb
 1640 06f1 1E01     		.2byte	0x11e
 1641 06f3 1A       		.byte	0x1a
 1642 06f4 41070000 		.4byte	0x741
 1643 06f8 15       		.uleb128 0x15
 1644 06f9 3C060000 		.4byte	.LASF97
 1645 06fd 0B       		.byte	0xb
 1646 06fe 2701     		.2byte	0x127
 1647 0700 1A       		.byte	0x1a
 1648 0701 7C070000 		.4byte	0x77c
 1649 0705 15       		.uleb128 0x15
 1650 0706 6D050000 		.4byte	.LASF98
 1651 070a 0B       		.byte	0xb
 1652 070b 2F01     		.2byte	0x12f
 1653 070d 19       		.byte	0x19
ARM GAS  C:\Users\USER\AppData\Local\Temp\ccE3RbfQ.s 			page 30


 1654 070e 48010000 		.4byte	0x148
 1655 0712 00       		.byte	0
 1656 0713 0A       		.uleb128 0xa
 1657 0714 04       		.byte	0x4
 1658 0715 97020000 		.4byte	0x297
 1659 0719 06       		.uleb128 0x6
 1660 071a D8050000 		.4byte	.LASF99
 1661 071e 0C       		.byte	0xc
 1662 071f 10       		.byte	0x10
 1663 0720 34       		.byte	0x34
 1664 0721 10       		.byte	0x10
 1665 0722 41070000 		.4byte	0x741
 1666 0726 07       		.uleb128 0x7
 1667 0727 8F010000 		.4byte	.LASF100
 1668 072b 10       		.byte	0x10
 1669 072c 35       		.byte	0x35
 1670 072d 19       		.byte	0x19
 1671 072e D0020000 		.4byte	0x2d0
 1672 0732 00       		.byte	0
 1673 0733 07       		.uleb128 0x7
 1674 0734 74030000 		.4byte	.LASF101
 1675 0738 10       		.byte	0x10
 1676 0739 37       		.byte	0x37
 1677 073a 19       		.byte	0x19
 1678 073b 54010000 		.4byte	0x154
 1679 073f 08       		.byte	0x8
 1680 0740 00       		.byte	0
 1681 0741 0A       		.uleb128 0xa
 1682 0742 04       		.byte	0x4
 1683 0743 19070000 		.4byte	0x719
 1684 0747 06       		.uleb128 0x6
 1685 0748 A6060000 		.4byte	.LASF102
 1686 074c 10       		.byte	0x10
 1687 074d 11       		.byte	0x11
 1688 074e 39       		.byte	0x39
 1689 074f 08       		.byte	0x8
 1690 0750 7C070000 		.4byte	0x77c
 1691 0754 07       		.uleb128 0x7
 1692 0755 36010000 		.4byte	.LASF103
 1693 0759 11       		.byte	0x11
 1694 075a 3A       		.byte	0x3a
 1695 075b 19       		.byte	0x19
 1696 075c D0020000 		.4byte	0x2d0
 1697 0760 00       		.byte	0
 1698 0761 07       		.uleb128 0x7
 1699 0762 BC070000 		.4byte	.LASF104
 1700 0766 11       		.byte	0x11
 1701 0767 3C       		.byte	0x3c
 1702 0768 1A       		.byte	0x1a
 1703 0769 A3020000 		.4byte	0x2a3
 1704 076d 08       		.byte	0x8
 1705 076e 07       		.uleb128 0x7
 1706 076f 57060000 		.4byte	.LASF105
 1707 0773 11       		.byte	0x11
 1708 0774 3E       		.byte	0x3e
 1709 0775 1A       		.byte	0x1a
 1710 0776 E8080000 		.4byte	0x8e8
ARM GAS  C:\Users\USER\AppData\Local\Temp\ccE3RbfQ.s 			page 31


 1711 077a 0C       		.byte	0xc
 1712 077b 00       		.byte	0
 1713 077c 0A       		.uleb128 0xa
 1714 077d 04       		.byte	0x4
 1715 077e 47070000 		.4byte	0x747
 1716 0782 0A       		.uleb128 0xa
 1717 0783 04       		.byte	0x4
 1718 0784 94070000 		.4byte	0x794
 1719 0788 05       		.uleb128 0x5
 1720 0789 82070000 		.4byte	0x782
 1721 078d 04       		.uleb128 0x4
 1722 078e 01       		.byte	0x1
 1723 078f 08       		.byte	0x8
 1724 0790 37060000 		.4byte	.LASF106
 1725 0794 16       		.uleb128 0x16
 1726 0795 8D070000 		.4byte	0x78d
 1727 0799 0A       		.uleb128 0xa
 1728 079a 04       		.byte	0x4
 1729 079b 92030000 		.4byte	0x392
 1730 079f 17       		.uleb128 0x17
 1731 07a0 03050000 		.4byte	0x503
 1732 07a4 AF070000 		.4byte	0x7af
 1733 07a8 18       		.uleb128 0x18
 1734 07a9 38000000 		.4byte	0x38
 1735 07ad 3A       		.byte	0x3a
 1736 07ae 00       		.byte	0
 1737 07af 19       		.uleb128 0x19
 1738 07b0 636800   		.ascii	"ch\000"
 1739 07b3 0B       		.byte	0xb
 1740 07b4 0902     		.2byte	0x209
 1741 07b6 14       		.byte	0x14
 1742 07b7 6F040000 		.4byte	0x46f
 1743 07bb 13       		.uleb128 0x13
 1744 07bc 16       		.byte	0x16
 1745 07bd 12       		.byte	0x12
 1746 07be 34       		.byte	0x34
 1747 07bf 09       		.byte	0x9
 1748 07c0 AF080000 		.4byte	0x8af
 1749 07c4 07       		.uleb128 0x7
 1750 07c5 C4070000 		.4byte	.LASF107
 1751 07c9 12       		.byte	0x12
 1752 07ca 35       		.byte	0x35
 1753 07cb 0D       		.byte	0xd
 1754 07cc AF080000 		.4byte	0x8af
 1755 07d0 00       		.byte	0
 1756 07d1 07       		.uleb128 0x7
 1757 07d2 16040000 		.4byte	.LASF108
 1758 07d6 12       		.byte	0x12
 1759 07d7 36       		.byte	0x36
 1760 07d8 0D       		.byte	0xd
 1761 07d9 B3000000 		.4byte	0xb3
 1762 07dd 04       		.byte	0x4
 1763 07de 07       		.uleb128 0x7
 1764 07df 1D060000 		.4byte	.LASF109
 1765 07e3 12       		.byte	0x12
 1766 07e4 37       		.byte	0x37
 1767 07e5 0D       		.byte	0xd
ARM GAS  C:\Users\USER\AppData\Local\Temp\ccE3RbfQ.s 			page 32


 1768 07e6 B3000000 		.4byte	0xb3
 1769 07ea 05       		.byte	0x5
 1770 07eb 07       		.uleb128 0x7
 1771 07ec 62050000 		.4byte	.LASF110
 1772 07f0 12       		.byte	0x12
 1773 07f1 38       		.byte	0x38
 1774 07f2 0D       		.byte	0xd
 1775 07f3 BF000000 		.4byte	0xbf
 1776 07f7 06       		.byte	0x6
 1777 07f8 07       		.uleb128 0x7
 1778 07f9 EC040000 		.4byte	.LASF111
 1779 07fd 12       		.byte	0x12
 1780 07fe 39       		.byte	0x39
 1781 07ff 0D       		.byte	0xd
 1782 0800 B3000000 		.4byte	0xb3
 1783 0804 08       		.byte	0x8
 1784 0805 07       		.uleb128 0x7
 1785 0806 5A040000 		.4byte	.LASF112
 1786 080a 12       		.byte	0x12
 1787 080b 3A       		.byte	0x3a
 1788 080c 0D       		.byte	0xd
 1789 080d B3000000 		.4byte	0xb3
 1790 0811 09       		.byte	0x9
 1791 0812 07       		.uleb128 0x7
 1792 0813 8D000000 		.4byte	.LASF113
 1793 0817 12       		.byte	0x12
 1794 0818 3B       		.byte	0x3b
 1795 0819 0D       		.byte	0xd
 1796 081a B3000000 		.4byte	0xb3
 1797 081e 0A       		.byte	0xa
 1798 081f 07       		.uleb128 0x7
 1799 0820 F9050000 		.4byte	.LASF114
 1800 0824 12       		.byte	0x12
 1801 0825 3C       		.byte	0x3c
 1802 0826 0D       		.byte	0xd
 1803 0827 B3000000 		.4byte	0xb3
 1804 082b 0B       		.byte	0xb
 1805 082c 07       		.uleb128 0x7
 1806 082d ED060000 		.4byte	.LASF115
 1807 0831 12       		.byte	0x12
 1808 0832 3D       		.byte	0x3d
 1809 0833 0D       		.byte	0xd
 1810 0834 B3000000 		.4byte	0xb3
 1811 0838 0C       		.byte	0xc
 1812 0839 07       		.uleb128 0x7
 1813 083a CB050000 		.4byte	.LASF116
 1814 083e 12       		.byte	0x12
 1815 083f 3E       		.byte	0x3e
 1816 0840 0D       		.byte	0xd
 1817 0841 B3000000 		.4byte	0xb3
 1818 0845 0D       		.byte	0xd
 1819 0846 07       		.uleb128 0x7
 1820 0847 00000000 		.4byte	.LASF117
 1821 084b 12       		.byte	0x12
 1822 084c 3F       		.byte	0x3f
 1823 084d 0D       		.byte	0xd
 1824 084e B3000000 		.4byte	0xb3
ARM GAS  C:\Users\USER\AppData\Local\Temp\ccE3RbfQ.s 			page 33


 1825 0852 0E       		.byte	0xe
 1826 0853 07       		.uleb128 0x7
 1827 0854 7F040000 		.4byte	.LASF118
 1828 0858 12       		.byte	0x12
 1829 0859 40       		.byte	0x40
 1830 085a 0D       		.byte	0xd
 1831 085b B3000000 		.4byte	0xb3
 1832 085f 0F       		.byte	0xf
 1833 0860 07       		.uleb128 0x7
 1834 0861 11010000 		.4byte	.LASF119
 1835 0865 12       		.byte	0x12
 1836 0866 41       		.byte	0x41
 1837 0867 0D       		.byte	0xd
 1838 0868 B3000000 		.4byte	0xb3
 1839 086c 10       		.byte	0x10
 1840 086d 07       		.uleb128 0x7
 1841 086e EA000000 		.4byte	.LASF120
 1842 0872 12       		.byte	0x12
 1843 0873 43       		.byte	0x43
 1844 0874 0D       		.byte	0xd
 1845 0875 B3000000 		.4byte	0xb3
 1846 0879 11       		.byte	0x11
 1847 087a 07       		.uleb128 0x7
 1848 087b 21010000 		.4byte	.LASF121
 1849 087f 12       		.byte	0x12
 1850 0880 44       		.byte	0x44
 1851 0881 0D       		.byte	0xd
 1852 0882 B3000000 		.4byte	0xb3
 1853 0886 12       		.byte	0x12
 1854 0887 07       		.uleb128 0x7
 1855 0888 1E040000 		.4byte	.LASF122
 1856 088c 12       		.byte	0x12
 1857 088d 45       		.byte	0x45
 1858 088e 0D       		.byte	0xd
 1859 088f B3000000 		.4byte	0xb3
 1860 0893 13       		.byte	0x13
 1861 0894 07       		.uleb128 0x7
 1862 0895 83050000 		.4byte	.LASF123
 1863 0899 12       		.byte	0x12
 1864 089a 46       		.byte	0x46
 1865 089b 0D       		.byte	0xd
 1866 089c B3000000 		.4byte	0xb3
 1867 08a0 14       		.byte	0x14
 1868 08a1 07       		.uleb128 0x7
 1869 08a2 BB030000 		.4byte	.LASF124
 1870 08a6 12       		.byte	0x12
 1871 08a7 48       		.byte	0x48
 1872 08a8 0D       		.byte	0xd
 1873 08a9 B3000000 		.4byte	0xb3
 1874 08ad 15       		.byte	0x15
 1875 08ae 00       		.byte	0
 1876 08af 17       		.uleb128 0x17
 1877 08b0 8D070000 		.4byte	0x78d
 1878 08b4 BF080000 		.4byte	0x8bf
 1879 08b8 18       		.uleb128 0x18
 1880 08b9 38000000 		.4byte	0x38
 1881 08bd 03       		.byte	0x3
ARM GAS  C:\Users\USER\AppData\Local\Temp\ccE3RbfQ.s 			page 34


 1882 08be 00       		.byte	0
 1883 08bf 03       		.uleb128 0x3
 1884 08c0 7D010000 		.4byte	.LASF125
 1885 08c4 12       		.byte	0x12
 1886 08c5 49       		.byte	0x49
 1887 08c6 03       		.byte	0x3
 1888 08c7 BB070000 		.4byte	0x7bb
 1889 08cb 16       		.uleb128 0x16
 1890 08cc BF080000 		.4byte	0x8bf
 1891 08d0 11       		.uleb128 0x11
 1892 08d1 5D030000 		.4byte	.LASF126
 1893 08d5 12       		.byte	0x12
 1894 08d6 6E       		.byte	0x6e
 1895 08d7 1D       		.byte	0x1d
 1896 08d8 CB080000 		.4byte	0x8cb
 1897 08dc 03       		.uleb128 0x3
 1898 08dd EA020000 		.4byte	.LASF127
 1899 08e1 11       		.byte	0x11
 1900 08e2 34       		.byte	0x34
 1901 08e3 19       		.byte	0x19
 1902 08e4 47070000 		.4byte	0x747
 1903 08e8 0A       		.uleb128 0xa
 1904 08e9 04       		.byte	0x4
 1905 08ea DC080000 		.4byte	0x8dc
 1906 08ee 03       		.uleb128 0x3
 1907 08ef 69000000 		.4byte	.LASF128
 1908 08f3 13       		.byte	0x13
 1909 08f4 36       		.byte	0x36
 1910 08f5 11       		.byte	0x11
 1911 08f6 FA080000 		.4byte	0x8fa
 1912 08fa 0A       		.uleb128 0xa
 1913 08fb 04       		.byte	0x4
 1914 08fc 00090000 		.4byte	0x900
 1915 0900 1A       		.uleb128 0x1a
 1916 0901 90030000 		.4byte	0x390
 1917 0905 0F090000 		.4byte	0x90f
 1918 0909 0D       		.uleb128 0xd
 1919 090a 2C000000 		.4byte	0x2c
 1920 090e 00       		.byte	0
 1921 090f 06       		.uleb128 0x6
 1922 0910 F8060000 		.4byte	.LASF129
 1923 0914 04       		.byte	0x4
 1924 0915 03       		.byte	0x3
 1925 0916 38       		.byte	0x38
 1926 0917 08       		.byte	0x8
 1927 0918 2A090000 		.4byte	0x92a
 1928 091c 07       		.uleb128 0x7
 1929 091d DC040000 		.4byte	.LASF130
 1930 0921 03       		.byte	0x3
 1931 0922 39       		.byte	0x39
 1932 0923 1A       		.byte	0x1a
 1933 0924 2A090000 		.4byte	0x92a
 1934 0928 00       		.byte	0
 1935 0929 00       		.byte	0
 1936 092a 0A       		.uleb128 0xa
 1937 092b 04       		.byte	0x4
 1938 092c 0F090000 		.4byte	0x90f
ARM GAS  C:\Users\USER\AppData\Local\Temp\ccE3RbfQ.s 			page 35


 1939 0930 13       		.uleb128 0x13
 1940 0931 0C       		.byte	0xc
 1941 0932 03       		.byte	0x3
 1942 0933 40       		.byte	0x40
 1943 0934 09       		.byte	0x9
 1944 0935 61090000 		.4byte	0x961
 1945 0939 07       		.uleb128 0x7
 1946 093a AF060000 		.4byte	.LASF131
 1947 093e 03       		.byte	0x3
 1948 093f 41       		.byte	0x41
 1949 0940 1A       		.byte	0x1a
 1950 0941 2A090000 		.4byte	0x92a
 1951 0945 00       		.byte	0
 1952 0946 07       		.uleb128 0x7
 1953 0947 9F040000 		.4byte	.LASF132
 1954 094b 03       		.byte	0x3
 1955 094c 42       		.byte	0x42
 1956 094d 19       		.byte	0x19
 1957 094e 2C000000 		.4byte	0x2c
 1958 0952 04       		.byte	0x4
 1959 0953 07       		.uleb128 0x7
 1960 0954 9F010000 		.4byte	.LASF133
 1961 0958 03       		.byte	0x3
 1962 0959 44       		.byte	0x44
 1963 095a 19       		.byte	0x19
 1964 095b EE080000 		.4byte	0x8ee
 1965 095f 08       		.byte	0x8
 1966 0960 00       		.byte	0
 1967 0961 03       		.uleb128 0x3
 1968 0962 66030000 		.4byte	.LASF134
 1969 0966 03       		.byte	0x3
 1970 0967 46       		.byte	0x46
 1971 0968 03       		.byte	0x3
 1972 0969 30090000 		.4byte	0x930
 1973 096d 1B       		.uleb128 0x1b
 1974 096e 5C070000 		.4byte	.LASF136
 1975 0972 01       		.byte	0x1
 1976 0973 C1       		.byte	0xc1
 1977 0974 06       		.byte	0x6
 1978 0975 01       		.byte	0x1
 1979 0976 92090000 		.4byte	0x992
 1980 097a 1C       		.uleb128 0x1c
 1981 097b 6D7000   		.ascii	"mp\000"
 1982 097e 01       		.byte	0x1
 1983 097f C1       		.byte	0xc1
 1984 0980 20       		.byte	0x20
 1985 0981 92090000 		.4byte	0x992
 1986 0985 1D       		.uleb128 0x1d
 1987 0986 A5050000 		.4byte	.LASF135
 1988 098a 01       		.byte	0x1
 1989 098b C1       		.byte	0xc1
 1990 098c 2A       		.byte	0x2a
 1991 098d 90030000 		.4byte	0x390
 1992 0991 00       		.byte	0
 1993 0992 0A       		.uleb128 0xa
 1994 0993 04       		.byte	0x4
 1995 0994 61090000 		.4byte	0x961
ARM GAS  C:\Users\USER\AppData\Local\Temp\ccE3RbfQ.s 			page 36


 1996 0998 1B       		.uleb128 0x1b
 1997 0999 73040000 		.4byte	.LASF137
 1998 099d 01       		.byte	0x1
 1999 099e AB       		.byte	0xab
 2000 099f 06       		.byte	0x6
 2001 09a0 01       		.byte	0x1
 2002 09a1 D2090000 		.4byte	0x9d2
 2003 09a5 1C       		.uleb128 0x1c
 2004 09a6 6D7000   		.ascii	"mp\000"
 2005 09a9 01       		.byte	0x1
 2006 09aa AB       		.byte	0xab
 2007 09ab 21       		.byte	0x21
 2008 09ac 92090000 		.4byte	0x992
 2009 09b0 1D       		.uleb128 0x1d
 2010 09b1 A5050000 		.4byte	.LASF135
 2011 09b5 01       		.byte	0x1
 2012 09b6 AB       		.byte	0xab
 2013 09b7 2B       		.byte	0x2b
 2014 09b8 90030000 		.4byte	0x390
 2015 09bc 1E       		.uleb128 0x1e
 2016 09bd 70687000 		.ascii	"php\000"
 2017 09c1 01       		.byte	0x1
 2018 09c2 AC       		.byte	0xac
 2019 09c3 17       		.byte	0x17
 2020 09c4 2A090000 		.4byte	0x92a
 2021 09c8 1F       		.uleb128 0x1f
 2022 09c9 92050000 		.4byte	.LASF138
 2023 09cd E2090000 		.4byte	0x9e2
 2024 09d1 00       		.byte	0
 2025 09d2 17       		.uleb128 0x17
 2026 09d3 94070000 		.4byte	0x794
 2027 09d7 E2090000 		.4byte	0x9e2
 2028 09db 18       		.uleb128 0x18
 2029 09dc 38000000 		.4byte	0x38
 2030 09e0 0B       		.byte	0xb
 2031 09e1 00       		.byte	0
 2032 09e2 16       		.uleb128 0x16
 2033 09e3 D2090000 		.4byte	0x9d2
 2034 09e7 20       		.uleb128 0x20
 2035 09e8 50070000 		.4byte	.LASF153
 2036 09ec 01       		.byte	0x1
 2037 09ed 95       		.byte	0x95
 2038 09ee 07       		.byte	0x7
 2039 09ef 90030000 		.4byte	0x390
 2040 09f3 00000000 		.4byte	.LFB222
 2041 09f7 2C000000 		.4byte	.LFE222-.LFB222
 2042 09fb 01       		.uleb128 0x1
 2043 09fc 9C       		.byte	0x9c
 2044 09fd 2D0B0000 		.4byte	0xb2d
 2045 0a01 21       		.uleb128 0x21
 2046 0a02 6D7000   		.ascii	"mp\000"
 2047 0a05 01       		.byte	0x1
 2048 0a06 95       		.byte	0x95
 2049 0a07 22       		.byte	0x22
 2050 0a08 92090000 		.4byte	0x992
 2051 0a0c 0A000000 		.4byte	.LLST14
 2052 0a10 00000000 		.4byte	.LVUS14
ARM GAS  C:\Users\USER\AppData\Local\Temp\ccE3RbfQ.s 			page 37


 2053 0a14 22       		.uleb128 0x22
 2054 0a15 A5050000 		.4byte	.LASF135
 2055 0a19 01       		.byte	0x1
 2056 0a1a 96       		.byte	0x96
 2057 0a1b 09       		.byte	0x9
 2058 0a1c 90030000 		.4byte	0x390
 2059 0a20 53000000 		.4byte	.LLST15
 2060 0a24 4F000000 		.4byte	.LVUS15
 2061 0a28 23       		.uleb128 0x23
 2062 0a29 AC0D0000 		.4byte	0xdac
 2063 0a2d 00000000 		.4byte	.LBI137
 2064 0a31 03       		.byte	.LVU89
 2065 0a32 30010000 		.4byte	.Ldebug_ranges0+0x130
 2066 0a36 01       		.byte	0x1
 2067 0a37 98       		.byte	0x98
 2068 0a38 03       		.byte	0x3
 2069 0a39 710A0000 		.4byte	0xa71
 2070 0a3d 24       		.uleb128 0x24
 2071 0a3e C00D0000 		.4byte	0xdc0
 2072 0a42 00000000 		.4byte	.LBI138
 2073 0a46 05       		.byte	.LVU91
 2074 0a47 38010000 		.4byte	.Ldebug_ranges0+0x138
 2075 0a4b 04       		.byte	0x4
 2076 0a4c 5C01     		.2byte	0x15c
 2077 0a4e 03       		.byte	0x3
 2078 0a4f 24       		.uleb128 0x24
 2079 0a50 CA0D0000 		.4byte	0xdca
 2080 0a54 00000000 		.4byte	.LBI139
 2081 0a58 07       		.byte	.LVU93
 2082 0a59 40010000 		.4byte	.Ldebug_ranges0+0x140
 2083 0a5d 05       		.byte	0x5
 2084 0a5e BF01     		.2byte	0x1bf
 2085 0a60 03       		.byte	0x3
 2086 0a61 25       		.uleb128 0x25
 2087 0a62 D80D0000 		.4byte	0xdd8
 2088 0a66 73000000 		.4byte	.LLST16
 2089 0a6a 71000000 		.4byte	.LVUS16
 2090 0a6e 00       		.byte	0
 2091 0a6f 00       		.byte	0
 2092 0a70 00       		.byte	0
 2093 0a71 23       		.uleb128 0x23
 2094 0a72 2D0B0000 		.4byte	0xb2d
 2095 0a76 0A000000 		.4byte	.LBI152
 2096 0a7a 04       		.byte	.LVU103
 2097 0a7b 60010000 		.4byte	.Ldebug_ranges0+0x160
 2098 0a7f 01       		.byte	0x1
 2099 0a80 99       		.byte	0x99
 2100 0a81 0A       		.byte	0xa
 2101 0a82 E10A0000 		.4byte	0xae1
 2102 0a86 25       		.uleb128 0x25
 2103 0a87 3E0B0000 		.4byte	0xb3e
 2104 0a8b 90000000 		.4byte	.LLST17
 2105 0a8f 88000000 		.4byte	.LVUS17
 2106 0a93 26       		.uleb128 0x26
 2107 0a94 60010000 		.4byte	.Ldebug_ranges0+0x160
 2108 0a98 27       		.uleb128 0x27
 2109 0a99 490B0000 		.4byte	0xb49
ARM GAS  C:\Users\USER\AppData\Local\Temp\ccE3RbfQ.s 			page 38


 2110 0a9d CF000000 		.4byte	.LLST18
 2111 0aa1 C7000000 		.4byte	.LVUS18
 2112 0aa5 28       		.uleb128 0x28
 2113 0aa6 2D0B0000 		.4byte	0xb2d
 2114 0aaa 1A000000 		.4byte	.LBI154
 2115 0aae 00       		.byte	.LVU131
 2116 0aaf 1A000000 		.4byte	.LBB154
 2117 0ab3 0A000000 		.4byte	.LBE154-.LBB154
 2118 0ab7 01       		.byte	0x1
 2119 0ab8 78       		.byte	0x78
 2120 0ab9 07       		.byte	0x7
 2121 0aba 25       		.uleb128 0x25
 2122 0abb 3E0B0000 		.4byte	0xb3e
 2123 0abf 08010000 		.4byte	.LLST19
 2124 0ac3 04010000 		.4byte	.LVUS19
 2125 0ac7 29       		.uleb128 0x29
 2126 0ac8 1A000000 		.4byte	.LBB155
 2127 0acc 0A000000 		.4byte	.LBE155-.LBB155
 2128 0ad0 27       		.uleb128 0x27
 2129 0ad1 490B0000 		.4byte	0xb49
 2130 0ad5 2B010000 		.4byte	.LLST20
 2131 0ad9 29010000 		.4byte	.LVUS20
 2132 0add 00       		.byte	0
 2133 0ade 00       		.byte	0
 2134 0adf 00       		.byte	0
 2135 0ae0 00       		.byte	0
 2136 0ae1 2A       		.uleb128 0x2a
 2137 0ae2 940D0000 		.4byte	0xd94
 2138 0ae6 12000000 		.4byte	.LBI157
 2139 0aea 03       		.byte	.LVU117
 2140 0aeb 78010000 		.4byte	.Ldebug_ranges0+0x178
 2141 0aef 01       		.byte	0x1
 2142 0af0 9A       		.byte	0x9a
 2143 0af1 03       		.byte	0x3
 2144 0af2 26       		.uleb128 0x26
 2145 0af3 78010000 		.4byte	.Ldebug_ranges0+0x178
 2146 0af7 24       		.uleb128 0x24
 2147 0af8 B60D0000 		.4byte	0xdb6
 2148 0afc 12000000 		.4byte	.LBI159
 2149 0b00 09       		.byte	.LVU123
 2150 0b01 78010000 		.4byte	.Ldebug_ranges0+0x178
 2151 0b05 04       		.byte	0x4
 2152 0b06 7301     		.2byte	0x173
 2153 0b08 03       		.byte	0x3
 2154 0b09 24       		.uleb128 0x24
 2155 0b0a CA0D0000 		.4byte	0xdca
 2156 0b0e 12000000 		.4byte	.LBI160
 2157 0b12 0B       		.byte	.LVU125
 2158 0b13 A0010000 		.4byte	.Ldebug_ranges0+0x1a0
 2159 0b17 05       		.byte	0x5
 2160 0b18 CD01     		.2byte	0x1cd
 2161 0b1a 03       		.byte	0x3
 2162 0b1b 25       		.uleb128 0x25
 2163 0b1c D80D0000 		.4byte	0xdd8
 2164 0b20 42010000 		.4byte	.LLST21
 2165 0b24 3E010000 		.4byte	.LVUS21
 2166 0b28 00       		.byte	0
ARM GAS  C:\Users\USER\AppData\Local\Temp\ccE3RbfQ.s 			page 39


 2167 0b29 00       		.byte	0
 2168 0b2a 00       		.byte	0
 2169 0b2b 00       		.byte	0
 2170 0b2c 00       		.byte	0
 2171 0b2d 2B       		.uleb128 0x2b
 2172 0b2e 66040000 		.4byte	.LASF154
 2173 0b32 01       		.byte	0x1
 2174 0b33 78       		.byte	0x78
 2175 0b34 07       		.byte	0x7
 2176 0b35 90030000 		.4byte	0x390
 2177 0b39 01       		.byte	0x1
 2178 0b3a 5F0B0000 		.4byte	0xb5f
 2179 0b3e 1C       		.uleb128 0x1c
 2180 0b3f 6D7000   		.ascii	"mp\000"
 2181 0b42 01       		.byte	0x1
 2182 0b43 78       		.byte	0x78
 2183 0b44 23       		.byte	0x23
 2184 0b45 92090000 		.4byte	0x992
 2185 0b49 2C       		.uleb128 0x2c
 2186 0b4a A5050000 		.4byte	.LASF135
 2187 0b4e 01       		.byte	0x1
 2188 0b4f 79       		.byte	0x79
 2189 0b50 09       		.byte	0x9
 2190 0b51 90030000 		.4byte	0x390
 2191 0b55 1F       		.uleb128 0x1f
 2192 0b56 92050000 		.4byte	.LASF138
 2193 0b5a 6F0B0000 		.4byte	0xb6f
 2194 0b5e 00       		.byte	0
 2195 0b5f 17       		.uleb128 0x17
 2196 0b60 94070000 		.4byte	0x794
 2197 0b64 6F0B0000 		.4byte	0xb6f
 2198 0b68 18       		.uleb128 0x18
 2199 0b69 38000000 		.4byte	0x38
 2200 0b6d 0C       		.byte	0xc
 2201 0b6e 00       		.byte	0
 2202 0b6f 16       		.uleb128 0x16
 2203 0b70 5F0B0000 		.4byte	0xb5f
 2204 0b74 2D       		.uleb128 0x2d
 2205 0b75 AC070000 		.4byte	.LASF139
 2206 0b79 01       		.byte	0x1
 2207 0b7a 61       		.byte	0x61
 2208 0b7b 06       		.byte	0x6
 2209 0b7c 00000000 		.4byte	.LFB220
 2210 0b80 24000000 		.4byte	.LFE220-.LFB220
 2211 0b84 01       		.uleb128 0x1
 2212 0b85 9C       		.byte	0x9c
 2213 0b86 FC0C0000 		.4byte	0xcfc
 2214 0b8a 2E       		.uleb128 0x2e
 2215 0b8b 6D7000   		.ascii	"mp\000"
 2216 0b8e 01       		.byte	0x1
 2217 0b8f 61       		.byte	0x61
 2218 0b90 25       		.byte	0x25
 2219 0b91 92090000 		.4byte	0x992
 2220 0b95 01       		.uleb128 0x1
 2221 0b96 50       		.byte	0x50
 2222 0b97 21       		.uleb128 0x21
 2223 0b98 7000     		.ascii	"p\000"
ARM GAS  C:\Users\USER\AppData\Local\Temp\ccE3RbfQ.s 			page 40


 2224 0b9a 01       		.byte	0x1
 2225 0b9b 61       		.byte	0x61
 2226 0b9c 2F       		.byte	0x2f
 2227 0b9d 90030000 		.4byte	0x390
 2228 0ba1 66010000 		.4byte	.LLST0
 2229 0ba5 62010000 		.4byte	.LVUS0
 2230 0ba9 21       		.uleb128 0x21
 2231 0baa 6E00     		.ascii	"n\000"
 2232 0bac 01       		.byte	0x1
 2233 0bad 61       		.byte	0x61
 2234 0bae 39       		.byte	0x39
 2235 0baf 2C000000 		.4byte	0x2c
 2236 0bb3 8C010000 		.4byte	.LLST1
 2237 0bb7 84010000 		.4byte	.LVUS1
 2238 0bbb 1F       		.uleb128 0x1f
 2239 0bbc 92050000 		.4byte	.LASF138
 2240 0bc0 0C0D0000 		.4byte	0xd0c
 2241 0bc4 2A       		.uleb128 0x2a
 2242 0bc5 6F0D0000 		.4byte	0xd6f
 2243 0bc9 08000000 		.4byte	.LBI77
 2244 0bcd 02       		.byte	.LVU19
 2245 0bce 00000000 		.4byte	.Ldebug_ranges0+0
 2246 0bd2 01       		.byte	0x1
 2247 0bd3 66       		.byte	0x66
 2248 0bd4 05       		.byte	0x5
 2249 0bd5 25       		.uleb128 0x25
 2250 0bd6 7C0D0000 		.4byte	0xd7c
 2251 0bda C4010000 		.4byte	.LLST2
 2252 0bde C2010000 		.4byte	.LVUS2
 2253 0be2 25       		.uleb128 0x25
 2254 0be3 870D0000 		.4byte	0xd87
 2255 0be7 D9010000 		.4byte	.LLST3
 2256 0beb D7010000 		.4byte	.LVUS3
 2257 0bef 2A       		.uleb128 0x2a
 2258 0bf0 6D090000 		.4byte	0x96d
 2259 0bf4 08000000 		.4byte	.LBI78
 2260 0bf8 05       		.byte	.LVU22
 2261 0bf9 50000000 		.4byte	.Ldebug_ranges0+0x50
 2262 0bfd 03       		.byte	0x3
 2263 0bfe 8B       		.byte	0x8b
 2264 0bff 03       		.byte	0x3
 2265 0c00 25       		.uleb128 0x25
 2266 0c01 85090000 		.4byte	0x985
 2267 0c05 EE010000 		.4byte	.LLST4
 2268 0c09 EC010000 		.4byte	.LVUS4
 2269 0c0d 25       		.uleb128 0x25
 2270 0c0e 7A090000 		.4byte	0x97a
 2271 0c12 03020000 		.4byte	.LLST5
 2272 0c16 01020000 		.4byte	.LVUS5
 2273 0c1a 23       		.uleb128 0x23
 2274 0c1b AC0D0000 		.4byte	0xdac
 2275 0c1f 08000000 		.4byte	.LBI79
 2276 0c23 07       		.byte	.LVU24
 2277 0c24 98000000 		.4byte	.Ldebug_ranges0+0x98
 2278 0c28 01       		.byte	0x1
 2279 0c29 C3       		.byte	0xc3
 2280 0c2a 03       		.byte	0x3
ARM GAS  C:\Users\USER\AppData\Local\Temp\ccE3RbfQ.s 			page 41


 2281 0c2b 630C0000 		.4byte	0xc63
 2282 0c2f 24       		.uleb128 0x24
 2283 0c30 C00D0000 		.4byte	0xdc0
 2284 0c34 08000000 		.4byte	.LBI80
 2285 0c38 09       		.byte	.LVU26
 2286 0c39 C0000000 		.4byte	.Ldebug_ranges0+0xc0
 2287 0c3d 04       		.byte	0x4
 2288 0c3e 5C01     		.2byte	0x15c
 2289 0c40 03       		.byte	0x3
 2290 0c41 24       		.uleb128 0x24
 2291 0c42 CA0D0000 		.4byte	0xdca
 2292 0c46 08000000 		.4byte	.LBI81
 2293 0c4a 0B       		.byte	.LVU28
 2294 0c4b E0000000 		.4byte	.Ldebug_ranges0+0xe0
 2295 0c4f 05       		.byte	0x5
 2296 0c50 BF01     		.2byte	0x1bf
 2297 0c52 03       		.byte	0x3
 2298 0c53 25       		.uleb128 0x25
 2299 0c54 D80D0000 		.4byte	0xdd8
 2300 0c58 18020000 		.4byte	.LLST6
 2301 0c5c 16020000 		.4byte	.LVUS6
 2302 0c60 00       		.byte	0
 2303 0c61 00       		.byte	0
 2304 0c62 00       		.byte	0
 2305 0c63 23       		.uleb128 0x23
 2306 0c64 940D0000 		.4byte	0xd94
 2307 0c68 12000000 		.4byte	.LBI87
 2308 0c6c 02       		.byte	.LVU46
 2309 0c6d F8000000 		.4byte	.Ldebug_ranges0+0xf8
 2310 0c71 01       		.byte	0x1
 2311 0c72 C5       		.byte	0xc5
 2312 0c73 03       		.byte	0x3
 2313 0c74 B20C0000 		.4byte	0xcb2
 2314 0c78 26       		.uleb128 0x26
 2315 0c79 F8000000 		.4byte	.Ldebug_ranges0+0xf8
 2316 0c7d 24       		.uleb128 0x24
 2317 0c7e B60D0000 		.4byte	0xdb6
 2318 0c82 12000000 		.4byte	.LBI89
 2319 0c86 08       		.byte	.LVU52
 2320 0c87 F8000000 		.4byte	.Ldebug_ranges0+0xf8
 2321 0c8b 04       		.byte	0x4
 2322 0c8c 7301     		.2byte	0x173
 2323 0c8e 03       		.byte	0x3
 2324 0c8f 24       		.uleb128 0x24
 2325 0c90 CA0D0000 		.4byte	0xdca
 2326 0c94 12000000 		.4byte	.LBI90
 2327 0c98 0A       		.byte	.LVU54
 2328 0c99 18010000 		.4byte	.Ldebug_ranges0+0x118
 2329 0c9d 05       		.byte	0x5
 2330 0c9e CD01     		.2byte	0x1cd
 2331 0ca0 03       		.byte	0x3
 2332 0ca1 25       		.uleb128 0x25
 2333 0ca2 D80D0000 		.4byte	0xdd8
 2334 0ca6 2F020000 		.4byte	.LLST7
 2335 0caa 2D020000 		.4byte	.LVUS7
 2336 0cae 00       		.byte	0
 2337 0caf 00       		.byte	0
ARM GAS  C:\Users\USER\AppData\Local\Temp\ccE3RbfQ.s 			page 42


 2338 0cb0 00       		.byte	0
 2339 0cb1 00       		.byte	0
 2340 0cb2 28       		.uleb128 0x28
 2341 0cb3 98090000 		.4byte	0x998
 2342 0cb7 0C000000 		.4byte	.LBI101
 2343 0cbb 04       		.byte	.LVU34
 2344 0cbc 0C000000 		.4byte	.LBB101
 2345 0cc0 06000000 		.4byte	.LBE101-.LBB101
 2346 0cc4 01       		.byte	0x1
 2347 0cc5 C4       		.byte	0xc4
 2348 0cc6 03       		.byte	0x3
 2349 0cc7 25       		.uleb128 0x25
 2350 0cc8 B0090000 		.4byte	0x9b0
 2351 0ccc 45020000 		.4byte	.LLST8
 2352 0cd0 43020000 		.4byte	.LVUS8
 2353 0cd4 25       		.uleb128 0x25
 2354 0cd5 A5090000 		.4byte	0x9a5
 2355 0cd9 5A020000 		.4byte	.LLST9
 2356 0cdd 58020000 		.4byte	.LVUS9
 2357 0ce1 29       		.uleb128 0x29
 2358 0ce2 0C000000 		.4byte	.LBB102
 2359 0ce6 06000000 		.4byte	.LBE102-.LBB102
 2360 0cea 27       		.uleb128 0x27
 2361 0ceb BC090000 		.4byte	0x9bc
 2362 0cef 71020000 		.4byte	.LLST10
 2363 0cf3 6D020000 		.4byte	.LVUS10
 2364 0cf7 00       		.byte	0
 2365 0cf8 00       		.byte	0
 2366 0cf9 00       		.byte	0
 2367 0cfa 00       		.byte	0
 2368 0cfb 00       		.byte	0
 2369 0cfc 17       		.uleb128 0x17
 2370 0cfd 94070000 		.4byte	0x794
 2371 0d01 0C0D0000 		.4byte	0xd0c
 2372 0d05 18       		.uleb128 0x18
 2373 0d06 38000000 		.4byte	0x38
 2374 0d0a 0F       		.byte	0xf
 2375 0d0b 00       		.byte	0
 2376 0d0c 16       		.uleb128 0x16
 2377 0d0d FC0C0000 		.4byte	0xcfc
 2378 0d11 2D       		.uleb128 0x2d
 2379 0d12 C7030000 		.4byte	.LASF140
 2380 0d16 01       		.byte	0x1
 2381 0d17 4B       		.byte	0x4b
 2382 0d18 06       		.byte	0x6
 2383 0d19 00000000 		.4byte	.LFB219
 2384 0d1d 0A000000 		.4byte	.LFE219-.LFB219
 2385 0d21 01       		.uleb128 0x1
 2386 0d22 9C       		.byte	0x9c
 2387 0d23 5A0D0000 		.4byte	0xd5a
 2388 0d27 2E       		.uleb128 0x2e
 2389 0d28 6D7000   		.ascii	"mp\000"
 2390 0d2b 01       		.byte	0x1
 2391 0d2c 4B       		.byte	0x4b
 2392 0d2d 26       		.byte	0x26
 2393 0d2e 92090000 		.4byte	0x992
 2394 0d32 01       		.uleb128 0x1
ARM GAS  C:\Users\USER\AppData\Local\Temp\ccE3RbfQ.s 			page 43


 2395 0d33 50       		.byte	0x50
 2396 0d34 2F       		.uleb128 0x2f
 2397 0d35 88070000 		.4byte	.LASF141
 2398 0d39 01       		.byte	0x1
 2399 0d3a 4B       		.byte	0x4b
 2400 0d3b 31       		.byte	0x31
 2401 0d3c 2C000000 		.4byte	0x2c
 2402 0d40 01       		.uleb128 0x1
 2403 0d41 51       		.byte	0x51
 2404 0d42 2F       		.uleb128 0x2f
 2405 0d43 56000000 		.4byte	.LASF142
 2406 0d47 01       		.byte	0x1
 2407 0d48 4B       		.byte	0x4b
 2408 0d49 44       		.byte	0x44
 2409 0d4a EE080000 		.4byte	0x8ee
 2410 0d4e 01       		.uleb128 0x1
 2411 0d4f 52       		.byte	0x52
 2412 0d50 1F       		.uleb128 0x1f
 2413 0d51 92050000 		.4byte	.LASF138
 2414 0d55 6A0D0000 		.4byte	0xd6a
 2415 0d59 00       		.byte	0
 2416 0d5a 17       		.uleb128 0x17
 2417 0d5b 94070000 		.4byte	0x794
 2418 0d5f 6A0D0000 		.4byte	0xd6a
 2419 0d63 18       		.uleb128 0x18
 2420 0d64 38000000 		.4byte	0x38
 2421 0d68 10       		.byte	0x10
 2422 0d69 00       		.byte	0
 2423 0d6a 16       		.uleb128 0x16
 2424 0d6b 5A0D0000 		.4byte	0xd5a
 2425 0d6f 30       		.uleb128 0x30
 2426 0d70 B1030000 		.4byte	.LASF143
 2427 0d74 03       		.byte	0x3
 2428 0d75 89       		.byte	0x89
 2429 0d76 14       		.byte	0x14
 2430 0d77 03       		.byte	0x3
 2431 0d78 940D0000 		.4byte	0xd94
 2432 0d7c 1C       		.uleb128 0x1c
 2433 0d7d 6D7000   		.ascii	"mp\000"
 2434 0d80 03       		.byte	0x3
 2435 0d81 89       		.byte	0x89
 2436 0d82 2D       		.byte	0x2d
 2437 0d83 92090000 		.4byte	0x992
 2438 0d87 1D       		.uleb128 0x1d
 2439 0d88 A5050000 		.4byte	.LASF135
 2440 0d8c 03       		.byte	0x3
 2441 0d8d 89       		.byte	0x89
 2442 0d8e 37       		.byte	0x37
 2443 0d8f 90030000 		.4byte	0x390
 2444 0d93 00       		.byte	0
 2445 0d94 31       		.uleb128 0x31
 2446 0d95 A0070000 		.4byte	.LASF144
 2447 0d99 04       		.byte	0x4
 2448 0d9a 6601     		.2byte	0x166
 2449 0d9c 14       		.byte	0x14
 2450 0d9d 03       		.byte	0x3
 2451 0d9e AC0D0000 		.4byte	0xdac
ARM GAS  C:\Users\USER\AppData\Local\Temp\ccE3RbfQ.s 			page 44


 2452 0da2 1F       		.uleb128 0x1f
 2453 0da3 92050000 		.4byte	.LASF138
 2454 0da7 E2090000 		.4byte	0x9e2
 2455 0dab 00       		.byte	0
 2456 0dac 32       		.uleb128 0x32
 2457 0dad 9B050000 		.4byte	.LASF145
 2458 0db1 04       		.byte	0x4
 2459 0db2 5A01     		.2byte	0x15a
 2460 0db4 14       		.byte	0x14
 2461 0db5 03       		.byte	0x3
 2462 0db6 32       		.uleb128 0x32
 2463 0db7 45010000 		.4byte	.LASF146
 2464 0dbb 05       		.byte	0x5
 2465 0dbc CA01     		.2byte	0x1ca
 2466 0dbe 14       		.byte	0x14
 2467 0dbf 03       		.byte	0x3
 2468 0dc0 32       		.uleb128 0x32
 2469 0dc1 5F000000 		.4byte	.LASF147
 2470 0dc5 05       		.byte	0x5
 2471 0dc6 BC01     		.2byte	0x1bc
 2472 0dc8 14       		.byte	0x14
 2473 0dc9 03       		.byte	0x3
 2474 0dca 31       		.uleb128 0x31
 2475 0dcb 87060000 		.4byte	.LASF148
 2476 0dcf 02       		.byte	0x2
 2477 0dd0 2002     		.2byte	0x220
 2478 0dd2 39       		.byte	0x39
 2479 0dd3 03       		.byte	0x3
 2480 0dd4 E60D0000 		.4byte	0xde6
 2481 0dd8 33       		.uleb128 0x33
 2482 0dd9 F2020000 		.4byte	.LASF149
 2483 0ddd 02       		.byte	0x2
 2484 0dde 2002     		.2byte	0x220
 2485 0de0 50       		.byte	0x50
 2486 0de1 DC000000 		.4byte	0xdc
 2487 0de5 00       		.byte	0
 2488 0de6 34       		.uleb128 0x34
 2489 0de7 2D0B0000 		.4byte	0xb2d
 2490 0deb 00000000 		.4byte	.LFB221
 2491 0def 16000000 		.4byte	.LFE221-.LFB221
 2492 0df3 01       		.uleb128 0x1
 2493 0df4 9C       		.byte	0x9c
 2494 0df5 480E0000 		.4byte	0xe48
 2495 0df9 25       		.uleb128 0x25
 2496 0dfa 3E0B0000 		.4byte	0xb3e
 2497 0dfe 98020000 		.4byte	.LLST11
 2498 0e02 90020000 		.4byte	.LVUS11
 2499 0e06 27       		.uleb128 0x27
 2500 0e07 490B0000 		.4byte	0xb49
 2501 0e0b D4020000 		.4byte	.LLST12
 2502 0e0f D2020000 		.4byte	.LVUS12
 2503 0e13 28       		.uleb128 0x28
 2504 0e14 2D0B0000 		.4byte	0xb2d
 2505 0e18 0C000000 		.4byte	.LBI122
 2506 0e1c 00       		.byte	.LVU78
 2507 0e1d 0C000000 		.4byte	.LBB122
 2508 0e21 0A000000 		.4byte	.LBE122-.LBB122
ARM GAS  C:\Users\USER\AppData\Local\Temp\ccE3RbfQ.s 			page 45


 2509 0e25 01       		.byte	0x1
 2510 0e26 78       		.byte	0x78
 2511 0e27 07       		.byte	0x7
 2512 0e28 25       		.uleb128 0x25
 2513 0e29 3E0B0000 		.4byte	0xb3e
 2514 0e2d EB020000 		.4byte	.LLST13
 2515 0e31 E7020000 		.4byte	.LVUS13
 2516 0e35 29       		.uleb128 0x29
 2517 0e36 0C000000 		.4byte	.LBB123
 2518 0e3a 0A000000 		.4byte	.LBE123-.LBB123
 2519 0e3e 35       		.uleb128 0x35
 2520 0e3f 490B0000 		.4byte	0xb49
 2521 0e43 01       		.uleb128 0x1
 2522 0e44 53       		.byte	0x53
 2523 0e45 00       		.byte	0
 2524 0e46 00       		.byte	0
 2525 0e47 00       		.byte	0
 2526 0e48 36       		.uleb128 0x36
 2527 0e49 98090000 		.4byte	0x998
 2528 0e4d 00000000 		.4byte	.LFB223
 2529 0e51 08000000 		.4byte	.LFE223-.LFB223
 2530 0e55 01       		.uleb128 0x1
 2531 0e56 9C       		.byte	0x9c
 2532 0e57 770E0000 		.4byte	0xe77
 2533 0e5b 37       		.uleb128 0x37
 2534 0e5c A5090000 		.4byte	0x9a5
 2535 0e60 01       		.uleb128 0x1
 2536 0e61 50       		.byte	0x50
 2537 0e62 37       		.uleb128 0x37
 2538 0e63 B0090000 		.4byte	0x9b0
 2539 0e67 01       		.uleb128 0x1
 2540 0e68 51       		.byte	0x51
 2541 0e69 27       		.uleb128 0x27
 2542 0e6a BC090000 		.4byte	0x9bc
 2543 0e6e 0E030000 		.4byte	.LLST22
 2544 0e72 0C030000 		.4byte	.LVUS22
 2545 0e76 00       		.byte	0
 2546 0e77 38       		.uleb128 0x38
 2547 0e78 6D090000 		.4byte	0x96d
 2548 0e7c 00000000 		.4byte	.LFB224
 2549 0e80 14000000 		.4byte	.LFE224-.LFB224
 2550 0e84 01       		.uleb128 0x1
 2551 0e85 9C       		.byte	0x9c
 2552 0e86 37       		.uleb128 0x37
 2553 0e87 7A090000 		.4byte	0x97a
 2554 0e8b 01       		.uleb128 0x1
 2555 0e8c 50       		.byte	0x50
 2556 0e8d 37       		.uleb128 0x37
 2557 0e8e 85090000 		.4byte	0x985
 2558 0e92 01       		.uleb128 0x1
 2559 0e93 51       		.byte	0x51
 2560 0e94 23       		.uleb128 0x23
 2561 0e95 AC0D0000 		.4byte	0xdac
 2562 0e99 00000000 		.4byte	.LBI174
 2563 0e9d 02       		.byte	.LVU167
 2564 0e9e B8010000 		.4byte	.Ldebug_ranges0+0x1b8
 2565 0ea2 01       		.byte	0x1
ARM GAS  C:\Users\USER\AppData\Local\Temp\ccE3RbfQ.s 			page 46


 2566 0ea3 C3       		.byte	0xc3
 2567 0ea4 03       		.byte	0x3
 2568 0ea5 E10E0000 		.4byte	0xee1
 2569 0ea9 24       		.uleb128 0x24
 2570 0eaa C00D0000 		.4byte	0xdc0
 2571 0eae 00000000 		.4byte	.LBI175
 2572 0eb2 04       		.byte	.LVU169
 2573 0eb3 C0010000 		.4byte	.Ldebug_ranges0+0x1c0
 2574 0eb7 04       		.byte	0x4
 2575 0eb8 5C01     		.2byte	0x15c
 2576 0eba 03       		.byte	0x3
 2577 0ebb 39       		.uleb128 0x39
 2578 0ebc CA0D0000 		.4byte	0xdca
 2579 0ec0 00000000 		.4byte	.LBI176
 2580 0ec4 06       		.byte	.LVU171
 2581 0ec5 00000000 		.4byte	.LBB176
 2582 0ec9 06000000 		.4byte	.LBE176-.LBB176
 2583 0ecd 05       		.byte	0x5
 2584 0ece BF01     		.2byte	0x1bf
 2585 0ed0 03       		.byte	0x3
 2586 0ed1 25       		.uleb128 0x25
 2587 0ed2 D80D0000 		.4byte	0xdd8
 2588 0ed6 23030000 		.4byte	.LLST23
 2589 0eda 21030000 		.4byte	.LVUS23
 2590 0ede 00       		.byte	0
 2591 0edf 00       		.byte	0
 2592 0ee0 00       		.byte	0
 2593 0ee1 23       		.uleb128 0x23
 2594 0ee2 98090000 		.4byte	0x998
 2595 0ee6 06000000 		.4byte	.LBI181
 2596 0eea 04       		.byte	.LVU177
 2597 0eeb D8010000 		.4byte	.Ldebug_ranges0+0x1d8
 2598 0eef 01       		.byte	0x1
 2599 0ef0 C4       		.byte	0xc4
 2600 0ef1 03       		.byte	0x3
 2601 0ef2 240F0000 		.4byte	0xf24
 2602 0ef6 25       		.uleb128 0x25
 2603 0ef7 B0090000 		.4byte	0x9b0
 2604 0efb 3A030000 		.4byte	.LLST24
 2605 0eff 38030000 		.4byte	.LVUS24
 2606 0f03 25       		.uleb128 0x25
 2607 0f04 A5090000 		.4byte	0x9a5
 2608 0f08 4F030000 		.4byte	.LLST25
 2609 0f0c 4D030000 		.4byte	.LVUS25
 2610 0f10 26       		.uleb128 0x26
 2611 0f11 D8010000 		.4byte	.Ldebug_ranges0+0x1d8
 2612 0f15 27       		.uleb128 0x27
 2613 0f16 BC090000 		.4byte	0x9bc
 2614 0f1a 64030000 		.4byte	.LLST26
 2615 0f1e 62030000 		.4byte	.LVUS26
 2616 0f22 00       		.byte	0
 2617 0f23 00       		.byte	0
 2618 0f24 2A       		.uleb128 0x2a
 2619 0f25 940D0000 		.4byte	0xd94
 2620 0f29 0E000000 		.4byte	.LBI184
 2621 0f2d 02       		.byte	.LVU189
 2622 0f2e F0010000 		.4byte	.Ldebug_ranges0+0x1f0
ARM GAS  C:\Users\USER\AppData\Local\Temp\ccE3RbfQ.s 			page 47


 2623 0f32 01       		.byte	0x1
 2624 0f33 C5       		.byte	0xc5
 2625 0f34 03       		.byte	0x3
 2626 0f35 26       		.uleb128 0x26
 2627 0f36 F0010000 		.4byte	.Ldebug_ranges0+0x1f0
 2628 0f3a 24       		.uleb128 0x24
 2629 0f3b B60D0000 		.4byte	0xdb6
 2630 0f3f 0E000000 		.4byte	.LBI186
 2631 0f43 08       		.byte	.LVU195
 2632 0f44 F0010000 		.4byte	.Ldebug_ranges0+0x1f0
 2633 0f48 04       		.byte	0x4
 2634 0f49 7301     		.2byte	0x173
 2635 0f4b 03       		.byte	0x3
 2636 0f4c 24       		.uleb128 0x24
 2637 0f4d CA0D0000 		.4byte	0xdca
 2638 0f51 0E000000 		.4byte	.LBI187
 2639 0f55 0A       		.byte	.LVU197
 2640 0f56 10020000 		.4byte	.Ldebug_ranges0+0x210
 2641 0f5a 05       		.byte	0x5
 2642 0f5b CD01     		.2byte	0x1cd
 2643 0f5d 03       		.byte	0x3
 2644 0f5e 25       		.uleb128 0x25
 2645 0f5f D80D0000 		.4byte	0xdd8
 2646 0f63 79030000 		.4byte	.LLST27
 2647 0f67 77030000 		.4byte	.LVUS27
 2648 0f6b 00       		.byte	0
 2649 0f6c 00       		.byte	0
 2650 0f6d 00       		.byte	0
 2651 0f6e 00       		.byte	0
 2652 0f6f 00       		.byte	0
 2653 0f70 00       		.byte	0
 2654              		.section	.debug_abbrev,"",%progbits
 2655              	.Ldebug_abbrev0:
 2656 0000 01       		.uleb128 0x1
 2657 0001 11       		.uleb128 0x11
 2658 0002 01       		.byte	0x1
 2659 0003 25       		.uleb128 0x25
 2660 0004 0E       		.uleb128 0xe
 2661 0005 13       		.uleb128 0x13
 2662 0006 0B       		.uleb128 0xb
 2663 0007 03       		.uleb128 0x3
 2664 0008 0E       		.uleb128 0xe
 2665 0009 1B       		.uleb128 0x1b
 2666 000a 0E       		.uleb128 0xe
 2667 000b 55       		.uleb128 0x55
 2668 000c 17       		.uleb128 0x17
 2669 000d 11       		.uleb128 0x11
 2670 000e 01       		.uleb128 0x1
 2671 000f 10       		.uleb128 0x10
 2672 0010 17       		.uleb128 0x17
 2673 0011 00       		.byte	0
 2674 0012 00       		.byte	0
 2675 0013 02       		.uleb128 0x2
 2676 0014 24       		.uleb128 0x24
 2677 0015 00       		.byte	0
 2678 0016 0B       		.uleb128 0xb
 2679 0017 0B       		.uleb128 0xb
ARM GAS  C:\Users\USER\AppData\Local\Temp\ccE3RbfQ.s 			page 48


 2680 0018 3E       		.uleb128 0x3e
 2681 0019 0B       		.uleb128 0xb
 2682 001a 03       		.uleb128 0x3
 2683 001b 08       		.uleb128 0x8
 2684 001c 00       		.byte	0
 2685 001d 00       		.byte	0
 2686 001e 03       		.uleb128 0x3
 2687 001f 16       		.uleb128 0x16
 2688 0020 00       		.byte	0
 2689 0021 03       		.uleb128 0x3
 2690 0022 0E       		.uleb128 0xe
 2691 0023 3A       		.uleb128 0x3a
 2692 0024 0B       		.uleb128 0xb
 2693 0025 3B       		.uleb128 0x3b
 2694 0026 0B       		.uleb128 0xb
 2695 0027 39       		.uleb128 0x39
 2696 0028 0B       		.uleb128 0xb
 2697 0029 49       		.uleb128 0x49
 2698 002a 13       		.uleb128 0x13
 2699 002b 00       		.byte	0
 2700 002c 00       		.byte	0
 2701 002d 04       		.uleb128 0x4
 2702 002e 24       		.uleb128 0x24
 2703 002f 00       		.byte	0
 2704 0030 0B       		.uleb128 0xb
 2705 0031 0B       		.uleb128 0xb
 2706 0032 3E       		.uleb128 0x3e
 2707 0033 0B       		.uleb128 0xb
 2708 0034 03       		.uleb128 0x3
 2709 0035 0E       		.uleb128 0xe
 2710 0036 00       		.byte	0
 2711 0037 00       		.byte	0
 2712 0038 05       		.uleb128 0x5
 2713 0039 35       		.uleb128 0x35
 2714 003a 00       		.byte	0
 2715 003b 49       		.uleb128 0x49
 2716 003c 13       		.uleb128 0x13
 2717 003d 00       		.byte	0
 2718 003e 00       		.byte	0
 2719 003f 06       		.uleb128 0x6
 2720 0040 13       		.uleb128 0x13
 2721 0041 01       		.byte	0x1
 2722 0042 03       		.uleb128 0x3
 2723 0043 0E       		.uleb128 0xe
 2724 0044 0B       		.uleb128 0xb
 2725 0045 0B       		.uleb128 0xb
 2726 0046 3A       		.uleb128 0x3a
 2727 0047 0B       		.uleb128 0xb
 2728 0048 3B       		.uleb128 0x3b
 2729 0049 0B       		.uleb128 0xb
 2730 004a 39       		.uleb128 0x39
 2731 004b 0B       		.uleb128 0xb
 2732 004c 01       		.uleb128 0x1
 2733 004d 13       		.uleb128 0x13
 2734 004e 00       		.byte	0
 2735 004f 00       		.byte	0
 2736 0050 07       		.uleb128 0x7
ARM GAS  C:\Users\USER\AppData\Local\Temp\ccE3RbfQ.s 			page 49


 2737 0051 0D       		.uleb128 0xd
 2738 0052 00       		.byte	0
 2739 0053 03       		.uleb128 0x3
 2740 0054 0E       		.uleb128 0xe
 2741 0055 3A       		.uleb128 0x3a
 2742 0056 0B       		.uleb128 0xb
 2743 0057 3B       		.uleb128 0x3b
 2744 0058 0B       		.uleb128 0xb
 2745 0059 39       		.uleb128 0x39
 2746 005a 0B       		.uleb128 0xb
 2747 005b 49       		.uleb128 0x49
 2748 005c 13       		.uleb128 0x13
 2749 005d 38       		.uleb128 0x38
 2750 005e 0B       		.uleb128 0xb
 2751 005f 00       		.byte	0
 2752 0060 00       		.byte	0
 2753 0061 08       		.uleb128 0x8
 2754 0062 0D       		.uleb128 0xd
 2755 0063 00       		.byte	0
 2756 0064 03       		.uleb128 0x3
 2757 0065 08       		.uleb128 0x8
 2758 0066 3A       		.uleb128 0x3a
 2759 0067 0B       		.uleb128 0xb
 2760 0068 3B       		.uleb128 0x3b
 2761 0069 05       		.uleb128 0x5
 2762 006a 39       		.uleb128 0x39
 2763 006b 0B       		.uleb128 0xb
 2764 006c 49       		.uleb128 0x49
 2765 006d 13       		.uleb128 0x13
 2766 006e 38       		.uleb128 0x38
 2767 006f 0B       		.uleb128 0xb
 2768 0070 00       		.byte	0
 2769 0071 00       		.byte	0
 2770 0072 09       		.uleb128 0x9
 2771 0073 0D       		.uleb128 0xd
 2772 0074 00       		.byte	0
 2773 0075 03       		.uleb128 0x3
 2774 0076 0E       		.uleb128 0xe
 2775 0077 3A       		.uleb128 0x3a
 2776 0078 0B       		.uleb128 0xb
 2777 0079 3B       		.uleb128 0x3b
 2778 007a 05       		.uleb128 0x5
 2779 007b 39       		.uleb128 0x39
 2780 007c 0B       		.uleb128 0xb
 2781 007d 49       		.uleb128 0x49
 2782 007e 13       		.uleb128 0x13
 2783 007f 38       		.uleb128 0x38
 2784 0080 0B       		.uleb128 0xb
 2785 0081 00       		.byte	0
 2786 0082 00       		.byte	0
 2787 0083 0A       		.uleb128 0xa
 2788 0084 0F       		.uleb128 0xf
 2789 0085 00       		.byte	0
 2790 0086 0B       		.uleb128 0xb
 2791 0087 0B       		.uleb128 0xb
 2792 0088 49       		.uleb128 0x49
 2793 0089 13       		.uleb128 0x13
ARM GAS  C:\Users\USER\AppData\Local\Temp\ccE3RbfQ.s 			page 50


 2794 008a 00       		.byte	0
 2795 008b 00       		.byte	0
 2796 008c 0B       		.uleb128 0xb
 2797 008d 13       		.uleb128 0x13
 2798 008e 01       		.byte	0x1
 2799 008f 03       		.uleb128 0x3
 2800 0090 0E       		.uleb128 0xe
 2801 0091 0B       		.uleb128 0xb
 2802 0092 0B       		.uleb128 0xb
 2803 0093 3A       		.uleb128 0x3a
 2804 0094 0B       		.uleb128 0xb
 2805 0095 3B       		.uleb128 0x3b
 2806 0096 05       		.uleb128 0x5
 2807 0097 39       		.uleb128 0x39
 2808 0098 0B       		.uleb128 0xb
 2809 0099 01       		.uleb128 0x1
 2810 009a 13       		.uleb128 0x13
 2811 009b 00       		.byte	0
 2812 009c 00       		.byte	0
 2813 009d 0C       		.uleb128 0xc
 2814 009e 15       		.uleb128 0x15
 2815 009f 01       		.byte	0x1
 2816 00a0 27       		.uleb128 0x27
 2817 00a1 19       		.uleb128 0x19
 2818 00a2 01       		.uleb128 0x1
 2819 00a3 13       		.uleb128 0x13
 2820 00a4 00       		.byte	0
 2821 00a5 00       		.byte	0
 2822 00a6 0D       		.uleb128 0xd
 2823 00a7 05       		.uleb128 0x5
 2824 00a8 00       		.byte	0
 2825 00a9 49       		.uleb128 0x49
 2826 00aa 13       		.uleb128 0x13
 2827 00ab 00       		.byte	0
 2828 00ac 00       		.byte	0
 2829 00ad 0E       		.uleb128 0xe
 2830 00ae 0F       		.uleb128 0xf
 2831 00af 00       		.byte	0
 2832 00b0 0B       		.uleb128 0xb
 2833 00b1 0B       		.uleb128 0xb
 2834 00b2 00       		.byte	0
 2835 00b3 00       		.byte	0
 2836 00b4 0F       		.uleb128 0xf
 2837 00b5 13       		.uleb128 0x13
 2838 00b6 01       		.byte	0x1
 2839 00b7 03       		.uleb128 0x3
 2840 00b8 0E       		.uleb128 0xe
 2841 00b9 0B       		.uleb128 0xb
 2842 00ba 05       		.uleb128 0x5
 2843 00bb 3A       		.uleb128 0x3a
 2844 00bc 0B       		.uleb128 0xb
 2845 00bd 3B       		.uleb128 0x3b
 2846 00be 05       		.uleb128 0x5
 2847 00bf 39       		.uleb128 0x39
 2848 00c0 0B       		.uleb128 0xb
 2849 00c1 01       		.uleb128 0x1
 2850 00c2 13       		.uleb128 0x13
ARM GAS  C:\Users\USER\AppData\Local\Temp\ccE3RbfQ.s 			page 51


 2851 00c3 00       		.byte	0
 2852 00c4 00       		.byte	0
 2853 00c5 10       		.uleb128 0x10
 2854 00c6 34       		.uleb128 0x34
 2855 00c7 00       		.byte	0
 2856 00c8 03       		.uleb128 0x3
 2857 00c9 0E       		.uleb128 0xe
 2858 00ca 3A       		.uleb128 0x3a
 2859 00cb 0B       		.uleb128 0xb
 2860 00cc 3B       		.uleb128 0x3b
 2861 00cd 05       		.uleb128 0x5
 2862 00ce 39       		.uleb128 0x39
 2863 00cf 0B       		.uleb128 0xb
 2864 00d0 49       		.uleb128 0x49
 2865 00d1 13       		.uleb128 0x13
 2866 00d2 3F       		.uleb128 0x3f
 2867 00d3 19       		.uleb128 0x19
 2868 00d4 3C       		.uleb128 0x3c
 2869 00d5 19       		.uleb128 0x19
 2870 00d6 00       		.byte	0
 2871 00d7 00       		.byte	0
 2872 00d8 11       		.uleb128 0x11
 2873 00d9 34       		.uleb128 0x34
 2874 00da 00       		.byte	0
 2875 00db 03       		.uleb128 0x3
 2876 00dc 0E       		.uleb128 0xe
 2877 00dd 3A       		.uleb128 0x3a
 2878 00de 0B       		.uleb128 0xb
 2879 00df 3B       		.uleb128 0x3b
 2880 00e0 0B       		.uleb128 0xb
 2881 00e1 39       		.uleb128 0x39
 2882 00e2 0B       		.uleb128 0xb
 2883 00e3 49       		.uleb128 0x49
 2884 00e4 13       		.uleb128 0x13
 2885 00e5 3F       		.uleb128 0x3f
 2886 00e6 19       		.uleb128 0x19
 2887 00e7 3C       		.uleb128 0x3c
 2888 00e8 19       		.uleb128 0x19
 2889 00e9 00       		.byte	0
 2890 00ea 00       		.byte	0
 2891 00eb 12       		.uleb128 0x12
 2892 00ec 0D       		.uleb128 0xd
 2893 00ed 00       		.byte	0
 2894 00ee 03       		.uleb128 0x3
 2895 00ef 08       		.uleb128 0x8
 2896 00f0 3A       		.uleb128 0x3a
 2897 00f1 0B       		.uleb128 0xb
 2898 00f2 3B       		.uleb128 0x3b
 2899 00f3 0B       		.uleb128 0xb
 2900 00f4 39       		.uleb128 0x39
 2901 00f5 0B       		.uleb128 0xb
 2902 00f6 49       		.uleb128 0x49
 2903 00f7 13       		.uleb128 0x13
 2904 00f8 38       		.uleb128 0x38
 2905 00f9 0B       		.uleb128 0xb
 2906 00fa 00       		.byte	0
 2907 00fb 00       		.byte	0
ARM GAS  C:\Users\USER\AppData\Local\Temp\ccE3RbfQ.s 			page 52


 2908 00fc 13       		.uleb128 0x13
 2909 00fd 13       		.uleb128 0x13
 2910 00fe 01       		.byte	0x1
 2911 00ff 0B       		.uleb128 0xb
 2912 0100 0B       		.uleb128 0xb
 2913 0101 3A       		.uleb128 0x3a
 2914 0102 0B       		.uleb128 0xb
 2915 0103 3B       		.uleb128 0x3b
 2916 0104 0B       		.uleb128 0xb
 2917 0105 39       		.uleb128 0x39
 2918 0106 0B       		.uleb128 0xb
 2919 0107 01       		.uleb128 0x1
 2920 0108 13       		.uleb128 0x13
 2921 0109 00       		.byte	0
 2922 010a 00       		.byte	0
 2923 010b 14       		.uleb128 0x14
 2924 010c 17       		.uleb128 0x17
 2925 010d 01       		.byte	0x1
 2926 010e 0B       		.uleb128 0xb
 2927 010f 0B       		.uleb128 0xb
 2928 0110 3A       		.uleb128 0x3a
 2929 0111 0B       		.uleb128 0xb
 2930 0112 3B       		.uleb128 0x3b
 2931 0113 0B       		.uleb128 0xb
 2932 0114 39       		.uleb128 0x39
 2933 0115 0B       		.uleb128 0xb
 2934 0116 01       		.uleb128 0x1
 2935 0117 13       		.uleb128 0x13
 2936 0118 00       		.byte	0
 2937 0119 00       		.byte	0
 2938 011a 15       		.uleb128 0x15
 2939 011b 0D       		.uleb128 0xd
 2940 011c 00       		.byte	0
 2941 011d 03       		.uleb128 0x3
 2942 011e 0E       		.uleb128 0xe
 2943 011f 3A       		.uleb128 0x3a
 2944 0120 0B       		.uleb128 0xb
 2945 0121 3B       		.uleb128 0x3b
 2946 0122 05       		.uleb128 0x5
 2947 0123 39       		.uleb128 0x39
 2948 0124 0B       		.uleb128 0xb
 2949 0125 49       		.uleb128 0x49
 2950 0126 13       		.uleb128 0x13
 2951 0127 00       		.byte	0
 2952 0128 00       		.byte	0
 2953 0129 16       		.uleb128 0x16
 2954 012a 26       		.uleb128 0x26
 2955 012b 00       		.byte	0
 2956 012c 49       		.uleb128 0x49
 2957 012d 13       		.uleb128 0x13
 2958 012e 00       		.byte	0
 2959 012f 00       		.byte	0
 2960 0130 17       		.uleb128 0x17
 2961 0131 01       		.uleb128 0x1
 2962 0132 01       		.byte	0x1
 2963 0133 49       		.uleb128 0x49
 2964 0134 13       		.uleb128 0x13
ARM GAS  C:\Users\USER\AppData\Local\Temp\ccE3RbfQ.s 			page 53


 2965 0135 01       		.uleb128 0x1
 2966 0136 13       		.uleb128 0x13
 2967 0137 00       		.byte	0
 2968 0138 00       		.byte	0
 2969 0139 18       		.uleb128 0x18
 2970 013a 21       		.uleb128 0x21
 2971 013b 00       		.byte	0
 2972 013c 49       		.uleb128 0x49
 2973 013d 13       		.uleb128 0x13
 2974 013e 2F       		.uleb128 0x2f
 2975 013f 0B       		.uleb128 0xb
 2976 0140 00       		.byte	0
 2977 0141 00       		.byte	0
 2978 0142 19       		.uleb128 0x19
 2979 0143 34       		.uleb128 0x34
 2980 0144 00       		.byte	0
 2981 0145 03       		.uleb128 0x3
 2982 0146 08       		.uleb128 0x8
 2983 0147 3A       		.uleb128 0x3a
 2984 0148 0B       		.uleb128 0xb
 2985 0149 3B       		.uleb128 0x3b
 2986 014a 05       		.uleb128 0x5
 2987 014b 39       		.uleb128 0x39
 2988 014c 0B       		.uleb128 0xb
 2989 014d 49       		.uleb128 0x49
 2990 014e 13       		.uleb128 0x13
 2991 014f 3F       		.uleb128 0x3f
 2992 0150 19       		.uleb128 0x19
 2993 0151 3C       		.uleb128 0x3c
 2994 0152 19       		.uleb128 0x19
 2995 0153 00       		.byte	0
 2996 0154 00       		.byte	0
 2997 0155 1A       		.uleb128 0x1a
 2998 0156 15       		.uleb128 0x15
 2999 0157 01       		.byte	0x1
 3000 0158 27       		.uleb128 0x27
 3001 0159 19       		.uleb128 0x19
 3002 015a 49       		.uleb128 0x49
 3003 015b 13       		.uleb128 0x13
 3004 015c 01       		.uleb128 0x1
 3005 015d 13       		.uleb128 0x13
 3006 015e 00       		.byte	0
 3007 015f 00       		.byte	0
 3008 0160 1B       		.uleb128 0x1b
 3009 0161 2E       		.uleb128 0x2e
 3010 0162 01       		.byte	0x1
 3011 0163 3F       		.uleb128 0x3f
 3012 0164 19       		.uleb128 0x19
 3013 0165 03       		.uleb128 0x3
 3014 0166 0E       		.uleb128 0xe
 3015 0167 3A       		.uleb128 0x3a
 3016 0168 0B       		.uleb128 0xb
 3017 0169 3B       		.uleb128 0x3b
 3018 016a 0B       		.uleb128 0xb
 3019 016b 39       		.uleb128 0x39
 3020 016c 0B       		.uleb128 0xb
 3021 016d 27       		.uleb128 0x27
ARM GAS  C:\Users\USER\AppData\Local\Temp\ccE3RbfQ.s 			page 54


 3022 016e 19       		.uleb128 0x19
 3023 016f 20       		.uleb128 0x20
 3024 0170 0B       		.uleb128 0xb
 3025 0171 01       		.uleb128 0x1
 3026 0172 13       		.uleb128 0x13
 3027 0173 00       		.byte	0
 3028 0174 00       		.byte	0
 3029 0175 1C       		.uleb128 0x1c
 3030 0176 05       		.uleb128 0x5
 3031 0177 00       		.byte	0
 3032 0178 03       		.uleb128 0x3
 3033 0179 08       		.uleb128 0x8
 3034 017a 3A       		.uleb128 0x3a
 3035 017b 0B       		.uleb128 0xb
 3036 017c 3B       		.uleb128 0x3b
 3037 017d 0B       		.uleb128 0xb
 3038 017e 39       		.uleb128 0x39
 3039 017f 0B       		.uleb128 0xb
 3040 0180 49       		.uleb128 0x49
 3041 0181 13       		.uleb128 0x13
 3042 0182 00       		.byte	0
 3043 0183 00       		.byte	0
 3044 0184 1D       		.uleb128 0x1d
 3045 0185 05       		.uleb128 0x5
 3046 0186 00       		.byte	0
 3047 0187 03       		.uleb128 0x3
 3048 0188 0E       		.uleb128 0xe
 3049 0189 3A       		.uleb128 0x3a
 3050 018a 0B       		.uleb128 0xb
 3051 018b 3B       		.uleb128 0x3b
 3052 018c 0B       		.uleb128 0xb
 3053 018d 39       		.uleb128 0x39
 3054 018e 0B       		.uleb128 0xb
 3055 018f 49       		.uleb128 0x49
 3056 0190 13       		.uleb128 0x13
 3057 0191 00       		.byte	0
 3058 0192 00       		.byte	0
 3059 0193 1E       		.uleb128 0x1e
 3060 0194 34       		.uleb128 0x34
 3061 0195 00       		.byte	0
 3062 0196 03       		.uleb128 0x3
 3063 0197 08       		.uleb128 0x8
 3064 0198 3A       		.uleb128 0x3a
 3065 0199 0B       		.uleb128 0xb
 3066 019a 3B       		.uleb128 0x3b
 3067 019b 0B       		.uleb128 0xb
 3068 019c 39       		.uleb128 0x39
 3069 019d 0B       		.uleb128 0xb
 3070 019e 49       		.uleb128 0x49
 3071 019f 13       		.uleb128 0x13
 3072 01a0 00       		.byte	0
 3073 01a1 00       		.byte	0
 3074 01a2 1F       		.uleb128 0x1f
 3075 01a3 34       		.uleb128 0x34
 3076 01a4 00       		.byte	0
 3077 01a5 03       		.uleb128 0x3
 3078 01a6 0E       		.uleb128 0xe
ARM GAS  C:\Users\USER\AppData\Local\Temp\ccE3RbfQ.s 			page 55


 3079 01a7 49       		.uleb128 0x49
 3080 01a8 13       		.uleb128 0x13
 3081 01a9 34       		.uleb128 0x34
 3082 01aa 19       		.uleb128 0x19
 3083 01ab 00       		.byte	0
 3084 01ac 00       		.byte	0
 3085 01ad 20       		.uleb128 0x20
 3086 01ae 2E       		.uleb128 0x2e
 3087 01af 01       		.byte	0x1
 3088 01b0 3F       		.uleb128 0x3f
 3089 01b1 19       		.uleb128 0x19
 3090 01b2 03       		.uleb128 0x3
 3091 01b3 0E       		.uleb128 0xe
 3092 01b4 3A       		.uleb128 0x3a
 3093 01b5 0B       		.uleb128 0xb
 3094 01b6 3B       		.uleb128 0x3b
 3095 01b7 0B       		.uleb128 0xb
 3096 01b8 39       		.uleb128 0x39
 3097 01b9 0B       		.uleb128 0xb
 3098 01ba 27       		.uleb128 0x27
 3099 01bb 19       		.uleb128 0x19
 3100 01bc 49       		.uleb128 0x49
 3101 01bd 13       		.uleb128 0x13
 3102 01be 11       		.uleb128 0x11
 3103 01bf 01       		.uleb128 0x1
 3104 01c0 12       		.uleb128 0x12
 3105 01c1 06       		.uleb128 0x6
 3106 01c2 40       		.uleb128 0x40
 3107 01c3 18       		.uleb128 0x18
 3108 01c4 9642     		.uleb128 0x2116
 3109 01c6 19       		.uleb128 0x19
 3110 01c7 01       		.uleb128 0x1
 3111 01c8 13       		.uleb128 0x13
 3112 01c9 00       		.byte	0
 3113 01ca 00       		.byte	0
 3114 01cb 21       		.uleb128 0x21
 3115 01cc 05       		.uleb128 0x5
 3116 01cd 00       		.byte	0
 3117 01ce 03       		.uleb128 0x3
 3118 01cf 08       		.uleb128 0x8
 3119 01d0 3A       		.uleb128 0x3a
 3120 01d1 0B       		.uleb128 0xb
 3121 01d2 3B       		.uleb128 0x3b
 3122 01d3 0B       		.uleb128 0xb
 3123 01d4 39       		.uleb128 0x39
 3124 01d5 0B       		.uleb128 0xb
 3125 01d6 49       		.uleb128 0x49
 3126 01d7 13       		.uleb128 0x13
 3127 01d8 02       		.uleb128 0x2
 3128 01d9 17       		.uleb128 0x17
 3129 01da B742     		.uleb128 0x2137
 3130 01dc 17       		.uleb128 0x17
 3131 01dd 00       		.byte	0
 3132 01de 00       		.byte	0
 3133 01df 22       		.uleb128 0x22
 3134 01e0 34       		.uleb128 0x34
 3135 01e1 00       		.byte	0
ARM GAS  C:\Users\USER\AppData\Local\Temp\ccE3RbfQ.s 			page 56


 3136 01e2 03       		.uleb128 0x3
 3137 01e3 0E       		.uleb128 0xe
 3138 01e4 3A       		.uleb128 0x3a
 3139 01e5 0B       		.uleb128 0xb
 3140 01e6 3B       		.uleb128 0x3b
 3141 01e7 0B       		.uleb128 0xb
 3142 01e8 39       		.uleb128 0x39
 3143 01e9 0B       		.uleb128 0xb
 3144 01ea 49       		.uleb128 0x49
 3145 01eb 13       		.uleb128 0x13
 3146 01ec 02       		.uleb128 0x2
 3147 01ed 17       		.uleb128 0x17
 3148 01ee B742     		.uleb128 0x2137
 3149 01f0 17       		.uleb128 0x17
 3150 01f1 00       		.byte	0
 3151 01f2 00       		.byte	0
 3152 01f3 23       		.uleb128 0x23
 3153 01f4 1D       		.uleb128 0x1d
 3154 01f5 01       		.byte	0x1
 3155 01f6 31       		.uleb128 0x31
 3156 01f7 13       		.uleb128 0x13
 3157 01f8 52       		.uleb128 0x52
 3158 01f9 01       		.uleb128 0x1
 3159 01fa B842     		.uleb128 0x2138
 3160 01fc 0B       		.uleb128 0xb
 3161 01fd 55       		.uleb128 0x55
 3162 01fe 17       		.uleb128 0x17
 3163 01ff 58       		.uleb128 0x58
 3164 0200 0B       		.uleb128 0xb
 3165 0201 59       		.uleb128 0x59
 3166 0202 0B       		.uleb128 0xb
 3167 0203 57       		.uleb128 0x57
 3168 0204 0B       		.uleb128 0xb
 3169 0205 01       		.uleb128 0x1
 3170 0206 13       		.uleb128 0x13
 3171 0207 00       		.byte	0
 3172 0208 00       		.byte	0
 3173 0209 24       		.uleb128 0x24
 3174 020a 1D       		.uleb128 0x1d
 3175 020b 01       		.byte	0x1
 3176 020c 31       		.uleb128 0x31
 3177 020d 13       		.uleb128 0x13
 3178 020e 52       		.uleb128 0x52
 3179 020f 01       		.uleb128 0x1
 3180 0210 B842     		.uleb128 0x2138
 3181 0212 0B       		.uleb128 0xb
 3182 0213 55       		.uleb128 0x55
 3183 0214 17       		.uleb128 0x17
 3184 0215 58       		.uleb128 0x58
 3185 0216 0B       		.uleb128 0xb
 3186 0217 59       		.uleb128 0x59
 3187 0218 05       		.uleb128 0x5
 3188 0219 57       		.uleb128 0x57
 3189 021a 0B       		.uleb128 0xb
 3190 021b 00       		.byte	0
 3191 021c 00       		.byte	0
 3192 021d 25       		.uleb128 0x25
ARM GAS  C:\Users\USER\AppData\Local\Temp\ccE3RbfQ.s 			page 57


 3193 021e 05       		.uleb128 0x5
 3194 021f 00       		.byte	0
 3195 0220 31       		.uleb128 0x31
 3196 0221 13       		.uleb128 0x13
 3197 0222 02       		.uleb128 0x2
 3198 0223 17       		.uleb128 0x17
 3199 0224 B742     		.uleb128 0x2137
 3200 0226 17       		.uleb128 0x17
 3201 0227 00       		.byte	0
 3202 0228 00       		.byte	0
 3203 0229 26       		.uleb128 0x26
 3204 022a 0B       		.uleb128 0xb
 3205 022b 01       		.byte	0x1
 3206 022c 55       		.uleb128 0x55
 3207 022d 17       		.uleb128 0x17
 3208 022e 00       		.byte	0
 3209 022f 00       		.byte	0
 3210 0230 27       		.uleb128 0x27
 3211 0231 34       		.uleb128 0x34
 3212 0232 00       		.byte	0
 3213 0233 31       		.uleb128 0x31
 3214 0234 13       		.uleb128 0x13
 3215 0235 02       		.uleb128 0x2
 3216 0236 17       		.uleb128 0x17
 3217 0237 B742     		.uleb128 0x2137
 3218 0239 17       		.uleb128 0x17
 3219 023a 00       		.byte	0
 3220 023b 00       		.byte	0
 3221 023c 28       		.uleb128 0x28
 3222 023d 1D       		.uleb128 0x1d
 3223 023e 01       		.byte	0x1
 3224 023f 31       		.uleb128 0x31
 3225 0240 13       		.uleb128 0x13
 3226 0241 52       		.uleb128 0x52
 3227 0242 01       		.uleb128 0x1
 3228 0243 B842     		.uleb128 0x2138
 3229 0245 0B       		.uleb128 0xb
 3230 0246 11       		.uleb128 0x11
 3231 0247 01       		.uleb128 0x1
 3232 0248 12       		.uleb128 0x12
 3233 0249 06       		.uleb128 0x6
 3234 024a 58       		.uleb128 0x58
 3235 024b 0B       		.uleb128 0xb
 3236 024c 59       		.uleb128 0x59
 3237 024d 0B       		.uleb128 0xb
 3238 024e 57       		.uleb128 0x57
 3239 024f 0B       		.uleb128 0xb
 3240 0250 00       		.byte	0
 3241 0251 00       		.byte	0
 3242 0252 29       		.uleb128 0x29
 3243 0253 0B       		.uleb128 0xb
 3244 0254 01       		.byte	0x1
 3245 0255 11       		.uleb128 0x11
 3246 0256 01       		.uleb128 0x1
 3247 0257 12       		.uleb128 0x12
 3248 0258 06       		.uleb128 0x6
 3249 0259 00       		.byte	0
ARM GAS  C:\Users\USER\AppData\Local\Temp\ccE3RbfQ.s 			page 58


 3250 025a 00       		.byte	0
 3251 025b 2A       		.uleb128 0x2a
 3252 025c 1D       		.uleb128 0x1d
 3253 025d 01       		.byte	0x1
 3254 025e 31       		.uleb128 0x31
 3255 025f 13       		.uleb128 0x13
 3256 0260 52       		.uleb128 0x52
 3257 0261 01       		.uleb128 0x1
 3258 0262 B842     		.uleb128 0x2138
 3259 0264 0B       		.uleb128 0xb
 3260 0265 55       		.uleb128 0x55
 3261 0266 17       		.uleb128 0x17
 3262 0267 58       		.uleb128 0x58
 3263 0268 0B       		.uleb128 0xb
 3264 0269 59       		.uleb128 0x59
 3265 026a 0B       		.uleb128 0xb
 3266 026b 57       		.uleb128 0x57
 3267 026c 0B       		.uleb128 0xb
 3268 026d 00       		.byte	0
 3269 026e 00       		.byte	0
 3270 026f 2B       		.uleb128 0x2b
 3271 0270 2E       		.uleb128 0x2e
 3272 0271 01       		.byte	0x1
 3273 0272 3F       		.uleb128 0x3f
 3274 0273 19       		.uleb128 0x19
 3275 0274 03       		.uleb128 0x3
 3276 0275 0E       		.uleb128 0xe
 3277 0276 3A       		.uleb128 0x3a
 3278 0277 0B       		.uleb128 0xb
 3279 0278 3B       		.uleb128 0x3b
 3280 0279 0B       		.uleb128 0xb
 3281 027a 39       		.uleb128 0x39
 3282 027b 0B       		.uleb128 0xb
 3283 027c 27       		.uleb128 0x27
 3284 027d 19       		.uleb128 0x19
 3285 027e 49       		.uleb128 0x49
 3286 027f 13       		.uleb128 0x13
 3287 0280 20       		.uleb128 0x20
 3288 0281 0B       		.uleb128 0xb
 3289 0282 01       		.uleb128 0x1
 3290 0283 13       		.uleb128 0x13
 3291 0284 00       		.byte	0
 3292 0285 00       		.byte	0
 3293 0286 2C       		.uleb128 0x2c
 3294 0287 34       		.uleb128 0x34
 3295 0288 00       		.byte	0
 3296 0289 03       		.uleb128 0x3
 3297 028a 0E       		.uleb128 0xe
 3298 028b 3A       		.uleb128 0x3a
 3299 028c 0B       		.uleb128 0xb
 3300 028d 3B       		.uleb128 0x3b
 3301 028e 0B       		.uleb128 0xb
 3302 028f 39       		.uleb128 0x39
 3303 0290 0B       		.uleb128 0xb
 3304 0291 49       		.uleb128 0x49
 3305 0292 13       		.uleb128 0x13
 3306 0293 00       		.byte	0
ARM GAS  C:\Users\USER\AppData\Local\Temp\ccE3RbfQ.s 			page 59


 3307 0294 00       		.byte	0
 3308 0295 2D       		.uleb128 0x2d
 3309 0296 2E       		.uleb128 0x2e
 3310 0297 01       		.byte	0x1
 3311 0298 3F       		.uleb128 0x3f
 3312 0299 19       		.uleb128 0x19
 3313 029a 03       		.uleb128 0x3
 3314 029b 0E       		.uleb128 0xe
 3315 029c 3A       		.uleb128 0x3a
 3316 029d 0B       		.uleb128 0xb
 3317 029e 3B       		.uleb128 0x3b
 3318 029f 0B       		.uleb128 0xb
 3319 02a0 39       		.uleb128 0x39
 3320 02a1 0B       		.uleb128 0xb
 3321 02a2 27       		.uleb128 0x27
 3322 02a3 19       		.uleb128 0x19
 3323 02a4 11       		.uleb128 0x11
 3324 02a5 01       		.uleb128 0x1
 3325 02a6 12       		.uleb128 0x12
 3326 02a7 06       		.uleb128 0x6
 3327 02a8 40       		.uleb128 0x40
 3328 02a9 18       		.uleb128 0x18
 3329 02aa 9742     		.uleb128 0x2117
 3330 02ac 19       		.uleb128 0x19
 3331 02ad 01       		.uleb128 0x1
 3332 02ae 13       		.uleb128 0x13
 3333 02af 00       		.byte	0
 3334 02b0 00       		.byte	0
 3335 02b1 2E       		.uleb128 0x2e
 3336 02b2 05       		.uleb128 0x5
 3337 02b3 00       		.byte	0
 3338 02b4 03       		.uleb128 0x3
 3339 02b5 08       		.uleb128 0x8
 3340 02b6 3A       		.uleb128 0x3a
 3341 02b7 0B       		.uleb128 0xb
 3342 02b8 3B       		.uleb128 0x3b
 3343 02b9 0B       		.uleb128 0xb
 3344 02ba 39       		.uleb128 0x39
 3345 02bb 0B       		.uleb128 0xb
 3346 02bc 49       		.uleb128 0x49
 3347 02bd 13       		.uleb128 0x13
 3348 02be 02       		.uleb128 0x2
 3349 02bf 18       		.uleb128 0x18
 3350 02c0 00       		.byte	0
 3351 02c1 00       		.byte	0
 3352 02c2 2F       		.uleb128 0x2f
 3353 02c3 05       		.uleb128 0x5
 3354 02c4 00       		.byte	0
 3355 02c5 03       		.uleb128 0x3
 3356 02c6 0E       		.uleb128 0xe
 3357 02c7 3A       		.uleb128 0x3a
 3358 02c8 0B       		.uleb128 0xb
 3359 02c9 3B       		.uleb128 0x3b
 3360 02ca 0B       		.uleb128 0xb
 3361 02cb 39       		.uleb128 0x39
 3362 02cc 0B       		.uleb128 0xb
 3363 02cd 49       		.uleb128 0x49
ARM GAS  C:\Users\USER\AppData\Local\Temp\ccE3RbfQ.s 			page 60


 3364 02ce 13       		.uleb128 0x13
 3365 02cf 02       		.uleb128 0x2
 3366 02d0 18       		.uleb128 0x18
 3367 02d1 00       		.byte	0
 3368 02d2 00       		.byte	0
 3369 02d3 30       		.uleb128 0x30
 3370 02d4 2E       		.uleb128 0x2e
 3371 02d5 01       		.byte	0x1
 3372 02d6 03       		.uleb128 0x3
 3373 02d7 0E       		.uleb128 0xe
 3374 02d8 3A       		.uleb128 0x3a
 3375 02d9 0B       		.uleb128 0xb
 3376 02da 3B       		.uleb128 0x3b
 3377 02db 0B       		.uleb128 0xb
 3378 02dc 39       		.uleb128 0x39
 3379 02dd 0B       		.uleb128 0xb
 3380 02de 27       		.uleb128 0x27
 3381 02df 19       		.uleb128 0x19
 3382 02e0 20       		.uleb128 0x20
 3383 02e1 0B       		.uleb128 0xb
 3384 02e2 01       		.uleb128 0x1
 3385 02e3 13       		.uleb128 0x13
 3386 02e4 00       		.byte	0
 3387 02e5 00       		.byte	0
 3388 02e6 31       		.uleb128 0x31
 3389 02e7 2E       		.uleb128 0x2e
 3390 02e8 01       		.byte	0x1
 3391 02e9 03       		.uleb128 0x3
 3392 02ea 0E       		.uleb128 0xe
 3393 02eb 3A       		.uleb128 0x3a
 3394 02ec 0B       		.uleb128 0xb
 3395 02ed 3B       		.uleb128 0x3b
 3396 02ee 05       		.uleb128 0x5
 3397 02ef 39       		.uleb128 0x39
 3398 02f0 0B       		.uleb128 0xb
 3399 02f1 27       		.uleb128 0x27
 3400 02f2 19       		.uleb128 0x19
 3401 02f3 20       		.uleb128 0x20
 3402 02f4 0B       		.uleb128 0xb
 3403 02f5 01       		.uleb128 0x1
 3404 02f6 13       		.uleb128 0x13
 3405 02f7 00       		.byte	0
 3406 02f8 00       		.byte	0
 3407 02f9 32       		.uleb128 0x32
 3408 02fa 2E       		.uleb128 0x2e
 3409 02fb 00       		.byte	0
 3410 02fc 03       		.uleb128 0x3
 3411 02fd 0E       		.uleb128 0xe
 3412 02fe 3A       		.uleb128 0x3a
 3413 02ff 0B       		.uleb128 0xb
 3414 0300 3B       		.uleb128 0x3b
 3415 0301 05       		.uleb128 0x5
 3416 0302 39       		.uleb128 0x39
 3417 0303 0B       		.uleb128 0xb
 3418 0304 27       		.uleb128 0x27
 3419 0305 19       		.uleb128 0x19
 3420 0306 20       		.uleb128 0x20
ARM GAS  C:\Users\USER\AppData\Local\Temp\ccE3RbfQ.s 			page 61


 3421 0307 0B       		.uleb128 0xb
 3422 0308 00       		.byte	0
 3423 0309 00       		.byte	0
 3424 030a 33       		.uleb128 0x33
 3425 030b 05       		.uleb128 0x5
 3426 030c 00       		.byte	0
 3427 030d 03       		.uleb128 0x3
 3428 030e 0E       		.uleb128 0xe
 3429 030f 3A       		.uleb128 0x3a
 3430 0310 0B       		.uleb128 0xb
 3431 0311 3B       		.uleb128 0x3b
 3432 0312 05       		.uleb128 0x5
 3433 0313 39       		.uleb128 0x39
 3434 0314 0B       		.uleb128 0xb
 3435 0315 49       		.uleb128 0x49
 3436 0316 13       		.uleb128 0x13
 3437 0317 00       		.byte	0
 3438 0318 00       		.byte	0
 3439 0319 34       		.uleb128 0x34
 3440 031a 2E       		.uleb128 0x2e
 3441 031b 01       		.byte	0x1
 3442 031c 31       		.uleb128 0x31
 3443 031d 13       		.uleb128 0x13
 3444 031e 11       		.uleb128 0x11
 3445 031f 01       		.uleb128 0x1
 3446 0320 12       		.uleb128 0x12
 3447 0321 06       		.uleb128 0x6
 3448 0322 40       		.uleb128 0x40
 3449 0323 18       		.uleb128 0x18
 3450 0324 01       		.uleb128 0x1
 3451 0325 13       		.uleb128 0x13
 3452 0326 00       		.byte	0
 3453 0327 00       		.byte	0
 3454 0328 35       		.uleb128 0x35
 3455 0329 34       		.uleb128 0x34
 3456 032a 00       		.byte	0
 3457 032b 31       		.uleb128 0x31
 3458 032c 13       		.uleb128 0x13
 3459 032d 02       		.uleb128 0x2
 3460 032e 18       		.uleb128 0x18
 3461 032f 00       		.byte	0
 3462 0330 00       		.byte	0
 3463 0331 36       		.uleb128 0x36
 3464 0332 2E       		.uleb128 0x2e
 3465 0333 01       		.byte	0x1
 3466 0334 31       		.uleb128 0x31
 3467 0335 13       		.uleb128 0x13
 3468 0336 11       		.uleb128 0x11
 3469 0337 01       		.uleb128 0x1
 3470 0338 12       		.uleb128 0x12
 3471 0339 06       		.uleb128 0x6
 3472 033a 40       		.uleb128 0x40
 3473 033b 18       		.uleb128 0x18
 3474 033c 9742     		.uleb128 0x2117
 3475 033e 19       		.uleb128 0x19
 3476 033f 01       		.uleb128 0x1
 3477 0340 13       		.uleb128 0x13
ARM GAS  C:\Users\USER\AppData\Local\Temp\ccE3RbfQ.s 			page 62


 3478 0341 00       		.byte	0
 3479 0342 00       		.byte	0
 3480 0343 37       		.uleb128 0x37
 3481 0344 05       		.uleb128 0x5
 3482 0345 00       		.byte	0
 3483 0346 31       		.uleb128 0x31
 3484 0347 13       		.uleb128 0x13
 3485 0348 02       		.uleb128 0x2
 3486 0349 18       		.uleb128 0x18
 3487 034a 00       		.byte	0
 3488 034b 00       		.byte	0
 3489 034c 38       		.uleb128 0x38
 3490 034d 2E       		.uleb128 0x2e
 3491 034e 01       		.byte	0x1
 3492 034f 31       		.uleb128 0x31
 3493 0350 13       		.uleb128 0x13
 3494 0351 11       		.uleb128 0x11
 3495 0352 01       		.uleb128 0x1
 3496 0353 12       		.uleb128 0x12
 3497 0354 06       		.uleb128 0x6
 3498 0355 40       		.uleb128 0x40
 3499 0356 18       		.uleb128 0x18
 3500 0357 9742     		.uleb128 0x2117
 3501 0359 19       		.uleb128 0x19
 3502 035a 00       		.byte	0
 3503 035b 00       		.byte	0
 3504 035c 39       		.uleb128 0x39
 3505 035d 1D       		.uleb128 0x1d
 3506 035e 01       		.byte	0x1
 3507 035f 31       		.uleb128 0x31
 3508 0360 13       		.uleb128 0x13
 3509 0361 52       		.uleb128 0x52
 3510 0362 01       		.uleb128 0x1
 3511 0363 B842     		.uleb128 0x2138
 3512 0365 0B       		.uleb128 0xb
 3513 0366 11       		.uleb128 0x11
 3514 0367 01       		.uleb128 0x1
 3515 0368 12       		.uleb128 0x12
 3516 0369 06       		.uleb128 0x6
 3517 036a 58       		.uleb128 0x58
 3518 036b 0B       		.uleb128 0xb
 3519 036c 59       		.uleb128 0x59
 3520 036d 05       		.uleb128 0x5
 3521 036e 57       		.uleb128 0x57
 3522 036f 0B       		.uleb128 0xb
 3523 0370 00       		.byte	0
 3524 0371 00       		.byte	0
 3525 0372 00       		.byte	0
 3526              		.section	.debug_loc,"",%progbits
 3527              	.Ldebug_loc0:
 3528              	.LVUS14:
 3529 0000 00       		.uleb128 0
 3530 0001 00       		.uleb128 .LVU110
 3531 0002 00       		.uleb128 .LVU110
 3532 0003 00       		.uleb128 .LVU127
 3533 0004 00       		.uleb128 .LVU127
 3534 0005 00       		.uleb128 .LVU131
ARM GAS  C:\Users\USER\AppData\Local\Temp\ccE3RbfQ.s 			page 63


 3535 0006 00       		.uleb128 .LVU131
 3536 0007 00       		.uleb128 .LVU138
 3537 0008 00       		.uleb128 .LVU138
 3538 0009 00       		.uleb128 0
 3539              	.LLST14:
 3540 000a 00000000 		.4byte	.LVL15
 3541 000e 0C000000 		.4byte	.LVL17
 3542 0012 0100     		.2byte	0x1
 3543 0014 50       		.byte	0x50
 3544 0015 0C000000 		.4byte	.LVL17
 3545 0019 14000000 		.4byte	.LVL19
 3546 001d 0100     		.2byte	0x1
 3547 001f 53       		.byte	0x53
 3548 0020 14000000 		.4byte	.LVL19
 3549 0024 1A000000 		.4byte	.LVL21
 3550 0028 0400     		.2byte	0x4
 3551 002a F3       		.byte	0xf3
 3552 002b 01       		.uleb128 0x1
 3553 002c 50       		.byte	0x50
 3554 002d 9F       		.byte	0x9f
 3555 002e 1A000000 		.4byte	.LVL21
 3556 0032 23000000 		.4byte	.LVL23-1
 3557 0036 0100     		.2byte	0x1
 3558 0038 53       		.byte	0x53
 3559 0039 23000000 		.4byte	.LVL23-1
 3560 003d 2C000000 		.4byte	.LFE222
 3561 0041 0400     		.2byte	0x4
 3562 0043 F3       		.byte	0xf3
 3563 0044 01       		.uleb128 0x1
 3564 0045 50       		.byte	0x50
 3565 0046 9F       		.byte	0x9f
 3566 0047 00000000 		.4byte	0
 3567 004b 00000000 		.4byte	0
 3568              	.LVUS15:
 3569 004f 01       		.uleb128 .LVU115
 3570 0050 00       		.uleb128 .LVU131
 3571 0051 02       		.uleb128 .LVU140
 3572 0052 00       		.uleb128 0
 3573              	.LLST15:
 3574 0053 12000000 		.4byte	.LVL18
 3575 0057 1A000000 		.4byte	.LVL21
 3576 005b 0100     		.2byte	0x1
 3577 005d 50       		.byte	0x50
 3578 005e 24000000 		.4byte	.LVL23
 3579 0062 2C000000 		.4byte	.LFE222
 3580 0066 0100     		.2byte	0x1
 3581 0068 50       		.byte	0x50
 3582 0069 00000000 		.4byte	0
 3583 006d 00000000 		.4byte	0
 3584              	.LVUS16:
 3585 0071 07       		.uleb128 .LVU93
 3586 0072 00       		.uleb128 .LVU99
 3587              	.LLST16:
 3588 0073 00000000 		.4byte	.LVL15
 3589 0077 0A000000 		.4byte	.LVL16
 3590 007b 0300     		.2byte	0x3
 3591 007d 08       		.byte	0x8
ARM GAS  C:\Users\USER\AppData\Local\Temp\ccE3RbfQ.s 			page 64


 3592 007e 20       		.byte	0x20
 3593 007f 9F       		.byte	0x9f
 3594 0080 00000000 		.4byte	0
 3595 0084 00000000 		.4byte	0
 3596              	.LVUS17:
 3597 0088 04       		.uleb128 .LVU103
 3598 0089 00       		.uleb128 .LVU110
 3599 008a 00       		.uleb128 .LVU110
 3600 008b 01       		.uleb128 .LVU115
 3601 008c 00       		.uleb128 .LVU131
 3602 008d 00       		.uleb128 .LVU138
 3603 008e 00       		.uleb128 .LVU138
 3604 008f 02       		.uleb128 .LVU140
 3605              	.LLST17:
 3606 0090 0A000000 		.4byte	.LVL16
 3607 0094 0C000000 		.4byte	.LVL17
 3608 0098 0100     		.2byte	0x1
 3609 009a 50       		.byte	0x50
 3610 009b 0C000000 		.4byte	.LVL17
 3611 009f 12000000 		.4byte	.LVL18
 3612 00a3 0100     		.2byte	0x1
 3613 00a5 53       		.byte	0x53
 3614 00a6 1A000000 		.4byte	.LVL21
 3615 00aa 23000000 		.4byte	.LVL23-1
 3616 00ae 0100     		.2byte	0x1
 3617 00b0 53       		.byte	0x53
 3618 00b1 23000000 		.4byte	.LVL23-1
 3619 00b5 24000000 		.4byte	.LVL23
 3620 00b9 0400     		.2byte	0x4
 3621 00bb F3       		.byte	0xf3
 3622 00bc 01       		.uleb128 0x1
 3623 00bd 50       		.byte	0x50
 3624 00be 9F       		.byte	0x9f
 3625 00bf 00000000 		.4byte	0
 3626 00c3 00000000 		.4byte	0
 3627              	.LVUS18:
 3628 00c7 00       		.uleb128 .LVU110
 3629 00c8 01       		.uleb128 .LVU115
 3630 00c9 00       		.uleb128 .LVU131
 3631 00ca 00       		.uleb128 .LVU137
 3632 00cb 00       		.uleb128 .LVU137
 3633 00cc 00       		.uleb128 .LVU138
 3634 00cd 00       		.uleb128 .LVU138
 3635 00ce 02       		.uleb128 .LVU140
 3636              	.LLST18:
 3637 00cf 0C000000 		.4byte	.LVL17
 3638 00d3 12000000 		.4byte	.LVL18
 3639 00d7 0100     		.2byte	0x1
 3640 00d9 50       		.byte	0x50
 3641 00da 1A000000 		.4byte	.LVL21
 3642 00de 22000000 		.4byte	.LVL22
 3643 00e2 0100     		.2byte	0x1
 3644 00e4 50       		.byte	0x50
 3645 00e5 22000000 		.4byte	.LVL22
 3646 00e9 23000000 		.4byte	.LVL23-1
 3647 00ed 0200     		.2byte	0x2
 3648 00ef 73       		.byte	0x73
ARM GAS  C:\Users\USER\AppData\Local\Temp\ccE3RbfQ.s 			page 65


 3649 00f0 00       		.sleb128 0
 3650 00f1 24000000 		.4byte	.LVL23
 3651 00f5 24000000 		.4byte	.LVL23
 3652 00f9 0100     		.2byte	0x1
 3653 00fb 50       		.byte	0x50
 3654 00fc 00000000 		.4byte	0
 3655 0100 00000000 		.4byte	0
 3656              	.LVUS19:
 3657 0104 00       		.uleb128 .LVU131
 3658 0105 00       		.uleb128 .LVU138
 3659 0106 00       		.uleb128 .LVU138
 3660 0107 00       		.uleb128 0
 3661              	.LLST19:
 3662 0108 1A000000 		.4byte	.LVL21
 3663 010c 23000000 		.4byte	.LVL23-1
 3664 0110 0100     		.2byte	0x1
 3665 0112 53       		.byte	0x53
 3666 0113 23000000 		.4byte	.LVL23-1
 3667 0117 2C000000 		.4byte	.LFE222
 3668 011b 0400     		.2byte	0x4
 3669 011d F3       		.byte	0xf3
 3670 011e 01       		.uleb128 0x1
 3671 011f 50       		.byte	0x50
 3672 0120 9F       		.byte	0x9f
 3673 0121 00000000 		.4byte	0
 3674 0125 00000000 		.4byte	0
 3675              	.LVUS20:
 3676 0129 00       		.uleb128 .LVU138
 3677 012a 00       		.uleb128 0
 3678              	.LLST20:
 3679 012b 24000000 		.4byte	.LVL23
 3680 012f 2C000000 		.4byte	.LFE222
 3681 0133 0100     		.2byte	0x1
 3682 0135 50       		.byte	0x50
 3683 0136 00000000 		.4byte	0
 3684 013a 00000000 		.4byte	0
 3685              	.LVUS21:
 3686 013e 0B       		.uleb128 .LVU125
 3687 013f 00       		.uleb128 .LVU128
 3688 0140 0C       		.uleb128 .LVU150
 3689 0141 00       		.uleb128 .LVU152
 3690              	.LLST21:
 3691 0142 12000000 		.4byte	.LVL18
 3692 0146 18000000 		.4byte	.LVL20
 3693 014a 0200     		.2byte	0x2
 3694 014c 30       		.byte	0x30
 3695 014d 9F       		.byte	0x9f
 3696 014e 24000000 		.4byte	.LVL23
 3697 0152 2A000000 		.4byte	.LVL24
 3698 0156 0200     		.2byte	0x2
 3699 0158 30       		.byte	0x30
 3700 0159 9F       		.byte	0x9f
 3701 015a 00000000 		.4byte	0
 3702 015e 00000000 		.4byte	0
 3703              	.LVUS0:
 3704 0162 00       		.uleb128 0
 3705 0163 00       		.uleb128 .LVU61
ARM GAS  C:\Users\USER\AppData\Local\Temp\ccE3RbfQ.s 			page 66


 3706 0164 00       		.uleb128 .LVU61
 3707 0165 00       		.uleb128 0
 3708              	.LLST0:
 3709 0166 00000000 		.4byte	.LVL1
 3710 016a 1C000000 		.4byte	.LVL7
 3711 016e 0100     		.2byte	0x1
 3712 0170 51       		.byte	0x51
 3713 0171 1C000000 		.4byte	.LVL7
 3714 0175 24000000 		.4byte	.LFE220
 3715 0179 0100     		.2byte	0x1
 3716 017b 51       		.byte	0x51
 3717 017c 00000000 		.4byte	0
 3718 0180 00000000 		.4byte	0
 3719              	.LVUS1:
 3720 0184 00       		.uleb128 0
 3721 0185 00       		.uleb128 .LVU17
 3722 0186 00       		.uleb128 .LVU17
 3723 0187 00       		.uleb128 .LVU60
 3724 0188 00       		.uleb128 .LVU60
 3725 0189 01       		.uleb128 .LVU62
 3726 018a 00       		.uleb128 .LVU64
 3727 018b 00       		.uleb128 0
 3728              	.LLST1:
 3729 018c 00000000 		.4byte	.LVL1
 3730 0190 08000000 		.4byte	.LVL2
 3731 0194 0100     		.2byte	0x1
 3732 0196 52       		.byte	0x52
 3733 0197 08000000 		.4byte	.LVL2
 3734 019b 1A000000 		.4byte	.LVL6
 3735 019f 0100     		.2byte	0x1
 3736 01a1 52       		.byte	0x52
 3737 01a2 1A000000 		.4byte	.LVL6
 3738 01a6 1C000000 		.4byte	.LVL7
 3739 01aa 0300     		.2byte	0x3
 3740 01ac 72       		.byte	0x72
 3741 01ad 01       		.sleb128 1
 3742 01ae 9F       		.byte	0x9f
 3743 01af 22000000 		.4byte	.LVL8
 3744 01b3 24000000 		.4byte	.LFE220
 3745 01b7 0100     		.2byte	0x1
 3746 01b9 52       		.byte	0x52
 3747 01ba 00000000 		.4byte	0
 3748 01be 00000000 		.4byte	0
 3749              	.LVUS2:
 3750 01c2 03       		.uleb128 .LVU20
 3751 01c3 00       		.uleb128 .LVU64
 3752              	.LLST2:
 3753 01c4 08000000 		.4byte	.LVL2
 3754 01c8 22000000 		.4byte	.LVL8
 3755 01cc 0100     		.2byte	0x1
 3756 01ce 50       		.byte	0x50
 3757 01cf 00000000 		.4byte	0
 3758 01d3 00000000 		.4byte	0
 3759              	.LVUS3:
 3760 01d7 02       		.uleb128 .LVU19
 3761 01d8 00       		.uleb128 .LVU56
 3762              	.LLST3:
ARM GAS  C:\Users\USER\AppData\Local\Temp\ccE3RbfQ.s 			page 67


 3763 01d9 08000000 		.4byte	.LVL2
 3764 01dd 16000000 		.4byte	.LVL5
 3765 01e1 0100     		.2byte	0x1
 3766 01e3 51       		.byte	0x51
 3767 01e4 00000000 		.4byte	0
 3768 01e8 00000000 		.4byte	0
 3769              	.LVUS4:
 3770 01ec 05       		.uleb128 .LVU22
 3771 01ed 00       		.uleb128 .LVU56
 3772              	.LLST4:
 3773 01ee 08000000 		.4byte	.LVL2
 3774 01f2 16000000 		.4byte	.LVL5
 3775 01f6 0100     		.2byte	0x1
 3776 01f8 51       		.byte	0x51
 3777 01f9 00000000 		.4byte	0
 3778 01fd 00000000 		.4byte	0
 3779              	.LVUS5:
 3780 0201 05       		.uleb128 .LVU22
 3781 0202 00       		.uleb128 .LVU56
 3782              	.LLST5:
 3783 0203 08000000 		.4byte	.LVL2
 3784 0207 16000000 		.4byte	.LVL5
 3785 020b 0100     		.2byte	0x1
 3786 020d 50       		.byte	0x50
 3787 020e 00000000 		.4byte	0
 3788 0212 00000000 		.4byte	0
 3789              	.LVUS6:
 3790 0216 0B       		.uleb128 .LVU28
 3791 0217 00       		.uleb128 .LVU30
 3792              	.LLST6:
 3793 0218 08000000 		.4byte	.LVL2
 3794 021c 0C000000 		.4byte	.LVL3
 3795 0220 0300     		.2byte	0x3
 3796 0222 08       		.byte	0x8
 3797 0223 20       		.byte	0x20
 3798 0224 9F       		.byte	0x9f
 3799 0225 00000000 		.4byte	0
 3800 0229 00000000 		.4byte	0
 3801              	.LVUS7:
 3802 022d 0A       		.uleb128 .LVU54
 3803 022e 00       		.uleb128 .LVU56
 3804              	.LLST7:
 3805 022f 12000000 		.4byte	.LVL4
 3806 0233 16000000 		.4byte	.LVL5
 3807 0237 0200     		.2byte	0x2
 3808 0239 30       		.byte	0x30
 3809 023a 9F       		.byte	0x9f
 3810 023b 00000000 		.4byte	0
 3811 023f 00000000 		.4byte	0
 3812              	.LVUS8:
 3813 0243 04       		.uleb128 .LVU34
 3814 0244 00       		.uleb128 .LVU44
 3815              	.LLST8:
 3816 0245 0C000000 		.4byte	.LVL3
 3817 0249 12000000 		.4byte	.LVL4
 3818 024d 0100     		.2byte	0x1
 3819 024f 51       		.byte	0x51
ARM GAS  C:\Users\USER\AppData\Local\Temp\ccE3RbfQ.s 			page 68


 3820 0250 00000000 		.4byte	0
 3821 0254 00000000 		.4byte	0
 3822              	.LVUS9:
 3823 0258 04       		.uleb128 .LVU34
 3824 0259 00       		.uleb128 .LVU44
 3825              	.LLST9:
 3826 025a 0C000000 		.4byte	.LVL3
 3827 025e 12000000 		.4byte	.LVL4
 3828 0262 0100     		.2byte	0x1
 3829 0264 50       		.byte	0x50
 3830 0265 00000000 		.4byte	0
 3831 0269 00000000 		.4byte	0
 3832              	.LVUS10:
 3833 026d 06       		.uleb128 .LVU36
 3834 026e 00       		.uleb128 .LVU61
 3835 026f 00       		.uleb128 .LVU61
 3836 0270 00       		.uleb128 .LVU64
 3837              	.LLST10:
 3838 0271 0C000000 		.4byte	.LVL3
 3839 0275 1C000000 		.4byte	.LVL7
 3840 0279 0100     		.2byte	0x1
 3841 027b 51       		.byte	0x51
 3842 027c 1C000000 		.4byte	.LVL7
 3843 0280 22000000 		.4byte	.LVL8
 3844 0284 0200     		.2byte	0x2
 3845 0286 70       		.byte	0x70
 3846 0287 00       		.sleb128 0
 3847 0288 00000000 		.4byte	0
 3848 028c 00000000 		.4byte	0
 3849              	.LVUS11:
 3850 0290 00       		.uleb128 0
 3851 0291 00       		.uleb128 .LVU77
 3852 0292 00       		.uleb128 .LVU77
 3853 0293 00       		.uleb128 .LVU78
 3854 0294 00       		.uleb128 .LVU78
 3855 0295 00       		.uleb128 .LVU84
 3856 0296 00       		.uleb128 .LVU84
 3857 0297 00       		.uleb128 0
 3858              	.LLST11:
 3859 0298 00000000 		.4byte	.LVL9
 3860 029c 0A000000 		.4byte	.LVL11
 3861 02a0 0100     		.2byte	0x1
 3862 02a2 50       		.byte	0x50
 3863 02a3 0A000000 		.4byte	.LVL11
 3864 02a7 0C000000 		.4byte	.LVL12
 3865 02ab 0400     		.2byte	0x4
 3866 02ad F3       		.byte	0xf3
 3867 02ae 01       		.uleb128 0x1
 3868 02af 50       		.byte	0x50
 3869 02b0 9F       		.byte	0x9f
 3870 02b1 0C000000 		.4byte	.LVL12
 3871 02b5 14000000 		.4byte	.LVL13
 3872 02b9 0100     		.2byte	0x1
 3873 02bb 50       		.byte	0x50
 3874 02bc 14000000 		.4byte	.LVL13
 3875 02c0 16000000 		.4byte	.LFE221
 3876 02c4 0400     		.2byte	0x4
ARM GAS  C:\Users\USER\AppData\Local\Temp\ccE3RbfQ.s 			page 69


 3877 02c6 F3       		.byte	0xf3
 3878 02c7 01       		.uleb128 0x1
 3879 02c8 50       		.byte	0x50
 3880 02c9 9F       		.byte	0x9f
 3881 02ca 00000000 		.4byte	0
 3882 02ce 00000000 		.4byte	0
 3883              	.LVUS12:
 3884 02d2 00       		.uleb128 .LVU72
 3885 02d3 00       		.uleb128 .LVU85
 3886              	.LLST12:
 3887 02d4 02000000 		.4byte	.LVL10
 3888 02d8 15000000 		.4byte	.LVL14-1
 3889 02dc 0100     		.2byte	0x1
 3890 02de 53       		.byte	0x53
 3891 02df 00000000 		.4byte	0
 3892 02e3 00000000 		.4byte	0
 3893              	.LVUS13:
 3894 02e7 00       		.uleb128 .LVU78
 3895 02e8 00       		.uleb128 .LVU84
 3896 02e9 00       		.uleb128 .LVU84
 3897 02ea 00       		.uleb128 0
 3898              	.LLST13:
 3899 02eb 0C000000 		.4byte	.LVL12
 3900 02ef 14000000 		.4byte	.LVL13
 3901 02f3 0100     		.2byte	0x1
 3902 02f5 50       		.byte	0x50
 3903 02f6 14000000 		.4byte	.LVL13
 3904 02fa 16000000 		.4byte	.LFE221
 3905 02fe 0400     		.2byte	0x4
 3906 0300 F3       		.byte	0xf3
 3907 0301 01       		.uleb128 0x1
 3908 0302 50       		.byte	0x50
 3909 0303 9F       		.byte	0x9f
 3910 0304 00000000 		.4byte	0
 3911 0308 00000000 		.4byte	0
 3912              	.LVUS22:
 3913 030c 02       		.uleb128 .LVU157
 3914 030d 00       		.uleb128 0
 3915              	.LLST22:
 3916 030e 00000000 		.4byte	.LVL25
 3917 0312 08000000 		.4byte	.LFE223
 3918 0316 0100     		.2byte	0x1
 3919 0318 51       		.byte	0x51
 3920 0319 00000000 		.4byte	0
 3921 031d 00000000 		.4byte	0
 3922              	.LVUS23:
 3923 0321 06       		.uleb128 .LVU171
 3924 0322 00       		.uleb128 .LVU173
 3925              	.LLST23:
 3926 0323 00000000 		.4byte	.LVL26
 3927 0327 06000000 		.4byte	.LVL27
 3928 032b 0300     		.2byte	0x3
 3929 032d 08       		.byte	0x8
 3930 032e 20       		.byte	0x20
 3931 032f 9F       		.byte	0x9f
 3932 0330 00000000 		.4byte	0
 3933 0334 00000000 		.4byte	0
ARM GAS  C:\Users\USER\AppData\Local\Temp\ccE3RbfQ.s 			page 70


 3934              	.LVUS24:
 3935 0338 04       		.uleb128 .LVU177
 3936 0339 00       		.uleb128 .LVU187
 3937              	.LLST24:
 3938 033a 06000000 		.4byte	.LVL27
 3939 033e 0E000000 		.4byte	.LVL28
 3940 0342 0100     		.2byte	0x1
 3941 0344 51       		.byte	0x51
 3942 0345 00000000 		.4byte	0
 3943 0349 00000000 		.4byte	0
 3944              	.LVUS25:
 3945 034d 04       		.uleb128 .LVU177
 3946 034e 00       		.uleb128 .LVU187
 3947              	.LLST25:
 3948 034f 06000000 		.4byte	.LVL27
 3949 0353 0E000000 		.4byte	.LVL28
 3950 0357 0100     		.2byte	0x1
 3951 0359 50       		.byte	0x50
 3952 035a 00000000 		.4byte	0
 3953 035e 00000000 		.4byte	0
 3954              	.LVUS26:
 3955 0362 06       		.uleb128 .LVU179
 3956 0363 00       		.uleb128 0
 3957              	.LLST26:
 3958 0364 06000000 		.4byte	.LVL27
 3959 0368 14000000 		.4byte	.LFE224
 3960 036c 0100     		.2byte	0x1
 3961 036e 51       		.byte	0x51
 3962 036f 00000000 		.4byte	0
 3963 0373 00000000 		.4byte	0
 3964              	.LVUS27:
 3965 0377 0A       		.uleb128 .LVU197
 3966 0378 00       		.uleb128 .LVU199
 3967              	.LLST27:
 3968 0379 0E000000 		.4byte	.LVL28
 3969 037d 12000000 		.4byte	.LVL29
 3970 0381 0200     		.2byte	0x2
 3971 0383 30       		.byte	0x30
 3972 0384 9F       		.byte	0x9f
 3973 0385 00000000 		.4byte	0
 3974 0389 00000000 		.4byte	0
 3975              		.section	.debug_aranges,"",%progbits
 3976 0000 44000000 		.4byte	0x44
 3977 0004 0200     		.2byte	0x2
 3978 0006 00000000 		.4byte	.Ldebug_info0
 3979 000a 04       		.byte	0x4
 3980 000b 00       		.byte	0
 3981 000c 0000     		.2byte	0
 3982 000e 0000     		.2byte	0
 3983 0010 00000000 		.4byte	.LFB219
 3984 0014 0A000000 		.4byte	.LFE219-.LFB219
 3985 0018 00000000 		.4byte	.LFB220
 3986 001c 24000000 		.4byte	.LFE220-.LFB220
 3987 0020 00000000 		.4byte	.LFB221
 3988 0024 16000000 		.4byte	.LFE221-.LFB221
 3989 0028 00000000 		.4byte	.LFB222
 3990 002c 2C000000 		.4byte	.LFE222-.LFB222
ARM GAS  C:\Users\USER\AppData\Local\Temp\ccE3RbfQ.s 			page 71


 3991 0030 00000000 		.4byte	.LFB223
 3992 0034 08000000 		.4byte	.LFE223-.LFB223
 3993 0038 00000000 		.4byte	.LFB224
 3994 003c 14000000 		.4byte	.LFE224-.LFB224
 3995 0040 00000000 		.4byte	0
 3996 0044 00000000 		.4byte	0
 3997              		.section	.debug_ranges,"",%progbits
 3998              	.Ldebug_ranges0:
 3999 0000 04000000 		.4byte	.LBB77
 4000 0004 08000000 		.4byte	.LBE77
 4001 0008 08000000 		.4byte	.LBB112
 4002 000c 08000000 		.4byte	.LBE112
 4003 0010 08000000 		.4byte	.LBB113
 4004 0014 08000000 		.4byte	.LBE113
 4005 0018 08000000 		.4byte	.LBB114
 4006 001c 08000000 		.4byte	.LBE114
 4007 0020 08000000 		.4byte	.LBB115
 4008 0024 08000000 		.4byte	.LBE115
 4009 0028 08000000 		.4byte	.LBB116
 4010 002c 0C000000 		.4byte	.LBE116
 4011 0030 0C000000 		.4byte	.LBB117
 4012 0034 12000000 		.4byte	.LBE117
 4013 0038 12000000 		.4byte	.LBB118
 4014 003c 12000000 		.4byte	.LBE118
 4015 0040 12000000 		.4byte	.LBB119
 4016 0044 16000000 		.4byte	.LBE119
 4017 0048 00000000 		.4byte	0
 4018 004c 00000000 		.4byte	0
 4019 0050 04000000 		.4byte	.LBB78
 4020 0054 08000000 		.4byte	.LBE78
 4021 0058 08000000 		.4byte	.LBB105
 4022 005c 08000000 		.4byte	.LBE105
 4023 0060 08000000 		.4byte	.LBB106
 4024 0064 08000000 		.4byte	.LBE106
 4025 0068 08000000 		.4byte	.LBB107
 4026 006c 08000000 		.4byte	.LBE107
 4027 0070 08000000 		.4byte	.LBB108
 4028 0074 0C000000 		.4byte	.LBE108
 4029 0078 0C000000 		.4byte	.LBB109
 4030 007c 12000000 		.4byte	.LBE109
 4031 0080 12000000 		.4byte	.LBB110
 4032 0084 12000000 		.4byte	.LBE110
 4033 0088 12000000 		.4byte	.LBB111
 4034 008c 16000000 		.4byte	.LBE111
 4035 0090 00000000 		.4byte	0
 4036 0094 00000000 		.4byte	0
 4037 0098 04000000 		.4byte	.LBB79
 4038 009c 06000000 		.4byte	.LBE79
 4039 00a0 08000000 		.4byte	.LBB98
 4040 00a4 08000000 		.4byte	.LBE98
 4041 00a8 08000000 		.4byte	.LBB99
 4042 00ac 08000000 		.4byte	.LBE99
 4043 00b0 08000000 		.4byte	.LBB100
 4044 00b4 0C000000 		.4byte	.LBE100
 4045 00b8 00000000 		.4byte	0
 4046 00bc 00000000 		.4byte	0
 4047 00c0 04000000 		.4byte	.LBB80
ARM GAS  C:\Users\USER\AppData\Local\Temp\ccE3RbfQ.s 			page 72


 4048 00c4 06000000 		.4byte	.LBE80
 4049 00c8 08000000 		.4byte	.LBB85
 4050 00cc 08000000 		.4byte	.LBE85
 4051 00d0 08000000 		.4byte	.LBB86
 4052 00d4 0C000000 		.4byte	.LBE86
 4053 00d8 00000000 		.4byte	0
 4054 00dc 00000000 		.4byte	0
 4055 00e0 04000000 		.4byte	.LBB81
 4056 00e4 06000000 		.4byte	.LBE81
 4057 00e8 08000000 		.4byte	.LBB84
 4058 00ec 0C000000 		.4byte	.LBE84
 4059 00f0 00000000 		.4byte	0
 4060 00f4 00000000 		.4byte	0
 4061 00f8 06000000 		.4byte	.LBB87
 4062 00fc 08000000 		.4byte	.LBE87
 4063 0100 12000000 		.4byte	.LBB103
 4064 0104 12000000 		.4byte	.LBE103
 4065 0108 12000000 		.4byte	.LBB104
 4066 010c 16000000 		.4byte	.LBE104
 4067 0110 00000000 		.4byte	0
 4068 0114 00000000 		.4byte	0
 4069 0118 06000000 		.4byte	.LBB90
 4070 011c 08000000 		.4byte	.LBE90
 4071 0120 12000000 		.4byte	.LBB93
 4072 0124 16000000 		.4byte	.LBE93
 4073 0128 00000000 		.4byte	0
 4074 012c 00000000 		.4byte	0
 4075 0130 00000000 		.4byte	.LBB137
 4076 0134 00000000 		.4byte	.LBE137
 4077 0138 00000000 		.4byte	.LBB148
 4078 013c 00000000 		.4byte	.LBE148
 4079 0140 00000000 		.4byte	.LBB149
 4080 0144 00000000 		.4byte	.LBE149
 4081 0148 02000000 		.4byte	.LBB150
 4082 014c 04000000 		.4byte	.LBE150
 4083 0150 06000000 		.4byte	.LBB151
 4084 0154 0A000000 		.4byte	.LBE151
 4085 0158 00000000 		.4byte	0
 4086 015c 00000000 		.4byte	0
 4087 0160 0A000000 		.4byte	.LBB152
 4088 0164 12000000 		.4byte	.LBE152
 4089 0168 1A000000 		.4byte	.LBB171
 4090 016c 24000000 		.4byte	.LBE171
 4091 0170 00000000 		.4byte	0
 4092 0174 00000000 		.4byte	0
 4093 0178 12000000 		.4byte	.LBB157
 4094 017c 12000000 		.4byte	.LBE157
 4095 0180 12000000 		.4byte	.LBB170
 4096 0184 18000000 		.4byte	.LBE170
 4097 0188 24000000 		.4byte	.LBB172
 4098 018c 24000000 		.4byte	.LBE172
 4099 0190 24000000 		.4byte	.LBB173
 4100 0194 2A000000 		.4byte	.LBE173
 4101 0198 00000000 		.4byte	0
 4102 019c 00000000 		.4byte	0
 4103 01a0 12000000 		.4byte	.LBB160
 4104 01a4 18000000 		.4byte	.LBE160
ARM GAS  C:\Users\USER\AppData\Local\Temp\ccE3RbfQ.s 			page 73


 4105 01a8 24000000 		.4byte	.LBB163
 4106 01ac 2A000000 		.4byte	.LBE163
 4107 01b0 00000000 		.4byte	0
 4108 01b4 00000000 		.4byte	0
 4109 01b8 00000000 		.4byte	.LBB174
 4110 01bc 00000000 		.4byte	.LBE174
 4111 01c0 00000000 		.4byte	.LBB179
 4112 01c4 00000000 		.4byte	.LBE179
 4113 01c8 00000000 		.4byte	.LBB180
 4114 01cc 06000000 		.4byte	.LBE180
 4115 01d0 00000000 		.4byte	0
 4116 01d4 00000000 		.4byte	0
 4117 01d8 06000000 		.4byte	.LBB181
 4118 01dc 0A000000 		.4byte	.LBE181
 4119 01e0 0C000000 		.4byte	.LBB195
 4120 01e4 0E000000 		.4byte	.LBE195
 4121 01e8 00000000 		.4byte	0
 4122 01ec 00000000 		.4byte	0
 4123 01f0 0A000000 		.4byte	.LBB184
 4124 01f4 0C000000 		.4byte	.LBE184
 4125 01f8 0E000000 		.4byte	.LBB196
 4126 01fc 0E000000 		.4byte	.LBE196
 4127 0200 0E000000 		.4byte	.LBB197
 4128 0204 12000000 		.4byte	.LBE197
 4129 0208 00000000 		.4byte	0
 4130 020c 00000000 		.4byte	0
 4131 0210 0A000000 		.4byte	.LBB187
 4132 0214 0C000000 		.4byte	.LBE187
 4133 0218 0E000000 		.4byte	.LBB190
 4134 021c 12000000 		.4byte	.LBE190
 4135 0220 00000000 		.4byte	0
 4136 0224 00000000 		.4byte	0
 4137 0228 00000000 		.4byte	.LFB219
 4138 022c 0A000000 		.4byte	.LFE219
 4139 0230 00000000 		.4byte	.LFB220
 4140 0234 24000000 		.4byte	.LFE220
 4141 0238 00000000 		.4byte	.LFB221
 4142 023c 16000000 		.4byte	.LFE221
 4143 0240 00000000 		.4byte	.LFB222
 4144 0244 2C000000 		.4byte	.LFE222
 4145 0248 00000000 		.4byte	.LFB223
 4146 024c 08000000 		.4byte	.LFE223
 4147 0250 00000000 		.4byte	.LFB224
 4148 0254 14000000 		.4byte	.LFE224
 4149 0258 00000000 		.4byte	0
 4150 025c 00000000 		.4byte	0
 4151              		.section	.debug_line,"",%progbits
 4152              	.Ldebug_line0:
 4153 0000 8D060000 		.section	.debug_str,"MS",%progbits,1
 4153      03001703 
 4153      00000201 
 4153      FB0E0D00 
 4153      01010101 
 4154              	.LASF117:
 4155 0000 63665F6F 		.ascii	"cf_off_older\000"
 4155      66665F6F 
 4155      6C646572 
ARM GAS  C:\Users\USER\AppData\Local\Temp\ccE3RbfQ.s 			page 74


 4155      00
 4156              	.LASF56:
 4157 000d 72656164 		.ascii	"ready_list_t\000"
 4157      795F6C69 
 4157      73745F74 
 4157      00
 4158              	.LASF2:
 4159 001a 73697A65 		.ascii	"size_t\000"
 4159      5F7400
 4160              	.LASF92:
 4161 0021 7264796D 		.ascii	"rdymsg\000"
 4161      736700
 4162              	.LASF19:
 4163 0028 75696E74 		.ascii	"uint64_t\000"
 4163      36345F74 
 4163      00
 4164              	.LASF3:
 4165 0031 5F5F7569 		.ascii	"__uint8_t\000"
 4165      6E74385F 
 4165      7400
 4166              	.LASF89:
 4167 003b 706F7274 		.ascii	"port_intctx\000"
 4167      5F696E74 
 4167      63747800 
 4168              	.LASF75:
 4169 0047 73797374 		.ascii	"system_debug_t\000"
 4169      656D5F64 
 4169      65627567 
 4169      5F7400
 4170              	.LASF142:
 4171 0056 70726F76 		.ascii	"provider\000"
 4171      69646572 
 4171      00
 4172              	.LASF147:
 4173 005f 706F7274 		.ascii	"port_lock\000"
 4173      5F6C6F63 
 4173      6B00
 4174              	.LASF128:
 4175 0069 6D656D67 		.ascii	"memgetfunc_t\000"
 4175      65746675 
 4175      6E635F74 
 4175      00
 4176              	.LASF14:
 4177 0076 6C6F6E67 		.ascii	"long long unsigned int\000"
 4177      206C6F6E 
 4177      6720756E 
 4177      7369676E 
 4177      65642069 
 4178              	.LASF113:
 4179 008d 63685F74 		.ascii	"ch_threadsize\000"
 4179      68726561 
 4179      6473697A 
 4179      6500
 4180              	.LASF93:
 4181 009b 65786974 		.ascii	"exitcode\000"
 4181      636F6465 
 4181      00
ARM GAS  C:\Users\USER\AppData\Local\Temp\ccE3RbfQ.s 			page 75


 4182              	.LASF82:
 4183 00a4 6D61696E 		.ascii	"mainthread\000"
 4183      74687265 
 4183      616400
 4184              	.LASF72:
 4185 00af 76697274 		.ascii	"virtual_timers_list_t\000"
 4185      75616C5F 
 4185      74696D65 
 4185      72735F6C 
 4185      6973745F 
 4186              	.LASF84:
 4187 00c5 49544D5F 		.ascii	"ITM_RxBuffer\000"
 4187      52784275 
 4187      66666572 
 4187      00
 4188              	.LASF55:
 4189 00d2 63685F74 		.ascii	"ch_threads_queue\000"
 4189      68726561 
 4189      64735F71 
 4189      75657565 
 4189      00
 4190              	.LASF33:
 4191 00e3 705F7072 		.ascii	"p_prio\000"
 4191      696F00
 4192              	.LASF120:
 4193 00ea 63665F6F 		.ascii	"cf_off_state\000"
 4193      66665F73 
 4193      74617465 
 4193      00
 4194              	.LASF12:
 4195 00f7 6C6F6E67 		.ascii	"long long int\000"
 4195      206C6F6E 
 4195      6720696E 
 4195      7400
 4196              	.LASF1:
 4197 0105 7369676E 		.ascii	"signed char\000"
 4197      65642063 
 4197      68617200 
 4198              	.LASF119:
 4199 0111 63665F6F 		.ascii	"cf_off_stklimit\000"
 4199      66665F73 
 4199      746B6C69 
 4199      6D697400 
 4200              	.LASF121:
 4201 0121 63665F6F 		.ascii	"cf_off_flags\000"
 4201      66665F66 
 4201      6C616773 
 4201      00
 4202              	.LASF49:
 4203 012e 705F6D70 		.ascii	"p_mpool\000"
 4203      6F6F6C00 
 4204              	.LASF103:
 4205 0136 6D5F7175 		.ascii	"m_queue\000"
 4205      65756500 
 4206              	.LASF81:
 4207 013e 76746C69 		.ascii	"vtlist\000"
 4207      737400
ARM GAS  C:\Users\USER\AppData\Local\Temp\ccE3RbfQ.s 			page 76


 4208              	.LASF146:
 4209 0145 706F7274 		.ascii	"port_unlock\000"
 4209      5F756E6C 
 4209      6F636B00 
 4210              	.LASF24:
 4211 0151 74736C69 		.ascii	"tslices_t\000"
 4211      6365735F 
 4211      7400
 4212              	.LASF95:
 4213 015b 77747472 		.ascii	"wttrp\000"
 4213      7000
 4214              	.LASF79:
 4215 0161 63685F73 		.ascii	"ch_system\000"
 4215      79737465 
 4215      6D00
 4216              	.LASF9:
 4217 016b 6C6F6E67 		.ascii	"long int\000"
 4217      20696E74 
 4217      00
 4218              	.LASF22:
 4219 0174 74737461 		.ascii	"tstate_t\000"
 4219      74655F74 
 4219      00
 4220              	.LASF125:
 4221 017d 63686465 		.ascii	"chdebug_t\000"
 4221      6275675F 
 4221      7400
 4222              	.LASF35:
 4223 0187 705F6E65 		.ascii	"p_newer\000"
 4223      77657200 
 4224              	.LASF100:
 4225 018f 735F7175 		.ascii	"s_queue\000"
 4225      65756500 
 4226              	.LASF61:
 4227 0197 725F6E65 		.ascii	"r_newer\000"
 4227      77657200 
 4228              	.LASF133:
 4229 019f 6D705F70 		.ascii	"mp_provider\000"
 4229      726F7669 
 4229      64657200 
 4230              	.LASF86:
 4231 01ab 72656761 		.ascii	"regarm_t\000"
 4231      726D5F74 
 4231      00
 4232              	.LASF68:
 4233 01b4 76745F70 		.ascii	"vt_prev\000"
 4233      72657600 
 4234              	.LASF150:
 4235 01bc 474E5520 		.ascii	"GNU C99 8.2.1 20181213 (release) [gcc-8-branch revi"
 4235      43393920 
 4235      382E322E 
 4235      31203230 
 4235      31383132 
 4236 01ef 73696F6E 		.ascii	"sion 267074] -mcpu=cortex-m4 -mfloat-abi=hard -mfpu"
 4236      20323637 
 4236      3037345D 
 4236      202D6D63 
ARM GAS  C:\Users\USER\AppData\Local\Temp\ccE3RbfQ.s 			page 77


 4236      70753D63 
 4237 0222 3D667076 		.ascii	"=fpv4-sp-d16 -mno-thumb-interwork -mthumb -march=ar"
 4237      342D7370 
 4237      2D643136 
 4237      202D6D6E 
 4237      6F2D7468 
 4238 0255 6D763765 		.ascii	"mv7e-m+fp -ggdb -O2 -std=gnu99 -fomit-frame-pointer"
 4238      2D6D2B66 
 4238      70202D67 
 4238      67646220 
 4238      2D4F3220 
 4239 0288 202D6661 		.ascii	" -falign-functions=16 -ffunction-sections -fdata-se"
 4239      6C69676E 
 4239      2D66756E 
 4239      6374696F 
 4239      6E733D31 
 4240 02bb 6374696F 		.ascii	"ctions -fno-common -fsingle-precision-constant\000"
 4240      6E73202D 
 4240      666E6F2D 
 4240      636F6D6D 
 4240      6F6E202D 
 4241              	.LASF127:
 4242 02ea 6D757465 		.ascii	"mutex_t\000"
 4242      785F7400 
 4243              	.LASF149:
 4244 02f2 76616C75 		.ascii	"value\000"
 4244      6500
 4245              	.LASF83:
 4246 02f8 69646C65 		.ascii	"idle_thread_wa\000"
 4246      5F746872 
 4246      6561645F 
 4246      776100
 4247              	.LASF28:
 4248 0307 636E745F 		.ascii	"cnt_t\000"
 4248      7400
 4249              	.LASF0:
 4250 030d 756E7369 		.ascii	"unsigned int\000"
 4250      676E6564 
 4250      20696E74 
 4250      00
 4251              	.LASF67:
 4252 031a 76745F6E 		.ascii	"vt_next\000"
 4252      65787400 
 4253              	.LASF16:
 4254 0322 75696E74 		.ascii	"uint16_t\000"
 4254      31365F74 
 4254      00
 4255              	.LASF85:
 4256 032b 53797374 		.ascii	"SystemCoreClock\000"
 4256      656D436F 
 4256      7265436C 
 4256      6F636B00 
 4257              	.LASF42:
 4258 033b 705F7469 		.ascii	"p_time\000"
 4258      6D6500
 4259              	.LASF96:
 4260 0342 77747365 		.ascii	"wtsemp\000"
ARM GAS  C:\Users\USER\AppData\Local\Temp\ccE3RbfQ.s 			page 78


 4260      6D7000
 4261              	.LASF69:
 4262 0349 76745F64 		.ascii	"vt_delta\000"
 4262      656C7461 
 4262      00
 4263              	.LASF44:
 4264 0352 705F6D73 		.ascii	"p_msgqueue\000"
 4264      67717565 
 4264      756500
 4265              	.LASF126:
 4266 035d 63685F64 		.ascii	"ch_debug\000"
 4266      65627567 
 4266      00
 4267              	.LASF134:
 4268 0366 6D656D6F 		.ascii	"memory_pool_t\000"
 4268      72795F70 
 4268      6F6F6C5F 
 4268      7400
 4269              	.LASF101:
 4270 0374 735F636E 		.ascii	"s_cnt\000"
 4270      7400
 4271              	.LASF88:
 4272 037a 636F6E74 		.ascii	"context\000"
 4272      65787400 
 4273              	.LASF7:
 4274 0382 73686F72 		.ascii	"short unsigned int\000"
 4274      7420756E 
 4274      7369676E 
 4274      65642069 
 4274      6E7400
 4275              	.LASF52:
 4276 0395 63685F74 		.ascii	"ch_thread\000"
 4276      68726561 
 4276      6400
 4277              	.LASF26:
 4278 039f 6D73675F 		.ascii	"msg_t\000"
 4278      7400
 4279              	.LASF78:
 4280 03a5 63685F73 		.ascii	"ch_system_t\000"
 4280      79737465 
 4280      6D5F7400 
 4281              	.LASF143:
 4282 03b1 6368506F 		.ascii	"chPoolAdd\000"
 4282      6F6C4164 
 4282      6400
 4283              	.LASF124:
 4284 03bb 63665F6F 		.ascii	"cf_off_time\000"
 4284      66665F74 
 4284      696D6500 
 4285              	.LASF140:
 4286 03c7 6368506F 		.ascii	"chPoolObjectInit\000"
 4286      6F6C4F62 
 4286      6A656374 
 4286      496E6974 
 4286      00
 4287              	.LASF57:
 4288 03d8 63685F72 		.ascii	"ch_ready_list\000"
ARM GAS  C:\Users\USER\AppData\Local\Temp\ccE3RbfQ.s 			page 79


 4288      65616479 
 4288      5F6C6973 
 4288      7400
 4289              	.LASF27:
 4290 03e6 6576656E 		.ascii	"eventmask_t\000"
 4290      746D6173 
 4290      6B5F7400 
 4291              	.LASF8:
 4292 03f2 5F5F696E 		.ascii	"__int32_t\000"
 4292      7433325F 
 4292      7400
 4293              	.LASF87:
 4294 03fc 73746B61 		.ascii	"stkalign_t\000"
 4294      6C69676E 
 4294      5F7400
 4295              	.LASF51:
 4296 0407 74687265 		.ascii	"threads_list_t\000"
 4296      6164735F 
 4296      6C697374 
 4296      5F7400
 4297              	.LASF108:
 4298 0416 63685F7A 		.ascii	"ch_zero\000"
 4298      65726F00 
 4299              	.LASF122:
 4300 041e 63665F6F 		.ascii	"cf_off_refs\000"
 4300      66665F72 
 4300      65667300 
 4301              	.LASF59:
 4302 042a 725F7072 		.ascii	"r_prio\000"
 4302      696F00
 4303              	.LASF43:
 4304 0431 705F7761 		.ascii	"p_waiting\000"
 4304      6974696E 
 4304      6700
 4305              	.LASF20:
 4306 043b 7274636E 		.ascii	"rtcnt_t\000"
 4306      745F7400 
 4307              	.LASF73:
 4308 0443 63685F76 		.ascii	"ch_virtual_timers_list\000"
 4308      69727475 
 4308      616C5F74 
 4308      696D6572 
 4308      735F6C69 
 4309              	.LASF112:
 4310 045a 63685F74 		.ascii	"ch_timesize\000"
 4310      696D6573 
 4310      697A6500 
 4311              	.LASF154:
 4312 0466 6368506F 		.ascii	"chPoolAllocI\000"
 4312      6F6C416C 
 4312      6C6F6349 
 4312      00
 4313              	.LASF137:
 4314 0473 6368506F 		.ascii	"chPoolFreeI\000"
 4314      6F6C4672 
 4314      65654900 
 4315              	.LASF118:
ARM GAS  C:\Users\USER\AppData\Local\Temp\ccE3RbfQ.s 			page 80


 4316 047f 63665F6F 		.ascii	"cf_off_name\000"
 4316      66665F6E 
 4316      616D6500 
 4317              	.LASF36:
 4318 048b 705F6F6C 		.ascii	"p_older\000"
 4318      64657200 
 4319              	.LASF60:
 4320 0493 725F6374 		.ascii	"r_ctx\000"
 4320      7800
 4321              	.LASF34:
 4322 0499 705F6374 		.ascii	"p_ctx\000"
 4322      7800
 4323              	.LASF132:
 4324 049f 6D705F6F 		.ascii	"mp_object_size\000"
 4324      626A6563 
 4324      745F7369 
 4324      7A6500
 4325              	.LASF91:
 4326 04ae 746D5F63 		.ascii	"tm_calibration_t\000"
 4326      616C6962 
 4326      72617469 
 4326      6F6E5F74 
 4326      00
 4327              	.LASF63:
 4328 04bf 725F6375 		.ascii	"r_current\000"
 4328      7272656E 
 4328      7400
 4329              	.LASF62:
 4330 04c9 725F6F6C 		.ascii	"r_older\000"
 4330      64657200 
 4331              	.LASF13:
 4332 04d1 5F5F7569 		.ascii	"__uint64_t\000"
 4332      6E743634 
 4332      5F7400
 4333              	.LASF130:
 4334 04dc 70685F6E 		.ascii	"ph_next\000"
 4334      65787400 
 4335              	.LASF23:
 4336 04e4 74726566 		.ascii	"trefs_t\000"
 4336      735F7400 
 4337              	.LASF111:
 4338 04ec 63685F70 		.ascii	"ch_ptrsize\000"
 4338      74727369 
 4338      7A6500
 4339              	.LASF65:
 4340 04f7 76697274 		.ascii	"virtual_timer_t\000"
 4340      75616C5F 
 4340      74696D65 
 4340      725F7400 
 4341              	.LASF32:
 4342 0507 705F7072 		.ascii	"p_prev\000"
 4342      657600
 4343              	.LASF25:
 4344 050e 74707269 		.ascii	"tprio_t\000"
 4344      6F5F7400 
 4345              	.LASF76:
 4346 0516 63685F73 		.ascii	"ch_system_debug\000"
ARM GAS  C:\Users\USER\AppData\Local\Temp\ccE3RbfQ.s 			page 81


 4346      79737465 
 4346      6D5F6465 
 4346      62756700 
 4347              	.LASF17:
 4348 0526 696E7433 		.ascii	"int32_t\000"
 4348      325F7400 
 4349              	.LASF4:
 4350 052e 756E7369 		.ascii	"unsigned char\000"
 4350      676E6564 
 4350      20636861 
 4350      7200
 4351              	.LASF47:
 4352 053c 705F6D74 		.ascii	"p_mtxlist\000"
 4352      786C6973 
 4352      7400
 4353              	.LASF5:
 4354 0546 73686F72 		.ascii	"short int\000"
 4354      7420696E 
 4354      7400
 4355              	.LASF38:
 4356 0550 705F7374 		.ascii	"p_state\000"
 4356      61746500 
 4357              	.LASF41:
 4358 0558 705F7072 		.ascii	"p_preempt\000"
 4358      65656D70 
 4358      7400
 4359              	.LASF110:
 4360 0562 63685F76 		.ascii	"ch_version\000"
 4360      65727369 
 4360      6F6E00
 4361              	.LASF98:
 4362 056d 65776D61 		.ascii	"ewmask\000"
 4362      736B00
 4363              	.LASF31:
 4364 0574 705F6E65 		.ascii	"p_next\000"
 4364      787400
 4365              	.LASF21:
 4366 057b 746D6F64 		.ascii	"tmode_t\000"
 4366      655F7400 
 4367              	.LASF123:
 4368 0583 63665F6F 		.ascii	"cf_off_preempt\000"
 4368      66665F70 
 4368      7265656D 
 4368      707400
 4369              	.LASF138:
 4370 0592 5F5F6675 		.ascii	"__func__\000"
 4370      6E635F5F 
 4370      00
 4371              	.LASF145:
 4372 059b 63685379 		.ascii	"chSysLock\000"
 4372      734C6F63 
 4372      6B00
 4373              	.LASF135:
 4374 05a5 6F626A70 		.ascii	"objp\000"
 4374      00
 4375              	.LASF54:
 4376 05aa 74687265 		.ascii	"threads_queue_t\000"
ARM GAS  C:\Users\USER\AppData\Local\Temp\ccE3RbfQ.s 			page 82


 4376      6164735F 
 4376      71756575 
 4376      655F7400 
 4377              	.LASF66:
 4378 05ba 63685F76 		.ascii	"ch_virtual_timer\000"
 4378      69727475 
 4378      616C5F74 
 4378      696D6572 
 4378      00
 4379              	.LASF116:
 4380 05cb 63665F6F 		.ascii	"cf_off_newer\000"
 4380      66665F6E 
 4380      65776572 
 4380      00
 4381              	.LASF99:
 4382 05d8 63685F73 		.ascii	"ch_semaphore\000"
 4382      656D6170 
 4382      686F7265 
 4382      00
 4383              	.LASF46:
 4384 05e5 705F6570 		.ascii	"p_epending\000"
 4384      656E6469 
 4384      6E6700
 4385              	.LASF18:
 4386 05f0 75696E74 		.ascii	"uint32_t\000"
 4386      33325F74 
 4386      00
 4387              	.LASF114:
 4388 05f9 63665F6F 		.ascii	"cf_off_prio\000"
 4388      66665F70 
 4388      72696F00 
 4389              	.LASF58:
 4390 0605 725F7175 		.ascii	"r_queue\000"
 4390      65756500 
 4391              	.LASF53:
 4392 060d 63685F74 		.ascii	"ch_threads_list\000"
 4392      68726561 
 4392      64735F6C 
 4392      69737400 
 4393              	.LASF109:
 4394 061d 63685F73 		.ascii	"ch_size\000"
 4394      697A6500 
 4395              	.LASF11:
 4396 0625 6C6F6E67 		.ascii	"long unsigned int\000"
 4396      20756E73 
 4396      69676E65 
 4396      6420696E 
 4396      7400
 4397              	.LASF106:
 4398 0637 63686172 		.ascii	"char\000"
 4398      00
 4399              	.LASF97:
 4400 063c 77746D74 		.ascii	"wtmtxp\000"
 4400      787000
 4401              	.LASF6:
 4402 0643 5F5F7569 		.ascii	"__uint16_t\000"
 4402      6E743136 
ARM GAS  C:\Users\USER\AppData\Local\Temp\ccE3RbfQ.s 			page 83


 4402      5F7400
 4403              	.LASF30:
 4404 064e 74687265 		.ascii	"thread_t\000"
 4404      61645F74 
 4404      00
 4405              	.LASF105:
 4406 0657 6D5F6E65 		.ascii	"m_next\000"
 4406      787400
 4407              	.LASF29:
 4408 065e 73797374 		.ascii	"systime_t\000"
 4408      696D655F 
 4408      7400
 4409              	.LASF48:
 4410 0668 705F7265 		.ascii	"p_realprio\000"
 4410      616C7072 
 4410      696F00
 4411              	.LASF64:
 4412 0673 76746675 		.ascii	"vtfunc_t\000"
 4412      6E635F74 
 4412      00
 4413              	.LASF10:
 4414 067c 5F5F7569 		.ascii	"__uint32_t\000"
 4414      6E743332 
 4414      5F7400
 4415              	.LASF148:
 4416 0687 5F5F7365 		.ascii	"__set_BASEPRI\000"
 4416      745F4241 
 4416      53455052 
 4416      4900
 4417              	.LASF77:
 4418 0695 70616E69 		.ascii	"panic_msg\000"
 4418      635F6D73 
 4418      6700
 4419              	.LASF90:
 4420 069f 6F666673 		.ascii	"offset\000"
 4420      657400
 4421              	.LASF102:
 4422 06a6 63685F6D 		.ascii	"ch_mutex\000"
 4422      75746578 
 4422      00
 4423              	.LASF131:
 4424 06af 6D705F6E 		.ascii	"mp_next\000"
 4424      65787400 
 4425              	.LASF151:
 4426 06b7 7372632F 		.ascii	"src/ChibiOS_3.0.2/os/rt/src/chmempools.c\000"
 4426      43686962 
 4426      694F535F 
 4426      332E302E 
 4426      322F6F73 
 4427              	.LASF45:
 4428 06e0 705F6D73 		.ascii	"p_msg\000"
 4428      6700
 4429              	.LASF71:
 4430 06e6 76745F70 		.ascii	"vt_par\000"
 4430      617200
 4431              	.LASF115:
 4432 06ed 63665F6F 		.ascii	"cf_off_ctx\000"
ARM GAS  C:\Users\USER\AppData\Local\Temp\ccE3RbfQ.s 			page 84


 4432      66665F63 
 4432      747800
 4433              	.LASF129:
 4434 06f8 706F6F6C 		.ascii	"pool_header\000"
 4434      5F686561 
 4434      64657200 
 4435              	.LASF40:
 4436 0704 705F7265 		.ascii	"p_refs\000"
 4436      667300
 4437              	.LASF152:
 4438 070b 443A5C67 		.ascii	"D:\\git\\oroca_bldc_dev\\oroca_bldc_FW\\oroca_bldc_"
 4438      69745C6F 
 4438      726F6361 
 4438      5F626C64 
 4438      635F6465 
 4439 073a 63686962 		.ascii	"chibios\000"
 4439      696F7300 
 4440              	.LASF80:
 4441 0742 726C6973 		.ascii	"rlist\000"
 4441      7400
 4442              	.LASF15:
 4443 0748 75696E74 		.ascii	"uint8_t\000"
 4443      385F7400 
 4444              	.LASF153:
 4445 0750 6368506F 		.ascii	"chPoolAlloc\000"
 4445      6F6C416C 
 4445      6C6F6300 
 4446              	.LASF136:
 4447 075c 6368506F 		.ascii	"chPoolFree\000"
 4447      6F6C4672 
 4447      656500
 4448              	.LASF50:
 4449 0767 74687265 		.ascii	"thread_reference_t\000"
 4449      61645F72 
 4449      65666572 
 4449      656E6365 
 4449      5F7400
 4450              	.LASF94:
 4451 077a 77746F62 		.ascii	"wtobjp\000"
 4451      6A7000
 4452              	.LASF37:
 4453 0781 705F6E61 		.ascii	"p_name\000"
 4453      6D6500
 4454              	.LASF141:
 4455 0788 73697A65 		.ascii	"size\000"
 4455      00
 4456              	.LASF74:
 4457 078d 76745F73 		.ascii	"vt_systime\000"
 4457      79737469 
 4457      6D6500
 4458              	.LASF39:
 4459 0798 705F666C 		.ascii	"p_flags\000"
 4459      61677300 
 4460              	.LASF144:
 4461 07a0 63685379 		.ascii	"chSysUnlock\000"
 4461      73556E6C 
 4461      6F636B00 
ARM GAS  C:\Users\USER\AppData\Local\Temp\ccE3RbfQ.s 			page 85


 4462              	.LASF139:
 4463 07ac 6368506F 		.ascii	"chPoolLoadArray\000"
 4463      6F6C4C6F 
 4463      61644172 
 4463      72617900 
 4464              	.LASF104:
 4465 07bc 6D5F6F77 		.ascii	"m_owner\000"
 4465      6E657200 
 4466              	.LASF107:
 4467 07c4 63685F69 		.ascii	"ch_identifier\000"
 4467      64656E74 
 4467      69666965 
 4467      7200
 4468              	.LASF70:
 4469 07d2 76745F66 		.ascii	"vt_func\000"
 4469      756E6300 
 4470              		.ident	"GCC: (GNU Tools for Arm Embedded Processors 8-2018-q4-major) 8.2.1 20181213 (release) [gcc
ARM GAS  C:\Users\USER\AppData\Local\Temp\ccE3RbfQ.s 			page 86


DEFINED SYMBOLS
                            *ABS*:00000000 chmempools.c
C:\Users\USER\AppData\Local\Temp\ccE3RbfQ.s:18     .text.chPoolObjectInit:00000000 $t
C:\Users\USER\AppData\Local\Temp\ccE3RbfQ.s:27     .text.chPoolObjectInit:00000000 chPoolObjectInit
C:\Users\USER\AppData\Local\Temp\ccE3RbfQ.s:53     .text.chPoolLoadArray:00000000 $t
C:\Users\USER\AppData\Local\Temp\ccE3RbfQ.s:61     .text.chPoolLoadArray:00000000 chPoolLoadArray
C:\Users\USER\AppData\Local\Temp\ccE3RbfQ.s:267    .text.chPoolAllocI:00000000 $t
C:\Users\USER\AppData\Local\Temp\ccE3RbfQ.s:275    .text.chPoolAllocI:00000000 chPoolAllocI
C:\Users\USER\AppData\Local\Temp\ccE3RbfQ.s:330    .text.chPoolAlloc:00000000 $t
C:\Users\USER\AppData\Local\Temp\ccE3RbfQ.s:338    .text.chPoolAlloc:00000000 chPoolAlloc
C:\Users\USER\AppData\Local\Temp\ccE3RbfQ.s:547    .text.chPoolFreeI:00000000 $t
C:\Users\USER\AppData\Local\Temp\ccE3RbfQ.s:555    .text.chPoolFreeI:00000000 chPoolFreeI
C:\Users\USER\AppData\Local\Temp\ccE3RbfQ.s:580    .text.chPoolFree:00000000 $t
C:\Users\USER\AppData\Local\Temp\ccE3RbfQ.s:588    .text.chPoolFree:00000000 chPoolFree

NO UNDEFINED SYMBOLS
