ARM GAS  C:\Users\USER\AppData\Local\Temp\ccLH1kGg.s 			page 1


   1              		.cpu cortex-m4
   2              		.eabi_attribute 27, 1
   3              		.eabi_attribute 28, 1
   4              		.eabi_attribute 20, 1
   5              		.eabi_attribute 21, 1
   6              		.eabi_attribute 23, 3
   7              		.eabi_attribute 24, 1
   8              		.eabi_attribute 25, 1
   9              		.eabi_attribute 26, 1
  10              		.eabi_attribute 30, 2
  11              		.eabi_attribute 34, 1
  12              		.eabi_attribute 18, 4
  13              		.file	"chmemcore.c"
  14              		.text
  15              	.Ltext0:
  16              		.cfi_sections	.debug_frame
  17              		.section	.text._core_init,"ax",%progbits
  18              		.align	1
  19              		.p2align 4,,15
  20              		.global	_core_init
  21              		.arch armv7e-m
  22              		.syntax unified
  23              		.thumb
  24              		.thumb_func
  25              		.fpu fpv4-sp-d16
  26              		.type	_core_init, %function
  27              	_core_init:
  28              	.LFB219:
  29              		.file 1 "src/ChibiOS_3.0.2/os/rt/src/chmemcore.c"
  30              		.loc 1 78 23 view -0
  31              		.cfi_startproc
  32              		@ args = 0, pretend = 0, frame = 0
  33              		@ frame_needed = 0, uses_anonymous_args = 0
  34              		@ link register save eliminated.
  35              		.loc 1 80 3 view .LVU1
  36              		.loc 1 81 3 view .LVU2
  37              		.loc 1 84 3 view .LVU3
  38              		.loc 1 84 24 is_stmt 0 view .LVU4
  39 0000 054A     		ldr	r2, .L3
  40              		.loc 1 85 23 view .LVU5
  41 0002 064B     		ldr	r3, .L3+4
  42              		.loc 1 84 11 view .LVU6
  43 0004 0648     		ldr	r0, .L3+8
  44              		.loc 1 85 10 view .LVU7
  45 0006 0749     		ldr	r1, .L3+12
  46              		.loc 1 84 24 view .LVU8
  47 0008 22F00702 		bic	r2, r2, #7
  48              		.loc 1 85 23 view .LVU9
  49 000c 23F00703 		bic	r3, r3, #7
  50              		.loc 1 84 11 view .LVU10
  51 0010 0260     		str	r2, [r0]
  52              		.loc 1 85 3 is_stmt 1 view .LVU11
  53              		.loc 1 85 10 is_stmt 0 view .LVU12
  54 0012 0B60     		str	r3, [r1]
  55              		.loc 1 95 1 view .LVU13
  56 0014 7047     		bx	lr
  57              	.L4:
ARM GAS  C:\Users\USER\AppData\Local\Temp\ccLH1kGg.s 			page 2


  58 0016 00BF     		.align	2
  59              	.L3:
  60 0018 07000000 		.word	__heap_base__+7
  61 001c 00000000 		.word	__heap_end__
  62 0020 00000000 		.word	.LANCHOR0
  63 0024 00000000 		.word	.LANCHOR1
  64              		.cfi_endproc
  65              	.LFE219:
  66              		.size	_core_init, .-_core_init
  67              		.section	.text.chCoreAlloc,"ax",%progbits
  68              		.align	1
  69              		.p2align 4,,15
  70              		.global	chCoreAlloc
  71              		.syntax unified
  72              		.thumb
  73              		.thumb_func
  74              		.fpu fpv4-sp-d16
  75              		.type	chCoreAlloc, %function
  76              	chCoreAlloc:
  77              	.LVL0:
  78              	.LFB220:
  79              		.loc 1 109 32 is_stmt 1 view -0
  80              		.cfi_startproc
  81              		@ args = 0, pretend = 0, frame = 0
  82              		@ frame_needed = 0, uses_anonymous_args = 0
  83              		@ link register save eliminated.
  84              		.loc 1 110 3 view .LVU15
  85              		.loc 1 112 3 view .LVU16
  86              	.LBB26:
  87              	.LBI26:
  88              		.file 2 "src/ChibiOS_3.0.2/os/rt/include/chsys.h"
  89              		.loc 2 346 20 view .LVU17
  90              	.LBE26:
  91              		.loc 2 348 3 view .LVU18
  92              	.LBB34:
  93              	.LBB27:
  94              	.LBI27:
  95              		.file 3 "src/ChibiOS_3.0.2/os/rt/ports/ARMCMx/chcore_v7m.h"
  96              		.loc 3 444 20 view .LVU19
  97              	.LBE27:
  98              	.LBE34:
  99              		.loc 3 447 3 view .LVU20
 100              	.LBB35:
 101              	.LBB32:
 102              	.LBB28:
 103              	.LBI28:
 104              		.file 4 "src/ChibiOS_3.0.2/os/ext/CMSIS/include/core_cmFunc.h"
 105              		.loc 4 544 57 view .LVU21
 106              	.LBB29:
 107              		.loc 4 546 3 view .LVU22
 108              	.LBE29:
 109              	.LBE28:
 110              	.LBE32:
 111              	.LBE35:
 112              		.loc 1 109 32 is_stmt 0 view .LVU23
 113 0000 0346     		mov	r3, r0
 114              	.LBB36:
ARM GAS  C:\Users\USER\AppData\Local\Temp\ccLH1kGg.s 			page 3


 115              	.LBB33:
 116              	.LBB31:
 117              	.LBB30:
 118              		.loc 4 546 3 view .LVU24
 119 0002 2022     		movs	r2, #32
 120              		.syntax unified
 121              	@ 546 "src/ChibiOS_3.0.2/os/ext/CMSIS/include/core_cmFunc.h" 1
 122 0004 82F31188 		MSR basepri, r2
 123              	@ 0 "" 2
 124              	.LVL1:
 125              		.loc 4 546 3 view .LVU25
 126              		.thumb
 127              		.syntax unified
 128              	.LBE30:
 129              	.LBE31:
 130              	.LBE33:
 131              	.LBE36:
 132              		.loc 2 349 34 is_stmt 1 view .LVU26
 133              		.loc 2 350 20 view .LVU27
 134              		.loc 1 113 3 view .LVU28
 135              	.LBB37:
 136              	.LBI37:
 137              		.loc 1 131 7 view .LVU29
 138              	.LBB38:
 139              		.loc 1 132 3 view .LVU30
 140              		.loc 1 134 21 view .LVU31
 141              		.loc 1 136 3 view .LVU32
 142              		.loc 1 138 23 is_stmt 0 view .LVU33
 143 0008 0849     		ldr	r1, .L8
 144 000a 094A     		ldr	r2, .L8+4
 145 000c 0868     		ldr	r0, [r1]
 146              	.LVL2:
 147              		.loc 1 138 23 view .LVU34
 148 000e 1268     		ldr	r2, [r2]
 149              		.loc 1 136 10 view .LVU35
 150 0010 0733     		adds	r3, r3, #7
 151              	.LVL3:
 152              		.loc 1 136 8 view .LVU36
 153 0012 23F00703 		bic	r3, r3, #7
 154              	.LVL4:
 155              		.loc 1 138 3 is_stmt 1 view .LVU37
 156              		.loc 1 138 23 is_stmt 0 view .LVU38
 157 0016 121A     		subs	r2, r2, r0
 158              		.loc 1 138 6 view .LVU39
 159 0018 9342     		cmp	r3, r2
 160              		.loc 1 142 3 is_stmt 1 view .LVU40
 161              	.LVL5:
 162              		.loc 1 143 3 view .LVU41
 163              		.loc 1 143 11 is_stmt 0 view .LVU42
 164 001a 9ABF     		itte	ls
 165 001c 1B18     		addls	r3, r3, r0
 166              	.LVL6:
 167              		.loc 1 143 11 view .LVU43
 168 001e 0B60     		strls	r3, [r1]
 169              		.loc 1 145 3 is_stmt 1 view .LVU44
 170              		.loc 1 140 12 is_stmt 0 view .LVU45
 171 0020 0020     		movhi	r0, #0
ARM GAS  C:\Users\USER\AppData\Local\Temp\ccLH1kGg.s 			page 4


 172              	.LVL7:
 173              		.loc 1 140 12 view .LVU46
 174              	.LBE38:
 175              	.LBE37:
 176              		.loc 1 114 3 is_stmt 1 view .LVU47
 177              	.LBB39:
 178              	.LBI39:
 179              		.loc 2 358 20 view .LVU48
 180              	.LBB40:
 181              		.loc 2 360 22 view .LVU49
 182              		.loc 2 361 33 view .LVU50
 183              		.loc 2 367 3 view .LVU51
 184              		.loc 2 367 3 view .LVU52
 185              		.loc 2 371 3 view .LVU53
 186              	.LBB41:
 187              	.LBI41:
 188              		.loc 3 458 20 view .LVU54
 189              	.LBE41:
 190              	.LBE40:
 191              	.LBE39:
 192              		.loc 3 461 3 view .LVU55
 193              	.LBB46:
 194              	.LBB45:
 195              	.LBB44:
 196              	.LBB42:
 197              	.LBI42:
 198              		.loc 4 544 57 view .LVU56
 199              	.LBB43:
 200              		.loc 4 546 3 view .LVU57
 201 0022 0023     		movs	r3, #0
 202              		.syntax unified
 203              	@ 546 "src/ChibiOS_3.0.2/os/ext/CMSIS/include/core_cmFunc.h" 1
 204 0024 83F31188 		MSR basepri, r3
 205              	@ 0 "" 2
 206              	.LVL8:
 207              		.loc 4 546 3 is_stmt 0 view .LVU58
 208              		.thumb
 209              		.syntax unified
 210              	.LBE43:
 211              	.LBE42:
 212              	.LBE44:
 213              	.LBE45:
 214              	.LBE46:
 215              		.loc 1 116 3 is_stmt 1 view .LVU59
 216              		.loc 1 117 1 is_stmt 0 view .LVU60
 217 0028 7047     		bx	lr
 218              	.L9:
 219 002a 00BF     		.align	2
 220              	.L8:
 221 002c 00000000 		.word	.LANCHOR0
 222 0030 00000000 		.word	.LANCHOR1
 223              		.cfi_endproc
 224              	.LFE220:
 225              		.size	chCoreAlloc, .-chCoreAlloc
 226              		.section	.text.chCoreAllocI,"ax",%progbits
 227              		.align	1
 228              		.p2align 4,,15
ARM GAS  C:\Users\USER\AppData\Local\Temp\ccLH1kGg.s 			page 5


 229              		.global	chCoreAllocI
 230              		.syntax unified
 231              		.thumb
 232              		.thumb_func
 233              		.fpu fpv4-sp-d16
 234              		.type	chCoreAllocI, %function
 235              	chCoreAllocI:
 236              	.LVL9:
 237              	.LFB221:
 238              		.loc 1 131 33 is_stmt 1 view -0
 239              		.cfi_startproc
 240              		@ args = 0, pretend = 0, frame = 0
 241              		@ frame_needed = 0, uses_anonymous_args = 0
 242              		@ link register save eliminated.
 243              		.loc 1 132 3 view .LVU62
 244              		.loc 1 134 21 view .LVU63
 245              		.loc 1 136 3 view .LVU64
 246              		.loc 1 138 23 is_stmt 0 view .LVU65
 247 0000 0749     		ldr	r1, .L13
 248 0002 084B     		ldr	r3, .L13+4
 249 0004 0A68     		ldr	r2, [r1]
 250 0006 1B68     		ldr	r3, [r3]
 251              		.loc 1 136 10 view .LVU66
 252 0008 0730     		adds	r0, r0, #7
 253              	.LVL10:
 254              		.loc 1 136 8 view .LVU67
 255 000a 20F00700 		bic	r0, r0, #7
 256              	.LVL11:
 257              		.loc 1 138 3 is_stmt 1 view .LVU68
 258              		.loc 1 138 23 is_stmt 0 view .LVU69
 259 000e 9B1A     		subs	r3, r3, r2
 260              		.loc 1 138 6 view .LVU70
 261 0010 8342     		cmp	r3, r0
 262              		.loc 1 142 3 is_stmt 1 view .LVU71
 263              	.LVL12:
 264              		.loc 1 143 3 view .LVU72
 265              		.loc 1 143 11 is_stmt 0 view .LVU73
 266 0012 2ABF     		itet	cs
 267 0014 8018     		addcs	r0, r0, r2
 268              	.LVL13:
 269              		.loc 1 140 12 view .LVU74
 270 0016 0022     		movcc	r2, #0
 271              	.LVL14:
 272              		.loc 1 143 11 view .LVU75
 273 0018 0860     		strcs	r0, [r1]
 274              	.LVL15:
 275              		.loc 1 145 3 is_stmt 1 view .LVU76
 276              		.loc 1 146 1 is_stmt 0 view .LVU77
 277 001a 1046     		mov	r0, r2
 278 001c 7047     		bx	lr
 279              	.L14:
 280 001e 00BF     		.align	2
 281              	.L13:
 282 0020 00000000 		.word	.LANCHOR0
 283 0024 00000000 		.word	.LANCHOR1
 284              		.cfi_endproc
 285              	.LFE221:
ARM GAS  C:\Users\USER\AppData\Local\Temp\ccLH1kGg.s 			page 6


 286              		.size	chCoreAllocI, .-chCoreAllocI
 287              		.section	.text.chCoreGetStatusX,"ax",%progbits
 288              		.align	1
 289              		.p2align 4,,15
 290              		.global	chCoreGetStatusX
 291              		.syntax unified
 292              		.thumb
 293              		.thumb_func
 294              		.fpu fpv4-sp-d16
 295              		.type	chCoreGetStatusX, %function
 296              	chCoreGetStatusX:
 297              	.LFB222:
 298              		.loc 1 155 31 is_stmt 1 view -0
 299              		.cfi_startproc
 300              		@ args = 0, pretend = 0, frame = 0
 301              		@ frame_needed = 0, uses_anonymous_args = 0
 302              		@ link register save eliminated.
 303              		.loc 1 158 3 view .LVU79
 304              		.loc 1 158 26 is_stmt 0 view .LVU80
 305 0000 024A     		ldr	r2, .L16
 306 0002 034B     		ldr	r3, .L16+4
 307 0004 1068     		ldr	r0, [r2]
 308 0006 1B68     		ldr	r3, [r3]
 309              		.loc 1 160 1 view .LVU81
 310 0008 C01A     		subs	r0, r0, r3
 311 000a 7047     		bx	lr
 312              	.L17:
 313              		.align	2
 314              	.L16:
 315 000c 00000000 		.word	.LANCHOR1
 316 0010 00000000 		.word	.LANCHOR0
 317              		.cfi_endproc
 318              	.LFE222:
 319              		.size	chCoreGetStatusX, .-chCoreGetStatusX
 320              		.section	.bss.endmem,"aw",%nobits
 321              		.align	2
 322              		.set	.LANCHOR1,. + 0
 323              		.type	endmem, %object
 324              		.size	endmem, 4
 325              	endmem:
 326 0000 00000000 		.space	4
 327              		.section	.bss.nextmem,"aw",%nobits
 328              		.align	2
 329              		.set	.LANCHOR0,. + 0
 330              		.type	nextmem, %object
 331              		.size	nextmem, 4
 332              	nextmem:
 333 0000 00000000 		.space	4
 334              		.text
 335              	.Letext0:
 336              		.file 5 "c:\\program files (x86)\\gnu tools arm embedded\\8 2018-q4-major\\lib\\gcc\\arm-none-eabi
 337              		.file 6 "c:\\program files (x86)\\gnu tools arm embedded\\8 2018-q4-major\\arm-none-eabi\\include\
 338              		.file 7 "c:\\program files (x86)\\gnu tools arm embedded\\8 2018-q4-major\\arm-none-eabi\\include\
 339              		.file 8 "src/ChibiOS_3.0.2/os/rt/ports/ARMCMx/compilers/GCC/chtypes.h"
 340              		.file 9 "src/ChibiOS_3.0.2/os/rt/include/chsystypes.h"
 341              		.file 10 "src/ChibiOS_3.0.2/os/rt/include/chschd.h"
 342              		.file 11 "src/ChibiOS_3.0.2/os/ext/CMSIS/include/core_cm4.h"
ARM GAS  C:\Users\USER\AppData\Local\Temp\ccLH1kGg.s 			page 7


 343              		.file 12 "src/ChibiOS_3.0.2/os/ext/CMSIS/ST/system_stm32f4xx.h"
 344              		.file 13 "src/ChibiOS_3.0.2/os/rt/ports/ARMCMx/chcore.h"
 345              		.file 14 "src/ChibiOS_3.0.2/os/rt/include/chtm.h"
 346              		.file 15 "src/ChibiOS_3.0.2/os/rt/include/chsem.h"
 347              		.file 16 "src/ChibiOS_3.0.2/os/rt/include/chmtx.h"
 348              		.file 17 "src/ChibiOS_3.0.2/os/rt/include/chregistry.h"
 349              		.section	.debug_info,"",%progbits
 350              	.Ldebug_info0:
 351 0000 350B0000 		.4byte	0xb35
 352 0004 0400     		.2byte	0x4
 353 0006 00000000 		.4byte	.Ldebug_abbrev0
 354 000a 04       		.byte	0x4
 355 000b 01       		.uleb128 0x1
 356 000c D5010000 		.4byte	.LASF139
 357 0010 0C       		.byte	0xc
 358 0011 87010000 		.4byte	.LASF140
 359 0015 D2060000 		.4byte	.LASF141
 360 0019 40000000 		.4byte	.Ldebug_ranges0+0x40
 361 001d 00000000 		.4byte	0
 362 0021 00000000 		.4byte	.Ldebug_line0
 363 0025 02       		.uleb128 0x2
 364 0026 04       		.byte	0x4
 365 0027 05       		.byte	0x5
 366 0028 696E7400 		.ascii	"int\000"
 367 002c 03       		.uleb128 0x3
 368 002d 14000000 		.4byte	.LASF2
 369 0031 05       		.byte	0x5
 370 0032 D8       		.byte	0xd8
 371 0033 17       		.byte	0x17
 372 0034 38000000 		.4byte	0x38
 373 0038 04       		.uleb128 0x4
 374 0039 04       		.byte	0x4
 375 003a 07       		.byte	0x7
 376 003b 36030000 		.4byte	.LASF0
 377 003f 04       		.uleb128 0x4
 378 0040 01       		.byte	0x1
 379 0041 06       		.byte	0x6
 380 0042 F5000000 		.4byte	.LASF1
 381 0046 03       		.uleb128 0x3
 382 0047 37000000 		.4byte	.LASF3
 383 004b 06       		.byte	0x6
 384 004c 2B       		.byte	0x2b
 385 004d 18       		.byte	0x18
 386 004e 52000000 		.4byte	0x52
 387 0052 04       		.uleb128 0x4
 388 0053 01       		.byte	0x1
 389 0054 08       		.byte	0x8
 390 0055 FD040000 		.4byte	.LASF4
 391 0059 04       		.uleb128 0x4
 392 005a 02       		.byte	0x2
 393 005b 05       		.byte	0x5
 394 005c 20050000 		.4byte	.LASF5
 395 0060 03       		.uleb128 0x3
 396 0061 29060000 		.4byte	.LASF6
 397 0065 06       		.byte	0x6
 398 0066 39       		.byte	0x39
 399 0067 19       		.byte	0x19
ARM GAS  C:\Users\USER\AppData\Local\Temp\ccLH1kGg.s 			page 8


 400 0068 6C000000 		.4byte	0x6c
 401 006c 04       		.uleb128 0x4
 402 006d 02       		.byte	0x2
 403 006e 07       		.byte	0x7
 404 006f A2030000 		.4byte	.LASF7
 405 0073 03       		.uleb128 0x3
 406 0074 F7030000 		.4byte	.LASF8
 407 0078 06       		.byte	0x6
 408 0079 4D       		.byte	0x4d
 409 007a 18       		.byte	0x18
 410 007b 7F000000 		.4byte	0x7f
 411 007f 04       		.uleb128 0x4
 412 0080 04       		.byte	0x4
 413 0081 05       		.byte	0x5
 414 0082 5B010000 		.4byte	.LASF9
 415 0086 03       		.uleb128 0x3
 416 0087 6A060000 		.4byte	.LASF10
 417 008b 06       		.byte	0x6
 418 008c 4F       		.byte	0x4f
 419 008d 19       		.byte	0x19
 420 008e 92000000 		.4byte	0x92
 421 0092 04       		.uleb128 0x4
 422 0093 04       		.byte	0x4
 423 0094 07       		.byte	0x7
 424 0095 0B060000 		.4byte	.LASF11
 425 0099 04       		.uleb128 0x4
 426 009a 08       		.byte	0x8
 427 009b 05       		.byte	0x5
 428 009c E7000000 		.4byte	.LASF12
 429 00a0 03       		.uleb128 0x3
 430 00a1 A7040000 		.4byte	.LASF13
 431 00a5 06       		.byte	0x6
 432 00a6 69       		.byte	0x69
 433 00a7 19       		.byte	0x19
 434 00a8 AC000000 		.4byte	0xac
 435 00ac 04       		.uleb128 0x4
 436 00ad 08       		.byte	0x8
 437 00ae 07       		.byte	0x7
 438 00af 66000000 		.4byte	.LASF14
 439 00b3 03       		.uleb128 0x3
 440 00b4 0F070000 		.4byte	.LASF15
 441 00b8 07       		.byte	0x7
 442 00b9 18       		.byte	0x18
 443 00ba 13       		.byte	0x13
 444 00bb 46000000 		.4byte	0x46
 445 00bf 03       		.uleb128 0x3
 446 00c0 4B030000 		.4byte	.LASF16
 447 00c4 07       		.byte	0x7
 448 00c5 24       		.byte	0x24
 449 00c6 14       		.byte	0x14
 450 00c7 60000000 		.4byte	0x60
 451 00cb 03       		.uleb128 0x3
 452 00cc F5040000 		.4byte	.LASF17
 453 00d0 07       		.byte	0x7
 454 00d1 2C       		.byte	0x2c
 455 00d2 13       		.byte	0x13
 456 00d3 73000000 		.4byte	0x73
ARM GAS  C:\Users\USER\AppData\Local\Temp\ccLH1kGg.s 			page 9


 457 00d7 05       		.uleb128 0x5
 458 00d8 CB000000 		.4byte	0xcb
 459 00dc 03       		.uleb128 0x3
 460 00dd D6050000 		.4byte	.LASF18
 461 00e1 07       		.byte	0x7
 462 00e2 30       		.byte	0x30
 463 00e3 14       		.byte	0x14
 464 00e4 86000000 		.4byte	0x86
 465 00e8 03       		.uleb128 0x3
 466 00e9 22000000 		.4byte	.LASF19
 467 00ed 07       		.byte	0x7
 468 00ee 3C       		.byte	0x3c
 469 00ef 14       		.byte	0x14
 470 00f0 A0000000 		.4byte	0xa0
 471 00f4 03       		.uleb128 0x3
 472 00f5 39040000 		.4byte	.LASF20
 473 00f9 08       		.byte	0x8
 474 00fa 45       		.byte	0x45
 475 00fb 1D       		.byte	0x1d
 476 00fc DC000000 		.4byte	0xdc
 477 0100 03       		.uleb128 0x3
 478 0101 5E050000 		.4byte	.LASF21
 479 0105 08       		.byte	0x8
 480 0106 48       		.byte	0x48
 481 0107 1D       		.byte	0x1d
 482 0108 B3000000 		.4byte	0xb3
 483 010c 03       		.uleb128 0x3
 484 010d 64010000 		.4byte	.LASF22
 485 0111 08       		.byte	0x8
 486 0112 49       		.byte	0x49
 487 0113 1D       		.byte	0x1d
 488 0114 B3000000 		.4byte	0xb3
 489 0118 03       		.uleb128 0x3
 490 0119 B2040000 		.4byte	.LASF23
 491 011d 08       		.byte	0x8
 492 011e 4A       		.byte	0x4a
 493 011f 1D       		.byte	0x1d
 494 0120 B3000000 		.4byte	0xb3
 495 0124 03       		.uleb128 0x3
 496 0125 41010000 		.4byte	.LASF24
 497 0129 08       		.byte	0x8
 498 012a 4B       		.byte	0x4b
 499 012b 1D       		.byte	0x1d
 500 012c B3000000 		.4byte	0xb3
 501 0130 03       		.uleb128 0x3
 502 0131 DC040000 		.4byte	.LASF25
 503 0135 08       		.byte	0x8
 504 0136 4C       		.byte	0x4c
 505 0137 1D       		.byte	0x1d
 506 0138 DC000000 		.4byte	0xdc
 507 013c 03       		.uleb128 0x3
 508 013d BF030000 		.4byte	.LASF26
 509 0141 08       		.byte	0x8
 510 0142 4D       		.byte	0x4d
 511 0143 1D       		.byte	0x1d
 512 0144 CB000000 		.4byte	0xcb
 513 0148 03       		.uleb128 0x3
ARM GAS  C:\Users\USER\AppData\Local\Temp\ccLH1kGg.s 			page 10


 514 0149 EB030000 		.4byte	.LASF27
 515 014d 08       		.byte	0x8
 516 014e 4F       		.byte	0x4f
 517 014f 1D       		.byte	0x1d
 518 0150 DC000000 		.4byte	0xdc
 519 0154 03       		.uleb128 0x3
 520 0155 30030000 		.4byte	.LASF28
 521 0159 08       		.byte	0x8
 522 015a 51       		.byte	0x51
 523 015b 1D       		.byte	0x1d
 524 015c CB000000 		.4byte	0xcb
 525 0160 03       		.uleb128 0x3
 526 0161 4C060000 		.4byte	.LASF29
 527 0165 09       		.byte	0x9
 528 0166 33       		.byte	0x33
 529 0167 12       		.byte	0x12
 530 0168 DC000000 		.4byte	0xdc
 531 016c 05       		.uleb128 0x5
 532 016d 60010000 		.4byte	0x160
 533 0171 03       		.uleb128 0x3
 534 0172 34060000 		.4byte	.LASF30
 535 0176 09       		.byte	0x9
 536 0177 3F       		.byte	0x3f
 537 0178 1A       		.byte	0x1a
 538 0179 7D010000 		.4byte	0x17d
 539 017d 06       		.uleb128 0x6
 540 017e B5030000 		.4byte	.LASF52
 541 0182 48       		.byte	0x48
 542 0183 0A       		.byte	0xa
 543 0184 C2       		.byte	0xc2
 544 0185 08       		.byte	0x8
 545 0186 97020000 		.4byte	0x297
 546 018a 07       		.uleb128 0x7
 547 018b 57050000 		.4byte	.LASF31
 548 018f 0A       		.byte	0xa
 549 0190 C3       		.byte	0xc3
 550 0191 1A       		.byte	0x1a
 551 0192 A3020000 		.4byte	0x2a3
 552 0196 00       		.byte	0
 553 0197 07       		.uleb128 0x7
 554 0198 D5040000 		.4byte	.LASF32
 555 019c 0A       		.byte	0xa
 556 019d C5       		.byte	0xc5
 557 019e 1A       		.byte	0x1a
 558 019f A3020000 		.4byte	0x2a3
 559 01a3 04       		.byte	0x4
 560 01a4 07       		.uleb128 0x7
 561 01a5 D3000000 		.4byte	.LASF33
 562 01a9 0A       		.byte	0xa
 563 01aa C7       		.byte	0xc7
 564 01ab 19       		.byte	0x19
 565 01ac 30010000 		.4byte	0x130
 566 01b0 08       		.byte	0x8
 567 01b1 07       		.uleb128 0x7
 568 01b2 7E040000 		.4byte	.LASF34
 569 01b6 0A       		.byte	0xa
 570 01b7 C8       		.byte	0xc8
ARM GAS  C:\Users\USER\AppData\Local\Temp\ccLH1kGg.s 			page 11


 571 01b8 19       		.byte	0x19
 572 01b9 0F050000 		.4byte	0x50f
 573 01bd 0C       		.byte	0xc
 574 01be 07       		.uleb128 0x7
 575 01bf 77010000 		.4byte	.LASF35
 576 01c3 0A       		.byte	0xa
 577 01c4 CA       		.byte	0xca
 578 01c5 1A       		.byte	0x1a
 579 01c6 A3020000 		.4byte	0x2a3
 580 01ca 10       		.byte	0x10
 581 01cb 07       		.uleb128 0x7
 582 01cc 70040000 		.4byte	.LASF36
 583 01d0 0A       		.byte	0xa
 584 01d1 CB       		.byte	0xcb
 585 01d2 1A       		.byte	0x1a
 586 01d3 A3020000 		.4byte	0x2a3
 587 01d7 14       		.byte	0x14
 588 01d8 07       		.uleb128 0x7
 589 01d9 31070000 		.4byte	.LASF37
 590 01dd 0A       		.byte	0xa
 591 01de D2       		.byte	0xd2
 592 01df 1A       		.byte	0x1a
 593 01e0 82070000 		.4byte	0x782
 594 01e4 18       		.byte	0x18
 595 01e5 07       		.uleb128 0x7
 596 01e6 2A050000 		.4byte	.LASF38
 597 01ea 0A       		.byte	0xa
 598 01eb DD       		.byte	0xdd
 599 01ec 19       		.byte	0x19
 600 01ed 0C010000 		.4byte	0x10c
 601 01f1 1C       		.byte	0x1c
 602 01f2 07       		.uleb128 0x7
 603 01f3 75050000 		.4byte	.LASF39
 604 01f7 0A       		.byte	0xa
 605 01f8 E1       		.byte	0xe1
 606 01f9 19       		.byte	0x19
 607 01fa 00010000 		.4byte	0x100
 608 01fe 1D       		.byte	0x1d
 609 01ff 07       		.uleb128 0x7
 610 0200 CB060000 		.4byte	.LASF40
 611 0204 0A       		.byte	0xa
 612 0205 E6       		.byte	0xe6
 613 0206 19       		.byte	0x19
 614 0207 18010000 		.4byte	0x118
 615 020b 1E       		.byte	0x1e
 616 020c 07       		.uleb128 0x7
 617 020d 32050000 		.4byte	.LASF41
 618 0211 0A       		.byte	0xa
 619 0212 EC       		.byte	0xec
 620 0213 19       		.byte	0x19
 621 0214 24010000 		.4byte	0x124
 622 0218 1F       		.byte	0x1f
 623 0219 07       		.uleb128 0x7
 624 021a 64030000 		.4byte	.LASF42
 625 021e 0A       		.byte	0xa
 626 021f F3       		.byte	0xf3
 627 0220 19       		.byte	0x19
ARM GAS  C:\Users\USER\AppData\Local\Temp\ccLH1kGg.s 			page 12


 628 0221 6C010000 		.4byte	0x16c
 629 0225 20       		.byte	0x20
 630 0226 08       		.uleb128 0x8
 631 0227 705F7500 		.ascii	"p_u\000"
 632 022b 0A       		.byte	0xa
 633 022c 3101     		.2byte	0x131
 634 022e 19       		.byte	0x19
 635 022f AE060000 		.4byte	0x6ae
 636 0233 24       		.byte	0x24
 637 0234 09       		.uleb128 0x9
 638 0235 2F040000 		.4byte	.LASF43
 639 0239 0A       		.byte	0xa
 640 023a 3601     		.2byte	0x136
 641 023c 19       		.byte	0x19
 642 023d A9020000 		.4byte	0x2a9
 643 0241 28       		.byte	0x28
 644 0242 09       		.uleb128 0x9
 645 0243 88030000 		.4byte	.LASF44
 646 0247 0A       		.byte	0xa
 647 0248 3C01     		.2byte	0x13c
 648 024a 19       		.byte	0x19
 649 024b D0020000 		.4byte	0x2d0
 650 024f 2C       		.byte	0x2c
 651 0250 09       		.uleb128 0x9
 652 0251 9C060000 		.4byte	.LASF45
 653 0255 0A       		.byte	0xa
 654 0256 4001     		.2byte	0x140
 655 0258 19       		.byte	0x19
 656 0259 3C010000 		.4byte	0x13c
 657 025d 34       		.byte	0x34
 658 025e 09       		.uleb128 0x9
 659 025f CB050000 		.4byte	.LASF46
 660 0263 0A       		.byte	0xa
 661 0264 4601     		.2byte	0x146
 662 0266 19       		.byte	0x19
 663 0267 48010000 		.4byte	0x148
 664 026b 38       		.byte	0x38
 665 026c 09       		.uleb128 0x9
 666 026d 16050000 		.4byte	.LASF47
 667 0271 0A       		.byte	0xa
 668 0272 4D01     		.2byte	0x14d
 669 0274 1A       		.byte	0x1a
 670 0275 7C070000 		.4byte	0x77c
 671 0279 3C       		.byte	0x3c
 672 027a 09       		.uleb128 0x9
 673 027b 56060000 		.4byte	.LASF48
 674 027f 0A       		.byte	0xa
 675 0280 5101     		.2byte	0x151
 676 0282 19       		.byte	0x19
 677 0283 30010000 		.4byte	0x130
 678 0287 40       		.byte	0x40
 679 0288 09       		.uleb128 0x9
 680 0289 1E010000 		.4byte	.LASF49
 681 028d 0A       		.byte	0xa
 682 028e 5801     		.2byte	0x158
 683 0290 1A       		.byte	0x1a
 684 0291 90030000 		.4byte	0x390
ARM GAS  C:\Users\USER\AppData\Local\Temp\ccLH1kGg.s 			page 13


 685 0295 44       		.byte	0x44
 686 0296 00       		.byte	0
 687 0297 03       		.uleb128 0x3
 688 0298 17070000 		.4byte	.LASF50
 689 029c 09       		.byte	0x9
 690 029d 44       		.byte	0x44
 691 029e 14       		.byte	0x14
 692 029f A3020000 		.4byte	0x2a3
 693 02a3 0A       		.uleb128 0xa
 694 02a4 04       		.byte	0x4
 695 02a5 71010000 		.4byte	0x171
 696 02a9 03       		.uleb128 0x3
 697 02aa 0C040000 		.4byte	.LASF51
 698 02ae 09       		.byte	0x9
 699 02af 49       		.byte	0x49
 700 02b0 20       		.byte	0x20
 701 02b1 B5020000 		.4byte	0x2b5
 702 02b5 06       		.uleb128 0x6
 703 02b6 F3050000 		.4byte	.LASF53
 704 02ba 04       		.byte	0x4
 705 02bb 0A       		.byte	0xa
 706 02bc B0       		.byte	0xb0
 707 02bd 08       		.byte	0x8
 708 02be D0020000 		.4byte	0x2d0
 709 02c2 07       		.uleb128 0x7
 710 02c3 57050000 		.4byte	.LASF31
 711 02c7 0A       		.byte	0xa
 712 02c8 B1       		.byte	0xb1
 713 02c9 1A       		.byte	0x1a
 714 02ca A3020000 		.4byte	0x2a3
 715 02ce 00       		.byte	0
 716 02cf 00       		.byte	0
 717 02d0 03       		.uleb128 0x3
 718 02d1 90050000 		.4byte	.LASF54
 719 02d5 09       		.byte	0x9
 720 02d6 50       		.byte	0x50
 721 02d7 21       		.byte	0x21
 722 02d8 DC020000 		.4byte	0x2dc
 723 02dc 06       		.uleb128 0x6
 724 02dd C2000000 		.4byte	.LASF55
 725 02e1 08       		.byte	0x8
 726 02e2 0A       		.byte	0xa
 727 02e3 B7       		.byte	0xb7
 728 02e4 08       		.byte	0x8
 729 02e5 04030000 		.4byte	0x304
 730 02e9 07       		.uleb128 0x7
 731 02ea 57050000 		.4byte	.LASF31
 732 02ee 0A       		.byte	0xa
 733 02ef B8       		.byte	0xb8
 734 02f0 1A       		.byte	0x1a
 735 02f1 A3020000 		.4byte	0x2a3
 736 02f5 00       		.byte	0
 737 02f6 07       		.uleb128 0x7
 738 02f7 D5040000 		.4byte	.LASF32
 739 02fb 0A       		.byte	0xa
 740 02fc B9       		.byte	0xb9
 741 02fd 1A       		.byte	0x1a
ARM GAS  C:\Users\USER\AppData\Local\Temp\ccLH1kGg.s 			page 14


 742 02fe A3020000 		.4byte	0x2a3
 743 0302 04       		.byte	0x4
 744 0303 00       		.byte	0
 745 0304 03       		.uleb128 0x3
 746 0305 07000000 		.4byte	.LASF56
 747 0309 09       		.byte	0x9
 748 030a 57       		.byte	0x57
 749 030b 1E       		.byte	0x1e
 750 030c 10030000 		.4byte	0x310
 751 0310 0B       		.uleb128 0xb
 752 0311 DD030000 		.4byte	.LASF57
 753 0315 1C       		.byte	0x1c
 754 0316 0A       		.byte	0xa
 755 0317 9001     		.2byte	0x190
 756 0319 08       		.byte	0x8
 757 031a 73030000 		.4byte	0x373
 758 031e 09       		.uleb128 0x9
 759 031f EB050000 		.4byte	.LASF58
 760 0323 0A       		.byte	0xa
 761 0324 9101     		.2byte	0x191
 762 0326 19       		.byte	0x19
 763 0327 D0020000 		.4byte	0x2d0
 764 032b 00       		.byte	0
 765 032c 09       		.uleb128 0x9
 766 032d 49050000 		.4byte	.LASF59
 767 0331 0A       		.byte	0xa
 768 0332 9201     		.2byte	0x192
 769 0334 19       		.byte	0x19
 770 0335 30010000 		.4byte	0x130
 771 0339 08       		.byte	0x8
 772 033a 09       		.uleb128 0x9
 773 033b 78040000 		.4byte	.LASF60
 774 033f 0A       		.byte	0xa
 775 0340 9401     		.2byte	0x194
 776 0342 19       		.byte	0x19
 777 0343 0F050000 		.4byte	0x50f
 778 0347 0C       		.byte	0xc
 779 0348 09       		.uleb128 0x9
 780 0349 BC010000 		.4byte	.LASF61
 781 034d 0A       		.byte	0xa
 782 034e 9701     		.2byte	0x197
 783 0350 1A       		.byte	0x1a
 784 0351 A3020000 		.4byte	0x2a3
 785 0355 10       		.byte	0x10
 786 0356 09       		.uleb128 0x9
 787 0357 9F040000 		.4byte	.LASF62
 788 035b 0A       		.byte	0xa
 789 035c 9801     		.2byte	0x198
 790 035e 1A       		.byte	0x1a
 791 035f A3020000 		.4byte	0x2a3
 792 0363 14       		.byte	0x14
 793 0364 09       		.uleb128 0x9
 794 0365 95040000 		.4byte	.LASF63
 795 0369 0A       		.byte	0xa
 796 036a 9B01     		.2byte	0x19b
 797 036c 1A       		.byte	0x1a
 798 036d A3020000 		.4byte	0x2a3
ARM GAS  C:\Users\USER\AppData\Local\Temp\ccLH1kGg.s 			page 15


 799 0371 18       		.byte	0x18
 800 0372 00       		.byte	0
 801 0373 03       		.uleb128 0x3
 802 0374 61060000 		.4byte	.LASF64
 803 0378 09       		.byte	0x9
 804 0379 5C       		.byte	0x5c
 805 037a 10       		.byte	0x10
 806 037b 7F030000 		.4byte	0x37f
 807 037f 0A       		.uleb128 0xa
 808 0380 04       		.byte	0x4
 809 0381 85030000 		.4byte	0x385
 810 0385 0C       		.uleb128 0xc
 811 0386 90030000 		.4byte	0x390
 812 038a 0D       		.uleb128 0xd
 813 038b 90030000 		.4byte	0x390
 814 038f 00       		.byte	0
 815 0390 0E       		.uleb128 0xe
 816 0391 04       		.byte	0x4
 817 0392 03       		.uleb128 0x3
 818 0393 C5040000 		.4byte	.LASF65
 819 0397 09       		.byte	0x9
 820 0398 61       		.byte	0x61
 821 0399 21       		.byte	0x21
 822 039a 9E030000 		.4byte	0x39e
 823 039e 0B       		.uleb128 0xb
 824 039f A0050000 		.4byte	.LASF66
 825 03a3 14       		.byte	0x14
 826 03a4 0A       		.byte	0xa
 827 03a5 6B01     		.2byte	0x16b
 828 03a7 08       		.byte	0x8
 829 03a8 F3030000 		.4byte	0x3f3
 830 03ac 09       		.uleb128 0x9
 831 03ad 43030000 		.4byte	.LASF67
 832 03b1 0A       		.byte	0xa
 833 03b2 6C01     		.2byte	0x16c
 834 03b4 1A       		.byte	0x1a
 835 03b5 99070000 		.4byte	0x799
 836 03b9 00       		.byte	0
 837 03ba 09       		.uleb128 0x9
 838 03bb CD010000 		.4byte	.LASF68
 839 03bf 0A       		.byte	0xa
 840 03c0 6D01     		.2byte	0x16d
 841 03c2 1A       		.byte	0x1a
 842 03c3 99070000 		.4byte	0x799
 843 03c7 04       		.byte	0x4
 844 03c8 09       		.uleb128 0x9
 845 03c9 7F030000 		.4byte	.LASF69
 846 03cd 0A       		.byte	0xa
 847 03ce 6E01     		.2byte	0x16e
 848 03d0 19       		.byte	0x19
 849 03d1 60010000 		.4byte	0x160
 850 03d5 08       		.byte	0x8
 851 03d6 09       		.uleb128 0x9
 852 03d7 75070000 		.4byte	.LASF70
 853 03db 0A       		.byte	0xa
 854 03dc 6F01     		.2byte	0x16f
 855 03de 19       		.byte	0x19
ARM GAS  C:\Users\USER\AppData\Local\Temp\ccLH1kGg.s 			page 16


 856 03df 73030000 		.4byte	0x373
 857 03e3 0C       		.byte	0xc
 858 03e4 09       		.uleb128 0x9
 859 03e5 A2060000 		.4byte	.LASF71
 860 03e9 0A       		.byte	0xa
 861 03ea 7101     		.2byte	0x171
 862 03ec 1A       		.byte	0x1a
 863 03ed 90030000 		.4byte	0x390
 864 03f1 10       		.byte	0x10
 865 03f2 00       		.byte	0
 866 03f3 03       		.uleb128 0x3
 867 03f4 9F000000 		.4byte	.LASF72
 868 03f8 09       		.byte	0x9
 869 03f9 66       		.byte	0x66
 870 03fa 28       		.byte	0x28
 871 03fb FF030000 		.4byte	0x3ff
 872 03ff 0B       		.uleb128 0xb
 873 0400 41040000 		.4byte	.LASF73
 874 0404 10       		.byte	0x10
 875 0405 0A       		.byte	0xa
 876 0406 7B01     		.2byte	0x17b
 877 0408 08       		.byte	0x8
 878 0409 46040000 		.4byte	0x446
 879 040d 09       		.uleb128 0x9
 880 040e 43030000 		.4byte	.LASF67
 881 0412 0A       		.byte	0xa
 882 0413 7C01     		.2byte	0x17c
 883 0415 1A       		.byte	0x1a
 884 0416 99070000 		.4byte	0x799
 885 041a 00       		.byte	0
 886 041b 09       		.uleb128 0x9
 887 041c CD010000 		.4byte	.LASF68
 888 0420 0A       		.byte	0xa
 889 0421 7E01     		.2byte	0x17e
 890 0423 1A       		.byte	0x1a
 891 0424 99070000 		.4byte	0x799
 892 0428 04       		.byte	0x4
 893 0429 09       		.uleb128 0x9
 894 042a 7F030000 		.4byte	.LASF69
 895 042e 0A       		.byte	0xa
 896 042f 8001     		.2byte	0x180
 897 0431 19       		.byte	0x19
 898 0432 60010000 		.4byte	0x160
 899 0436 08       		.byte	0x8
 900 0437 09       		.uleb128 0x9
 901 0438 3D070000 		.4byte	.LASF74
 902 043c 0A       		.byte	0xa
 903 043d 8201     		.2byte	0x182
 904 043f 19       		.byte	0x19
 905 0440 6C010000 		.4byte	0x16c
 906 0444 0C       		.byte	0xc
 907 0445 00       		.byte	0
 908 0446 03       		.uleb128 0x3
 909 0447 4D000000 		.4byte	.LASF75
 910 044b 09       		.byte	0x9
 911 044c 6B       		.byte	0x6b
 912 044d 20       		.byte	0x20
ARM GAS  C:\Users\USER\AppData\Local\Temp\ccLH1kGg.s 			page 17


 913 044e 52040000 		.4byte	0x452
 914 0452 0B       		.uleb128 0xb
 915 0453 03030000 		.4byte	.LASF76
 916 0457 04       		.byte	0x4
 917 0458 0A       		.byte	0xa
 918 0459 A201     		.2byte	0x1a2
 919 045b 08       		.byte	0x8
 920 045c 6F040000 		.4byte	0x46f
 921 0460 09       		.uleb128 0x9
 922 0461 83060000 		.4byte	.LASF77
 923 0465 0A       		.byte	0xa
 924 0466 AA01     		.2byte	0x1aa
 925 0468 24       		.byte	0x24
 926 0469 88070000 		.4byte	0x788
 927 046d 00       		.byte	0
 928 046e 00       		.byte	0
 929 046f 03       		.uleb128 0x3
 930 0470 C5030000 		.4byte	.LASF78
 931 0474 09       		.byte	0x9
 932 0475 70       		.byte	0x70
 933 0476 1A       		.byte	0x1a
 934 0477 7B040000 		.4byte	0x47b
 935 047b 0F       		.uleb128 0xf
 936 047c 51010000 		.4byte	.LASF79
 937 0480 5802     		.2byte	0x258
 938 0482 0A       		.byte	0xa
 939 0483 C201     		.2byte	0x1c2
 940 0485 08       		.byte	0x8
 941 0486 DE040000 		.4byte	0x4de
 942 048a 09       		.uleb128 0x9
 943 048b 09070000 		.4byte	.LASF80
 944 048f 0A       		.byte	0xa
 945 0490 C601     		.2byte	0x1c6
 946 0492 19       		.byte	0x19
 947 0493 04030000 		.4byte	0x304
 948 0497 00       		.byte	0
 949 0498 09       		.uleb128 0x9
 950 0499 2E010000 		.4byte	.LASF81
 951 049d 0A       		.byte	0xa
 952 049e CA01     		.2byte	0x1ca
 953 04a0 19       		.byte	0x19
 954 04a1 F3030000 		.4byte	0x3f3
 955 04a5 1C       		.byte	0x1c
 956 04a6 08       		.uleb128 0x8
 957 04a7 64626700 		.ascii	"dbg\000"
 958 04ab 0A       		.byte	0xa
 959 04ac CE01     		.2byte	0x1ce
 960 04ae 19       		.byte	0x19
 961 04af 46040000 		.4byte	0x446
 962 04b3 2C       		.byte	0x2c
 963 04b4 09       		.uleb128 0x9
 964 04b5 94000000 		.4byte	.LASF82
 965 04b9 0A       		.byte	0xa
 966 04ba D201     		.2byte	0x1d2
 967 04bc 19       		.byte	0x19
 968 04bd 71010000 		.4byte	0x171
 969 04c1 30       		.byte	0x30
ARM GAS  C:\Users\USER\AppData\Local\Temp\ccLH1kGg.s 			page 18


 970 04c2 08       		.uleb128 0x8
 971 04c3 746D00   		.ascii	"tm\000"
 972 04c6 0A       		.byte	0xa
 973 04c7 D701     		.2byte	0x1d7
 974 04c9 19       		.byte	0x19
 975 04ca A2060000 		.4byte	0x6a2
 976 04ce 78       		.byte	0x78
 977 04cf 09       		.uleb128 0x9
 978 04d0 21030000 		.4byte	.LASF83
 979 04d4 0A       		.byte	0xa
 980 04d5 E301     		.2byte	0x1e3
 981 04d7 03       		.byte	0x3
 982 04d8 9F070000 		.4byte	0x79f
 983 04dc 80       		.byte	0x80
 984 04dd 00       		.byte	0
 985 04de 10       		.uleb128 0x10
 986 04df B5000000 		.4byte	.LASF84
 987 04e3 0B       		.byte	0xb
 988 04e4 A706     		.2byte	0x6a7
 989 04e6 19       		.byte	0x19
 990 04e7 D7000000 		.4byte	0xd7
 991 04eb 11       		.uleb128 0x11
 992 04ec 54030000 		.4byte	.LASF85
 993 04f0 0C       		.byte	0xc
 994 04f1 4C       		.byte	0x4c
 995 04f2 11       		.byte	0x11
 996 04f3 DC000000 		.4byte	0xdc
 997 04f7 03       		.uleb128 0x3
 998 04f8 C4010000 		.4byte	.LASF86
 999 04fc 0D       		.byte	0xd
 1000 04fd 65       		.byte	0x65
 1001 04fe 0F       		.byte	0xf
 1002 04ff 90030000 		.4byte	0x390
 1003 0503 03       		.uleb128 0x3
 1004 0504 01040000 		.4byte	.LASF87
 1005 0508 0D       		.byte	0xd
 1006 0509 6D       		.byte	0x6d
 1007 050a 12       		.byte	0x12
 1008 050b E8000000 		.4byte	0xe8
 1009 050f 06       		.uleb128 0x6
 1010 0510 94060000 		.4byte	.LASF88
 1011 0514 04       		.byte	0x4
 1012 0515 0D       		.byte	0xd
 1013 0516 89       		.byte	0x89
 1014 0517 08       		.byte	0x8
 1015 0518 2A050000 		.4byte	0x52a
 1016 051c 12       		.uleb128 0x12
 1017 051d 72313300 		.ascii	"r13\000"
 1018 0521 0D       		.byte	0xd
 1019 0522 8A       		.byte	0x8a
 1020 0523 17       		.byte	0x17
 1021 0524 85060000 		.4byte	0x685
 1022 0528 00       		.byte	0
 1023 0529 00       		.byte	0
 1024 052a 06       		.uleb128 0x6
 1025 052b 41000000 		.4byte	.LASF89
 1026 052f 64       		.byte	0x64
ARM GAS  C:\Users\USER\AppData\Local\Temp\ccLH1kGg.s 			page 19


 1027 0530 03       		.byte	0x3
 1028 0531 F4       		.byte	0xf4
 1029 0532 08       		.byte	0x8
 1030 0533 85060000 		.4byte	0x685
 1031 0537 12       		.uleb128 0x12
 1032 0538 73313600 		.ascii	"s16\000"
 1033 053c 03       		.byte	0x3
 1034 053d F6       		.byte	0xf6
 1035 053e 11       		.byte	0x11
 1036 053f F7040000 		.4byte	0x4f7
 1037 0543 00       		.byte	0
 1038 0544 12       		.uleb128 0x12
 1039 0545 73313700 		.ascii	"s17\000"
 1040 0549 03       		.byte	0x3
 1041 054a F7       		.byte	0xf7
 1042 054b 11       		.byte	0x11
 1043 054c F7040000 		.4byte	0x4f7
 1044 0550 04       		.byte	0x4
 1045 0551 12       		.uleb128 0x12
 1046 0552 73313800 		.ascii	"s18\000"
 1047 0556 03       		.byte	0x3
 1048 0557 F8       		.byte	0xf8
 1049 0558 11       		.byte	0x11
 1050 0559 F7040000 		.4byte	0x4f7
 1051 055d 08       		.byte	0x8
 1052 055e 12       		.uleb128 0x12
 1053 055f 73313900 		.ascii	"s19\000"
 1054 0563 03       		.byte	0x3
 1055 0564 F9       		.byte	0xf9
 1056 0565 11       		.byte	0x11
 1057 0566 F7040000 		.4byte	0x4f7
 1058 056a 0C       		.byte	0xc
 1059 056b 12       		.uleb128 0x12
 1060 056c 73323000 		.ascii	"s20\000"
 1061 0570 03       		.byte	0x3
 1062 0571 FA       		.byte	0xfa
 1063 0572 11       		.byte	0x11
 1064 0573 F7040000 		.4byte	0x4f7
 1065 0577 10       		.byte	0x10
 1066 0578 12       		.uleb128 0x12
 1067 0579 73323100 		.ascii	"s21\000"
 1068 057d 03       		.byte	0x3
 1069 057e FB       		.byte	0xfb
 1070 057f 11       		.byte	0x11
 1071 0580 F7040000 		.4byte	0x4f7
 1072 0584 14       		.byte	0x14
 1073 0585 12       		.uleb128 0x12
 1074 0586 73323200 		.ascii	"s22\000"
 1075 058a 03       		.byte	0x3
 1076 058b FC       		.byte	0xfc
 1077 058c 11       		.byte	0x11
 1078 058d F7040000 		.4byte	0x4f7
 1079 0591 18       		.byte	0x18
 1080 0592 12       		.uleb128 0x12
 1081 0593 73323300 		.ascii	"s23\000"
 1082 0597 03       		.byte	0x3
 1083 0598 FD       		.byte	0xfd
ARM GAS  C:\Users\USER\AppData\Local\Temp\ccLH1kGg.s 			page 20


 1084 0599 11       		.byte	0x11
 1085 059a F7040000 		.4byte	0x4f7
 1086 059e 1C       		.byte	0x1c
 1087 059f 12       		.uleb128 0x12
 1088 05a0 73323400 		.ascii	"s24\000"
 1089 05a4 03       		.byte	0x3
 1090 05a5 FE       		.byte	0xfe
 1091 05a6 11       		.byte	0x11
 1092 05a7 F7040000 		.4byte	0x4f7
 1093 05ab 20       		.byte	0x20
 1094 05ac 12       		.uleb128 0x12
 1095 05ad 73323500 		.ascii	"s25\000"
 1096 05b1 03       		.byte	0x3
 1097 05b2 FF       		.byte	0xff
 1098 05b3 11       		.byte	0x11
 1099 05b4 F7040000 		.4byte	0x4f7
 1100 05b8 24       		.byte	0x24
 1101 05b9 08       		.uleb128 0x8
 1102 05ba 73323600 		.ascii	"s26\000"
 1103 05be 03       		.byte	0x3
 1104 05bf 0001     		.2byte	0x100
 1105 05c1 11       		.byte	0x11
 1106 05c2 F7040000 		.4byte	0x4f7
 1107 05c6 28       		.byte	0x28
 1108 05c7 08       		.uleb128 0x8
 1109 05c8 73323700 		.ascii	"s27\000"
 1110 05cc 03       		.byte	0x3
 1111 05cd 0101     		.2byte	0x101
 1112 05cf 11       		.byte	0x11
 1113 05d0 F7040000 		.4byte	0x4f7
 1114 05d4 2C       		.byte	0x2c
 1115 05d5 08       		.uleb128 0x8
 1116 05d6 73323800 		.ascii	"s28\000"
 1117 05da 03       		.byte	0x3
 1118 05db 0201     		.2byte	0x102
 1119 05dd 11       		.byte	0x11
 1120 05de F7040000 		.4byte	0x4f7
 1121 05e2 30       		.byte	0x30
 1122 05e3 08       		.uleb128 0x8
 1123 05e4 73323900 		.ascii	"s29\000"
 1124 05e8 03       		.byte	0x3
 1125 05e9 0301     		.2byte	0x103
 1126 05eb 11       		.byte	0x11
 1127 05ec F7040000 		.4byte	0x4f7
 1128 05f0 34       		.byte	0x34
 1129 05f1 08       		.uleb128 0x8
 1130 05f2 73333000 		.ascii	"s30\000"
 1131 05f6 03       		.byte	0x3
 1132 05f7 0401     		.2byte	0x104
 1133 05f9 11       		.byte	0x11
 1134 05fa F7040000 		.4byte	0x4f7
 1135 05fe 38       		.byte	0x38
 1136 05ff 08       		.uleb128 0x8
 1137 0600 73333100 		.ascii	"s31\000"
 1138 0604 03       		.byte	0x3
 1139 0605 0501     		.2byte	0x105
 1140 0607 11       		.byte	0x11
ARM GAS  C:\Users\USER\AppData\Local\Temp\ccLH1kGg.s 			page 21


 1141 0608 F7040000 		.4byte	0x4f7
 1142 060c 3C       		.byte	0x3c
 1143 060d 08       		.uleb128 0x8
 1144 060e 723400   		.ascii	"r4\000"
 1145 0611 03       		.byte	0x3
 1146 0612 0701     		.2byte	0x107
 1147 0614 11       		.byte	0x11
 1148 0615 F7040000 		.4byte	0x4f7
 1149 0619 40       		.byte	0x40
 1150 061a 08       		.uleb128 0x8
 1151 061b 723500   		.ascii	"r5\000"
 1152 061e 03       		.byte	0x3
 1153 061f 0801     		.2byte	0x108
 1154 0621 11       		.byte	0x11
 1155 0622 F7040000 		.4byte	0x4f7
 1156 0626 44       		.byte	0x44
 1157 0627 08       		.uleb128 0x8
 1158 0628 723600   		.ascii	"r6\000"
 1159 062b 03       		.byte	0x3
 1160 062c 0901     		.2byte	0x109
 1161 062e 11       		.byte	0x11
 1162 062f F7040000 		.4byte	0x4f7
 1163 0633 48       		.byte	0x48
 1164 0634 08       		.uleb128 0x8
 1165 0635 723700   		.ascii	"r7\000"
 1166 0638 03       		.byte	0x3
 1167 0639 0A01     		.2byte	0x10a
 1168 063b 11       		.byte	0x11
 1169 063c F7040000 		.4byte	0x4f7
 1170 0640 4C       		.byte	0x4c
 1171 0641 08       		.uleb128 0x8
 1172 0642 723800   		.ascii	"r8\000"
 1173 0645 03       		.byte	0x3
 1174 0646 0B01     		.2byte	0x10b
 1175 0648 11       		.byte	0x11
 1176 0649 F7040000 		.4byte	0x4f7
 1177 064d 50       		.byte	0x50
 1178 064e 08       		.uleb128 0x8
 1179 064f 723900   		.ascii	"r9\000"
 1180 0652 03       		.byte	0x3
 1181 0653 0C01     		.2byte	0x10c
 1182 0655 11       		.byte	0x11
 1183 0656 F7040000 		.4byte	0x4f7
 1184 065a 54       		.byte	0x54
 1185 065b 08       		.uleb128 0x8
 1186 065c 72313000 		.ascii	"r10\000"
 1187 0660 03       		.byte	0x3
 1188 0661 0D01     		.2byte	0x10d
 1189 0663 11       		.byte	0x11
 1190 0664 F7040000 		.4byte	0x4f7
 1191 0668 58       		.byte	0x58
 1192 0669 08       		.uleb128 0x8
 1193 066a 72313100 		.ascii	"r11\000"
 1194 066e 03       		.byte	0x3
 1195 066f 0E01     		.2byte	0x10e
 1196 0671 11       		.byte	0x11
 1197 0672 F7040000 		.4byte	0x4f7
ARM GAS  C:\Users\USER\AppData\Local\Temp\ccLH1kGg.s 			page 22


 1198 0676 5C       		.byte	0x5c
 1199 0677 08       		.uleb128 0x8
 1200 0678 6C7200   		.ascii	"lr\000"
 1201 067b 03       		.byte	0x3
 1202 067c 0F01     		.2byte	0x10f
 1203 067e 11       		.byte	0x11
 1204 067f F7040000 		.4byte	0x4f7
 1205 0683 60       		.byte	0x60
 1206 0684 00       		.byte	0
 1207 0685 0A       		.uleb128 0xa
 1208 0686 04       		.byte	0x4
 1209 0687 2A050000 		.4byte	0x52a
 1210 068b 13       		.uleb128 0x13
 1211 068c 04       		.byte	0x4
 1212 068d 0E       		.byte	0xe
 1213 068e 38       		.byte	0x38
 1214 068f 09       		.byte	0x9
 1215 0690 A2060000 		.4byte	0x6a2
 1216 0694 07       		.uleb128 0x7
 1217 0695 8D060000 		.4byte	.LASF90
 1218 0699 0E       		.byte	0xe
 1219 069a 3C       		.byte	0x3c
 1220 069b 19       		.byte	0x19
 1221 069c F4000000 		.4byte	0xf4
 1222 06a0 00       		.byte	0
 1223 06a1 00       		.byte	0
 1224 06a2 03       		.uleb128 0x3
 1225 06a3 84040000 		.4byte	.LASF91
 1226 06a7 0E       		.byte	0xe
 1227 06a8 3D       		.byte	0x3d
 1228 06a9 03       		.byte	0x3
 1229 06aa 8B060000 		.4byte	0x68b
 1230 06ae 14       		.uleb128 0x14
 1231 06af 04       		.byte	0x4
 1232 06b0 0A       		.byte	0xa
 1233 06b1 FA       		.byte	0xfa
 1234 06b2 03       		.byte	0x3
 1235 06b3 13070000 		.4byte	0x713
 1236 06b7 15       		.uleb128 0x15
 1237 06b8 1B000000 		.4byte	.LASF92
 1238 06bc 0A       		.byte	0xa
 1239 06bd 0101     		.2byte	0x101
 1240 06bf 19       		.byte	0x19
 1241 06c0 3C010000 		.4byte	0x13c
 1242 06c4 15       		.uleb128 0x15
 1243 06c5 8B000000 		.4byte	.LASF93
 1244 06c9 0A       		.byte	0xa
 1245 06ca 0801     		.2byte	0x108
 1246 06cc 19       		.byte	0x19
 1247 06cd 3C010000 		.4byte	0x13c
 1248 06d1 15       		.uleb128 0x15
 1249 06d2 2A070000 		.4byte	.LASF94
 1250 06d6 0A       		.byte	0xa
 1251 06d7 0F01     		.2byte	0x10f
 1252 06d9 1A       		.byte	0x1a
 1253 06da 90030000 		.4byte	0x390
 1254 06de 15       		.uleb128 0x15
ARM GAS  C:\Users\USER\AppData\Local\Temp\ccLH1kGg.s 			page 23


 1255 06df 4B010000 		.4byte	.LASF95
 1256 06e3 0A       		.byte	0xa
 1257 06e4 1601     		.2byte	0x116
 1258 06e6 1A       		.byte	0x1a
 1259 06e7 13070000 		.4byte	0x713
 1260 06eb 15       		.uleb128 0x15
 1261 06ec 6B030000 		.4byte	.LASF96
 1262 06f0 0A       		.byte	0xa
 1263 06f1 1E01     		.2byte	0x11e
 1264 06f3 1A       		.byte	0x1a
 1265 06f4 41070000 		.4byte	0x741
 1266 06f8 15       		.uleb128 0x15
 1267 06f9 22060000 		.4byte	.LASF97
 1268 06fd 0A       		.byte	0xa
 1269 06fe 2701     		.2byte	0x127
 1270 0700 1A       		.byte	0x1a
 1271 0701 7C070000 		.4byte	0x77c
 1272 0705 15       		.uleb128 0x15
 1273 0706 50050000 		.4byte	.LASF98
 1274 070a 0A       		.byte	0xa
 1275 070b 2F01     		.2byte	0x12f
 1276 070d 19       		.byte	0x19
 1277 070e 48010000 		.4byte	0x148
 1278 0712 00       		.byte	0
 1279 0713 0A       		.uleb128 0xa
 1280 0714 04       		.byte	0x4
 1281 0715 97020000 		.4byte	0x297
 1282 0719 06       		.uleb128 0x6
 1283 071a BE050000 		.4byte	.LASF99
 1284 071e 0C       		.byte	0xc
 1285 071f 0F       		.byte	0xf
 1286 0720 34       		.byte	0x34
 1287 0721 10       		.byte	0x10
 1288 0722 41070000 		.4byte	0x741
 1289 0726 07       		.uleb128 0x7
 1290 0727 7F010000 		.4byte	.LASF100
 1291 072b 0F       		.byte	0xf
 1292 072c 35       		.byte	0x35
 1293 072d 19       		.byte	0x19
 1294 072e D0020000 		.4byte	0x2d0
 1295 0732 00       		.byte	0
 1296 0733 07       		.uleb128 0x7
 1297 0734 9C030000 		.4byte	.LASF101
 1298 0738 0F       		.byte	0xf
 1299 0739 37       		.byte	0x37
 1300 073a 19       		.byte	0x19
 1301 073b 54010000 		.4byte	0x154
 1302 073f 08       		.byte	0x8
 1303 0740 00       		.byte	0
 1304 0741 0A       		.uleb128 0xa
 1305 0742 04       		.byte	0x4
 1306 0743 19070000 		.4byte	0x719
 1307 0747 06       		.uleb128 0x6
 1308 0748 C2060000 		.4byte	.LASF102
 1309 074c 10       		.byte	0x10
 1310 074d 10       		.byte	0x10
 1311 074e 39       		.byte	0x39
ARM GAS  C:\Users\USER\AppData\Local\Temp\ccLH1kGg.s 			page 24


 1312 074f 08       		.byte	0x8
 1313 0750 7C070000 		.4byte	0x77c
 1314 0754 07       		.uleb128 0x7
 1315 0755 26010000 		.4byte	.LASF103
 1316 0759 10       		.byte	0x10
 1317 075a 3A       		.byte	0x3a
 1318 075b 19       		.byte	0x19
 1319 075c D0020000 		.4byte	0x2d0
 1320 0760 00       		.byte	0
 1321 0761 07       		.uleb128 0x7
 1322 0762 5F070000 		.4byte	.LASF104
 1323 0766 10       		.byte	0x10
 1324 0767 3C       		.byte	0x3c
 1325 0768 1A       		.byte	0x1a
 1326 0769 A3020000 		.4byte	0x2a3
 1327 076d 08       		.byte	0x8
 1328 076e 07       		.uleb128 0x7
 1329 076f 45060000 		.4byte	.LASF105
 1330 0773 10       		.byte	0x10
 1331 0774 3E       		.byte	0x3e
 1332 0775 1A       		.byte	0x1a
 1333 0776 E8080000 		.4byte	0x8e8
 1334 077a 0C       		.byte	0xc
 1335 077b 00       		.byte	0
 1336 077c 0A       		.uleb128 0xa
 1337 077d 04       		.byte	0x4
 1338 077e 47070000 		.4byte	0x747
 1339 0782 0A       		.uleb128 0xa
 1340 0783 04       		.byte	0x4
 1341 0784 94070000 		.4byte	0x794
 1342 0788 05       		.uleb128 0x5
 1343 0789 82070000 		.4byte	0x782
 1344 078d 04       		.uleb128 0x4
 1345 078e 01       		.byte	0x1
 1346 078f 08       		.byte	0x8
 1347 0790 1D060000 		.4byte	.LASF106
 1348 0794 16       		.uleb128 0x16
 1349 0795 8D070000 		.4byte	0x78d
 1350 0799 0A       		.uleb128 0xa
 1351 079a 04       		.byte	0x4
 1352 079b 92030000 		.4byte	0x392
 1353 079f 17       		.uleb128 0x17
 1354 07a0 03050000 		.4byte	0x503
 1355 07a4 AF070000 		.4byte	0x7af
 1356 07a8 18       		.uleb128 0x18
 1357 07a9 38000000 		.4byte	0x38
 1358 07ad 3A       		.byte	0x3a
 1359 07ae 00       		.byte	0
 1360 07af 19       		.uleb128 0x19
 1361 07b0 636800   		.ascii	"ch\000"
 1362 07b3 0A       		.byte	0xa
 1363 07b4 0902     		.2byte	0x209
 1364 07b6 14       		.byte	0x14
 1365 07b7 6F040000 		.4byte	0x46f
 1366 07bb 13       		.uleb128 0x13
 1367 07bc 16       		.byte	0x16
 1368 07bd 11       		.byte	0x11
ARM GAS  C:\Users\USER\AppData\Local\Temp\ccLH1kGg.s 			page 25


 1369 07be 34       		.byte	0x34
 1370 07bf 09       		.byte	0x9
 1371 07c0 AF080000 		.4byte	0x8af
 1372 07c4 07       		.uleb128 0x7
 1373 07c5 67070000 		.4byte	.LASF107
 1374 07c9 11       		.byte	0x11
 1375 07ca 35       		.byte	0x35
 1376 07cb 0D       		.byte	0xd
 1377 07cc AF080000 		.4byte	0x8af
 1378 07d0 00       		.byte	0
 1379 07d1 07       		.uleb128 0x7
 1380 07d2 1B040000 		.4byte	.LASF108
 1381 07d6 11       		.byte	0x11
 1382 07d7 36       		.byte	0x36
 1383 07d8 0D       		.byte	0xd
 1384 07d9 B3000000 		.4byte	0xb3
 1385 07dd 04       		.byte	0x4
 1386 07de 07       		.uleb128 0x7
 1387 07df 03060000 		.4byte	.LASF109
 1388 07e3 11       		.byte	0x11
 1389 07e4 37       		.byte	0x37
 1390 07e5 0D       		.byte	0xd
 1391 07e6 B3000000 		.4byte	0xb3
 1392 07ea 05       		.byte	0x5
 1393 07eb 07       		.uleb128 0x7
 1394 07ec 54070000 		.4byte	.LASF110
 1395 07f0 11       		.byte	0x11
 1396 07f1 38       		.byte	0x38
 1397 07f2 0D       		.byte	0xd
 1398 07f3 BF000000 		.4byte	0xbf
 1399 07f7 06       		.byte	0x6
 1400 07f8 07       		.uleb128 0x7
 1401 07f9 BA040000 		.4byte	.LASF111
 1402 07fd 11       		.byte	0x11
 1403 07fe 39       		.byte	0x39
 1404 07ff 0D       		.byte	0xd
 1405 0800 B3000000 		.4byte	0xb3
 1406 0804 08       		.byte	0x8
 1407 0805 07       		.uleb128 0x7
 1408 0806 58040000 		.4byte	.LASF112
 1409 080a 11       		.byte	0x11
 1410 080b 3A       		.byte	0x3a
 1411 080c 0D       		.byte	0xd
 1412 080d B3000000 		.4byte	0xb3
 1413 0811 09       		.byte	0x9
 1414 0812 07       		.uleb128 0x7
 1415 0813 7D000000 		.4byte	.LASF113
 1416 0817 11       		.byte	0x11
 1417 0818 3B       		.byte	0x3b
 1418 0819 0D       		.byte	0xd
 1419 081a B3000000 		.4byte	0xb3
 1420 081e 0A       		.byte	0xa
 1421 081f 07       		.uleb128 0x7
 1422 0820 DF050000 		.4byte	.LASF114
 1423 0824 11       		.byte	0x11
 1424 0825 3C       		.byte	0x3c
 1425 0826 0D       		.byte	0xd
ARM GAS  C:\Users\USER\AppData\Local\Temp\ccLH1kGg.s 			page 26


 1426 0827 B3000000 		.4byte	0xb3
 1427 082b 0B       		.byte	0xb
 1428 082c 07       		.uleb128 0x7
 1429 082d B7060000 		.4byte	.LASF115
 1430 0831 11       		.byte	0x11
 1431 0832 3D       		.byte	0x3d
 1432 0833 0D       		.byte	0xd
 1433 0834 B3000000 		.4byte	0xb3
 1434 0838 0C       		.byte	0xc
 1435 0839 07       		.uleb128 0x7
 1436 083a B1050000 		.4byte	.LASF116
 1437 083e 11       		.byte	0x11
 1438 083f 3E       		.byte	0x3e
 1439 0840 0D       		.byte	0xd
 1440 0841 B3000000 		.4byte	0xb3
 1441 0845 0D       		.byte	0xd
 1442 0846 07       		.uleb128 0x7
 1443 0847 72030000 		.4byte	.LASF117
 1444 084b 11       		.byte	0x11
 1445 084c 3F       		.byte	0x3f
 1446 084d 0D       		.byte	0xd
 1447 084e B3000000 		.4byte	0xb3
 1448 0852 0E       		.byte	0xe
 1449 0853 07       		.uleb128 0x7
 1450 0854 64040000 		.4byte	.LASF118
 1451 0858 11       		.byte	0x11
 1452 0859 40       		.byte	0x40
 1453 085a 0D       		.byte	0xd
 1454 085b B3000000 		.4byte	0xb3
 1455 085f 0F       		.byte	0xf
 1456 0860 07       		.uleb128 0x7
 1457 0861 01010000 		.4byte	.LASF119
 1458 0865 11       		.byte	0x11
 1459 0866 41       		.byte	0x41
 1460 0867 0D       		.byte	0xd
 1461 0868 B3000000 		.4byte	0xb3
 1462 086c 10       		.byte	0x10
 1463 086d 07       		.uleb128 0x7
 1464 086e DA000000 		.4byte	.LASF120
 1465 0872 11       		.byte	0x11
 1466 0873 43       		.byte	0x43
 1467 0874 0D       		.byte	0xd
 1468 0875 B3000000 		.4byte	0xb3
 1469 0879 11       		.byte	0x11
 1470 087a 07       		.uleb128 0x7
 1471 087b 11010000 		.4byte	.LASF121
 1472 087f 11       		.byte	0x11
 1473 0880 44       		.byte	0x44
 1474 0881 0D       		.byte	0xd
 1475 0882 B3000000 		.4byte	0xb3
 1476 0886 12       		.byte	0x12
 1477 0887 07       		.uleb128 0x7
 1478 0888 23040000 		.4byte	.LASF122
 1479 088c 11       		.byte	0x11
 1480 088d 45       		.byte	0x45
 1481 088e 0D       		.byte	0xd
 1482 088f B3000000 		.4byte	0xb3
ARM GAS  C:\Users\USER\AppData\Local\Temp\ccLH1kGg.s 			page 27


 1483 0893 13       		.byte	0x13
 1484 0894 07       		.uleb128 0x7
 1485 0895 66050000 		.4byte	.LASF123
 1486 0899 11       		.byte	0x11
 1487 089a 46       		.byte	0x46
 1488 089b 0D       		.byte	0xd
 1489 089c B3000000 		.4byte	0xb3
 1490 08a0 14       		.byte	0x14
 1491 08a1 07       		.uleb128 0x7
 1492 08a2 D1030000 		.4byte	.LASF124
 1493 08a6 11       		.byte	0x11
 1494 08a7 48       		.byte	0x48
 1495 08a8 0D       		.byte	0xd
 1496 08a9 B3000000 		.4byte	0xb3
 1497 08ad 15       		.byte	0x15
 1498 08ae 00       		.byte	0
 1499 08af 17       		.uleb128 0x17
 1500 08b0 8D070000 		.4byte	0x78d
 1501 08b4 BF080000 		.4byte	0x8bf
 1502 08b8 18       		.uleb128 0x18
 1503 08b9 38000000 		.4byte	0x38
 1504 08bd 03       		.byte	0x3
 1505 08be 00       		.byte	0
 1506 08bf 03       		.uleb128 0x3
 1507 08c0 6D010000 		.4byte	.LASF125
 1508 08c4 11       		.byte	0x11
 1509 08c5 49       		.byte	0x49
 1510 08c6 03       		.byte	0x3
 1511 08c7 BB070000 		.4byte	0x7bb
 1512 08cb 16       		.uleb128 0x16
 1513 08cc BF080000 		.4byte	0x8bf
 1514 08d0 11       		.uleb128 0x11
 1515 08d1 93030000 		.4byte	.LASF126
 1516 08d5 11       		.byte	0x11
 1517 08d6 6E       		.byte	0x6e
 1518 08d7 1D       		.byte	0x1d
 1519 08d8 CB080000 		.4byte	0x8cb
 1520 08dc 03       		.uleb128 0x3
 1521 08dd 13030000 		.4byte	.LASF127
 1522 08e1 10       		.byte	0x10
 1523 08e2 34       		.byte	0x34
 1524 08e3 19       		.byte	0x19
 1525 08e4 47070000 		.4byte	0x747
 1526 08e8 0A       		.uleb128 0xa
 1527 08e9 04       		.byte	0x4
 1528 08ea DC080000 		.4byte	0x8dc
 1529 08ee 0A       		.uleb128 0xa
 1530 08ef 04       		.byte	0x4
 1531 08f0 B3000000 		.4byte	0xb3
 1532 08f4 1A       		.uleb128 0x1a
 1533 08f5 3D060000 		.4byte	.LASF128
 1534 08f9 01       		.byte	0x1
 1535 08fa 3E       		.byte	0x3e
 1536 08fb 11       		.byte	0x11
 1537 08fc EE080000 		.4byte	0x8ee
 1538 0900 05       		.uleb128 0x5
 1539 0901 03       		.byte	0x3
ARM GAS  C:\Users\USER\AppData\Local\Temp\ccLH1kGg.s 			page 28


 1540 0902 00000000 		.4byte	nextmem
 1541 0906 1A       		.uleb128 0x1a
 1542 0907 00000000 		.4byte	.LASF129
 1543 090b 01       		.byte	0x1
 1544 090c 3F       		.byte	0x3f
 1545 090d 11       		.byte	0x11
 1546 090e EE080000 		.4byte	0x8ee
 1547 0912 05       		.uleb128 0x5
 1548 0913 03       		.byte	0x3
 1549 0914 00000000 		.4byte	endmem
 1550 0918 1B       		.uleb128 0x1b
 1551 0919 E4040000 		.4byte	.LASF142
 1552 091d 01       		.byte	0x1
 1553 091e 9B       		.byte	0x9b
 1554 091f 08       		.byte	0x8
 1555 0920 2C000000 		.4byte	0x2c
 1556 0924 00000000 		.4byte	.LFB222
 1557 0928 14000000 		.4byte	.LFE222-.LFB222
 1558 092c 01       		.uleb128 0x1
 1559 092d 9C       		.byte	0x9c
 1560 092e 1C       		.uleb128 0x1c
 1561 092f AF010000 		.4byte	.LASF143
 1562 0933 01       		.byte	0x1
 1563 0934 83       		.byte	0x83
 1564 0935 07       		.byte	0x7
 1565 0936 90030000 		.4byte	0x390
 1566 093a 01       		.byte	0x1
 1567 093b 56090000 		.4byte	0x956
 1568 093f 1D       		.uleb128 0x1d
 1569 0940 38070000 		.4byte	.LASF137
 1570 0944 01       		.byte	0x1
 1571 0945 83       		.byte	0x83
 1572 0946 1B       		.byte	0x1b
 1573 0947 2C000000 		.4byte	0x2c
 1574 094b 1E       		.uleb128 0x1e
 1575 094c 7000     		.ascii	"p\000"
 1576 094e 01       		.byte	0x1
 1577 094f 84       		.byte	0x84
 1578 0950 09       		.byte	0x9
 1579 0951 90030000 		.4byte	0x390
 1580 0955 00       		.byte	0
 1581 0956 1F       		.uleb128 0x1f
 1582 0957 2B000000 		.4byte	.LASF144
 1583 095b 01       		.byte	0x1
 1584 095c 6D       		.byte	0x6d
 1585 095d 07       		.byte	0x7
 1586 095e 90030000 		.4byte	0x390
 1587 0962 00000000 		.4byte	.LFB220
 1588 0966 34000000 		.4byte	.LFE220-.LFB220
 1589 096a 01       		.uleb128 0x1
 1590 096b 9C       		.byte	0x9c
 1591 096c 6D0A0000 		.4byte	0xa6d
 1592 0970 20       		.uleb128 0x20
 1593 0971 38070000 		.4byte	.LASF137
 1594 0975 01       		.byte	0x1
 1595 0976 6D       		.byte	0x6d
 1596 0977 1A       		.byte	0x1a
ARM GAS  C:\Users\USER\AppData\Local\Temp\ccLH1kGg.s 			page 29


 1597 0978 2C000000 		.4byte	0x2c
 1598 097c 08000000 		.4byte	.LLST0
 1599 0980 00000000 		.4byte	.LVUS0
 1600 0984 21       		.uleb128 0x21
 1601 0985 7000     		.ascii	"p\000"
 1602 0987 01       		.byte	0x1
 1603 0988 6E       		.byte	0x6e
 1604 0989 09       		.byte	0x9
 1605 098a 90030000 		.4byte	0x390
 1606 098e 43000000 		.4byte	.LLST1
 1607 0992 41000000 		.4byte	.LVUS1
 1608 0996 22       		.uleb128 0x22
 1609 0997 D40A0000 		.4byte	0xad4
 1610 099b 00000000 		.4byte	.LBI26
 1611 099f 03       		.byte	.LVU17
 1612 09a0 00000000 		.4byte	.Ldebug_ranges0+0
 1613 09a4 01       		.byte	0x1
 1614 09a5 70       		.byte	0x70
 1615 09a6 03       		.byte	0x3
 1616 09a7 DF090000 		.4byte	0x9df
 1617 09ab 23       		.uleb128 0x23
 1618 09ac E80A0000 		.4byte	0xae8
 1619 09b0 00000000 		.4byte	.LBI27
 1620 09b4 05       		.byte	.LVU19
 1621 09b5 08000000 		.4byte	.Ldebug_ranges0+0x8
 1622 09b9 02       		.byte	0x2
 1623 09ba 5C01     		.2byte	0x15c
 1624 09bc 03       		.byte	0x3
 1625 09bd 23       		.uleb128 0x23
 1626 09be F20A0000 		.4byte	0xaf2
 1627 09c2 00000000 		.4byte	.LBI28
 1628 09c6 07       		.byte	.LVU21
 1629 09c7 10000000 		.4byte	.Ldebug_ranges0+0x10
 1630 09cb 03       		.byte	0x3
 1631 09cc BF01     		.2byte	0x1bf
 1632 09ce 03       		.byte	0x3
 1633 09cf 24       		.uleb128 0x24
 1634 09d0 000B0000 		.4byte	0xb00
 1635 09d4 58000000 		.4byte	.LLST2
 1636 09d8 56000000 		.4byte	.LVUS2
 1637 09dc 00       		.byte	0
 1638 09dd 00       		.byte	0
 1639 09de 00       		.byte	0
 1640 09df 25       		.uleb128 0x25
 1641 09e0 2E090000 		.4byte	0x92e
 1642 09e4 08000000 		.4byte	.LBI37
 1643 09e8 04       		.byte	.LVU29
 1644 09e9 08000000 		.4byte	.LBB37
 1645 09ed 1A000000 		.4byte	.LBE37-.LBB37
 1646 09f1 01       		.byte	0x1
 1647 09f2 71       		.byte	0x71
 1648 09f3 07       		.byte	0x7
 1649 09f4 1D0A0000 		.4byte	0xa1d
 1650 09f8 24       		.uleb128 0x24
 1651 09f9 3F090000 		.4byte	0x93f
 1652 09fd 77000000 		.4byte	.LLST3
 1653 0a01 6D000000 		.4byte	.LVUS3
ARM GAS  C:\Users\USER\AppData\Local\Temp\ccLH1kGg.s 			page 30


 1654 0a05 26       		.uleb128 0x26
 1655 0a06 08000000 		.4byte	.LBB38
 1656 0a0a 1A000000 		.4byte	.LBE38-.LBB38
 1657 0a0e 27       		.uleb128 0x27
 1658 0a0f 4B090000 		.4byte	0x94b
 1659 0a13 C2000000 		.4byte	.LLST4
 1660 0a17 C0000000 		.4byte	.LVUS4
 1661 0a1b 00       		.byte	0
 1662 0a1c 00       		.byte	0
 1663 0a1d 28       		.uleb128 0x28
 1664 0a1e A70A0000 		.4byte	0xaa7
 1665 0a22 22000000 		.4byte	.LBI39
 1666 0a26 02       		.byte	.LVU48
 1667 0a27 28000000 		.4byte	.Ldebug_ranges0+0x28
 1668 0a2b 01       		.byte	0x1
 1669 0a2c 72       		.byte	0x72
 1670 0a2d 03       		.byte	0x3
 1671 0a2e 29       		.uleb128 0x29
 1672 0a2f 28000000 		.4byte	.Ldebug_ranges0+0x28
 1673 0a33 23       		.uleb128 0x23
 1674 0a34 DE0A0000 		.4byte	0xade
 1675 0a38 22000000 		.4byte	.LBI41
 1676 0a3c 08       		.byte	.LVU54
 1677 0a3d 28000000 		.4byte	.Ldebug_ranges0+0x28
 1678 0a41 02       		.byte	0x2
 1679 0a42 7301     		.2byte	0x173
 1680 0a44 03       		.byte	0x3
 1681 0a45 2A       		.uleb128 0x2a
 1682 0a46 F20A0000 		.4byte	0xaf2
 1683 0a4a 22000000 		.4byte	.LBI42
 1684 0a4e 0A       		.byte	.LVU56
 1685 0a4f 22000000 		.4byte	.LBB42
 1686 0a53 06000000 		.4byte	.LBE42-.LBB42
 1687 0a57 03       		.byte	0x3
 1688 0a58 CD01     		.2byte	0x1cd
 1689 0a5a 03       		.byte	0x3
 1690 0a5b 24       		.uleb128 0x24
 1691 0a5c 000B0000 		.4byte	0xb00
 1692 0a60 D7000000 		.4byte	.LLST5
 1693 0a64 D5000000 		.4byte	.LVUS5
 1694 0a68 00       		.byte	0
 1695 0a69 00       		.byte	0
 1696 0a6a 00       		.byte	0
 1697 0a6b 00       		.byte	0
 1698 0a6c 00       		.byte	0
 1699 0a6d 2B       		.uleb128 0x2b
 1700 0a6e 0B050000 		.4byte	.LASF145
 1701 0a72 01       		.byte	0x1
 1702 0a73 4E       		.byte	0x4e
 1703 0a74 06       		.byte	0x6
 1704 0a75 00000000 		.4byte	.LFB219
 1705 0a79 28000000 		.4byte	.LFE219-.LFB219
 1706 0a7d 01       		.uleb128 0x1
 1707 0a7e 9C       		.byte	0x9c
 1708 0a7f 9C0A0000 		.4byte	0xa9c
 1709 0a83 11       		.uleb128 0x11
 1710 0a84 A9060000 		.4byte	.LASF130
ARM GAS  C:\Users\USER\AppData\Local\Temp\ccLH1kGg.s 			page 31


 1711 0a88 01       		.byte	0x1
 1712 0a89 50       		.byte	0x50
 1713 0a8a 12       		.byte	0x12
 1714 0a8b 9C0A0000 		.4byte	0xa9c
 1715 0a8f 11       		.uleb128 0x11
 1716 0a90 3C050000 		.4byte	.LASF131
 1717 0a94 01       		.byte	0x1
 1718 0a95 51       		.byte	0x51
 1719 0a96 12       		.byte	0x12
 1720 0a97 9C0A0000 		.4byte	0xa9c
 1721 0a9b 00       		.byte	0
 1722 0a9c 17       		.uleb128 0x17
 1723 0a9d B3000000 		.4byte	0xb3
 1724 0aa1 A70A0000 		.4byte	0xaa7
 1725 0aa5 2C       		.uleb128 0x2c
 1726 0aa6 00       		.byte	0
 1727 0aa7 2D       		.uleb128 0x2d
 1728 0aa8 48070000 		.4byte	.LASF135
 1729 0aac 02       		.byte	0x2
 1730 0aad 6601     		.2byte	0x166
 1731 0aaf 14       		.byte	0x14
 1732 0ab0 03       		.byte	0x3
 1733 0ab1 BF0A0000 		.4byte	0xabf
 1734 0ab5 2E       		.uleb128 0x2e
 1735 0ab6 7D050000 		.4byte	.LASF146
 1736 0aba CF0A0000 		.4byte	0xacf
 1737 0abe 00       		.byte	0
 1738 0abf 17       		.uleb128 0x17
 1739 0ac0 94070000 		.4byte	0x794
 1740 0ac4 CF0A0000 		.4byte	0xacf
 1741 0ac8 18       		.uleb128 0x18
 1742 0ac9 38000000 		.4byte	0x38
 1743 0acd 0B       		.byte	0xb
 1744 0ace 00       		.byte	0
 1745 0acf 16       		.uleb128 0x16
 1746 0ad0 BF0A0000 		.4byte	0xabf
 1747 0ad4 2F       		.uleb128 0x2f
 1748 0ad5 86050000 		.4byte	.LASF132
 1749 0ad9 02       		.byte	0x2
 1750 0ada 5A01     		.2byte	0x15a
 1751 0adc 14       		.byte	0x14
 1752 0add 03       		.byte	0x3
 1753 0ade 2F       		.uleb128 0x2f
 1754 0adf 35010000 		.4byte	.LASF133
 1755 0ae3 03       		.byte	0x3
 1756 0ae4 CA01     		.2byte	0x1ca
 1757 0ae6 14       		.byte	0x14
 1758 0ae7 03       		.byte	0x3
 1759 0ae8 2F       		.uleb128 0x2f
 1760 0ae9 5C000000 		.4byte	.LASF134
 1761 0aed 03       		.byte	0x3
 1762 0aee BC01     		.2byte	0x1bc
 1763 0af0 14       		.byte	0x14
 1764 0af1 03       		.byte	0x3
 1765 0af2 2D       		.uleb128 0x2d
 1766 0af3 75060000 		.4byte	.LASF136
 1767 0af7 04       		.byte	0x4
ARM GAS  C:\Users\USER\AppData\Local\Temp\ccLH1kGg.s 			page 32


 1768 0af8 2002     		.2byte	0x220
 1769 0afa 39       		.byte	0x39
 1770 0afb 03       		.byte	0x3
 1771 0afc 0E0B0000 		.4byte	0xb0e
 1772 0b00 30       		.uleb128 0x30
 1773 0b01 1B030000 		.4byte	.LASF138
 1774 0b05 04       		.byte	0x4
 1775 0b06 2002     		.2byte	0x220
 1776 0b08 50       		.byte	0x50
 1777 0b09 DC000000 		.4byte	0xdc
 1778 0b0d 00       		.byte	0
 1779 0b0e 31       		.uleb128 0x31
 1780 0b0f 2E090000 		.4byte	0x92e
 1781 0b13 00000000 		.4byte	.LFB221
 1782 0b17 28000000 		.4byte	.LFE221-.LFB221
 1783 0b1b 01       		.uleb128 0x1
 1784 0b1c 9C       		.byte	0x9c
 1785 0b1d 24       		.uleb128 0x24
 1786 0b1e 3F090000 		.4byte	0x93f
 1787 0b22 F3000000 		.4byte	.LLST6
 1788 0b26 EB000000 		.4byte	.LVUS6
 1789 0b2a 27       		.uleb128 0x27
 1790 0b2b 4B090000 		.4byte	0x94b
 1791 0b2f 35010000 		.4byte	.LLST7
 1792 0b33 31010000 		.4byte	.LVUS7
 1793 0b37 00       		.byte	0
 1794 0b38 00       		.byte	0
 1795              		.section	.debug_abbrev,"",%progbits
 1796              	.Ldebug_abbrev0:
 1797 0000 01       		.uleb128 0x1
 1798 0001 11       		.uleb128 0x11
 1799 0002 01       		.byte	0x1
 1800 0003 25       		.uleb128 0x25
 1801 0004 0E       		.uleb128 0xe
 1802 0005 13       		.uleb128 0x13
 1803 0006 0B       		.uleb128 0xb
 1804 0007 03       		.uleb128 0x3
 1805 0008 0E       		.uleb128 0xe
 1806 0009 1B       		.uleb128 0x1b
 1807 000a 0E       		.uleb128 0xe
 1808 000b 55       		.uleb128 0x55
 1809 000c 17       		.uleb128 0x17
 1810 000d 11       		.uleb128 0x11
 1811 000e 01       		.uleb128 0x1
 1812 000f 10       		.uleb128 0x10
 1813 0010 17       		.uleb128 0x17
 1814 0011 00       		.byte	0
 1815 0012 00       		.byte	0
 1816 0013 02       		.uleb128 0x2
 1817 0014 24       		.uleb128 0x24
 1818 0015 00       		.byte	0
 1819 0016 0B       		.uleb128 0xb
 1820 0017 0B       		.uleb128 0xb
 1821 0018 3E       		.uleb128 0x3e
 1822 0019 0B       		.uleb128 0xb
 1823 001a 03       		.uleb128 0x3
 1824 001b 08       		.uleb128 0x8
ARM GAS  C:\Users\USER\AppData\Local\Temp\ccLH1kGg.s 			page 33


 1825 001c 00       		.byte	0
 1826 001d 00       		.byte	0
 1827 001e 03       		.uleb128 0x3
 1828 001f 16       		.uleb128 0x16
 1829 0020 00       		.byte	0
 1830 0021 03       		.uleb128 0x3
 1831 0022 0E       		.uleb128 0xe
 1832 0023 3A       		.uleb128 0x3a
 1833 0024 0B       		.uleb128 0xb
 1834 0025 3B       		.uleb128 0x3b
 1835 0026 0B       		.uleb128 0xb
 1836 0027 39       		.uleb128 0x39
 1837 0028 0B       		.uleb128 0xb
 1838 0029 49       		.uleb128 0x49
 1839 002a 13       		.uleb128 0x13
 1840 002b 00       		.byte	0
 1841 002c 00       		.byte	0
 1842 002d 04       		.uleb128 0x4
 1843 002e 24       		.uleb128 0x24
 1844 002f 00       		.byte	0
 1845 0030 0B       		.uleb128 0xb
 1846 0031 0B       		.uleb128 0xb
 1847 0032 3E       		.uleb128 0x3e
 1848 0033 0B       		.uleb128 0xb
 1849 0034 03       		.uleb128 0x3
 1850 0035 0E       		.uleb128 0xe
 1851 0036 00       		.byte	0
 1852 0037 00       		.byte	0
 1853 0038 05       		.uleb128 0x5
 1854 0039 35       		.uleb128 0x35
 1855 003a 00       		.byte	0
 1856 003b 49       		.uleb128 0x49
 1857 003c 13       		.uleb128 0x13
 1858 003d 00       		.byte	0
 1859 003e 00       		.byte	0
 1860 003f 06       		.uleb128 0x6
 1861 0040 13       		.uleb128 0x13
 1862 0041 01       		.byte	0x1
 1863 0042 03       		.uleb128 0x3
 1864 0043 0E       		.uleb128 0xe
 1865 0044 0B       		.uleb128 0xb
 1866 0045 0B       		.uleb128 0xb
 1867 0046 3A       		.uleb128 0x3a
 1868 0047 0B       		.uleb128 0xb
 1869 0048 3B       		.uleb128 0x3b
 1870 0049 0B       		.uleb128 0xb
 1871 004a 39       		.uleb128 0x39
 1872 004b 0B       		.uleb128 0xb
 1873 004c 01       		.uleb128 0x1
 1874 004d 13       		.uleb128 0x13
 1875 004e 00       		.byte	0
 1876 004f 00       		.byte	0
 1877 0050 07       		.uleb128 0x7
 1878 0051 0D       		.uleb128 0xd
 1879 0052 00       		.byte	0
 1880 0053 03       		.uleb128 0x3
 1881 0054 0E       		.uleb128 0xe
ARM GAS  C:\Users\USER\AppData\Local\Temp\ccLH1kGg.s 			page 34


 1882 0055 3A       		.uleb128 0x3a
 1883 0056 0B       		.uleb128 0xb
 1884 0057 3B       		.uleb128 0x3b
 1885 0058 0B       		.uleb128 0xb
 1886 0059 39       		.uleb128 0x39
 1887 005a 0B       		.uleb128 0xb
 1888 005b 49       		.uleb128 0x49
 1889 005c 13       		.uleb128 0x13
 1890 005d 38       		.uleb128 0x38
 1891 005e 0B       		.uleb128 0xb
 1892 005f 00       		.byte	0
 1893 0060 00       		.byte	0
 1894 0061 08       		.uleb128 0x8
 1895 0062 0D       		.uleb128 0xd
 1896 0063 00       		.byte	0
 1897 0064 03       		.uleb128 0x3
 1898 0065 08       		.uleb128 0x8
 1899 0066 3A       		.uleb128 0x3a
 1900 0067 0B       		.uleb128 0xb
 1901 0068 3B       		.uleb128 0x3b
 1902 0069 05       		.uleb128 0x5
 1903 006a 39       		.uleb128 0x39
 1904 006b 0B       		.uleb128 0xb
 1905 006c 49       		.uleb128 0x49
 1906 006d 13       		.uleb128 0x13
 1907 006e 38       		.uleb128 0x38
 1908 006f 0B       		.uleb128 0xb
 1909 0070 00       		.byte	0
 1910 0071 00       		.byte	0
 1911 0072 09       		.uleb128 0x9
 1912 0073 0D       		.uleb128 0xd
 1913 0074 00       		.byte	0
 1914 0075 03       		.uleb128 0x3
 1915 0076 0E       		.uleb128 0xe
 1916 0077 3A       		.uleb128 0x3a
 1917 0078 0B       		.uleb128 0xb
 1918 0079 3B       		.uleb128 0x3b
 1919 007a 05       		.uleb128 0x5
 1920 007b 39       		.uleb128 0x39
 1921 007c 0B       		.uleb128 0xb
 1922 007d 49       		.uleb128 0x49
 1923 007e 13       		.uleb128 0x13
 1924 007f 38       		.uleb128 0x38
 1925 0080 0B       		.uleb128 0xb
 1926 0081 00       		.byte	0
 1927 0082 00       		.byte	0
 1928 0083 0A       		.uleb128 0xa
 1929 0084 0F       		.uleb128 0xf
 1930 0085 00       		.byte	0
 1931 0086 0B       		.uleb128 0xb
 1932 0087 0B       		.uleb128 0xb
 1933 0088 49       		.uleb128 0x49
 1934 0089 13       		.uleb128 0x13
 1935 008a 00       		.byte	0
 1936 008b 00       		.byte	0
 1937 008c 0B       		.uleb128 0xb
 1938 008d 13       		.uleb128 0x13
ARM GAS  C:\Users\USER\AppData\Local\Temp\ccLH1kGg.s 			page 35


 1939 008e 01       		.byte	0x1
 1940 008f 03       		.uleb128 0x3
 1941 0090 0E       		.uleb128 0xe
 1942 0091 0B       		.uleb128 0xb
 1943 0092 0B       		.uleb128 0xb
 1944 0093 3A       		.uleb128 0x3a
 1945 0094 0B       		.uleb128 0xb
 1946 0095 3B       		.uleb128 0x3b
 1947 0096 05       		.uleb128 0x5
 1948 0097 39       		.uleb128 0x39
 1949 0098 0B       		.uleb128 0xb
 1950 0099 01       		.uleb128 0x1
 1951 009a 13       		.uleb128 0x13
 1952 009b 00       		.byte	0
 1953 009c 00       		.byte	0
 1954 009d 0C       		.uleb128 0xc
 1955 009e 15       		.uleb128 0x15
 1956 009f 01       		.byte	0x1
 1957 00a0 27       		.uleb128 0x27
 1958 00a1 19       		.uleb128 0x19
 1959 00a2 01       		.uleb128 0x1
 1960 00a3 13       		.uleb128 0x13
 1961 00a4 00       		.byte	0
 1962 00a5 00       		.byte	0
 1963 00a6 0D       		.uleb128 0xd
 1964 00a7 05       		.uleb128 0x5
 1965 00a8 00       		.byte	0
 1966 00a9 49       		.uleb128 0x49
 1967 00aa 13       		.uleb128 0x13
 1968 00ab 00       		.byte	0
 1969 00ac 00       		.byte	0
 1970 00ad 0E       		.uleb128 0xe
 1971 00ae 0F       		.uleb128 0xf
 1972 00af 00       		.byte	0
 1973 00b0 0B       		.uleb128 0xb
 1974 00b1 0B       		.uleb128 0xb
 1975 00b2 00       		.byte	0
 1976 00b3 00       		.byte	0
 1977 00b4 0F       		.uleb128 0xf
 1978 00b5 13       		.uleb128 0x13
 1979 00b6 01       		.byte	0x1
 1980 00b7 03       		.uleb128 0x3
 1981 00b8 0E       		.uleb128 0xe
 1982 00b9 0B       		.uleb128 0xb
 1983 00ba 05       		.uleb128 0x5
 1984 00bb 3A       		.uleb128 0x3a
 1985 00bc 0B       		.uleb128 0xb
 1986 00bd 3B       		.uleb128 0x3b
 1987 00be 05       		.uleb128 0x5
 1988 00bf 39       		.uleb128 0x39
 1989 00c0 0B       		.uleb128 0xb
 1990 00c1 01       		.uleb128 0x1
 1991 00c2 13       		.uleb128 0x13
 1992 00c3 00       		.byte	0
 1993 00c4 00       		.byte	0
 1994 00c5 10       		.uleb128 0x10
 1995 00c6 34       		.uleb128 0x34
ARM GAS  C:\Users\USER\AppData\Local\Temp\ccLH1kGg.s 			page 36


 1996 00c7 00       		.byte	0
 1997 00c8 03       		.uleb128 0x3
 1998 00c9 0E       		.uleb128 0xe
 1999 00ca 3A       		.uleb128 0x3a
 2000 00cb 0B       		.uleb128 0xb
 2001 00cc 3B       		.uleb128 0x3b
 2002 00cd 05       		.uleb128 0x5
 2003 00ce 39       		.uleb128 0x39
 2004 00cf 0B       		.uleb128 0xb
 2005 00d0 49       		.uleb128 0x49
 2006 00d1 13       		.uleb128 0x13
 2007 00d2 3F       		.uleb128 0x3f
 2008 00d3 19       		.uleb128 0x19
 2009 00d4 3C       		.uleb128 0x3c
 2010 00d5 19       		.uleb128 0x19
 2011 00d6 00       		.byte	0
 2012 00d7 00       		.byte	0
 2013 00d8 11       		.uleb128 0x11
 2014 00d9 34       		.uleb128 0x34
 2015 00da 00       		.byte	0
 2016 00db 03       		.uleb128 0x3
 2017 00dc 0E       		.uleb128 0xe
 2018 00dd 3A       		.uleb128 0x3a
 2019 00de 0B       		.uleb128 0xb
 2020 00df 3B       		.uleb128 0x3b
 2021 00e0 0B       		.uleb128 0xb
 2022 00e1 39       		.uleb128 0x39
 2023 00e2 0B       		.uleb128 0xb
 2024 00e3 49       		.uleb128 0x49
 2025 00e4 13       		.uleb128 0x13
 2026 00e5 3F       		.uleb128 0x3f
 2027 00e6 19       		.uleb128 0x19
 2028 00e7 3C       		.uleb128 0x3c
 2029 00e8 19       		.uleb128 0x19
 2030 00e9 00       		.byte	0
 2031 00ea 00       		.byte	0
 2032 00eb 12       		.uleb128 0x12
 2033 00ec 0D       		.uleb128 0xd
 2034 00ed 00       		.byte	0
 2035 00ee 03       		.uleb128 0x3
 2036 00ef 08       		.uleb128 0x8
 2037 00f0 3A       		.uleb128 0x3a
 2038 00f1 0B       		.uleb128 0xb
 2039 00f2 3B       		.uleb128 0x3b
 2040 00f3 0B       		.uleb128 0xb
 2041 00f4 39       		.uleb128 0x39
 2042 00f5 0B       		.uleb128 0xb
 2043 00f6 49       		.uleb128 0x49
 2044 00f7 13       		.uleb128 0x13
 2045 00f8 38       		.uleb128 0x38
 2046 00f9 0B       		.uleb128 0xb
 2047 00fa 00       		.byte	0
 2048 00fb 00       		.byte	0
 2049 00fc 13       		.uleb128 0x13
 2050 00fd 13       		.uleb128 0x13
 2051 00fe 01       		.byte	0x1
 2052 00ff 0B       		.uleb128 0xb
ARM GAS  C:\Users\USER\AppData\Local\Temp\ccLH1kGg.s 			page 37


 2053 0100 0B       		.uleb128 0xb
 2054 0101 3A       		.uleb128 0x3a
 2055 0102 0B       		.uleb128 0xb
 2056 0103 3B       		.uleb128 0x3b
 2057 0104 0B       		.uleb128 0xb
 2058 0105 39       		.uleb128 0x39
 2059 0106 0B       		.uleb128 0xb
 2060 0107 01       		.uleb128 0x1
 2061 0108 13       		.uleb128 0x13
 2062 0109 00       		.byte	0
 2063 010a 00       		.byte	0
 2064 010b 14       		.uleb128 0x14
 2065 010c 17       		.uleb128 0x17
 2066 010d 01       		.byte	0x1
 2067 010e 0B       		.uleb128 0xb
 2068 010f 0B       		.uleb128 0xb
 2069 0110 3A       		.uleb128 0x3a
 2070 0111 0B       		.uleb128 0xb
 2071 0112 3B       		.uleb128 0x3b
 2072 0113 0B       		.uleb128 0xb
 2073 0114 39       		.uleb128 0x39
 2074 0115 0B       		.uleb128 0xb
 2075 0116 01       		.uleb128 0x1
 2076 0117 13       		.uleb128 0x13
 2077 0118 00       		.byte	0
 2078 0119 00       		.byte	0
 2079 011a 15       		.uleb128 0x15
 2080 011b 0D       		.uleb128 0xd
 2081 011c 00       		.byte	0
 2082 011d 03       		.uleb128 0x3
 2083 011e 0E       		.uleb128 0xe
 2084 011f 3A       		.uleb128 0x3a
 2085 0120 0B       		.uleb128 0xb
 2086 0121 3B       		.uleb128 0x3b
 2087 0122 05       		.uleb128 0x5
 2088 0123 39       		.uleb128 0x39
 2089 0124 0B       		.uleb128 0xb
 2090 0125 49       		.uleb128 0x49
 2091 0126 13       		.uleb128 0x13
 2092 0127 00       		.byte	0
 2093 0128 00       		.byte	0
 2094 0129 16       		.uleb128 0x16
 2095 012a 26       		.uleb128 0x26
 2096 012b 00       		.byte	0
 2097 012c 49       		.uleb128 0x49
 2098 012d 13       		.uleb128 0x13
 2099 012e 00       		.byte	0
 2100 012f 00       		.byte	0
 2101 0130 17       		.uleb128 0x17
 2102 0131 01       		.uleb128 0x1
 2103 0132 01       		.byte	0x1
 2104 0133 49       		.uleb128 0x49
 2105 0134 13       		.uleb128 0x13
 2106 0135 01       		.uleb128 0x1
 2107 0136 13       		.uleb128 0x13
 2108 0137 00       		.byte	0
 2109 0138 00       		.byte	0
ARM GAS  C:\Users\USER\AppData\Local\Temp\ccLH1kGg.s 			page 38


 2110 0139 18       		.uleb128 0x18
 2111 013a 21       		.uleb128 0x21
 2112 013b 00       		.byte	0
 2113 013c 49       		.uleb128 0x49
 2114 013d 13       		.uleb128 0x13
 2115 013e 2F       		.uleb128 0x2f
 2116 013f 0B       		.uleb128 0xb
 2117 0140 00       		.byte	0
 2118 0141 00       		.byte	0
 2119 0142 19       		.uleb128 0x19
 2120 0143 34       		.uleb128 0x34
 2121 0144 00       		.byte	0
 2122 0145 03       		.uleb128 0x3
 2123 0146 08       		.uleb128 0x8
 2124 0147 3A       		.uleb128 0x3a
 2125 0148 0B       		.uleb128 0xb
 2126 0149 3B       		.uleb128 0x3b
 2127 014a 05       		.uleb128 0x5
 2128 014b 39       		.uleb128 0x39
 2129 014c 0B       		.uleb128 0xb
 2130 014d 49       		.uleb128 0x49
 2131 014e 13       		.uleb128 0x13
 2132 014f 3F       		.uleb128 0x3f
 2133 0150 19       		.uleb128 0x19
 2134 0151 3C       		.uleb128 0x3c
 2135 0152 19       		.uleb128 0x19
 2136 0153 00       		.byte	0
 2137 0154 00       		.byte	0
 2138 0155 1A       		.uleb128 0x1a
 2139 0156 34       		.uleb128 0x34
 2140 0157 00       		.byte	0
 2141 0158 03       		.uleb128 0x3
 2142 0159 0E       		.uleb128 0xe
 2143 015a 3A       		.uleb128 0x3a
 2144 015b 0B       		.uleb128 0xb
 2145 015c 3B       		.uleb128 0x3b
 2146 015d 0B       		.uleb128 0xb
 2147 015e 39       		.uleb128 0x39
 2148 015f 0B       		.uleb128 0xb
 2149 0160 49       		.uleb128 0x49
 2150 0161 13       		.uleb128 0x13
 2151 0162 02       		.uleb128 0x2
 2152 0163 18       		.uleb128 0x18
 2153 0164 00       		.byte	0
 2154 0165 00       		.byte	0
 2155 0166 1B       		.uleb128 0x1b
 2156 0167 2E       		.uleb128 0x2e
 2157 0168 00       		.byte	0
 2158 0169 3F       		.uleb128 0x3f
 2159 016a 19       		.uleb128 0x19
 2160 016b 03       		.uleb128 0x3
 2161 016c 0E       		.uleb128 0xe
 2162 016d 3A       		.uleb128 0x3a
 2163 016e 0B       		.uleb128 0xb
 2164 016f 3B       		.uleb128 0x3b
 2165 0170 0B       		.uleb128 0xb
 2166 0171 39       		.uleb128 0x39
ARM GAS  C:\Users\USER\AppData\Local\Temp\ccLH1kGg.s 			page 39


 2167 0172 0B       		.uleb128 0xb
 2168 0173 27       		.uleb128 0x27
 2169 0174 19       		.uleb128 0x19
 2170 0175 49       		.uleb128 0x49
 2171 0176 13       		.uleb128 0x13
 2172 0177 11       		.uleb128 0x11
 2173 0178 01       		.uleb128 0x1
 2174 0179 12       		.uleb128 0x12
 2175 017a 06       		.uleb128 0x6
 2176 017b 40       		.uleb128 0x40
 2177 017c 18       		.uleb128 0x18
 2178 017d 9742     		.uleb128 0x2117
 2179 017f 19       		.uleb128 0x19
 2180 0180 00       		.byte	0
 2181 0181 00       		.byte	0
 2182 0182 1C       		.uleb128 0x1c
 2183 0183 2E       		.uleb128 0x2e
 2184 0184 01       		.byte	0x1
 2185 0185 3F       		.uleb128 0x3f
 2186 0186 19       		.uleb128 0x19
 2187 0187 03       		.uleb128 0x3
 2188 0188 0E       		.uleb128 0xe
 2189 0189 3A       		.uleb128 0x3a
 2190 018a 0B       		.uleb128 0xb
 2191 018b 3B       		.uleb128 0x3b
 2192 018c 0B       		.uleb128 0xb
 2193 018d 39       		.uleb128 0x39
 2194 018e 0B       		.uleb128 0xb
 2195 018f 27       		.uleb128 0x27
 2196 0190 19       		.uleb128 0x19
 2197 0191 49       		.uleb128 0x49
 2198 0192 13       		.uleb128 0x13
 2199 0193 20       		.uleb128 0x20
 2200 0194 0B       		.uleb128 0xb
 2201 0195 01       		.uleb128 0x1
 2202 0196 13       		.uleb128 0x13
 2203 0197 00       		.byte	0
 2204 0198 00       		.byte	0
 2205 0199 1D       		.uleb128 0x1d
 2206 019a 05       		.uleb128 0x5
 2207 019b 00       		.byte	0
 2208 019c 03       		.uleb128 0x3
 2209 019d 0E       		.uleb128 0xe
 2210 019e 3A       		.uleb128 0x3a
 2211 019f 0B       		.uleb128 0xb
 2212 01a0 3B       		.uleb128 0x3b
 2213 01a1 0B       		.uleb128 0xb
 2214 01a2 39       		.uleb128 0x39
 2215 01a3 0B       		.uleb128 0xb
 2216 01a4 49       		.uleb128 0x49
 2217 01a5 13       		.uleb128 0x13
 2218 01a6 00       		.byte	0
 2219 01a7 00       		.byte	0
 2220 01a8 1E       		.uleb128 0x1e
 2221 01a9 34       		.uleb128 0x34
 2222 01aa 00       		.byte	0
 2223 01ab 03       		.uleb128 0x3
ARM GAS  C:\Users\USER\AppData\Local\Temp\ccLH1kGg.s 			page 40


 2224 01ac 08       		.uleb128 0x8
 2225 01ad 3A       		.uleb128 0x3a
 2226 01ae 0B       		.uleb128 0xb
 2227 01af 3B       		.uleb128 0x3b
 2228 01b0 0B       		.uleb128 0xb
 2229 01b1 39       		.uleb128 0x39
 2230 01b2 0B       		.uleb128 0xb
 2231 01b3 49       		.uleb128 0x49
 2232 01b4 13       		.uleb128 0x13
 2233 01b5 00       		.byte	0
 2234 01b6 00       		.byte	0
 2235 01b7 1F       		.uleb128 0x1f
 2236 01b8 2E       		.uleb128 0x2e
 2237 01b9 01       		.byte	0x1
 2238 01ba 3F       		.uleb128 0x3f
 2239 01bb 19       		.uleb128 0x19
 2240 01bc 03       		.uleb128 0x3
 2241 01bd 0E       		.uleb128 0xe
 2242 01be 3A       		.uleb128 0x3a
 2243 01bf 0B       		.uleb128 0xb
 2244 01c0 3B       		.uleb128 0x3b
 2245 01c1 0B       		.uleb128 0xb
 2246 01c2 39       		.uleb128 0x39
 2247 01c3 0B       		.uleb128 0xb
 2248 01c4 27       		.uleb128 0x27
 2249 01c5 19       		.uleb128 0x19
 2250 01c6 49       		.uleb128 0x49
 2251 01c7 13       		.uleb128 0x13
 2252 01c8 11       		.uleb128 0x11
 2253 01c9 01       		.uleb128 0x1
 2254 01ca 12       		.uleb128 0x12
 2255 01cb 06       		.uleb128 0x6
 2256 01cc 40       		.uleb128 0x40
 2257 01cd 18       		.uleb128 0x18
 2258 01ce 9742     		.uleb128 0x2117
 2259 01d0 19       		.uleb128 0x19
 2260 01d1 01       		.uleb128 0x1
 2261 01d2 13       		.uleb128 0x13
 2262 01d3 00       		.byte	0
 2263 01d4 00       		.byte	0
 2264 01d5 20       		.uleb128 0x20
 2265 01d6 05       		.uleb128 0x5
 2266 01d7 00       		.byte	0
 2267 01d8 03       		.uleb128 0x3
 2268 01d9 0E       		.uleb128 0xe
 2269 01da 3A       		.uleb128 0x3a
 2270 01db 0B       		.uleb128 0xb
 2271 01dc 3B       		.uleb128 0x3b
 2272 01dd 0B       		.uleb128 0xb
 2273 01de 39       		.uleb128 0x39
 2274 01df 0B       		.uleb128 0xb
 2275 01e0 49       		.uleb128 0x49
 2276 01e1 13       		.uleb128 0x13
 2277 01e2 02       		.uleb128 0x2
 2278 01e3 17       		.uleb128 0x17
 2279 01e4 B742     		.uleb128 0x2137
 2280 01e6 17       		.uleb128 0x17
ARM GAS  C:\Users\USER\AppData\Local\Temp\ccLH1kGg.s 			page 41


 2281 01e7 00       		.byte	0
 2282 01e8 00       		.byte	0
 2283 01e9 21       		.uleb128 0x21
 2284 01ea 34       		.uleb128 0x34
 2285 01eb 00       		.byte	0
 2286 01ec 03       		.uleb128 0x3
 2287 01ed 08       		.uleb128 0x8
 2288 01ee 3A       		.uleb128 0x3a
 2289 01ef 0B       		.uleb128 0xb
 2290 01f0 3B       		.uleb128 0x3b
 2291 01f1 0B       		.uleb128 0xb
 2292 01f2 39       		.uleb128 0x39
 2293 01f3 0B       		.uleb128 0xb
 2294 01f4 49       		.uleb128 0x49
 2295 01f5 13       		.uleb128 0x13
 2296 01f6 02       		.uleb128 0x2
 2297 01f7 17       		.uleb128 0x17
 2298 01f8 B742     		.uleb128 0x2137
 2299 01fa 17       		.uleb128 0x17
 2300 01fb 00       		.byte	0
 2301 01fc 00       		.byte	0
 2302 01fd 22       		.uleb128 0x22
 2303 01fe 1D       		.uleb128 0x1d
 2304 01ff 01       		.byte	0x1
 2305 0200 31       		.uleb128 0x31
 2306 0201 13       		.uleb128 0x13
 2307 0202 52       		.uleb128 0x52
 2308 0203 01       		.uleb128 0x1
 2309 0204 B842     		.uleb128 0x2138
 2310 0206 0B       		.uleb128 0xb
 2311 0207 55       		.uleb128 0x55
 2312 0208 17       		.uleb128 0x17
 2313 0209 58       		.uleb128 0x58
 2314 020a 0B       		.uleb128 0xb
 2315 020b 59       		.uleb128 0x59
 2316 020c 0B       		.uleb128 0xb
 2317 020d 57       		.uleb128 0x57
 2318 020e 0B       		.uleb128 0xb
 2319 020f 01       		.uleb128 0x1
 2320 0210 13       		.uleb128 0x13
 2321 0211 00       		.byte	0
 2322 0212 00       		.byte	0
 2323 0213 23       		.uleb128 0x23
 2324 0214 1D       		.uleb128 0x1d
 2325 0215 01       		.byte	0x1
 2326 0216 31       		.uleb128 0x31
 2327 0217 13       		.uleb128 0x13
 2328 0218 52       		.uleb128 0x52
 2329 0219 01       		.uleb128 0x1
 2330 021a B842     		.uleb128 0x2138
 2331 021c 0B       		.uleb128 0xb
 2332 021d 55       		.uleb128 0x55
 2333 021e 17       		.uleb128 0x17
 2334 021f 58       		.uleb128 0x58
 2335 0220 0B       		.uleb128 0xb
 2336 0221 59       		.uleb128 0x59
 2337 0222 05       		.uleb128 0x5
ARM GAS  C:\Users\USER\AppData\Local\Temp\ccLH1kGg.s 			page 42


 2338 0223 57       		.uleb128 0x57
 2339 0224 0B       		.uleb128 0xb
 2340 0225 00       		.byte	0
 2341 0226 00       		.byte	0
 2342 0227 24       		.uleb128 0x24
 2343 0228 05       		.uleb128 0x5
 2344 0229 00       		.byte	0
 2345 022a 31       		.uleb128 0x31
 2346 022b 13       		.uleb128 0x13
 2347 022c 02       		.uleb128 0x2
 2348 022d 17       		.uleb128 0x17
 2349 022e B742     		.uleb128 0x2137
 2350 0230 17       		.uleb128 0x17
 2351 0231 00       		.byte	0
 2352 0232 00       		.byte	0
 2353 0233 25       		.uleb128 0x25
 2354 0234 1D       		.uleb128 0x1d
 2355 0235 01       		.byte	0x1
 2356 0236 31       		.uleb128 0x31
 2357 0237 13       		.uleb128 0x13
 2358 0238 52       		.uleb128 0x52
 2359 0239 01       		.uleb128 0x1
 2360 023a B842     		.uleb128 0x2138
 2361 023c 0B       		.uleb128 0xb
 2362 023d 11       		.uleb128 0x11
 2363 023e 01       		.uleb128 0x1
 2364 023f 12       		.uleb128 0x12
 2365 0240 06       		.uleb128 0x6
 2366 0241 58       		.uleb128 0x58
 2367 0242 0B       		.uleb128 0xb
 2368 0243 59       		.uleb128 0x59
 2369 0244 0B       		.uleb128 0xb
 2370 0245 57       		.uleb128 0x57
 2371 0246 0B       		.uleb128 0xb
 2372 0247 01       		.uleb128 0x1
 2373 0248 13       		.uleb128 0x13
 2374 0249 00       		.byte	0
 2375 024a 00       		.byte	0
 2376 024b 26       		.uleb128 0x26
 2377 024c 0B       		.uleb128 0xb
 2378 024d 01       		.byte	0x1
 2379 024e 11       		.uleb128 0x11
 2380 024f 01       		.uleb128 0x1
 2381 0250 12       		.uleb128 0x12
 2382 0251 06       		.uleb128 0x6
 2383 0252 00       		.byte	0
 2384 0253 00       		.byte	0
 2385 0254 27       		.uleb128 0x27
 2386 0255 34       		.uleb128 0x34
 2387 0256 00       		.byte	0
 2388 0257 31       		.uleb128 0x31
 2389 0258 13       		.uleb128 0x13
 2390 0259 02       		.uleb128 0x2
 2391 025a 17       		.uleb128 0x17
 2392 025b B742     		.uleb128 0x2137
 2393 025d 17       		.uleb128 0x17
 2394 025e 00       		.byte	0
ARM GAS  C:\Users\USER\AppData\Local\Temp\ccLH1kGg.s 			page 43


 2395 025f 00       		.byte	0
 2396 0260 28       		.uleb128 0x28
 2397 0261 1D       		.uleb128 0x1d
 2398 0262 01       		.byte	0x1
 2399 0263 31       		.uleb128 0x31
 2400 0264 13       		.uleb128 0x13
 2401 0265 52       		.uleb128 0x52
 2402 0266 01       		.uleb128 0x1
 2403 0267 B842     		.uleb128 0x2138
 2404 0269 0B       		.uleb128 0xb
 2405 026a 55       		.uleb128 0x55
 2406 026b 17       		.uleb128 0x17
 2407 026c 58       		.uleb128 0x58
 2408 026d 0B       		.uleb128 0xb
 2409 026e 59       		.uleb128 0x59
 2410 026f 0B       		.uleb128 0xb
 2411 0270 57       		.uleb128 0x57
 2412 0271 0B       		.uleb128 0xb
 2413 0272 00       		.byte	0
 2414 0273 00       		.byte	0
 2415 0274 29       		.uleb128 0x29
 2416 0275 0B       		.uleb128 0xb
 2417 0276 01       		.byte	0x1
 2418 0277 55       		.uleb128 0x55
 2419 0278 17       		.uleb128 0x17
 2420 0279 00       		.byte	0
 2421 027a 00       		.byte	0
 2422 027b 2A       		.uleb128 0x2a
 2423 027c 1D       		.uleb128 0x1d
 2424 027d 01       		.byte	0x1
 2425 027e 31       		.uleb128 0x31
 2426 027f 13       		.uleb128 0x13
 2427 0280 52       		.uleb128 0x52
 2428 0281 01       		.uleb128 0x1
 2429 0282 B842     		.uleb128 0x2138
 2430 0284 0B       		.uleb128 0xb
 2431 0285 11       		.uleb128 0x11
 2432 0286 01       		.uleb128 0x1
 2433 0287 12       		.uleb128 0x12
 2434 0288 06       		.uleb128 0x6
 2435 0289 58       		.uleb128 0x58
 2436 028a 0B       		.uleb128 0xb
 2437 028b 59       		.uleb128 0x59
 2438 028c 05       		.uleb128 0x5
 2439 028d 57       		.uleb128 0x57
 2440 028e 0B       		.uleb128 0xb
 2441 028f 00       		.byte	0
 2442 0290 00       		.byte	0
 2443 0291 2B       		.uleb128 0x2b
 2444 0292 2E       		.uleb128 0x2e
 2445 0293 01       		.byte	0x1
 2446 0294 3F       		.uleb128 0x3f
 2447 0295 19       		.uleb128 0x19
 2448 0296 03       		.uleb128 0x3
 2449 0297 0E       		.uleb128 0xe
 2450 0298 3A       		.uleb128 0x3a
 2451 0299 0B       		.uleb128 0xb
ARM GAS  C:\Users\USER\AppData\Local\Temp\ccLH1kGg.s 			page 44


 2452 029a 3B       		.uleb128 0x3b
 2453 029b 0B       		.uleb128 0xb
 2454 029c 39       		.uleb128 0x39
 2455 029d 0B       		.uleb128 0xb
 2456 029e 27       		.uleb128 0x27
 2457 029f 19       		.uleb128 0x19
 2458 02a0 11       		.uleb128 0x11
 2459 02a1 01       		.uleb128 0x1
 2460 02a2 12       		.uleb128 0x12
 2461 02a3 06       		.uleb128 0x6
 2462 02a4 40       		.uleb128 0x40
 2463 02a5 18       		.uleb128 0x18
 2464 02a6 9742     		.uleb128 0x2117
 2465 02a8 19       		.uleb128 0x19
 2466 02a9 01       		.uleb128 0x1
 2467 02aa 13       		.uleb128 0x13
 2468 02ab 00       		.byte	0
 2469 02ac 00       		.byte	0
 2470 02ad 2C       		.uleb128 0x2c
 2471 02ae 21       		.uleb128 0x21
 2472 02af 00       		.byte	0
 2473 02b0 00       		.byte	0
 2474 02b1 00       		.byte	0
 2475 02b2 2D       		.uleb128 0x2d
 2476 02b3 2E       		.uleb128 0x2e
 2477 02b4 01       		.byte	0x1
 2478 02b5 03       		.uleb128 0x3
 2479 02b6 0E       		.uleb128 0xe
 2480 02b7 3A       		.uleb128 0x3a
 2481 02b8 0B       		.uleb128 0xb
 2482 02b9 3B       		.uleb128 0x3b
 2483 02ba 05       		.uleb128 0x5
 2484 02bb 39       		.uleb128 0x39
 2485 02bc 0B       		.uleb128 0xb
 2486 02bd 27       		.uleb128 0x27
 2487 02be 19       		.uleb128 0x19
 2488 02bf 20       		.uleb128 0x20
 2489 02c0 0B       		.uleb128 0xb
 2490 02c1 01       		.uleb128 0x1
 2491 02c2 13       		.uleb128 0x13
 2492 02c3 00       		.byte	0
 2493 02c4 00       		.byte	0
 2494 02c5 2E       		.uleb128 0x2e
 2495 02c6 34       		.uleb128 0x34
 2496 02c7 00       		.byte	0
 2497 02c8 03       		.uleb128 0x3
 2498 02c9 0E       		.uleb128 0xe
 2499 02ca 49       		.uleb128 0x49
 2500 02cb 13       		.uleb128 0x13
 2501 02cc 34       		.uleb128 0x34
 2502 02cd 19       		.uleb128 0x19
 2503 02ce 00       		.byte	0
 2504 02cf 00       		.byte	0
 2505 02d0 2F       		.uleb128 0x2f
 2506 02d1 2E       		.uleb128 0x2e
 2507 02d2 00       		.byte	0
 2508 02d3 03       		.uleb128 0x3
ARM GAS  C:\Users\USER\AppData\Local\Temp\ccLH1kGg.s 			page 45


 2509 02d4 0E       		.uleb128 0xe
 2510 02d5 3A       		.uleb128 0x3a
 2511 02d6 0B       		.uleb128 0xb
 2512 02d7 3B       		.uleb128 0x3b
 2513 02d8 05       		.uleb128 0x5
 2514 02d9 39       		.uleb128 0x39
 2515 02da 0B       		.uleb128 0xb
 2516 02db 27       		.uleb128 0x27
 2517 02dc 19       		.uleb128 0x19
 2518 02dd 20       		.uleb128 0x20
 2519 02de 0B       		.uleb128 0xb
 2520 02df 00       		.byte	0
 2521 02e0 00       		.byte	0
 2522 02e1 30       		.uleb128 0x30
 2523 02e2 05       		.uleb128 0x5
 2524 02e3 00       		.byte	0
 2525 02e4 03       		.uleb128 0x3
 2526 02e5 0E       		.uleb128 0xe
 2527 02e6 3A       		.uleb128 0x3a
 2528 02e7 0B       		.uleb128 0xb
 2529 02e8 3B       		.uleb128 0x3b
 2530 02e9 05       		.uleb128 0x5
 2531 02ea 39       		.uleb128 0x39
 2532 02eb 0B       		.uleb128 0xb
 2533 02ec 49       		.uleb128 0x49
 2534 02ed 13       		.uleb128 0x13
 2535 02ee 00       		.byte	0
 2536 02ef 00       		.byte	0
 2537 02f0 31       		.uleb128 0x31
 2538 02f1 2E       		.uleb128 0x2e
 2539 02f2 01       		.byte	0x1
 2540 02f3 31       		.uleb128 0x31
 2541 02f4 13       		.uleb128 0x13
 2542 02f5 11       		.uleb128 0x11
 2543 02f6 01       		.uleb128 0x1
 2544 02f7 12       		.uleb128 0x12
 2545 02f8 06       		.uleb128 0x6
 2546 02f9 40       		.uleb128 0x40
 2547 02fa 18       		.uleb128 0x18
 2548 02fb 9742     		.uleb128 0x2117
 2549 02fd 19       		.uleb128 0x19
 2550 02fe 00       		.byte	0
 2551 02ff 00       		.byte	0
 2552 0300 00       		.byte	0
 2553              		.section	.debug_loc,"",%progbits
 2554              	.Ldebug_loc0:
 2555              	.LVUS0:
 2556 0000 00       		.uleb128 0
 2557 0001 00       		.uleb128 .LVU34
 2558 0002 00       		.uleb128 .LVU34
 2559 0003 00       		.uleb128 .LVU36
 2560 0004 00       		.uleb128 .LVU36
 2561 0005 00       		.uleb128 .LVU37
 2562 0006 00       		.uleb128 .LVU37
 2563 0007 00       		.uleb128 0
 2564              	.LLST0:
 2565 0008 00000000 		.4byte	.LVL0
ARM GAS  C:\Users\USER\AppData\Local\Temp\ccLH1kGg.s 			page 46


 2566 000c 0E000000 		.4byte	.LVL2
 2567 0010 0100     		.2byte	0x1
 2568 0012 50       		.byte	0x50
 2569 0013 0E000000 		.4byte	.LVL2
 2570 0017 12000000 		.4byte	.LVL3
 2571 001b 0100     		.2byte	0x1
 2572 001d 53       		.byte	0x53
 2573 001e 12000000 		.4byte	.LVL3
 2574 0022 16000000 		.4byte	.LVL4
 2575 0026 0300     		.2byte	0x3
 2576 0028 73       		.byte	0x73
 2577 0029 79       		.sleb128 -7
 2578 002a 9F       		.byte	0x9f
 2579 002b 16000000 		.4byte	.LVL4
 2580 002f 34000000 		.4byte	.LFE220
 2581 0033 0400     		.2byte	0x4
 2582 0035 F3       		.byte	0xf3
 2583 0036 01       		.uleb128 0x1
 2584 0037 50       		.byte	0x50
 2585 0038 9F       		.byte	0x9f
 2586 0039 00000000 		.4byte	0
 2587 003d 00000000 		.4byte	0
 2588              	.LVUS1:
 2589 0041 00       		.uleb128 .LVU46
 2590 0042 00       		.uleb128 0
 2591              	.LLST1:
 2592 0043 22000000 		.4byte	.LVL7
 2593 0047 34000000 		.4byte	.LFE220
 2594 004b 0100     		.2byte	0x1
 2595 004d 50       		.byte	0x50
 2596 004e 00000000 		.4byte	0
 2597 0052 00000000 		.4byte	0
 2598              	.LVUS2:
 2599 0056 07       		.uleb128 .LVU21
 2600 0057 00       		.uleb128 .LVU25
 2601              	.LLST2:
 2602 0058 00000000 		.4byte	.LVL0
 2603 005c 08000000 		.4byte	.LVL1
 2604 0060 0300     		.2byte	0x3
 2605 0062 08       		.byte	0x8
 2606 0063 20       		.byte	0x20
 2607 0064 9F       		.byte	0x9f
 2608 0065 00000000 		.4byte	0
 2609 0069 00000000 		.4byte	0
 2610              	.LVUS3:
 2611 006d 04       		.uleb128 .LVU29
 2612 006e 00       		.uleb128 .LVU34
 2613 006f 00       		.uleb128 .LVU34
 2614 0070 00       		.uleb128 .LVU36
 2615 0071 00       		.uleb128 .LVU36
 2616 0072 00       		.uleb128 .LVU37
 2617 0073 00       		.uleb128 .LVU37
 2618 0074 00       		.uleb128 .LVU43
 2619 0075 00       		.uleb128 .LVU43
 2620 0076 00       		.uleb128 .LVU46
 2621              	.LLST3:
 2622 0077 08000000 		.4byte	.LVL1
ARM GAS  C:\Users\USER\AppData\Local\Temp\ccLH1kGg.s 			page 47


 2623 007b 0E000000 		.4byte	.LVL2
 2624 007f 0100     		.2byte	0x1
 2625 0081 50       		.byte	0x50
 2626 0082 0E000000 		.4byte	.LVL2
 2627 0086 12000000 		.4byte	.LVL3
 2628 008a 0100     		.2byte	0x1
 2629 008c 53       		.byte	0x53
 2630 008d 12000000 		.4byte	.LVL3
 2631 0091 16000000 		.4byte	.LVL4
 2632 0095 0300     		.2byte	0x3
 2633 0097 73       		.byte	0x73
 2634 0098 79       		.sleb128 -7
 2635 0099 9F       		.byte	0x9f
 2636 009a 16000000 		.4byte	.LVL4
 2637 009e 1E000000 		.4byte	.LVL6
 2638 00a2 0100     		.2byte	0x1
 2639 00a4 53       		.byte	0x53
 2640 00a5 1E000000 		.4byte	.LVL6
 2641 00a9 22000000 		.4byte	.LVL7
 2642 00ad 0900     		.2byte	0x9
 2643 00af F3       		.byte	0xf3
 2644 00b0 01       		.uleb128 0x1
 2645 00b1 50       		.byte	0x50
 2646 00b2 23       		.byte	0x23
 2647 00b3 07       		.uleb128 0x7
 2648 00b4 09       		.byte	0x9
 2649 00b5 F8       		.byte	0xf8
 2650 00b6 1A       		.byte	0x1a
 2651 00b7 9F       		.byte	0x9f
 2652 00b8 00000000 		.4byte	0
 2653 00bc 00000000 		.4byte	0
 2654              	.LVUS4:
 2655 00c0 01       		.uleb128 .LVU41
 2656 00c1 00       		.uleb128 .LVU46
 2657              	.LLST4:
 2658 00c2 1A000000 		.4byte	.LVL5
 2659 00c6 22000000 		.4byte	.LVL7
 2660 00ca 0100     		.2byte	0x1
 2661 00cc 50       		.byte	0x50
 2662 00cd 00000000 		.4byte	0
 2663 00d1 00000000 		.4byte	0
 2664              	.LVUS5:
 2665 00d5 0A       		.uleb128 .LVU56
 2666 00d6 00       		.uleb128 .LVU58
 2667              	.LLST5:
 2668 00d7 22000000 		.4byte	.LVL7
 2669 00db 28000000 		.4byte	.LVL8
 2670 00df 0200     		.2byte	0x2
 2671 00e1 30       		.byte	0x30
 2672 00e2 9F       		.byte	0x9f
 2673 00e3 00000000 		.4byte	0
 2674 00e7 00000000 		.4byte	0
 2675              	.LVUS6:
 2676 00eb 00       		.uleb128 0
 2677 00ec 00       		.uleb128 .LVU67
 2678 00ed 00       		.uleb128 .LVU67
 2679 00ee 00       		.uleb128 .LVU68
ARM GAS  C:\Users\USER\AppData\Local\Temp\ccLH1kGg.s 			page 48


 2680 00ef 00       		.uleb128 .LVU68
 2681 00f0 00       		.uleb128 .LVU74
 2682 00f1 00       		.uleb128 .LVU74
 2683 00f2 00       		.uleb128 0
 2684              	.LLST6:
 2685 00f3 00000000 		.4byte	.LVL9
 2686 00f7 0A000000 		.4byte	.LVL10
 2687 00fb 0100     		.2byte	0x1
 2688 00fd 50       		.byte	0x50
 2689 00fe 0A000000 		.4byte	.LVL10
 2690 0102 0E000000 		.4byte	.LVL11
 2691 0106 0300     		.2byte	0x3
 2692 0108 70       		.byte	0x70
 2693 0109 79       		.sleb128 -7
 2694 010a 9F       		.byte	0x9f
 2695 010b 0E000000 		.4byte	.LVL11
 2696 010f 16000000 		.4byte	.LVL13
 2697 0113 0100     		.2byte	0x1
 2698 0115 50       		.byte	0x50
 2699 0116 16000000 		.4byte	.LVL13
 2700 011a 28000000 		.4byte	.LFE221
 2701 011e 0900     		.2byte	0x9
 2702 0120 F3       		.byte	0xf3
 2703 0121 01       		.uleb128 0x1
 2704 0122 50       		.byte	0x50
 2705 0123 23       		.byte	0x23
 2706 0124 07       		.uleb128 0x7
 2707 0125 09       		.byte	0x9
 2708 0126 F8       		.byte	0xf8
 2709 0127 1A       		.byte	0x1a
 2710 0128 9F       		.byte	0x9f
 2711 0129 00000000 		.4byte	0
 2712 012d 00000000 		.4byte	0
 2713              	.LVUS7:
 2714 0131 01       		.uleb128 .LVU72
 2715 0132 00       		.uleb128 .LVU75
 2716 0133 00       		.uleb128 .LVU75
 2717 0134 00       		.uleb128 .LVU76
 2718              	.LLST7:
 2719 0135 12000000 		.4byte	.LVL12
 2720 0139 18000000 		.4byte	.LVL14
 2721 013d 0100     		.2byte	0x1
 2722 013f 52       		.byte	0x52
 2723 0140 18000000 		.4byte	.LVL14
 2724 0144 1A000000 		.4byte	.LVL15
 2725 0148 0500     		.2byte	0x5
 2726 014a 03       		.byte	0x3
 2727 014b 00000000 		.4byte	nextmem
 2728 014f 00000000 		.4byte	0
 2729 0153 00000000 		.4byte	0
 2730              		.section	.debug_aranges,"",%progbits
 2731 0000 34000000 		.4byte	0x34
 2732 0004 0200     		.2byte	0x2
 2733 0006 00000000 		.4byte	.Ldebug_info0
 2734 000a 04       		.byte	0x4
 2735 000b 00       		.byte	0
 2736 000c 0000     		.2byte	0
ARM GAS  C:\Users\USER\AppData\Local\Temp\ccLH1kGg.s 			page 49


 2737 000e 0000     		.2byte	0
 2738 0010 00000000 		.4byte	.LFB219
 2739 0014 28000000 		.4byte	.LFE219-.LFB219
 2740 0018 00000000 		.4byte	.LFB220
 2741 001c 34000000 		.4byte	.LFE220-.LFB220
 2742 0020 00000000 		.4byte	.LFB221
 2743 0024 28000000 		.4byte	.LFE221-.LFB221
 2744 0028 00000000 		.4byte	.LFB222
 2745 002c 14000000 		.4byte	.LFE222-.LFB222
 2746 0030 00000000 		.4byte	0
 2747 0034 00000000 		.4byte	0
 2748              		.section	.debug_ranges,"",%progbits
 2749              	.Ldebug_ranges0:
 2750 0000 00000000 		.4byte	.LBB26
 2751 0004 00000000 		.4byte	.LBE26
 2752 0008 00000000 		.4byte	.LBB34
 2753 000c 00000000 		.4byte	.LBE34
 2754 0010 00000000 		.4byte	.LBB35
 2755 0014 00000000 		.4byte	.LBE35
 2756 0018 02000000 		.4byte	.LBB36
 2757 001c 08000000 		.4byte	.LBE36
 2758 0020 00000000 		.4byte	0
 2759 0024 00000000 		.4byte	0
 2760 0028 22000000 		.4byte	.LBB39
 2761 002c 22000000 		.4byte	.LBE39
 2762 0030 22000000 		.4byte	.LBB46
 2763 0034 28000000 		.4byte	.LBE46
 2764 0038 00000000 		.4byte	0
 2765 003c 00000000 		.4byte	0
 2766 0040 00000000 		.4byte	.LFB219
 2767 0044 28000000 		.4byte	.LFE219
 2768 0048 00000000 		.4byte	.LFB220
 2769 004c 34000000 		.4byte	.LFE220
 2770 0050 00000000 		.4byte	.LFB221
 2771 0054 28000000 		.4byte	.LFE221
 2772 0058 00000000 		.4byte	.LFB222
 2773 005c 14000000 		.4byte	.LFE222
 2774 0060 00000000 		.4byte	0
 2775 0064 00000000 		.4byte	0
 2776              		.section	.debug_line,"",%progbits
 2777              	.Ldebug_line0:
 2778 0000 6A040000 		.section	.debug_str,"MS",%progbits,1
 2778      0300F702 
 2778      00000201 
 2778      FB0E0D00 
 2778      01010101 
 2779              	.LASF129:
 2780 0000 656E646D 		.ascii	"endmem\000"
 2780      656D00
 2781              	.LASF56:
 2782 0007 72656164 		.ascii	"ready_list_t\000"
 2782      795F6C69 
 2782      73745F74 
 2782      00
 2783              	.LASF2:
 2784 0014 73697A65 		.ascii	"size_t\000"
 2784      5F7400
ARM GAS  C:\Users\USER\AppData\Local\Temp\ccLH1kGg.s 			page 50


 2785              	.LASF92:
 2786 001b 7264796D 		.ascii	"rdymsg\000"
 2786      736700
 2787              	.LASF19:
 2788 0022 75696E74 		.ascii	"uint64_t\000"
 2788      36345F74 
 2788      00
 2789              	.LASF144:
 2790 002b 6368436F 		.ascii	"chCoreAlloc\000"
 2790      7265416C 
 2790      6C6F6300 
 2791              	.LASF3:
 2792 0037 5F5F7569 		.ascii	"__uint8_t\000"
 2792      6E74385F 
 2792      7400
 2793              	.LASF89:
 2794 0041 706F7274 		.ascii	"port_intctx\000"
 2794      5F696E74 
 2794      63747800 
 2795              	.LASF75:
 2796 004d 73797374 		.ascii	"system_debug_t\000"
 2796      656D5F64 
 2796      65627567 
 2796      5F7400
 2797              	.LASF134:
 2798 005c 706F7274 		.ascii	"port_lock\000"
 2798      5F6C6F63 
 2798      6B00
 2799              	.LASF14:
 2800 0066 6C6F6E67 		.ascii	"long long unsigned int\000"
 2800      206C6F6E 
 2800      6720756E 
 2800      7369676E 
 2800      65642069 
 2801              	.LASF113:
 2802 007d 63685F74 		.ascii	"ch_threadsize\000"
 2802      68726561 
 2802      6473697A 
 2802      6500
 2803              	.LASF93:
 2804 008b 65786974 		.ascii	"exitcode\000"
 2804      636F6465 
 2804      00
 2805              	.LASF82:
 2806 0094 6D61696E 		.ascii	"mainthread\000"
 2806      74687265 
 2806      616400
 2807              	.LASF72:
 2808 009f 76697274 		.ascii	"virtual_timers_list_t\000"
 2808      75616C5F 
 2808      74696D65 
 2808      72735F6C 
 2808      6973745F 
 2809              	.LASF84:
 2810 00b5 49544D5F 		.ascii	"ITM_RxBuffer\000"
 2810      52784275 
 2810      66666572 
ARM GAS  C:\Users\USER\AppData\Local\Temp\ccLH1kGg.s 			page 51


 2810      00
 2811              	.LASF55:
 2812 00c2 63685F74 		.ascii	"ch_threads_queue\000"
 2812      68726561 
 2812      64735F71 
 2812      75657565 
 2812      00
 2813              	.LASF33:
 2814 00d3 705F7072 		.ascii	"p_prio\000"
 2814      696F00
 2815              	.LASF120:
 2816 00da 63665F6F 		.ascii	"cf_off_state\000"
 2816      66665F73 
 2816      74617465 
 2816      00
 2817              	.LASF12:
 2818 00e7 6C6F6E67 		.ascii	"long long int\000"
 2818      206C6F6E 
 2818      6720696E 
 2818      7400
 2819              	.LASF1:
 2820 00f5 7369676E 		.ascii	"signed char\000"
 2820      65642063 
 2820      68617200 
 2821              	.LASF119:
 2822 0101 63665F6F 		.ascii	"cf_off_stklimit\000"
 2822      66665F73 
 2822      746B6C69 
 2822      6D697400 
 2823              	.LASF121:
 2824 0111 63665F6F 		.ascii	"cf_off_flags\000"
 2824      66665F66 
 2824      6C616773 
 2824      00
 2825              	.LASF49:
 2826 011e 705F6D70 		.ascii	"p_mpool\000"
 2826      6F6F6C00 
 2827              	.LASF103:
 2828 0126 6D5F7175 		.ascii	"m_queue\000"
 2828      65756500 
 2829              	.LASF81:
 2830 012e 76746C69 		.ascii	"vtlist\000"
 2830      737400
 2831              	.LASF133:
 2832 0135 706F7274 		.ascii	"port_unlock\000"
 2832      5F756E6C 
 2832      6F636B00 
 2833              	.LASF24:
 2834 0141 74736C69 		.ascii	"tslices_t\000"
 2834      6365735F 
 2834      7400
 2835              	.LASF95:
 2836 014b 77747472 		.ascii	"wttrp\000"
 2836      7000
 2837              	.LASF79:
 2838 0151 63685F73 		.ascii	"ch_system\000"
 2838      79737465 
ARM GAS  C:\Users\USER\AppData\Local\Temp\ccLH1kGg.s 			page 52


 2838      6D00
 2839              	.LASF9:
 2840 015b 6C6F6E67 		.ascii	"long int\000"
 2840      20696E74 
 2840      00
 2841              	.LASF22:
 2842 0164 74737461 		.ascii	"tstate_t\000"
 2842      74655F74 
 2842      00
 2843              	.LASF125:
 2844 016d 63686465 		.ascii	"chdebug_t\000"
 2844      6275675F 
 2844      7400
 2845              	.LASF35:
 2846 0177 705F6E65 		.ascii	"p_newer\000"
 2846      77657200 
 2847              	.LASF100:
 2848 017f 735F7175 		.ascii	"s_queue\000"
 2848      65756500 
 2849              	.LASF140:
 2850 0187 7372632F 		.ascii	"src/ChibiOS_3.0.2/os/rt/src/chmemcore.c\000"
 2850      43686962 
 2850      694F535F 
 2850      332E302E 
 2850      322F6F73 
 2851              	.LASF143:
 2852 01af 6368436F 		.ascii	"chCoreAllocI\000"
 2852      7265416C 
 2852      6C6F6349 
 2852      00
 2853              	.LASF61:
 2854 01bc 725F6E65 		.ascii	"r_newer\000"
 2854      77657200 
 2855              	.LASF86:
 2856 01c4 72656761 		.ascii	"regarm_t\000"
 2856      726D5F74 
 2856      00
 2857              	.LASF68:
 2858 01cd 76745F70 		.ascii	"vt_prev\000"
 2858      72657600 
 2859              	.LASF139:
 2860 01d5 474E5520 		.ascii	"GNU C99 8.2.1 20181213 (release) [gcc-8-branch revi"
 2860      43393920 
 2860      382E322E 
 2860      31203230 
 2860      31383132 
 2861 0208 73696F6E 		.ascii	"sion 267074] -mcpu=cortex-m4 -mfloat-abi=hard -mfpu"
 2861      20323637 
 2861      3037345D 
 2861      202D6D63 
 2861      70753D63 
 2862 023b 3D667076 		.ascii	"=fpv4-sp-d16 -mno-thumb-interwork -mthumb -march=ar"
 2862      342D7370 
 2862      2D643136 
 2862      202D6D6E 
 2862      6F2D7468 
 2863 026e 6D763765 		.ascii	"mv7e-m+fp -ggdb -O2 -std=gnu99 -fomit-frame-pointer"
ARM GAS  C:\Users\USER\AppData\Local\Temp\ccLH1kGg.s 			page 53


 2863      2D6D2B66 
 2863      70202D67 
 2863      67646220 
 2863      2D4F3220 
 2864 02a1 202D6661 		.ascii	" -falign-functions=16 -ffunction-sections -fdata-se"
 2864      6C69676E 
 2864      2D66756E 
 2864      6374696F 
 2864      6E733D31 
 2865 02d4 6374696F 		.ascii	"ctions -fno-common -fsingle-precision-constant\000"
 2865      6E73202D 
 2865      666E6F2D 
 2865      636F6D6D 
 2865      6F6E202D 
 2866              	.LASF76:
 2867 0303 63685F73 		.ascii	"ch_system_debug\000"
 2867      79737465 
 2867      6D5F6465 
 2867      62756700 
 2868              	.LASF127:
 2869 0313 6D757465 		.ascii	"mutex_t\000"
 2869      785F7400 
 2870              	.LASF138:
 2871 031b 76616C75 		.ascii	"value\000"
 2871      6500
 2872              	.LASF83:
 2873 0321 69646C65 		.ascii	"idle_thread_wa\000"
 2873      5F746872 
 2873      6561645F 
 2873      776100
 2874              	.LASF28:
 2875 0330 636E745F 		.ascii	"cnt_t\000"
 2875      7400
 2876              	.LASF0:
 2877 0336 756E7369 		.ascii	"unsigned int\000"
 2877      676E6564 
 2877      20696E74 
 2877      00
 2878              	.LASF67:
 2879 0343 76745F6E 		.ascii	"vt_next\000"
 2879      65787400 
 2880              	.LASF16:
 2881 034b 75696E74 		.ascii	"uint16_t\000"
 2881      31365F74 
 2881      00
 2882              	.LASF85:
 2883 0354 53797374 		.ascii	"SystemCoreClock\000"
 2883      656D436F 
 2883      7265436C 
 2883      6F636B00 
 2884              	.LASF42:
 2885 0364 705F7469 		.ascii	"p_time\000"
 2885      6D6500
 2886              	.LASF96:
 2887 036b 77747365 		.ascii	"wtsemp\000"
 2887      6D7000
 2888              	.LASF117:
ARM GAS  C:\Users\USER\AppData\Local\Temp\ccLH1kGg.s 			page 54


 2889 0372 63665F6F 		.ascii	"cf_off_older\000"
 2889      66665F6F 
 2889      6C646572 
 2889      00
 2890              	.LASF69:
 2891 037f 76745F64 		.ascii	"vt_delta\000"
 2891      656C7461 
 2891      00
 2892              	.LASF44:
 2893 0388 705F6D73 		.ascii	"p_msgqueue\000"
 2893      67717565 
 2893      756500
 2894              	.LASF126:
 2895 0393 63685F64 		.ascii	"ch_debug\000"
 2895      65627567 
 2895      00
 2896              	.LASF101:
 2897 039c 735F636E 		.ascii	"s_cnt\000"
 2897      7400
 2898              	.LASF7:
 2899 03a2 73686F72 		.ascii	"short unsigned int\000"
 2899      7420756E 
 2899      7369676E 
 2899      65642069 
 2899      6E7400
 2900              	.LASF52:
 2901 03b5 63685F74 		.ascii	"ch_thread\000"
 2901      68726561 
 2901      6400
 2902              	.LASF26:
 2903 03bf 6D73675F 		.ascii	"msg_t\000"
 2903      7400
 2904              	.LASF78:
 2905 03c5 63685F73 		.ascii	"ch_system_t\000"
 2905      79737465 
 2905      6D5F7400 
 2906              	.LASF124:
 2907 03d1 63665F6F 		.ascii	"cf_off_time\000"
 2907      66665F74 
 2907      696D6500 
 2908              	.LASF57:
 2909 03dd 63685F72 		.ascii	"ch_ready_list\000"
 2909      65616479 
 2909      5F6C6973 
 2909      7400
 2910              	.LASF27:
 2911 03eb 6576656E 		.ascii	"eventmask_t\000"
 2911      746D6173 
 2911      6B5F7400 
 2912              	.LASF8:
 2913 03f7 5F5F696E 		.ascii	"__int32_t\000"
 2913      7433325F 
 2913      7400
 2914              	.LASF87:
 2915 0401 73746B61 		.ascii	"stkalign_t\000"
 2915      6C69676E 
 2915      5F7400
ARM GAS  C:\Users\USER\AppData\Local\Temp\ccLH1kGg.s 			page 55


 2916              	.LASF51:
 2917 040c 74687265 		.ascii	"threads_list_t\000"
 2917      6164735F 
 2917      6C697374 
 2917      5F7400
 2918              	.LASF108:
 2919 041b 63685F7A 		.ascii	"ch_zero\000"
 2919      65726F00 
 2920              	.LASF122:
 2921 0423 63665F6F 		.ascii	"cf_off_refs\000"
 2921      66665F72 
 2921      65667300 
 2922              	.LASF43:
 2923 042f 705F7761 		.ascii	"p_waiting\000"
 2923      6974696E 
 2923      6700
 2924              	.LASF20:
 2925 0439 7274636E 		.ascii	"rtcnt_t\000"
 2925      745F7400 
 2926              	.LASF73:
 2927 0441 63685F76 		.ascii	"ch_virtual_timers_list\000"
 2927      69727475 
 2927      616C5F74 
 2927      696D6572 
 2927      735F6C69 
 2928              	.LASF112:
 2929 0458 63685F74 		.ascii	"ch_timesize\000"
 2929      696D6573 
 2929      697A6500 
 2930              	.LASF118:
 2931 0464 63665F6F 		.ascii	"cf_off_name\000"
 2931      66665F6E 
 2931      616D6500 
 2932              	.LASF36:
 2933 0470 705F6F6C 		.ascii	"p_older\000"
 2933      64657200 
 2934              	.LASF60:
 2935 0478 725F6374 		.ascii	"r_ctx\000"
 2935      7800
 2936              	.LASF34:
 2937 047e 705F6374 		.ascii	"p_ctx\000"
 2937      7800
 2938              	.LASF91:
 2939 0484 746D5F63 		.ascii	"tm_calibration_t\000"
 2939      616C6962 
 2939      72617469 
 2939      6F6E5F74 
 2939      00
 2940              	.LASF63:
 2941 0495 725F6375 		.ascii	"r_current\000"
 2941      7272656E 
 2941      7400
 2942              	.LASF62:
 2943 049f 725F6F6C 		.ascii	"r_older\000"
 2943      64657200 
 2944              	.LASF13:
 2945 04a7 5F5F7569 		.ascii	"__uint64_t\000"
ARM GAS  C:\Users\USER\AppData\Local\Temp\ccLH1kGg.s 			page 56


 2945      6E743634 
 2945      5F7400
 2946              	.LASF23:
 2947 04b2 74726566 		.ascii	"trefs_t\000"
 2947      735F7400 
 2948              	.LASF111:
 2949 04ba 63685F70 		.ascii	"ch_ptrsize\000"
 2949      74727369 
 2949      7A6500
 2950              	.LASF65:
 2951 04c5 76697274 		.ascii	"virtual_timer_t\000"
 2951      75616C5F 
 2951      74696D65 
 2951      725F7400 
 2952              	.LASF32:
 2953 04d5 705F7072 		.ascii	"p_prev\000"
 2953      657600
 2954              	.LASF25:
 2955 04dc 74707269 		.ascii	"tprio_t\000"
 2955      6F5F7400 
 2956              	.LASF142:
 2957 04e4 6368436F 		.ascii	"chCoreGetStatusX\000"
 2957      72654765 
 2957      74537461 
 2957      74757358 
 2957      00
 2958              	.LASF17:
 2959 04f5 696E7433 		.ascii	"int32_t\000"
 2959      325F7400 
 2960              	.LASF4:
 2961 04fd 756E7369 		.ascii	"unsigned char\000"
 2961      676E6564 
 2961      20636861 
 2961      7200
 2962              	.LASF145:
 2963 050b 5F636F72 		.ascii	"_core_init\000"
 2963      655F696E 
 2963      697400
 2964              	.LASF47:
 2965 0516 705F6D74 		.ascii	"p_mtxlist\000"
 2965      786C6973 
 2965      7400
 2966              	.LASF5:
 2967 0520 73686F72 		.ascii	"short int\000"
 2967      7420696E 
 2967      7400
 2968              	.LASF38:
 2969 052a 705F7374 		.ascii	"p_state\000"
 2969      61746500 
 2970              	.LASF41:
 2971 0532 705F7072 		.ascii	"p_preempt\000"
 2971      65656D70 
 2971      7400
 2972              	.LASF131:
 2973 053c 5F5F6865 		.ascii	"__heap_end__\000"
 2973      61705F65 
 2973      6E645F5F 
ARM GAS  C:\Users\USER\AppData\Local\Temp\ccLH1kGg.s 			page 57


 2973      00
 2974              	.LASF59:
 2975 0549 725F7072 		.ascii	"r_prio\000"
 2975      696F00
 2976              	.LASF98:
 2977 0550 65776D61 		.ascii	"ewmask\000"
 2977      736B00
 2978              	.LASF31:
 2979 0557 705F6E65 		.ascii	"p_next\000"
 2979      787400
 2980              	.LASF21:
 2981 055e 746D6F64 		.ascii	"tmode_t\000"
 2981      655F7400 
 2982              	.LASF123:
 2983 0566 63665F6F 		.ascii	"cf_off_preempt\000"
 2983      66665F70 
 2983      7265656D 
 2983      707400
 2984              	.LASF39:
 2985 0575 705F666C 		.ascii	"p_flags\000"
 2985      61677300 
 2986              	.LASF146:
 2987 057d 5F5F6675 		.ascii	"__func__\000"
 2987      6E635F5F 
 2987      00
 2988              	.LASF132:
 2989 0586 63685379 		.ascii	"chSysLock\000"
 2989      734C6F63 
 2989      6B00
 2990              	.LASF54:
 2991 0590 74687265 		.ascii	"threads_queue_t\000"
 2991      6164735F 
 2991      71756575 
 2991      655F7400 
 2992              	.LASF66:
 2993 05a0 63685F76 		.ascii	"ch_virtual_timer\000"
 2993      69727475 
 2993      616C5F74 
 2993      696D6572 
 2993      00
 2994              	.LASF116:
 2995 05b1 63665F6F 		.ascii	"cf_off_newer\000"
 2995      66665F6E 
 2995      65776572 
 2995      00
 2996              	.LASF99:
 2997 05be 63685F73 		.ascii	"ch_semaphore\000"
 2997      656D6170 
 2997      686F7265 
 2997      00
 2998              	.LASF46:
 2999 05cb 705F6570 		.ascii	"p_epending\000"
 2999      656E6469 
 2999      6E6700
 3000              	.LASF18:
 3001 05d6 75696E74 		.ascii	"uint32_t\000"
 3001      33325F74 
ARM GAS  C:\Users\USER\AppData\Local\Temp\ccLH1kGg.s 			page 58


 3001      00
 3002              	.LASF114:
 3003 05df 63665F6F 		.ascii	"cf_off_prio\000"
 3003      66665F70 
 3003      72696F00 
 3004              	.LASF58:
 3005 05eb 725F7175 		.ascii	"r_queue\000"
 3005      65756500 
 3006              	.LASF53:
 3007 05f3 63685F74 		.ascii	"ch_threads_list\000"
 3007      68726561 
 3007      64735F6C 
 3007      69737400 
 3008              	.LASF109:
 3009 0603 63685F73 		.ascii	"ch_size\000"
 3009      697A6500 
 3010              	.LASF11:
 3011 060b 6C6F6E67 		.ascii	"long unsigned int\000"
 3011      20756E73 
 3011      69676E65 
 3011      6420696E 
 3011      7400
 3012              	.LASF106:
 3013 061d 63686172 		.ascii	"char\000"
 3013      00
 3014              	.LASF97:
 3015 0622 77746D74 		.ascii	"wtmtxp\000"
 3015      787000
 3016              	.LASF6:
 3017 0629 5F5F7569 		.ascii	"__uint16_t\000"
 3017      6E743136 
 3017      5F7400
 3018              	.LASF30:
 3019 0634 74687265 		.ascii	"thread_t\000"
 3019      61645F74 
 3019      00
 3020              	.LASF128:
 3021 063d 6E657874 		.ascii	"nextmem\000"
 3021      6D656D00 
 3022              	.LASF105:
 3023 0645 6D5F6E65 		.ascii	"m_next\000"
 3023      787400
 3024              	.LASF29:
 3025 064c 73797374 		.ascii	"systime_t\000"
 3025      696D655F 
 3025      7400
 3026              	.LASF48:
 3027 0656 705F7265 		.ascii	"p_realprio\000"
 3027      616C7072 
 3027      696F00
 3028              	.LASF64:
 3029 0661 76746675 		.ascii	"vtfunc_t\000"
 3029      6E635F74 
 3029      00
 3030              	.LASF10:
 3031 066a 5F5F7569 		.ascii	"__uint32_t\000"
 3031      6E743332 
ARM GAS  C:\Users\USER\AppData\Local\Temp\ccLH1kGg.s 			page 59


 3031      5F7400
 3032              	.LASF136:
 3033 0675 5F5F7365 		.ascii	"__set_BASEPRI\000"
 3033      745F4241 
 3033      53455052 
 3033      4900
 3034              	.LASF77:
 3035 0683 70616E69 		.ascii	"panic_msg\000"
 3035      635F6D73 
 3035      6700
 3036              	.LASF90:
 3037 068d 6F666673 		.ascii	"offset\000"
 3037      657400
 3038              	.LASF88:
 3039 0694 636F6E74 		.ascii	"context\000"
 3039      65787400 
 3040              	.LASF45:
 3041 069c 705F6D73 		.ascii	"p_msg\000"
 3041      6700
 3042              	.LASF71:
 3043 06a2 76745F70 		.ascii	"vt_par\000"
 3043      617200
 3044              	.LASF130:
 3045 06a9 5F5F6865 		.ascii	"__heap_base__\000"
 3045      61705F62 
 3045      6173655F 
 3045      5F00
 3046              	.LASF115:
 3047 06b7 63665F6F 		.ascii	"cf_off_ctx\000"
 3047      66665F63 
 3047      747800
 3048              	.LASF102:
 3049 06c2 63685F6D 		.ascii	"ch_mutex\000"
 3049      75746578 
 3049      00
 3050              	.LASF40:
 3051 06cb 705F7265 		.ascii	"p_refs\000"
 3051      667300
 3052              	.LASF141:
 3053 06d2 443A5C67 		.ascii	"D:\\git\\oroca_bldc_dev\\oroca_bldc_FW\\oroca_bldc_"
 3053      69745C6F 
 3053      726F6361 
 3053      5F626C64 
 3053      635F6465 
 3054 0701 63686962 		.ascii	"chibios\000"
 3054      696F7300 
 3055              	.LASF80:
 3056 0709 726C6973 		.ascii	"rlist\000"
 3056      7400
 3057              	.LASF15:
 3058 070f 75696E74 		.ascii	"uint8_t\000"
 3058      385F7400 
 3059              	.LASF50:
 3060 0717 74687265 		.ascii	"thread_reference_t\000"
 3060      61645F72 
 3060      65666572 
 3060      656E6365 
ARM GAS  C:\Users\USER\AppData\Local\Temp\ccLH1kGg.s 			page 60


 3060      5F7400
 3061              	.LASF94:
 3062 072a 77746F62 		.ascii	"wtobjp\000"
 3062      6A7000
 3063              	.LASF37:
 3064 0731 705F6E61 		.ascii	"p_name\000"
 3064      6D6500
 3065              	.LASF137:
 3066 0738 73697A65 		.ascii	"size\000"
 3066      00
 3067              	.LASF74:
 3068 073d 76745F73 		.ascii	"vt_systime\000"
 3068      79737469 
 3068      6D6500
 3069              	.LASF135:
 3070 0748 63685379 		.ascii	"chSysUnlock\000"
 3070      73556E6C 
 3070      6F636B00 
 3071              	.LASF110:
 3072 0754 63685F76 		.ascii	"ch_version\000"
 3072      65727369 
 3072      6F6E00
 3073              	.LASF104:
 3074 075f 6D5F6F77 		.ascii	"m_owner\000"
 3074      6E657200 
 3075              	.LASF107:
 3076 0767 63685F69 		.ascii	"ch_identifier\000"
 3076      64656E74 
 3076      69666965 
 3076      7200
 3077              	.LASF70:
 3078 0775 76745F66 		.ascii	"vt_func\000"
 3078      756E6300 
 3079              		.ident	"GCC: (GNU Tools for Arm Embedded Processors 8-2018-q4-major) 8.2.1 20181213 (release) [gcc
ARM GAS  C:\Users\USER\AppData\Local\Temp\ccLH1kGg.s 			page 61


DEFINED SYMBOLS
                            *ABS*:00000000 chmemcore.c
C:\Users\USER\AppData\Local\Temp\ccLH1kGg.s:18     .text._core_init:00000000 $t
C:\Users\USER\AppData\Local\Temp\ccLH1kGg.s:27     .text._core_init:00000000 _core_init
C:\Users\USER\AppData\Local\Temp\ccLH1kGg.s:60     .text._core_init:00000018 $d
C:\Users\USER\AppData\Local\Temp\ccLH1kGg.s:68     .text.chCoreAlloc:00000000 $t
C:\Users\USER\AppData\Local\Temp\ccLH1kGg.s:76     .text.chCoreAlloc:00000000 chCoreAlloc
C:\Users\USER\AppData\Local\Temp\ccLH1kGg.s:221    .text.chCoreAlloc:0000002c $d
C:\Users\USER\AppData\Local\Temp\ccLH1kGg.s:227    .text.chCoreAllocI:00000000 $t
C:\Users\USER\AppData\Local\Temp\ccLH1kGg.s:235    .text.chCoreAllocI:00000000 chCoreAllocI
C:\Users\USER\AppData\Local\Temp\ccLH1kGg.s:282    .text.chCoreAllocI:00000020 $d
C:\Users\USER\AppData\Local\Temp\ccLH1kGg.s:288    .text.chCoreGetStatusX:00000000 $t
C:\Users\USER\AppData\Local\Temp\ccLH1kGg.s:296    .text.chCoreGetStatusX:00000000 chCoreGetStatusX
C:\Users\USER\AppData\Local\Temp\ccLH1kGg.s:315    .text.chCoreGetStatusX:0000000c $d
C:\Users\USER\AppData\Local\Temp\ccLH1kGg.s:321    .bss.endmem:00000000 $d
C:\Users\USER\AppData\Local\Temp\ccLH1kGg.s:325    .bss.endmem:00000000 endmem
C:\Users\USER\AppData\Local\Temp\ccLH1kGg.s:328    .bss.nextmem:00000000 $d
C:\Users\USER\AppData\Local\Temp\ccLH1kGg.s:332    .bss.nextmem:00000000 nextmem

UNDEFINED SYMBOLS
__heap_base__
__heap_end__
