ARM GAS  C:\Users\USER\AppData\Local\Temp\ccux1vpg.s 			page 1


   1              		.cpu cortex-m4
   2              		.eabi_attribute 27, 1
   3              		.eabi_attribute 28, 1
   4              		.eabi_attribute 20, 1
   5              		.eabi_attribute 21, 1
   6              		.eabi_attribute 23, 3
   7              		.eabi_attribute 24, 1
   8              		.eabi_attribute 25, 1
   9              		.eabi_attribute 26, 1
  10              		.eabi_attribute 30, 2
  11              		.eabi_attribute 34, 1
  12              		.eabi_attribute 18, 4
  13              		.file	"chmsg.c"
  14              		.text
  15              	.Ltext0:
  16              		.cfi_sections	.debug_frame
  17              		.section	.text.chMsgSend,"ax",%progbits
  18              		.align	1
  19              		.p2align 4,,15
  20              		.global	chMsgSend
  21              		.arch armv7e-m
  22              		.syntax unified
  23              		.thumb
  24              		.thumb_func
  25              		.fpu fpv4-sp-d16
  26              		.type	chMsgSend, %function
  27              	chMsgSend:
  28              	.LVL0:
  29              	.LFB219:
  30              		.file 1 "src/ChibiOS_3.0.2/os/rt/src/chmsg.c"
  31              		.loc 1 87 42 view -0
  32              		.cfi_startproc
  33              		@ args = 0, pretend = 0, frame = 0
  34              		@ frame_needed = 0, uses_anonymous_args = 0
  35              		.loc 1 88 3 view .LVU1
  36              		.loc 1 88 13 is_stmt 0 view .LVU2
  37 0000 0E4B     		ldr	r3, .L6
  38              		.loc 1 87 42 view .LVU3
  39 0002 10B5     		push	{r4, lr}
  40              		.cfi_def_cfa_offset 8
  41              		.cfi_offset 4, -8
  42              		.cfi_offset 14, -4
  43              	.LBB52:
  44              	.LBB53:
  45              	.LBB54:
  46              	.LBB55:
  47              		.file 2 "src/ChibiOS_3.0.2/os/ext/CMSIS/include/core_cmFunc.h"
  48              		.loc 2 546 3 view .LVU4
  49 0004 2022     		movs	r2, #32
  50              	.LBE55:
  51              	.LBE54:
  52              	.LBE53:
  53              	.LBE52:
  54              		.loc 1 88 13 view .LVU5
  55 0006 9C69     		ldr	r4, [r3, #24]
  56              	.LVL1:
  57              		.loc 1 90 3 is_stmt 1 view .LVU6
ARM GAS  C:\Users\USER\AppData\Local\Temp\ccux1vpg.s 			page 2


  58              		.loc 1 90 3 view .LVU7
  59              		.loc 1 92 3 view .LVU8
  60              	.LBB60:
  61              	.LBI52:
  62              		.file 3 "src/ChibiOS_3.0.2/os/rt/include/chsys.h"
  63              		.loc 3 346 20 view .LVU9
  64              	.LBE60:
  65              		.loc 3 348 3 view .LVU10
  66              	.LBB61:
  67              	.LBB58:
  68              	.LBI53:
  69              		.file 4 "src/ChibiOS_3.0.2/os/rt/ports/ARMCMx/chcore_v7m.h"
  70              		.loc 4 444 20 view .LVU11
  71              	.LBE58:
  72              	.LBE61:
  73              		.loc 4 447 3 view .LVU12
  74              	.LBB62:
  75              	.LBB59:
  76              	.LBB57:
  77              	.LBI54:
  78              		.loc 2 544 57 view .LVU13
  79              	.LBB56:
  80              		.loc 2 546 3 view .LVU14
  81              		.syntax unified
  82              	@ 546 "src/ChibiOS_3.0.2/os/ext/CMSIS/include/core_cmFunc.h" 1
  83 0008 82F31188 		MSR basepri, r2
  84              	@ 0 "" 2
  85              	.LVL2:
  86              		.loc 2 546 3 is_stmt 0 view .LVU15
  87              		.thumb
  88              		.syntax unified
  89              	.LBE56:
  90              	.LBE57:
  91              	.LBE59:
  92              	.LBE62:
  93              		.loc 3 349 34 is_stmt 1 view .LVU16
  94              		.loc 3 350 20 view .LVU17
  95              		.loc 1 93 3 view .LVU18
  96              	.LBB63:
  97              	.LBB64:
  98              		.file 5 "src/ChibiOS_3.0.2/os/rt/include/chschd.h"
  99              		.loc 5 666 19 is_stmt 0 view .LVU19
 100 000c 026B     		ldr	r2, [r0, #48]
 101              	.LBE64:
 102              	.LBE63:
 103              		.loc 1 93 14 view .LVU20
 104 000e 6163     		str	r1, [r4, #52]
 105              		.loc 1 94 3 is_stmt 1 view .LVU21
 106              		.loc 1 94 21 is_stmt 0 view .LVU22
 107 0010 00F12C01 		add	r1, r0, #44
 108              	.LVL3:
 109              	.LBB68:
 110              	.LBB65:
 111              		.loc 5 666 14 view .LVU23
 112 0014 6260     		str	r2, [r4, #4]
 113              	.LBE65:
 114              	.LBE68:
ARM GAS  C:\Users\USER\AppData\Local\Temp\ccux1vpg.s 			page 3


 115              		.loc 1 94 19 view .LVU24
 116 0016 6162     		str	r1, [r4, #36]
 117              		.loc 1 95 3 is_stmt 1 view .LVU25
 118              	.LVL4:
 119              	.LBB69:
 120              	.LBI63:
 121              		.loc 5 663 20 view .LVU26
 122              	.LBB66:
 123              		.loc 5 665 3 view .LVU27
 124              		.loc 5 665 14 is_stmt 0 view .LVU28
 125 0018 2160     		str	r1, [r4]
 126              		.loc 5 666 3 is_stmt 1 view .LVU29
 127              		.loc 5 667 3 view .LVU30
 128              		.loc 5 667 22 is_stmt 0 view .LVU31
 129 001a 1460     		str	r4, [r2]
 130              		.loc 5 668 3 is_stmt 1 view .LVU32
 131              	.LBE66:
 132              	.LBE69:
 133              		.loc 1 96 6 is_stmt 0 view .LVU33
 134 001c 027F     		ldrb	r2, [r0, #28]	@ zero_extendqisi2
 135              	.LBB70:
 136              	.LBB67:
 137              		.loc 5 668 15 view .LVU34
 138 001e 0463     		str	r4, [r0, #48]
 139              	.LVL5:
 140              		.loc 5 668 15 view .LVU35
 141              	.LBE67:
 142              	.LBE70:
 143              		.loc 1 96 3 is_stmt 1 view .LVU36
 144              		.loc 1 96 6 is_stmt 0 view .LVU37
 145 0020 0E2A     		cmp	r2, #14
 146 0022 07D0     		beq	.L5
 147              	.LVL6:
 148              	.L2:
 149              		.loc 1 99 3 is_stmt 1 view .LVU38
 150 0024 0C20     		movs	r0, #12
 151 0026 FFF7FEFF 		bl	chSchGoSleepS
 152              	.LVL7:
 153              		.loc 1 100 3 view .LVU39
 154              		.loc 1 100 7 is_stmt 0 view .LVU40
 155 002a 606A     		ldr	r0, [r4, #36]
 156              	.LVL8:
 157              		.loc 1 101 3 is_stmt 1 view .LVU41
 158              	.LBB71:
 159              	.LBI71:
 160              		.loc 3 358 20 view .LVU42
 161              	.LBB72:
 162              		.loc 3 360 22 view .LVU43
 163              		.loc 3 361 33 view .LVU44
 164              		.loc 3 367 3 view .LVU45
 165              		.loc 3 367 3 view .LVU46
 166              		.loc 3 371 3 view .LVU47
 167              	.LBB73:
 168              	.LBI73:
 169              		.loc 4 458 20 view .LVU48
 170              	.LBE73:
 171              	.LBE72:
ARM GAS  C:\Users\USER\AppData\Local\Temp\ccux1vpg.s 			page 4


 172              	.LBE71:
 173              		.loc 4 461 3 view .LVU49
 174              	.LBB78:
 175              	.LBB77:
 176              	.LBB76:
 177              	.LBB74:
 178              	.LBI74:
 179              		.loc 2 544 57 view .LVU50
 180              	.LBB75:
 181              		.loc 2 546 3 view .LVU51
 182 002c 0023     		movs	r3, #0
 183              		.syntax unified
 184              	@ 546 "src/ChibiOS_3.0.2/os/ext/CMSIS/include/core_cmFunc.h" 1
 185 002e 83F31188 		MSR basepri, r3
 186              	@ 0 "" 2
 187              	.LVL9:
 188              		.loc 2 546 3 is_stmt 0 view .LVU52
 189              		.thumb
 190              		.syntax unified
 191              	.LBE75:
 192              	.LBE74:
 193              	.LBE76:
 194              	.LBE77:
 195              	.LBE78:
 196              		.loc 1 103 3 is_stmt 1 view .LVU53
 197              		.loc 1 104 1 is_stmt 0 view .LVU54
 198 0032 10BD     		pop	{r4, pc}
 199              	.LVL10:
 200              	.L5:
 201              		.loc 1 97 5 is_stmt 1 view .LVU55
 202              		.loc 1 97 12 is_stmt 0 view .LVU56
 203 0034 FFF7FEFF 		bl	chSchReadyI
 204              	.LVL11:
 205              		.loc 1 97 12 view .LVU57
 206 0038 F4E7     		b	.L2
 207              	.L7:
 208 003a 00BF     		.align	2
 209              	.L6:
 210 003c 00000000 		.word	ch
 211              		.cfi_endproc
 212              	.LFE219:
 213              		.size	chMsgSend, .-chMsgSend
 214              		.section	.text.chMsgWait,"ax",%progbits
 215              		.align	1
 216              		.p2align 4,,15
 217              		.global	chMsgWait
 218              		.syntax unified
 219              		.thumb
 220              		.thumb_func
 221              		.fpu fpv4-sp-d16
 222              		.type	chMsgWait, %function
 223              	chMsgWait:
 224              	.LFB220:
 225              		.loc 1 120 27 is_stmt 1 view -0
 226              		.cfi_startproc
 227              		@ args = 0, pretend = 0, frame = 0
 228              		@ frame_needed = 0, uses_anonymous_args = 0
ARM GAS  C:\Users\USER\AppData\Local\Temp\ccux1vpg.s 			page 5


 229              		.loc 1 121 3 view .LVU59
 230              		.loc 1 123 3 view .LVU60
 231              	.LBB79:
 232              	.LBI79:
 233              		.loc 3 346 20 view .LVU61
 234              	.LBE79:
 235              		.loc 3 348 3 view .LVU62
 236              	.LBB87:
 237              	.LBB80:
 238              	.LBI80:
 239              		.loc 4 444 20 view .LVU63
 240              	.LBE80:
 241              	.LBE87:
 242              		.loc 4 447 3 view .LVU64
 243              	.LVL12:
 244              	.LBB88:
 245              	.LBB85:
 246              	.LBB81:
 247              	.LBI81:
 248              		.loc 2 544 57 view .LVU65
 249              	.LBB82:
 250              		.loc 2 546 3 view .LVU66
 251              	.LBE82:
 252              	.LBE81:
 253              	.LBE85:
 254              	.LBE88:
 255              		.loc 1 120 27 is_stmt 0 view .LVU67
 256 0000 10B5     		push	{r4, lr}
 257              		.cfi_def_cfa_offset 8
 258              		.cfi_offset 4, -8
 259              		.cfi_offset 14, -4
 260              	.LBB89:
 261              	.LBB86:
 262              	.LBB84:
 263              	.LBB83:
 264              		.loc 2 546 3 view .LVU68
 265 0002 2023     		movs	r3, #32
 266              		.syntax unified
 267              	@ 546 "src/ChibiOS_3.0.2/os/ext/CMSIS/include/core_cmFunc.h" 1
 268 0004 83F31188 		MSR basepri, r3
 269              	@ 0 "" 2
 270              	.LVL13:
 271              		.loc 2 546 3 view .LVU69
 272              		.thumb
 273              		.syntax unified
 274              	.LBE83:
 275              	.LBE84:
 276              	.LBE86:
 277              	.LBE89:
 278              		.loc 3 349 34 is_stmt 1 view .LVU70
 279              		.loc 3 350 20 view .LVU71
 280              		.loc 1 124 3 view .LVU72
 281              		.loc 1 124 8 is_stmt 0 view .LVU73
 282 0008 0B4C     		ldr	r4, .L12
 283 000a A269     		ldr	r2, [r4, #24]
 284              	.LVL14:
 285              	.LBB90:
ARM GAS  C:\Users\USER\AppData\Local\Temp\ccux1vpg.s 			page 6


 286              	.LBI90:
 287              		.file 6 "src/ChibiOS_3.0.2/os/rt/include/chmsg.h"
 288              		.loc 6 79 20 is_stmt 1 view .LVU74
 289              	.LBB91:
 290              		.loc 6 81 21 view .LVU75
 291              		.loc 6 83 3 view .LVU76
 292              		.loc 6 83 31 is_stmt 0 view .LVU77
 293 000c 1346     		mov	r3, r2
 294 000e 53F82C0F 		ldr	r0, [r3, #44]!
 295              	.LVL15:
 296              		.loc 6 83 31 view .LVU78
 297              	.LBE91:
 298              	.LBE90:
 299              		.loc 1 124 6 view .LVU79
 300 0012 9842     		cmp	r0, r3
 301 0014 08D0     		beq	.L11
 302              	.L9:
 303              		.loc 1 127 3 is_stmt 1 view .LVU80
 304              	.LVL16:
 305              	.LBB92:
 306              	.LBI92:
 307              		.loc 5 671 25 view .LVU81
 308              	.LBB93:
 309              		.loc 5 672 3 view .LVU82
 310              		.loc 5 674 3 view .LVU83
 311              		.loc 5 674 19 is_stmt 0 view .LVU84
 312 0016 0168     		ldr	r1, [r0]
 313              		.loc 5 674 15 view .LVU85
 314 0018 D162     		str	r1, [r2, #44]
 315              	.LVL17:
 316              		.loc 5 675 3 is_stmt 1 view .LVU86
 317              	.LBE93:
 318              	.LBE92:
 319              		.loc 1 128 15 is_stmt 0 view .LVU87
 320 001a 0D22     		movs	r2, #13
 321              	.LBB95:
 322              	.LBB94:
 323              		.loc 5 675 23 view .LVU88
 324 001c 4B60     		str	r3, [r1, #4]
 325              		.loc 5 677 3 is_stmt 1 view .LVU89
 326              	.LVL18:
 327              		.loc 5 677 3 is_stmt 0 view .LVU90
 328              	.LBE94:
 329              	.LBE95:
 330              		.loc 1 128 3 is_stmt 1 view .LVU91
 331              	.LBB96:
 332              	.LBB97:
 333              	.LBB98:
 334              	.LBB99:
 335              	.LBB100:
 336              		.loc 2 546 3 is_stmt 0 view .LVU92
 337 001e 0023     		movs	r3, #0
 338              	.LBE100:
 339              	.LBE99:
 340              	.LBE98:
 341              	.LBE97:
 342              	.LBE96:
ARM GAS  C:\Users\USER\AppData\Local\Temp\ccux1vpg.s 			page 7


 343              		.loc 1 128 15 view .LVU93
 344 0020 0277     		strb	r2, [r0, #28]
 345              		.loc 1 129 3 is_stmt 1 view .LVU94
 346              	.LBB107:
 347              	.LBI96:
 348              		.loc 3 358 20 view .LVU95
 349              	.LBB105:
 350              		.loc 3 360 22 view .LVU96
 351              		.loc 3 361 33 view .LVU97
 352              		.loc 3 367 3 view .LVU98
 353              		.loc 3 367 3 view .LVU99
 354              		.loc 3 371 3 view .LVU100
 355              	.LBB103:
 356              	.LBI98:
 357              		.loc 4 458 20 view .LVU101
 358              	.LBE103:
 359              	.LBE105:
 360              	.LBE107:
 361              		.loc 4 461 3 view .LVU102
 362              	.LVL19:
 363              	.LBB108:
 364              	.LBB106:
 365              	.LBB104:
 366              	.LBB102:
 367              	.LBI99:
 368              		.loc 2 544 57 view .LVU103
 369              	.LBB101:
 370              		.loc 2 546 3 view .LVU104
 371              		.syntax unified
 372              	@ 546 "src/ChibiOS_3.0.2/os/ext/CMSIS/include/core_cmFunc.h" 1
 373 0022 83F31188 		MSR basepri, r3
 374              	@ 0 "" 2
 375              	.LVL20:
 376              		.loc 2 546 3 is_stmt 0 view .LVU105
 377              		.thumb
 378              		.syntax unified
 379              	.LBE101:
 380              	.LBE102:
 381              	.LBE104:
 382              	.LBE106:
 383              	.LBE108:
 384              		.loc 1 131 3 is_stmt 1 view .LVU106
 385              		.loc 1 132 1 is_stmt 0 view .LVU107
 386 0026 10BD     		pop	{r4, pc}
 387              	.L11:
 388              		.loc 1 125 5 is_stmt 1 view .LVU108
 389 0028 0E20     		movs	r0, #14
 390 002a FFF7FEFF 		bl	chSchGoSleepS
 391              	.LVL21:
 392 002e A269     		ldr	r2, [r4, #24]
 393 0030 D06A     		ldr	r0, [r2, #44]
 394 0032 02F12C03 		add	r3, r2, #44
 395 0036 EEE7     		b	.L9
 396              	.L13:
 397              		.align	2
 398              	.L12:
 399 0038 00000000 		.word	ch
ARM GAS  C:\Users\USER\AppData\Local\Temp\ccux1vpg.s 			page 8


 400              		.cfi_endproc
 401              	.LFE220:
 402              		.size	chMsgWait, .-chMsgWait
 403              		.section	.text.chMsgRelease,"ax",%progbits
 404              		.align	1
 405              		.p2align 4,,15
 406              		.global	chMsgRelease
 407              		.syntax unified
 408              		.thumb
 409              		.thumb_func
 410              		.fpu fpv4-sp-d16
 411              		.type	chMsgRelease, %function
 412              	chMsgRelease:
 413              	.LVL22:
 414              	.LFB221:
 415              		.loc 1 144 44 view -0
 416              		.cfi_startproc
 417              		@ args = 0, pretend = 0, frame = 0
 418              		@ frame_needed = 0, uses_anonymous_args = 0
 419              		.loc 1 146 3 view .LVU110
 420              	.LBB109:
 421              	.LBI109:
 422              		.loc 3 346 20 view .LVU111
 423              	.LBE109:
 424              		.loc 3 348 3 view .LVU112
 425              	.LBB117:
 426              	.LBB110:
 427              	.LBI110:
 428              		.loc 4 444 20 view .LVU113
 429              	.LBE110:
 430              	.LBE117:
 431              		.loc 4 447 3 view .LVU114
 432              	.LBB118:
 433              	.LBB115:
 434              	.LBB111:
 435              	.LBI111:
 436              		.loc 2 544 57 view .LVU115
 437              	.LBB112:
 438              		.loc 2 546 3 view .LVU116
 439              	.LBE112:
 440              	.LBE111:
 441              	.LBE115:
 442              	.LBE118:
 443              		.loc 1 144 44 is_stmt 0 view .LVU117
 444 0000 08B5     		push	{r3, lr}
 445              		.cfi_def_cfa_offset 8
 446              		.cfi_offset 3, -8
 447              		.cfi_offset 14, -4
 448              	.LBB119:
 449              	.LBB116:
 450              	.LBB114:
 451              	.LBB113:
 452              		.loc 2 546 3 view .LVU118
 453 0002 2023     		movs	r3, #32
 454              		.syntax unified
 455              	@ 546 "src/ChibiOS_3.0.2/os/ext/CMSIS/include/core_cmFunc.h" 1
 456 0004 83F31188 		MSR basepri, r3
ARM GAS  C:\Users\USER\AppData\Local\Temp\ccux1vpg.s 			page 9


 457              	@ 0 "" 2
 458              	.LVL23:
 459              		.loc 2 546 3 view .LVU119
 460              		.thumb
 461              		.syntax unified
 462              	.LBE113:
 463              	.LBE114:
 464              	.LBE116:
 465              	.LBE119:
 466              		.loc 3 349 34 is_stmt 1 view .LVU120
 467              		.loc 3 350 20 view .LVU121
 468              		.loc 1 147 3 view .LVU122
 469              		.loc 1 147 3 view .LVU123
 470              		.loc 1 148 3 view .LVU124
 471              	.LBB120:
 472              	.LBI120:
 473              		.loc 6 111 20 view .LVU125
 474              	.LBB121:
 475              		.loc 6 113 21 view .LVU126
 476              		.loc 6 115 3 view .LVU127
 477 0008 FFF7FEFF 		bl	chSchWakeupS
 478              	.LVL24:
 479              		.loc 6 115 3 is_stmt 0 view .LVU128
 480              	.LBE121:
 481              	.LBE120:
 482              		.loc 1 149 3 is_stmt 1 view .LVU129
 483              	.LBB122:
 484              	.LBI122:
 485              		.loc 3 358 20 view .LVU130
 486              	.LBB123:
 487              		.loc 3 360 22 view .LVU131
 488              		.loc 3 361 33 view .LVU132
 489              		.loc 3 367 3 view .LVU133
 490              		.loc 3 367 3 view .LVU134
 491              		.loc 3 371 3 view .LVU135
 492              	.LBB124:
 493              	.LBI124:
 494              		.loc 4 458 20 view .LVU136
 495              	.LBE124:
 496              	.LBE123:
 497              	.LBE122:
 498              		.loc 4 461 3 view .LVU137
 499              	.LBB129:
 500              	.LBB128:
 501              	.LBB127:
 502              	.LBB125:
 503              	.LBI125:
 504              		.loc 2 544 57 view .LVU138
 505              	.LBB126:
 506              		.loc 2 546 3 view .LVU139
 507 000c 0023     		movs	r3, #0
 508              		.syntax unified
 509              	@ 546 "src/ChibiOS_3.0.2/os/ext/CMSIS/include/core_cmFunc.h" 1
 510 000e 83F31188 		MSR basepri, r3
 511              	@ 0 "" 2
 512              	.LVL25:
 513              		.loc 2 546 3 is_stmt 0 view .LVU140
ARM GAS  C:\Users\USER\AppData\Local\Temp\ccux1vpg.s 			page 10


 514              		.thumb
 515              		.syntax unified
 516              	.LBE126:
 517              	.LBE125:
 518              	.LBE127:
 519              	.LBE128:
 520              	.LBE129:
 521              		.loc 1 150 1 view .LVU141
 522 0012 08BD     		pop	{r3, pc}
 523              		.cfi_endproc
 524              	.LFE221:
 525              		.size	chMsgRelease, .-chMsgRelease
 526              		.text
 527              	.Letext0:
 528              		.file 7 "c:\\program files (x86)\\gnu tools arm embedded\\8 2018-q4-major\\arm-none-eabi\\include\
 529              		.file 8 "c:\\program files (x86)\\gnu tools arm embedded\\8 2018-q4-major\\arm-none-eabi\\include\
 530              		.file 9 "src/ChibiOS_3.0.2/os/rt/ports/ARMCMx/compilers/GCC/chtypes.h"
 531              		.file 10 "src/ChibiOS_3.0.2/os/rt/include/chsystypes.h"
 532              		.file 11 "src/ChibiOS_3.0.2/os/ext/CMSIS/include/core_cm4.h"
 533              		.file 12 "src/ChibiOS_3.0.2/os/ext/CMSIS/ST/system_stm32f4xx.h"
 534              		.file 13 "src/ChibiOS_3.0.2/os/rt/ports/ARMCMx/chcore.h"
 535              		.file 14 "src/ChibiOS_3.0.2/os/rt/include/chtm.h"
 536              		.file 15 "src/ChibiOS_3.0.2/os/rt/include/chsem.h"
 537              		.file 16 "src/ChibiOS_3.0.2/os/rt/include/chmtx.h"
 538              		.file 17 "src/ChibiOS_3.0.2/os/rt/include/chregistry.h"
 539              		.section	.debug_info,"",%progbits
 540              	.Ldebug_info0:
 541 0000 C60D0000 		.4byte	0xdc6
 542 0004 0400     		.2byte	0x4
 543 0006 00000000 		.4byte	.Ldebug_abbrev0
 544 000a 04       		.byte	0x4
 545 000b 01       		.uleb128 0x1
 546 000c DE010000 		.4byte	.LASF144
 547 0010 0C       		.byte	0xc
 548 0011 C8000000 		.4byte	.LASF145
 549 0015 D8060000 		.4byte	.LASF146
 550 0019 58010000 		.4byte	.Ldebug_ranges0+0x158
 551 001d 00000000 		.4byte	0
 552 0021 00000000 		.4byte	.Ldebug_line0
 553 0025 02       		.uleb128 0x2
 554 0026 04       		.byte	0x4
 555 0027 05       		.byte	0x5
 556 0028 696E7400 		.ascii	"int\000"
 557 002c 03       		.uleb128 0x3
 558 002d 04       		.byte	0x4
 559 002e 07       		.byte	0x7
 560 002f 2F030000 		.4byte	.LASF0
 561 0033 03       		.uleb128 0x3
 562 0034 01       		.byte	0x1
 563 0035 06       		.byte	0x6
 564 0036 1F010000 		.4byte	.LASF1
 565 003a 04       		.uleb128 0x4
 566 003b 3D000000 		.4byte	.LASF4
 567 003f 07       		.byte	0x7
 568 0040 2B       		.byte	0x2b
 569 0041 18       		.byte	0x18
 570 0042 46000000 		.4byte	0x46
ARM GAS  C:\Users\USER\AppData\Local\Temp\ccux1vpg.s 			page 11


 571 0046 03       		.uleb128 0x3
 572 0047 01       		.byte	0x1
 573 0048 08       		.byte	0x8
 574 0049 02050000 		.4byte	.LASF2
 575 004d 03       		.uleb128 0x3
 576 004e 02       		.byte	0x2
 577 004f 05       		.byte	0x5
 578 0050 1A050000 		.4byte	.LASF3
 579 0054 04       		.uleb128 0x4
 580 0055 30060000 		.4byte	.LASF5
 581 0059 07       		.byte	0x7
 582 005a 39       		.byte	0x39
 583 005b 19       		.byte	0x19
 584 005c 60000000 		.4byte	0x60
 585 0060 03       		.uleb128 0x3
 586 0061 02       		.byte	0x2
 587 0062 07       		.byte	0x7
 588 0063 8E030000 		.4byte	.LASF6
 589 0067 04       		.uleb128 0x4
 590 0068 F0030000 		.4byte	.LASF7
 591 006c 07       		.byte	0x7
 592 006d 4D       		.byte	0x4d
 593 006e 18       		.byte	0x18
 594 006f 73000000 		.4byte	0x73
 595 0073 03       		.uleb128 0x3
 596 0074 04       		.byte	0x4
 597 0075 05       		.byte	0x5
 598 0076 7F010000 		.4byte	.LASF8
 599 007a 04       		.uleb128 0x4
 600 007b 74060000 		.4byte	.LASF9
 601 007f 07       		.byte	0x7
 602 0080 4F       		.byte	0x4f
 603 0081 19       		.byte	0x19
 604 0082 86000000 		.4byte	0x86
 605 0086 03       		.uleb128 0x3
 606 0087 04       		.byte	0x4
 607 0088 07       		.byte	0x7
 608 0089 12060000 		.4byte	.LASF10
 609 008d 03       		.uleb128 0x3
 610 008e 08       		.byte	0x8
 611 008f 05       		.byte	0x5
 612 0090 11010000 		.4byte	.LASF11
 613 0094 04       		.uleb128 0x4
 614 0095 A7040000 		.4byte	.LASF12
 615 0099 07       		.byte	0x7
 616 009a 69       		.byte	0x69
 617 009b 19       		.byte	0x19
 618 009c A0000000 		.4byte	0xa0
 619 00a0 03       		.uleb128 0x3
 620 00a1 08       		.byte	0x8
 621 00a2 07       		.byte	0x7
 622 00a3 6C000000 		.4byte	.LASF13
 623 00a7 04       		.uleb128 0x4
 624 00a8 15070000 		.4byte	.LASF14
 625 00ac 08       		.byte	0x8
 626 00ad 18       		.byte	0x18
 627 00ae 13       		.byte	0x13
ARM GAS  C:\Users\USER\AppData\Local\Temp\ccux1vpg.s 			page 12


 628 00af 3A000000 		.4byte	0x3a
 629 00b3 04       		.uleb128 0x4
 630 00b4 44030000 		.4byte	.LASF15
 631 00b8 08       		.byte	0x8
 632 00b9 24       		.byte	0x24
 633 00ba 14       		.byte	0x14
 634 00bb 54000000 		.4byte	0x54
 635 00bf 04       		.uleb128 0x4
 636 00c0 FA040000 		.4byte	.LASF16
 637 00c4 08       		.byte	0x8
 638 00c5 2C       		.byte	0x2c
 639 00c6 13       		.byte	0x13
 640 00c7 67000000 		.4byte	0x67
 641 00cb 05       		.uleb128 0x5
 642 00cc BF000000 		.4byte	0xbf
 643 00d0 04       		.uleb128 0x4
 644 00d1 D1050000 		.4byte	.LASF17
 645 00d5 08       		.byte	0x8
 646 00d6 30       		.byte	0x30
 647 00d7 14       		.byte	0x14
 648 00d8 7A000000 		.4byte	0x7a
 649 00dc 04       		.uleb128 0x4
 650 00dd 34000000 		.4byte	.LASF18
 651 00e1 08       		.byte	0x8
 652 00e2 3C       		.byte	0x3c
 653 00e3 14       		.byte	0x14
 654 00e4 94000000 		.4byte	0x94
 655 00e8 04       		.uleb128 0x4
 656 00e9 32040000 		.4byte	.LASF19
 657 00ed 09       		.byte	0x9
 658 00ee 45       		.byte	0x45
 659 00ef 1D       		.byte	0x1d
 660 00f0 D0000000 		.4byte	0xd0
 661 00f4 04       		.uleb128 0x4
 662 00f5 4B050000 		.4byte	.LASF20
 663 00f9 09       		.byte	0x9
 664 00fa 48       		.byte	0x48
 665 00fb 1D       		.byte	0x1d
 666 00fc A7000000 		.4byte	0xa7
 667 0100 04       		.uleb128 0x4
 668 0101 92010000 		.4byte	.LASF21
 669 0105 09       		.byte	0x9
 670 0106 49       		.byte	0x49
 671 0107 1D       		.byte	0x1d
 672 0108 A7000000 		.4byte	0xa7
 673 010c 04       		.uleb128 0x4
 674 010d B2040000 		.4byte	.LASF22
 675 0111 09       		.byte	0x9
 676 0112 4A       		.byte	0x4a
 677 0113 1D       		.byte	0x1d
 678 0114 A7000000 		.4byte	0xa7
 679 0118 04       		.uleb128 0x4
 680 0119 6B010000 		.4byte	.LASF23
 681 011d 09       		.byte	0x9
 682 011e 4B       		.byte	0x4b
 683 011f 1D       		.byte	0x1d
 684 0120 A7000000 		.4byte	0xa7
ARM GAS  C:\Users\USER\AppData\Local\Temp\ccux1vpg.s 			page 13


 685 0124 04       		.uleb128 0x4
 686 0125 DC040000 		.4byte	.LASF24
 687 0129 09       		.byte	0x9
 688 012a 4C       		.byte	0x4c
 689 012b 1D       		.byte	0x1d
 690 012c D0000000 		.4byte	0xd0
 691 0130 04       		.uleb128 0x4
 692 0131 B8030000 		.4byte	.LASF25
 693 0135 09       		.byte	0x9
 694 0136 4D       		.byte	0x4d
 695 0137 1D       		.byte	0x1d
 696 0138 BF000000 		.4byte	0xbf
 697 013c 04       		.uleb128 0x4
 698 013d E4030000 		.4byte	.LASF26
 699 0141 09       		.byte	0x9
 700 0142 4F       		.byte	0x4f
 701 0143 1D       		.byte	0x1d
 702 0144 D0000000 		.4byte	0xd0
 703 0148 04       		.uleb128 0x4
 704 0149 29030000 		.4byte	.LASF27
 705 014d 09       		.byte	0x9
 706 014e 51       		.byte	0x51
 707 014f 1D       		.byte	0x1d
 708 0150 BF000000 		.4byte	0xbf
 709 0154 04       		.uleb128 0x4
 710 0155 56060000 		.4byte	.LASF28
 711 0159 0A       		.byte	0xa
 712 015a 33       		.byte	0x33
 713 015b 12       		.byte	0x12
 714 015c D0000000 		.4byte	0xd0
 715 0160 05       		.uleb128 0x5
 716 0161 54010000 		.4byte	0x154
 717 0165 04       		.uleb128 0x4
 718 0166 3B060000 		.4byte	.LASF29
 719 016a 0A       		.byte	0xa
 720 016b 3F       		.byte	0x3f
 721 016c 1A       		.byte	0x1a
 722 016d 71010000 		.4byte	0x171
 723 0171 06       		.uleb128 0x6
 724 0172 A1030000 		.4byte	.LASF51
 725 0176 48       		.byte	0x48
 726 0177 05       		.byte	0x5
 727 0178 C2       		.byte	0xc2
 728 0179 08       		.byte	0x8
 729 017a 8B020000 		.4byte	0x28b
 730 017e 07       		.uleb128 0x7
 731 017f 44050000 		.4byte	.LASF30
 732 0183 05       		.byte	0x5
 733 0184 C3       		.byte	0xc3
 734 0185 1A       		.byte	0x1a
 735 0186 97020000 		.4byte	0x297
 736 018a 00       		.byte	0
 737 018b 07       		.uleb128 0x7
 738 018c D5040000 		.4byte	.LASF31
 739 0190 05       		.byte	0x5
 740 0191 C5       		.byte	0xc5
 741 0192 1A       		.byte	0x1a
ARM GAS  C:\Users\USER\AppData\Local\Temp\ccux1vpg.s 			page 14


 742 0193 97020000 		.4byte	0x297
 743 0197 04       		.byte	0x4
 744 0198 07       		.uleb128 0x7
 745 0199 FD000000 		.4byte	.LASF32
 746 019d 05       		.byte	0x5
 747 019e C7       		.byte	0xc7
 748 019f 19       		.byte	0x19
 749 01a0 24010000 		.4byte	0x124
 750 01a4 08       		.byte	0x8
 751 01a5 07       		.uleb128 0x7
 752 01a6 77040000 		.4byte	.LASF33
 753 01aa 05       		.byte	0x5
 754 01ab C8       		.byte	0xc8
 755 01ac 19       		.byte	0x19
 756 01ad 03050000 		.4byte	0x503
 757 01b1 0C       		.byte	0xc
 758 01b2 07       		.uleb128 0x7
 759 01b3 B5010000 		.4byte	.LASF34
 760 01b7 05       		.byte	0x5
 761 01b8 CA       		.byte	0xca
 762 01b9 1A       		.byte	0x1a
 763 01ba 97020000 		.4byte	0x297
 764 01be 10       		.byte	0x10
 765 01bf 07       		.uleb128 0x7
 766 01c0 69040000 		.4byte	.LASF35
 767 01c4 05       		.byte	0x5
 768 01c5 CB       		.byte	0xcb
 769 01c6 1A       		.byte	0x1a
 770 01c7 97020000 		.4byte	0x297
 771 01cb 14       		.byte	0x14
 772 01cc 07       		.uleb128 0x7
 773 01cd 44070000 		.4byte	.LASF36
 774 01d1 05       		.byte	0x5
 775 01d2 D2       		.byte	0xd2
 776 01d3 1A       		.byte	0x1a
 777 01d4 76070000 		.4byte	0x776
 778 01d8 18       		.byte	0x18
 779 01d9 07       		.uleb128 0x7
 780 01da 24050000 		.4byte	.LASF37
 781 01de 05       		.byte	0x5
 782 01df DD       		.byte	0xdd
 783 01e0 19       		.byte	0x19
 784 01e1 00010000 		.4byte	0x100
 785 01e5 1C       		.byte	0x1c
 786 01e6 07       		.uleb128 0x7
 787 01e7 62050000 		.4byte	.LASF38
 788 01eb 05       		.byte	0x5
 789 01ec E1       		.byte	0xe1
 790 01ed 19       		.byte	0x19
 791 01ee F4000000 		.4byte	0xf4
 792 01f2 1D       		.byte	0x1d
 793 01f3 07       		.uleb128 0x7
 794 01f4 D1060000 		.4byte	.LASF39
 795 01f8 05       		.byte	0x5
 796 01f9 E6       		.byte	0xe6
 797 01fa 19       		.byte	0x19
 798 01fb 0C010000 		.4byte	0x10c
ARM GAS  C:\Users\USER\AppData\Local\Temp\ccux1vpg.s 			page 15


 799 01ff 1E       		.byte	0x1e
 800 0200 07       		.uleb128 0x7
 801 0201 2C050000 		.4byte	.LASF40
 802 0205 05       		.byte	0x5
 803 0206 EC       		.byte	0xec
 804 0207 19       		.byte	0x19
 805 0208 18010000 		.4byte	0x118
 806 020c 1F       		.byte	0x1f
 807 020d 07       		.uleb128 0x7
 808 020e 5D030000 		.4byte	.LASF41
 809 0212 05       		.byte	0x5
 810 0213 F3       		.byte	0xf3
 811 0214 19       		.byte	0x19
 812 0215 60010000 		.4byte	0x160
 813 0219 20       		.byte	0x20
 814 021a 08       		.uleb128 0x8
 815 021b 705F7500 		.ascii	"p_u\000"
 816 021f 05       		.byte	0x5
 817 0220 3101     		.2byte	0x131
 818 0222 19       		.byte	0x19
 819 0223 A2060000 		.4byte	0x6a2
 820 0227 24       		.byte	0x24
 821 0228 09       		.uleb128 0x9
 822 0229 28040000 		.4byte	.LASF42
 823 022d 05       		.byte	0x5
 824 022e 3601     		.2byte	0x136
 825 0230 19       		.byte	0x19
 826 0231 9D020000 		.4byte	0x29d
 827 0235 28       		.byte	0x28
 828 0236 09       		.uleb128 0x9
 829 0237 74030000 		.4byte	.LASF43
 830 023b 05       		.byte	0x5
 831 023c 3C01     		.2byte	0x13c
 832 023e 19       		.byte	0x19
 833 023f C4020000 		.4byte	0x2c4
 834 0243 2C       		.byte	0x2c
 835 0244 09       		.uleb128 0x9
 836 0245 A6060000 		.4byte	.LASF44
 837 0249 05       		.byte	0x5
 838 024a 4001     		.2byte	0x140
 839 024c 19       		.byte	0x19
 840 024d 30010000 		.4byte	0x130
 841 0251 34       		.byte	0x34
 842 0252 09       		.uleb128 0x9
 843 0253 C6050000 		.4byte	.LASF45
 844 0257 05       		.byte	0x5
 845 0258 4601     		.2byte	0x146
 846 025a 19       		.byte	0x19
 847 025b 3C010000 		.4byte	0x13c
 848 025f 38       		.byte	0x38
 849 0260 09       		.uleb128 0x9
 850 0261 10050000 		.4byte	.LASF46
 851 0265 05       		.byte	0x5
 852 0266 4D01     		.2byte	0x14d
 853 0268 1A       		.byte	0x1a
 854 0269 70070000 		.4byte	0x770
 855 026d 3C       		.byte	0x3c
ARM GAS  C:\Users\USER\AppData\Local\Temp\ccux1vpg.s 			page 16


 856 026e 09       		.uleb128 0x9
 857 026f 60060000 		.4byte	.LASF47
 858 0273 05       		.byte	0x5
 859 0274 5101     		.2byte	0x151
 860 0276 19       		.byte	0x19
 861 0277 24010000 		.4byte	0x124
 862 027b 40       		.byte	0x40
 863 027c 09       		.uleb128 0x9
 864 027d 48010000 		.4byte	.LASF48
 865 0281 05       		.byte	0x5
 866 0282 5801     		.2byte	0x158
 867 0284 1A       		.byte	0x1a
 868 0285 84030000 		.4byte	0x384
 869 0289 44       		.byte	0x44
 870 028a 00       		.byte	0
 871 028b 04       		.uleb128 0x4
 872 028c 1D070000 		.4byte	.LASF49
 873 0290 0A       		.byte	0xa
 874 0291 44       		.byte	0x44
 875 0292 14       		.byte	0x14
 876 0293 97020000 		.4byte	0x297
 877 0297 0A       		.uleb128 0xa
 878 0298 04       		.byte	0x4
 879 0299 65010000 		.4byte	0x165
 880 029d 04       		.uleb128 0x4
 881 029e 05040000 		.4byte	.LASF50
 882 02a2 0A       		.byte	0xa
 883 02a3 49       		.byte	0x49
 884 02a4 20       		.byte	0x20
 885 02a5 A9020000 		.4byte	0x2a9
 886 02a9 06       		.uleb128 0x6
 887 02aa FA050000 		.4byte	.LASF52
 888 02ae 04       		.byte	0x4
 889 02af 05       		.byte	0x5
 890 02b0 B0       		.byte	0xb0
 891 02b1 08       		.byte	0x8
 892 02b2 C4020000 		.4byte	0x2c4
 893 02b6 07       		.uleb128 0x7
 894 02b7 44050000 		.4byte	.LASF30
 895 02bb 05       		.byte	0x5
 896 02bc B1       		.byte	0xb1
 897 02bd 1A       		.byte	0x1a
 898 02be 97020000 		.4byte	0x297
 899 02c2 00       		.byte	0
 900 02c3 00       		.byte	0
 901 02c4 04       		.uleb128 0x4
 902 02c5 7D050000 		.4byte	.LASF53
 903 02c9 0A       		.byte	0xa
 904 02ca 50       		.byte	0x50
 905 02cb 21       		.byte	0x21
 906 02cc D0020000 		.4byte	0x2d0
 907 02d0 06       		.uleb128 0x6
 908 02d1 EC000000 		.4byte	.LASF54
 909 02d5 08       		.byte	0x8
 910 02d6 05       		.byte	0x5
 911 02d7 B7       		.byte	0xb7
 912 02d8 08       		.byte	0x8
ARM GAS  C:\Users\USER\AppData\Local\Temp\ccux1vpg.s 			page 17


 913 02d9 F8020000 		.4byte	0x2f8
 914 02dd 07       		.uleb128 0x7
 915 02de 44050000 		.4byte	.LASF30
 916 02e2 05       		.byte	0x5
 917 02e3 B8       		.byte	0xb8
 918 02e4 1A       		.byte	0x1a
 919 02e5 97020000 		.4byte	0x297
 920 02e9 00       		.byte	0
 921 02ea 07       		.uleb128 0x7
 922 02eb D5040000 		.4byte	.LASF31
 923 02ef 05       		.byte	0x5
 924 02f0 B9       		.byte	0xb9
 925 02f1 1A       		.byte	0x1a
 926 02f2 97020000 		.4byte	0x297
 927 02f6 04       		.byte	0x4
 928 02f7 00       		.byte	0
 929 02f8 04       		.uleb128 0x4
 930 02f9 0D000000 		.4byte	.LASF55
 931 02fd 0A       		.byte	0xa
 932 02fe 57       		.byte	0x57
 933 02ff 1E       		.byte	0x1e
 934 0300 04030000 		.4byte	0x304
 935 0304 0B       		.uleb128 0xb
 936 0305 D6030000 		.4byte	.LASF56
 937 0309 1C       		.byte	0x1c
 938 030a 05       		.byte	0x5
 939 030b 9001     		.2byte	0x190
 940 030d 08       		.byte	0x8
 941 030e 67030000 		.4byte	0x367
 942 0312 09       		.uleb128 0x9
 943 0313 E6050000 		.4byte	.LASF57
 944 0317 05       		.byte	0x5
 945 0318 9101     		.2byte	0x191
 946 031a 19       		.byte	0x19
 947 031b C4020000 		.4byte	0x2c4
 948 031f 00       		.byte	0
 949 0320 09       		.uleb128 0x9
 950 0321 36050000 		.4byte	.LASF58
 951 0325 05       		.byte	0x5
 952 0326 9201     		.2byte	0x192
 953 0328 19       		.byte	0x19
 954 0329 24010000 		.4byte	0x124
 955 032d 08       		.byte	0x8
 956 032e 09       		.uleb128 0x9
 957 032f 71040000 		.4byte	.LASF59
 958 0333 05       		.byte	0x5
 959 0334 9401     		.2byte	0x194
 960 0336 19       		.byte	0x19
 961 0337 03050000 		.4byte	0x503
 962 033b 0C       		.byte	0xc
 963 033c 09       		.uleb128 0x9
 964 033d C5010000 		.4byte	.LASF60
 965 0341 05       		.byte	0x5
 966 0342 9701     		.2byte	0x197
 967 0344 1A       		.byte	0x1a
 968 0345 97020000 		.4byte	0x297
 969 0349 10       		.byte	0x10
ARM GAS  C:\Users\USER\AppData\Local\Temp\ccux1vpg.s 			page 18


 970 034a 09       		.uleb128 0x9
 971 034b 9F040000 		.4byte	.LASF61
 972 034f 05       		.byte	0x5
 973 0350 9801     		.2byte	0x198
 974 0352 1A       		.byte	0x1a
 975 0353 97020000 		.4byte	0x297
 976 0357 14       		.byte	0x14
 977 0358 09       		.uleb128 0x9
 978 0359 95040000 		.4byte	.LASF62
 979 035d 05       		.byte	0x5
 980 035e 9B01     		.2byte	0x19b
 981 0360 1A       		.byte	0x1a
 982 0361 97020000 		.4byte	0x297
 983 0365 18       		.byte	0x18
 984 0366 00       		.byte	0
 985 0367 04       		.uleb128 0x4
 986 0368 6B060000 		.4byte	.LASF63
 987 036c 0A       		.byte	0xa
 988 036d 5C       		.byte	0x5c
 989 036e 10       		.byte	0x10
 990 036f 73030000 		.4byte	0x373
 991 0373 0A       		.uleb128 0xa
 992 0374 04       		.byte	0x4
 993 0375 79030000 		.4byte	0x379
 994 0379 0C       		.uleb128 0xc
 995 037a 84030000 		.4byte	0x384
 996 037e 0D       		.uleb128 0xd
 997 037f 84030000 		.4byte	0x384
 998 0383 00       		.byte	0
 999 0384 0E       		.uleb128 0xe
 1000 0385 04       		.byte	0x4
 1001 0386 04       		.uleb128 0x4
 1002 0387 C5040000 		.4byte	.LASF64
 1003 038b 0A       		.byte	0xa
 1004 038c 61       		.byte	0x61
 1005 038d 21       		.byte	0x21
 1006 038e 92030000 		.4byte	0x392
 1007 0392 0B       		.uleb128 0xb
 1008 0393 8D050000 		.4byte	.LASF65
 1009 0397 14       		.byte	0x14
 1010 0398 05       		.byte	0x5
 1011 0399 6B01     		.2byte	0x16b
 1012 039b 08       		.byte	0x8
 1013 039c E7030000 		.4byte	0x3e7
 1014 03a0 09       		.uleb128 0x9
 1015 03a1 3C030000 		.4byte	.LASF66
 1016 03a5 05       		.byte	0x5
 1017 03a6 6C01     		.2byte	0x16c
 1018 03a8 1A       		.byte	0x1a
 1019 03a9 8D070000 		.4byte	0x78d
 1020 03ad 00       		.byte	0
 1021 03ae 09       		.uleb128 0x9
 1022 03af D6010000 		.4byte	.LASF67
 1023 03b3 05       		.byte	0x5
 1024 03b4 6D01     		.2byte	0x16d
 1025 03b6 1A       		.byte	0x1a
 1026 03b7 8D070000 		.4byte	0x78d
ARM GAS  C:\Users\USER\AppData\Local\Temp\ccux1vpg.s 			page 19


 1027 03bb 04       		.byte	0x4
 1028 03bc 09       		.uleb128 0x9
 1029 03bd 6B030000 		.4byte	.LASF68
 1030 03c1 05       		.byte	0x5
 1031 03c2 6E01     		.2byte	0x16e
 1032 03c4 19       		.byte	0x19
 1033 03c5 54010000 		.4byte	0x154
 1034 03c9 08       		.byte	0x8
 1035 03ca 09       		.uleb128 0x9
 1036 03cb 91070000 		.4byte	.LASF69
 1037 03cf 05       		.byte	0x5
 1038 03d0 6F01     		.2byte	0x16f
 1039 03d2 19       		.byte	0x19
 1040 03d3 67030000 		.4byte	0x367
 1041 03d7 0C       		.byte	0xc
 1042 03d8 09       		.uleb128 0x9
 1043 03d9 AC060000 		.4byte	.LASF70
 1044 03dd 05       		.byte	0x5
 1045 03de 7101     		.2byte	0x171
 1046 03e0 1A       		.byte	0x1a
 1047 03e1 84030000 		.4byte	0x384
 1048 03e5 10       		.byte	0x10
 1049 03e6 00       		.byte	0
 1050 03e7 04       		.uleb128 0x4
 1051 03e8 A5000000 		.4byte	.LASF71
 1052 03ec 0A       		.byte	0xa
 1053 03ed 66       		.byte	0x66
 1054 03ee 28       		.byte	0x28
 1055 03ef F3030000 		.4byte	0x3f3
 1056 03f3 0B       		.uleb128 0xb
 1057 03f4 3A040000 		.4byte	.LASF72
 1058 03f8 10       		.byte	0x10
 1059 03f9 05       		.byte	0x5
 1060 03fa 7B01     		.2byte	0x17b
 1061 03fc 08       		.byte	0x8
 1062 03fd 3A040000 		.4byte	0x43a
 1063 0401 09       		.uleb128 0x9
 1064 0402 3C030000 		.4byte	.LASF66
 1065 0406 05       		.byte	0x5
 1066 0407 7C01     		.2byte	0x17c
 1067 0409 1A       		.byte	0x1a
 1068 040a 8D070000 		.4byte	0x78d
 1069 040e 00       		.byte	0
 1070 040f 09       		.uleb128 0x9
 1071 0410 D6010000 		.4byte	.LASF67
 1072 0414 05       		.byte	0x5
 1073 0415 7E01     		.2byte	0x17e
 1074 0417 1A       		.byte	0x1a
 1075 0418 8D070000 		.4byte	0x78d
 1076 041c 04       		.byte	0x4
 1077 041d 09       		.uleb128 0x9
 1078 041e 6B030000 		.4byte	.LASF68
 1079 0422 05       		.byte	0x5
 1080 0423 8001     		.2byte	0x180
 1081 0425 19       		.byte	0x19
 1082 0426 54010000 		.4byte	0x154
 1083 042a 08       		.byte	0x8
ARM GAS  C:\Users\USER\AppData\Local\Temp\ccux1vpg.s 			page 20


 1084 042b 09       		.uleb128 0x9
 1085 042c 4B070000 		.4byte	.LASF73
 1086 0430 05       		.byte	0x5
 1087 0431 8201     		.2byte	0x182
 1088 0433 19       		.byte	0x19
 1089 0434 60010000 		.4byte	0x160
 1090 0438 0C       		.byte	0xc
 1091 0439 00       		.byte	0
 1092 043a 04       		.uleb128 0x4
 1093 043b 53000000 		.4byte	.LASF74
 1094 043f 0A       		.byte	0xa
 1095 0440 6B       		.byte	0x6b
 1096 0441 20       		.byte	0x20
 1097 0442 46040000 		.4byte	0x446
 1098 0446 0B       		.uleb128 0xb
 1099 0447 E4040000 		.4byte	.LASF75
 1100 044b 04       		.byte	0x4
 1101 044c 05       		.byte	0x5
 1102 044d A201     		.2byte	0x1a2
 1103 044f 08       		.byte	0x8
 1104 0450 63040000 		.4byte	0x463
 1105 0454 09       		.uleb128 0x9
 1106 0455 8D060000 		.4byte	.LASF76
 1107 0459 05       		.byte	0x5
 1108 045a AA01     		.2byte	0x1aa
 1109 045c 24       		.byte	0x24
 1110 045d 7C070000 		.4byte	0x77c
 1111 0461 00       		.byte	0
 1112 0462 00       		.byte	0
 1113 0463 04       		.uleb128 0x4
 1114 0464 BE030000 		.4byte	.LASF77
 1115 0468 0A       		.byte	0xa
 1116 0469 70       		.byte	0x70
 1117 046a 1A       		.byte	0x1a
 1118 046b 6F040000 		.4byte	0x46f
 1119 046f 0F       		.uleb128 0xf
 1120 0470 75010000 		.4byte	.LASF78
 1121 0474 5802     		.2byte	0x258
 1122 0476 05       		.byte	0x5
 1123 0477 C201     		.2byte	0x1c2
 1124 0479 08       		.byte	0x8
 1125 047a D2040000 		.4byte	0x4d2
 1126 047e 09       		.uleb128 0x9
 1127 047f 0F070000 		.4byte	.LASF79
 1128 0483 05       		.byte	0x5
 1129 0484 C601     		.2byte	0x1c6
 1130 0486 19       		.byte	0x19
 1131 0487 F8020000 		.4byte	0x2f8
 1132 048b 00       		.byte	0
 1133 048c 09       		.uleb128 0x9
 1134 048d 58010000 		.4byte	.LASF80
 1135 0491 05       		.byte	0x5
 1136 0492 CA01     		.2byte	0x1ca
 1137 0494 19       		.byte	0x19
 1138 0495 E7030000 		.4byte	0x3e7
 1139 0499 1C       		.byte	0x1c
 1140 049a 08       		.uleb128 0x8
ARM GAS  C:\Users\USER\AppData\Local\Temp\ccux1vpg.s 			page 21


 1141 049b 64626700 		.ascii	"dbg\000"
 1142 049f 05       		.byte	0x5
 1143 04a0 CE01     		.2byte	0x1ce
 1144 04a2 19       		.byte	0x19
 1145 04a3 3A040000 		.4byte	0x43a
 1146 04a7 2C       		.byte	0x2c
 1147 04a8 09       		.uleb128 0x9
 1148 04a9 9A000000 		.4byte	.LASF81
 1149 04ad 05       		.byte	0x5
 1150 04ae D201     		.2byte	0x1d2
 1151 04b0 19       		.byte	0x19
 1152 04b1 65010000 		.4byte	0x165
 1153 04b5 30       		.byte	0x30
 1154 04b6 08       		.uleb128 0x8
 1155 04b7 746D00   		.ascii	"tm\000"
 1156 04ba 05       		.byte	0x5
 1157 04bb D701     		.2byte	0x1d7
 1158 04bd 19       		.byte	0x19
 1159 04be 96060000 		.4byte	0x696
 1160 04c2 78       		.byte	0x78
 1161 04c3 09       		.uleb128 0x9
 1162 04c4 1A030000 		.4byte	.LASF82
 1163 04c8 05       		.byte	0x5
 1164 04c9 E301     		.2byte	0x1e3
 1165 04cb 03       		.byte	0x3
 1166 04cc 93070000 		.4byte	0x793
 1167 04d0 80       		.byte	0x80
 1168 04d1 00       		.byte	0
 1169 04d2 10       		.uleb128 0x10
 1170 04d3 BB000000 		.4byte	.LASF83
 1171 04d7 0B       		.byte	0xb
 1172 04d8 A706     		.2byte	0x6a7
 1173 04da 19       		.byte	0x19
 1174 04db CB000000 		.4byte	0xcb
 1175 04df 11       		.uleb128 0x11
 1176 04e0 4D030000 		.4byte	.LASF84
 1177 04e4 0C       		.byte	0xc
 1178 04e5 4C       		.byte	0x4c
 1179 04e6 11       		.byte	0x11
 1180 04e7 D0000000 		.4byte	0xd0
 1181 04eb 04       		.uleb128 0x4
 1182 04ec CD010000 		.4byte	.LASF85
 1183 04f0 0D       		.byte	0xd
 1184 04f1 65       		.byte	0x65
 1185 04f2 0F       		.byte	0xf
 1186 04f3 84030000 		.4byte	0x384
 1187 04f7 04       		.uleb128 0x4
 1188 04f8 FA030000 		.4byte	.LASF86
 1189 04fc 0D       		.byte	0xd
 1190 04fd 6D       		.byte	0x6d
 1191 04fe 12       		.byte	0x12
 1192 04ff DC000000 		.4byte	0xdc
 1193 0503 06       		.uleb128 0x6
 1194 0504 9E060000 		.4byte	.LASF87
 1195 0508 04       		.byte	0x4
 1196 0509 0D       		.byte	0xd
 1197 050a 89       		.byte	0x89
ARM GAS  C:\Users\USER\AppData\Local\Temp\ccux1vpg.s 			page 22


 1198 050b 08       		.byte	0x8
 1199 050c 1E050000 		.4byte	0x51e
 1200 0510 12       		.uleb128 0x12
 1201 0511 72313300 		.ascii	"r13\000"
 1202 0515 0D       		.byte	0xd
 1203 0516 8A       		.byte	0x8a
 1204 0517 17       		.byte	0x17
 1205 0518 79060000 		.4byte	0x679
 1206 051c 00       		.byte	0
 1207 051d 00       		.byte	0
 1208 051e 06       		.uleb128 0x6
 1209 051f 47000000 		.4byte	.LASF88
 1210 0523 64       		.byte	0x64
 1211 0524 04       		.byte	0x4
 1212 0525 F4       		.byte	0xf4
 1213 0526 08       		.byte	0x8
 1214 0527 79060000 		.4byte	0x679
 1215 052b 12       		.uleb128 0x12
 1216 052c 73313600 		.ascii	"s16\000"
 1217 0530 04       		.byte	0x4
 1218 0531 F6       		.byte	0xf6
 1219 0532 11       		.byte	0x11
 1220 0533 EB040000 		.4byte	0x4eb
 1221 0537 00       		.byte	0
 1222 0538 12       		.uleb128 0x12
 1223 0539 73313700 		.ascii	"s17\000"
 1224 053d 04       		.byte	0x4
 1225 053e F7       		.byte	0xf7
 1226 053f 11       		.byte	0x11
 1227 0540 EB040000 		.4byte	0x4eb
 1228 0544 04       		.byte	0x4
 1229 0545 12       		.uleb128 0x12
 1230 0546 73313800 		.ascii	"s18\000"
 1231 054a 04       		.byte	0x4
 1232 054b F8       		.byte	0xf8
 1233 054c 11       		.byte	0x11
 1234 054d EB040000 		.4byte	0x4eb
 1235 0551 08       		.byte	0x8
 1236 0552 12       		.uleb128 0x12
 1237 0553 73313900 		.ascii	"s19\000"
 1238 0557 04       		.byte	0x4
 1239 0558 F9       		.byte	0xf9
 1240 0559 11       		.byte	0x11
 1241 055a EB040000 		.4byte	0x4eb
 1242 055e 0C       		.byte	0xc
 1243 055f 12       		.uleb128 0x12
 1244 0560 73323000 		.ascii	"s20\000"
 1245 0564 04       		.byte	0x4
 1246 0565 FA       		.byte	0xfa
 1247 0566 11       		.byte	0x11
 1248 0567 EB040000 		.4byte	0x4eb
 1249 056b 10       		.byte	0x10
 1250 056c 12       		.uleb128 0x12
 1251 056d 73323100 		.ascii	"s21\000"
 1252 0571 04       		.byte	0x4
 1253 0572 FB       		.byte	0xfb
 1254 0573 11       		.byte	0x11
ARM GAS  C:\Users\USER\AppData\Local\Temp\ccux1vpg.s 			page 23


 1255 0574 EB040000 		.4byte	0x4eb
 1256 0578 14       		.byte	0x14
 1257 0579 12       		.uleb128 0x12
 1258 057a 73323200 		.ascii	"s22\000"
 1259 057e 04       		.byte	0x4
 1260 057f FC       		.byte	0xfc
 1261 0580 11       		.byte	0x11
 1262 0581 EB040000 		.4byte	0x4eb
 1263 0585 18       		.byte	0x18
 1264 0586 12       		.uleb128 0x12
 1265 0587 73323300 		.ascii	"s23\000"
 1266 058b 04       		.byte	0x4
 1267 058c FD       		.byte	0xfd
 1268 058d 11       		.byte	0x11
 1269 058e EB040000 		.4byte	0x4eb
 1270 0592 1C       		.byte	0x1c
 1271 0593 12       		.uleb128 0x12
 1272 0594 73323400 		.ascii	"s24\000"
 1273 0598 04       		.byte	0x4
 1274 0599 FE       		.byte	0xfe
 1275 059a 11       		.byte	0x11
 1276 059b EB040000 		.4byte	0x4eb
 1277 059f 20       		.byte	0x20
 1278 05a0 12       		.uleb128 0x12
 1279 05a1 73323500 		.ascii	"s25\000"
 1280 05a5 04       		.byte	0x4
 1281 05a6 FF       		.byte	0xff
 1282 05a7 11       		.byte	0x11
 1283 05a8 EB040000 		.4byte	0x4eb
 1284 05ac 24       		.byte	0x24
 1285 05ad 08       		.uleb128 0x8
 1286 05ae 73323600 		.ascii	"s26\000"
 1287 05b2 04       		.byte	0x4
 1288 05b3 0001     		.2byte	0x100
 1289 05b5 11       		.byte	0x11
 1290 05b6 EB040000 		.4byte	0x4eb
 1291 05ba 28       		.byte	0x28
 1292 05bb 08       		.uleb128 0x8
 1293 05bc 73323700 		.ascii	"s27\000"
 1294 05c0 04       		.byte	0x4
 1295 05c1 0101     		.2byte	0x101
 1296 05c3 11       		.byte	0x11
 1297 05c4 EB040000 		.4byte	0x4eb
 1298 05c8 2C       		.byte	0x2c
 1299 05c9 08       		.uleb128 0x8
 1300 05ca 73323800 		.ascii	"s28\000"
 1301 05ce 04       		.byte	0x4
 1302 05cf 0201     		.2byte	0x102
 1303 05d1 11       		.byte	0x11
 1304 05d2 EB040000 		.4byte	0x4eb
 1305 05d6 30       		.byte	0x30
 1306 05d7 08       		.uleb128 0x8
 1307 05d8 73323900 		.ascii	"s29\000"
 1308 05dc 04       		.byte	0x4
 1309 05dd 0301     		.2byte	0x103
 1310 05df 11       		.byte	0x11
 1311 05e0 EB040000 		.4byte	0x4eb
ARM GAS  C:\Users\USER\AppData\Local\Temp\ccux1vpg.s 			page 24


 1312 05e4 34       		.byte	0x34
 1313 05e5 08       		.uleb128 0x8
 1314 05e6 73333000 		.ascii	"s30\000"
 1315 05ea 04       		.byte	0x4
 1316 05eb 0401     		.2byte	0x104
 1317 05ed 11       		.byte	0x11
 1318 05ee EB040000 		.4byte	0x4eb
 1319 05f2 38       		.byte	0x38
 1320 05f3 08       		.uleb128 0x8
 1321 05f4 73333100 		.ascii	"s31\000"
 1322 05f8 04       		.byte	0x4
 1323 05f9 0501     		.2byte	0x105
 1324 05fb 11       		.byte	0x11
 1325 05fc EB040000 		.4byte	0x4eb
 1326 0600 3C       		.byte	0x3c
 1327 0601 08       		.uleb128 0x8
 1328 0602 723400   		.ascii	"r4\000"
 1329 0605 04       		.byte	0x4
 1330 0606 0701     		.2byte	0x107
 1331 0608 11       		.byte	0x11
 1332 0609 EB040000 		.4byte	0x4eb
 1333 060d 40       		.byte	0x40
 1334 060e 08       		.uleb128 0x8
 1335 060f 723500   		.ascii	"r5\000"
 1336 0612 04       		.byte	0x4
 1337 0613 0801     		.2byte	0x108
 1338 0615 11       		.byte	0x11
 1339 0616 EB040000 		.4byte	0x4eb
 1340 061a 44       		.byte	0x44
 1341 061b 08       		.uleb128 0x8
 1342 061c 723600   		.ascii	"r6\000"
 1343 061f 04       		.byte	0x4
 1344 0620 0901     		.2byte	0x109
 1345 0622 11       		.byte	0x11
 1346 0623 EB040000 		.4byte	0x4eb
 1347 0627 48       		.byte	0x48
 1348 0628 08       		.uleb128 0x8
 1349 0629 723700   		.ascii	"r7\000"
 1350 062c 04       		.byte	0x4
 1351 062d 0A01     		.2byte	0x10a
 1352 062f 11       		.byte	0x11
 1353 0630 EB040000 		.4byte	0x4eb
 1354 0634 4C       		.byte	0x4c
 1355 0635 08       		.uleb128 0x8
 1356 0636 723800   		.ascii	"r8\000"
 1357 0639 04       		.byte	0x4
 1358 063a 0B01     		.2byte	0x10b
 1359 063c 11       		.byte	0x11
 1360 063d EB040000 		.4byte	0x4eb
 1361 0641 50       		.byte	0x50
 1362 0642 08       		.uleb128 0x8
 1363 0643 723900   		.ascii	"r9\000"
 1364 0646 04       		.byte	0x4
 1365 0647 0C01     		.2byte	0x10c
 1366 0649 11       		.byte	0x11
 1367 064a EB040000 		.4byte	0x4eb
 1368 064e 54       		.byte	0x54
ARM GAS  C:\Users\USER\AppData\Local\Temp\ccux1vpg.s 			page 25


 1369 064f 08       		.uleb128 0x8
 1370 0650 72313000 		.ascii	"r10\000"
 1371 0654 04       		.byte	0x4
 1372 0655 0D01     		.2byte	0x10d
 1373 0657 11       		.byte	0x11
 1374 0658 EB040000 		.4byte	0x4eb
 1375 065c 58       		.byte	0x58
 1376 065d 08       		.uleb128 0x8
 1377 065e 72313100 		.ascii	"r11\000"
 1378 0662 04       		.byte	0x4
 1379 0663 0E01     		.2byte	0x10e
 1380 0665 11       		.byte	0x11
 1381 0666 EB040000 		.4byte	0x4eb
 1382 066a 5C       		.byte	0x5c
 1383 066b 08       		.uleb128 0x8
 1384 066c 6C7200   		.ascii	"lr\000"
 1385 066f 04       		.byte	0x4
 1386 0670 0F01     		.2byte	0x10f
 1387 0672 11       		.byte	0x11
 1388 0673 EB040000 		.4byte	0x4eb
 1389 0677 60       		.byte	0x60
 1390 0678 00       		.byte	0
 1391 0679 0A       		.uleb128 0xa
 1392 067a 04       		.byte	0x4
 1393 067b 1E050000 		.4byte	0x51e
 1394 067f 13       		.uleb128 0x13
 1395 0680 04       		.byte	0x4
 1396 0681 0E       		.byte	0xe
 1397 0682 38       		.byte	0x38
 1398 0683 09       		.byte	0x9
 1399 0684 96060000 		.4byte	0x696
 1400 0688 07       		.uleb128 0x7
 1401 0689 97060000 		.4byte	.LASF89
 1402 068d 0E       		.byte	0xe
 1403 068e 3C       		.byte	0x3c
 1404 068f 19       		.byte	0x19
 1405 0690 E8000000 		.4byte	0xe8
 1406 0694 00       		.byte	0
 1407 0695 00       		.byte	0
 1408 0696 04       		.uleb128 0x4
 1409 0697 7D040000 		.4byte	.LASF90
 1410 069b 0E       		.byte	0xe
 1411 069c 3D       		.byte	0x3d
 1412 069d 03       		.byte	0x3
 1413 069e 7F060000 		.4byte	0x67f
 1414 06a2 14       		.uleb128 0x14
 1415 06a3 04       		.byte	0x4
 1416 06a4 05       		.byte	0x5
 1417 06a5 FA       		.byte	0xfa
 1418 06a6 03       		.byte	0x3
 1419 06a7 07070000 		.4byte	0x707
 1420 06ab 15       		.uleb128 0x15
 1421 06ac 2D000000 		.4byte	.LASF91
 1422 06b0 05       		.byte	0x5
 1423 06b1 0101     		.2byte	0x101
 1424 06b3 19       		.byte	0x19
 1425 06b4 30010000 		.4byte	0x130
ARM GAS  C:\Users\USER\AppData\Local\Temp\ccux1vpg.s 			page 26


 1426 06b8 15       		.uleb128 0x15
 1427 06b9 91000000 		.4byte	.LASF92
 1428 06bd 05       		.byte	0x5
 1429 06be 0801     		.2byte	0x108
 1430 06c0 19       		.byte	0x19
 1431 06c1 30010000 		.4byte	0x130
 1432 06c5 15       		.uleb128 0x15
 1433 06c6 30070000 		.4byte	.LASF93
 1434 06ca 05       		.byte	0x5
 1435 06cb 0F01     		.2byte	0x10f
 1436 06cd 1A       		.byte	0x1a
 1437 06ce 84030000 		.4byte	0x384
 1438 06d2 15       		.uleb128 0x15
 1439 06d3 27000000 		.4byte	.LASF94
 1440 06d7 05       		.byte	0x5
 1441 06d8 1601     		.2byte	0x116
 1442 06da 1A       		.byte	0x1a
 1443 06db 07070000 		.4byte	0x707
 1444 06df 15       		.uleb128 0x15
 1445 06e0 64030000 		.4byte	.LASF95
 1446 06e4 05       		.byte	0x5
 1447 06e5 1E01     		.2byte	0x11e
 1448 06e7 1A       		.byte	0x1a
 1449 06e8 35070000 		.4byte	0x735
 1450 06ec 15       		.uleb128 0x15
 1451 06ed 29060000 		.4byte	.LASF96
 1452 06f1 05       		.byte	0x5
 1453 06f2 2701     		.2byte	0x127
 1454 06f4 1A       		.byte	0x1a
 1455 06f5 70070000 		.4byte	0x770
 1456 06f9 15       		.uleb128 0x15
 1457 06fa 3D050000 		.4byte	.LASF97
 1458 06fe 05       		.byte	0x5
 1459 06ff 2F01     		.2byte	0x12f
 1460 0701 19       		.byte	0x19
 1461 0702 3C010000 		.4byte	0x13c
 1462 0706 00       		.byte	0
 1463 0707 0A       		.uleb128 0xa
 1464 0708 04       		.byte	0x4
 1465 0709 8B020000 		.4byte	0x28b
 1466 070d 06       		.uleb128 0x6
 1467 070e AB050000 		.4byte	.LASF98
 1468 0712 0C       		.byte	0xc
 1469 0713 0F       		.byte	0xf
 1470 0714 34       		.byte	0x34
 1471 0715 10       		.byte	0x10
 1472 0716 35070000 		.4byte	0x735
 1473 071a 07       		.uleb128 0x7
 1474 071b BD010000 		.4byte	.LASF99
 1475 071f 0F       		.byte	0xf
 1476 0720 35       		.byte	0x35
 1477 0721 19       		.byte	0x19
 1478 0722 C4020000 		.4byte	0x2c4
 1479 0726 00       		.byte	0
 1480 0727 07       		.uleb128 0x7
 1481 0728 88030000 		.4byte	.LASF100
 1482 072c 0F       		.byte	0xf
ARM GAS  C:\Users\USER\AppData\Local\Temp\ccux1vpg.s 			page 27


 1483 072d 37       		.byte	0x37
 1484 072e 19       		.byte	0x19
 1485 072f 48010000 		.4byte	0x148
 1486 0733 08       		.byte	0x8
 1487 0734 00       		.byte	0
 1488 0735 0A       		.uleb128 0xa
 1489 0736 04       		.byte	0x4
 1490 0737 0D070000 		.4byte	0x70d
 1491 073b 06       		.uleb128 0x6
 1492 073c C8060000 		.4byte	.LASF101
 1493 0740 10       		.byte	0x10
 1494 0741 10       		.byte	0x10
 1495 0742 39       		.byte	0x39
 1496 0743 08       		.byte	0x8
 1497 0744 70070000 		.4byte	0x770
 1498 0748 07       		.uleb128 0x7
 1499 0749 50010000 		.4byte	.LASF102
 1500 074d 10       		.byte	0x10
 1501 074e 3A       		.byte	0x3a
 1502 074f 19       		.byte	0x19
 1503 0750 C4020000 		.4byte	0x2c4
 1504 0754 00       		.byte	0
 1505 0755 07       		.uleb128 0x7
 1506 0756 7B070000 		.4byte	.LASF103
 1507 075a 10       		.byte	0x10
 1508 075b 3C       		.byte	0x3c
 1509 075c 1A       		.byte	0x1a
 1510 075d 97020000 		.4byte	0x297
 1511 0761 08       		.byte	0x8
 1512 0762 07       		.uleb128 0x7
 1513 0763 8E040000 		.4byte	.LASF104
 1514 0767 10       		.byte	0x10
 1515 0768 3E       		.byte	0x3e
 1516 0769 1A       		.byte	0x1a
 1517 076a DC080000 		.4byte	0x8dc
 1518 076e 0C       		.byte	0xc
 1519 076f 00       		.byte	0
 1520 0770 0A       		.uleb128 0xa
 1521 0771 04       		.byte	0x4
 1522 0772 3B070000 		.4byte	0x73b
 1523 0776 0A       		.uleb128 0xa
 1524 0777 04       		.byte	0x4
 1525 0778 88070000 		.4byte	0x788
 1526 077c 05       		.uleb128 0x5
 1527 077d 76070000 		.4byte	0x776
 1528 0781 03       		.uleb128 0x3
 1529 0782 01       		.byte	0x1
 1530 0783 08       		.byte	0x8
 1531 0784 24060000 		.4byte	.LASF105
 1532 0788 16       		.uleb128 0x16
 1533 0789 81070000 		.4byte	0x781
 1534 078d 0A       		.uleb128 0xa
 1535 078e 04       		.byte	0x4
 1536 078f 86030000 		.4byte	0x386
 1537 0793 17       		.uleb128 0x17
 1538 0794 F7040000 		.4byte	0x4f7
 1539 0798 A3070000 		.4byte	0x7a3
ARM GAS  C:\Users\USER\AppData\Local\Temp\ccux1vpg.s 			page 28


 1540 079c 18       		.uleb128 0x18
 1541 079d 2C000000 		.4byte	0x2c
 1542 07a1 3A       		.byte	0x3a
 1543 07a2 00       		.byte	0
 1544 07a3 19       		.uleb128 0x19
 1545 07a4 636800   		.ascii	"ch\000"
 1546 07a7 05       		.byte	0x5
 1547 07a8 0902     		.2byte	0x209
 1548 07aa 14       		.byte	0x14
 1549 07ab 63040000 		.4byte	0x463
 1550 07af 13       		.uleb128 0x13
 1551 07b0 16       		.byte	0x16
 1552 07b1 11       		.byte	0x11
 1553 07b2 34       		.byte	0x34
 1554 07b3 09       		.byte	0x9
 1555 07b4 A3080000 		.4byte	0x8a3
 1556 07b8 07       		.uleb128 0x7
 1557 07b9 83070000 		.4byte	.LASF106
 1558 07bd 11       		.byte	0x11
 1559 07be 35       		.byte	0x35
 1560 07bf 0D       		.byte	0xd
 1561 07c0 A3080000 		.4byte	0x8a3
 1562 07c4 00       		.byte	0
 1563 07c5 07       		.uleb128 0x7
 1564 07c6 14040000 		.4byte	.LASF107
 1565 07ca 11       		.byte	0x11
 1566 07cb 36       		.byte	0x36
 1567 07cc 0D       		.byte	0xd
 1568 07cd A7000000 		.4byte	0xa7
 1569 07d1 04       		.byte	0x4
 1570 07d2 07       		.uleb128 0x7
 1571 07d3 0A060000 		.4byte	.LASF108
 1572 07d7 11       		.byte	0x11
 1573 07d8 37       		.byte	0x37
 1574 07d9 0D       		.byte	0xd
 1575 07da A7000000 		.4byte	0xa7
 1576 07de 05       		.byte	0x5
 1577 07df 07       		.uleb128 0x7
 1578 07e0 62070000 		.4byte	.LASF109
 1579 07e4 11       		.byte	0x11
 1580 07e5 38       		.byte	0x38
 1581 07e6 0D       		.byte	0xd
 1582 07e7 B3000000 		.4byte	0xb3
 1583 07eb 06       		.byte	0x6
 1584 07ec 07       		.uleb128 0x7
 1585 07ed BA040000 		.4byte	.LASF110
 1586 07f1 11       		.byte	0x11
 1587 07f2 39       		.byte	0x39
 1588 07f3 0D       		.byte	0xd
 1589 07f4 A7000000 		.4byte	0xa7
 1590 07f8 08       		.byte	0x8
 1591 07f9 07       		.uleb128 0x7
 1592 07fa 51040000 		.4byte	.LASF111
 1593 07fe 11       		.byte	0x11
 1594 07ff 3A       		.byte	0x3a
 1595 0800 0D       		.byte	0xd
 1596 0801 A7000000 		.4byte	0xa7
ARM GAS  C:\Users\USER\AppData\Local\Temp\ccux1vpg.s 			page 29


 1597 0805 09       		.byte	0x9
 1598 0806 07       		.uleb128 0x7
 1599 0807 83000000 		.4byte	.LASF112
 1600 080b 11       		.byte	0x11
 1601 080c 3B       		.byte	0x3b
 1602 080d 0D       		.byte	0xd
 1603 080e A7000000 		.4byte	0xa7
 1604 0812 0A       		.byte	0xa
 1605 0813 07       		.uleb128 0x7
 1606 0814 DA050000 		.4byte	.LASF113
 1607 0818 11       		.byte	0x11
 1608 0819 3C       		.byte	0x3c
 1609 081a 0D       		.byte	0xd
 1610 081b A7000000 		.4byte	0xa7
 1611 081f 0B       		.byte	0xb
 1612 0820 07       		.uleb128 0x7
 1613 0821 BD060000 		.4byte	.LASF114
 1614 0825 11       		.byte	0x11
 1615 0826 3D       		.byte	0x3d
 1616 0827 0D       		.byte	0xd
 1617 0828 A7000000 		.4byte	0xa7
 1618 082c 0C       		.byte	0xc
 1619 082d 07       		.uleb128 0x7
 1620 082e 37070000 		.4byte	.LASF115
 1621 0832 11       		.byte	0x11
 1622 0833 3E       		.byte	0x3e
 1623 0834 0D       		.byte	0xd
 1624 0835 A7000000 		.4byte	0xa7
 1625 0839 0D       		.byte	0xd
 1626 083a 07       		.uleb128 0x7
 1627 083b 00000000 		.4byte	.LASF116
 1628 083f 11       		.byte	0x11
 1629 0840 3F       		.byte	0x3f
 1630 0841 0D       		.byte	0xd
 1631 0842 A7000000 		.4byte	0xa7
 1632 0846 0E       		.byte	0xe
 1633 0847 07       		.uleb128 0x7
 1634 0848 5D040000 		.4byte	.LASF117
 1635 084c 11       		.byte	0x11
 1636 084d 40       		.byte	0x40
 1637 084e 0D       		.byte	0xd
 1638 084f A7000000 		.4byte	0xa7
 1639 0853 0F       		.byte	0xf
 1640 0854 07       		.uleb128 0x7
 1641 0855 2B010000 		.4byte	.LASF118
 1642 0859 11       		.byte	0x11
 1643 085a 41       		.byte	0x41
 1644 085b 0D       		.byte	0xd
 1645 085c A7000000 		.4byte	0xa7
 1646 0860 10       		.byte	0x10
 1647 0861 07       		.uleb128 0x7
 1648 0862 04010000 		.4byte	.LASF119
 1649 0866 11       		.byte	0x11
 1650 0867 43       		.byte	0x43
 1651 0868 0D       		.byte	0xd
 1652 0869 A7000000 		.4byte	0xa7
 1653 086d 11       		.byte	0x11
ARM GAS  C:\Users\USER\AppData\Local\Temp\ccux1vpg.s 			page 30


 1654 086e 07       		.uleb128 0x7
 1655 086f 3B010000 		.4byte	.LASF120
 1656 0873 11       		.byte	0x11
 1657 0874 44       		.byte	0x44
 1658 0875 0D       		.byte	0xd
 1659 0876 A7000000 		.4byte	0xa7
 1660 087a 12       		.byte	0x12
 1661 087b 07       		.uleb128 0x7
 1662 087c 1C040000 		.4byte	.LASF121
 1663 0880 11       		.byte	0x11
 1664 0881 45       		.byte	0x45
 1665 0882 0D       		.byte	0xd
 1666 0883 A7000000 		.4byte	0xa7
 1667 0887 13       		.byte	0x13
 1668 0888 07       		.uleb128 0x7
 1669 0889 53050000 		.4byte	.LASF122
 1670 088d 11       		.byte	0x11
 1671 088e 46       		.byte	0x46
 1672 088f 0D       		.byte	0xd
 1673 0890 A7000000 		.4byte	0xa7
 1674 0894 14       		.byte	0x14
 1675 0895 07       		.uleb128 0x7
 1676 0896 CA030000 		.4byte	.LASF123
 1677 089a 11       		.byte	0x11
 1678 089b 48       		.byte	0x48
 1679 089c 0D       		.byte	0xd
 1680 089d A7000000 		.4byte	0xa7
 1681 08a1 15       		.byte	0x15
 1682 08a2 00       		.byte	0
 1683 08a3 17       		.uleb128 0x17
 1684 08a4 81070000 		.4byte	0x781
 1685 08a8 B3080000 		.4byte	0x8b3
 1686 08ac 18       		.uleb128 0x18
 1687 08ad 2C000000 		.4byte	0x2c
 1688 08b1 03       		.byte	0x3
 1689 08b2 00       		.byte	0
 1690 08b3 04       		.uleb128 0x4
 1691 08b4 9B010000 		.4byte	.LASF124
 1692 08b8 11       		.byte	0x11
 1693 08b9 49       		.byte	0x49
 1694 08ba 03       		.byte	0x3
 1695 08bb AF070000 		.4byte	0x7af
 1696 08bf 16       		.uleb128 0x16
 1697 08c0 B3080000 		.4byte	0x8b3
 1698 08c4 11       		.uleb128 0x11
 1699 08c5 7F030000 		.4byte	.LASF125
 1700 08c9 11       		.byte	0x11
 1701 08ca 6E       		.byte	0x6e
 1702 08cb 1D       		.byte	0x1d
 1703 08cc BF080000 		.4byte	0x8bf
 1704 08d0 04       		.uleb128 0x4
 1705 08d1 0C030000 		.4byte	.LASF126
 1706 08d5 10       		.byte	0x10
 1707 08d6 34       		.byte	0x34
 1708 08d7 19       		.byte	0x19
 1709 08d8 3B070000 		.4byte	0x73b
 1710 08dc 0A       		.uleb128 0xa
ARM GAS  C:\Users\USER\AppData\Local\Temp\ccux1vpg.s 			page 31


 1711 08dd 04       		.byte	0x4
 1712 08de D0080000 		.4byte	0x8d0
 1713 08e2 1A       		.uleb128 0x1a
 1714 08e3 9E050000 		.4byte	.LASF147
 1715 08e7 01       		.byte	0x1
 1716 08e8 90       		.byte	0x90
 1717 08e9 06       		.byte	0x6
 1718 08ea 00000000 		.4byte	.LFB221
 1719 08ee 14000000 		.4byte	.LFE221-.LFB221
 1720 08f2 01       		.uleb128 0x1
 1721 08f3 9C       		.byte	0x9c
 1722 08f4 0D0A0000 		.4byte	0xa0d
 1723 08f8 1B       		.uleb128 0x1b
 1724 08f9 747000   		.ascii	"tp\000"
 1725 08fc 01       		.byte	0x1
 1726 08fd 90       		.byte	0x90
 1727 08fe 1D       		.byte	0x1d
 1728 08ff 97020000 		.4byte	0x297
 1729 0903 04000000 		.4byte	.LLST10
 1730 0907 00000000 		.4byte	.LVUS10
 1731 090b 1B       		.uleb128 0x1b
 1732 090c 6D736700 		.ascii	"msg\000"
 1733 0910 01       		.byte	0x1
 1734 0911 90       		.byte	0x90
 1735 0912 27       		.byte	0x27
 1736 0913 30010000 		.4byte	0x130
 1737 0917 29000000 		.4byte	.LLST11
 1738 091b 25000000 		.4byte	.LVUS11
 1739 091f 1C       		.uleb128 0x1c
 1740 0920 6A050000 		.4byte	.LASF129
 1741 0924 1D0A0000 		.4byte	0xa1d
 1742 0928 1D       		.uleb128 0x1d
 1743 0929 0E0D0000 		.4byte	0xd0e
 1744 092d 00000000 		.4byte	.LBI109
 1745 0931 02       		.byte	.LVU111
 1746 0932 18010000 		.4byte	.Ldebug_ranges0+0x118
 1747 0936 01       		.byte	0x1
 1748 0937 92       		.byte	0x92
 1749 0938 03       		.byte	0x3
 1750 0939 71090000 		.4byte	0x971
 1751 093d 1E       		.uleb128 0x1e
 1752 093e 7C0D0000 		.4byte	0xd7c
 1753 0942 00000000 		.4byte	.LBI110
 1754 0946 04       		.byte	.LVU113
 1755 0947 20010000 		.4byte	.Ldebug_ranges0+0x120
 1756 094b 03       		.byte	0x3
 1757 094c 5C01     		.2byte	0x15c
 1758 094e 03       		.byte	0x3
 1759 094f 1E       		.uleb128 0x1e
 1760 0950 860D0000 		.4byte	0xd86
 1761 0954 00000000 		.4byte	.LBI111
 1762 0958 06       		.byte	.LVU115
 1763 0959 28010000 		.4byte	.Ldebug_ranges0+0x128
 1764 095d 04       		.byte	0x4
 1765 095e BF01     		.2byte	0x1bf
 1766 0960 03       		.byte	0x3
 1767 0961 1F       		.uleb128 0x1f
ARM GAS  C:\Users\USER\AppData\Local\Temp\ccux1vpg.s 			page 32


 1768 0962 940D0000 		.4byte	0xd94
 1769 0966 4C000000 		.4byte	.LLST12
 1770 096a 4A000000 		.4byte	.LVUS12
 1771 096e 00       		.byte	0
 1772 096f 00       		.byte	0
 1773 0970 00       		.byte	0
 1774 0971 20       		.uleb128 0x20
 1775 0972 980C0000 		.4byte	0xc98
 1776 0976 08000000 		.4byte	.LBI120
 1777 097a 06       		.byte	.LVU125
 1778 097b 08000000 		.4byte	.LBB120
 1779 097f 04000000 		.4byte	.LBE120-.LBB120
 1780 0983 01       		.byte	0x1
 1781 0984 94       		.byte	0x94
 1782 0985 03       		.byte	0x3
 1783 0986 BD090000 		.4byte	0x9bd
 1784 098a 1F       		.uleb128 0x1f
 1785 098b B00C0000 		.4byte	0xcb0
 1786 098f 65000000 		.4byte	.LLST13
 1787 0993 61000000 		.4byte	.LVUS13
 1788 0997 1F       		.uleb128 0x1f
 1789 0998 A50C0000 		.4byte	0xca5
 1790 099c 8A000000 		.4byte	.LLST14
 1791 09a0 86000000 		.4byte	.LVUS14
 1792 09a4 21       		.uleb128 0x21
 1793 09a5 0C000000 		.4byte	.LVL24
 1794 09a9 A20D0000 		.4byte	0xda2
 1795 09ad 22       		.uleb128 0x22
 1796 09ae 01       		.uleb128 0x1
 1797 09af 50       		.byte	0x50
 1798 09b0 03       		.uleb128 0x3
 1799 09b1 F3       		.byte	0xf3
 1800 09b2 01       		.uleb128 0x1
 1801 09b3 50       		.byte	0x50
 1802 09b4 22       		.uleb128 0x22
 1803 09b5 01       		.uleb128 0x1
 1804 09b6 51       		.byte	0x51
 1805 09b7 03       		.uleb128 0x3
 1806 09b8 F3       		.byte	0xf3
 1807 09b9 01       		.uleb128 0x1
 1808 09ba 51       		.byte	0x51
 1809 09bb 00       		.byte	0
 1810 09bc 00       		.byte	0
 1811 09bd 23       		.uleb128 0x23
 1812 09be E10C0000 		.4byte	0xce1
 1813 09c2 0C000000 		.4byte	.LBI122
 1814 09c6 02       		.byte	.LVU130
 1815 09c7 40010000 		.4byte	.Ldebug_ranges0+0x140
 1816 09cb 01       		.byte	0x1
 1817 09cc 95       		.byte	0x95
 1818 09cd 03       		.byte	0x3
 1819 09ce 24       		.uleb128 0x24
 1820 09cf 40010000 		.4byte	.Ldebug_ranges0+0x140
 1821 09d3 1E       		.uleb128 0x1e
 1822 09d4 720D0000 		.4byte	0xd72
 1823 09d8 0C000000 		.4byte	.LBI124
 1824 09dc 08       		.byte	.LVU136
ARM GAS  C:\Users\USER\AppData\Local\Temp\ccux1vpg.s 			page 33


 1825 09dd 40010000 		.4byte	.Ldebug_ranges0+0x140
 1826 09e1 03       		.byte	0x3
 1827 09e2 7301     		.2byte	0x173
 1828 09e4 03       		.byte	0x3
 1829 09e5 25       		.uleb128 0x25
 1830 09e6 860D0000 		.4byte	0xd86
 1831 09ea 0C000000 		.4byte	.LBI125
 1832 09ee 0A       		.byte	.LVU138
 1833 09ef 0C000000 		.4byte	.LBB125
 1834 09f3 06000000 		.4byte	.LBE125-.LBB125
 1835 09f7 04       		.byte	0x4
 1836 09f8 CD01     		.2byte	0x1cd
 1837 09fa 03       		.byte	0x3
 1838 09fb 1F       		.uleb128 0x1f
 1839 09fc 940D0000 		.4byte	0xd94
 1840 0a00 AD000000 		.4byte	.LLST15
 1841 0a04 AB000000 		.4byte	.LVUS15
 1842 0a08 00       		.byte	0
 1843 0a09 00       		.byte	0
 1844 0a0a 00       		.byte	0
 1845 0a0b 00       		.byte	0
 1846 0a0c 00       		.byte	0
 1847 0a0d 17       		.uleb128 0x17
 1848 0a0e 88070000 		.4byte	0x788
 1849 0a12 1D0A0000 		.4byte	0xa1d
 1850 0a16 18       		.uleb128 0x18
 1851 0a17 2C000000 		.4byte	0x2c
 1852 0a1b 0C       		.byte	0xc
 1853 0a1c 00       		.byte	0
 1854 0a1d 16       		.uleb128 0x16
 1855 0a1e 0D0A0000 		.4byte	0xa0d
 1856 0a22 26       		.uleb128 0x26
 1857 0a23 B3060000 		.4byte	.LASF127
 1858 0a27 01       		.byte	0x1
 1859 0a28 78       		.byte	0x78
 1860 0a29 0B       		.byte	0xb
 1861 0a2a 97020000 		.4byte	0x297
 1862 0a2e 00000000 		.4byte	.LFB220
 1863 0a32 3C000000 		.4byte	.LFE220-.LFB220
 1864 0a36 01       		.uleb128 0x1
 1865 0a37 9C       		.byte	0x9c
 1866 0a38 3C0B0000 		.4byte	0xb3c
 1867 0a3c 27       		.uleb128 0x27
 1868 0a3d 747000   		.ascii	"tp\000"
 1869 0a40 01       		.byte	0x1
 1870 0a41 79       		.byte	0x79
 1871 0a42 0D       		.byte	0xd
 1872 0a43 97020000 		.4byte	0x297
 1873 0a47 1D       		.uleb128 0x1d
 1874 0a48 0E0D0000 		.4byte	0xd0e
 1875 0a4c 00000000 		.4byte	.LBI79
 1876 0a50 03       		.byte	.LVU61
 1877 0a51 A0000000 		.4byte	.Ldebug_ranges0+0xa0
 1878 0a55 01       		.byte	0x1
 1879 0a56 7B       		.byte	0x7b
 1880 0a57 03       		.byte	0x3
 1881 0a58 900A0000 		.4byte	0xa90
ARM GAS  C:\Users\USER\AppData\Local\Temp\ccux1vpg.s 			page 34


 1882 0a5c 1E       		.uleb128 0x1e
 1883 0a5d 7C0D0000 		.4byte	0xd7c
 1884 0a61 00000000 		.4byte	.LBI80
 1885 0a65 05       		.byte	.LVU63
 1886 0a66 A8000000 		.4byte	.Ldebug_ranges0+0xa8
 1887 0a6a 03       		.byte	0x3
 1888 0a6b 5C01     		.2byte	0x15c
 1889 0a6d 03       		.byte	0x3
 1890 0a6e 1E       		.uleb128 0x1e
 1891 0a6f 860D0000 		.4byte	0xd86
 1892 0a73 00000000 		.4byte	.LBI81
 1893 0a77 07       		.byte	.LVU65
 1894 0a78 B0000000 		.4byte	.Ldebug_ranges0+0xb0
 1895 0a7c 04       		.byte	0x4
 1896 0a7d BF01     		.2byte	0x1bf
 1897 0a7f 03       		.byte	0x3
 1898 0a80 1F       		.uleb128 0x1f
 1899 0a81 940D0000 		.4byte	0xd94
 1900 0a85 C3000000 		.4byte	.LLST7
 1901 0a89 C1000000 		.4byte	.LVUS7
 1902 0a8d 00       		.byte	0
 1903 0a8e 00       		.byte	0
 1904 0a8f 00       		.byte	0
 1905 0a90 20       		.uleb128 0x20
 1906 0a91 BD0C0000 		.4byte	0xcbd
 1907 0a95 0C000000 		.4byte	.LBI90
 1908 0a99 00       		.byte	.LVU74
 1909 0a9a 0C000000 		.4byte	.LBB90
 1910 0a9e 06000000 		.4byte	.LBE90-.LBB90
 1911 0aa2 01       		.byte	0x1
 1912 0aa3 7C       		.byte	0x7c
 1913 0aa4 08       		.byte	0x8
 1914 0aa5 B70A0000 		.4byte	0xab7
 1915 0aa9 1F       		.uleb128 0x1f
 1916 0aaa CE0C0000 		.4byte	0xcce
 1917 0aae DA000000 		.4byte	.LLST8
 1918 0ab2 D8000000 		.4byte	.LVUS8
 1919 0ab6 00       		.byte	0
 1920 0ab7 1D       		.uleb128 0x1d
 1921 0ab8 180D0000 		.4byte	0xd18
 1922 0abc 16000000 		.4byte	.LBI92
 1923 0ac0 01       		.byte	.LVU81
 1924 0ac1 C8000000 		.4byte	.Ldebug_ranges0+0xc8
 1925 0ac5 01       		.byte	0x1
 1926 0ac6 7F       		.byte	0x7f
 1927 0ac7 08       		.byte	0x8
 1928 0ac8 DD0A0000 		.4byte	0xadd
 1929 0acc 28       		.uleb128 0x28
 1930 0acd 2A0D0000 		.4byte	0xd2a
 1931 0ad1 24       		.uleb128 0x24
 1932 0ad2 C8000000 		.4byte	.Ldebug_ranges0+0xc8
 1933 0ad6 29       		.uleb128 0x29
 1934 0ad7 370D0000 		.4byte	0xd37
 1935 0adb 00       		.byte	0
 1936 0adc 00       		.byte	0
 1937 0add 1D       		.uleb128 0x1d
 1938 0ade E10C0000 		.4byte	0xce1
ARM GAS  C:\Users\USER\AppData\Local\Temp\ccux1vpg.s 			page 35


 1939 0ae2 22000000 		.4byte	.LBI96
 1940 0ae6 01       		.byte	.LVU95
 1941 0ae7 E0000000 		.4byte	.Ldebug_ranges0+0xe0
 1942 0aeb 01       		.byte	0x1
 1943 0aec 81       		.byte	0x81
 1944 0aed 03       		.byte	0x3
 1945 0aee 2C0B0000 		.4byte	0xb2c
 1946 0af2 24       		.uleb128 0x24
 1947 0af3 E0000000 		.4byte	.Ldebug_ranges0+0xe0
 1948 0af7 1E       		.uleb128 0x1e
 1949 0af8 720D0000 		.4byte	0xd72
 1950 0afc 22000000 		.4byte	.LBI98
 1951 0b00 07       		.byte	.LVU101
 1952 0b01 E0000000 		.4byte	.Ldebug_ranges0+0xe0
 1953 0b05 03       		.byte	0x3
 1954 0b06 7301     		.2byte	0x173
 1955 0b08 03       		.byte	0x3
 1956 0b09 1E       		.uleb128 0x1e
 1957 0b0a 860D0000 		.4byte	0xd86
 1958 0b0e 22000000 		.4byte	.LBI99
 1959 0b12 09       		.byte	.LVU103
 1960 0b13 00010000 		.4byte	.Ldebug_ranges0+0x100
 1961 0b17 04       		.byte	0x4
 1962 0b18 CD01     		.2byte	0x1cd
 1963 0b1a 03       		.byte	0x3
 1964 0b1b 1F       		.uleb128 0x1f
 1965 0b1c 940D0000 		.4byte	0xd94
 1966 0b20 EF000000 		.4byte	.LLST9
 1967 0b24 ED000000 		.4byte	.LVUS9
 1968 0b28 00       		.byte	0
 1969 0b29 00       		.byte	0
 1970 0b2a 00       		.byte	0
 1971 0b2b 00       		.byte	0
 1972 0b2c 21       		.uleb128 0x21
 1973 0b2d 2E000000 		.4byte	.LVL21
 1974 0b31 AF0D0000 		.4byte	0xdaf
 1975 0b35 22       		.uleb128 0x22
 1976 0b36 01       		.uleb128 0x1
 1977 0b37 50       		.byte	0x50
 1978 0b38 01       		.uleb128 0x1
 1979 0b39 3E       		.byte	0x3e
 1980 0b3a 00       		.byte	0
 1981 0b3b 00       		.byte	0
 1982 0b3c 26       		.uleb128 0x26
 1983 0b3d 88010000 		.4byte	.LASF128
 1984 0b41 01       		.byte	0x1
 1985 0b42 57       		.byte	0x57
 1986 0b43 07       		.byte	0x7
 1987 0b44 30010000 		.4byte	0x130
 1988 0b48 00000000 		.4byte	.LFB219
 1989 0b4c 40000000 		.4byte	.LFE219-.LFB219
 1990 0b50 01       		.uleb128 0x1
 1991 0b51 9C       		.byte	0x9c
 1992 0b52 830C0000 		.4byte	0xc83
 1993 0b56 1B       		.uleb128 0x1b
 1994 0b57 747000   		.ascii	"tp\000"
 1995 0b5a 01       		.byte	0x1
ARM GAS  C:\Users\USER\AppData\Local\Temp\ccux1vpg.s 			page 36


 1996 0b5b 57       		.byte	0x57
 1997 0b5c 1B       		.byte	0x1b
 1998 0b5d 97020000 		.4byte	0x297
 1999 0b61 0B010000 		.4byte	.LLST0
 2000 0b65 03010000 		.4byte	.LVUS0
 2001 0b69 1B       		.uleb128 0x1b
 2002 0b6a 6D736700 		.ascii	"msg\000"
 2003 0b6e 01       		.byte	0x1
 2004 0b6f 57       		.byte	0x57
 2005 0b70 25       		.byte	0x25
 2006 0b71 30010000 		.4byte	0x130
 2007 0b75 51010000 		.4byte	.LLST1
 2008 0b79 45010000 		.4byte	.LVUS1
 2009 0b7d 2A       		.uleb128 0x2a
 2010 0b7e 63747000 		.ascii	"ctp\000"
 2011 0b82 01       		.byte	0x1
 2012 0b83 58       		.byte	0x58
 2013 0b84 0D       		.byte	0xd
 2014 0b85 97020000 		.4byte	0x297
 2015 0b89 A5010000 		.4byte	.LLST2
 2016 0b8d A3010000 		.4byte	.LVUS2
 2017 0b91 1C       		.uleb128 0x1c
 2018 0b92 6A050000 		.4byte	.LASF129
 2019 0b96 930C0000 		.4byte	0xc93
 2020 0b9a 1D       		.uleb128 0x1d
 2021 0b9b 0E0D0000 		.4byte	0xd0e
 2022 0b9f 08000000 		.4byte	.LBI52
 2023 0ba3 03       		.byte	.LVU9
 2024 0ba4 00000000 		.4byte	.Ldebug_ranges0+0
 2025 0ba8 01       		.byte	0x1
 2026 0ba9 5C       		.byte	0x5c
 2027 0baa 03       		.byte	0x3
 2028 0bab E30B0000 		.4byte	0xbe3
 2029 0baf 1E       		.uleb128 0x1e
 2030 0bb0 7C0D0000 		.4byte	0xd7c
 2031 0bb4 08000000 		.4byte	.LBI53
 2032 0bb8 05       		.byte	.LVU11
 2033 0bb9 28000000 		.4byte	.Ldebug_ranges0+0x28
 2034 0bbd 03       		.byte	0x3
 2035 0bbe 5C01     		.2byte	0x15c
 2036 0bc0 03       		.byte	0x3
 2037 0bc1 1E       		.uleb128 0x1e
 2038 0bc2 860D0000 		.4byte	0xd86
 2039 0bc6 08000000 		.4byte	.LBI54
 2040 0bca 07       		.byte	.LVU13
 2041 0bcb 48000000 		.4byte	.Ldebug_ranges0+0x48
 2042 0bcf 04       		.byte	0x4
 2043 0bd0 BF01     		.2byte	0x1bf
 2044 0bd2 03       		.byte	0x3
 2045 0bd3 1F       		.uleb128 0x1f
 2046 0bd4 940D0000 		.4byte	0xd94
 2047 0bd8 BA010000 		.4byte	.LLST3
 2048 0bdc B8010000 		.4byte	.LVUS3
 2049 0be0 00       		.byte	0
 2050 0be1 00       		.byte	0
 2051 0be2 00       		.byte	0
 2052 0be3 1D       		.uleb128 0x1d
ARM GAS  C:\Users\USER\AppData\Local\Temp\ccux1vpg.s 			page 37


 2053 0be4 4A0D0000 		.4byte	0xd4a
 2054 0be8 18000000 		.4byte	.LBI63
 2055 0bec 01       		.byte	.LVU26
 2056 0bed 60000000 		.4byte	.Ldebug_ranges0+0x60
 2057 0bf1 01       		.byte	0x1
 2058 0bf2 5F       		.byte	0x5f
 2059 0bf3 03       		.byte	0x3
 2060 0bf4 130C0000 		.4byte	0xc13
 2061 0bf8 1F       		.uleb128 0x1f
 2062 0bf9 640D0000 		.4byte	0xd64
 2063 0bfd D1010000 		.4byte	.LLST4
 2064 0c01 CF010000 		.4byte	.LVUS4
 2065 0c05 1F       		.uleb128 0x1f
 2066 0c06 580D0000 		.4byte	0xd58
 2067 0c0a E6010000 		.4byte	.LLST5
 2068 0c0e E4010000 		.4byte	.LVUS5
 2069 0c12 00       		.byte	0
 2070 0c13 1D       		.uleb128 0x1d
 2071 0c14 E10C0000 		.4byte	0xce1
 2072 0c18 2C000000 		.4byte	.LBI71
 2073 0c1c 01       		.byte	.LVU42
 2074 0c1d 88000000 		.4byte	.Ldebug_ranges0+0x88
 2075 0c21 01       		.byte	0x1
 2076 0c22 65       		.byte	0x65
 2077 0c23 03       		.byte	0x3
 2078 0c24 660C0000 		.4byte	0xc66
 2079 0c28 24       		.uleb128 0x24
 2080 0c29 88000000 		.4byte	.Ldebug_ranges0+0x88
 2081 0c2d 1E       		.uleb128 0x1e
 2082 0c2e 720D0000 		.4byte	0xd72
 2083 0c32 2C000000 		.4byte	.LBI73
 2084 0c36 07       		.byte	.LVU48
 2085 0c37 88000000 		.4byte	.Ldebug_ranges0+0x88
 2086 0c3b 03       		.byte	0x3
 2087 0c3c 7301     		.2byte	0x173
 2088 0c3e 03       		.byte	0x3
 2089 0c3f 25       		.uleb128 0x25
 2090 0c40 860D0000 		.4byte	0xd86
 2091 0c44 2C000000 		.4byte	.LBI74
 2092 0c48 09       		.byte	.LVU50
 2093 0c49 2C000000 		.4byte	.LBB74
 2094 0c4d 06000000 		.4byte	.LBE74-.LBB74
 2095 0c51 04       		.byte	0x4
 2096 0c52 CD01     		.2byte	0x1cd
 2097 0c54 03       		.byte	0x3
 2098 0c55 1F       		.uleb128 0x1f
 2099 0c56 940D0000 		.4byte	0xd94
 2100 0c5a FB010000 		.4byte	.LLST6
 2101 0c5e F9010000 		.4byte	.LVUS6
 2102 0c62 00       		.byte	0
 2103 0c63 00       		.byte	0
 2104 0c64 00       		.byte	0
 2105 0c65 00       		.byte	0
 2106 0c66 2B       		.uleb128 0x2b
 2107 0c67 2A000000 		.4byte	.LVL7
 2108 0c6b AF0D0000 		.4byte	0xdaf
 2109 0c6f 790C0000 		.4byte	0xc79
ARM GAS  C:\Users\USER\AppData\Local\Temp\ccux1vpg.s 			page 38


 2110 0c73 22       		.uleb128 0x22
 2111 0c74 01       		.uleb128 0x1
 2112 0c75 50       		.byte	0x50
 2113 0c76 01       		.uleb128 0x1
 2114 0c77 3C       		.byte	0x3c
 2115 0c78 00       		.byte	0
 2116 0c79 2C       		.uleb128 0x2c
 2117 0c7a 38000000 		.4byte	.LVL11
 2118 0c7e BC0D0000 		.4byte	0xdbc
 2119 0c82 00       		.byte	0
 2120 0c83 17       		.uleb128 0x17
 2121 0c84 88070000 		.4byte	0x788
 2122 0c88 930C0000 		.4byte	0xc93
 2123 0c8c 18       		.uleb128 0x18
 2124 0c8d 2C000000 		.4byte	0x2c
 2125 0c91 09       		.byte	0x9
 2126 0c92 00       		.byte	0
 2127 0c93 16       		.uleb128 0x16
 2128 0c94 830C0000 		.4byte	0xc83
 2129 0c98 2D       		.uleb128 0x2d
 2130 0c99 6D070000 		.4byte	.LASF131
 2131 0c9d 06       		.byte	0x6
 2132 0c9e 6F       		.byte	0x6f
 2133 0c9f 14       		.byte	0x14
 2134 0ca0 03       		.byte	0x3
 2135 0ca1 BD0C0000 		.4byte	0xcbd
 2136 0ca5 2E       		.uleb128 0x2e
 2137 0ca6 747000   		.ascii	"tp\000"
 2138 0ca9 06       		.byte	0x6
 2139 0caa 6F       		.byte	0x6f
 2140 0cab 2C       		.byte	0x2c
 2141 0cac 97020000 		.4byte	0x297
 2142 0cb0 2E       		.uleb128 0x2e
 2143 0cb1 6D736700 		.ascii	"msg\000"
 2144 0cb5 06       		.byte	0x6
 2145 0cb6 6F       		.byte	0x6f
 2146 0cb7 36       		.byte	0x36
 2147 0cb8 30010000 		.4byte	0x130
 2148 0cbc 00       		.byte	0
 2149 0cbd 2F       		.uleb128 0x2f
 2150 0cbe A5010000 		.4byte	.LASF133
 2151 0cc2 06       		.byte	0x6
 2152 0cc3 4F       		.byte	0x4f
 2153 0cc4 14       		.byte	0x14
 2154 0cc5 DA0C0000 		.4byte	0xcda
 2155 0cc9 03       		.byte	0x3
 2156 0cca DA0C0000 		.4byte	0xcda
 2157 0cce 2E       		.uleb128 0x2e
 2158 0ccf 747000   		.ascii	"tp\000"
 2159 0cd2 06       		.byte	0x6
 2160 0cd3 4F       		.byte	0x4f
 2161 0cd4 2E       		.byte	0x2e
 2162 0cd5 97020000 		.4byte	0x297
 2163 0cd9 00       		.byte	0
 2164 0cda 03       		.uleb128 0x3
 2165 0cdb 01       		.byte	0x1
 2166 0cdc 02       		.byte	0x2
ARM GAS  C:\Users\USER\AppData\Local\Temp\ccux1vpg.s 			page 39


 2167 0cdd F4040000 		.4byte	.LASF130
 2168 0ce1 30       		.uleb128 0x30
 2169 0ce2 56070000 		.4byte	.LASF132
 2170 0ce6 03       		.byte	0x3
 2171 0ce7 6601     		.2byte	0x166
 2172 0ce9 14       		.byte	0x14
 2173 0cea 03       		.byte	0x3
 2174 0ceb F90C0000 		.4byte	0xcf9
 2175 0cef 1C       		.uleb128 0x1c
 2176 0cf0 6A050000 		.4byte	.LASF129
 2177 0cf4 090D0000 		.4byte	0xd09
 2178 0cf8 00       		.byte	0
 2179 0cf9 17       		.uleb128 0x17
 2180 0cfa 88070000 		.4byte	0x788
 2181 0cfe 090D0000 		.4byte	0xd09
 2182 0d02 18       		.uleb128 0x18
 2183 0d03 2C000000 		.4byte	0x2c
 2184 0d07 0B       		.byte	0xb
 2185 0d08 00       		.byte	0
 2186 0d09 16       		.uleb128 0x16
 2187 0d0a F90C0000 		.4byte	0xcf9
 2188 0d0e 31       		.uleb128 0x31
 2189 0d0f 73050000 		.4byte	.LASF136
 2190 0d13 03       		.byte	0x3
 2191 0d14 5A01     		.2byte	0x15a
 2192 0d16 14       		.byte	0x14
 2193 0d17 03       		.byte	0x3
 2194 0d18 32       		.uleb128 0x32
 2195 0d19 44060000 		.4byte	.LASF134
 2196 0d1d 05       		.byte	0x5
 2197 0d1e 9F02     		.2byte	0x29f
 2198 0d20 19       		.byte	0x19
 2199 0d21 97020000 		.4byte	0x297
 2200 0d25 03       		.byte	0x3
 2201 0d26 440D0000 		.4byte	0xd44
 2202 0d2a 33       		.uleb128 0x33
 2203 0d2b 74717000 		.ascii	"tqp\000"
 2204 0d2f 05       		.byte	0x5
 2205 0d30 9F02     		.2byte	0x29f
 2206 0d32 3C       		.byte	0x3c
 2207 0d33 440D0000 		.4byte	0xd44
 2208 0d37 34       		.uleb128 0x34
 2209 0d38 747000   		.ascii	"tp\000"
 2210 0d3b 05       		.byte	0x5
 2211 0d3c A002     		.2byte	0x2a0
 2212 0d3e 0D       		.byte	0xd
 2213 0d3f 97020000 		.4byte	0x297
 2214 0d43 00       		.byte	0
 2215 0d44 0A       		.uleb128 0xa
 2216 0d45 04       		.byte	0x4
 2217 0d46 C4020000 		.4byte	0x2c4
 2218 0d4a 30       		.uleb128 0x30
 2219 0d4b 1A000000 		.4byte	.LASF135
 2220 0d4f 05       		.byte	0x5
 2221 0d50 9702     		.2byte	0x297
 2222 0d52 14       		.byte	0x14
 2223 0d53 03       		.byte	0x3
ARM GAS  C:\Users\USER\AppData\Local\Temp\ccux1vpg.s 			page 40


 2224 0d54 720D0000 		.4byte	0xd72
 2225 0d58 33       		.uleb128 0x33
 2226 0d59 747000   		.ascii	"tp\000"
 2227 0d5c 05       		.byte	0x5
 2228 0d5d 9702     		.2byte	0x297
 2229 0d5f 2B       		.byte	0x2b
 2230 0d60 97020000 		.4byte	0x297
 2231 0d64 33       		.uleb128 0x33
 2232 0d65 74717000 		.ascii	"tqp\000"
 2233 0d69 05       		.byte	0x5
 2234 0d6a 9702     		.2byte	0x297
 2235 0d6c 40       		.byte	0x40
 2236 0d6d 440D0000 		.4byte	0xd44
 2237 0d71 00       		.byte	0
 2238 0d72 31       		.uleb128 0x31
 2239 0d73 5F010000 		.4byte	.LASF137
 2240 0d77 04       		.byte	0x4
 2241 0d78 CA01     		.2byte	0x1ca
 2242 0d7a 14       		.byte	0x14
 2243 0d7b 03       		.byte	0x3
 2244 0d7c 31       		.uleb128 0x31
 2245 0d7d 62000000 		.4byte	.LASF138
 2246 0d81 04       		.byte	0x4
 2247 0d82 BC01     		.2byte	0x1bc
 2248 0d84 14       		.byte	0x14
 2249 0d85 03       		.byte	0x3
 2250 0d86 30       		.uleb128 0x30
 2251 0d87 7F060000 		.4byte	.LASF139
 2252 0d8b 02       		.byte	0x2
 2253 0d8c 2002     		.2byte	0x220
 2254 0d8e 39       		.byte	0x39
 2255 0d8f 03       		.byte	0x3
 2256 0d90 A20D0000 		.4byte	0xda2
 2257 0d94 35       		.uleb128 0x35
 2258 0d95 14030000 		.4byte	.LASF140
 2259 0d99 02       		.byte	0x2
 2260 0d9a 2002     		.2byte	0x220
 2261 0d9c 50       		.byte	0x50
 2262 0d9d D0000000 		.4byte	0xd0
 2263 0da1 00       		.byte	0
 2264 0da2 36       		.uleb128 0x36
 2265 0da3 AB030000 		.4byte	.LASF141
 2266 0da7 AB030000 		.4byte	.LASF141
 2267 0dab 05       		.byte	0x5
 2268 0dac 1602     		.2byte	0x216
 2269 0dae 08       		.byte	0x8
 2270 0daf 36       		.uleb128 0x36
 2271 0db0 B8050000 		.4byte	.LASF142
 2272 0db4 B8050000 		.4byte	.LASF142
 2273 0db8 05       		.byte	0x5
 2274 0db9 1402     		.2byte	0x214
 2275 0dbb 08       		.byte	0x8
 2276 0dbc 36       		.uleb128 0x36
 2277 0dbd EE050000 		.4byte	.LASF143
 2278 0dc1 EE050000 		.4byte	.LASF143
 2279 0dc5 05       		.byte	0x5
 2280 0dc6 1302     		.2byte	0x213
ARM GAS  C:\Users\USER\AppData\Local\Temp\ccux1vpg.s 			page 41


 2281 0dc8 0D       		.byte	0xd
 2282 0dc9 00       		.byte	0
 2283              		.section	.debug_abbrev,"",%progbits
 2284              	.Ldebug_abbrev0:
 2285 0000 01       		.uleb128 0x1
 2286 0001 11       		.uleb128 0x11
 2287 0002 01       		.byte	0x1
 2288 0003 25       		.uleb128 0x25
 2289 0004 0E       		.uleb128 0xe
 2290 0005 13       		.uleb128 0x13
 2291 0006 0B       		.uleb128 0xb
 2292 0007 03       		.uleb128 0x3
 2293 0008 0E       		.uleb128 0xe
 2294 0009 1B       		.uleb128 0x1b
 2295 000a 0E       		.uleb128 0xe
 2296 000b 55       		.uleb128 0x55
 2297 000c 17       		.uleb128 0x17
 2298 000d 11       		.uleb128 0x11
 2299 000e 01       		.uleb128 0x1
 2300 000f 10       		.uleb128 0x10
 2301 0010 17       		.uleb128 0x17
 2302 0011 00       		.byte	0
 2303 0012 00       		.byte	0
 2304 0013 02       		.uleb128 0x2
 2305 0014 24       		.uleb128 0x24
 2306 0015 00       		.byte	0
 2307 0016 0B       		.uleb128 0xb
 2308 0017 0B       		.uleb128 0xb
 2309 0018 3E       		.uleb128 0x3e
 2310 0019 0B       		.uleb128 0xb
 2311 001a 03       		.uleb128 0x3
 2312 001b 08       		.uleb128 0x8
 2313 001c 00       		.byte	0
 2314 001d 00       		.byte	0
 2315 001e 03       		.uleb128 0x3
 2316 001f 24       		.uleb128 0x24
 2317 0020 00       		.byte	0
 2318 0021 0B       		.uleb128 0xb
 2319 0022 0B       		.uleb128 0xb
 2320 0023 3E       		.uleb128 0x3e
 2321 0024 0B       		.uleb128 0xb
 2322 0025 03       		.uleb128 0x3
 2323 0026 0E       		.uleb128 0xe
 2324 0027 00       		.byte	0
 2325 0028 00       		.byte	0
 2326 0029 04       		.uleb128 0x4
 2327 002a 16       		.uleb128 0x16
 2328 002b 00       		.byte	0
 2329 002c 03       		.uleb128 0x3
 2330 002d 0E       		.uleb128 0xe
 2331 002e 3A       		.uleb128 0x3a
 2332 002f 0B       		.uleb128 0xb
 2333 0030 3B       		.uleb128 0x3b
 2334 0031 0B       		.uleb128 0xb
 2335 0032 39       		.uleb128 0x39
 2336 0033 0B       		.uleb128 0xb
 2337 0034 49       		.uleb128 0x49
ARM GAS  C:\Users\USER\AppData\Local\Temp\ccux1vpg.s 			page 42


 2338 0035 13       		.uleb128 0x13
 2339 0036 00       		.byte	0
 2340 0037 00       		.byte	0
 2341 0038 05       		.uleb128 0x5
 2342 0039 35       		.uleb128 0x35
 2343 003a 00       		.byte	0
 2344 003b 49       		.uleb128 0x49
 2345 003c 13       		.uleb128 0x13
 2346 003d 00       		.byte	0
 2347 003e 00       		.byte	0
 2348 003f 06       		.uleb128 0x6
 2349 0040 13       		.uleb128 0x13
 2350 0041 01       		.byte	0x1
 2351 0042 03       		.uleb128 0x3
 2352 0043 0E       		.uleb128 0xe
 2353 0044 0B       		.uleb128 0xb
 2354 0045 0B       		.uleb128 0xb
 2355 0046 3A       		.uleb128 0x3a
 2356 0047 0B       		.uleb128 0xb
 2357 0048 3B       		.uleb128 0x3b
 2358 0049 0B       		.uleb128 0xb
 2359 004a 39       		.uleb128 0x39
 2360 004b 0B       		.uleb128 0xb
 2361 004c 01       		.uleb128 0x1
 2362 004d 13       		.uleb128 0x13
 2363 004e 00       		.byte	0
 2364 004f 00       		.byte	0
 2365 0050 07       		.uleb128 0x7
 2366 0051 0D       		.uleb128 0xd
 2367 0052 00       		.byte	0
 2368 0053 03       		.uleb128 0x3
 2369 0054 0E       		.uleb128 0xe
 2370 0055 3A       		.uleb128 0x3a
 2371 0056 0B       		.uleb128 0xb
 2372 0057 3B       		.uleb128 0x3b
 2373 0058 0B       		.uleb128 0xb
 2374 0059 39       		.uleb128 0x39
 2375 005a 0B       		.uleb128 0xb
 2376 005b 49       		.uleb128 0x49
 2377 005c 13       		.uleb128 0x13
 2378 005d 38       		.uleb128 0x38
 2379 005e 0B       		.uleb128 0xb
 2380 005f 00       		.byte	0
 2381 0060 00       		.byte	0
 2382 0061 08       		.uleb128 0x8
 2383 0062 0D       		.uleb128 0xd
 2384 0063 00       		.byte	0
 2385 0064 03       		.uleb128 0x3
 2386 0065 08       		.uleb128 0x8
 2387 0066 3A       		.uleb128 0x3a
 2388 0067 0B       		.uleb128 0xb
 2389 0068 3B       		.uleb128 0x3b
 2390 0069 05       		.uleb128 0x5
 2391 006a 39       		.uleb128 0x39
 2392 006b 0B       		.uleb128 0xb
 2393 006c 49       		.uleb128 0x49
 2394 006d 13       		.uleb128 0x13
ARM GAS  C:\Users\USER\AppData\Local\Temp\ccux1vpg.s 			page 43


 2395 006e 38       		.uleb128 0x38
 2396 006f 0B       		.uleb128 0xb
 2397 0070 00       		.byte	0
 2398 0071 00       		.byte	0
 2399 0072 09       		.uleb128 0x9
 2400 0073 0D       		.uleb128 0xd
 2401 0074 00       		.byte	0
 2402 0075 03       		.uleb128 0x3
 2403 0076 0E       		.uleb128 0xe
 2404 0077 3A       		.uleb128 0x3a
 2405 0078 0B       		.uleb128 0xb
 2406 0079 3B       		.uleb128 0x3b
 2407 007a 05       		.uleb128 0x5
 2408 007b 39       		.uleb128 0x39
 2409 007c 0B       		.uleb128 0xb
 2410 007d 49       		.uleb128 0x49
 2411 007e 13       		.uleb128 0x13
 2412 007f 38       		.uleb128 0x38
 2413 0080 0B       		.uleb128 0xb
 2414 0081 00       		.byte	0
 2415 0082 00       		.byte	0
 2416 0083 0A       		.uleb128 0xa
 2417 0084 0F       		.uleb128 0xf
 2418 0085 00       		.byte	0
 2419 0086 0B       		.uleb128 0xb
 2420 0087 0B       		.uleb128 0xb
 2421 0088 49       		.uleb128 0x49
 2422 0089 13       		.uleb128 0x13
 2423 008a 00       		.byte	0
 2424 008b 00       		.byte	0
 2425 008c 0B       		.uleb128 0xb
 2426 008d 13       		.uleb128 0x13
 2427 008e 01       		.byte	0x1
 2428 008f 03       		.uleb128 0x3
 2429 0090 0E       		.uleb128 0xe
 2430 0091 0B       		.uleb128 0xb
 2431 0092 0B       		.uleb128 0xb
 2432 0093 3A       		.uleb128 0x3a
 2433 0094 0B       		.uleb128 0xb
 2434 0095 3B       		.uleb128 0x3b
 2435 0096 05       		.uleb128 0x5
 2436 0097 39       		.uleb128 0x39
 2437 0098 0B       		.uleb128 0xb
 2438 0099 01       		.uleb128 0x1
 2439 009a 13       		.uleb128 0x13
 2440 009b 00       		.byte	0
 2441 009c 00       		.byte	0
 2442 009d 0C       		.uleb128 0xc
 2443 009e 15       		.uleb128 0x15
 2444 009f 01       		.byte	0x1
 2445 00a0 27       		.uleb128 0x27
 2446 00a1 19       		.uleb128 0x19
 2447 00a2 01       		.uleb128 0x1
 2448 00a3 13       		.uleb128 0x13
 2449 00a4 00       		.byte	0
 2450 00a5 00       		.byte	0
 2451 00a6 0D       		.uleb128 0xd
ARM GAS  C:\Users\USER\AppData\Local\Temp\ccux1vpg.s 			page 44


 2452 00a7 05       		.uleb128 0x5
 2453 00a8 00       		.byte	0
 2454 00a9 49       		.uleb128 0x49
 2455 00aa 13       		.uleb128 0x13
 2456 00ab 00       		.byte	0
 2457 00ac 00       		.byte	0
 2458 00ad 0E       		.uleb128 0xe
 2459 00ae 0F       		.uleb128 0xf
 2460 00af 00       		.byte	0
 2461 00b0 0B       		.uleb128 0xb
 2462 00b1 0B       		.uleb128 0xb
 2463 00b2 00       		.byte	0
 2464 00b3 00       		.byte	0
 2465 00b4 0F       		.uleb128 0xf
 2466 00b5 13       		.uleb128 0x13
 2467 00b6 01       		.byte	0x1
 2468 00b7 03       		.uleb128 0x3
 2469 00b8 0E       		.uleb128 0xe
 2470 00b9 0B       		.uleb128 0xb
 2471 00ba 05       		.uleb128 0x5
 2472 00bb 3A       		.uleb128 0x3a
 2473 00bc 0B       		.uleb128 0xb
 2474 00bd 3B       		.uleb128 0x3b
 2475 00be 05       		.uleb128 0x5
 2476 00bf 39       		.uleb128 0x39
 2477 00c0 0B       		.uleb128 0xb
 2478 00c1 01       		.uleb128 0x1
 2479 00c2 13       		.uleb128 0x13
 2480 00c3 00       		.byte	0
 2481 00c4 00       		.byte	0
 2482 00c5 10       		.uleb128 0x10
 2483 00c6 34       		.uleb128 0x34
 2484 00c7 00       		.byte	0
 2485 00c8 03       		.uleb128 0x3
 2486 00c9 0E       		.uleb128 0xe
 2487 00ca 3A       		.uleb128 0x3a
 2488 00cb 0B       		.uleb128 0xb
 2489 00cc 3B       		.uleb128 0x3b
 2490 00cd 05       		.uleb128 0x5
 2491 00ce 39       		.uleb128 0x39
 2492 00cf 0B       		.uleb128 0xb
 2493 00d0 49       		.uleb128 0x49
 2494 00d1 13       		.uleb128 0x13
 2495 00d2 3F       		.uleb128 0x3f
 2496 00d3 19       		.uleb128 0x19
 2497 00d4 3C       		.uleb128 0x3c
 2498 00d5 19       		.uleb128 0x19
 2499 00d6 00       		.byte	0
 2500 00d7 00       		.byte	0
 2501 00d8 11       		.uleb128 0x11
 2502 00d9 34       		.uleb128 0x34
 2503 00da 00       		.byte	0
 2504 00db 03       		.uleb128 0x3
 2505 00dc 0E       		.uleb128 0xe
 2506 00dd 3A       		.uleb128 0x3a
 2507 00de 0B       		.uleb128 0xb
 2508 00df 3B       		.uleb128 0x3b
ARM GAS  C:\Users\USER\AppData\Local\Temp\ccux1vpg.s 			page 45


 2509 00e0 0B       		.uleb128 0xb
 2510 00e1 39       		.uleb128 0x39
 2511 00e2 0B       		.uleb128 0xb
 2512 00e3 49       		.uleb128 0x49
 2513 00e4 13       		.uleb128 0x13
 2514 00e5 3F       		.uleb128 0x3f
 2515 00e6 19       		.uleb128 0x19
 2516 00e7 3C       		.uleb128 0x3c
 2517 00e8 19       		.uleb128 0x19
 2518 00e9 00       		.byte	0
 2519 00ea 00       		.byte	0
 2520 00eb 12       		.uleb128 0x12
 2521 00ec 0D       		.uleb128 0xd
 2522 00ed 00       		.byte	0
 2523 00ee 03       		.uleb128 0x3
 2524 00ef 08       		.uleb128 0x8
 2525 00f0 3A       		.uleb128 0x3a
 2526 00f1 0B       		.uleb128 0xb
 2527 00f2 3B       		.uleb128 0x3b
 2528 00f3 0B       		.uleb128 0xb
 2529 00f4 39       		.uleb128 0x39
 2530 00f5 0B       		.uleb128 0xb
 2531 00f6 49       		.uleb128 0x49
 2532 00f7 13       		.uleb128 0x13
 2533 00f8 38       		.uleb128 0x38
 2534 00f9 0B       		.uleb128 0xb
 2535 00fa 00       		.byte	0
 2536 00fb 00       		.byte	0
 2537 00fc 13       		.uleb128 0x13
 2538 00fd 13       		.uleb128 0x13
 2539 00fe 01       		.byte	0x1
 2540 00ff 0B       		.uleb128 0xb
 2541 0100 0B       		.uleb128 0xb
 2542 0101 3A       		.uleb128 0x3a
 2543 0102 0B       		.uleb128 0xb
 2544 0103 3B       		.uleb128 0x3b
 2545 0104 0B       		.uleb128 0xb
 2546 0105 39       		.uleb128 0x39
 2547 0106 0B       		.uleb128 0xb
 2548 0107 01       		.uleb128 0x1
 2549 0108 13       		.uleb128 0x13
 2550 0109 00       		.byte	0
 2551 010a 00       		.byte	0
 2552 010b 14       		.uleb128 0x14
 2553 010c 17       		.uleb128 0x17
 2554 010d 01       		.byte	0x1
 2555 010e 0B       		.uleb128 0xb
 2556 010f 0B       		.uleb128 0xb
 2557 0110 3A       		.uleb128 0x3a
 2558 0111 0B       		.uleb128 0xb
 2559 0112 3B       		.uleb128 0x3b
 2560 0113 0B       		.uleb128 0xb
 2561 0114 39       		.uleb128 0x39
 2562 0115 0B       		.uleb128 0xb
 2563 0116 01       		.uleb128 0x1
 2564 0117 13       		.uleb128 0x13
 2565 0118 00       		.byte	0
ARM GAS  C:\Users\USER\AppData\Local\Temp\ccux1vpg.s 			page 46


 2566 0119 00       		.byte	0
 2567 011a 15       		.uleb128 0x15
 2568 011b 0D       		.uleb128 0xd
 2569 011c 00       		.byte	0
 2570 011d 03       		.uleb128 0x3
 2571 011e 0E       		.uleb128 0xe
 2572 011f 3A       		.uleb128 0x3a
 2573 0120 0B       		.uleb128 0xb
 2574 0121 3B       		.uleb128 0x3b
 2575 0122 05       		.uleb128 0x5
 2576 0123 39       		.uleb128 0x39
 2577 0124 0B       		.uleb128 0xb
 2578 0125 49       		.uleb128 0x49
 2579 0126 13       		.uleb128 0x13
 2580 0127 00       		.byte	0
 2581 0128 00       		.byte	0
 2582 0129 16       		.uleb128 0x16
 2583 012a 26       		.uleb128 0x26
 2584 012b 00       		.byte	0
 2585 012c 49       		.uleb128 0x49
 2586 012d 13       		.uleb128 0x13
 2587 012e 00       		.byte	0
 2588 012f 00       		.byte	0
 2589 0130 17       		.uleb128 0x17
 2590 0131 01       		.uleb128 0x1
 2591 0132 01       		.byte	0x1
 2592 0133 49       		.uleb128 0x49
 2593 0134 13       		.uleb128 0x13
 2594 0135 01       		.uleb128 0x1
 2595 0136 13       		.uleb128 0x13
 2596 0137 00       		.byte	0
 2597 0138 00       		.byte	0
 2598 0139 18       		.uleb128 0x18
 2599 013a 21       		.uleb128 0x21
 2600 013b 00       		.byte	0
 2601 013c 49       		.uleb128 0x49
 2602 013d 13       		.uleb128 0x13
 2603 013e 2F       		.uleb128 0x2f
 2604 013f 0B       		.uleb128 0xb
 2605 0140 00       		.byte	0
 2606 0141 00       		.byte	0
 2607 0142 19       		.uleb128 0x19
 2608 0143 34       		.uleb128 0x34
 2609 0144 00       		.byte	0
 2610 0145 03       		.uleb128 0x3
 2611 0146 08       		.uleb128 0x8
 2612 0147 3A       		.uleb128 0x3a
 2613 0148 0B       		.uleb128 0xb
 2614 0149 3B       		.uleb128 0x3b
 2615 014a 05       		.uleb128 0x5
 2616 014b 39       		.uleb128 0x39
 2617 014c 0B       		.uleb128 0xb
 2618 014d 49       		.uleb128 0x49
 2619 014e 13       		.uleb128 0x13
 2620 014f 3F       		.uleb128 0x3f
 2621 0150 19       		.uleb128 0x19
 2622 0151 3C       		.uleb128 0x3c
ARM GAS  C:\Users\USER\AppData\Local\Temp\ccux1vpg.s 			page 47


 2623 0152 19       		.uleb128 0x19
 2624 0153 00       		.byte	0
 2625 0154 00       		.byte	0
 2626 0155 1A       		.uleb128 0x1a
 2627 0156 2E       		.uleb128 0x2e
 2628 0157 01       		.byte	0x1
 2629 0158 3F       		.uleb128 0x3f
 2630 0159 19       		.uleb128 0x19
 2631 015a 03       		.uleb128 0x3
 2632 015b 0E       		.uleb128 0xe
 2633 015c 3A       		.uleb128 0x3a
 2634 015d 0B       		.uleb128 0xb
 2635 015e 3B       		.uleb128 0x3b
 2636 015f 0B       		.uleb128 0xb
 2637 0160 39       		.uleb128 0x39
 2638 0161 0B       		.uleb128 0xb
 2639 0162 27       		.uleb128 0x27
 2640 0163 19       		.uleb128 0x19
 2641 0164 11       		.uleb128 0x11
 2642 0165 01       		.uleb128 0x1
 2643 0166 12       		.uleb128 0x12
 2644 0167 06       		.uleb128 0x6
 2645 0168 40       		.uleb128 0x40
 2646 0169 18       		.uleb128 0x18
 2647 016a 9742     		.uleb128 0x2117
 2648 016c 19       		.uleb128 0x19
 2649 016d 01       		.uleb128 0x1
 2650 016e 13       		.uleb128 0x13
 2651 016f 00       		.byte	0
 2652 0170 00       		.byte	0
 2653 0171 1B       		.uleb128 0x1b
 2654 0172 05       		.uleb128 0x5
 2655 0173 00       		.byte	0
 2656 0174 03       		.uleb128 0x3
 2657 0175 08       		.uleb128 0x8
 2658 0176 3A       		.uleb128 0x3a
 2659 0177 0B       		.uleb128 0xb
 2660 0178 3B       		.uleb128 0x3b
 2661 0179 0B       		.uleb128 0xb
 2662 017a 39       		.uleb128 0x39
 2663 017b 0B       		.uleb128 0xb
 2664 017c 49       		.uleb128 0x49
 2665 017d 13       		.uleb128 0x13
 2666 017e 02       		.uleb128 0x2
 2667 017f 17       		.uleb128 0x17
 2668 0180 B742     		.uleb128 0x2137
 2669 0182 17       		.uleb128 0x17
 2670 0183 00       		.byte	0
 2671 0184 00       		.byte	0
 2672 0185 1C       		.uleb128 0x1c
 2673 0186 34       		.uleb128 0x34
 2674 0187 00       		.byte	0
 2675 0188 03       		.uleb128 0x3
 2676 0189 0E       		.uleb128 0xe
 2677 018a 49       		.uleb128 0x49
 2678 018b 13       		.uleb128 0x13
 2679 018c 34       		.uleb128 0x34
ARM GAS  C:\Users\USER\AppData\Local\Temp\ccux1vpg.s 			page 48


 2680 018d 19       		.uleb128 0x19
 2681 018e 00       		.byte	0
 2682 018f 00       		.byte	0
 2683 0190 1D       		.uleb128 0x1d
 2684 0191 1D       		.uleb128 0x1d
 2685 0192 01       		.byte	0x1
 2686 0193 31       		.uleb128 0x31
 2687 0194 13       		.uleb128 0x13
 2688 0195 52       		.uleb128 0x52
 2689 0196 01       		.uleb128 0x1
 2690 0197 B842     		.uleb128 0x2138
 2691 0199 0B       		.uleb128 0xb
 2692 019a 55       		.uleb128 0x55
 2693 019b 17       		.uleb128 0x17
 2694 019c 58       		.uleb128 0x58
 2695 019d 0B       		.uleb128 0xb
 2696 019e 59       		.uleb128 0x59
 2697 019f 0B       		.uleb128 0xb
 2698 01a0 57       		.uleb128 0x57
 2699 01a1 0B       		.uleb128 0xb
 2700 01a2 01       		.uleb128 0x1
 2701 01a3 13       		.uleb128 0x13
 2702 01a4 00       		.byte	0
 2703 01a5 00       		.byte	0
 2704 01a6 1E       		.uleb128 0x1e
 2705 01a7 1D       		.uleb128 0x1d
 2706 01a8 01       		.byte	0x1
 2707 01a9 31       		.uleb128 0x31
 2708 01aa 13       		.uleb128 0x13
 2709 01ab 52       		.uleb128 0x52
 2710 01ac 01       		.uleb128 0x1
 2711 01ad B842     		.uleb128 0x2138
 2712 01af 0B       		.uleb128 0xb
 2713 01b0 55       		.uleb128 0x55
 2714 01b1 17       		.uleb128 0x17
 2715 01b2 58       		.uleb128 0x58
 2716 01b3 0B       		.uleb128 0xb
 2717 01b4 59       		.uleb128 0x59
 2718 01b5 05       		.uleb128 0x5
 2719 01b6 57       		.uleb128 0x57
 2720 01b7 0B       		.uleb128 0xb
 2721 01b8 00       		.byte	0
 2722 01b9 00       		.byte	0
 2723 01ba 1F       		.uleb128 0x1f
 2724 01bb 05       		.uleb128 0x5
 2725 01bc 00       		.byte	0
 2726 01bd 31       		.uleb128 0x31
 2727 01be 13       		.uleb128 0x13
 2728 01bf 02       		.uleb128 0x2
 2729 01c0 17       		.uleb128 0x17
 2730 01c1 B742     		.uleb128 0x2137
 2731 01c3 17       		.uleb128 0x17
 2732 01c4 00       		.byte	0
 2733 01c5 00       		.byte	0
 2734 01c6 20       		.uleb128 0x20
 2735 01c7 1D       		.uleb128 0x1d
 2736 01c8 01       		.byte	0x1
ARM GAS  C:\Users\USER\AppData\Local\Temp\ccux1vpg.s 			page 49


 2737 01c9 31       		.uleb128 0x31
 2738 01ca 13       		.uleb128 0x13
 2739 01cb 52       		.uleb128 0x52
 2740 01cc 01       		.uleb128 0x1
 2741 01cd B842     		.uleb128 0x2138
 2742 01cf 0B       		.uleb128 0xb
 2743 01d0 11       		.uleb128 0x11
 2744 01d1 01       		.uleb128 0x1
 2745 01d2 12       		.uleb128 0x12
 2746 01d3 06       		.uleb128 0x6
 2747 01d4 58       		.uleb128 0x58
 2748 01d5 0B       		.uleb128 0xb
 2749 01d6 59       		.uleb128 0x59
 2750 01d7 0B       		.uleb128 0xb
 2751 01d8 57       		.uleb128 0x57
 2752 01d9 0B       		.uleb128 0xb
 2753 01da 01       		.uleb128 0x1
 2754 01db 13       		.uleb128 0x13
 2755 01dc 00       		.byte	0
 2756 01dd 00       		.byte	0
 2757 01de 21       		.uleb128 0x21
 2758 01df 898201   		.uleb128 0x4109
 2759 01e2 01       		.byte	0x1
 2760 01e3 11       		.uleb128 0x11
 2761 01e4 01       		.uleb128 0x1
 2762 01e5 31       		.uleb128 0x31
 2763 01e6 13       		.uleb128 0x13
 2764 01e7 00       		.byte	0
 2765 01e8 00       		.byte	0
 2766 01e9 22       		.uleb128 0x22
 2767 01ea 8A8201   		.uleb128 0x410a
 2768 01ed 00       		.byte	0
 2769 01ee 02       		.uleb128 0x2
 2770 01ef 18       		.uleb128 0x18
 2771 01f0 9142     		.uleb128 0x2111
 2772 01f2 18       		.uleb128 0x18
 2773 01f3 00       		.byte	0
 2774 01f4 00       		.byte	0
 2775 01f5 23       		.uleb128 0x23
 2776 01f6 1D       		.uleb128 0x1d
 2777 01f7 01       		.byte	0x1
 2778 01f8 31       		.uleb128 0x31
 2779 01f9 13       		.uleb128 0x13
 2780 01fa 52       		.uleb128 0x52
 2781 01fb 01       		.uleb128 0x1
 2782 01fc B842     		.uleb128 0x2138
 2783 01fe 0B       		.uleb128 0xb
 2784 01ff 55       		.uleb128 0x55
 2785 0200 17       		.uleb128 0x17
 2786 0201 58       		.uleb128 0x58
 2787 0202 0B       		.uleb128 0xb
 2788 0203 59       		.uleb128 0x59
 2789 0204 0B       		.uleb128 0xb
 2790 0205 57       		.uleb128 0x57
 2791 0206 0B       		.uleb128 0xb
 2792 0207 00       		.byte	0
 2793 0208 00       		.byte	0
ARM GAS  C:\Users\USER\AppData\Local\Temp\ccux1vpg.s 			page 50


 2794 0209 24       		.uleb128 0x24
 2795 020a 0B       		.uleb128 0xb
 2796 020b 01       		.byte	0x1
 2797 020c 55       		.uleb128 0x55
 2798 020d 17       		.uleb128 0x17
 2799 020e 00       		.byte	0
 2800 020f 00       		.byte	0
 2801 0210 25       		.uleb128 0x25
 2802 0211 1D       		.uleb128 0x1d
 2803 0212 01       		.byte	0x1
 2804 0213 31       		.uleb128 0x31
 2805 0214 13       		.uleb128 0x13
 2806 0215 52       		.uleb128 0x52
 2807 0216 01       		.uleb128 0x1
 2808 0217 B842     		.uleb128 0x2138
 2809 0219 0B       		.uleb128 0xb
 2810 021a 11       		.uleb128 0x11
 2811 021b 01       		.uleb128 0x1
 2812 021c 12       		.uleb128 0x12
 2813 021d 06       		.uleb128 0x6
 2814 021e 58       		.uleb128 0x58
 2815 021f 0B       		.uleb128 0xb
 2816 0220 59       		.uleb128 0x59
 2817 0221 05       		.uleb128 0x5
 2818 0222 57       		.uleb128 0x57
 2819 0223 0B       		.uleb128 0xb
 2820 0224 00       		.byte	0
 2821 0225 00       		.byte	0
 2822 0226 26       		.uleb128 0x26
 2823 0227 2E       		.uleb128 0x2e
 2824 0228 01       		.byte	0x1
 2825 0229 3F       		.uleb128 0x3f
 2826 022a 19       		.uleb128 0x19
 2827 022b 03       		.uleb128 0x3
 2828 022c 0E       		.uleb128 0xe
 2829 022d 3A       		.uleb128 0x3a
 2830 022e 0B       		.uleb128 0xb
 2831 022f 3B       		.uleb128 0x3b
 2832 0230 0B       		.uleb128 0xb
 2833 0231 39       		.uleb128 0x39
 2834 0232 0B       		.uleb128 0xb
 2835 0233 27       		.uleb128 0x27
 2836 0234 19       		.uleb128 0x19
 2837 0235 49       		.uleb128 0x49
 2838 0236 13       		.uleb128 0x13
 2839 0237 11       		.uleb128 0x11
 2840 0238 01       		.uleb128 0x1
 2841 0239 12       		.uleb128 0x12
 2842 023a 06       		.uleb128 0x6
 2843 023b 40       		.uleb128 0x40
 2844 023c 18       		.uleb128 0x18
 2845 023d 9742     		.uleb128 0x2117
 2846 023f 19       		.uleb128 0x19
 2847 0240 01       		.uleb128 0x1
 2848 0241 13       		.uleb128 0x13
 2849 0242 00       		.byte	0
 2850 0243 00       		.byte	0
ARM GAS  C:\Users\USER\AppData\Local\Temp\ccux1vpg.s 			page 51


 2851 0244 27       		.uleb128 0x27
 2852 0245 34       		.uleb128 0x34
 2853 0246 00       		.byte	0
 2854 0247 03       		.uleb128 0x3
 2855 0248 08       		.uleb128 0x8
 2856 0249 3A       		.uleb128 0x3a
 2857 024a 0B       		.uleb128 0xb
 2858 024b 3B       		.uleb128 0x3b
 2859 024c 0B       		.uleb128 0xb
 2860 024d 39       		.uleb128 0x39
 2861 024e 0B       		.uleb128 0xb
 2862 024f 49       		.uleb128 0x49
 2863 0250 13       		.uleb128 0x13
 2864 0251 00       		.byte	0
 2865 0252 00       		.byte	0
 2866 0253 28       		.uleb128 0x28
 2867 0254 05       		.uleb128 0x5
 2868 0255 00       		.byte	0
 2869 0256 31       		.uleb128 0x31
 2870 0257 13       		.uleb128 0x13
 2871 0258 00       		.byte	0
 2872 0259 00       		.byte	0
 2873 025a 29       		.uleb128 0x29
 2874 025b 34       		.uleb128 0x34
 2875 025c 00       		.byte	0
 2876 025d 31       		.uleb128 0x31
 2877 025e 13       		.uleb128 0x13
 2878 025f 00       		.byte	0
 2879 0260 00       		.byte	0
 2880 0261 2A       		.uleb128 0x2a
 2881 0262 34       		.uleb128 0x34
 2882 0263 00       		.byte	0
 2883 0264 03       		.uleb128 0x3
 2884 0265 08       		.uleb128 0x8
 2885 0266 3A       		.uleb128 0x3a
 2886 0267 0B       		.uleb128 0xb
 2887 0268 3B       		.uleb128 0x3b
 2888 0269 0B       		.uleb128 0xb
 2889 026a 39       		.uleb128 0x39
 2890 026b 0B       		.uleb128 0xb
 2891 026c 49       		.uleb128 0x49
 2892 026d 13       		.uleb128 0x13
 2893 026e 02       		.uleb128 0x2
 2894 026f 17       		.uleb128 0x17
 2895 0270 B742     		.uleb128 0x2137
 2896 0272 17       		.uleb128 0x17
 2897 0273 00       		.byte	0
 2898 0274 00       		.byte	0
 2899 0275 2B       		.uleb128 0x2b
 2900 0276 898201   		.uleb128 0x4109
 2901 0279 01       		.byte	0x1
 2902 027a 11       		.uleb128 0x11
 2903 027b 01       		.uleb128 0x1
 2904 027c 31       		.uleb128 0x31
 2905 027d 13       		.uleb128 0x13
 2906 027e 01       		.uleb128 0x1
 2907 027f 13       		.uleb128 0x13
ARM GAS  C:\Users\USER\AppData\Local\Temp\ccux1vpg.s 			page 52


 2908 0280 00       		.byte	0
 2909 0281 00       		.byte	0
 2910 0282 2C       		.uleb128 0x2c
 2911 0283 898201   		.uleb128 0x4109
 2912 0286 00       		.byte	0
 2913 0287 11       		.uleb128 0x11
 2914 0288 01       		.uleb128 0x1
 2915 0289 31       		.uleb128 0x31
 2916 028a 13       		.uleb128 0x13
 2917 028b 00       		.byte	0
 2918 028c 00       		.byte	0
 2919 028d 2D       		.uleb128 0x2d
 2920 028e 2E       		.uleb128 0x2e
 2921 028f 01       		.byte	0x1
 2922 0290 03       		.uleb128 0x3
 2923 0291 0E       		.uleb128 0xe
 2924 0292 3A       		.uleb128 0x3a
 2925 0293 0B       		.uleb128 0xb
 2926 0294 3B       		.uleb128 0x3b
 2927 0295 0B       		.uleb128 0xb
 2928 0296 39       		.uleb128 0x39
 2929 0297 0B       		.uleb128 0xb
 2930 0298 27       		.uleb128 0x27
 2931 0299 19       		.uleb128 0x19
 2932 029a 20       		.uleb128 0x20
 2933 029b 0B       		.uleb128 0xb
 2934 029c 01       		.uleb128 0x1
 2935 029d 13       		.uleb128 0x13
 2936 029e 00       		.byte	0
 2937 029f 00       		.byte	0
 2938 02a0 2E       		.uleb128 0x2e
 2939 02a1 05       		.uleb128 0x5
 2940 02a2 00       		.byte	0
 2941 02a3 03       		.uleb128 0x3
 2942 02a4 08       		.uleb128 0x8
 2943 02a5 3A       		.uleb128 0x3a
 2944 02a6 0B       		.uleb128 0xb
 2945 02a7 3B       		.uleb128 0x3b
 2946 02a8 0B       		.uleb128 0xb
 2947 02a9 39       		.uleb128 0x39
 2948 02aa 0B       		.uleb128 0xb
 2949 02ab 49       		.uleb128 0x49
 2950 02ac 13       		.uleb128 0x13
 2951 02ad 00       		.byte	0
 2952 02ae 00       		.byte	0
 2953 02af 2F       		.uleb128 0x2f
 2954 02b0 2E       		.uleb128 0x2e
 2955 02b1 01       		.byte	0x1
 2956 02b2 03       		.uleb128 0x3
 2957 02b3 0E       		.uleb128 0xe
 2958 02b4 3A       		.uleb128 0x3a
 2959 02b5 0B       		.uleb128 0xb
 2960 02b6 3B       		.uleb128 0x3b
 2961 02b7 0B       		.uleb128 0xb
 2962 02b8 39       		.uleb128 0x39
 2963 02b9 0B       		.uleb128 0xb
 2964 02ba 27       		.uleb128 0x27
ARM GAS  C:\Users\USER\AppData\Local\Temp\ccux1vpg.s 			page 53


 2965 02bb 19       		.uleb128 0x19
 2966 02bc 49       		.uleb128 0x49
 2967 02bd 13       		.uleb128 0x13
 2968 02be 20       		.uleb128 0x20
 2969 02bf 0B       		.uleb128 0xb
 2970 02c0 01       		.uleb128 0x1
 2971 02c1 13       		.uleb128 0x13
 2972 02c2 00       		.byte	0
 2973 02c3 00       		.byte	0
 2974 02c4 30       		.uleb128 0x30
 2975 02c5 2E       		.uleb128 0x2e
 2976 02c6 01       		.byte	0x1
 2977 02c7 03       		.uleb128 0x3
 2978 02c8 0E       		.uleb128 0xe
 2979 02c9 3A       		.uleb128 0x3a
 2980 02ca 0B       		.uleb128 0xb
 2981 02cb 3B       		.uleb128 0x3b
 2982 02cc 05       		.uleb128 0x5
 2983 02cd 39       		.uleb128 0x39
 2984 02ce 0B       		.uleb128 0xb
 2985 02cf 27       		.uleb128 0x27
 2986 02d0 19       		.uleb128 0x19
 2987 02d1 20       		.uleb128 0x20
 2988 02d2 0B       		.uleb128 0xb
 2989 02d3 01       		.uleb128 0x1
 2990 02d4 13       		.uleb128 0x13
 2991 02d5 00       		.byte	0
 2992 02d6 00       		.byte	0
 2993 02d7 31       		.uleb128 0x31
 2994 02d8 2E       		.uleb128 0x2e
 2995 02d9 00       		.byte	0
 2996 02da 03       		.uleb128 0x3
 2997 02db 0E       		.uleb128 0xe
 2998 02dc 3A       		.uleb128 0x3a
 2999 02dd 0B       		.uleb128 0xb
 3000 02de 3B       		.uleb128 0x3b
 3001 02df 05       		.uleb128 0x5
 3002 02e0 39       		.uleb128 0x39
 3003 02e1 0B       		.uleb128 0xb
 3004 02e2 27       		.uleb128 0x27
 3005 02e3 19       		.uleb128 0x19
 3006 02e4 20       		.uleb128 0x20
 3007 02e5 0B       		.uleb128 0xb
 3008 02e6 00       		.byte	0
 3009 02e7 00       		.byte	0
 3010 02e8 32       		.uleb128 0x32
 3011 02e9 2E       		.uleb128 0x2e
 3012 02ea 01       		.byte	0x1
 3013 02eb 03       		.uleb128 0x3
 3014 02ec 0E       		.uleb128 0xe
 3015 02ed 3A       		.uleb128 0x3a
 3016 02ee 0B       		.uleb128 0xb
 3017 02ef 3B       		.uleb128 0x3b
 3018 02f0 05       		.uleb128 0x5
 3019 02f1 39       		.uleb128 0x39
 3020 02f2 0B       		.uleb128 0xb
 3021 02f3 27       		.uleb128 0x27
ARM GAS  C:\Users\USER\AppData\Local\Temp\ccux1vpg.s 			page 54


 3022 02f4 19       		.uleb128 0x19
 3023 02f5 49       		.uleb128 0x49
 3024 02f6 13       		.uleb128 0x13
 3025 02f7 20       		.uleb128 0x20
 3026 02f8 0B       		.uleb128 0xb
 3027 02f9 01       		.uleb128 0x1
 3028 02fa 13       		.uleb128 0x13
 3029 02fb 00       		.byte	0
 3030 02fc 00       		.byte	0
 3031 02fd 33       		.uleb128 0x33
 3032 02fe 05       		.uleb128 0x5
 3033 02ff 00       		.byte	0
 3034 0300 03       		.uleb128 0x3
 3035 0301 08       		.uleb128 0x8
 3036 0302 3A       		.uleb128 0x3a
 3037 0303 0B       		.uleb128 0xb
 3038 0304 3B       		.uleb128 0x3b
 3039 0305 05       		.uleb128 0x5
 3040 0306 39       		.uleb128 0x39
 3041 0307 0B       		.uleb128 0xb
 3042 0308 49       		.uleb128 0x49
 3043 0309 13       		.uleb128 0x13
 3044 030a 00       		.byte	0
 3045 030b 00       		.byte	0
 3046 030c 34       		.uleb128 0x34
 3047 030d 34       		.uleb128 0x34
 3048 030e 00       		.byte	0
 3049 030f 03       		.uleb128 0x3
 3050 0310 08       		.uleb128 0x8
 3051 0311 3A       		.uleb128 0x3a
 3052 0312 0B       		.uleb128 0xb
 3053 0313 3B       		.uleb128 0x3b
 3054 0314 05       		.uleb128 0x5
 3055 0315 39       		.uleb128 0x39
 3056 0316 0B       		.uleb128 0xb
 3057 0317 49       		.uleb128 0x49
 3058 0318 13       		.uleb128 0x13
 3059 0319 00       		.byte	0
 3060 031a 00       		.byte	0
 3061 031b 35       		.uleb128 0x35
 3062 031c 05       		.uleb128 0x5
 3063 031d 00       		.byte	0
 3064 031e 03       		.uleb128 0x3
 3065 031f 0E       		.uleb128 0xe
 3066 0320 3A       		.uleb128 0x3a
 3067 0321 0B       		.uleb128 0xb
 3068 0322 3B       		.uleb128 0x3b
 3069 0323 05       		.uleb128 0x5
 3070 0324 39       		.uleb128 0x39
 3071 0325 0B       		.uleb128 0xb
 3072 0326 49       		.uleb128 0x49
 3073 0327 13       		.uleb128 0x13
 3074 0328 00       		.byte	0
 3075 0329 00       		.byte	0
 3076 032a 36       		.uleb128 0x36
 3077 032b 2E       		.uleb128 0x2e
 3078 032c 00       		.byte	0
ARM GAS  C:\Users\USER\AppData\Local\Temp\ccux1vpg.s 			page 55


 3079 032d 3F       		.uleb128 0x3f
 3080 032e 19       		.uleb128 0x19
 3081 032f 3C       		.uleb128 0x3c
 3082 0330 19       		.uleb128 0x19
 3083 0331 6E       		.uleb128 0x6e
 3084 0332 0E       		.uleb128 0xe
 3085 0333 03       		.uleb128 0x3
 3086 0334 0E       		.uleb128 0xe
 3087 0335 3A       		.uleb128 0x3a
 3088 0336 0B       		.uleb128 0xb
 3089 0337 3B       		.uleb128 0x3b
 3090 0338 05       		.uleb128 0x5
 3091 0339 39       		.uleb128 0x39
 3092 033a 0B       		.uleb128 0xb
 3093 033b 00       		.byte	0
 3094 033c 00       		.byte	0
 3095 033d 00       		.byte	0
 3096              		.section	.debug_loc,"",%progbits
 3097              	.Ldebug_loc0:
 3098              	.LVUS10:
 3099 0000 00       		.uleb128 0
 3100 0001 00       		.uleb128 .LVU128
 3101 0002 00       		.uleb128 .LVU128
 3102 0003 00       		.uleb128 0
 3103              	.LLST10:
 3104 0004 00000000 		.4byte	.LVL22
 3105 0008 0B000000 		.4byte	.LVL24-1
 3106 000c 0100     		.2byte	0x1
 3107 000e 50       		.byte	0x50
 3108 000f 0B000000 		.4byte	.LVL24-1
 3109 0013 14000000 		.4byte	.LFE221
 3110 0017 0400     		.2byte	0x4
 3111 0019 F3       		.byte	0xf3
 3112 001a 01       		.uleb128 0x1
 3113 001b 50       		.byte	0x50
 3114 001c 9F       		.byte	0x9f
 3115 001d 00000000 		.4byte	0
 3116 0021 00000000 		.4byte	0
 3117              	.LVUS11:
 3118 0025 00       		.uleb128 0
 3119 0026 00       		.uleb128 .LVU128
 3120 0027 00       		.uleb128 .LVU128
 3121 0028 00       		.uleb128 0
 3122              	.LLST11:
 3123 0029 00000000 		.4byte	.LVL22
 3124 002d 0B000000 		.4byte	.LVL24-1
 3125 0031 0100     		.2byte	0x1
 3126 0033 51       		.byte	0x51
 3127 0034 0B000000 		.4byte	.LVL24-1
 3128 0038 14000000 		.4byte	.LFE221
 3129 003c 0400     		.2byte	0x4
 3130 003e F3       		.byte	0xf3
 3131 003f 01       		.uleb128 0x1
 3132 0040 51       		.byte	0x51
 3133 0041 9F       		.byte	0x9f
 3134 0042 00000000 		.4byte	0
 3135 0046 00000000 		.4byte	0
ARM GAS  C:\Users\USER\AppData\Local\Temp\ccux1vpg.s 			page 56


 3136              	.LVUS12:
 3137 004a 06       		.uleb128 .LVU115
 3138 004b 00       		.uleb128 .LVU119
 3139              	.LLST12:
 3140 004c 00000000 		.4byte	.LVL22
 3141 0050 08000000 		.4byte	.LVL23
 3142 0054 0300     		.2byte	0x3
 3143 0056 08       		.byte	0x8
 3144 0057 20       		.byte	0x20
 3145 0058 9F       		.byte	0x9f
 3146 0059 00000000 		.4byte	0
 3147 005d 00000000 		.4byte	0
 3148              	.LVUS13:
 3149 0061 06       		.uleb128 .LVU125
 3150 0062 00       		.uleb128 .LVU128
 3151 0063 00       		.uleb128 .LVU128
 3152 0064 00       		.uleb128 .LVU128
 3153              	.LLST13:
 3154 0065 08000000 		.4byte	.LVL23
 3155 0069 0B000000 		.4byte	.LVL24-1
 3156 006d 0100     		.2byte	0x1
 3157 006f 51       		.byte	0x51
 3158 0070 0B000000 		.4byte	.LVL24-1
 3159 0074 0C000000 		.4byte	.LVL24
 3160 0078 0400     		.2byte	0x4
 3161 007a F3       		.byte	0xf3
 3162 007b 01       		.uleb128 0x1
 3163 007c 51       		.byte	0x51
 3164 007d 9F       		.byte	0x9f
 3165 007e 00000000 		.4byte	0
 3166 0082 00000000 		.4byte	0
 3167              	.LVUS14:
 3168 0086 06       		.uleb128 .LVU125
 3169 0087 00       		.uleb128 .LVU128
 3170 0088 00       		.uleb128 .LVU128
 3171 0089 00       		.uleb128 .LVU128
 3172              	.LLST14:
 3173 008a 08000000 		.4byte	.LVL23
 3174 008e 0B000000 		.4byte	.LVL24-1
 3175 0092 0100     		.2byte	0x1
 3176 0094 50       		.byte	0x50
 3177 0095 0B000000 		.4byte	.LVL24-1
 3178 0099 0C000000 		.4byte	.LVL24
 3179 009d 0400     		.2byte	0x4
 3180 009f F3       		.byte	0xf3
 3181 00a0 01       		.uleb128 0x1
 3182 00a1 50       		.byte	0x50
 3183 00a2 9F       		.byte	0x9f
 3184 00a3 00000000 		.4byte	0
 3185 00a7 00000000 		.4byte	0
 3186              	.LVUS15:
 3187 00ab 0A       		.uleb128 .LVU138
 3188 00ac 00       		.uleb128 .LVU140
 3189              	.LLST15:
 3190 00ad 0C000000 		.4byte	.LVL24
 3191 00b1 12000000 		.4byte	.LVL25
 3192 00b5 0200     		.2byte	0x2
ARM GAS  C:\Users\USER\AppData\Local\Temp\ccux1vpg.s 			page 57


 3193 00b7 30       		.byte	0x30
 3194 00b8 9F       		.byte	0x9f
 3195 00b9 00000000 		.4byte	0
 3196 00bd 00000000 		.4byte	0
 3197              	.LVUS7:
 3198 00c1 07       		.uleb128 .LVU65
 3199 00c2 00       		.uleb128 .LVU69
 3200              	.LLST7:
 3201 00c3 00000000 		.4byte	.LVL12
 3202 00c7 08000000 		.4byte	.LVL13
 3203 00cb 0300     		.2byte	0x3
 3204 00cd 08       		.byte	0x8
 3205 00ce 20       		.byte	0x20
 3206 00cf 9F       		.byte	0x9f
 3207 00d0 00000000 		.4byte	0
 3208 00d4 00000000 		.4byte	0
 3209              	.LVUS8:
 3210 00d8 00       		.uleb128 .LVU74
 3211 00d9 00       		.uleb128 .LVU78
 3212              	.LLST8:
 3213 00da 0C000000 		.4byte	.LVL14
 3214 00de 12000000 		.4byte	.LVL15
 3215 00e2 0100     		.2byte	0x1
 3216 00e4 52       		.byte	0x52
 3217 00e5 00000000 		.4byte	0
 3218 00e9 00000000 		.4byte	0
 3219              	.LVUS9:
 3220 00ed 09       		.uleb128 .LVU103
 3221 00ee 00       		.uleb128 .LVU105
 3222              	.LLST9:
 3223 00ef 22000000 		.4byte	.LVL19
 3224 00f3 26000000 		.4byte	.LVL20
 3225 00f7 0200     		.2byte	0x2
 3226 00f9 30       		.byte	0x30
 3227 00fa 9F       		.byte	0x9f
 3228 00fb 00000000 		.4byte	0
 3229 00ff 00000000 		.4byte	0
 3230              	.LVUS0:
 3231 0103 00       		.uleb128 0
 3232 0104 00       		.uleb128 .LVU38
 3233 0105 00       		.uleb128 .LVU38
 3234 0106 00       		.uleb128 .LVU55
 3235 0107 00       		.uleb128 .LVU55
 3236 0108 00       		.uleb128 .LVU57
 3237 0109 00       		.uleb128 .LVU57
 3238 010a 00       		.uleb128 0
 3239              	.LLST0:
 3240 010b 00000000 		.4byte	.LVL0
 3241 010f 24000000 		.4byte	.LVL6
 3242 0113 0100     		.2byte	0x1
 3243 0115 50       		.byte	0x50
 3244 0116 24000000 		.4byte	.LVL6
 3245 011a 34000000 		.4byte	.LVL10
 3246 011e 0400     		.2byte	0x4
 3247 0120 F3       		.byte	0xf3
 3248 0121 01       		.uleb128 0x1
 3249 0122 50       		.byte	0x50
ARM GAS  C:\Users\USER\AppData\Local\Temp\ccux1vpg.s 			page 58


 3250 0123 9F       		.byte	0x9f
 3251 0124 34000000 		.4byte	.LVL10
 3252 0128 37000000 		.4byte	.LVL11-1
 3253 012c 0100     		.2byte	0x1
 3254 012e 50       		.byte	0x50
 3255 012f 37000000 		.4byte	.LVL11-1
 3256 0133 40000000 		.4byte	.LFE219
 3257 0137 0400     		.2byte	0x4
 3258 0139 F3       		.byte	0xf3
 3259 013a 01       		.uleb128 0x1
 3260 013b 50       		.byte	0x50
 3261 013c 9F       		.byte	0x9f
 3262 013d 00000000 		.4byte	0
 3263 0141 00000000 		.4byte	0
 3264              	.LVUS1:
 3265 0145 00       		.uleb128 0
 3266 0146 00       		.uleb128 .LVU23
 3267 0147 00       		.uleb128 .LVU23
 3268 0148 00       		.uleb128 .LVU38
 3269 0149 00       		.uleb128 .LVU38
 3270 014a 00       		.uleb128 .LVU41
 3271 014b 00       		.uleb128 .LVU41
 3272 014c 00       		.uleb128 .LVU55
 3273 014d 00       		.uleb128 .LVU55
 3274 014e 00       		.uleb128 .LVU57
 3275 014f 00       		.uleb128 .LVU57
 3276 0150 00       		.uleb128 0
 3277              	.LLST1:
 3278 0151 00000000 		.4byte	.LVL0
 3279 0155 14000000 		.4byte	.LVL3
 3280 0159 0100     		.2byte	0x1
 3281 015b 51       		.byte	0x51
 3282 015c 14000000 		.4byte	.LVL3
 3283 0160 24000000 		.4byte	.LVL6
 3284 0164 0200     		.2byte	0x2
 3285 0166 74       		.byte	0x74
 3286 0167 34       		.sleb128 52
 3287 0168 24000000 		.4byte	.LVL6
 3288 016c 2C000000 		.4byte	.LVL8
 3289 0170 0400     		.2byte	0x4
 3290 0172 F3       		.byte	0xf3
 3291 0173 01       		.uleb128 0x1
 3292 0174 51       		.byte	0x51
 3293 0175 9F       		.byte	0x9f
 3294 0176 2C000000 		.4byte	.LVL8
 3295 017a 34000000 		.4byte	.LVL10
 3296 017e 0100     		.2byte	0x1
 3297 0180 50       		.byte	0x50
 3298 0181 34000000 		.4byte	.LVL10
 3299 0185 37000000 		.4byte	.LVL11-1
 3300 0189 0200     		.2byte	0x2
 3301 018b 74       		.byte	0x74
 3302 018c 34       		.sleb128 52
 3303 018d 37000000 		.4byte	.LVL11-1
 3304 0191 40000000 		.4byte	.LFE219
 3305 0195 0400     		.2byte	0x4
 3306 0197 F3       		.byte	0xf3
ARM GAS  C:\Users\USER\AppData\Local\Temp\ccux1vpg.s 			page 59


 3307 0198 01       		.uleb128 0x1
 3308 0199 51       		.byte	0x51
 3309 019a 9F       		.byte	0x9f
 3310 019b 00000000 		.4byte	0
 3311 019f 00000000 		.4byte	0
 3312              	.LVUS2:
 3313 01a3 00       		.uleb128 .LVU6
 3314 01a4 00       		.uleb128 0
 3315              	.LLST2:
 3316 01a5 08000000 		.4byte	.LVL1
 3317 01a9 40000000 		.4byte	.LFE219
 3318 01ad 0100     		.2byte	0x1
 3319 01af 54       		.byte	0x54
 3320 01b0 00000000 		.4byte	0
 3321 01b4 00000000 		.4byte	0
 3322              	.LVUS3:
 3323 01b8 07       		.uleb128 .LVU13
 3324 01b9 00       		.uleb128 .LVU15
 3325              	.LLST3:
 3326 01ba 08000000 		.4byte	.LVL1
 3327 01be 0C000000 		.4byte	.LVL2
 3328 01c2 0300     		.2byte	0x3
 3329 01c4 08       		.byte	0x8
 3330 01c5 20       		.byte	0x20
 3331 01c6 9F       		.byte	0x9f
 3332 01c7 00000000 		.4byte	0
 3333 01cb 00000000 		.4byte	0
 3334              	.LVUS4:
 3335 01cf 01       		.uleb128 .LVU26
 3336 01d0 00       		.uleb128 .LVU35
 3337              	.LLST4:
 3338 01d1 18000000 		.4byte	.LVL4
 3339 01d5 20000000 		.4byte	.LVL5
 3340 01d9 0100     		.2byte	0x1
 3341 01db 51       		.byte	0x51
 3342 01dc 00000000 		.4byte	0
 3343 01e0 00000000 		.4byte	0
 3344              	.LVUS5:
 3345 01e4 01       		.uleb128 .LVU26
 3346 01e5 00       		.uleb128 .LVU35
 3347              	.LLST5:
 3348 01e6 18000000 		.4byte	.LVL4
 3349 01ea 20000000 		.4byte	.LVL5
 3350 01ee 0100     		.2byte	0x1
 3351 01f0 54       		.byte	0x54
 3352 01f1 00000000 		.4byte	0
 3353 01f5 00000000 		.4byte	0
 3354              	.LVUS6:
 3355 01f9 09       		.uleb128 .LVU50
 3356 01fa 00       		.uleb128 .LVU52
 3357              	.LLST6:
 3358 01fb 2C000000 		.4byte	.LVL8
 3359 01ff 32000000 		.4byte	.LVL9
 3360 0203 0200     		.2byte	0x2
 3361 0205 30       		.byte	0x30
 3362 0206 9F       		.byte	0x9f
 3363 0207 00000000 		.4byte	0
ARM GAS  C:\Users\USER\AppData\Local\Temp\ccux1vpg.s 			page 60


 3364 020b 00000000 		.4byte	0
 3365              		.section	.debug_aranges,"",%progbits
 3366 0000 2C000000 		.4byte	0x2c
 3367 0004 0200     		.2byte	0x2
 3368 0006 00000000 		.4byte	.Ldebug_info0
 3369 000a 04       		.byte	0x4
 3370 000b 00       		.byte	0
 3371 000c 0000     		.2byte	0
 3372 000e 0000     		.2byte	0
 3373 0010 00000000 		.4byte	.LFB219
 3374 0014 40000000 		.4byte	.LFE219-.LFB219
 3375 0018 00000000 		.4byte	.LFB220
 3376 001c 3C000000 		.4byte	.LFE220-.LFB220
 3377 0020 00000000 		.4byte	.LFB221
 3378 0024 14000000 		.4byte	.LFE221-.LFB221
 3379 0028 00000000 		.4byte	0
 3380 002c 00000000 		.4byte	0
 3381              		.section	.debug_ranges,"",%progbits
 3382              	.Ldebug_ranges0:
 3383 0000 04000000 		.4byte	.LBB52
 3384 0004 06000000 		.4byte	.LBE52
 3385 0008 08000000 		.4byte	.LBB60
 3386 000c 08000000 		.4byte	.LBE60
 3387 0010 08000000 		.4byte	.LBB61
 3388 0014 08000000 		.4byte	.LBE61
 3389 0018 08000000 		.4byte	.LBB62
 3390 001c 0C000000 		.4byte	.LBE62
 3391 0020 00000000 		.4byte	0
 3392 0024 00000000 		.4byte	0
 3393 0028 04000000 		.4byte	.LBB53
 3394 002c 06000000 		.4byte	.LBE53
 3395 0030 08000000 		.4byte	.LBB58
 3396 0034 08000000 		.4byte	.LBE58
 3397 0038 08000000 		.4byte	.LBB59
 3398 003c 0C000000 		.4byte	.LBE59
 3399 0040 00000000 		.4byte	0
 3400 0044 00000000 		.4byte	0
 3401 0048 04000000 		.4byte	.LBB54
 3402 004c 06000000 		.4byte	.LBE54
 3403 0050 08000000 		.4byte	.LBB57
 3404 0054 0C000000 		.4byte	.LBE57
 3405 0058 00000000 		.4byte	0
 3406 005c 00000000 		.4byte	0
 3407 0060 0C000000 		.4byte	.LBB63
 3408 0064 0E000000 		.4byte	.LBE63
 3409 0068 14000000 		.4byte	.LBB68
 3410 006c 16000000 		.4byte	.LBE68
 3411 0070 18000000 		.4byte	.LBB69
 3412 0074 1C000000 		.4byte	.LBE69
 3413 0078 1E000000 		.4byte	.LBB70
 3414 007c 20000000 		.4byte	.LBE70
 3415 0080 00000000 		.4byte	0
 3416 0084 00000000 		.4byte	0
 3417 0088 2C000000 		.4byte	.LBB71
 3418 008c 2C000000 		.4byte	.LBE71
 3419 0090 2C000000 		.4byte	.LBB78
 3420 0094 32000000 		.4byte	.LBE78
ARM GAS  C:\Users\USER\AppData\Local\Temp\ccux1vpg.s 			page 61


 3421 0098 00000000 		.4byte	0
 3422 009c 00000000 		.4byte	0
 3423 00a0 00000000 		.4byte	.LBB79
 3424 00a4 00000000 		.4byte	.LBE79
 3425 00a8 00000000 		.4byte	.LBB87
 3426 00ac 00000000 		.4byte	.LBE87
 3427 00b0 00000000 		.4byte	.LBB88
 3428 00b4 00000000 		.4byte	.LBE88
 3429 00b8 02000000 		.4byte	.LBB89
 3430 00bc 08000000 		.4byte	.LBE89
 3431 00c0 00000000 		.4byte	0
 3432 00c4 00000000 		.4byte	0
 3433 00c8 16000000 		.4byte	.LBB92
 3434 00cc 1A000000 		.4byte	.LBE92
 3435 00d0 1C000000 		.4byte	.LBB95
 3436 00d4 1E000000 		.4byte	.LBE95
 3437 00d8 00000000 		.4byte	0
 3438 00dc 00000000 		.4byte	0
 3439 00e0 1E000000 		.4byte	.LBB96
 3440 00e4 20000000 		.4byte	.LBE96
 3441 00e8 22000000 		.4byte	.LBB107
 3442 00ec 22000000 		.4byte	.LBE107
 3443 00f0 22000000 		.4byte	.LBB108
 3444 00f4 26000000 		.4byte	.LBE108
 3445 00f8 00000000 		.4byte	0
 3446 00fc 00000000 		.4byte	0
 3447 0100 1E000000 		.4byte	.LBB99
 3448 0104 20000000 		.4byte	.LBE99
 3449 0108 22000000 		.4byte	.LBB102
 3450 010c 26000000 		.4byte	.LBE102
 3451 0110 00000000 		.4byte	0
 3452 0114 00000000 		.4byte	0
 3453 0118 00000000 		.4byte	.LBB109
 3454 011c 00000000 		.4byte	.LBE109
 3455 0120 00000000 		.4byte	.LBB117
 3456 0124 00000000 		.4byte	.LBE117
 3457 0128 00000000 		.4byte	.LBB118
 3458 012c 00000000 		.4byte	.LBE118
 3459 0130 02000000 		.4byte	.LBB119
 3460 0134 08000000 		.4byte	.LBE119
 3461 0138 00000000 		.4byte	0
 3462 013c 00000000 		.4byte	0
 3463 0140 0C000000 		.4byte	.LBB122
 3464 0144 0C000000 		.4byte	.LBE122
 3465 0148 0C000000 		.4byte	.LBB129
 3466 014c 12000000 		.4byte	.LBE129
 3467 0150 00000000 		.4byte	0
 3468 0154 00000000 		.4byte	0
 3469 0158 00000000 		.4byte	.LFB219
 3470 015c 40000000 		.4byte	.LFE219
 3471 0160 00000000 		.4byte	.LFB220
 3472 0164 3C000000 		.4byte	.LFE220
 3473 0168 00000000 		.4byte	.LFB221
 3474 016c 14000000 		.4byte	.LFE221
 3475 0170 00000000 		.4byte	0
 3476 0174 00000000 		.4byte	0
 3477              		.section	.debug_line,"",%progbits
ARM GAS  C:\Users\USER\AppData\Local\Temp\ccux1vpg.s 			page 62


 3478              	.Ldebug_line0:
 3479 0000 5E050000 		.section	.debug_str,"MS",%progbits,1
 3479      03009002 
 3479      00000201 
 3479      FB0E0D00 
 3479      01010101 
 3480              	.LASF116:
 3481 0000 63665F6F 		.ascii	"cf_off_older\000"
 3481      66665F6F 
 3481      6C646572 
 3481      00
 3482              	.LASF55:
 3483 000d 72656164 		.ascii	"ready_list_t\000"
 3483      795F6C69 
 3483      73745F74 
 3483      00
 3484              	.LASF135:
 3485 001a 71756575 		.ascii	"queue_insert\000"
 3485      655F696E 
 3485      73657274 
 3485      00
 3486              	.LASF94:
 3487 0027 77747472 		.ascii	"wttrp\000"
 3487      7000
 3488              	.LASF91:
 3489 002d 7264796D 		.ascii	"rdymsg\000"
 3489      736700
 3490              	.LASF18:
 3491 0034 75696E74 		.ascii	"uint64_t\000"
 3491      36345F74 
 3491      00
 3492              	.LASF4:
 3493 003d 5F5F7569 		.ascii	"__uint8_t\000"
 3493      6E74385F 
 3493      7400
 3494              	.LASF88:
 3495 0047 706F7274 		.ascii	"port_intctx\000"
 3495      5F696E74 
 3495      63747800 
 3496              	.LASF74:
 3497 0053 73797374 		.ascii	"system_debug_t\000"
 3497      656D5F64 
 3497      65627567 
 3497      5F7400
 3498              	.LASF138:
 3499 0062 706F7274 		.ascii	"port_lock\000"
 3499      5F6C6F63 
 3499      6B00
 3500              	.LASF13:
 3501 006c 6C6F6E67 		.ascii	"long long unsigned int\000"
 3501      206C6F6E 
 3501      6720756E 
 3501      7369676E 
 3501      65642069 
 3502              	.LASF112:
 3503 0083 63685F74 		.ascii	"ch_threadsize\000"
 3503      68726561 
ARM GAS  C:\Users\USER\AppData\Local\Temp\ccux1vpg.s 			page 63


 3503      6473697A 
 3503      6500
 3504              	.LASF92:
 3505 0091 65786974 		.ascii	"exitcode\000"
 3505      636F6465 
 3505      00
 3506              	.LASF81:
 3507 009a 6D61696E 		.ascii	"mainthread\000"
 3507      74687265 
 3507      616400
 3508              	.LASF71:
 3509 00a5 76697274 		.ascii	"virtual_timers_list_t\000"
 3509      75616C5F 
 3509      74696D65 
 3509      72735F6C 
 3509      6973745F 
 3510              	.LASF83:
 3511 00bb 49544D5F 		.ascii	"ITM_RxBuffer\000"
 3511      52784275 
 3511      66666572 
 3511      00
 3512              	.LASF145:
 3513 00c8 7372632F 		.ascii	"src/ChibiOS_3.0.2/os/rt/src/chmsg.c\000"
 3513      43686962 
 3513      694F535F 
 3513      332E302E 
 3513      322F6F73 
 3514              	.LASF54:
 3515 00ec 63685F74 		.ascii	"ch_threads_queue\000"
 3515      68726561 
 3515      64735F71 
 3515      75657565 
 3515      00
 3516              	.LASF32:
 3517 00fd 705F7072 		.ascii	"p_prio\000"
 3517      696F00
 3518              	.LASF119:
 3519 0104 63665F6F 		.ascii	"cf_off_state\000"
 3519      66665F73 
 3519      74617465 
 3519      00
 3520              	.LASF11:
 3521 0111 6C6F6E67 		.ascii	"long long int\000"
 3521      206C6F6E 
 3521      6720696E 
 3521      7400
 3522              	.LASF1:
 3523 011f 7369676E 		.ascii	"signed char\000"
 3523      65642063 
 3523      68617200 
 3524              	.LASF118:
 3525 012b 63665F6F 		.ascii	"cf_off_stklimit\000"
 3525      66665F73 
 3525      746B6C69 
 3525      6D697400 
 3526              	.LASF120:
 3527 013b 63665F6F 		.ascii	"cf_off_flags\000"
ARM GAS  C:\Users\USER\AppData\Local\Temp\ccux1vpg.s 			page 64


 3527      66665F66 
 3527      6C616773 
 3527      00
 3528              	.LASF48:
 3529 0148 705F6D70 		.ascii	"p_mpool\000"
 3529      6F6F6C00 
 3530              	.LASF102:
 3531 0150 6D5F7175 		.ascii	"m_queue\000"
 3531      65756500 
 3532              	.LASF80:
 3533 0158 76746C69 		.ascii	"vtlist\000"
 3533      737400
 3534              	.LASF137:
 3535 015f 706F7274 		.ascii	"port_unlock\000"
 3535      5F756E6C 
 3535      6F636B00 
 3536              	.LASF23:
 3537 016b 74736C69 		.ascii	"tslices_t\000"
 3537      6365735F 
 3537      7400
 3538              	.LASF78:
 3539 0175 63685F73 		.ascii	"ch_system\000"
 3539      79737465 
 3539      6D00
 3540              	.LASF8:
 3541 017f 6C6F6E67 		.ascii	"long int\000"
 3541      20696E74 
 3541      00
 3542              	.LASF128:
 3543 0188 63684D73 		.ascii	"chMsgSend\000"
 3543      6753656E 
 3543      6400
 3544              	.LASF21:
 3545 0192 74737461 		.ascii	"tstate_t\000"
 3545      74655F74 
 3545      00
 3546              	.LASF124:
 3547 019b 63686465 		.ascii	"chdebug_t\000"
 3547      6275675F 
 3547      7400
 3548              	.LASF133:
 3549 01a5 63684D73 		.ascii	"chMsgIsPendingI\000"
 3549      67497350 
 3549      656E6469 
 3549      6E674900 
 3550              	.LASF34:
 3551 01b5 705F6E65 		.ascii	"p_newer\000"
 3551      77657200 
 3552              	.LASF99:
 3553 01bd 735F7175 		.ascii	"s_queue\000"
 3553      65756500 
 3554              	.LASF60:
 3555 01c5 725F6E65 		.ascii	"r_newer\000"
 3555      77657200 
 3556              	.LASF85:
 3557 01cd 72656761 		.ascii	"regarm_t\000"
 3557      726D5F74 
ARM GAS  C:\Users\USER\AppData\Local\Temp\ccux1vpg.s 			page 65


 3557      00
 3558              	.LASF67:
 3559 01d6 76745F70 		.ascii	"vt_prev\000"
 3559      72657600 
 3560              	.LASF144:
 3561 01de 474E5520 		.ascii	"GNU C99 8.2.1 20181213 (release) [gcc-8-branch revi"
 3561      43393920 
 3561      382E322E 
 3561      31203230 
 3561      31383132 
 3562 0211 73696F6E 		.ascii	"sion 267074] -mcpu=cortex-m4 -mfloat-abi=hard -mfpu"
 3562      20323637 
 3562      3037345D 
 3562      202D6D63 
 3562      70753D63 
 3563 0244 3D667076 		.ascii	"=fpv4-sp-d16 -mno-thumb-interwork -mthumb -march=ar"
 3563      342D7370 
 3563      2D643136 
 3563      202D6D6E 
 3563      6F2D7468 
 3564 0277 6D763765 		.ascii	"mv7e-m+fp -ggdb -O2 -std=gnu99 -fomit-frame-pointer"
 3564      2D6D2B66 
 3564      70202D67 
 3564      67646220 
 3564      2D4F3220 
 3565 02aa 202D6661 		.ascii	" -falign-functions=16 -ffunction-sections -fdata-se"
 3565      6C69676E 
 3565      2D66756E 
 3565      6374696F 
 3565      6E733D31 
 3566 02dd 6374696F 		.ascii	"ctions -fno-common -fsingle-precision-constant\000"
 3566      6E73202D 
 3566      666E6F2D 
 3566      636F6D6D 
 3566      6F6E202D 
 3567              	.LASF126:
 3568 030c 6D757465 		.ascii	"mutex_t\000"
 3568      785F7400 
 3569              	.LASF140:
 3570 0314 76616C75 		.ascii	"value\000"
 3570      6500
 3571              	.LASF82:
 3572 031a 69646C65 		.ascii	"idle_thread_wa\000"
 3572      5F746872 
 3572      6561645F 
 3572      776100
 3573              	.LASF27:
 3574 0329 636E745F 		.ascii	"cnt_t\000"
 3574      7400
 3575              	.LASF0:
 3576 032f 756E7369 		.ascii	"unsigned int\000"
 3576      676E6564 
 3576      20696E74 
 3576      00
 3577              	.LASF66:
 3578 033c 76745F6E 		.ascii	"vt_next\000"
 3578      65787400 
ARM GAS  C:\Users\USER\AppData\Local\Temp\ccux1vpg.s 			page 66


 3579              	.LASF15:
 3580 0344 75696E74 		.ascii	"uint16_t\000"
 3580      31365F74 
 3580      00
 3581              	.LASF84:
 3582 034d 53797374 		.ascii	"SystemCoreClock\000"
 3582      656D436F 
 3582      7265436C 
 3582      6F636B00 
 3583              	.LASF41:
 3584 035d 705F7469 		.ascii	"p_time\000"
 3584      6D6500
 3585              	.LASF95:
 3586 0364 77747365 		.ascii	"wtsemp\000"
 3586      6D7000
 3587              	.LASF68:
 3588 036b 76745F64 		.ascii	"vt_delta\000"
 3588      656C7461 
 3588      00
 3589              	.LASF43:
 3590 0374 705F6D73 		.ascii	"p_msgqueue\000"
 3590      67717565 
 3590      756500
 3591              	.LASF125:
 3592 037f 63685F64 		.ascii	"ch_debug\000"
 3592      65627567 
 3592      00
 3593              	.LASF100:
 3594 0388 735F636E 		.ascii	"s_cnt\000"
 3594      7400
 3595              	.LASF6:
 3596 038e 73686F72 		.ascii	"short unsigned int\000"
 3596      7420756E 
 3596      7369676E 
 3596      65642069 
 3596      6E7400
 3597              	.LASF51:
 3598 03a1 63685F74 		.ascii	"ch_thread\000"
 3598      68726561 
 3598      6400
 3599              	.LASF141:
 3600 03ab 63685363 		.ascii	"chSchWakeupS\000"
 3600      6857616B 
 3600      65757053 
 3600      00
 3601              	.LASF25:
 3602 03b8 6D73675F 		.ascii	"msg_t\000"
 3602      7400
 3603              	.LASF77:
 3604 03be 63685F73 		.ascii	"ch_system_t\000"
 3604      79737465 
 3604      6D5F7400 
 3605              	.LASF123:
 3606 03ca 63665F6F 		.ascii	"cf_off_time\000"
 3606      66665F74 
 3606      696D6500 
 3607              	.LASF56:
ARM GAS  C:\Users\USER\AppData\Local\Temp\ccux1vpg.s 			page 67


 3608 03d6 63685F72 		.ascii	"ch_ready_list\000"
 3608      65616479 
 3608      5F6C6973 
 3608      7400
 3609              	.LASF26:
 3610 03e4 6576656E 		.ascii	"eventmask_t\000"
 3610      746D6173 
 3610      6B5F7400 
 3611              	.LASF7:
 3612 03f0 5F5F696E 		.ascii	"__int32_t\000"
 3612      7433325F 
 3612      7400
 3613              	.LASF86:
 3614 03fa 73746B61 		.ascii	"stkalign_t\000"
 3614      6C69676E 
 3614      5F7400
 3615              	.LASF50:
 3616 0405 74687265 		.ascii	"threads_list_t\000"
 3616      6164735F 
 3616      6C697374 
 3616      5F7400
 3617              	.LASF107:
 3618 0414 63685F7A 		.ascii	"ch_zero\000"
 3618      65726F00 
 3619              	.LASF121:
 3620 041c 63665F6F 		.ascii	"cf_off_refs\000"
 3620      66665F72 
 3620      65667300 
 3621              	.LASF42:
 3622 0428 705F7761 		.ascii	"p_waiting\000"
 3622      6974696E 
 3622      6700
 3623              	.LASF19:
 3624 0432 7274636E 		.ascii	"rtcnt_t\000"
 3624      745F7400 
 3625              	.LASF72:
 3626 043a 63685F76 		.ascii	"ch_virtual_timers_list\000"
 3626      69727475 
 3626      616C5F74 
 3626      696D6572 
 3626      735F6C69 
 3627              	.LASF111:
 3628 0451 63685F74 		.ascii	"ch_timesize\000"
 3628      696D6573 
 3628      697A6500 
 3629              	.LASF117:
 3630 045d 63665F6F 		.ascii	"cf_off_name\000"
 3630      66665F6E 
 3630      616D6500 
 3631              	.LASF35:
 3632 0469 705F6F6C 		.ascii	"p_older\000"
 3632      64657200 
 3633              	.LASF59:
 3634 0471 725F6374 		.ascii	"r_ctx\000"
 3634      7800
 3635              	.LASF33:
 3636 0477 705F6374 		.ascii	"p_ctx\000"
ARM GAS  C:\Users\USER\AppData\Local\Temp\ccux1vpg.s 			page 68


 3636      7800
 3637              	.LASF90:
 3638 047d 746D5F63 		.ascii	"tm_calibration_t\000"
 3638      616C6962 
 3638      72617469 
 3638      6F6E5F74 
 3638      00
 3639              	.LASF104:
 3640 048e 6D5F6E65 		.ascii	"m_next\000"
 3640      787400
 3641              	.LASF62:
 3642 0495 725F6375 		.ascii	"r_current\000"
 3642      7272656E 
 3642      7400
 3643              	.LASF61:
 3644 049f 725F6F6C 		.ascii	"r_older\000"
 3644      64657200 
 3645              	.LASF12:
 3646 04a7 5F5F7569 		.ascii	"__uint64_t\000"
 3646      6E743634 
 3646      5F7400
 3647              	.LASF22:
 3648 04b2 74726566 		.ascii	"trefs_t\000"
 3648      735F7400 
 3649              	.LASF110:
 3650 04ba 63685F70 		.ascii	"ch_ptrsize\000"
 3650      74727369 
 3650      7A6500
 3651              	.LASF64:
 3652 04c5 76697274 		.ascii	"virtual_timer_t\000"
 3652      75616C5F 
 3652      74696D65 
 3652      725F7400 
 3653              	.LASF31:
 3654 04d5 705F7072 		.ascii	"p_prev\000"
 3654      657600
 3655              	.LASF24:
 3656 04dc 74707269 		.ascii	"tprio_t\000"
 3656      6F5F7400 
 3657              	.LASF75:
 3658 04e4 63685F73 		.ascii	"ch_system_debug\000"
 3658      79737465 
 3658      6D5F6465 
 3658      62756700 
 3659              	.LASF130:
 3660 04f4 5F426F6F 		.ascii	"_Bool\000"
 3660      6C00
 3661              	.LASF16:
 3662 04fa 696E7433 		.ascii	"int32_t\000"
 3662      325F7400 
 3663              	.LASF2:
 3664 0502 756E7369 		.ascii	"unsigned char\000"
 3664      676E6564 
 3664      20636861 
 3664      7200
 3665              	.LASF46:
 3666 0510 705F6D74 		.ascii	"p_mtxlist\000"
ARM GAS  C:\Users\USER\AppData\Local\Temp\ccux1vpg.s 			page 69


 3666      786C6973 
 3666      7400
 3667              	.LASF3:
 3668 051a 73686F72 		.ascii	"short int\000"
 3668      7420696E 
 3668      7400
 3669              	.LASF37:
 3670 0524 705F7374 		.ascii	"p_state\000"
 3670      61746500 
 3671              	.LASF40:
 3672 052c 705F7072 		.ascii	"p_preempt\000"
 3672      65656D70 
 3672      7400
 3673              	.LASF58:
 3674 0536 725F7072 		.ascii	"r_prio\000"
 3674      696F00
 3675              	.LASF97:
 3676 053d 65776D61 		.ascii	"ewmask\000"
 3676      736B00
 3677              	.LASF30:
 3678 0544 705F6E65 		.ascii	"p_next\000"
 3678      787400
 3679              	.LASF20:
 3680 054b 746D6F64 		.ascii	"tmode_t\000"
 3680      655F7400 
 3681              	.LASF122:
 3682 0553 63665F6F 		.ascii	"cf_off_preempt\000"
 3682      66665F70 
 3682      7265656D 
 3682      707400
 3683              	.LASF38:
 3684 0562 705F666C 		.ascii	"p_flags\000"
 3684      61677300 
 3685              	.LASF129:
 3686 056a 5F5F6675 		.ascii	"__func__\000"
 3686      6E635F5F 
 3686      00
 3687              	.LASF136:
 3688 0573 63685379 		.ascii	"chSysLock\000"
 3688      734C6F63 
 3688      6B00
 3689              	.LASF53:
 3690 057d 74687265 		.ascii	"threads_queue_t\000"
 3690      6164735F 
 3690      71756575 
 3690      655F7400 
 3691              	.LASF65:
 3692 058d 63685F76 		.ascii	"ch_virtual_timer\000"
 3692      69727475 
 3692      616C5F74 
 3692      696D6572 
 3692      00
 3693              	.LASF147:
 3694 059e 63684D73 		.ascii	"chMsgRelease\000"
 3694      6752656C 
 3694      65617365 
 3694      00
ARM GAS  C:\Users\USER\AppData\Local\Temp\ccux1vpg.s 			page 70


 3695              	.LASF98:
 3696 05ab 63685F73 		.ascii	"ch_semaphore\000"
 3696      656D6170 
 3696      686F7265 
 3696      00
 3697              	.LASF142:
 3698 05b8 63685363 		.ascii	"chSchGoSleepS\000"
 3698      68476F53 
 3698      6C656570 
 3698      5300
 3699              	.LASF45:
 3700 05c6 705F6570 		.ascii	"p_epending\000"
 3700      656E6469 
 3700      6E6700
 3701              	.LASF17:
 3702 05d1 75696E74 		.ascii	"uint32_t\000"
 3702      33325F74 
 3702      00
 3703              	.LASF113:
 3704 05da 63665F6F 		.ascii	"cf_off_prio\000"
 3704      66665F70 
 3704      72696F00 
 3705              	.LASF57:
 3706 05e6 725F7175 		.ascii	"r_queue\000"
 3706      65756500 
 3707              	.LASF143:
 3708 05ee 63685363 		.ascii	"chSchReadyI\000"
 3708      68526561 
 3708      64794900 
 3709              	.LASF52:
 3710 05fa 63685F74 		.ascii	"ch_threads_list\000"
 3710      68726561 
 3710      64735F6C 
 3710      69737400 
 3711              	.LASF108:
 3712 060a 63685F73 		.ascii	"ch_size\000"
 3712      697A6500 
 3713              	.LASF10:
 3714 0612 6C6F6E67 		.ascii	"long unsigned int\000"
 3714      20756E73 
 3714      69676E65 
 3714      6420696E 
 3714      7400
 3715              	.LASF105:
 3716 0624 63686172 		.ascii	"char\000"
 3716      00
 3717              	.LASF96:
 3718 0629 77746D74 		.ascii	"wtmtxp\000"
 3718      787000
 3719              	.LASF5:
 3720 0630 5F5F7569 		.ascii	"__uint16_t\000"
 3720      6E743136 
 3720      5F7400
 3721              	.LASF29:
 3722 063b 74687265 		.ascii	"thread_t\000"
 3722      61645F74 
 3722      00
ARM GAS  C:\Users\USER\AppData\Local\Temp\ccux1vpg.s 			page 71


 3723              	.LASF134:
 3724 0644 71756575 		.ascii	"queue_fifo_remove\000"
 3724      655F6669 
 3724      666F5F72 
 3724      656D6F76 
 3724      6500
 3725              	.LASF28:
 3726 0656 73797374 		.ascii	"systime_t\000"
 3726      696D655F 
 3726      7400
 3727              	.LASF47:
 3728 0660 705F7265 		.ascii	"p_realprio\000"
 3728      616C7072 
 3728      696F00
 3729              	.LASF63:
 3730 066b 76746675 		.ascii	"vtfunc_t\000"
 3730      6E635F74 
 3730      00
 3731              	.LASF9:
 3732 0674 5F5F7569 		.ascii	"__uint32_t\000"
 3732      6E743332 
 3732      5F7400
 3733              	.LASF139:
 3734 067f 5F5F7365 		.ascii	"__set_BASEPRI\000"
 3734      745F4241 
 3734      53455052 
 3734      4900
 3735              	.LASF76:
 3736 068d 70616E69 		.ascii	"panic_msg\000"
 3736      635F6D73 
 3736      6700
 3737              	.LASF89:
 3738 0697 6F666673 		.ascii	"offset\000"
 3738      657400
 3739              	.LASF87:
 3740 069e 636F6E74 		.ascii	"context\000"
 3740      65787400 
 3741              	.LASF44:
 3742 06a6 705F6D73 		.ascii	"p_msg\000"
 3742      6700
 3743              	.LASF70:
 3744 06ac 76745F70 		.ascii	"vt_par\000"
 3744      617200
 3745              	.LASF127:
 3746 06b3 63684D73 		.ascii	"chMsgWait\000"
 3746      67576169 
 3746      7400
 3747              	.LASF114:
 3748 06bd 63665F6F 		.ascii	"cf_off_ctx\000"
 3748      66665F63 
 3748      747800
 3749              	.LASF101:
 3750 06c8 63685F6D 		.ascii	"ch_mutex\000"
 3750      75746578 
 3750      00
 3751              	.LASF39:
 3752 06d1 705F7265 		.ascii	"p_refs\000"
ARM GAS  C:\Users\USER\AppData\Local\Temp\ccux1vpg.s 			page 72


 3752      667300
 3753              	.LASF146:
 3754 06d8 443A5C67 		.ascii	"D:\\git\\oroca_bldc_dev\\oroca_bldc_FW\\oroca_bldc_"
 3754      69745C6F 
 3754      726F6361 
 3754      5F626C64 
 3754      635F6465 
 3755 0707 63686962 		.ascii	"chibios\000"
 3755      696F7300 
 3756              	.LASF79:
 3757 070f 726C6973 		.ascii	"rlist\000"
 3757      7400
 3758              	.LASF14:
 3759 0715 75696E74 		.ascii	"uint8_t\000"
 3759      385F7400 
 3760              	.LASF49:
 3761 071d 74687265 		.ascii	"thread_reference_t\000"
 3761      61645F72 
 3761      65666572 
 3761      656E6365 
 3761      5F7400
 3762              	.LASF93:
 3763 0730 77746F62 		.ascii	"wtobjp\000"
 3763      6A7000
 3764              	.LASF115:
 3765 0737 63665F6F 		.ascii	"cf_off_newer\000"
 3765      66665F6E 
 3765      65776572 
 3765      00
 3766              	.LASF36:
 3767 0744 705F6E61 		.ascii	"p_name\000"
 3767      6D6500
 3768              	.LASF73:
 3769 074b 76745F73 		.ascii	"vt_systime\000"
 3769      79737469 
 3769      6D6500
 3770              	.LASF132:
 3771 0756 63685379 		.ascii	"chSysUnlock\000"
 3771      73556E6C 
 3771      6F636B00 
 3772              	.LASF109:
 3773 0762 63685F76 		.ascii	"ch_version\000"
 3773      65727369 
 3773      6F6E00
 3774              	.LASF131:
 3775 076d 63684D73 		.ascii	"chMsgReleaseS\000"
 3775      6752656C 
 3775      65617365 
 3775      5300
 3776              	.LASF103:
 3777 077b 6D5F6F77 		.ascii	"m_owner\000"
 3777      6E657200 
 3778              	.LASF106:
 3779 0783 63685F69 		.ascii	"ch_identifier\000"
 3779      64656E74 
 3779      69666965 
 3779      7200
ARM GAS  C:\Users\USER\AppData\Local\Temp\ccux1vpg.s 			page 73


 3780              	.LASF69:
 3781 0791 76745F66 		.ascii	"vt_func\000"
 3781      756E6300 
 3782              		.ident	"GCC: (GNU Tools for Arm Embedded Processors 8-2018-q4-major) 8.2.1 20181213 (release) [gcc
ARM GAS  C:\Users\USER\AppData\Local\Temp\ccux1vpg.s 			page 74


DEFINED SYMBOLS
                            *ABS*:00000000 chmsg.c
C:\Users\USER\AppData\Local\Temp\ccux1vpg.s:18     .text.chMsgSend:00000000 $t
C:\Users\USER\AppData\Local\Temp\ccux1vpg.s:27     .text.chMsgSend:00000000 chMsgSend
C:\Users\USER\AppData\Local\Temp\ccux1vpg.s:210    .text.chMsgSend:0000003c $d
C:\Users\USER\AppData\Local\Temp\ccux1vpg.s:215    .text.chMsgWait:00000000 $t
C:\Users\USER\AppData\Local\Temp\ccux1vpg.s:223    .text.chMsgWait:00000000 chMsgWait
C:\Users\USER\AppData\Local\Temp\ccux1vpg.s:399    .text.chMsgWait:00000038 $d
C:\Users\USER\AppData\Local\Temp\ccux1vpg.s:404    .text.chMsgRelease:00000000 $t
C:\Users\USER\AppData\Local\Temp\ccux1vpg.s:412    .text.chMsgRelease:00000000 chMsgRelease

UNDEFINED SYMBOLS
chSchGoSleepS
chSchReadyI
ch
chSchWakeupS
