ARM GAS  C:\Users\USER\AppData\Local\Temp\ccux1vpg.s 			page 1


   1              		.cpu cortex-m4
   2              		.eabi_attribute 27, 1
   3              		.eabi_attribute 28, 1
   4              		.eabi_attribute 20, 1
   5              		.eabi_attribute 21, 1
   6              		.eabi_attribute 23, 3
   7              		.eabi_attribute 24, 1
   8              		.eabi_attribute 25, 1
   9              		.eabi_attribute 26, 1
  10              		.eabi_attribute 30, 2
  11              		.eabi_attribute 34, 1
  12              		.eabi_attribute 18, 4
  13              		.file	"chmsg.c"
  14              		.text
  15              	.Ltext0:
  16              		.cfi_sections	.debug_frame
  17              		.section	.text.chMsgSend,"ax",%progbits
  18              		.align	1
  19              		.p2align 4,,15
  20              		.global	chMsgSend
  21              		.arch armv7e-m
  22              		.syntax unified
  23              		.thumb
  24              		.thumb_func
  25              		.fpu fpv4-sp-d16
  26              		.type	chMsgSend, %function
  27              	chMsgSend:
  28              	.LVL0:
  29              	.LFB219:
  30              		.file 1 "src/ChibiOS_3.0.2/os/rt/src/chmsg.c"
  31              		.loc 1 87 42 view -0
  32              		.cfi_startproc
  33              		@ args = 0, pretend = 0, frame = 0
  34              		@ frame_needed = 0, uses_anonymous_args = 0
  35              		.loc 1 88 3 view .LVU1
  36              		.loc 1 88 13 is_stmt 0 view .LVU2
  37 0000 0E4B     		ldr	r3, .L6
  38              		.loc 1 87 42 view .LVU3
  39 0002 10B5     		push	{r4, lr}
  40              		.cfi_def_cfa_offset 8
  41              		.cfi_offset 4, -8
  42              		.cfi_offset 14, -4
  43              	.LBB52:
  44              	.LBB53:
  45              	.LBB54:
  46              	.LBB55:
  47              		.file 2 "src/ChibiOS_3.0.2/os/ext/CMSIS/include/core_cmFunc.h"
  48              		.loc 2 546 3 view .LVU4
  49 0004 2022     		movs	r2, #32
  50              	.LBE55:
  51              	.LBE54:
  52              	.LBE53:
  53              	.LBE52:
  54              		.loc 1 88 13 view .LVU5
  55 0006 9C69     		ldr	r4, [r3, #24]
  56              	.LVL1:
  57              		.loc 1 90 3 is_stmt 1 view .LVU6
ARM GAS  C:\Users\USER\AppData\Local\Temp\ccux1vpg.s 			page 2


  58              		.loc 1 90 3 view .LVU7
  59              		.loc 1 92 3 view .LVU8
  60              	.LBB60:
  61              	.LBI52:
  62              		.file 3 "src/ChibiOS_3.0.2/os/rt/include/chsys.h"
  63              		.loc 3 346 20 view .LVU9
  64              	.LBE60:
  65              		.loc 3 348 3 view .LVU10
  66              	.LBB61:
  67              	.LBB58:
  68              	.LBI53:
  69              		.file 4 "src/ChibiOS_3.0.2/os/rt/ports/ARMCMx/chcore_v7m.h"
  70              		.loc 4 444 20 view .LVU11
  71              	.LBE58:
  72              	.LBE61:
  73              		.loc 4 447 3 view .LVU12
  74              	.LBB62:
  75              	.LBB59:
  76              	.LBB57:
  77              	.LBI54:
  78              		.loc 2 544 57 view .LVU13
  79              	.LBB56:
  80              		.loc 2 546 3 view .LVU14
  81              		.syntax unified
  82              	@ 546 "src/ChibiOS_3.0.2/os/ext/CMSIS/include/core_cmFunc.h" 1
  83 0008 82F31188 		MSR basepri, r2
  84              	@ 0 "" 2
  85              	.LVL2:
  86              		.loc 2 546 3 is_stmt 0 view .LVU15
  87              		.thumb
  88              		.syntax unified
  89              	.LBE56:
  90              	.LBE57:
  91              	.LBE59:
  92              	.LBE62:
  93              		.loc 3 349 34 is_stmt 1 view .LVU16
  94              		.loc 3 350 20 view .LVU17
  95              		.loc 1 93 3 view .LVU18
  96              	.LBB63:
  97              	.LBB64:
  98              		.file 5 "src/ChibiOS_3.0.2/os/rt/include/chschd.h"
  99              		.loc 5 666 19 is_stmt 0 view .LVU19
 100 000c 026B     		ldr	r2, [r0, #48]
 101              	.LBE64:
 102              	.LBE63:
 103              		.loc 1 93 14 view .LVU20
 104 000e 6163     		str	r1, [r4, #52]
 105              		.loc 1 94 3 is_stmt 1 view .LVU21
 106              		.loc 1 94 21 is_stmt 0 view .LVU22
 107 0010 00F12C01 		add	r1, r0, #44
 108              	.LVL3:
 109              	.LBB68:
 110              	.LBB65:
 111              		.loc 5 666 14 view .LVU23
 112 0014 6260     		str	r2, [r4, #4]
 113              	.LBE65:
 114              	.LBE68:
ARM GAS  C:\Users\USER\AppData\Local\Temp\ccux1vpg.s 			page 3


 115              		.loc 1 94 19 view .LVU24
 116 0016 6162     		str	r1, [r4, #36]
 117              		.loc 1 95 3 is_stmt 1 view .LVU25
 118              	.LVL4:
 119              	.LBB69:
 120              	.LBI63:
 121              		.loc 5 663 20 view .LVU26
 122              	.LBB66:
 123              		.loc 5 665 3 view .LVU27
 124              		.loc 5 665 14 is_stmt 0 view .LVU28
 125 0018 2160     		str	r1, [r4]
 126              		.loc 5 666 3 is_stmt 1 view .LVU29
 127              		.loc 5 667 3 view .LVU30
 128              		.loc 5 667 22 is_stmt 0 view .LVU31
 129 001a 1460     		str	r4, [r2]
 130              		.loc 5 668 3 is_stmt 1 view .LVU32
 131              	.LBE66:
 132              	.LBE69:
 133              		.loc 1 96 6 is_stmt 0 view .LVU33
 134 001c 027F     		ldrb	r2, [r0, #28]	@ zero_extendqisi2
 135              	.LBB70:
 136              	.LBB67:
 137              		.loc 5 668 15 view .LVU34
 138 001e 0463     		str	r4, [r0, #48]
 139              	.LVL5:
 140              		.loc 5 668 15 view .LVU35
 141              	.LBE67:
 142              	.LBE70:
 143              		.loc 1 96 3 is_stmt 1 view .LVU36
 144              		.loc 1 96 6 is_stmt 0 view .LVU37
 145 0020 0E2A     		cmp	r2, #14
 146 0022 07D0     		beq	.L5
 147              	.LVL6:
 148              	.L2:
 149              		.loc 1 99 3 is_stmt 1 view .LVU38
 150 0024 0C20     		movs	r0, #12
 151 0026 FFF7FEFF 		bl	chSchGoSleepS
 152              	.LVL7:
 153              		.loc 1 100 3 view .LVU39
 154              		.loc 1 100 7 is_stmt 0 view .LVU40
 155 002a 606A     		ldr	r0, [r4, #36]
 156              	.LVL8:
 157              		.loc 1 101 3 is_stmt 1 view .LVU41
 158              	.LBB71:
 159              	.LBI71:
 160              		.loc 3 358 20 view .LVU42
 161              	.LBB72:
 162              		.loc 3 360 22 view .LVU43
 163              		.loc 3 361 33 view .LVU44
 164              		.loc 3 367 3 view .LVU45
 165              		.loc 3 367 3 view .LVU46
 166              		.loc 3 371 3 view .LVU47
 167              	.LBB73:
 168              	.LBI73:
 169              		.loc 4 458 20 view .LVU48
 170              	.LBE73:
 171              	.LBE72:
ARM GAS  C:\Users\USER\AppData\Local\Temp\ccux1vpg.s 			page 4


 172              	.LBE71:
 173              		.loc 4 461 3 view .LVU49
 174              	.LBB78:
 175              	.LBB77:
 176              	.LBB76:
 177              	.LBB74:
 178              	.LBI74:
 179              		.loc 2 544 57 view .LVU50
 180              	.LBB75:
 181              		.loc 2 546 3 view .LVU51
 182 002c 0023     		movs	r3, #0
 183              		.syntax unified
 184              	@ 546 "src/ChibiOS_3.0.2/os/ext/CMSIS/include/core_cmFunc.h" 1
 185 002e 83F31188 		MSR basepri, r3
 186              	@ 0 "" 2
 187              	.LVL9:
 188              		.loc 2 546 3 is_stmt 0 view .LVU52
 189              		.thumb
 190              		.syntax unified
 191              	.LBE75:
 192              	.LBE74:
 193              	.LBE76:
 194              	.LBE77:
 195              	.LBE78:
 196              		.loc 1 103 3 is_stmt 1 view .LVU53
 197              		.loc 1 104 1 is_stmt 0 view .LVU54
 198 0032 10BD     		pop	{r4, pc}
 199              	.LVL10:
 200              	.L5:
 201              		.loc 1 97 5 is_stmt 1 view .LVU55
 202              		.loc 1 97 12 is_stmt 0 view .LVU56
 203 0034 FFF7FEFF 		bl	chSchReadyI
 204              	.LVL11:
 205              		.loc 1 97 12 view .LVU57
 206 0038 F4E7     		b	.L2
 207              	.L7:
 208 003a 00BF     		.align	2
 209              	.L6:
 210 003c 00000000 		.word	ch
 211              		.cfi_endproc
 212              	.LFE219:
 213              		.size	chMsgSend, .-chMsgSend
 214              		.section	.text.chMsgWait,"ax",%progbits
 215              		.align	1
 216              		.p2align 4,,15
 217              		.global	chMsgWait
 218              		.syntax unified
 219              		.thumb
 220              		.thumb_func
 221              		.fpu fpv4-sp-d16
 222              		.type	chMsgWait, %function
 223              	chMsgWait:
 224              	.LFB220:
 225              		.loc 1 120 27 is_stmt 1 view -0
 226              		.cfi_startproc
 227              		@ args = 0, pretend = 0, frame = 0
 228              		@ frame_needed = 0, uses_anonymous_args = 0
ARM GAS  C:\Users\USER\AppData\Local\Temp\ccux1vpg.s 			page 5


 229              		.loc 1 121 3 view .LVU59
 230              		.loc 1 123 3 view .LVU60
 231              	.LBB79:
 232              	.LBI79:
 233              		.loc 3 346 20 view .LVU61
 234              	.LBE79:
 235              		.loc 3 348 3 view .LVU62
 236              	.LBB87:
 237              	.LBB80:
 238              	.LBI80:
 239              		.loc 4 444 20 view .LVU63
 240              	.LBE80:
 241              	.LBE87:
 242              		.loc 4 447 3 view .LVU64
 243              	.LVL12:
 244              	.LBB88:
 245              	.LBB85:
 246              	.LBB81:
 247              	.LBI81:
 248              		.loc 2 544 57 view .LVU65
 249              	.LBB82:
 250              		.loc 2 546 3 view .LVU66
 251              	.LBE82:
 252              	.LBE81:
 253              	.LBE85:
 254              	.LBE88:
 255              		.loc 1 120 27 is_stmt 0 view .LVU67
 256 0000 10B5     		push	{r4, lr}
 257              		.cfi_def_cfa_offset 8
 258              		.cfi_offset 4, -8
 259              		.cfi_offset 14, -4
 260              	.LBB89:
 261              	.LBB86:
 262              	.LBB84:
 263              	.LBB83:
 264              		.loc 2 546 3 view .LVU68
 265 0002 2023     		movs	r3, #32
 266              		.syntax unified
 267              	@ 546 "src/ChibiOS_3.0.2/os/ext/CMSIS/include/core_cmFunc.h" 1
 268 0004 83F31188 		MSR basepri, r3
 269              	@ 0 "" 2
 270              	.LVL13:
 271              		.loc 2 546 3 view .LVU69
 272              		.thumb
 273              		.syntax unified
 274              	.LBE83:
 275              	.LBE84:
 276              	.LBE86:
 277              	.LBE89:
 278              		.loc 3 349 34 is_stmt 1 view .LVU70
 279              		.loc 3 350 20 view .LVU71
 280              		.loc 1 124 3 view .LVU72
 281              		.loc 1 124 8 is_stmt 0 view .LVU73
 282 0008 0B4C     		ldr	r4, .L12
 283 000a A269     		ldr	r2, [r4, #24]
 284              	.LVL14:
 285              	.LBB90:
ARM GAS  C:\Users\USER\AppData\Local\Temp\ccux1vpg.s 			page 6


 286              	.LBI90:
 287              		.file 6 "src/ChibiOS_3.0.2/os/rt/include/chmsg.h"
 288              		.loc 6 79 20 is_stmt 1 view .LVU74
 289              	.LBB91:
 290              		.loc 6 81 21 view .LVU75
 291              		.loc 6 83 3 view .LVU76
 292              		.loc 6 83 31 is_stmt 0 view .LVU77
 293 000c 1346     		mov	r3, r2
 294 000e 53F82C0F 		ldr	r0, [r3, #44]!
 295              	.LVL15:
 296              		.loc 6 83 31 view .LVU78
 297              	.LBE91:
 298              	.LBE90:
 299              		.loc 1 124 6 view .LVU79
 300 0012 9842     		cmp	r0, r3
 301 0014 08D0     		beq	.L11
 302              	.L9:
 303              		.loc 1 127 3 is_stmt 1 view .LVU80
 304              	.LVL16:
 305              	.LBB92:
 306              	.LBI92:
 307              		.loc 5 671 25 view .LVU81
 308              	.LBB93:
 309              		.loc 5 672 3 view .LVU82
 310              		.loc 5 674 3 view .LVU83
 311              		.loc 5 674 19 is_stmt 0 view .LVU84
 312 0016 0168     		ldr	r1, [r0]
 313              		.loc 5 674 15 view .LVU85
 314 0018 D162     		str	r1, [r2, #44]
 315              	.LVL17:
 316              		.loc 5 675 3 is_stmt 1 view .LVU86
 317              	.LBE93:
 318              	.LBE92:
 319              		.loc 1 128 15 is_stmt 0 view .LVU87
 320 001a 0D22     		movs	r2, #13
 321              	.LBB95:
 322              	.LBB94:
 323              		.loc 5 675 23 view .LVU88
 324 001c 4B60     		str	r3, [r1, #4]
 325              		.loc 5 677 3 is_stmt 1 view .LVU89
 326              	.LVL18:
 327              		.loc 5 677 3 is_stmt 0 view .LVU90
 328              	.LBE94:
 329              	.LBE95:
 330              		.loc 1 128 3 is_stmt 1 view .LVU91
 331              	.LBB96:
 332              	.LBB97:
 333              	.LBB98:
 334              	.LBB99:
 335              	.LBB100:
 336              		.loc 2 546 3 is_stmt 0 view .LVU92
 337 001e 0023     		movs	r3, #0
 338              	.LBE100:
 339              	.LBE99:
 340              	.LBE98:
 341              	.LBE97:
 342              	.LBE96:
ARM GAS  C:\Users\USER\AppData\Local\Temp\ccux1vpg.s 			page 7


 343              		.loc 1 128 15 view .LVU93
 344 0020 0277     		strb	r2, [r0, #28]
 345              		.loc 1 129 3 is_stmt 1 view .LVU94
 346              	.LBB107:
 347              	.LBI96:
 348              		.loc 3 358 20 view .LVU95
 349              	.LBB105:
 350              		.loc 3 360 22 view .LVU96
 351              		.loc 3 361 33 view .LVU97
 352              		.loc 3 367 3 view .LVU98
 353              		.loc 3 367 3 view .LVU99
 354              		.loc 3 371 3 view .LVU100
 355              	.LBB103:
 356              	.LBI98:
 357              		.loc 4 458 20 view .LVU101
 358              	.LBE103:
 359              	.LBE105:
 360              	.LBE107:
 361              		.loc 4 461 3 view .LVU102
 362              	.LVL19:
 363              	.LBB108:
 364              	.LBB106:
 365              	.LBB104:
 366              	.LBB102:
 367              	.LBI99:
 368              		.loc 2 544 57 view .LVU103
 369              	.LBB101:
 370              		.loc 2 546 3 view .LVU104
 371              		.syntax unified
 372              	@ 546 "src/ChibiOS_3.0.2/os/ext/CMSIS/include/core_cmFunc.h" 1
 373 0022 83F31188 		MSR basepri, r3
 374              	@ 0 "" 2
 375              	.LVL20:
 376              		.loc 2 546 3 is_stmt 0 view .LVU105
 377              		.thumb
 378              		.syntax unified
 379              	.LBE101:
 380              	.LBE102:
 381              	.LBE104:
 382              	.LBE106:
 383              	.LBE108:
 384              		.loc 1 131 3 is_stmt 1 view .LVU106
 385              		.loc 1 132 1 is_stmt 0 view .LVU107
 386 0026 10BD     		pop	{r4, pc}
 387              	.L11:
 388              		.loc 1 125 5 is_stmt 1 view .LVU108
 389 0028 0E20     		movs	r0, #14
 390 002a FFF7FEFF 		bl	chSchGoSleepS
 391              	.LVL21:
 392 002e A269     		ldr	r2, [r4, #24]
 393 0030 D06A     		ldr	r0, [r2, #44]
 394 0032 02F12C03 		add	r3, r2, #44
 395 0036 EEE7     		b	.L9
 396              	.L13:
 397              		.align	2
 398              	.L12:
 399 0038 00000000 		.word	ch
ARM GAS  C:\Users\USER\AppData\Local\Temp\ccux1vpg.s 			page 8


 400              		.cfi_endproc
 401              	.LFE220:
 402              		.size	chMsgWait, .-chMsgWait
 403              		.section	.text.chMsgRelease,"ax",%progbits
 404              		.align	1
 405              		.p2align 4,,15
 406              		.global	chMsgRelease
 407              		.syntax unified
 408              		.thumb
 409              		.thumb_func
 410              		.fpu fpv4-sp-d16
 411              		.type	chMsgRelease, %function
 412              	chMsgRelease:
 413              	.LVL22:
 414              	.LFB221:
 415              		.loc 1 144 44 view -0
 416              		.cfi_startproc
 417              		@ args = 0, pretend = 0, frame = 0
 418              		@ frame_needed = 0, uses_anonymous_args = 0
 419              		.loc 1 146 3 view .LVU110
 420              	.LBB109:
 421              	.LBI109:
 422              		.loc 3 346 20 view .LVU111
 423              	.LBE109:
 424              		.loc 3 348 3 view .LVU112
 425              	.LBB117:
 426              	.LBB110:
 427              	.LBI110:
 428              		.loc 4 444 20 view .LVU113
 429              	.LBE110:
 430              	.LBE117:
 431              		.loc 4 447 3 view .LVU114
 432              	.LBB118:
 433              	.LBB115:
 434              	.LBB111:
 435              	.LBI111:
 436              		.loc 2 544 57 view .LVU115
 437              	.LBB112:
 438              		.loc 2 546 3 view .LVU116
 439              	.LBE112:
 440              	.LBE111:
 441              	.LBE115:
 442              	.LBE118:
 443              		.loc 1 144 44 is_stmt 0 view .LVU117
 444 0000 08B5     		push	{r3, lr}
 445              		.cfi_def_cfa_offset 8
 446              		.cfi_offset 3, -8
 447              		.cfi_offset 14, -4
 448              	.LBB119:
 449              	.LBB116:
 450              	.LBB114:
 451              	.LBB113:
 452              		.loc 2 546 3 view .LVU118
 453 0002 2023     		movs	r3, #32
 454              		.syntax unified
 455              	@ 546 "src/ChibiOS_3.0.2/os/ext/CMSIS/include/core_cmFunc.h" 1
 456 0004 83F31188 		MSR basepri, r3
ARM GAS  C:\Users\USER\AppData\Local\Temp\ccux1vpg.s 			page 9


 457              	@ 0 "" 2
 458              	.LVL23:
 459              		.loc 2 546 3 view .LVU119
 460              		.thumb
 461              		.syntax unified
 462              	.LBE113:
 463              	.LBE114:
 464              	.LBE116:
 465              	.LBE119:
 466              		.loc 3 349 34 is_stmt 1 view .LVU120
 467              		.loc 3 350 20 view .LVU121
 468              		.loc 1 147 3 view .LVU122
 469              		.loc 1 147 3 view .LVU123
 470              		.loc 1 148 3 view .LVU124
 471              	.LBB120:
 472              	.LBI120:
 473              		.loc 6 111 20 view .LVU125
 474              	.LBB121:
 475              		.loc 6 113 21 view .LVU126
 476              		.loc 6 115 3 view .LVU127
 477 0008 FFF7FEFF 		bl	chSchWakeupS
 478              	.LVL24:
 479              		.loc 6 115 3 is_stmt 0 view .LVU128
 480              	.LBE121:
 481              	.LBE120:
 482              		.loc 1 149 3 is_stmt 1 view .LVU129
 483              	.LBB122:
 484              	.LBI122:
 485              		.loc 3 358 20 view .LVU130
 486              	.LBB123:
 487              		.loc 3 360 22 view .LVU131
 488              		.loc 3 361 33 view .LVU132
 489              		.loc 3 367 3 view .LVU133
 490              		.loc 3 367 3 view .LVU134
 491              		.loc 3 371 3 view .LVU135
 492              	.LBB124:
 493              	.LBI124:
 494              		.loc 4 458 20 view .LVU136
 495              	.LBE124:
 496              	.LBE123:
 497              	.LBE122:
 498              		.loc 4 461 3 view .LVU137
 499              	.LBB129:
 500              	.LBB128:
 501              	.LBB127:
 502              	.LBB125:
 503              	.LBI125:
 504              		.loc 2 544 57 view .LVU138
 505              	.LBB126:
 506              		.loc 2 546 3 view .LVU139
 507 000c 0023     		movs	r3, #0
 508              		.syntax unified
 509              	@ 546 "src/ChibiOS_3.0.2/os/ext/CMSIS/include/core_cmFunc.h" 1
 510 000e 83F31188 		MSR basepri, r3
 511              	@ 0 "" 2
 512              	.LVL25:
 513              		.loc 2 546 3 is_stmt 0 view .LVU140
ARM GAS  C:\Users\USER\AppData\Local\Temp\ccux1vpg.s 			page 10


 514              		.thumb
 515              		.syntax unified
 516              	.LBE126:
 517              	.LBE125:
 518              	.LBE127:
 519              	.LBE128:
 520              	.LBE129:
 521              		.loc 1 150 1 view .LVU141
 522 0012 08BD     		pop	{r3, pc}
 523              		.cfi_endproc
 524              	.LFE221:
 525              		.size	chMsgRelease, .-chMsgRelease
 526              		.text
 527              	.Letext0:
 528              		.file 7 "c:\\program files (x86)\\gnu tools arm embedded\\8 2018-q4-major\\arm-none-eabi\\include\
 529              		.file 8 "c:\\program files (x86)\\gnu tools arm embedded\\8 2018-q4-major\\arm-none-eabi\\include\
 530              		.file 9 "src/ChibiOS_3.0.2/os/rt/ports/ARMCMx/compilers/GCC/chtypes.h"
 531              		.file 10 "src/ChibiOS_3.0.2/os/rt/include/chsystypes.h"
 532              		.file 11 "src/ChibiOS_3.0.2/os/ext/CMSIS/include/core_cm4.h"
 533              		.file 12 "src/ChibiOS_3.0.2/os/ext/CMSIS/ST/system_stm32f4xx.h"
 534              		.file 13 "src/ChibiOS_3.0.2/os/rt/ports/ARMCMx/chcore.h"
 535              		.file 14 "src/ChibiOS_3.0.2/os/rt/include/chtm.h"
 536              		.file 15 "src/ChibiOS_3.0.2/os/rt/include/chsem.h"
 537              		.file 16 "src/ChibiOS_3.0.2/os/rt/include/chmtx.h"
 538              		.file 17 "src/ChibiOS_3.0.2/os/rt/include/chregistry.h"