ARM GAS  C:\Users\USER\AppData\Local\Temp\ccxRmDSd.s 			page 1


   1              		.cpu cortex-m4
   2              		.eabi_attribute 27, 1
   3              		.eabi_attribute 28, 1
   4              		.eabi_attribute 20, 1
   5              		.eabi_attribute 21, 1
   6              		.eabi_attribute 23, 3
   7              		.eabi_attribute 24, 1
   8              		.eabi_attribute 25, 1
   9              		.eabi_attribute 26, 1
  10              		.eabi_attribute 30, 2
  11              		.eabi_attribute 34, 1
  12              		.eabi_attribute 18, 4
  13              		.file	"chmtx.c"
  14              		.text
  15              	.Ltext0:
  16              		.cfi_sections	.debug_frame
  17              		.section	.text.chMtxObjectInit,"ax",%progbits
  18              		.align	1
  19              		.p2align 4,,15
  20              		.global	chMtxObjectInit
  21              		.arch armv7e-m
  22              		.syntax unified
  23              		.thumb
  24              		.thumb_func
  25              		.fpu fpv4-sp-d16
  26              		.type	chMtxObjectInit, %function
  27              	chMtxObjectInit:
  28              	.LVL0:
  29              	.LFB219:
  30              		.file 1 "src/ChibiOS_3.0.2/os/rt/src/chmtx.c"
  31              		.loc 1 103 35 view -0
  32              		.cfi_startproc
  33              		@ args = 0, pretend = 0, frame = 0
  34              		@ frame_needed = 0, uses_anonymous_args = 0
  35              		@ link register save eliminated.
  36              		.loc 1 105 3 view .LVU1
  37              		.loc 1 105 3 view .LVU2
  38              		.loc 1 107 3 view .LVU3
  39              	.LBB103:
  40              	.LBI103:
  41              		.file 2 "src/ChibiOS_3.0.2/os/rt/include/chschd.h"
  42              		.loc 2 602 20 view .LVU4
  43              	.LBB104:
  44              		.loc 2 604 3 view .LVU5
  45              	.LBE104:
  46              	.LBE103:
  47              		.loc 1 108 15 is_stmt 0 view .LVU6
  48 0000 0023     		movs	r3, #0
  49              	.LBB106:
  50              	.LBB105:
  51              		.loc 2 605 15 view .LVU7
  52 0002 C0E90000 		strd	r0, r0, [r0]
  53              	.LVL1:
  54              		.loc 2 605 15 view .LVU8
  55              	.LBE105:
  56              	.LBE106:
  57              		.loc 1 108 3 is_stmt 1 view .LVU9
ARM GAS  C:\Users\USER\AppData\Local\Temp\ccxRmDSd.s 			page 2


  58              		.loc 1 108 15 is_stmt 0 view .LVU10
  59 0006 8360     		str	r3, [r0, #8]
  60              		.loc 1 112 1 view .LVU11
  61 0008 7047     		bx	lr
  62              		.cfi_endproc
  63              	.LFE219:
  64              		.size	chMtxObjectInit, .-chMtxObjectInit
  65 000a 00BF     		.section	.text.chMtxLockS,"ax",%progbits
  66              		.align	1
  67              		.p2align 4,,15
  68              		.global	chMtxLockS
  69              		.syntax unified
  70              		.thumb
  71              		.thumb_func
  72              		.fpu fpv4-sp-d16
  73              		.type	chMtxLockS, %function
  74              	chMtxLockS:
  75              	.LVL2:
  76              	.LFB221:
  77              		.loc 1 139 30 is_stmt 1 view -0
  78              		.cfi_startproc
  79              		@ args = 0, pretend = 0, frame = 0
  80              		@ frame_needed = 0, uses_anonymous_args = 0
  81              		.loc 1 140 3 view .LVU13
  82              		.loc 1 140 13 is_stmt 0 view .LVU14
  83 0000 2E4B     		ldr	r3, .L30
  84              		.loc 1 146 9 view .LVU15
  85 0002 8268     		ldr	r2, [r0, #8]
  86              		.loc 1 139 30 view .LVU16
  87 0004 70B5     		push	{r4, r5, r6, lr}
  88              		.cfi_def_cfa_offset 16
  89              		.cfi_offset 4, -16
  90              		.cfi_offset 5, -12
  91              		.cfi_offset 6, -8
  92              		.cfi_offset 14, -4
  93              		.loc 1 140 13 view .LVU17
  94 0006 9C69     		ldr	r4, [r3, #24]
  95              	.LVL3:
  96              		.loc 1 142 21 is_stmt 1 view .LVU18
  97              		.loc 1 143 3 view .LVU19
  98              		.loc 1 143 3 view .LVU20
  99              		.loc 1 146 3 view .LVU21
 100              		.loc 1 146 6 is_stmt 0 view .LVU22
 101 0008 3AB3     		cbz	r2, .L25
 102              	.LBB107:
 103              		.loc 1 165 30 view .LVU23
 104 000a A168     		ldr	r1, [r4, #8]
 105              		.loc 1 165 13 view .LVU24
 106 000c 9368     		ldr	r3, [r2, #8]
 107 000e 8B42     		cmp	r3, r1
 108 0010 0546     		mov	r5, r0
 109              	.LVL4:
 110              		.loc 1 165 13 view .LVU25
 111 0012 06D2     		bcs	.L9
 112              	.LVL5:
 113              	.L12:
 114              		.loc 1 167 9 is_stmt 1 view .LVU26
ARM GAS  C:\Users\USER\AppData\Local\Temp\ccxRmDSd.s 			page 3


 115              		.loc 1 170 19 is_stmt 0 view .LVU27
 116 0014 137F     		ldrb	r3, [r2, #28]	@ zero_extendqisi2
 117              		.loc 1 167 20 view .LVU28
 118 0016 9160     		str	r1, [r2, #8]
 119              		.loc 1 170 9 is_stmt 1 view .LVU29
 120 0018 062B     		cmp	r3, #6
 121 001a 36D0     		beq	.L6
 122              		.loc 1 170 9 is_stmt 0 view .LVU30
 123 001c 072B     		cmp	r3, #7
 124 001e 21D0     		beq	.L7
 125 0020 9BB1     		cbz	r3, .L26
 126              	.LVL6:
 127              	.L9:
 128              		.loc 1 212 7 is_stmt 1 view .LVU31
 129              	.LBB108:
 130              	.LBI108:
 131              		.loc 2 651 20 view .LVU32
 132              	.LBB109:
 133              		.loc 2 653 3 view .LVU33
 134              		.loc 2 653 13 is_stmt 0 view .LVU34
 135 0022 2B46     		mov	r3, r5
 136 0024 03E0     		b	.L17
 137              	.LVL7:
 138              	.L27:
 139              		.loc 2 656 36 view .LVU35
 140 0026 9968     		ldr	r1, [r3, #8]
 141 0028 A268     		ldr	r2, [r4, #8]
 142 002a 9142     		cmp	r1, r2
 143 002c 02D3     		bcc	.L16
 144              	.L17:
 145              		.loc 2 654 3 is_stmt 1 view .LVU36
 146              		.loc 2 655 5 view .LVU37
 147              		.loc 2 655 8 is_stmt 0 view .LVU38
 148 002e 1B68     		ldr	r3, [r3]
 149              	.LVL8:
 150              		.loc 2 656 3 view .LVU39
 151 0030 9D42     		cmp	r5, r3
 152 0032 F8D1     		bne	.L27
 153              	.L16:
 154              		.loc 2 657 3 is_stmt 1 view .LVU40
 155              		.loc 2 658 18 is_stmt 0 view .LVU41
 156 0034 5A68     		ldr	r2, [r3, #4]
 157              	.LBE109:
 158              	.LBE108:
 159              		.loc 1 214 7 view .LVU42
 160 0036 0620     		movs	r0, #6
 161              	.LBB111:
 162              	.LBB110:
 163              		.loc 2 658 14 view .LVU43
 164 0038 C4E90032 		strd	r3, r2, [r4]
 165              		.loc 2 659 3 is_stmt 1 view .LVU44
 166              		.loc 2 659 22 is_stmt 0 view .LVU45
 167 003c 1460     		str	r4, [r2]
 168              		.loc 2 660 3 is_stmt 1 view .LVU46
 169              		.loc 2 660 14 is_stmt 0 view .LVU47
 170 003e 5C60     		str	r4, [r3, #4]
 171              	.LVL9:
ARM GAS  C:\Users\USER\AppData\Local\Temp\ccxRmDSd.s 			page 4


 172              		.loc 2 660 14 view .LVU48
 173              	.LBE110:
 174              	.LBE111:
 175              		.loc 1 213 7 is_stmt 1 view .LVU49
 176              		.loc 1 213 23 is_stmt 0 view .LVU50
 177 0040 6562     		str	r5, [r4, #36]
 178              		.loc 1 214 7 is_stmt 1 view .LVU51
 179              	.LBE107:
 180              		.loc 1 236 1 is_stmt 0 view .LVU52
 181 0042 BDE87040 		pop	{r4, r5, r6, lr}
 182              		.cfi_remember_state
 183              		.cfi_restore 14
 184              		.cfi_restore 6
 185              		.cfi_restore 5
 186              		.cfi_restore 4
 187              		.cfi_def_cfa_offset 0
 188              	.LVL10:
 189              	.LBB128:
 190              		.loc 1 214 7 view .LVU53
 191 0046 FFF7FEBF 		b	chSchGoSleepS
 192              	.LVL11:
 193              	.L26:
 194              		.cfi_restore_state
 195              		.loc 1 202 11 is_stmt 1 view .LVU54
 196              	.LBB112:
 197              	.LBI112:
 198              		.loc 2 689 25 view .LVU55
 199              	.LBB113:
 200              		.loc 2 691 3 view .LVU56
 201              		.loc 2 691 26 is_stmt 0 view .LVU57
 202 004a D2E90031 		ldrd	r3, r1, [r2]
 203              	.LBE113:
 204              	.LBE112:
 205              		.loc 1 202 18 view .LVU58
 206 004e 1046     		mov	r0, r2
 207              	.LBB115:
 208              	.LBB114:
 209              		.loc 2 691 22 view .LVU59
 210 0050 0B60     		str	r3, [r1]
 211              		.loc 2 692 3 is_stmt 1 view .LVU60
 212              		.loc 2 692 22 is_stmt 0 view .LVU61
 213 0052 5960     		str	r1, [r3, #4]
 214              		.loc 2 694 3 is_stmt 1 view .LVU62
 215              	.LVL12:
 216              		.loc 2 694 3 is_stmt 0 view .LVU63
 217              	.LBE114:
 218              	.LBE115:
 219              		.loc 1 202 18 view .LVU64
 220 0054 FFF7FEFF 		bl	chSchReadyI
 221              	.LVL13:
 222              		.loc 1 203 11 is_stmt 1 view .LVU65
 223 0058 E3E7     		b	.L9
 224              	.LVL14:
 225              	.L25:
 226              		.loc 1 203 11 is_stmt 0 view .LVU66
 227              	.LBE128:
 228              		.loc 1 232 5 is_stmt 1 view .LVU67
ARM GAS  C:\Users\USER\AppData\Local\Temp\ccxRmDSd.s 			page 5


 229              		.loc 1 233 16 is_stmt 0 view .LVU68
 230 005a E36B     		ldr	r3, [r4, #60]
 231 005c C0E90243 		strd	r4, r3, [r0, #8]
 232              		.loc 1 234 5 is_stmt 1 view .LVU69
 233              		.loc 1 234 20 is_stmt 0 view .LVU70
 234 0060 E063     		str	r0, [r4, #60]
 235              		.loc 1 236 1 view .LVU71
 236 0062 70BD     		pop	{r4, r5, r6, pc}
 237              	.LVL15:
 238              	.L7:
 239              	.LBB129:
 240              		.loc 1 193 11 is_stmt 1 view .LVU72
 241              	.LBB116:
 242              	.LBI116:
 243              		.loc 2 689 25 view .LVU73
 244              	.LBB117:
 245              		.loc 2 691 3 view .LVU74
 246              		.loc 2 691 26 is_stmt 0 view .LVU75
 247 0064 D2E90030 		ldrd	r3, r0, [r2]
 248              	.LBE117:
 249              	.LBE116:
 250              		.loc 1 193 11 view .LVU76
 251 0068 566A     		ldr	r6, [r2, #36]
 252              	.LBB119:
 253              	.LBB118:
 254              		.loc 2 691 22 view .LVU77
 255 006a 0360     		str	r3, [r0]
 256              		.loc 2 692 3 is_stmt 1 view .LVU78
 257              		.loc 2 692 22 is_stmt 0 view .LVU79
 258 006c 5860     		str	r0, [r3, #4]
 259              		.loc 2 694 3 is_stmt 1 view .LVU80
 260              	.LVL16:
 261              		.loc 2 694 3 is_stmt 0 view .LVU81
 262              	.LBE118:
 263              	.LBE119:
 264              	.LBB120:
 265              	.LBI120:
 266              		.loc 2 651 20 is_stmt 1 view .LVU82
 267              	.LBB121:
 268              		.loc 2 653 13 is_stmt 0 view .LVU83
 269 006e 3346     		mov	r3, r6
 270 0070 02E0     		b	.L14
 271              	.LVL17:
 272              	.L28:
 273              		.loc 2 656 36 view .LVU84
 274 0072 9868     		ldr	r0, [r3, #8]
 275 0074 8142     		cmp	r1, r0
 276 0076 02D8     		bhi	.L13
 277              	.LVL18:
 278              	.L14:
 279              		.loc 2 654 3 is_stmt 1 view .LVU85
 280              		.loc 2 655 5 view .LVU86
 281              		.loc 2 655 8 is_stmt 0 view .LVU87
 282 0078 1B68     		ldr	r3, [r3]
 283              	.LVL19:
 284              		.loc 2 656 3 view .LVU88
 285 007a 9E42     		cmp	r6, r3
ARM GAS  C:\Users\USER\AppData\Local\Temp\ccxRmDSd.s 			page 6


 286 007c F9D1     		bne	.L28
 287              	.L13:
 288              		.loc 2 657 3 is_stmt 1 view .LVU89
 289              		.loc 2 658 18 is_stmt 0 view .LVU90
 290 007e 5968     		ldr	r1, [r3, #4]
 291              		.loc 2 658 14 view .LVU91
 292 0080 C2E90031 		strd	r3, r1, [r2]
 293              		.loc 2 659 3 is_stmt 1 view .LVU92
 294              		.loc 2 659 22 is_stmt 0 view .LVU93
 295 0084 0A60     		str	r2, [r1]
 296              		.loc 2 660 3 is_stmt 1 view .LVU94
 297              		.loc 2 660 14 is_stmt 0 view .LVU95
 298 0086 5A60     		str	r2, [r3, #4]
 299 0088 CBE7     		b	.L9
 300              	.LVL20:
 301              	.L6:
 302              		.loc 2 660 14 view .LVU96
 303              	.LBE121:
 304              	.LBE120:
 305              		.loc 1 173 11 is_stmt 1 view .LVU97
 306              	.LBB122:
 307              	.LBI122:
 308              		.loc 2 689 25 view .LVU98
 309              	.LBB123:
 310              		.loc 2 691 3 view .LVU99
 311              		.loc 2 691 26 is_stmt 0 view .LVU100
 312 008a D2E90030 		ldrd	r3, r0, [r2]
 313              	.LBE123:
 314              	.LBE122:
 315              		.loc 1 173 56 view .LVU101
 316 008e 566A     		ldr	r6, [r2, #36]
 317              	.LBB125:
 318              	.LBB124:
 319              		.loc 2 691 22 view .LVU102
 320 0090 0360     		str	r3, [r0]
 321              		.loc 2 692 3 is_stmt 1 view .LVU103
 322              		.loc 2 692 22 is_stmt 0 view .LVU104
 323 0092 5860     		str	r0, [r3, #4]
 324              		.loc 2 694 3 is_stmt 1 view .LVU105
 325              	.LVL21:
 326              		.loc 2 694 3 is_stmt 0 view .LVU106
 327              	.LBE124:
 328              	.LBE125:
 329              	.LBB126:
 330              	.LBI126:
 331              		.loc 2 651 20 is_stmt 1 view .LVU107
 332              	.LBB127:
 333              		.loc 2 653 13 is_stmt 0 view .LVU108
 334 0094 3346     		mov	r3, r6
 335 0096 02E0     		b	.L11
 336              	.LVL22:
 337              	.L29:
 338              		.loc 2 656 36 view .LVU109
 339 0098 9868     		ldr	r0, [r3, #8]
 340 009a 8142     		cmp	r1, r0
 341 009c 02D8     		bhi	.L10
 342              	.LVL23:
ARM GAS  C:\Users\USER\AppData\Local\Temp\ccxRmDSd.s 			page 7


 343              	.L11:
 344              		.loc 2 654 3 is_stmt 1 view .LVU110
 345              		.loc 2 655 5 view .LVU111
 346              		.loc 2 655 8 is_stmt 0 view .LVU112
 347 009e 1B68     		ldr	r3, [r3]
 348              	.LVL24:
 349              		.loc 2 656 3 view .LVU113
 350 00a0 9E42     		cmp	r6, r3
 351 00a2 F9D1     		bne	.L29
 352              	.L10:
 353              		.loc 2 657 3 is_stmt 1 view .LVU114
 354              		.loc 2 658 18 is_stmt 0 view .LVU115
 355 00a4 5968     		ldr	r1, [r3, #4]
 356              		.loc 2 658 14 view .LVU116
 357 00a6 C2E90031 		strd	r3, r1, [r2]
 358              		.loc 2 659 3 is_stmt 1 view .LVU117
 359              		.loc 2 659 22 is_stmt 0 view .LVU118
 360 00aa 0A60     		str	r2, [r1]
 361              		.loc 2 660 3 is_stmt 1 view .LVU119
 362              		.loc 2 660 14 is_stmt 0 view .LVU120
 363 00ac 5A60     		str	r2, [r3, #4]
 364              	.LVL25:
 365              		.loc 2 660 14 view .LVU121
 366              	.LBE127:
 367              	.LBE126:
 368              		.loc 1 174 11 is_stmt 1 view .LVU122
 369              		.loc 1 174 14 is_stmt 0 view .LVU123
 370 00ae B268     		ldr	r2, [r6, #8]
 371              	.LVL26:
 372              		.loc 1 176 11 is_stmt 1 view .LVU124
 373              		.loc 1 165 30 is_stmt 0 view .LVU125
 374 00b0 A168     		ldr	r1, [r4, #8]
 375              		.loc 1 165 13 view .LVU126
 376 00b2 9368     		ldr	r3, [r2, #8]
 377 00b4 8B42     		cmp	r3, r1
 378 00b6 ADD3     		bcc	.L12
 379 00b8 B3E7     		b	.L9
 380              	.L31:
 381 00ba 00BF     		.align	2
 382              	.L30:
 383 00bc 00000000 		.word	ch
 384              	.LBE129:
 385              		.cfi_endproc
 386              	.LFE221:
 387              		.size	chMtxLockS, .-chMtxLockS
 388              		.section	.text.chMtxLock,"ax",%progbits
 389              		.align	1
 390              		.p2align 4,,15
 391              		.global	chMtxLock
 392              		.syntax unified
 393              		.thumb
 394              		.thumb_func
 395              		.fpu fpv4-sp-d16
 396              		.type	chMtxLock, %function
 397              	chMtxLock:
 398              	.LVL27:
 399              	.LFB220:
ARM GAS  C:\Users\USER\AppData\Local\Temp\ccxRmDSd.s 			page 8


 400              		.loc 1 123 29 is_stmt 1 view -0
 401              		.cfi_startproc
 402              		@ args = 0, pretend = 0, frame = 0
 403              		@ frame_needed = 0, uses_anonymous_args = 0
 404              		.loc 1 125 3 view .LVU128
 405              	.LBB130:
 406              	.LBI130:
 407              		.file 3 "src/ChibiOS_3.0.2/os/rt/include/chsys.h"
 408              		.loc 3 346 20 view .LVU129
 409              	.LBE130:
 410              		.loc 3 348 3 view .LVU130
 411              	.LBB138:
 412              	.LBB131:
 413              	.LBI131:
 414              		.file 4 "src/ChibiOS_3.0.2/os/rt/ports/ARMCMx/chcore_v7m.h"
 415              		.loc 4 444 20 view .LVU131
 416              	.LBE131:
 417              	.LBE138:
 418              		.loc 4 447 3 view .LVU132
 419              	.LBB139:
 420              	.LBB136:
 421              	.LBB132:
 422              	.LBI132:
 423              		.file 5 "src/ChibiOS_3.0.2/os/ext/CMSIS/include/core_cmFunc.h"
 424              		.loc 5 544 57 view .LVU133
 425              	.LBB133:
 426              		.loc 5 546 3 view .LVU134
 427              	.LBE133:
 428              	.LBE132:
 429              	.LBE136:
 430              	.LBE139:
 431              		.loc 1 123 29 is_stmt 0 view .LVU135
 432 0000 08B5     		push	{r3, lr}
 433              		.cfi_def_cfa_offset 8
 434              		.cfi_offset 3, -8
 435              		.cfi_offset 14, -4
 436              	.LBB140:
 437              	.LBB137:
 438              	.LBB135:
 439              	.LBB134:
 440              		.loc 5 546 3 view .LVU136
 441 0002 2023     		movs	r3, #32
 442              		.syntax unified
 443              	@ 546 "src/ChibiOS_3.0.2/os/ext/CMSIS/include/core_cmFunc.h" 1
 444 0004 83F31188 		MSR basepri, r3
 445              	@ 0 "" 2
 446              	.LVL28:
 447              		.loc 5 546 3 view .LVU137
 448              		.thumb
 449              		.syntax unified
 450              	.LBE134:
 451              	.LBE135:
 452              	.LBE137:
 453              	.LBE140:
 454              		.loc 3 349 34 is_stmt 1 view .LVU138
 455              		.loc 3 350 20 view .LVU139
 456              		.loc 1 126 3 view .LVU140
ARM GAS  C:\Users\USER\AppData\Local\Temp\ccxRmDSd.s 			page 9


 457 0008 FFF7FEFF 		bl	chMtxLockS
 458              	.LVL29:
 459              		.loc 1 127 3 view .LVU141
 460              	.LBB141:
 461              	.LBI141:
 462              		.loc 3 358 20 view .LVU142
 463              	.LBB142:
 464              		.loc 3 360 22 view .LVU143
 465              		.loc 3 361 33 view .LVU144
 466              		.loc 3 367 3 view .LVU145
 467              		.loc 3 367 3 view .LVU146
 468              		.loc 3 371 3 view .LVU147
 469              	.LBB143:
 470              	.LBI143:
 471              		.loc 4 458 20 view .LVU148
 472              	.LBE143:
 473              	.LBE142:
 474              	.LBE141:
 475              		.loc 4 461 3 view .LVU149
 476              	.LBB148:
 477              	.LBB147:
 478              	.LBB146:
 479              	.LBB144:
 480              	.LBI144:
 481              		.loc 5 544 57 view .LVU150
 482              	.LBB145:
 483              		.loc 5 546 3 view .LVU151
 484 000c 0023     		movs	r3, #0
 485              		.syntax unified
 486              	@ 546 "src/ChibiOS_3.0.2/os/ext/CMSIS/include/core_cmFunc.h" 1
 487 000e 83F31188 		MSR basepri, r3
 488              	@ 0 "" 2
 489              	.LVL30:
 490              		.loc 5 546 3 is_stmt 0 view .LVU152
 491              		.thumb
 492              		.syntax unified
 493              	.LBE145:
 494              	.LBE144:
 495              	.LBE146:
 496              	.LBE147:
 497              	.LBE148:
 498              		.loc 1 128 1 view .LVU153
 499 0012 08BD     		pop	{r3, pc}
 500              		.cfi_endproc
 501              	.LFE220:
 502              		.size	chMtxLock, .-chMtxLock
 503              		.section	.text.chMtxTryLock,"ax",%progbits
 504              		.align	1
 505              		.p2align 4,,15
 506              		.global	chMtxTryLock
 507              		.syntax unified
 508              		.thumb
 509              		.thumb_func
 510              		.fpu fpv4-sp-d16
 511              		.type	chMtxTryLock, %function
 512              	chMtxTryLock:
 513              	.LVL31:
ARM GAS  C:\Users\USER\AppData\Local\Temp\ccxRmDSd.s 			page 10


 514              	.LFB222:
 515              		.loc 1 255 32 is_stmt 1 view -0
 516              		.cfi_startproc
 517              		@ args = 0, pretend = 0, frame = 0
 518              		@ frame_needed = 0, uses_anonymous_args = 0
 519              		@ link register save eliminated.
 520              		.loc 1 256 3 view .LVU155
 521              		.loc 1 258 3 view .LVU156
 522              	.LBB162:
 523              	.LBI162:
 524              		.loc 3 346 20 view .LVU157
 525              	.LBE162:
 526              		.loc 3 348 3 view .LVU158
 527              	.LBB170:
 528              	.LBB163:
 529              	.LBI163:
 530              		.loc 4 444 20 view .LVU159
 531              	.LBE163:
 532              	.LBE170:
 533              		.loc 4 447 3 view .LVU160
 534              	.LBB171:
 535              	.LBB168:
 536              	.LBB164:
 537              	.LBI164:
 538              		.loc 5 544 57 view .LVU161
 539              	.LBB165:
 540              		.loc 5 546 3 view .LVU162
 541              	.LBE165:
 542              	.LBE164:
 543              	.LBE168:
 544              	.LBE171:
 545              		.loc 1 255 32 is_stmt 0 view .LVU163
 546 0000 0346     		mov	r3, r0
 547              	.LBB172:
 548              	.LBB169:
 549              	.LBB167:
 550              	.LBB166:
 551              		.loc 5 546 3 view .LVU164
 552 0002 2022     		movs	r2, #32
 553              		.syntax unified
 554              	@ 546 "src/ChibiOS_3.0.2/os/ext/CMSIS/include/core_cmFunc.h" 1
 555 0004 82F31188 		MSR basepri, r2
 556              	@ 0 "" 2
 557              	.LVL32:
 558              		.loc 5 546 3 view .LVU165
 559              		.thumb
 560              		.syntax unified
 561              	.LBE166:
 562              	.LBE167:
 563              	.LBE169:
 564              	.LBE172:
 565              		.loc 3 349 34 is_stmt 1 view .LVU166
 566              		.loc 3 350 20 view .LVU167
 567              		.loc 1 259 3 view .LVU168
 568              	.LBB173:
 569              	.LBI173:
 570              		.loc 1 282 6 view .LVU169
ARM GAS  C:\Users\USER\AppData\Local\Temp\ccxRmDSd.s 			page 11


 571              	.LBB174:
 572              		.loc 1 284 21 view .LVU170
 573              		.loc 1 285 3 view .LVU171
 574              		.loc 1 285 3 view .LVU172
 575              		.loc 1 287 3 view .LVU173
 576              		.loc 1 287 6 is_stmt 0 view .LVU174
 577 0008 8268     		ldr	r2, [r0, #8]
 578 000a 22B1     		cbz	r2, .L37
 579              		.loc 1 297 12 view .LVU175
 580 000c 0020     		movs	r0, #0
 581              	.LVL33:
 582              		.loc 1 297 12 view .LVU176
 583              	.LBE174:
 584              	.LBE173:
 585              		.loc 1 260 3 is_stmt 1 view .LVU177
 586              	.LBB178:
 587              	.LBI178:
 588              		.loc 3 358 20 view .LVU178
 589              	.LBB179:
 590              		.loc 3 360 22 view .LVU179
 591              		.loc 3 361 33 view .LVU180
 592              		.loc 3 367 3 view .LVU181
 593              		.loc 3 367 3 view .LVU182
 594              		.loc 3 371 3 view .LVU183
 595              	.LBB180:
 596              	.LBI180:
 597              		.loc 4 458 20 view .LVU184
 598              	.LBE180:
 599              	.LBE179:
 600              	.LBE178:
 601              		.loc 4 461 3 view .LVU185
 602              	.LBB191:
 603              	.LBB188:
 604              	.LBB185:
 605              	.LBB181:
 606              	.LBI181:
 607              		.loc 5 544 57 view .LVU186
 608              	.LBB182:
 609              		.loc 5 546 3 view .LVU187
 610 000e 0023     		movs	r3, #0
 611              	.LVL34:
 612              		.loc 5 546 3 is_stmt 0 view .LVU188
 613              		.syntax unified
 614              	@ 546 "src/ChibiOS_3.0.2/os/ext/CMSIS/include/core_cmFunc.h" 1
 615 0010 83F31188 		MSR basepri, r3
 616              	@ 0 "" 2
 617              	.LVL35:
 618              		.loc 5 546 3 view .LVU189
 619              		.thumb
 620              		.syntax unified
 621              	.LBE182:
 622              	.LBE181:
 623              	.LBE185:
 624              	.LBE188:
 625              	.LBE191:
 626              		.loc 1 262 3 is_stmt 1 view .LVU190
 627              		.loc 1 263 1 is_stmt 0 view .LVU191
ARM GAS  C:\Users\USER\AppData\Local\Temp\ccxRmDSd.s 			page 12


 628 0014 7047     		bx	lr
 629              	.LVL36:
 630              	.L37:
 631              	.LBB192:
 632              	.LBB177:
 633              	.LBB175:
 634              	.LBI175:
 635              		.loc 1 282 6 is_stmt 1 view .LVU192
 636              	.LBB176:
 637              		.loc 1 305 3 view .LVU193
 638              		.loc 1 305 17 is_stmt 0 view .LVU194
 639 0016 054A     		ldr	r2, .L38
 640 0018 9269     		ldr	r2, [r2, #24]
 641              		.loc 1 305 15 view .LVU195
 642 001a 8260     		str	r2, [r0, #8]
 643              		.loc 1 306 3 is_stmt 1 view .LVU196
 644              		.loc 1 306 14 is_stmt 0 view .LVU197
 645 001c D16B     		ldr	r1, [r2, #60]
 646 001e C160     		str	r1, [r0, #12]
 647              		.loc 1 307 3 is_stmt 1 view .LVU198
 648              		.loc 1 307 20 is_stmt 0 view .LVU199
 649 0020 D363     		str	r3, [r2, #60]
 650              		.loc 1 308 3 is_stmt 1 view .LVU200
 651              	.LVL37:
 652              		.loc 1 307 20 is_stmt 0 view .LVU201
 653 0022 0120     		movs	r0, #1
 654              	.LVL38:
 655              		.loc 1 307 20 view .LVU202
 656              	.LBE176:
 657              	.LBE175:
 658              	.LBE177:
 659              	.LBE192:
 660              		.loc 1 260 3 is_stmt 1 view .LVU203
 661              	.LBB193:
 662              		.loc 3 358 20 view .LVU204
 663              	.LBB189:
 664              		.loc 3 360 22 view .LVU205
 665              		.loc 3 361 33 view .LVU206
 666              		.loc 3 367 3 view .LVU207
 667              		.loc 3 367 3 view .LVU208
 668              		.loc 3 371 3 view .LVU209
 669              	.LBB186:
 670              		.loc 4 458 20 view .LVU210
 671              	.LBE186:
 672              	.LBE189:
 673              	.LBE193:
 674              		.loc 4 461 3 view .LVU211
 675              	.LBB194:
 676              	.LBB190:
 677              	.LBB187:
 678              	.LBB184:
 679              		.loc 5 544 57 view .LVU212
 680              	.LBB183:
 681              		.loc 5 546 3 view .LVU213
 682 0024 0023     		movs	r3, #0
 683              	.LVL39:
 684              		.loc 5 546 3 is_stmt 0 view .LVU214
ARM GAS  C:\Users\USER\AppData\Local\Temp\ccxRmDSd.s 			page 13


 685              		.syntax unified
 686              	@ 546 "src/ChibiOS_3.0.2/os/ext/CMSIS/include/core_cmFunc.h" 1
 687 0026 83F31188 		MSR basepri, r3
 688              	@ 0 "" 2
 689              	.LVL40:
 690              		.loc 5 546 3 view .LVU215
 691              		.thumb
 692              		.syntax unified
 693              	.LBE183:
 694              	.LBE184:
 695              	.LBE187:
 696              	.LBE190:
 697              	.LBE194:
 698              		.loc 1 262 3 is_stmt 1 view .LVU216
 699              		.loc 1 263 1 is_stmt 0 view .LVU217
 700 002a 7047     		bx	lr
 701              	.L39:
 702              		.align	2
 703              	.L38:
 704 002c 00000000 		.word	ch
 705              		.cfi_endproc
 706              	.LFE222:
 707              		.size	chMtxTryLock, .-chMtxTryLock
 708              		.section	.text.chMtxTryLockS,"ax",%progbits
 709              		.align	1
 710              		.p2align 4,,15
 711              		.global	chMtxTryLockS
 712              		.syntax unified
 713              		.thumb
 714              		.thumb_func
 715              		.fpu fpv4-sp-d16
 716              		.type	chMtxTryLockS, %function
 717              	chMtxTryLockS:
 718              	.LVL41:
 719              	.LFB223:
 720              		.loc 1 282 33 is_stmt 1 view -0
 721              		.cfi_startproc
 722              		@ args = 0, pretend = 0, frame = 0
 723              		@ frame_needed = 0, uses_anonymous_args = 0
 724              		@ link register save eliminated.
 725              		.loc 1 284 21 view .LVU219
 726              		.loc 1 285 3 view .LVU220
 727              		.loc 1 285 3 view .LVU221
 728              		.loc 1 287 3 view .LVU222
 729              		.loc 1 287 6 is_stmt 0 view .LVU223
 730 0000 8268     		ldr	r2, [r0, #8]
 731              		.loc 1 282 33 view .LVU224
 732 0002 0346     		mov	r3, r0
 733              		.loc 1 287 6 view .LVU225
 734 0004 0AB1     		cbz	r2, .L43
 735              		.loc 1 297 12 view .LVU226
 736 0006 0020     		movs	r0, #0
 737              	.LVL42:
 738              		.loc 1 309 1 view .LVU227
 739 0008 7047     		bx	lr
 740              	.LVL43:
 741              	.L43:
ARM GAS  C:\Users\USER\AppData\Local\Temp\ccxRmDSd.s 			page 14


 742              	.LBB197:
 743              	.LBI197:
 744              		.loc 1 282 6 is_stmt 1 view .LVU228
 745              	.LBB198:
 746              		.loc 1 305 3 view .LVU229
 747              		.loc 1 305 17 is_stmt 0 view .LVU230
 748 000a 044A     		ldr	r2, .L44
 749 000c 9269     		ldr	r2, [r2, #24]
 750              		.loc 1 305 15 view .LVU231
 751 000e 8260     		str	r2, [r0, #8]
 752              		.loc 1 306 3 is_stmt 1 view .LVU232
 753              		.loc 1 306 14 is_stmt 0 view .LVU233
 754 0010 D16B     		ldr	r1, [r2, #60]
 755 0012 C160     		str	r1, [r0, #12]
 756              		.loc 1 307 3 is_stmt 1 view .LVU234
 757              		.loc 1 307 20 is_stmt 0 view .LVU235
 758 0014 0120     		movs	r0, #1
 759              	.LVL44:
 760              		.loc 1 307 20 view .LVU236
 761 0016 D363     		str	r3, [r2, #60]
 762              		.loc 1 308 3 is_stmt 1 view .LVU237
 763              	.LVL45:
 764              		.loc 1 308 3 is_stmt 0 view .LVU238
 765 0018 7047     		bx	lr
 766              	.L45:
 767 001a 00BF     		.align	2
 768              	.L44:
 769 001c 00000000 		.word	ch
 770              	.LBE198:
 771              	.LBE197:
 772              		.cfi_endproc
 773              	.LFE223:
 774              		.size	chMtxTryLockS, .-chMtxTryLockS
 775              		.section	.text.chMtxUnlock,"ax",%progbits
 776              		.align	1
 777              		.p2align 4,,15
 778              		.global	chMtxUnlock
 779              		.syntax unified
 780              		.thumb
 781              		.thumb_func
 782              		.fpu fpv4-sp-d16
 783              		.type	chMtxUnlock, %function
 784              	chMtxUnlock:
 785              	.LVL46:
 786              	.LFB224:
 787              		.loc 1 323 31 is_stmt 1 view -0
 788              		.cfi_startproc
 789              		@ args = 0, pretend = 0, frame = 0
 790              		@ frame_needed = 0, uses_anonymous_args = 0
 791              		.loc 1 324 3 view .LVU240
 792              		.loc 1 324 13 is_stmt 0 view .LVU241
 793 0000 174B     		ldr	r3, .L57
 794              		.loc 1 323 31 view .LVU242
 795 0002 70B5     		push	{r4, r5, r6, lr}
 796              		.cfi_def_cfa_offset 16
 797              		.cfi_offset 4, -16
 798              		.cfi_offset 5, -12
ARM GAS  C:\Users\USER\AppData\Local\Temp\ccxRmDSd.s 			page 15


 799              		.cfi_offset 6, -8
 800              		.cfi_offset 14, -4
 801              		.loc 1 324 13 view .LVU243
 802 0004 9D69     		ldr	r5, [r3, #24]
 803              	.LVL47:
 804              		.loc 1 325 3 is_stmt 1 view .LVU244
 805              		.loc 1 327 3 view .LVU245
 806              		.loc 1 327 3 view .LVU246
 807              		.loc 1 329 3 view .LVU247
 808              	.LBB199:
 809              	.LBI199:
 810              		.loc 3 346 20 view .LVU248
 811              	.LBE199:
 812              		.loc 3 348 3 view .LVU249
 813              	.LBB204:
 814              	.LBB200:
 815              	.LBI200:
 816              		.loc 4 444 20 view .LVU250
 817              	.LBE200:
 818              	.LBE204:
 819              		.loc 4 447 3 view .LVU251
 820              	.LBB205:
 821              	.LBB203:
 822              	.LBB201:
 823              	.LBI201:
 824              		.loc 5 544 57 view .LVU252
 825              	.LBB202:
 826              		.loc 5 546 3 view .LVU253
 827 0006 2023     		movs	r3, #32
 828              		.syntax unified
 829              	@ 546 "src/ChibiOS_3.0.2/os/ext/CMSIS/include/core_cmFunc.h" 1
 830 0008 83F31188 		MSR basepri, r3
 831              	@ 0 "" 2
 832              	.LVL48:
 833              		.loc 5 546 3 is_stmt 0 view .LVU254
 834              		.thumb
 835              		.syntax unified
 836              	.LBE202:
 837              	.LBE201:
 838              	.LBE203:
 839              	.LBE205:
 840              		.loc 3 349 34 is_stmt 1 view .LVU255
 841              		.loc 3 350 20 view .LVU256
 842              		.loc 1 331 3 view .LVU257
 843              		.loc 1 331 3 view .LVU258
 844              		.loc 1 332 3 view .LVU259
 845              		.loc 1 332 3 view .LVU260
 846              		.loc 1 339 5 view .LVU261
 847              		.loc 1 339 5 view .LVU262
 848              		.loc 1 344 5 view .LVU263
 849              	.LBB206:
 850              	.LBB207:
 851              	.LBB208:
 852              	.LBB209:
 853              		.loc 2 631 20 is_stmt 0 view .LVU264
 854 000c 0468     		ldr	r4, [r0]
 855              	.LBE209:
ARM GAS  C:\Users\USER\AppData\Local\Temp\ccxRmDSd.s 			page 16


 856              	.LBE208:
 857              	.LBE207:
 858              	.LBE206:
 859              		.loc 1 344 24 view .LVU265
 860 000e C368     		ldr	r3, [r0, #12]
 861              		.loc 1 344 20 view .LVU266
 862 0010 EB63     		str	r3, [r5, #60]
 863              		.loc 1 347 5 is_stmt 1 view .LVU267
 864              	.LVL49:
 865              	.LBB213:
 866              	.LBI206:
 867              		.file 6 "src/ChibiOS_3.0.2/os/rt/include/chmtx.h"
 868              		.loc 6 129 20 view .LVU268
 869              	.LBB212:
 870              		.loc 6 131 21 view .LVU269
 871              		.loc 6 133 3 view .LVU270
 872              	.LBB211:
 873              	.LBI208:
 874              		.loc 2 629 20 view .LVU271
 875              	.LBB210:
 876              		.loc 2 631 3 view .LVU272
 877              		.loc 2 631 3 is_stmt 0 view .LVU273
 878              	.LBE210:
 879              	.LBE211:
 880              	.LBE212:
 881              	.LBE213:
 882              		.loc 1 347 8 view .LVU274
 883 0012 8442     		cmp	r4, r0
 884 0014 1DD0     		beq	.L47
 885              	.LBB214:
 886              		.loc 1 348 7 is_stmt 1 view .LVU275
 887              		.loc 1 352 7 view .LVU276
 888              		.loc 1 352 15 is_stmt 0 view .LVU277
 889 0016 296C     		ldr	r1, [r5, #64]
 890              	.LVL50:
 891              		.loc 1 353 7 is_stmt 1 view .LVU278
 892              		.loc 1 354 7 view .LVU279
 893              		.loc 1 354 13 is_stmt 0 view .LVU280
 894 0018 4BB1     		cbz	r3, .L48
 895              	.L50:
 896              		.loc 1 358 9 is_stmt 1 view .LVU281
 897              	.LVL51:
 898              	.LBB215:
 899              	.LBI215:
 900              		.loc 6 129 20 view .LVU282
 901              	.LBB216:
 902              		.loc 6 131 21 view .LVU283
 903              		.loc 6 133 3 view .LVU284
 904              	.LBB217:
 905              	.LBI217:
 906              		.loc 2 629 20 view .LVU285
 907              	.LBB218:
 908              		.loc 2 631 3 view .LVU286
 909              		.loc 2 631 20 is_stmt 0 view .LVU287
 910 001a 1A68     		ldr	r2, [r3]
 911              	.LVL52:
 912              		.loc 2 631 20 view .LVU288
ARM GAS  C:\Users\USER\AppData\Local\Temp\ccxRmDSd.s 			page 17


 913              	.LBE218:
 914              	.LBE217:
 915              	.LBE216:
 916              	.LBE215:
 917              		.loc 1 358 12 view .LVU289
 918 001c 9342     		cmp	r3, r2
 919 001e 03D0     		beq	.L49
 920              		.loc 1 358 12 view .LVU290
 921 0020 9268     		ldr	r2, [r2, #8]
 922 0022 9142     		cmp	r1, r2
 923 0024 38BF     		it	cc
 924 0026 1146     		movcc	r1, r2
 925              	.LVL53:
 926              	.L49:
 927              		.loc 1 362 9 is_stmt 1 view .LVU291
 928              		.loc 1 362 13 is_stmt 0 view .LVU292
 929 0028 DB68     		ldr	r3, [r3, #12]
 930              	.LVL54:
 931              		.loc 1 354 13 view .LVU293
 932 002a 002B     		cmp	r3, #0
 933 002c F5D1     		bne	.L50
 934              	.L48:
 935              		.loc 1 354 13 view .LVU294
 936 002e 0346     		mov	r3, r0
 937              	.LVL55:
 938              		.loc 1 367 7 is_stmt 1 view .LVU295
 939              	.LBB219:
 940              	.LBB220:
 941              		.loc 2 674 19 is_stmt 0 view .LVU296
 942 0030 2268     		ldr	r2, [r4]
 943              	.LBE220:
 944              	.LBE219:
 945              		.loc 1 376 18 view .LVU297
 946 0032 E66B     		ldr	r6, [r4, #60]
 947              		.loc 1 367 19 view .LVU298
 948 0034 A960     		str	r1, [r5, #8]
 949              		.loc 1 374 7 is_stmt 1 view .LVU299
 950              	.LVL56:
 951              	.LBB223:
 952              	.LBI219:
 953              		.loc 2 671 25 view .LVU300
 954              	.LBB221:
 955              		.loc 2 672 3 view .LVU301
 956              		.loc 2 674 3 view .LVU302
 957              	.LBE221:
 958              	.LBE223:
 959              		.loc 1 383 14 is_stmt 0 view .LVU303
 960 0036 2046     		mov	r0, r4
 961              	.LVL57:
 962              	.LBB224:
 963              	.LBB222:
 964              		.loc 2 674 15 view .LVU304
 965 0038 1A60     		str	r2, [r3]
 966              		.loc 2 675 3 is_stmt 1 view .LVU305
 967              		.loc 2 675 23 is_stmt 0 view .LVU306
 968 003a 5360     		str	r3, [r2, #4]
 969              		.loc 2 677 3 is_stmt 1 view .LVU307
ARM GAS  C:\Users\USER\AppData\Local\Temp\ccxRmDSd.s 			page 18


 970              	.LVL58:
 971              		.loc 2 677 3 is_stmt 0 view .LVU308
 972              	.LBE222:
 973              	.LBE224:
 974              		.loc 1 375 7 is_stmt 1 view .LVU309
 975              		.loc 1 376 18 is_stmt 0 view .LVU310
 976 003c C3E90246 		strd	r4, r6, [r3, #8]
 977              		.loc 1 377 7 is_stmt 1 view .LVU311
 978              		.loc 1 377 21 is_stmt 0 view .LVU312
 979 0040 E363     		str	r3, [r4, #60]
 980              		.loc 1 383 7 is_stmt 1 view .LVU313
 981              		.loc 1 383 14 is_stmt 0 view .LVU314
 982 0042 FFF7FEFF 		bl	chSchReadyI
 983              	.LVL59:
 984              		.loc 1 384 7 is_stmt 1 view .LVU315
 985 0046 FFF7FEFF 		bl	chSchRescheduleS
 986              	.LVL60:
 987              	.LBE214:
 988              		.loc 1 393 3 view .LVU316
 989              	.LBB225:
 990              	.LBI225:
 991              		.loc 3 358 20 view .LVU317
 992              	.LBB226:
 993              		.loc 3 360 22 view .LVU318
 994              		.loc 3 361 33 view .LVU319
 995              		.loc 3 367 3 view .LVU320
 996              		.loc 3 367 3 view .LVU321
 997              		.loc 3 371 3 view .LVU322
 998              	.LBB227:
 999              	.LBI227:
 1000              		.loc 4 458 20 view .LVU323
 1001              	.LBE227:
 1002              	.LBE226:
 1003              	.LBE225:
 1004              		.loc 4 461 3 view .LVU324
 1005              	.LBB238:
 1006              	.LBB235:
 1007              	.LBB232:
 1008              	.LBB228:
 1009              	.LBI228:
 1010              		.loc 5 544 57 view .LVU325
 1011              	.LBB229:
 1012              		.loc 5 546 3 view .LVU326
 1013 004a 0023     		movs	r3, #0
 1014              		.syntax unified
 1015              	@ 546 "src/ChibiOS_3.0.2/os/ext/CMSIS/include/core_cmFunc.h" 1
 1016 004c 83F31188 		MSR basepri, r3
 1017              	@ 0 "" 2
 1018              	.LVL61:
 1019              		.loc 5 546 3 is_stmt 0 view .LVU327
 1020              		.thumb
 1021              		.syntax unified
 1022              	.LBE229:
 1023              	.LBE228:
 1024              	.LBE232:
 1025              	.LBE235:
 1026              	.LBE238:
ARM GAS  C:\Users\USER\AppData\Local\Temp\ccxRmDSd.s 			page 19


 1027              		.loc 1 394 1 view .LVU328
 1028 0050 70BD     		pop	{r4, r5, r6, pc}
 1029              	.LVL62:
 1030              	.L47:
 1031              		.loc 1 387 7 is_stmt 1 view .LVU329
 1032              		.loc 1 387 19 is_stmt 0 view .LVU330
 1033 0052 0023     		movs	r3, #0
 1034 0054 A360     		str	r3, [r4, #8]
 1035              		.loc 1 393 3 is_stmt 1 view .LVU331
 1036              	.LBB239:
 1037              		.loc 3 358 20 view .LVU332
 1038              	.LBB236:
 1039              		.loc 3 360 22 view .LVU333
 1040              		.loc 3 361 33 view .LVU334
 1041              		.loc 3 367 3 view .LVU335
 1042              		.loc 3 367 3 view .LVU336
 1043              		.loc 3 371 3 view .LVU337
 1044              	.LBB233:
 1045              		.loc 4 458 20 view .LVU338
 1046              	.LBE233:
 1047              	.LBE236:
 1048              	.LBE239:
 1049              		.loc 4 461 3 view .LVU339
 1050              	.LVL63:
 1051              	.LBB240:
 1052              	.LBB237:
 1053              	.LBB234:
 1054              	.LBB231:
 1055              		.loc 5 544 57 view .LVU340
 1056              	.LBB230:
 1057              		.loc 5 546 3 view .LVU341
 1058 0056 0023     		movs	r3, #0
 1059              		.syntax unified
 1060              	@ 546 "src/ChibiOS_3.0.2/os/ext/CMSIS/include/core_cmFunc.h" 1
 1061 0058 83F31188 		MSR basepri, r3
 1062              	@ 0 "" 2
 1063              	.LVL64:
 1064              		.loc 5 546 3 is_stmt 0 view .LVU342
 1065              		.thumb
 1066              		.syntax unified
 1067              	.LBE230:
 1068              	.LBE231:
 1069              	.LBE234:
 1070              	.LBE237:
 1071              	.LBE240:
 1072              		.loc 1 394 1 view .LVU343
 1073 005c 70BD     		pop	{r4, r5, r6, pc}
 1074              	.LVL65:
 1075              	.L58:
 1076              		.loc 1 394 1 view .LVU344
 1077 005e 00BF     		.align	2
 1078              	.L57:
 1079 0060 00000000 		.word	ch
 1080              		.cfi_endproc
 1081              	.LFE224:
 1082              		.size	chMtxUnlock, .-chMtxUnlock
 1083              		.section	.text.chMtxUnlockS,"ax",%progbits
ARM GAS  C:\Users\USER\AppData\Local\Temp\ccxRmDSd.s 			page 20


 1084              		.align	1
 1085              		.p2align 4,,15
 1086              		.global	chMtxUnlockS
 1087              		.syntax unified
 1088              		.thumb
 1089              		.thumb_func
 1090              		.fpu fpv4-sp-d16
 1091              		.type	chMtxUnlockS, %function
 1092              	chMtxUnlockS:
 1093              	.LVL66:
 1094              	.LFB225:
 1095              		.loc 1 410 32 is_stmt 1 view -0
 1096              		.cfi_startproc
 1097              		@ args = 0, pretend = 0, frame = 0
 1098              		@ frame_needed = 0, uses_anonymous_args = 0
 1099              		@ link register save eliminated.
 1100              		.loc 1 411 3 view .LVU346
 1101              		.loc 1 411 13 is_stmt 0 view .LVU347
 1102 0000 124B     		ldr	r3, .L69
 1103              		.loc 1 410 32 view .LVU348
 1104 0002 30B4     		push	{r4, r5}
 1105              		.cfi_def_cfa_offset 8
 1106              		.cfi_offset 4, -8
 1107              		.cfi_offset 5, -4
 1108              		.loc 1 410 32 view .LVU349
 1109 0004 0446     		mov	r4, r0
 1110              	.LBB241:
 1111              	.LBB242:
 1112              	.LBB243:
 1113              	.LBB244:
 1114              		.loc 2 631 20 view .LVU350
 1115 0006 0568     		ldr	r5, [r0]
 1116              	.LBE244:
 1117              	.LBE243:
 1118              	.LBE242:
 1119              	.LBE241:
 1120              		.loc 1 411 13 view .LVU351
 1121 0008 9869     		ldr	r0, [r3, #24]
 1122              	.LVL67:
 1123              		.loc 1 412 3 is_stmt 1 view .LVU352
 1124              		.loc 1 414 21 view .LVU353
 1125              		.loc 1 415 3 view .LVU354
 1126              		.loc 1 415 3 view .LVU355
 1127              		.loc 1 417 3 view .LVU356
 1128              		.loc 1 417 3 view .LVU357
 1129              		.loc 1 418 3 view .LVU358
 1130              		.loc 1 418 3 view .LVU359
 1131              		.loc 1 425 5 view .LVU360
 1132              		.loc 1 425 5 view .LVU361
 1133              		.loc 1 430 5 view .LVU362
 1134              		.loc 1 430 24 is_stmt 0 view .LVU363
 1135 000a E368     		ldr	r3, [r4, #12]
 1136              		.loc 1 430 20 view .LVU364
 1137 000c C363     		str	r3, [r0, #60]
 1138              		.loc 1 433 5 is_stmt 1 view .LVU365
 1139              	.LVL68:
 1140              	.LBB248:
ARM GAS  C:\Users\USER\AppData\Local\Temp\ccxRmDSd.s 			page 21


 1141              	.LBI241:
 1142              		.loc 6 129 20 view .LVU366
 1143              	.LBB247:
 1144              		.loc 6 131 21 view .LVU367
 1145              		.loc 6 133 3 view .LVU368
 1146              	.LBB246:
 1147              	.LBI243:
 1148              		.loc 2 629 20 view .LVU369
 1149              	.LBB245:
 1150              		.loc 2 631 3 view .LVU370
 1151              		.loc 2 631 3 is_stmt 0 view .LVU371
 1152              	.LBE245:
 1153              	.LBE246:
 1154              	.LBE247:
 1155              	.LBE248:
 1156              		.loc 1 433 8 view .LVU372
 1157 000e A542     		cmp	r5, r4
 1158 0010 17D0     		beq	.L60
 1159              	.LBB249:
 1160              		.loc 1 434 7 is_stmt 1 view .LVU373
 1161              		.loc 1 438 7 view .LVU374
 1162              		.loc 1 438 15 is_stmt 0 view .LVU375
 1163 0012 016C     		ldr	r1, [r0, #64]
 1164              	.LVL69:
 1165              		.loc 1 439 7 is_stmt 1 view .LVU376
 1166              		.loc 1 440 7 view .LVU377
 1167              		.loc 1 440 13 is_stmt 0 view .LVU378
 1168 0014 4BB1     		cbz	r3, .L61
 1169              	.L63:
 1170              		.loc 1 444 9 is_stmt 1 view .LVU379
 1171              	.LVL70:
 1172              	.LBB250:
 1173              	.LBI250:
 1174              		.loc 6 129 20 view .LVU380
 1175              	.LBB251:
 1176              		.loc 6 131 21 view .LVU381
 1177              		.loc 6 133 3 view .LVU382
 1178              	.LBB252:
 1179              	.LBI252:
 1180              		.loc 2 629 20 view .LVU383
 1181              	.LBB253:
 1182              		.loc 2 631 3 view .LVU384
 1183              		.loc 2 631 20 is_stmt 0 view .LVU385
 1184 0016 1A68     		ldr	r2, [r3]
 1185              	.LVL71:
 1186              		.loc 2 631 20 view .LVU386
 1187              	.LBE253:
 1188              	.LBE252:
 1189              	.LBE251:
 1190              	.LBE250:
 1191              		.loc 1 444 12 view .LVU387
 1192 0018 9342     		cmp	r3, r2
 1193 001a 03D0     		beq	.L62
 1194              		.loc 1 444 12 view .LVU388
 1195 001c 9268     		ldr	r2, [r2, #8]
 1196 001e 9142     		cmp	r1, r2
 1197 0020 38BF     		it	cc
ARM GAS  C:\Users\USER\AppData\Local\Temp\ccxRmDSd.s 			page 22


 1198 0022 1146     		movcc	r1, r2
 1199              	.LVL72:
 1200              	.L62:
 1201              		.loc 1 448 9 is_stmt 1 view .LVU389
 1202              		.loc 1 448 13 is_stmt 0 view .LVU390
 1203 0024 DB68     		ldr	r3, [r3, #12]
 1204              	.LVL73:
 1205              		.loc 1 440 13 view .LVU391
 1206 0026 002B     		cmp	r3, #0
 1207 0028 F5D1     		bne	.L63
 1208              	.L61:
 1209              		.loc 1 453 7 is_stmt 1 view .LVU392
 1210              		.loc 1 462 18 is_stmt 0 view .LVU393
 1211 002a EA6B     		ldr	r2, [r5, #60]
 1212              	.LBB254:
 1213              	.LBB255:
 1214              		.loc 2 674 19 view .LVU394
 1215 002c 2B68     		ldr	r3, [r5]
 1216              	.LVL74:
 1217              		.loc 2 674 19 view .LVU395
 1218              	.LBE255:
 1219              	.LBE254:
 1220              		.loc 1 453 19 view .LVU396
 1221 002e 8160     		str	r1, [r0, #8]
 1222              		.loc 1 460 7 is_stmt 1 view .LVU397
 1223              	.LVL75:
 1224              	.LBB258:
 1225              	.LBI254:
 1226              		.loc 2 671 25 view .LVU398
 1227              	.LBB256:
 1228              		.loc 2 672 3 view .LVU399
 1229              		.loc 2 674 3 view .LVU400
 1230              		.loc 2 674 15 is_stmt 0 view .LVU401
 1231 0030 2360     		str	r3, [r4]
 1232              		.loc 2 675 3 is_stmt 1 view .LVU402
 1233              	.LBE256:
 1234              	.LBE258:
 1235              		.loc 1 464 14 is_stmt 0 view .LVU403
 1236 0032 2846     		mov	r0, r5
 1237              	.LVL76:
 1238              	.LBB259:
 1239              	.LBB257:
 1240              		.loc 2 675 23 view .LVU404
 1241 0034 5C60     		str	r4, [r3, #4]
 1242              		.loc 2 677 3 is_stmt 1 view .LVU405
 1243              	.LVL77:
 1244              		.loc 2 677 3 is_stmt 0 view .LVU406
 1245              	.LBE257:
 1246              	.LBE259:
 1247              		.loc 1 461 7 is_stmt 1 view .LVU407
 1248              		.loc 1 462 18 is_stmt 0 view .LVU408
 1249 0036 C4E90252 		strd	r5, r2, [r4, #8]
 1250              		.loc 1 463 7 is_stmt 1 view .LVU409
 1251              		.loc 1 463 21 is_stmt 0 view .LVU410
 1252 003a EC63     		str	r4, [r5, #60]
 1253              		.loc 1 464 7 is_stmt 1 view .LVU411
 1254              	.LBE249:
ARM GAS  C:\Users\USER\AppData\Local\Temp\ccxRmDSd.s 			page 23


 1255              		.loc 1 472 1 is_stmt 0 view .LVU412
 1256 003c 30BC     		pop	{r4, r5}
 1257              		.cfi_remember_state
 1258              		.cfi_restore 5
 1259              		.cfi_restore 4
 1260              		.cfi_def_cfa_offset 0
 1261              	.LVL78:
 1262              	.LBB260:
 1263              		.loc 1 464 14 view .LVU413
 1264 003e FFF7FEBF 		b	chSchReadyI
 1265              	.LVL79:
 1266              	.L60:
 1267              		.cfi_restore_state
 1268              		.loc 1 464 14 view .LVU414
 1269              	.LBE260:
 1270              		.loc 1 467 7 is_stmt 1 view .LVU415
 1271              		.loc 1 467 19 is_stmt 0 view .LVU416
 1272 0042 0023     		movs	r3, #0
 1273 0044 AB60     		str	r3, [r5, #8]
 1274              		.loc 1 472 1 view .LVU417
 1275 0046 30BC     		pop	{r4, r5}
 1276              		.cfi_restore 5
 1277              		.cfi_restore 4
 1278              		.cfi_def_cfa_offset 0
 1279              	.LVL80:
 1280              		.loc 1 472 1 view .LVU418
 1281 0048 7047     		bx	lr
 1282              	.L70:
 1283 004a 00BF     		.align	2
 1284              	.L69:
 1285 004c 00000000 		.word	ch
 1286              		.cfi_endproc
 1287              	.LFE225:
 1288              		.size	chMtxUnlockS, .-chMtxUnlockS
 1289              		.section	.text.chMtxUnlockAll,"ax",%progbits
 1290              		.align	1
 1291              		.p2align 4,,15
 1292              		.global	chMtxUnlockAll
 1293              		.syntax unified
 1294              		.thumb
 1295              		.thumb_func
 1296              		.fpu fpv4-sp-d16
 1297              		.type	chMtxUnlockAll, %function
 1298              	chMtxUnlockAll:
 1299              	.LFB226:
 1300              		.loc 1 485 27 is_stmt 1 view -0
 1301              		.cfi_startproc
 1302              		@ args = 0, pretend = 0, frame = 0
 1303              		@ frame_needed = 0, uses_anonymous_args = 0
 1304              		.loc 1 486 3 view .LVU420
 1305              		.loc 1 486 13 is_stmt 0 view .LVU421
 1306 0000 134A     		ldr	r2, .L82
 1307              		.loc 1 485 27 view .LVU422
 1308 0002 70B5     		push	{r4, r5, r6, lr}
 1309              		.cfi_def_cfa_offset 16
 1310              		.cfi_offset 4, -16
 1311              		.cfi_offset 5, -12
ARM GAS  C:\Users\USER\AppData\Local\Temp\ccxRmDSd.s 			page 24


 1312              		.cfi_offset 6, -8
 1313              		.cfi_offset 14, -4
 1314              	.LBB261:
 1315              	.LBB262:
 1316              	.LBB263:
 1317              	.LBB264:
 1318              		.loc 5 546 3 view .LVU423
 1319 0004 2023     		movs	r3, #32
 1320              	.LBE264:
 1321              	.LBE263:
 1322              	.LBE262:
 1323              	.LBE261:
 1324              		.loc 1 486 13 view .LVU424
 1325 0006 9469     		ldr	r4, [r2, #24]
 1326              	.LVL81:
 1327              		.loc 1 488 3 is_stmt 1 view .LVU425
 1328              	.LBB269:
 1329              	.LBI261:
 1330              		.loc 3 346 20 view .LVU426
 1331              	.LBE269:
 1332              		.loc 3 348 3 view .LVU427
 1333              	.LBB270:
 1334              	.LBB267:
 1335              	.LBI262:
 1336              		.loc 4 444 20 view .LVU428
 1337              	.LBE267:
 1338              	.LBE270:
 1339              		.loc 4 447 3 view .LVU429
 1340              	.LBB271:
 1341              	.LBB268:
 1342              	.LBB266:
 1343              	.LBI263:
 1344              		.loc 5 544 57 view .LVU430
 1345              	.LBB265:
 1346              		.loc 5 546 3 view .LVU431
 1347              		.syntax unified
 1348              	@ 546 "src/ChibiOS_3.0.2/os/ext/CMSIS/include/core_cmFunc.h" 1
 1349 0008 83F31188 		MSR basepri, r3
 1350              	@ 0 "" 2
 1351              	.LVL82:
 1352              		.loc 5 546 3 is_stmt 0 view .LVU432
 1353              		.thumb
 1354              		.syntax unified
 1355              	.LBE265:
 1356              	.LBE266:
 1357              	.LBE268:
 1358              	.LBE271:
 1359              		.loc 3 349 34 is_stmt 1 view .LVU433
 1360              		.loc 3 350 20 view .LVU434
 1361              		.loc 1 489 3 view .LVU435
 1362              		.loc 1 489 10 is_stmt 0 view .LVU436
 1363 000c E36B     		ldr	r3, [r4, #60]
 1364              		.loc 1 489 6 view .LVU437
 1365 000e B3B1     		cbz	r3, .L72
 1366              	.LBB272:
 1367              		.loc 1 507 21 view .LVU438
 1368 0010 0026     		movs	r6, #0
ARM GAS  C:\Users\USER\AppData\Local\Temp\ccxRmDSd.s 			page 25


 1369              	.L75:
 1370              		.loc 1 507 21 view .LVU439
 1371              	.LBE272:
 1372              		.loc 1 490 5 is_stmt 1 view .LVU440
 1373              	.LBB291:
 1374              		.loc 1 491 7 view .LVU441
 1375              	.LVL83:
 1376              		.loc 1 492 7 view .LVU442
 1377              	.LBB273:
 1378              		.loc 1 497 9 view .LVU443
 1379              	.LBB274:
 1380              	.LBI274:
 1381              		.loc 2 671 25 view .LVU444
 1382              	.LBB275:
 1383              		.loc 2 672 3 view .LVU445
 1384              	.LBE275:
 1385              	.LBE274:
 1386              	.LBE273:
 1387              		.loc 1 507 9 view .LVU446
 1388              	.LBB280:
 1389              	.LBB281:
 1390              	.LBB282:
 1391              	.LBB283:
 1392              		.loc 2 631 20 is_stmt 0 view .LVU447
 1393 0012 1A68     		ldr	r2, [r3]
 1394              	.LVL84:
 1395              		.loc 2 631 20 view .LVU448
 1396              	.LBE283:
 1397              	.LBE282:
 1398              	.LBE281:
 1399              	.LBE280:
 1400              	.LBB287:
 1401              	.LBB278:
 1402              	.LBB276:
 1403              		.loc 2 674 3 is_stmt 1 view .LVU449
 1404              	.LBE276:
 1405              	.LBE278:
 1406              	.LBE287:
 1407              		.loc 1 492 26 is_stmt 0 view .LVU450
 1408 0014 D968     		ldr	r1, [r3, #12]
 1409              		.loc 1 492 22 view .LVU451
 1410 0016 E163     		str	r1, [r4, #60]
 1411              	.LVL85:
 1412              		.loc 1 493 7 is_stmt 1 view .LVU452
 1413              	.LBB288:
 1414              	.LBI280:
 1415              		.loc 6 129 20 view .LVU453
 1416              	.LBB286:
 1417              		.loc 6 131 21 view .LVU454
 1418              		.loc 6 133 3 view .LVU455
 1419              	.LBB285:
 1420              	.LBI282:
 1421              		.loc 2 629 20 view .LVU456
 1422              	.LBB284:
 1423              		.loc 2 631 3 view .LVU457
 1424              		.loc 2 631 3 is_stmt 0 view .LVU458
 1425              	.LBE284:
ARM GAS  C:\Users\USER\AppData\Local\Temp\ccxRmDSd.s 			page 26


 1426              	.LBE285:
 1427              	.LBE286:
 1428              	.LBE288:
 1429              		.loc 1 493 10 view .LVU459
 1430 0018 9342     		cmp	r3, r2
 1431              	.LBB289:
 1432              		.loc 1 501 16 view .LVU460
 1433 001a 1046     		mov	r0, r2
 1434              	.LBE289:
 1435              		.loc 1 493 10 view .LVU461
 1436 001c 13D0     		beq	.L73
 1437              	.LBB290:
 1438              		.loc 1 499 20 view .LVU462
 1439 001e D56B     		ldr	r5, [r2, #60]
 1440              	.LBB279:
 1441              	.LBB277:
 1442              		.loc 2 674 19 view .LVU463
 1443 0020 1168     		ldr	r1, [r2]
 1444              		.loc 2 674 15 view .LVU464
 1445 0022 1960     		str	r1, [r3]
 1446              		.loc 2 675 3 is_stmt 1 view .LVU465
 1447              		.loc 2 675 23 is_stmt 0 view .LVU466
 1448 0024 4B60     		str	r3, [r1, #4]
 1449              		.loc 2 677 3 is_stmt 1 view .LVU467
 1450              	.LVL86:
 1451              		.loc 2 677 3 is_stmt 0 view .LVU468
 1452              	.LBE277:
 1453              	.LBE279:
 1454              		.loc 1 498 9 is_stmt 1 view .LVU469
 1455              		.loc 1 499 20 is_stmt 0 view .LVU470
 1456 0026 C3E90225 		strd	r2, r5, [r3, #8]
 1457              		.loc 1 500 9 is_stmt 1 view .LVU471
 1458              		.loc 1 500 23 is_stmt 0 view .LVU472
 1459 002a D363     		str	r3, [r2, #60]
 1460              		.loc 1 501 9 is_stmt 1 view .LVU473
 1461              		.loc 1 501 16 is_stmt 0 view .LVU474
 1462 002c FFF7FEFF 		bl	chSchReadyI
 1463              	.LVL87:
 1464              		.loc 1 501 16 view .LVU475
 1465 0030 E36B     		ldr	r3, [r4, #60]
 1466              	.LBE290:
 1467              	.LBE291:
 1468              		.loc 1 509 5 view .LVU476
 1469 0032 002B     		cmp	r3, #0
 1470 0034 EDD1     		bne	.L75
 1471              	.L81:
 1472              		.loc 1 510 5 is_stmt 1 view .LVU477
 1473              		.loc 1 510 17 is_stmt 0 view .LVU478
 1474 0036 236C     		ldr	r3, [r4, #64]
 1475 0038 A360     		str	r3, [r4, #8]
 1476              		.loc 1 511 5 is_stmt 1 view .LVU479
 1477 003a FFF7FEFF 		bl	chSchRescheduleS
 1478              	.LVL88:
 1479              	.L72:
 1480              		.loc 1 513 3 view .LVU480
 1481              	.LBB292:
 1482              	.LBI292:
ARM GAS  C:\Users\USER\AppData\Local\Temp\ccxRmDSd.s 			page 27


 1483              		.loc 3 358 20 view .LVU481
 1484              	.LBB293:
 1485              		.loc 3 360 22 view .LVU482
 1486              		.loc 3 361 33 view .LVU483
 1487              		.loc 3 367 3 view .LVU484
 1488              		.loc 3 367 3 view .LVU485
 1489              		.loc 3 371 3 view .LVU486
 1490              	.LBB294:
 1491              	.LBI294:
 1492              		.loc 4 458 20 view .LVU487
 1493              	.LBE294:
 1494              	.LBE293:
 1495              	.LBE292:
 1496              		.loc 4 461 3 view .LVU488
 1497              	.LBB299:
 1498              	.LBB298:
 1499              	.LBB297:
 1500              	.LBB295:
 1501              	.LBI295:
 1502              		.loc 5 544 57 view .LVU489
 1503              	.LBB296:
 1504              		.loc 5 546 3 view .LVU490
 1505 003e 0023     		movs	r3, #0
 1506              		.syntax unified
 1507              	@ 546 "src/ChibiOS_3.0.2/os/ext/CMSIS/include/core_cmFunc.h" 1
 1508 0040 83F31188 		MSR basepri, r3
 1509              	@ 0 "" 2
 1510              	.LVL89:
 1511              		.loc 5 546 3 is_stmt 0 view .LVU491
 1512              		.thumb
 1513              		.syntax unified
 1514              	.LBE296:
 1515              	.LBE295:
 1516              	.LBE297:
 1517              	.LBE298:
 1518              	.LBE299:
 1519              		.loc 1 514 1 view .LVU492
 1520 0044 70BD     		pop	{r4, r5, r6, pc}
 1521              	.LVL90:
 1522              	.L73:
 1523              	.LBB300:
 1524              		.loc 1 507 21 view .LVU493
 1525 0046 9E60     		str	r6, [r3, #8]
 1526 0048 0B46     		mov	r3, r1
 1527              	.LVL91:
 1528              		.loc 1 507 21 view .LVU494
 1529              	.LBE300:
 1530              		.loc 1 509 5 view .LVU495
 1531 004a 002B     		cmp	r3, #0
 1532 004c E1D1     		bne	.L75
 1533 004e F2E7     		b	.L81
 1534              	.L83:
 1535              		.align	2
 1536              	.L82:
 1537 0050 00000000 		.word	ch
 1538              		.cfi_endproc
 1539              	.LFE226:
ARM GAS  C:\Users\USER\AppData\Local\Temp\ccxRmDSd.s 			page 28


 1540              		.size	chMtxUnlockAll, .-chMtxUnlockAll
 1541              		.text
 1542              	.Letext0:
 1543              		.file 7 "c:\\program files (x86)\\gnu tools arm embedded\\8 2018-q4-major\\arm-none-eabi\\include\
 1544              		.file 8 "c:\\program files (x86)\\gnu tools arm embedded\\8 2018-q4-major\\arm-none-eabi\\include\
 1545              		.file 9 "src/ChibiOS_3.0.2/os/rt/ports/ARMCMx/compilers/GCC/chtypes.h"
 1546              		.file 10 "src/ChibiOS_3.0.2/os/rt/include/chsystypes.h"
 1547              		.file 11 "src/ChibiOS_3.0.2/os/ext/CMSIS/include/core_cm4.h"
 1548              		.file 12 "src/ChibiOS_3.0.2/os/ext/CMSIS/ST/system_stm32f4xx.h"
 1549              		.file 13 "src/ChibiOS_3.0.2/os/rt/ports/ARMCMx/chcore.h"
 1550              		.file 14 "src/ChibiOS_3.0.2/os/rt/include/chtm.h"
 1551              		.file 15 "src/ChibiOS_3.0.2/os/rt/include/chsem.h"
 1552              		.file 16 "src/ChibiOS_3.0.2/os/rt/include/chregistry.h"