ARM GAS  C:\Users\USER\AppData\Local\Temp\ccUrGOKv.s 			page 1


   1              		.cpu cortex-m4
   2              		.eabi_attribute 27, 1
   3              		.eabi_attribute 28, 1
   4              		.eabi_attribute 20, 1
   5              		.eabi_attribute 21, 1
   6              		.eabi_attribute 23, 3
   7              		.eabi_attribute 24, 1
   8              		.eabi_attribute 25, 1
   9              		.eabi_attribute 26, 1
  10              		.eabi_attribute 30, 2
  11              		.eabi_attribute 34, 1
  12              		.eabi_attribute 18, 4
  13              		.file	"chprintf.c"
  14              		.text
  15              	.Ltext0:
  16              		.cfi_sections	.debug_frame
  17              		.global	__aeabi_d2f
  18              		.global	__aeabi_f2d
  19              		.global	__aeabi_ui2d
  20              		.global	__aeabi_i2d
  21              		.global	__aeabi_dsub
  22              		.global	__aeabi_dmul
  23              		.global	__aeabi_d2iz
  24              		.section	.text.chvprintf,"ax",%progbits
  25              		.align	1
  26              		.p2align 4,,15
  27              		.global	chvprintf
  28              		.arch armv7e-m
  29              		.syntax unified
  30              		.thumb
  31              		.thumb_func
  32              		.fpu fpv4-sp-d16
  33              		.type	chvprintf, %function
  34              	chvprintf:
  35              	.LVL0:
  36              	.LFB260:
  37              		.file 1 "src/ChibiOS_3.0.2/os/hal/lib/streams/chprintf.c"
  38              		.loc 1 121 71 view -0
  39              		.cfi_startproc
  40              		@ args = 0, pretend = 0, frame = 64
  41              		@ frame_needed = 0, uses_anonymous_args = 0
  42              		.loc 1 121 71 is_stmt 0 view .LVU1
  43 0000 2DE9F04F 		push	{r4, r5, r6, r7, r8, r9, r10, fp, lr}
  44              		.cfi_def_cfa_offset 36
  45              		.cfi_offset 4, -36
  46              		.cfi_offset 5, -32
  47              		.cfi_offset 6, -28
  48              		.cfi_offset 7, -24
  49              		.cfi_offset 8, -20
  50              		.cfi_offset 9, -16
  51              		.cfi_offset 10, -12
  52              		.cfi_offset 11, -8
  53              		.cfi_offset 14, -4
  54 0004 2DED028B 		vpush.64	{d8}
  55              		.cfi_def_cfa_offset 44
  56              		.cfi_offset 80, -44
  57              		.cfi_offset 81, -40
ARM GAS  C:\Users\USER\AppData\Local\Temp\ccUrGOKv.s 			page 2


  58 0008 8346     		mov	fp, r0
  59 000a 91B0     		sub	sp, sp, #68
  60              		.cfi_def_cfa_offset 112
  61              		.loc 1 121 71 view .LVU2
  62 000c 8946     		mov	r9, r1
  63 000e 9046     		mov	r8, r2
  64              	.LVL1:
  65              		.loc 1 122 3 is_stmt 1 view .LVU3
  66              		.loc 1 123 3 view .LVU4
  67              		.loc 1 124 3 view .LVU5
  68              		.loc 1 124 7 is_stmt 0 view .LVU6
  69 0010 4FF0000A 		mov	r10, #0
  70              	.LVL2:
  71              	.L2:
  72              		.loc 1 125 3 is_stmt 1 view .LVU7
  73              		.loc 1 126 3 view .LVU8
  74              		.loc 1 128 3 view .LVU9
  75              		.loc 1 129 3 view .LVU10
  76              		.loc 1 134 3 view .LVU11
  77              		.loc 1 135 5 view .LVU12
  78              		.loc 1 135 13 is_stmt 0 view .LVU13
  79 0014 4A46     		mov	r2, r9
  80              	.LVL3:
  81              		.loc 1 135 7 view .LVU14
  82 0016 12F8011B 		ldrb	r1, [r2], #1	@ zero_extendqisi2
  83              	.LVL4:
  84              		.loc 1 136 5 is_stmt 1 view .LVU15
  85              		.loc 1 136 8 is_stmt 0 view .LVU16
  86 001a 71B1     		cbz	r1, .L102
  87              	.LVL5:
  88              	.L116:
  89              		.loc 1 138 5 is_stmt 1 view .LVU17
  90              		.loc 1 138 8 is_stmt 0 view .LVU18
  91 001c 2529     		cmp	r1, #37
  92 001e 12D0     		beq	.L4
  93              		.loc 1 139 7 is_stmt 1 view .LVU19
  94 0020 DBF80030 		ldr	r3, [fp]
  95              		.loc 1 135 13 is_stmt 0 view .LVU20
  96 0024 9146     		mov	r9, r2
  97              	.LVL6:
  98              		.loc 1 139 7 view .LVU21
  99 0026 9B68     		ldr	r3, [r3, #8]
 100 0028 5846     		mov	r0, fp
 101 002a 9847     		blx	r3
 102              	.LVL7:
 103              		.loc 1 140 7 is_stmt 1 view .LVU22
 104              		.loc 1 135 13 is_stmt 0 view .LVU23
 105 002c 4A46     		mov	r2, r9
 106              		.loc 1 140 8 view .LVU24
 107 002e 0AF1010A 		add	r10, r10, #1
 108              	.LVL8:
 109              		.loc 1 141 7 is_stmt 1 view .LVU25
 110              		.loc 1 125 3 view .LVU26
 111              		.loc 1 126 3 view .LVU27
 112              		.loc 1 128 3 view .LVU28
 113              		.loc 1 129 3 view .LVU29
 114              		.loc 1 134 3 view .LVU30
ARM GAS  C:\Users\USER\AppData\Local\Temp\ccUrGOKv.s 			page 3


 115              		.loc 1 135 5 view .LVU31
 116              		.loc 1 135 7 is_stmt 0 view .LVU32
 117 0032 12F8011B 		ldrb	r1, [r2], #1	@ zero_extendqisi2
 118              	.LVL9:
 119              		.loc 1 136 5 is_stmt 1 view .LVU33
 120              		.loc 1 136 8 is_stmt 0 view .LVU34
 121 0036 0029     		cmp	r1, #0
 122 0038 F0D1     		bne	.L116
 123              	.L102:
 124              		.loc 1 277 1 view .LVU35
 125 003a 5046     		mov	r0, r10
 126 003c 11B0     		add	sp, sp, #68
 127              		.cfi_remember_state
 128              		.cfi_def_cfa_offset 44
 129              		@ sp needed
 130 003e BDEC028B 		vldm	sp!, {d8}
 131              		.cfi_restore 80
 132              		.cfi_restore 81
 133              		.cfi_def_cfa_offset 36
 134 0042 BDE8F08F 		pop	{r4, r5, r6, r7, r8, r9, r10, fp, pc}
 135              	.LVL10:
 136              	.L4:
 137              		.cfi_restore_state
 138              		.loc 1 143 5 is_stmt 1 view .LVU36
 139              		.loc 1 144 5 view .LVU37
 140              		.loc 1 145 5 view .LVU38
 141              		.loc 1 146 5 view .LVU39
 142              		.loc 1 146 9 is_stmt 0 view .LVU40
 143 0046 99F80110 		ldrb	r1, [r9, #1]	@ zero_extendqisi2
 144              	.LVL11:
 145              		.loc 1 146 8 view .LVU41
 146 004a 2D29     		cmp	r1, #45
 147              		.loc 1 147 7 is_stmt 1 view .LVU42
 148 004c 05BF     		ittet	eq
 149 004e 99F80210 		ldrbeq	r1, [r9, #2]	@ zero_extendqisi2
 150              		.loc 1 148 18 is_stmt 0 view .LVU43
 151 0052 0123     		moveq	r3, #1
 152              		.loc 1 145 16 view .LVU44
 153 0054 0023     		movne	r3, #0
 154              		.loc 1 147 10 view .LVU45
 155 0056 09F10202 		addeq	r2, r9, #2
 156              	.LVL12:
 157              		.loc 1 148 7 is_stmt 1 view .LVU46
 158              		.loc 1 151 8 is_stmt 0 view .LVU47
 159 005a 3029     		cmp	r1, #48
 160              		.loc 1 145 16 view .LVU48
 161 005c 0393     		str	r3, [sp, #12]
 162              	.LVL13:
 163              		.loc 1 150 5 is_stmt 1 view .LVU49
 164              		.loc 1 151 5 view .LVU50
 165              		.loc 1 151 8 is_stmt 0 view .LVU51
 166 005e 00F0B580 		beq	.L117
 167              		.loc 1 150 12 view .LVU52
 168 0062 2023     		movs	r3, #32
 169 0064 0293     		str	r3, [sp, #8]
 170              	.LVL14:
 171              	.L7:
ARM GAS  C:\Users\USER\AppData\Local\Temp\ccUrGOKv.s 			page 4


 172              		.loc 1 155 5 is_stmt 1 view .LVU53
 173              		.loc 1 155 5 is_stmt 0 view .LVU54
 174 0066 0132     		adds	r2, r2, #1
 175              	.LVL15:
 176              		.loc 1 155 11 view .LVU55
 177 0068 0024     		movs	r4, #0
 178 006a 07E0     		b	.L10
 179              	.LVL16:
 180              	.L118:
 181              		.loc 1 161 11 view .LVU56
 182 006c 50F8043B 		ldr	r3, [r0], #4
 183              	.LVL17:
 184              		.loc 1 161 11 view .LVU57
 185 0070 DBB2     		uxtb	r3, r3
 186              	.LVL18:
 187              		.loc 1 161 13 view .LVU58
 188 0072 8046     		mov	r8, r0
 189              	.LVL19:
 190              	.L8:
 191              		.loc 1 164 7 is_stmt 1 view .LVU59
 192 0074 12F8011B 		ldrb	r1, [r2], #1	@ zero_extendqisi2
 193              	.LVL20:
 194              		.loc 1 164 13 is_stmt 0 view .LVU60
 195 0078 03EB4504 		add	r4, r3, r5, lsl #1
 196              	.LVL21:
 197              	.L10:
 198              		.loc 1 156 5 is_stmt 1 view .LVU61
 199              		.loc 1 157 7 view .LVU62
 200              		.loc 1 160 12 view .LVU63
 201              		.loc 1 161 9 view .LVU64
 202              		.loc 1 158 20 is_stmt 0 view .LVU65
 203 007c A1F13003 		sub	r3, r1, #48
 204 0080 DBB2     		uxtb	r3, r3
 205              		.loc 1 158 10 view .LVU66
 206 0082 092B     		cmp	r3, #9
 207              		.loc 1 161 13 view .LVU67
 208 0084 4046     		mov	r0, r8
 209              		.loc 1 157 15 view .LVU68
 210 0086 9146     		mov	r9, r2
 211              	.LVL22:
 212              		.loc 1 158 7 is_stmt 1 view .LVU69
 213              		.loc 1 164 21 is_stmt 0 view .LVU70
 214 0088 04EB8405 		add	r5, r4, r4, lsl #2
 215              		.loc 1 158 10 view .LVU71
 216 008c F2D9     		bls	.L8
 217              	.LVL23:
 218              		.loc 1 160 15 view .LVU72
 219 008e 2A29     		cmp	r1, #42
 220 0090 ECD0     		beq	.L118
 221              		.loc 1 166 5 is_stmt 1 view .LVU73
 222              	.LVL24:
 223              		.loc 1 167 5 view .LVU74
 224              		.loc 1 167 8 is_stmt 0 view .LVU75
 225 0092 2E29     		cmp	r1, #46
 226              		.loc 1 166 15 view .LVU76
 227 0094 4FF00007 		mov	r7, #0
 228              		.loc 1 167 8 view .LVU77
ARM GAS  C:\Users\USER\AppData\Local\Temp\ccUrGOKv.s 			page 5


 229 0098 45D0     		beq	.L13
 230              	.LVL25:
 231              		.loc 1 181 5 is_stmt 1 view .LVU78
 232              		.loc 1 181 18 is_stmt 0 view .LVU79
 233 009a 01F0DF03 		and	r3, r1, #223
 234 009e 4C2B     		cmp	r3, #76
 235 00a0 51D0     		beq	.L119
 236              	.LVL26:
 237              	.L103:
 238              		.loc 1 187 7 is_stmt 1 view .LVU80
 239              		.loc 1 190 5 is_stmt 0 view .LVU81
 240 00a2 A1F14402 		sub	r2, r1, #68
 241              	.LVL27:
 242              		.loc 1 190 5 is_stmt 1 view .LVU82
 243 00a6 342A     		cmp	r2, #52
 244 00a8 00F2CA81 		bhi	.L16
 245 00ac DFE812F0 		tbh	[pc, r2, lsl #1]
 246              	.L27:
 247 00b0 A101     		.2byte	(.L30-.L27)/2
 248 00b2 C801     		.2byte	(.L16-.L27)/2
 249 00b4 C801     		.2byte	(.L16-.L27)/2
 250 00b6 C801     		.2byte	(.L16-.L27)/2
 251 00b8 C801     		.2byte	(.L16-.L27)/2
 252 00ba A101     		.2byte	(.L30-.L27)/2
 253 00bc C801     		.2byte	(.L16-.L27)/2
 254 00be C801     		.2byte	(.L16-.L27)/2
 255 00c0 C801     		.2byte	(.L16-.L27)/2
 256 00c2 C801     		.2byte	(.L16-.L27)/2
 257 00c4 C801     		.2byte	(.L16-.L27)/2
 258 00c6 0E02     		.2byte	(.L29-.L27)/2
 259 00c8 C801     		.2byte	(.L16-.L27)/2
 260 00ca C801     		.2byte	(.L16-.L27)/2
 261 00cc C801     		.2byte	(.L16-.L27)/2
 262 00ce C801     		.2byte	(.L16-.L27)/2
 263 00d0 C801     		.2byte	(.L16-.L27)/2
 264 00d2 0802     		.2byte	(.L79-.L27)/2
 265 00d4 C801     		.2byte	(.L16-.L27)/2
 266 00d6 C801     		.2byte	(.L16-.L27)/2
 267 00d8 0C02     		.2byte	(.L26-.L27)/2
 268 00da C801     		.2byte	(.L16-.L27)/2
 269 00dc C801     		.2byte	(.L16-.L27)/2
 270 00de C801     		.2byte	(.L16-.L27)/2
 271 00e0 C801     		.2byte	(.L16-.L27)/2
 272 00e2 C801     		.2byte	(.L16-.L27)/2
 273 00e4 C801     		.2byte	(.L16-.L27)/2
 274 00e6 C801     		.2byte	(.L16-.L27)/2
 275 00e8 C801     		.2byte	(.L16-.L27)/2
 276 00ea C801     		.2byte	(.L16-.L27)/2
 277 00ec C801     		.2byte	(.L16-.L27)/2
 278 00ee 5601     		.2byte	(.L24-.L27)/2
 279 00f0 A101     		.2byte	(.L30-.L27)/2
 280 00f2 C801     		.2byte	(.L16-.L27)/2
 281 00f4 BE00     		.2byte	(.L23-.L27)/2
 282 00f6 C801     		.2byte	(.L16-.L27)/2
 283 00f8 C801     		.2byte	(.L16-.L27)/2
 284 00fa A101     		.2byte	(.L30-.L27)/2
 285 00fc C801     		.2byte	(.L16-.L27)/2
ARM GAS  C:\Users\USER\AppData\Local\Temp\ccUrGOKv.s 			page 6


 286 00fe C801     		.2byte	(.L16-.L27)/2
 287 0100 C801     		.2byte	(.L16-.L27)/2
 288 0102 C801     		.2byte	(.L16-.L27)/2
 289 0104 C801     		.2byte	(.L16-.L27)/2
 290 0106 0E02     		.2byte	(.L29-.L27)/2
 291 0108 C801     		.2byte	(.L16-.L27)/2
 292 010a C801     		.2byte	(.L16-.L27)/2
 293 010c C801     		.2byte	(.L16-.L27)/2
 294 010e 9300     		.2byte	(.L20-.L27)/2
 295 0110 C801     		.2byte	(.L16-.L27)/2
 296 0112 0802     		.2byte	(.L79-.L27)/2
 297 0114 C801     		.2byte	(.L16-.L27)/2
 298 0116 C801     		.2byte	(.L16-.L27)/2
 299 0118 0C02     		.2byte	(.L26-.L27)/2
 300              	.LVL28:
 301              		.p2align 1
 302              	.L120:
 303              		.loc 1 173 13 is_stmt 0 view .LVU83
 304 011a 52F8043B 		ldr	r3, [r2], #4
 305              	.LVL29:
 306              		.loc 1 173 13 view .LVU84
 307 011e DBB2     		uxtb	r3, r3
 308              	.LVL30:
 309              		.loc 1 173 15 view .LVU85
 310 0120 9046     		mov	r8, r2
 311              	.LVL31:
 312              	.L12:
 313              		.loc 1 176 9 is_stmt 1 view .LVU86
 314              		.loc 1 177 9 view .LVU87
 315              		.loc 1 177 19 is_stmt 0 view .LVU88
 316 0122 03EB4007 		add	r7, r3, r0, lsl #1
 317              	.LVL32:
 318              	.L13:
 319              		.loc 1 168 7 is_stmt 1 view .LVU89
 320              		.loc 1 169 9 view .LVU90
 321              		.loc 1 172 14 view .LVU91
 322              		.loc 1 173 11 view .LVU92
 323              		.loc 1 169 11 is_stmt 0 view .LVU93
 324 0126 19F8011B 		ldrb	r1, [r9], #1	@ zero_extendqisi2
 325              	.LVL33:
 326              		.loc 1 170 9 is_stmt 1 view .LVU94
 327              		.loc 1 170 22 is_stmt 0 view .LVU95
 328 012a A1F13003 		sub	r3, r1, #48
 329 012e DBB2     		uxtb	r3, r3
 330              		.loc 1 170 12 view .LVU96
 331 0130 092B     		cmp	r3, #9
 332              		.loc 1 173 15 view .LVU97
 333 0132 4246     		mov	r2, r8
 334              		.loc 1 176 19 view .LVU98
 335 0134 07EB8700 		add	r0, r7, r7, lsl #2
 336              		.loc 1 170 12 view .LVU99
 337 0138 F3D9     		bls	.L12
 338              	.LVL34:
 339              		.loc 1 172 17 view .LVU100
 340 013a 2A29     		cmp	r1, #42
 341 013c EDD0     		beq	.L120
 342              	.LVL35:
ARM GAS  C:\Users\USER\AppData\Local\Temp\ccUrGOKv.s 			page 7


 343              		.loc 1 181 5 is_stmt 1 view .LVU101
 344              		.loc 1 181 18 is_stmt 0 view .LVU102
 345 013e 01F0DF03 		and	r3, r1, #223
 346 0142 4C2B     		cmp	r3, #76
 347 0144 ADD1     		bne	.L103
 348              	.LVL36:
 349              	.L119:
 350              		.loc 1 182 7 is_stmt 1 view .LVU103
 351              		.loc 1 183 7 view .LVU104
 352              		.loc 1 183 11 is_stmt 0 view .LVU105
 353 0146 99F80020 		ldrb	r2, [r9]	@ zero_extendqisi2
 354              		.loc 1 183 10 view .LVU106
 355 014a 002A     		cmp	r2, #0
 356 014c 00F07881 		beq	.L16
 357              		.loc 1 190 5 view .LVU107
 358 0150 A2F14403 		sub	r3, r2, #68
 359 0154 09F10109 		add	r9, r9, #1
 360              	.LVL37:
 361              		.loc 1 184 9 is_stmt 1 view .LVU108
 362              		.loc 1 190 5 view .LVU109
 363 0158 342B     		cmp	r3, #52
 364 015a 00F27081 		bhi	.L78
 365 015e DFE813F0 		tbh	[pc, r3, lsl #1]
 366              	.L18:
 367 0162 4801     		.2byte	(.L30-.L18)/2
 368 0164 6E01     		.2byte	(.L78-.L18)/2
 369 0166 6E01     		.2byte	(.L78-.L18)/2
 370 0168 6E01     		.2byte	(.L78-.L18)/2
 371 016a 6E01     		.2byte	(.L78-.L18)/2
 372 016c 4801     		.2byte	(.L30-.L18)/2
 373 016e 6E01     		.2byte	(.L78-.L18)/2
 374 0170 6E01     		.2byte	(.L78-.L18)/2
 375 0172 6E01     		.2byte	(.L78-.L18)/2
 376 0174 6E01     		.2byte	(.L78-.L18)/2
 377 0176 6E01     		.2byte	(.L78-.L18)/2
 378 0178 8101     		.2byte	(.L21-.L18)/2
 379 017a 6E01     		.2byte	(.L78-.L18)/2
 380 017c 6E01     		.2byte	(.L78-.L18)/2
 381 017e 6E01     		.2byte	(.L78-.L18)/2
 382 0180 6E01     		.2byte	(.L78-.L18)/2
 383 0182 6E01     		.2byte	(.L78-.L18)/2
 384 0184 A701     		.2byte	(.L19-.L18)/2
 385 0186 6E01     		.2byte	(.L78-.L18)/2
 386 0188 6E01     		.2byte	(.L78-.L18)/2
 387 018a AB01     		.2byte	(.L17-.L18)/2
 388 018c 6E01     		.2byte	(.L78-.L18)/2
 389 018e 6E01     		.2byte	(.L78-.L18)/2
 390 0190 6E01     		.2byte	(.L78-.L18)/2
 391 0192 6E01     		.2byte	(.L78-.L18)/2
 392 0194 6E01     		.2byte	(.L78-.L18)/2
 393 0196 6E01     		.2byte	(.L78-.L18)/2
 394 0198 6E01     		.2byte	(.L78-.L18)/2
 395 019a 6E01     		.2byte	(.L78-.L18)/2
 396 019c 6E01     		.2byte	(.L78-.L18)/2
 397 019e 6E01     		.2byte	(.L78-.L18)/2
 398 01a0 FD00     		.2byte	(.L24-.L18)/2
 399 01a2 4801     		.2byte	(.L30-.L18)/2
ARM GAS  C:\Users\USER\AppData\Local\Temp\ccUrGOKv.s 			page 8


 400 01a4 6E01     		.2byte	(.L78-.L18)/2
 401 01a6 6500     		.2byte	(.L23-.L18)/2
 402 01a8 6E01     		.2byte	(.L78-.L18)/2
 403 01aa 6E01     		.2byte	(.L78-.L18)/2
 404 01ac 4801     		.2byte	(.L30-.L18)/2
 405 01ae 6E01     		.2byte	(.L78-.L18)/2
 406 01b0 6E01     		.2byte	(.L78-.L18)/2
 407 01b2 6E01     		.2byte	(.L78-.L18)/2
 408 01b4 6E01     		.2byte	(.L78-.L18)/2
 409 01b6 6E01     		.2byte	(.L78-.L18)/2
 410 01b8 8101     		.2byte	(.L21-.L18)/2
 411 01ba 6E01     		.2byte	(.L78-.L18)/2
 412 01bc 6E01     		.2byte	(.L78-.L18)/2
 413 01be 6E01     		.2byte	(.L78-.L18)/2
 414 01c0 3A00     		.2byte	(.L20-.L18)/2
 415 01c2 6E01     		.2byte	(.L78-.L18)/2
 416 01c4 A701     		.2byte	(.L19-.L18)/2
 417 01c6 6E01     		.2byte	(.L78-.L18)/2
 418 01c8 6E01     		.2byte	(.L78-.L18)/2
 419 01ca AB01     		.2byte	(.L17-.L18)/2
 420              	.LVL38:
 421              		.p2align 1
 422              	.L117:
 423              		.loc 1 152 7 view .LVU110
 424              		.loc 1 153 7 view .LVU111
 425              		.loc 1 153 14 is_stmt 0 view .LVU112
 426 01cc 3023     		movs	r3, #48
 427 01ce 5178     		ldrb	r1, [r2, #1]	@ zero_extendqisi2
 428 01d0 0293     		str	r3, [sp, #8]
 429              		.loc 1 152 10 view .LVU113
 430 01d2 0132     		adds	r2, r2, #1
 431              	.LVL39:
 432              		.loc 1 152 10 view .LVU114
 433 01d4 47E7     		b	.L7
 434              	.LVL40:
 435              	.L20:
 436              		.loc 1 196 7 is_stmt 1 view .LVU115
 437              		.loc 1 197 7 view .LVU116
 438              		.loc 1 197 14 is_stmt 0 view .LVU117
 439 01d6 58F8045B 		ldr	r5, [r8], #4
 440              	.LVL41:
 441              		.loc 1 197 10 view .LVU118
 442 01da 002D     		cmp	r5, #0
 443 01dc 00F08A81 		beq	.L32
 444 01e0 2B78     		ldrb	r3, [r5]	@ zero_extendqisi2
 445              	.LVL42:
 446              		.loc 1 199 7 is_stmt 1 view .LVU119
 447              		.loc 1 200 19 is_stmt 0 view .LVU120
 448 01e2 47F6FF72 		movw	r2, #32767
 449 01e6 002F     		cmp	r7, #0
 450 01e8 08BF     		it	eq
 451 01ea 1746     		moveq	r7, r2
 452              	.LVL43:
 453              		.loc 1 201 7 view .LVU121
 454 01ec 002B     		cmp	r3, #0
 455 01ee 00F0A081 		beq	.L121
 456              	.LVL44:
ARM GAS  C:\Users\USER\AppData\Local\Temp\ccUrGOKv.s 			page 9


 457              	.L70:
 458              		.loc 1 166 15 view .LVU122
 459 01f2 2E46     		mov	r6, r5
 460 01f4 01E0     		b	.L36
 461              	.LVL45:
 462              	.L35:
 463              		.loc 1 201 22 discriminator 3 view .LVU123
 464 01f6 FB42     		cmn	r3, r7
 465 01f8 05D4     		bmi	.L111
 466              	.LVL46:
 467              	.L36:
 468              		.loc 1 202 9 is_stmt 1 discriminator 4 view .LVU124
 469              		.loc 1 201 7 is_stmt 0 discriminator 4 view .LVU125
 470 01fa 16F8012F 		ldrb	r2, [r6, #1]!	@ zero_extendqisi2
 471              	.LVL47:
 472              		.loc 1 201 7 discriminator 4 view .LVU126
 473 01fe F343     		mvns	r3, r6
 474 0200 2B44     		add	r3, r3, r5
 475 0202 002A     		cmp	r2, #0
 476 0204 F7D1     		bne	.L35
 477              	.L111:
 478 0206 761B     		subs	r6, r6, r5
 479              	.LVL48:
 480              		.loc 1 201 7 discriminator 4 view .LVU127
 481 0208 731E     		subs	r3, r6, #1
 482 020a 0193     		str	r3, [sp, #4]
 483              		.loc 1 251 8 view .LVU128
 484 020c A71B     		subs	r7, r4, r6
 485              		.loc 1 196 14 view .LVU129
 486 020e 4FF02003 		mov	r3, #32
 487 0212 0293     		str	r3, [sp, #8]
 488              	.LVL49:
 489              		.loc 1 250 5 is_stmt 1 view .LVU130
 490              		.loc 1 251 5 view .LVU131
 491              		.loc 1 253 8 is_stmt 0 view .LVU132
 492 0214 039B     		ldr	r3, [sp, #12]
 493              		.loc 1 251 8 view .LVU133
 494 0216 40F1AF80 		bpl	.L58
 495              	.L124:
 496              		.loc 1 252 7 is_stmt 1 view .LVU134
 497              	.LVL50:
 498              		.loc 1 253 5 view .LVU135
 499              		.loc 1 253 8 is_stmt 0 view .LVU136
 500 021a 002B     		cmp	r3, #0
 501 021c 40F01C81 		bne	.L59
 502              		.loc 1 266 11 view .LVU137
 503 0220 019B     		ldr	r3, [sp, #4]
 504 0222 002B     		cmp	r3, #0
 505 0224 FFF6F6AE 		blt	.L2
 506              		.loc 1 254 13 view .LVU138
 507 0228 039F     		ldr	r7, [sp, #12]
 508 022a C2E0     		b	.L67
 509              	.LVL51:
 510              	.L23:
 511              		.loc 1 220 7 is_stmt 1 view .LVU139
 512              		.loc 1 220 19 is_stmt 0 view .LVU140
 513 022c 08F10708 		add	r8, r8, #7
ARM GAS  C:\Users\USER\AppData\Local\Temp\ccUrGOKv.s 			page 10


 514              	.LVL52:
 515              		.loc 1 220 19 view .LVU141
 516 0230 28F00708 		bic	r8, r8, #7
 517              	.LVL53:
 518              		.loc 1 220 9 view .LVU142
 519 0234 F8E80201 		ldrd	r0, [r8], #8
 520              	.LVL54:
 521              		.loc 1 220 9 view .LVU143
 522 0238 FFF7FEFF 		bl	__aeabi_d2f
 523              	.LVL55:
 524 023c 08EE100A 		vmov	s16, r0
 525              	.LVL56:
 526              		.loc 1 221 7 is_stmt 1 view .LVU144
 527              		.loc 1 221 10 is_stmt 0 view .LVU145
 528 0240 B5EEC08A 		vcmpe.f32	s16, #0
 529 0244 F1EE10FA 		vmrs	APSR_nzcv, FPSCR
 530 0248 00F14A81 		bmi	.L122
 531              		.loc 1 143 7 view .LVU146
 532 024c 0AAD     		add	r5, sp, #40
 533              	.LVL57:
 534              		.loc 1 143 7 view .LVU147
 535 024e 0195     		str	r5, [sp, #4]
 536              	.LVL58:
 537              	.L43:
 538              		.loc 1 225 7 is_stmt 1 view .LVU148
 539              		.loc 1 225 11 is_stmt 0 view .LVU149
 540 0250 18EE100A 		vmov	r0, s16
 541 0254 FFF7FEFF 		bl	__aeabi_f2d
 542              	.LVL59:
 543              	.LBB26:
 544              	.LBB27:
 545              		.loc 1 83 24 view .LVU150
 546 0258 013F     		subs	r7, r7, #1
 547              	.LVL60:
 548              		.loc 1 83 6 view .LVU151
 549 025a 082F     		cmp	r7, #8
 550              	.LBE27:
 551              	.LBE26:
 552              		.loc 1 225 11 view .LVU152
 553 025c CDE90401 		strd	r0, [sp, #16]
 554              	.LVL61:
 555              	.LBB40:
 556              	.LBI26:
 557              		.loc 1 80 14 is_stmt 1 view .LVU153
 558              	.LBB38:
 559              		.loc 1 81 3 view .LVU154
 560              		.loc 1 83 3 view .LVU155
 561              		.loc 1 83 6 is_stmt 0 view .LVU156
 562 0260 00F25D81 		bhi	.L83
 563              		.loc 1 83 6 view .LVU157
 564 0264 BE4B     		ldr	r3, .L130+8
 565 0266 53F82730 		ldr	r3, [r3, r7, lsl #2]
 566 026a 0793     		str	r3, [sp, #28]
 567 026c 1846     		mov	r0, r3
 568              	.LVL62:
 569              		.loc 1 83 6 view .LVU158
 570 026e 1E46     		mov	r6, r3
ARM GAS  C:\Users\USER\AppData\Local\Temp\ccUrGOKv.s 			page 11


 571 0270 FFF7FEFF 		bl	__aeabi_ui2d
 572              	.LVL63:
 573 0274 BB4A     		ldr	r2, .L130+12
 574 0276 3346     		mov	r3, r6
 575 0278 CDE90801 		strd	r0, [sp, #32]
 576 027c A2FB0336 		umull	r3, r6, r2, r3
 577 0280 F608     		lsrs	r6, r6, #3
 578              	.L45:
 579              		.loc 1 85 3 is_stmt 1 view .LVU159
 580              	.LVL64:
 581              		.loc 1 87 3 view .LVU160
 582              		.loc 1 87 5 is_stmt 0 view .LVU161
 583 0282 FDEEC87A 		vcvt.s32.f32	s15, s16
 584              	.LBB28:
 585              	.LBB29:
 586              		.loc 1 52 5 view .LVU162
 587 0286 019B     		ldr	r3, [sp, #4]
 588              	.LBE29:
 589              	.LBE28:
 590              		.loc 1 87 5 view .LVU163
 591 0288 CDED067A 		vstr.32	s15, [sp, #24]	@ int
 592              	.LVL65:
 593              		.loc 1 88 3 is_stmt 1 view .LVU164
 594              	.LBB32:
 595              	.LBI28:
 596              		.loc 1 37 14 view .LVU165
 597              	.LBB30:
 598              		.loc 1 41 3 view .LVU166
 599              		.loc 1 42 3 view .LVU167
 600              		.loc 1 43 3 view .LVU168
 601              		.loc 1 45 3 view .LVU169
 602              		.loc 1 46 3 view .LVU170
 603              		.loc 1 52 3 view .LVU171
 604              		.loc 1 52 5 is_stmt 0 view .LVU172
 605 028c 03F10B07 		add	r7, r3, #11
 606              	.LVL66:
 607              		.loc 1 45 5 view .LVU173
 608 0290 17EE901A 		vmov	r1, s15	@ int
 609              		.loc 1 52 5 view .LVU174
 610 0294 3A46     		mov	r2, r7
 611              	.LVL67:
 612              	.L46:
 613              		.loc 1 53 3 is_stmt 1 view .LVU175
 614              		.loc 1 54 5 view .LVU176
 615              		.loc 1 54 17 is_stmt 0 view .LVU177
 616 0296 B34B     		ldr	r3, .L130+12
 617 0298 A3FB0103 		umull	r0, r3, r3, r1
 618 029c DB08     		lsrs	r3, r3, #3
 619 029e 03EB830C 		add	ip, r3, r3, lsl #2
 620 02a2 1846     		mov	r0, r3
 621 02a4 A1EB4C03 		sub	r3, r1, ip, lsl #1
 622              	.LVL68:
 623              		.loc 1 55 5 is_stmt 1 view .LVU178
 624              		.loc 1 56 5 view .LVU179
 625              		.loc 1 58 5 view .LVU180
 626              		.loc 1 55 7 is_stmt 0 view .LVU181
 627 02a8 3033     		adds	r3, r3, #48
ARM GAS  C:\Users\USER\AppData\Local\Temp\ccUrGOKv.s 			page 12


 628              	.LVL69:
 629              		.loc 1 54 17 view .LVU182
 630 02aa 8C46     		mov	ip, r1
 631              		.loc 1 58 10 view .LVU183
 632 02ac DBB2     		uxtb	r3, r3
 633              	.LVL70:
 634              		.loc 1 60 3 view .LVU184
 635 02ae BCF1090F 		cmp	ip, #9
 636              		.loc 1 58 10 view .LVU185
 637 02b2 02F8013D 		strb	r3, [r2, #-1]!
 638              	.LVL71:
 639              		.loc 1 59 5 is_stmt 1 view .LVU186
 640              		.loc 1 59 7 is_stmt 0 view .LVU187
 641 02b6 0146     		mov	r1, r0
 642              	.LVL72:
 643              		.loc 1 60 3 view .LVU188
 644 02b8 EDD8     		bhi	.L46
 645              		.loc 1 62 3 is_stmt 1 view .LVU189
 646 02ba 0199     		ldr	r1, [sp, #4]
 647              		.loc 1 62 5 is_stmt 0 view .LVU190
 648 02bc BF1A     		subs	r7, r7, r2
 649              	.LVL73:
 650              		.loc 1 62 5 view .LVU191
 651 02be C819     		adds	r0, r1, r7
 652              	.LVL74:
 653              		.loc 1 62 5 view .LVU192
 654 02c0 01E0     		b	.L48
 655              	.LVL75:
 656              	.L123:
 657              		.loc 1 62 5 view .LVU193
 658 02c2 12F8013F 		ldrb	r3, [r2, #1]!	@ zero_extendqisi2
 659              	.LVL76:
 660              	.L48:
 661              		.loc 1 63 3 is_stmt 1 view .LVU194
 662              		.loc 1 64 5 view .LVU195
 663              		.loc 1 64 10 is_stmt 0 view .LVU196
 664 02c6 01F8013B 		strb	r3, [r1], #1
 665              	.LVL77:
 666              		.loc 1 65 3 view .LVU197
 667 02ca 8142     		cmp	r1, r0
 668 02cc F9D1     		bne	.L123
 669 02ce 019A     		ldr	r2, [sp, #4]
 670              	.LBE30:
 671              	.LBE32:
 672              		.loc 1 90 19 view .LVU198
 673 02d0 0698     		ldr	r0, [sp, #24]
 674              		.loc 1 89 8 view .LVU199
 675 02d2 2E23     		movs	r3, #46
 676 02d4 013F     		subs	r7, r7, #1
 677 02d6 3A44     		add	r2, r2, r7
 678 02d8 0B70     		strb	r3, [r1]
 679 02da 1746     		mov	r7, r2
 680 02dc 0192     		str	r2, [sp, #4]
 681              	.LVL78:
 682              	.LBB33:
 683              	.LBB31:
 684              		.loc 1 67 3 is_stmt 1 view .LVU200
ARM GAS  C:\Users\USER\AppData\Local\Temp\ccUrGOKv.s 			page 13


 685              		.loc 1 67 3 is_stmt 0 view .LVU201
 686              	.LBE31:
 687              	.LBE33:
 688              		.loc 1 89 3 is_stmt 1 view .LVU202
 689              		.loc 1 90 19 is_stmt 0 view .LVU203
 690 02de FFF7FEFF 		bl	__aeabi_i2d
 691              	.LVL79:
 692              		.loc 1 90 19 view .LVU204
 693 02e2 0246     		mov	r2, r0
 694 02e4 0B46     		mov	r3, r1
 695 02e6 DDE90401 		ldrd	r0, [sp, #16]
 696 02ea FFF7FEFF 		bl	__aeabi_dsub
 697              	.LVL80:
 698              		.loc 1 90 24 view .LVU205
 699 02ee DDE90823 		ldrd	r2, [sp, #32]
 700 02f2 FFF7FEFF 		bl	__aeabi_dmul
 701              	.LVL81:
 702              		.loc 1 90 5 view .LVU206
 703 02f6 FFF7FEFF 		bl	__aeabi_d2iz
 704              	.LVL82:
 705              	.LBB34:
 706              	.LBB35:
 707              		.loc 1 47 8 view .LVU207
 708 02fa 079A     		ldr	r2, [sp, #28]
 709              		.loc 1 52 5 view .LVU208
 710 02fc 07F10D0C 		add	ip, r7, #13
 711              		.loc 1 47 8 view .LVU209
 712 0300 092A     		cmp	r2, #9
 713 0302 98BF     		it	ls
 714 0304 0646     		movls	r6, r0
 715              	.LBE35:
 716              	.LBE34:
 717              		.loc 1 89 5 view .LVU210
 718 0306 07F1020E 		add	lr, r7, #2
 719              	.LVL83:
 720              		.loc 1 90 3 is_stmt 1 view .LVU211
 721              		.loc 1 91 3 view .LVU212
 722              	.LBB37:
 723              	.LBI34:
 724              		.loc 1 37 14 view .LVU213
 725              	.LBB36:
 726              		.loc 1 41 3 view .LVU214
 727              		.loc 1 42 3 view .LVU215
 728              		.loc 1 43 3 view .LVU216
 729              		.loc 1 45 3 view .LVU217
 730              		.loc 1 46 3 view .LVU218
 731              		.loc 1 52 3 view .LVU219
 732              		.loc 1 52 5 is_stmt 0 view .LVU220
 733 030a 6246     		mov	r2, ip
 734              	.LVL84:
 735              	.L50:
 736              		.loc 1 53 3 is_stmt 1 view .LVU221
 737              		.loc 1 54 5 view .LVU222
 738              		.loc 1 54 17 is_stmt 0 view .LVU223
 739 030c 954B     		ldr	r3, .L130+12
 740 030e A3FB0013 		umull	r1, r3, r3, r0
 741 0312 DB08     		lsrs	r3, r3, #3
ARM GAS  C:\Users\USER\AppData\Local\Temp\ccUrGOKv.s 			page 14


 742 0314 03EB8307 		add	r7, r3, r3, lsl #2
 743 0318 1946     		mov	r1, r3
 744 031a A0EB4703 		sub	r3, r0, r7, lsl #1
 745              	.LVL85:
 746              		.loc 1 55 5 is_stmt 1 view .LVU224
 747              		.loc 1 56 5 view .LVU225
 748              		.loc 1 58 5 view .LVU226
 749              		.loc 1 60 16 is_stmt 0 view .LVU227
 750 031e 9148     		ldr	r0, .L130+12
 751 0320 3746     		mov	r7, r6
 752              		.loc 1 55 7 view .LVU228
 753 0322 3033     		adds	r3, r3, #48
 754              	.LVL86:
 755              		.loc 1 60 16 view .LVU229
 756 0324 A0FB0606 		umull	r0, r6, r0, r6
 757              	.LVL87:
 758              		.loc 1 58 10 view .LVU230
 759 0328 DBB2     		uxtb	r3, r3
 760              	.LVL88:
 761              		.loc 1 60 3 view .LVU231
 762 032a 092F     		cmp	r7, #9
 763              		.loc 1 58 10 view .LVU232
 764 032c 02F8013D 		strb	r3, [r2, #-1]!
 765              	.LVL89:
 766              		.loc 1 59 5 is_stmt 1 view .LVU233
 767              		.loc 1 59 7 is_stmt 0 view .LVU234
 768 0330 0846     		mov	r0, r1
 769              		.loc 1 60 16 view .LVU235
 770 0332 4FEAD606 		lsr	r6, r6, #3
 771              	.LVL90:
 772              		.loc 1 60 3 view .LVU236
 773 0336 E9D8     		bhi	.L50
 774              		.loc 1 62 3 is_stmt 1 view .LVU237
 775              	.LVL91:
 776              		.loc 1 62 5 is_stmt 0 view .LVU238
 777 0338 ACEB0206 		sub	r6, ip, r2
 778              	.LVL92:
 779              		.loc 1 62 5 view .LVU239
 780 033c 0198     		ldr	r0, [sp, #4]
 781 033e B11C     		adds	r1, r6, #2
 782 0340 0844     		add	r0, r0, r1
 783 0342 7146     		mov	r1, lr
 784 0344 01E0     		b	.L52
 785              	.LVL93:
 786              	.L51:
 787              		.loc 1 62 5 view .LVU240
 788 0346 12F8013F 		ldrb	r3, [r2, #1]!	@ zero_extendqisi2
 789              	.LVL94:
 790              	.L52:
 791              		.loc 1 63 3 is_stmt 1 view .LVU241
 792              		.loc 1 64 5 view .LVU242
 793              		.loc 1 64 10 is_stmt 0 view .LVU243
 794 034a 01F8013B 		strb	r3, [r1], #1
 795              	.LVL95:
 796              		.loc 1 65 3 view .LVU244
 797 034e 8142     		cmp	r1, r0
 798 0350 F9D1     		bne	.L51
ARM GAS  C:\Users\USER\AppData\Local\Temp\ccUrGOKv.s 			page 15


 799 0352 7644     		add	r6, r6, lr
 800              	.LVL96:
 801              	.L112:
 802              		.loc 1 65 3 view .LVU245
 803 0354 761B     		subs	r6, r6, r5
 804              	.L113:
 805              		.loc 1 65 3 view .LVU246
 806 0356 731E     		subs	r3, r6, #1
 807 0358 0193     		str	r3, [sp, #4]
 808 035a 09E0     		b	.L31
 809              	.LVL97:
 810              	.L24:
 811              		.loc 1 65 3 view .LVU247
 812              	.LBE36:
 813              	.LBE37:
 814              	.LBE38:
 815              	.LBE40:
 816              		.loc 1 192 7 is_stmt 1 view .LVU248
 817              		.loc 1 193 7 view .LVU249
 818              		.loc 1 194 7 is_stmt 0 view .LVU250
 819 035c 0023     		movs	r3, #0
 820 035e 0193     		str	r3, [sp, #4]
 821              		.loc 1 193 12 view .LVU251
 822 0360 58F8043B 		ldr	r3, [r8], #4
 823              	.LVL98:
 824              		.loc 1 193 12 view .LVU252
 825 0364 8DF82830 		strb	r3, [sp, #40]
 826              		.loc 1 194 7 is_stmt 1 view .LVU253
 827              		.loc 1 192 14 is_stmt 0 view .LVU254
 828 0368 2023     		movs	r3, #32
 829              		.loc 1 194 7 view .LVU255
 830 036a 0126     		movs	r6, #1
 831              		.loc 1 192 14 view .LVU256
 832 036c 0293     		str	r3, [sp, #8]
 833              		.loc 1 144 7 view .LVU257
 834 036e 0AAD     		add	r5, sp, #40
 835              	.LVL99:
 836              	.L31:
 837              		.loc 1 250 5 is_stmt 1 view .LVU258
 838              		.loc 1 251 5 view .LVU259
 839              		.loc 1 251 8 is_stmt 0 view .LVU260
 840 0370 A71B     		subs	r7, r4, r6
 841              	.LVL100:
 842              		.loc 1 253 8 view .LVU261
 843 0372 039B     		ldr	r3, [sp, #12]
 844              		.loc 1 251 8 view .LVU262
 845 0374 3FF551AF 		bmi	.L124
 846              	.LVL101:
 847              	.L58:
 848              		.loc 1 253 5 is_stmt 1 view .LVU263
 849              		.loc 1 253 8 is_stmt 0 view .LVU264
 850 0378 002B     		cmp	r3, #0
 851 037a 69D1     		bne	.L61
 852              		.loc 1 254 7 is_stmt 1 view .LVU265
 853              		.loc 1 254 13 is_stmt 0 view .LVU266
 854 037c 361B     		subs	r6, r6, r4
 855              	.LVL102:
ARM GAS  C:\Users\USER\AppData\Local\Temp\ccUrGOKv.s 			page 16


 856              		.loc 1 255 5 is_stmt 1 view .LVU267
 857              		.loc 1 255 8 is_stmt 0 view .LVU268
 858 037e 002F     		cmp	r7, #0
 859 0380 65D0     		beq	.L125
 860              	.LVL103:
 861              	.L74:
 862              		.loc 1 256 7 is_stmt 1 view .LVU269
 863              		.loc 1 256 10 is_stmt 0 view .LVU270
 864 0382 2978     		ldrb	r1, [r5]	@ zero_extendqisi2
 865 0384 DBF80030 		ldr	r3, [fp]
 866 0388 2D29     		cmp	r1, #45
 867 038a 9B68     		ldr	r3, [r3, #8]
 868 038c 00F0B780 		beq	.L126
 869              	.LVL104:
 870              	.L62:
 871              		.loc 1 255 8 discriminator 1 view .LVU271
 872 0390 3746     		mov	r7, r6
 873 0392 029C     		ldr	r4, [sp, #8]
 874 0394 02E0     		b	.L64
 875              	.LVL105:
 876              	.L127:
 877              		.loc 1 255 8 discriminator 1 view .LVU272
 878 0396 DBF80030 		ldr	r3, [fp]
 879 039a 9B68     		ldr	r3, [r3, #8]
 880              	.L64:
 881              		.loc 1 261 7 is_stmt 1 discriminator 1 view .LVU273
 882              		.loc 1 262 9 discriminator 1 view .LVU274
 883 039c 2146     		mov	r1, r4
 884 039e 5846     		mov	r0, fp
 885 03a0 9847     		blx	r3
 886              	.LVL106:
 887              		.loc 1 263 9 discriminator 1 view .LVU275
 888              		.loc 1 264 7 is_stmt 0 discriminator 1 view .LVU276
 889 03a2 0137     		adds	r7, r7, #1
 890              	.LVL107:
 891              		.loc 1 264 7 discriminator 1 view .LVU277
 892 03a4 F7D1     		bne	.L127
 893              		.loc 1 266 11 view .LVU278
 894 03a6 019B     		ldr	r3, [sp, #4]
 895 03a8 002B     		cmp	r3, #0
 896 03aa AAEB060A 		sub	r10, r10, r6
 897              	.LVL108:
 898              		.loc 1 266 11 view .LVU279
 899 03ae FFF631AE 		blt	.L2
 900              	.LVL109:
 901              	.L67:
 902              		.loc 1 266 11 view .LVU280
 903 03b2 019B     		ldr	r3, [sp, #4]
 904 03b4 EC18     		adds	r4, r5, r3
 905              	.LVL110:
 906              	.L65:
 907              		.loc 1 267 7 is_stmt 1 view .LVU281
 908              		.loc 1 267 7 is_stmt 0 view .LVU282
 909 03b6 DBF80030 		ldr	r3, [fp]
 910 03ba 15F8011B 		ldrb	r1, [r5], #1	@ zero_extendqisi2
 911              	.LVL111:
 912              		.loc 1 267 7 view .LVU283
ARM GAS  C:\Users\USER\AppData\Local\Temp\ccUrGOKv.s 			page 17


 913 03be 9B68     		ldr	r3, [r3, #8]
 914 03c0 5846     		mov	r0, fp
 915 03c2 9847     		blx	r3
 916              	.LVL112:
 917              		.loc 1 268 7 is_stmt 1 view .LVU284
 918              		.loc 1 268 7 is_stmt 0 view .LVU285
 919 03c4 631B     		subs	r3, r4, r5
 920              		.loc 1 266 11 view .LVU286
 921 03c6 002B     		cmp	r3, #0
 922 03c8 F5DA     		bge	.L65
 923 03ca 019A     		ldr	r2, [sp, #4]
 924 03cc 0AF10103 		add	r3, r10, #1
 925 03d0 1A44     		add	r2, r2, r3
 926 03d2 9246     		mov	r10, r2
 927              	.LVL113:
 928              	.L66:
 929              		.loc 1 271 11 view .LVU287
 930 03d4 002F     		cmp	r7, #0
 931 03d6 3FF41DAE 		beq	.L2
 932 03da 029D     		ldr	r5, [sp, #8]
 933 03dc 3C46     		mov	r4, r7
 934              	.LVL114:
 935              	.L68:
 936              		.loc 1 272 7 is_stmt 1 view .LVU288
 937 03de DBF80030 		ldr	r3, [fp]
 938 03e2 2946     		mov	r1, r5
 939 03e4 9B68     		ldr	r3, [r3, #8]
 940 03e6 5846     		mov	r0, fp
 941 03e8 9847     		blx	r3
 942              	.LVL115:
 943              		.loc 1 273 7 view .LVU289
 944              		.loc 1 274 7 view .LVU290
 945              		.loc 1 271 11 is_stmt 0 view .LVU291
 946 03ea 013C     		subs	r4, r4, #1
 947              	.LVL116:
 948              		.loc 1 271 11 view .LVU292
 949 03ec F7D1     		bne	.L68
 950 03ee BA44     		add	r10, r10, r7
 951 03f0 10E6     		b	.L2
 952              	.LVL117:
 953              	.L30:
 954              		.loc 1 208 7 is_stmt 1 view .LVU293
 955              		.loc 1 211 11 is_stmt 0 view .LVU294
 956 03f2 D8F80000 		ldr	r0, [r8]
 957 03f6 08F10402 		add	r2, r8, #4
 958              		.loc 1 211 9 is_stmt 1 view .LVU295
 959              	.LVL118:
 960              		.loc 1 212 10 is_stmt 0 view .LVU296
 961 03fa 0028     		cmp	r0, #0
 962              		.loc 1 211 11 view .LVU297
 963 03fc 9046     		mov	r8, r2
 964              	.LVL119:
 965              		.loc 1 212 7 is_stmt 1 view .LVU298
 966              		.loc 1 212 10 is_stmt 0 view .LVU299
 967 03fe 67DB     		blt	.L128
 968              		.loc 1 143 7 view .LVU300
 969 0400 0AAD     		add	r5, sp, #40
ARM GAS  C:\Users\USER\AppData\Local\Temp\ccUrGOKv.s 			page 18


 970              	.LVL120:
 971              		.loc 1 143 7 view .LVU301
 972 0402 2E46     		mov	r6, r5
 973              	.LVL121:
 974              	.L39:
 975              		.loc 1 216 7 is_stmt 1 view .LVU302
 976              	.LBB41:
 977              	.LBI41:
 978              		.loc 1 70 14 view .LVU303
 979              	.LBE41:
 980              		.loc 1 72 3 view .LVU304
 981              	.LBB44:
 982              	.LBB42:
 983              	.LBI42:
 984              		.loc 1 37 14 view .LVU305
 985              	.LBB43:
 986              		.loc 1 41 3 view .LVU306
 987              		.loc 1 42 3 view .LVU307
 988              		.loc 1 43 3 view .LVU308
 989              		.loc 1 45 3 view .LVU309
 990              		.loc 1 46 3 view .LVU310
 991              		.loc 1 52 3 view .LVU311
 992              		.loc 1 52 5 is_stmt 0 view .LVU312
 993 0404 06F10B07 		add	r7, r6, #11
 994              	.LVL122:
 995              		.loc 1 52 5 view .LVU313
 996 0408 3946     		mov	r1, r7
 997 040a 00E0     		b	.L40
 998              	.LVL123:
 999              	.L81:
 1000              		.loc 1 60 3 view .LVU314
 1001 040c 1046     		mov	r0, r2
 1002              	.LVL124:
 1003              	.L40:
 1004              		.loc 1 53 3 is_stmt 1 view .LVU315
 1005              		.loc 1 54 5 view .LVU316
 1006              		.loc 1 54 17 is_stmt 0 view .LVU317
 1007 040e 554B     		ldr	r3, .L130+12
 1008 0410 A3FB0032 		umull	r3, r2, r3, r0
 1009 0414 D208     		lsrs	r2, r2, #3
 1010 0416 02EB8203 		add	r3, r2, r2, lsl #2
 1011 041a A0EB4303 		sub	r3, r0, r3, lsl #1
 1012              	.LVL125:
 1013              		.loc 1 55 5 is_stmt 1 view .LVU318
 1014              		.loc 1 56 5 view .LVU319
 1015              		.loc 1 58 5 view .LVU320
 1016              		.loc 1 55 7 is_stmt 0 view .LVU321
 1017 041e 3033     		adds	r3, r3, #48
 1018              	.LVL126:
 1019              		.loc 1 58 10 view .LVU322
 1020 0420 DBB2     		uxtb	r3, r3
 1021              	.LVL127:
 1022              		.loc 1 60 3 view .LVU323
 1023 0422 0928     		cmp	r0, #9
 1024              		.loc 1 58 10 view .LVU324
 1025 0424 01F8013D 		strb	r3, [r1, #-1]!
 1026              	.LVL128:
ARM GAS  C:\Users\USER\AppData\Local\Temp\ccUrGOKv.s 			page 19


 1027              		.loc 1 59 5 is_stmt 1 view .LVU325
 1028              		.loc 1 60 3 is_stmt 0 view .LVU326
 1029 0428 F0DC     		bgt	.L81
 1030              		.loc 1 62 3 is_stmt 1 view .LVU327
 1031              	.LVL129:
 1032              		.loc 1 62 5 is_stmt 0 view .LVU328
 1033 042a 7A1A     		subs	r2, r7, r1
 1034              	.LVL130:
 1035              		.loc 1 62 5 view .LVU329
 1036 042c 3244     		add	r2, r2, r6
 1037 042e 01E0     		b	.L42
 1038              	.LVL131:
 1039              	.L41:
 1040              		.loc 1 62 5 view .LVU330
 1041 0430 11F8013F 		ldrb	r3, [r1, #1]!	@ zero_extendqisi2
 1042              	.LVL132:
 1043              	.L42:
 1044              		.loc 1 63 3 is_stmt 1 view .LVU331
 1045              		.loc 1 64 5 view .LVU332
 1046              		.loc 1 64 10 is_stmt 0 view .LVU333
 1047 0434 06F8013B 		strb	r3, [r6], #1
 1048              	.LVL133:
 1049              		.loc 1 65 3 view .LVU334
 1050 0438 9642     		cmp	r6, r2
 1051 043a F9D1     		bne	.L41
 1052 043c 8AE7     		b	.L112
 1053              	.LVL134:
 1054              	.L78:
 1055              		.loc 1 65 3 view .LVU335
 1056              	.LBE43:
 1057              	.LBE42:
 1058              	.LBE44:
 1059              		.loc 1 190 5 view .LVU336
 1060 043e 1146     		mov	r1, r2
 1061              	.LVL135:
 1062              	.L16:
 1063              		.loc 1 247 7 is_stmt 1 view .LVU337
 1064              		.loc 1 248 7 is_stmt 0 view .LVU338
 1065 0440 0023     		movs	r3, #0
 1066              		.loc 1 247 12 view .LVU339
 1067 0442 8DF82810 		strb	r1, [sp, #40]
 1068              		.loc 1 248 7 is_stmt 1 view .LVU340
 1069 0446 0193     		str	r3, [sp, #4]
 1070 0448 0126     		movs	r6, #1
 1071              		.loc 1 144 7 is_stmt 0 view .LVU341
 1072 044a 0AAD     		add	r5, sp, #40
 1073              	.LVL136:
 1074              		.loc 1 248 7 view .LVU342
 1075 044c 90E7     		b	.L31
 1076              	.LVL137:
 1077              	.L125:
 1078              		.loc 1 254 13 view .LVU343
 1079 044e 3746     		mov	r7, r6
 1080              	.LVL138:
 1081              	.L61:
 1082              		.loc 1 266 11 view .LVU344
 1083 0450 019B     		ldr	r3, [sp, #4]
ARM GAS  C:\Users\USER\AppData\Local\Temp\ccUrGOKv.s 			page 20


 1084 0452 002B     		cmp	r3, #0
 1085 0454 ADDA     		bge	.L67
 1086              		.loc 1 266 11 view .LVU345
 1087 0456 BDE7     		b	.L66
 1088              	.LVL139:
 1089              	.L59:
 1090              		.loc 1 266 11 view .LVU346
 1091 0458 019B     		ldr	r3, [sp, #4]
 1092 045a 002B     		cmp	r3, #0
 1093              		.loc 1 252 13 view .LVU347
 1094 045c A8BF     		it	ge
 1095 045e 0027     		movge	r7, #0
 1096              		.loc 1 266 11 view .LVU348
 1097 0460 A7DA     		bge	.L67
 1098              		.loc 1 266 11 view .LVU349
 1099 0462 D7E5     		b	.L2
 1100              	.LVL140:
 1101              	.L21:
 1102              		.loc 1 240 7 is_stmt 1 view .LVU350
 1103 0464 58F8041B 		ldr	r1, [r8], #4
 1104              	.LVL141:
 1105              		.loc 1 190 5 is_stmt 0 view .LVU351
 1106 0468 0825     		movs	r5, #8
 1107              	.LVL142:
 1108              	.L53:
 1109              		.loc 1 244 7 is_stmt 1 view .LVU352
 1110              	.LBB45:
 1111              	.LBI45:
 1112              		.loc 1 70 14 view .LVU353
 1113              	.LBE45:
 1114              		.loc 1 72 3 view .LVU354
 1115              	.LBB48:
 1116              	.LBB46:
 1117              	.LBI46:
 1118              		.loc 1 37 14 view .LVU355
 1119              	.LBB47:
 1120              		.loc 1 41 3 view .LVU356
 1121              		.loc 1 42 3 view .LVU357
 1122              		.loc 1 43 3 view .LVU358
 1123              		.loc 1 45 3 view .LVU359
 1124              		.loc 1 46 3 view .LVU360
 1125              		.loc 1 52 3 view .LVU361
 1126              		.loc 1 52 5 is_stmt 0 view .LVU362
 1127 046a 0DF13306 		add	r6, sp, #51
 1128              	.LVL143:
 1129              		.loc 1 52 5 view .LVU363
 1130 046e 3246     		mov	r2, r6
 1131 0470 00E0     		b	.L55
 1132              	.LVL144:
 1133              	.L84:
 1134              		.loc 1 60 3 view .LVU364
 1135 0472 3A46     		mov	r2, r7
 1136              	.LVL145:
 1137              	.L55:
 1138              		.loc 1 53 3 is_stmt 1 view .LVU365
 1139              		.loc 1 54 5 view .LVU366
 1140              		.loc 1 57 7 view .LVU367
ARM GAS  C:\Users\USER\AppData\Local\Temp\ccUrGOKv.s 			page 21


 1141              		.loc 1 54 17 is_stmt 0 view .LVU368
 1142 0474 0846     		mov	r0, r1
 1143 0476 B1FBF5F1 		udiv	r1, r1, r5
 1144              	.LVL146:
 1145              		.loc 1 54 17 view .LVU369
 1146 047a 05FB110C 		mls	ip, r5, r1, r0
 1147              	.LVL147:
 1148              		.loc 1 55 5 is_stmt 1 view .LVU370
 1149              		.loc 1 55 7 is_stmt 0 view .LVU371
 1150 047e 0CF13003 		add	r3, ip, #48
 1151              	.LVL148:
 1152              		.loc 1 56 5 is_stmt 1 view .LVU372
 1153              		.loc 1 56 8 is_stmt 0 view .LVU373
 1154 0482 392B     		cmp	r3, #57
 1155              		.loc 1 57 9 view .LVU374
 1156 0484 C8BF     		it	gt
 1157 0486 0CF13703 		addgt	r3, ip, #55
 1158              	.LVL149:
 1159              		.loc 1 58 5 is_stmt 1 view .LVU375
 1160              		.loc 1 58 10 is_stmt 0 view .LVU376
 1161 048a DBB2     		uxtb	r3, r3
 1162              	.LVL150:
 1163              		.loc 1 60 3 view .LVU377
 1164 048c A842     		cmp	r0, r5
 1165              	.LVL151:
 1166              		.loc 1 58 10 view .LVU378
 1167 048e 02F1FF37 		add	r7, r2, #-1
 1168              	.LVL152:
 1169              		.loc 1 58 10 view .LVU379
 1170 0492 02F8013C 		strb	r3, [r2, #-1]
 1171              		.loc 1 59 5 is_stmt 1 view .LVU380
 1172              	.LVL153:
 1173              		.loc 1 60 3 is_stmt 0 view .LVU381
 1174 0496 ECD2     		bcs	.L84
 1175              		.loc 1 62 3 is_stmt 1 view .LVU382
 1176              		.loc 1 62 5 is_stmt 0 view .LVU383
 1177 0498 F61B     		subs	r6, r6, r7
 1178              	.LVL154:
 1179              		.loc 1 62 5 view .LVU384
 1180 049a 0AAD     		add	r5, sp, #40
 1181              	.LVL155:
 1182              		.loc 1 62 5 view .LVU385
 1183 049c 3744     		add	r7, r7, r6
 1184              	.LVL156:
 1185              		.loc 1 62 5 view .LVU386
 1186 049e 2946     		mov	r1, r5
 1187              	.LVL157:
 1188              		.loc 1 62 5 view .LVU387
 1189 04a0 01E0     		b	.L57
 1190              	.LVL158:
 1191              	.L56:
 1192              		.loc 1 62 5 view .LVU388
 1193 04a2 12F8013B 		ldrb	r3, [r2], #1	@ zero_extendqisi2
 1194              	.LVL159:
 1195              	.L57:
 1196              		.loc 1 63 3 is_stmt 1 view .LVU389
 1197              		.loc 1 64 5 view .LVU390
ARM GAS  C:\Users\USER\AppData\Local\Temp\ccUrGOKv.s 			page 22


 1198              		.loc 1 64 10 is_stmt 0 view .LVU391
 1199 04a6 01F8013B 		strb	r3, [r1], #1
 1200              	.LVL160:
 1201              		.loc 1 65 3 view .LVU392
 1202 04aa BA42     		cmp	r2, r7
 1203 04ac F9D1     		bne	.L56
 1204 04ae 52E7     		b	.L113
 1205              	.LVL161:
 1206              	.L19:
 1207              		.loc 1 65 3 view .LVU393
 1208              	.LBE47:
 1209              	.LBE46:
 1210              	.LBE48:
 1211              		.loc 1 240 7 is_stmt 1 view .LVU394
 1212 04b0 58F8041B 		ldr	r1, [r8], #4
 1213              	.LVL162:
 1214              		.loc 1 190 5 is_stmt 0 view .LVU395
 1215 04b4 0A25     		movs	r5, #10
 1216 04b6 D8E7     		b	.L53
 1217              	.LVL163:
 1218              	.L17:
 1219              		.loc 1 190 5 view .LVU396
 1220 04b8 58F8041B 		ldr	r1, [r8], #4
 1221              	.LVL164:
 1222              		.loc 1 190 5 view .LVU397
 1223 04bc 1025     		movs	r5, #16
 1224 04be D4E7     		b	.L53
 1225              	.LVL165:
 1226              	.L79:
 1227              		.loc 1 190 5 view .LVU398
 1228 04c0 0A25     		movs	r5, #10
 1229              	.L28:
 1230              	.LVL166:
 1231              		.loc 1 240 7 is_stmt 1 view .LVU399
 1232 04c2 58F8041B 		ldr	r1, [r8], #4
 1233              	.LVL167:
 1234              		.loc 1 240 7 is_stmt 0 view .LVU400
 1235 04c6 D0E7     		b	.L53
 1236              	.LVL168:
 1237              	.L26:
 1238              		.loc 1 190 5 view .LVU401
 1239 04c8 1025     		movs	r5, #16
 1240 04ca FAE7     		b	.L28
 1241              	.L29:
 1242 04cc 0825     		movs	r5, #8
 1243 04ce F8E7     		b	.L28
 1244              	.LVL169:
 1245              	.L128:
 1246              		.loc 1 213 9 is_stmt 1 view .LVU402
 1247              		.loc 1 213 14 is_stmt 0 view .LVU403
 1248 04d0 2D23     		movs	r3, #45
 1249              		.loc 1 214 11 view .LVU404
 1250 04d2 4042     		rsbs	r0, r0, #0
 1251              	.LVL170:
 1252              		.loc 1 213 14 view .LVU405
 1253 04d4 8DF82830 		strb	r3, [sp, #40]
 1254              	.LVL171:
ARM GAS  C:\Users\USER\AppData\Local\Temp\ccUrGOKv.s 			page 23


 1255              		.loc 1 214 9 is_stmt 1 view .LVU406
 1256              		.loc 1 213 11 is_stmt 0 view .LVU407
 1257 04d8 0DF12906 		add	r6, sp, #41
 1258              	.LVL172:
 1259              		.loc 1 213 11 view .LVU408
 1260 04dc 0AAD     		add	r5, sp, #40
 1261              	.LVL173:
 1262              		.loc 1 213 11 view .LVU409
 1263 04de 91E7     		b	.L39
 1264              	.LVL174:
 1265              	.L122:
 1266              		.loc 1 222 9 is_stmt 1 view .LVU410
 1267              		.loc 1 222 14 is_stmt 0 view .LVU411
 1268 04e0 2D23     		movs	r3, #45
 1269 04e2 8DF82830 		strb	r3, [sp, #40]
 1270              		.loc 1 223 9 is_stmt 1 view .LVU412
 1271              		.loc 1 222 11 is_stmt 0 view .LVU413
 1272 04e6 0DF12903 		add	r3, sp, #41
 1273              	.LVL175:
 1274              		.loc 1 223 11 view .LVU414
 1275 04ea B1EE488A 		vneg.f32	s16, s16
 1276              	.LVL176:
 1277              		.loc 1 222 11 view .LVU415
 1278 04ee 0193     		str	r3, [sp, #4]
 1279 04f0 0AAD     		add	r5, sp, #40
 1280              	.LVL177:
 1281              		.loc 1 222 11 view .LVU416
 1282 04f2 ADE6     		b	.L43
 1283              	.LVL178:
 1284              	.L32:
 1285              		.loc 1 199 7 is_stmt 1 view .LVU417
 1286              		.loc 1 199 10 is_stmt 0 view .LVU418
 1287 04f4 DFB9     		cbnz	r7, .L89
 1288              		.loc 1 200 19 view .LVU419
 1289 04f6 47F6FF77 		movw	r7, #32767
 1290              	.LVL179:
 1291              		.loc 1 198 11 view .LVU420
 1292 04fa 1B4D     		ldr	r5, .L130+16
 1293 04fc 79E6     		b	.L70
 1294              	.LVL180:
 1295              	.L126:
 1296              		.loc 1 256 21 discriminator 1 view .LVU421
 1297 04fe 029A     		ldr	r2, [sp, #8]
 1298 0500 302A     		cmp	r2, #48
 1299 0502 7FF445AF 		bne	.L62
 1300              		.loc 1 257 9 view .LVU422
 1301 0506 5846     		mov	r0, fp
 1302 0508 9847     		blx	r3
 1303              	.LVL181:
 1304 050a 019A     		ldr	r2, [sp, #4]
 1305 050c DBF80030 		ldr	r3, [fp]
 1306 0510 013A     		subs	r2, r2, #1
 1307 0512 9B68     		ldr	r3, [r3, #8]
 1308 0514 0192     		str	r2, [sp, #4]
 1309 0516 0AF1010A 		add	r10, r10, #1
 1310              	.LVL182:
 1311              		.loc 1 257 9 is_stmt 1 view .LVU423
ARM GAS  C:\Users\USER\AppData\Local\Temp\ccUrGOKv.s 			page 24


 1312              		.loc 1 257 9 is_stmt 0 view .LVU424
 1313 051a 0135     		adds	r5, r5, #1
 1314              	.LVL183:
 1315              		.loc 1 258 9 is_stmt 1 view .LVU425
 1316              		.loc 1 259 9 view .LVU426
 1317 051c 38E7     		b	.L62
 1318              	.LVL184:
 1319              	.L83:
 1320              	.LBB49:
 1321              	.LBB39:
 1322              		.loc 1 83 6 is_stmt 0 view .LVU427
 1323 051e 9FED0E7B 		vldr.64	d7, .L130
 1324 0522 124B     		ldr	r3, .L130+20
 1325 0524 124E     		ldr	r6, .L130+24
 1326 0526 0793     		str	r3, [sp, #28]
 1327 0528 8DED087B 		vstr.64	d7, [sp, #32]
 1328 052c A9E6     		b	.L45
 1329              	.LVL185:
 1330              	.L89:
 1331              		.loc 1 83 6 view .LVU428
 1332              	.LBE39:
 1333              	.LBE49:
 1334              		.loc 1 198 11 view .LVU429
 1335 052e 0E4D     		ldr	r5, .L130+16
 1336 0530 5FE6     		b	.L70
 1337              	.LVL186:
 1338              	.L121:
 1339              		.loc 1 253 5 is_stmt 1 view .LVU430
 1340              		.loc 1 253 8 is_stmt 0 view .LVU431
 1341 0532 039B     		ldr	r3, [sp, #12]
 1342 0534 3BB9     		cbnz	r3, .L88
 1343              		.loc 1 254 7 is_stmt 1 view .LVU432
 1344              		.loc 1 254 13 is_stmt 0 view .LVU433
 1345 0536 6642     		rsbs	r6, r4, #0
 1346              	.LVL187:
 1347              		.loc 1 255 5 is_stmt 1 view .LVU434
 1348              		.loc 1 255 8 is_stmt 0 view .LVU435
 1349 0538 4CB1     		cbz	r4, .L129
 1350 053a 4FF0FF33 		mov	r3, #-1
 1351 053e 2022     		movs	r2, #32
 1352 0540 CDE90132 		strd	r3, r2, [sp, #4]
 1353 0544 1DE7     		b	.L74
 1354              	.LVL188:
 1355              	.L88:
 1356              		.loc 1 196 14 view .LVU436
 1357 0546 2023     		movs	r3, #32
 1358              		.loc 1 253 8 view .LVU437
 1359 0548 2746     		mov	r7, r4
 1360              	.LVL189:
 1361              		.loc 1 196 14 view .LVU438
 1362 054a 0293     		str	r3, [sp, #8]
 1363 054c 42E7     		b	.L66
 1364              	.LVL190:
 1365              	.L129:
 1366              		.loc 1 196 14 view .LVU439
 1367 054e 2023     		movs	r3, #32
 1368              		.loc 1 254 13 view .LVU440
ARM GAS  C:\Users\USER\AppData\Local\Temp\ccUrGOKv.s 			page 25


 1369 0550 3746     		mov	r7, r6
 1370              	.LVL191:
 1371              		.loc 1 196 14 view .LVU441
 1372 0552 0293     		str	r3, [sp, #8]
 1373 0554 3EE7     		b	.L66
 1374              	.L131:
 1375 0556 00BF     		.align	3
 1376              	.L130:
 1377 0558 00000000 		.word	0
 1378 055c 65CDCD41 		.word	1104006501
 1379 0560 00000000 		.word	.LANCHOR0
 1380 0564 CDCCCCCC 		.word	-858993459
 1381 0568 00000000 		.word	.LC0
 1382 056c 00CA9A3B 		.word	1000000000
 1383 0570 00E1F505 		.word	100000000
 1384              		.cfi_endproc
 1385              	.LFE260:
 1386              		.size	chvprintf, .-chvprintf
 1387              		.section	.text.chsnprintf,"ax",%progbits
 1388              		.align	1
 1389              		.p2align 4,,15
 1390              		.global	chsnprintf
 1391              		.syntax unified
 1392              		.thumb
 1393              		.thumb_func
 1394              		.fpu fpv4-sp-d16
 1395              		.type	chsnprintf, %function
 1396              	chsnprintf:
 1397              	.LVL192:
 1398              	.LFB261:
 1399              		.loc 1 307 62 is_stmt 1 view -0
 1400              		.cfi_startproc
 1401              		@ args = 4, pretend = 8, frame = 24
 1402              		@ frame_needed = 0, uses_anonymous_args = 1
 1403              		.loc 1 308 3 view .LVU443
 1404              		.loc 1 309 3 view .LVU444
 1405              		.loc 1 310 3 view .LVU445
 1406              		.loc 1 311 3 view .LVU446
 1407              		.loc 1 312 3 view .LVU447
 1408              		.loc 1 314 3 view .LVU448
 1409              		.loc 1 307 62 is_stmt 0 view .LVU449
 1410 0000 0CB4     		push	{r2, r3}
 1411              		.cfi_def_cfa_offset 8
 1412              		.cfi_offset 2, -8
 1413              		.cfi_offset 3, -4
 1414 0002 30B5     		push	{r4, r5, lr}
 1415              		.cfi_def_cfa_offset 20
 1416              		.cfi_offset 4, -20
 1417              		.cfi_offset 5, -16
 1418              		.cfi_offset 14, -12
 1419 0004 0546     		mov	r5, r0
 1420 0006 87B0     		sub	sp, sp, #28
 1421              		.cfi_def_cfa_offset 48
 1422              		.loc 1 314 6 view .LVU450
 1423 0008 0C46     		mov	r4, r1
 1424 000a B1B1     		cbz	r1, .L133
 1425              		.loc 1 315 5 is_stmt 1 view .LVU451
ARM GAS  C:\Users\USER\AppData\Local\Temp\ccUrGOKv.s 			page 26


 1426              	.LVL193:
 1427              		.loc 1 321 3 view .LVU452
 1428 000c 4A1E     		subs	r2, r1, #1
 1429              	.LVL194:
 1430              		.loc 1 321 3 is_stmt 0 view .LVU453
 1431 000e 01A8     		add	r0, sp, #4
 1432              	.LVL195:
 1433              		.loc 1 321 3 view .LVU454
 1434 0010 0023     		movs	r3, #0
 1435 0012 2946     		mov	r1, r5
 1436              	.LVL196:
 1437              		.loc 1 321 3 view .LVU455
 1438 0014 FFF7FEFF 		bl	msObjectInit
 1439              	.LVL197:
 1440              		.loc 1 324 3 is_stmt 1 view .LVU456
 1441              		.loc 1 325 3 view .LVU457
 1442 0018 0BAB     		add	r3, sp, #44
 1443              		.loc 1 326 12 is_stmt 0 view .LVU458
 1444 001a 1A46     		mov	r2, r3
 1445 001c 01A8     		add	r0, sp, #4
 1446              	.LVL198:
 1447              		.loc 1 326 12 view .LVU459
 1448 001e 0A99     		ldr	r1, [sp, #40]
 1449              		.loc 1 325 3 view .LVU460
 1450 0020 0093     		str	r3, [sp]
 1451              		.loc 1 326 3 is_stmt 1 view .LVU461
 1452              		.loc 1 326 12 is_stmt 0 view .LVU462
 1453 0022 FFF7FEFF 		bl	chvprintf
 1454              	.LVL199:
 1455              		.loc 1 327 3 is_stmt 1 view .LVU463
 1456              		.loc 1 330 3 view .LVU464
 1457              		.loc 1 330 9 is_stmt 0 view .LVU465
 1458 0026 049B     		ldr	r3, [sp, #16]
 1459              		.loc 1 330 6 view .LVU466
 1460 0028 A342     		cmp	r3, r4
 1461 002a 01D2     		bcs	.L132
 1462              		.loc 1 331 7 is_stmt 1 view .LVU467
 1463              		.loc 1 331 19 is_stmt 0 view .LVU468
 1464 002c 0022     		movs	r2, #0
 1465 002e EA54     		strb	r2, [r5, r3]
 1466              		.loc 1 334 3 is_stmt 1 view .LVU469
 1467              	.L132:
 1468              		.loc 1 335 1 is_stmt 0 view .LVU470
 1469 0030 07B0     		add	sp, sp, #28
 1470              		.cfi_remember_state
 1471              		.cfi_def_cfa_offset 20
 1472              		@ sp needed
 1473 0032 BDE83040 		pop	{r4, r5, lr}
 1474              		.cfi_restore 14
 1475              		.cfi_restore 5
 1476              		.cfi_restore 4
 1477              		.cfi_def_cfa_offset 8
 1478              	.LVL200:
 1479              		.loc 1 335 1 view .LVU471
 1480 0036 02B0     		add	sp, sp, #8
 1481              		.cfi_restore 3
 1482              		.cfi_restore 2
ARM GAS  C:\Users\USER\AppData\Local\Temp\ccUrGOKv.s 			page 27


 1483              		.cfi_def_cfa_offset 0
 1484 0038 7047     		bx	lr
 1485              	.LVL201:
 1486              	.L133:
 1487              		.cfi_restore_state
 1488              		.loc 1 321 3 is_stmt 1 view .LVU472
 1489 003a 0146     		mov	r1, r0
 1490              	.LVL202:
 1491              		.loc 1 321 3 is_stmt 0 view .LVU473
 1492 003c 2346     		mov	r3, r4
 1493 003e 01A8     		add	r0, sp, #4
 1494              	.LVL203:
 1495              		.loc 1 321 3 view .LVU474
 1496 0040 2246     		mov	r2, r4
 1497 0042 FFF7FEFF 		bl	msObjectInit
 1498              	.LVL204:
 1499              		.loc 1 324 3 is_stmt 1 view .LVU475
 1500              		.loc 1 325 3 view .LVU476
 1501 0046 0BAB     		add	r3, sp, #44
 1502              		.loc 1 326 12 is_stmt 0 view .LVU477
 1503 0048 01A8     		add	r0, sp, #4
 1504              	.LVL205:
 1505              		.loc 1 326 12 view .LVU478
 1506 004a 1A46     		mov	r2, r3
 1507 004c 0A99     		ldr	r1, [sp, #40]
 1508              		.loc 1 325 3 view .LVU479
 1509 004e 0093     		str	r3, [sp]
 1510              		.loc 1 326 3 is_stmt 1 view .LVU480
 1511              		.loc 1 326 12 is_stmt 0 view .LVU481
 1512 0050 FFF7FEFF 		bl	chvprintf
 1513              	.LVL206:
 1514              		.loc 1 327 3 is_stmt 1 view .LVU482
 1515              		.loc 1 330 3 view .LVU483
 1516              		.loc 1 335 1 is_stmt 0 view .LVU484
 1517 0054 07B0     		add	sp, sp, #28
 1518              		.cfi_def_cfa_offset 20
 1519              		@ sp needed
 1520 0056 BDE83040 		pop	{r4, r5, lr}
 1521              		.cfi_restore 14
 1522              		.cfi_restore 5
 1523              		.cfi_restore 4
 1524              		.cfi_def_cfa_offset 8
 1525              	.LVL207:
 1526              		.loc 1 335 1 view .LVU485
 1527 005a 02B0     		add	sp, sp, #8
 1528              		.cfi_restore 3
 1529              		.cfi_restore 2
 1530              		.cfi_def_cfa_offset 0
 1531 005c 7047     		bx	lr
 1532              		.cfi_endproc
 1533              	.LFE261:
 1534              		.size	chsnprintf, .-chsnprintf
 1535 005e 00BF     		.section	.rodata.chvprintf.str1.4,"aMS",%progbits,1
 1536              		.align	2
 1537              	.LC0:
 1538 0000 286E756C 		.ascii	"(null)\000"
 1538      6C2900
ARM GAS  C:\Users\USER\AppData\Local\Temp\ccUrGOKv.s 			page 28


 1539              		.section	.rodata.pow10,"a"
 1540              		.align	2
 1541              		.set	.LANCHOR0,. + 0
 1542              		.type	pow10, %object
 1543              		.size	pow10, 36
 1544              	pow10:
 1545 0000 0A000000 		.word	10
 1546 0004 64000000 		.word	100
 1547 0008 E8030000 		.word	1000
 1548 000c 10270000 		.word	10000
 1549 0010 A0860100 		.word	100000
 1550 0014 40420F00 		.word	1000000
 1551 0018 80969800 		.word	10000000
 1552 001c 00E1F505 		.word	100000000
 1553 0020 00CA9A3B 		.word	1000000000
 1554              		.text
 1555              	.Letext0:
 1556              		.file 2 "c:\\program files (x86)\\gnu tools arm embedded\\8 2018-q4-major\\lib\\gcc\\arm-none-eabi
 1557              		.file 3 "c:\\program files (x86)\\gnu tools arm embedded\\8 2018-q4-major\\arm-none-eabi\\include\
 1558              		.file 4 "c:\\program files (x86)\\gnu tools arm embedded\\8 2018-q4-major\\arm-none-eabi\\include\
 1559              		.file 5 "src/ChibiOS_3.0.2/os/rt/ports/ARMCMx/compilers/GCC/chtypes.h"
 1560              		.file 6 "src/ChibiOS_3.0.2/os/rt/include/chsystypes.h"
 1561              		.file 7 "src/ChibiOS_3.0.2/os/rt/include/chschd.h"
 1562              		.file 8 "src/ChibiOS_3.0.2/os/ext/CMSIS/include/core_cm4.h"
 1563              		.file 9 "src/ChibiOS_3.0.2/os/ext/CMSIS/ST/system_stm32f4xx.h"
 1564              		.file 10 "src/ChibiOS_3.0.2/os/ext/CMSIS/ST/stm32f407xx.h"
 1565              		.file 11 "src/ChibiOS_3.0.2/os/rt/ports/ARMCMx/chcore.h"
 1566              		.file 12 "src/ChibiOS_3.0.2/os/rt/ports/ARMCMx/chcore_v7m.h"
 1567              		.file 13 "src/ChibiOS_3.0.2/os/rt/include/chtm.h"
 1568              		.file 14 "src/ChibiOS_3.0.2/os/rt/include/chsem.h"
 1569              		.file 15 "src/ChibiOS_3.0.2/os/rt/include/chmtx.h"
 1570              		.file 16 "src/ChibiOS_3.0.2/os/rt/include/chregistry.h"
 1571              		.file 17 "src/ChibiOS_3.0.2/os/rt/include/chevents.h"
 1572              		.file 18 "src/ChibiOS_3.0.2/os/rt/include/chqueues.h"
 1573              		.file 19 "src/ChibiOS_3.0.2/os/rt/include/chstreams.h"
 1574              		.file 20 "src/ChibiOS_3.0.2/os/hal/ports/STM32/STM32F4xx/stm32_dma.h"
 1575              		.file 21 "src/ChibiOS_3.0.2/os/hal/ports/STM32/LLD/GPIOv2/pal_lld.h"
 1576              		.file 22 "src/ChibiOS_3.0.2/os/hal/include/can.h"
 1577              		.file 23 "src/ChibiOS_3.0.2/os/hal/ports/STM32/LLD/can_lld.h"
 1578              		.file 24 "src/ChibiOS_3.0.2/os/hal/include/i2c.h"
 1579              		.file 25 "src/ChibiOS_3.0.2/os/hal/ports/STM32/LLD/I2Cv1/i2c_lld.h"
 1580              		.file 26 "src/ChibiOS_3.0.2/os/hal/include/icu.h"
 1581              		.file 27 "src/ChibiOS_3.0.2/os/hal/ports/STM32/LLD/TIMv1/icu_lld.h"
 1582              		.file 28 "src/ChibiOS_3.0.2/os/hal/ports/STM32/LLD/TIMv1/stm32_tim.h"
 1583              		.file 29 "src/ChibiOS_3.0.2/os/hal/include/serial.h"
 1584              		.file 30 "src/ChibiOS_3.0.2/os/hal/ports/STM32/LLD/USARTv1/serial_lld.h"
 1585              		.file 31 "src/ChibiOS_3.0.2/os/hal/include/spi.h"
 1586              		.file 32 "src/ChibiOS_3.0.2/os/hal/ports/STM32/LLD/SPIv1/spi_lld.h"
 1587              		.file 33 "src/ChibiOS_3.0.2/os/hal/include/uart.h"
 1588              		.file 34 "src/ChibiOS_3.0.2/os/hal/ports/STM32/LLD/USARTv1/uart_lld.h"
 1589              		.file 35 "src/ChibiOS_3.0.2/os/hal/include/usb.h"
 1590              		.file 36 "src/ChibiOS_3.0.2/os/hal/ports/STM32/LLD/OTGv1/usb_lld.h"
 1591              		.file 37 "src/ChibiOS_3.0.2/os/hal/ports/STM32/LLD/OTGv1/stm32_otg.h"
 1592              		.file 38 "c:\\program files (x86)\\gnu tools arm embedded\\8 2018-q4-major\\lib\\gcc\\arm-none-eab
 1593              		.file 39 "src/ChibiOS_3.0.2/os/hal/lib/streams/memstreams.h"
 1594              		.file 40 "<built-in>"