ARM GAS  C:\Users\USER\AppData\Local\Temp\cc9p0EmZ.s 			page 1


   1              		.cpu cortex-m4
   2              		.eabi_attribute 27, 1
   3              		.eabi_attribute 28, 1
   4              		.eabi_attribute 20, 1
   5              		.eabi_attribute 21, 1
   6              		.eabi_attribute 23, 3
   7              		.eabi_attribute 24, 1
   8              		.eabi_attribute 25, 1
   9              		.eabi_attribute 26, 1
  10              		.eabi_attribute 30, 2
  11              		.eabi_attribute 34, 1
  12              		.eabi_attribute 18, 4
  13              		.file	"chschd.c"
  14              		.text
  15              	.Ltext0:
  16              		.cfi_sections	.debug_frame
  17              		.section	.text.wakeup,"ax",%progbits
  18              		.align	1
  19              		.p2align 4,,15
  20              		.arch armv7e-m
  21              		.syntax unified
  22              		.thumb
  23              		.thumb_func
  24              		.fpu fpv4-sp-d16
  25              		.type	wakeup, %function
  26              	wakeup:
  27              	.LVL0:
  28              	.LFB222:
  29              		.file 1 "src/ChibiOS_3.0.2/os/rt/src/chschd.c"
  30              		.loc 1 275 29 view -0
  31              		.cfi_startproc
  32              		@ args = 0, pretend = 0, frame = 0
  33              		@ frame_needed = 0, uses_anonymous_args = 0
  34              		@ link register save eliminated.
  35              		.loc 1 276 3 view .LVU1
  36              		.loc 1 278 3 view .LVU2
  37              	.LBB128:
  38              	.LBI128:
  39              		.file 2 "src/ChibiOS_3.0.2/os/rt/include/chsys.h"
  40              		.loc 2 386 20 view .LVU3
  41              	.LBE128:
  42              		.loc 2 388 3 view .LVU4
  43              	.LBB136:
  44              	.LBB129:
  45              	.LBI129:
  46              		.file 3 "src/ChibiOS_3.0.2/os/rt/ports/ARMCMx/chcore_v7m.h"
  47              		.loc 3 473 20 view .LVU5
  48              	.LBE129:
  49              	.LBE136:
  50              		.loc 3 475 3 view .LVU6
  51              	.LBB137:
  52              	.LBB134:
  53              	.LBB130:
  54              	.LBI130:
  55              		.loc 3 444 20 view .LVU7
  56              	.LBE130:
  57              	.LBE134:
ARM GAS  C:\Users\USER\AppData\Local\Temp\cc9p0EmZ.s 			page 2


  58              	.LBE137:
  59              		.loc 3 447 3 view .LVU8
  60              	.LBB138:
  61              	.LBB135:
  62              	.LBB133:
  63              	.LBB131:
  64              	.LBI131:
  65              		.file 4 "src/ChibiOS_3.0.2/os/ext/CMSIS/include/core_cmFunc.h"
  66              		.loc 4 544 57 view .LVU9
  67              	.LBB132:
  68              		.loc 4 546 3 view .LVU10
  69 0000 2023     		movs	r3, #32
  70              		.syntax unified
  71              	@ 546 "src/ChibiOS_3.0.2/os/ext/CMSIS/include/core_cmFunc.h" 1
  72 0002 83F31188 		MSR basepri, r3
  73              	@ 0 "" 2
  74              	.LVL1:
  75              		.loc 4 546 3 is_stmt 0 view .LVU11
  76              		.thumb
  77              		.syntax unified
  78              	.LBE132:
  79              	.LBE131:
  80              	.LBE133:
  81              	.LBE135:
  82              	.LBE138:
  83              		.loc 2 389 34 is_stmt 1 view .LVU12
  84              		.loc 2 390 29 view .LVU13
  85              		.loc 1 279 3 view .LVU14
  86 0006 037F     		ldrb	r3, [r0, #28]	@ zero_extendqisi2
  87 0008 072B     		cmp	r3, #7
  88 000a 0DD8     		bhi	.L2
  89 000c DFE803F0 		tbb	[pc, r3]
  90              	.L4:
  91 0010 27       		.byte	(.L7-.L4)/2
  92 0011 0C       		.byte	(.L2-.L4)/2
  93 0012 0C       		.byte	(.L2-.L4)/2
  94 0013 23       		.byte	(.L6-.L4)/2
  95 0014 08       		.byte	(.L3-.L4)/2
  96 0015 04       		.byte	(.L5-.L4)/2
  97 0016 0C       		.byte	(.L2-.L4)/2
  98 0017 08       		.byte	(.L3-.L4)/2
  99              		.p2align 1
 100              	.L5:
 101              		.loc 1 290 5 view .LVU15
 102              		.loc 1 290 29 is_stmt 0 view .LVU16
 103 0018 426A     		ldr	r2, [r0, #36]
 104              	.LBB139:
 105              	.LBI139:
 106              		.file 5 "src/ChibiOS_3.0.2/os/rt/include/chsem.h"
 107              		.loc 5 134 20 is_stmt 1 view .LVU17
 108              	.LVL2:
 109              	.LBB140:
 110              		.loc 5 136 21 view .LVU18
 111              		.loc 5 138 3 view .LVU19
 112              		.loc 5 138 12 is_stmt 0 view .LVU20
 113 001a 9368     		ldr	r3, [r2, #8]
 114 001c 0133     		adds	r3, r3, #1
ARM GAS  C:\Users\USER\AppData\Local\Temp\cc9p0EmZ.s 			page 3


 115 001e 9360     		str	r3, [r2, #8]
 116              	.LVL3:
 117              	.L3:
 118              		.loc 5 138 12 view .LVU21
 119              	.LBE140:
 120              	.LBE139:
 121              		.loc 1 298 5 is_stmt 1 view .LVU22
 122              	.LBB141:
 123              	.LBI141:
 124              		.file 6 "src/ChibiOS_3.0.2/os/rt/include/chschd.h"
 125              		.loc 6 689 25 view .LVU23
 126              	.LBB142:
 127              		.loc 6 691 3 view .LVU24
 128              		.loc 6 691 26 is_stmt 0 view .LVU25
 129 0020 D0E90032 		ldrd	r3, r2, [r0]
 130              		.loc 6 691 22 view .LVU26
 131 0024 1360     		str	r3, [r2]
 132              		.loc 6 692 3 is_stmt 1 view .LVU27
 133              		.loc 6 692 22 is_stmt 0 view .LVU28
 134 0026 5A60     		str	r2, [r3, #4]
 135              		.loc 6 694 3 is_stmt 1 view .LVU29
 136              	.LVL4:
 137              	.L2:
 138              		.loc 6 694 3 is_stmt 0 view .LVU30
 139              	.LBE142:
 140              	.LBE141:
 141              		.loc 1 304 3 is_stmt 1 view .LVU31
 142              		.loc 1 275 29 is_stmt 0 view .LVU32
 143 0028 10B4     		push	{r4}
 144              		.cfi_def_cfa_offset 4
 145              		.cfi_offset 4, -4
 146              	.LBB143:
 147              	.LBB144:
 148              		.loc 1 227 15 view .LVU33
 149 002a 0022     		movs	r2, #0
 150              	.LBE144:
 151              	.LBE143:
 152              		.loc 1 304 18 view .LVU34
 153 002c 4FF0FF34 		mov	r4, #-1
 154              	.LBB146:
 155              	.LBB147:
 156              	.LBB148:
 157              	.LBB149:
 158              		.loc 1 231 28 view .LVU35
 159 0030 8168     		ldr	r1, [r0, #8]
 160              		.loc 1 228 6 view .LVU36
 161 0032 0D4B     		ldr	r3, .L15
 162              	.LBE149:
 163              	.LBE148:
 164              	.LBE147:
 165              	.LBE146:
 166              		.loc 1 304 18 view .LVU37
 167 0034 4462     		str	r4, [r0, #36]
 168              		.loc 1 305 3 is_stmt 1 view .LVU38
 169              	.LVL5:
 170              	.LBB174:
 171              	.LBI143:
ARM GAS  C:\Users\USER\AppData\Local\Temp\cc9p0EmZ.s 			page 4


 172              		.loc 1 218 11 view .LVU39
 173              	.LBB145:
 174              		.loc 1 219 3 view .LVU40
 175              		.loc 1 221 21 view .LVU41
 176              		.loc 1 222 3 view .LVU42
 177              		.loc 1 222 3 view .LVU43
 178              		.loc 1 223 3 view .LVU44
 179              		.loc 1 223 3 view .LVU45
 180              		.loc 1 227 3 view .LVU46
 181              		.loc 1 227 15 is_stmt 0 view .LVU47
 182 0036 0277     		strb	r2, [r0, #28]
 183              		.loc 1 228 3 is_stmt 1 view .LVU48
 184              	.LVL6:
 185              		.loc 1 228 3 is_stmt 0 view .LVU49
 186              	.LBE145:
 187              	.LBE174:
 188              	.LBB175:
 189              	.LBI146:
 190              		.loc 1 275 13 is_stmt 1 view .LVU50
 191              	.L9:
 192              	.LBB170:
 193              	.LBB152:
 194              	.LBB150:
 195              		.loc 1 229 3 view .LVU51
 196              		.loc 1 230 5 view .LVU52
 197              		.loc 1 230 8 is_stmt 0 view .LVU53
 198 0038 1B68     		ldr	r3, [r3]
 199              	.LVL7:
 200              		.loc 1 231 3 view .LVU54
 201 003a 9A68     		ldr	r2, [r3, #8]
 202 003c 8A42     		cmp	r2, r1
 203 003e FBD2     		bcs	.L9
 204              		.loc 1 233 3 is_stmt 1 view .LVU55
 205              		.loc 1 234 18 is_stmt 0 view .LVU56
 206 0040 5A68     		ldr	r2, [r3, #4]
 207              	.LBE150:
 208              	.LBE152:
 209              	.LBB153:
 210              	.LBB154:
 211              	.LBB155:
 212              	.LBB156:
 213              	.LBB157:
 214              		.loc 4 546 3 view .LVU57
 215 0042 0021     		movs	r1, #0
 216              	.LBE157:
 217              	.LBE156:
 218              	.LBE155:
 219              	.LBE154:
 220              	.LBE153:
 221              	.LBB165:
 222              	.LBB151:
 223              		.loc 1 234 14 view .LVU58
 224 0044 C0E90032 		strd	r3, r2, [r0]
 225              		.loc 1 235 3 is_stmt 1 view .LVU59
 226              		.loc 1 235 22 is_stmt 0 view .LVU60
 227 0048 1060     		str	r0, [r2]
 228              		.loc 1 236 3 is_stmt 1 view .LVU61
ARM GAS  C:\Users\USER\AppData\Local\Temp\cc9p0EmZ.s 			page 5


 229              		.loc 1 236 14 is_stmt 0 view .LVU62
 230 004a 5860     		str	r0, [r3, #4]
 231              		.loc 1 238 3 is_stmt 1 view .LVU63
 232              	.LVL8:
 233              		.loc 1 238 3 is_stmt 0 view .LVU64
 234              	.LBE151:
 235              	.LBE165:
 236              		.loc 1 306 3 is_stmt 1 view .LVU65
 237              	.LBB166:
 238              	.LBI153:
 239              		.loc 2 406 20 view .LVU66
 240              	.LBE166:
 241              	.LBE170:
 242              	.LBE175:
 243              		.loc 2 408 31 view .LVU67
 244              		.loc 2 409 33 view .LVU68
 245              		.loc 2 410 3 view .LVU69
 246              	.LBB176:
 247              	.LBB171:
 248              	.LBB167:
 249              	.LBB162:
 250              	.LBI154:
 251              		.loc 3 484 20 view .LVU70
 252              	.LBE162:
 253              	.LBE167:
 254              	.LBE171:
 255              	.LBE176:
 256              		.loc 3 486 3 view .LVU71
 257              	.LBB177:
 258              	.LBB172:
 259              	.LBB168:
 260              	.LBB163:
 261              	.LBB160:
 262              	.LBI155:
 263              		.loc 3 458 20 view .LVU72
 264              	.LBE160:
 265              	.LBE163:
 266              	.LBE168:
 267              	.LBE172:
 268              	.LBE177:
 269              		.loc 3 461 3 view .LVU73
 270              	.LBB178:
 271              	.LBB173:
 272              	.LBB169:
 273              	.LBB164:
 274              	.LBB161:
 275              	.LBB159:
 276              	.LBI156:
 277              		.loc 4 544 57 view .LVU74
 278              	.LBB158:
 279              		.loc 4 546 3 view .LVU75
 280              		.syntax unified
 281              	@ 546 "src/ChibiOS_3.0.2/os/ext/CMSIS/include/core_cmFunc.h" 1
 282 004c 81F31188 		MSR basepri, r1
 283              	@ 0 "" 2
 284              	.LVL9:
 285              		.loc 4 546 3 is_stmt 0 view .LVU76
ARM GAS  C:\Users\USER\AppData\Local\Temp\cc9p0EmZ.s 			page 6


 286              		.thumb
 287              		.syntax unified
 288              	.LBE158:
 289              	.LBE159:
 290              	.LBE161:
 291              	.LBE164:
 292              	.LBE169:
 293              	.LBE173:
 294              	.LBE178:
 295              		.loc 1 307 1 view .LVU77
 296 0050 5DF8044B 		ldr	r4, [sp], #4
 297              		.cfi_restore 4
 298              		.cfi_def_cfa_offset 0
 299 0054 7047     		bx	lr
 300              	.LVL10:
 301              	.L6:
 302              		.loc 1 286 5 is_stmt 1 view .LVU78
 303              		.loc 1 286 13 is_stmt 0 view .LVU79
 304 0056 436A     		ldr	r3, [r0, #36]
 305              		.loc 1 286 20 view .LVU80
 306 0058 0022     		movs	r2, #0
 307 005a 1A60     		str	r2, [r3]
 308              		.loc 1 287 5 is_stmt 1 view .LVU81
 309 005c E4E7     		b	.L2
 310              	.L7:
 311              		.loc 1 283 5 view .LVU82
 312              	.LBB179:
 313              	.LBI179:
 314              		.loc 2 406 20 view .LVU83
 315              	.LBE179:
 316              		.loc 2 408 31 view .LVU84
 317              		.loc 2 409 33 view .LVU85
 318              		.loc 2 410 3 view .LVU86
 319              	.LBB187:
 320              	.LBB180:
 321              	.LBI180:
 322              		.loc 3 484 20 view .LVU87
 323              	.LBE180:
 324              	.LBE187:
 325              		.loc 3 486 3 view .LVU88
 326              	.LBB188:
 327              	.LBB185:
 328              	.LBB181:
 329              	.LBI181:
 330              		.loc 3 458 20 view .LVU89
 331              	.LBE181:
 332              	.LBE185:
 333              	.LBE188:
 334              		.loc 3 461 3 view .LVU90
 335              	.LVL11:
 336              	.LBB189:
 337              	.LBB186:
 338              	.LBB184:
 339              	.LBB182:
 340              	.LBI182:
 341              		.loc 4 544 57 view .LVU91
 342              	.LBB183:
ARM GAS  C:\Users\USER\AppData\Local\Temp\cc9p0EmZ.s 			page 7


 343              		.loc 4 546 3 view .LVU92
 344 005e 0023     		movs	r3, #0
 345              		.syntax unified
 346              	@ 546 "src/ChibiOS_3.0.2/os/ext/CMSIS/include/core_cmFunc.h" 1
 347 0060 83F31188 		MSR basepri, r3
 348              	@ 0 "" 2
 349              	.LVL12:
 350              		.loc 4 546 3 is_stmt 0 view .LVU93
 351              		.thumb
 352              		.syntax unified
 353 0064 7047     		bx	lr
 354              	.L16:
 355 0066 00BF     		.align	2
 356              	.L15:
 357 0068 00000000 		.word	.LANCHOR0
 358              	.LBE183:
 359              	.LBE182:
 360              	.LBE184:
 361              	.LBE186:
 362              	.LBE189:
 363              		.cfi_endproc
 364              	.LFE222:
 365              		.size	wakeup, .-wakeup
 366              		.section	.text._scheduler_init,"ax",%progbits
 367              		.align	1
 368              		.p2align 4,,15
 369              		.global	_scheduler_init
 370              		.syntax unified
 371              		.thumb
 372              		.thumb_func
 373              		.fpu fpv4-sp-d16
 374              		.type	_scheduler_init, %function
 375              	_scheduler_init:
 376              	.LFB219:
 377              		.loc 1 65 28 is_stmt 1 view -0
 378              		.cfi_startproc
 379              		@ args = 0, pretend = 0, frame = 0
 380              		@ frame_needed = 0, uses_anonymous_args = 0
 381              		@ link register save eliminated.
 382              		.loc 1 67 3 view .LVU95
 383              	.LVL13:
 384              	.LBB190:
 385              	.LBI190:
 386              		.loc 6 602 20 view .LVU96
 387              	.LBB191:
 388              		.loc 6 604 3 view .LVU97
 389              		.loc 6 604 15 is_stmt 0 view .LVU98
 390 0000 034B     		ldr	r3, .L18
 391              	.LBE191:
 392              	.LBE190:
 393              		.loc 1 68 19 view .LVU99
 394 0002 0022     		movs	r2, #0
 395              	.LBB193:
 396              	.LBB192:
 397              		.loc 6 605 15 view .LVU100
 398 0004 C3E90033 		strd	r3, r3, [r3]
 399              	.LVL14:
ARM GAS  C:\Users\USER\AppData\Local\Temp\cc9p0EmZ.s 			page 8


 400              		.loc 6 605 15 view .LVU101
 401              	.LBE192:
 402              	.LBE193:
 403              		.loc 1 68 3 is_stmt 1 view .LVU102
 404              		.loc 1 71 20 is_stmt 0 view .LVU103
 405 0008 C3E90433 		strd	r3, r3, [r3, #16]
 406              		.loc 1 68 19 view .LVU104
 407 000c 9A60     		str	r2, [r3, #8]
 408              		.loc 1 70 3 is_stmt 1 view .LVU105
 409              		.loc 1 71 3 view .LVU106
 410              		.loc 1 73 1 is_stmt 0 view .LVU107
 411 000e 7047     		bx	lr
 412              	.L19:
 413              		.align	2
 414              	.L18:
 415 0010 00000000 		.word	.LANCHOR0
 416              		.cfi_endproc
 417              	.LFE219:
 418              		.size	_scheduler_init, .-_scheduler_init
 419              		.section	.text.chSchReadyI,"ax",%progbits
 420              		.align	1
 421              		.p2align 4,,15
 422              		.global	chSchReadyI
 423              		.syntax unified
 424              		.thumb
 425              		.thumb_func
 426              		.fpu fpv4-sp-d16
 427              		.type	chSchReadyI, %function
 428              	chSchReadyI:
 429              	.LVL15:
 430              	.LFB220:
 431              		.loc 1 218 37 is_stmt 1 view -0
 432              		.cfi_startproc
 433              		@ args = 0, pretend = 0, frame = 0
 434              		@ frame_needed = 0, uses_anonymous_args = 0
 435              		@ link register save eliminated.
 436              		.loc 1 219 3 view .LVU109
 437              		.loc 1 221 21 view .LVU110
 438              		.loc 1 222 3 view .LVU111
 439              		.loc 1 222 3 view .LVU112
 440              		.loc 1 223 3 view .LVU113
 441              		.loc 1 223 3 view .LVU114
 442              		.loc 1 227 3 view .LVU115
 443              		.loc 1 227 15 is_stmt 0 view .LVU116
 444 0000 0022     		movs	r2, #0
 445              		.loc 1 231 28 view .LVU117
 446 0002 8168     		ldr	r1, [r0, #8]
 447              		.loc 1 228 6 view .LVU118
 448 0004 084B     		ldr	r3, .L24
 449              		.loc 1 218 37 view .LVU119
 450 0006 10B4     		push	{r4}
 451              		.cfi_def_cfa_offset 4
 452              		.cfi_offset 4, -4
 453              		.loc 1 218 37 view .LVU120
 454 0008 0446     		mov	r4, r0
 455              		.loc 1 227 15 view .LVU121
 456 000a 0277     		strb	r2, [r0, #28]
ARM GAS  C:\Users\USER\AppData\Local\Temp\cc9p0EmZ.s 			page 9


 457              		.loc 1 228 3 is_stmt 1 view .LVU122
 458              	.LVL16:
 459              	.L21:
 460              		.loc 1 229 3 discriminator 1 view .LVU123
 461              		.loc 1 230 5 discriminator 1 view .LVU124
 462              		.loc 1 230 8 is_stmt 0 discriminator 1 view .LVU125
 463 000c 1B68     		ldr	r3, [r3]
 464              	.LVL17:
 465              		.loc 1 231 3 discriminator 1 view .LVU126
 466 000e 9A68     		ldr	r2, [r3, #8]
 467 0010 8A42     		cmp	r2, r1
 468 0012 FBD2     		bcs	.L21
 469              		.loc 1 233 3 is_stmt 1 view .LVU127
 470              		.loc 1 234 18 is_stmt 0 view .LVU128
 471 0014 5A68     		ldr	r2, [r3, #4]
 472              		.loc 1 239 1 view .LVU129
 473 0016 2046     		mov	r0, r4
 474              	.LVL18:
 475              		.loc 1 234 14 view .LVU130
 476 0018 C4E90032 		strd	r3, r2, [r4]
 477              		.loc 1 235 3 is_stmt 1 view .LVU131
 478              		.loc 1 235 22 is_stmt 0 view .LVU132
 479 001c 1460     		str	r4, [r2]
 480              		.loc 1 236 3 is_stmt 1 view .LVU133
 481              		.loc 1 236 14 is_stmt 0 view .LVU134
 482 001e 5C60     		str	r4, [r3, #4]
 483              		.loc 1 238 3 is_stmt 1 view .LVU135
 484              		.loc 1 239 1 is_stmt 0 view .LVU136
 485 0020 5DF8044B 		ldr	r4, [sp], #4
 486              		.cfi_restore 4
 487              		.cfi_def_cfa_offset 0
 488              	.LVL19:
 489              		.loc 1 239 1 view .LVU137
 490 0024 7047     		bx	lr
 491              	.L25:
 492 0026 00BF     		.align	2
 493              	.L24:
 494 0028 00000000 		.word	.LANCHOR0
 495              		.cfi_endproc
 496              	.LFE220:
 497              		.size	chSchReadyI, .-chSchReadyI
 498              		.section	.text.chSchGoSleepS,"ax",%progbits
 499              		.align	1
 500              		.p2align 4,,15
 501              		.global	chSchGoSleepS
 502              		.syntax unified
 503              		.thumb
 504              		.thumb_func
 505              		.fpu fpv4-sp-d16
 506              		.type	chSchGoSleepS, %function
 507              	chSchGoSleepS:
 508              	.LVL20:
 509              	.LFB221:
 510              		.loc 1 250 39 is_stmt 1 view -0
 511              		.cfi_startproc
 512              		@ args = 0, pretend = 0, frame = 0
 513              		@ frame_needed = 0, uses_anonymous_args = 0
ARM GAS  C:\Users\USER\AppData\Local\Temp\cc9p0EmZ.s 			page 10


 514              		@ link register save eliminated.
 515              		.loc 1 251 3 view .LVU139
 516              		.loc 1 253 21 view .LVU140
 517              		.loc 1 255 3 view .LVU141
 518              		.loc 1 255 7 is_stmt 0 view .LVU142
 519 0000 084B     		ldr	r3, .L28
 520 0002 9969     		ldr	r1, [r3, #24]
 521              	.LVL21:
 522              		.loc 1 256 3 is_stmt 1 view .LVU143
 523              	.LBB194:
 524              	.LBB195:
 525              		.loc 6 672 13 is_stmt 0 view .LVU144
 526 0004 1A68     		ldr	r2, [r3]
 527              	.LBE195:
 528              	.LBE194:
 529              		.loc 1 250 39 view .LVU145
 530 0006 10B4     		push	{r4}
 531              		.cfi_def_cfa_offset 4
 532              		.cfi_offset 4, -4
 533              		.loc 1 256 16 view .LVU146
 534 0008 0877     		strb	r0, [r1, #28]
 535              		.loc 1 260 3 is_stmt 1 view .LVU147
 536              		.loc 1 260 18 is_stmt 0 view .LVU148
 537 000a 0420     		movs	r0, #4
 538              	.LVL22:
 539              		.loc 1 260 18 view .LVU149
 540 000c C877     		strb	r0, [r1, #31]
 541              		.loc 1 262 3 is_stmt 1 view .LVU150
 542              	.LVL23:
 543              	.LBB198:
 544              	.LBI194:
 545              		.loc 6 671 25 view .LVU151
 546              	.LBB196:
 547              		.loc 6 672 3 view .LVU152
 548              		.loc 6 674 3 view .LVU153
 549              		.loc 6 674 19 is_stmt 0 view .LVU154
 550 000e 1068     		ldr	r0, [r2]
 551              		.loc 6 674 15 view .LVU155
 552 0010 1860     		str	r0, [r3]
 553              		.loc 6 675 3 is_stmt 1 view .LVU156
 554              	.LBE196:
 555              	.LBE198:
 556              		.loc 1 268 18 is_stmt 0 view .LVU157
 557 0012 0124     		movs	r4, #1
 558              	.LBB199:
 559              	.LBB197:
 560              		.loc 6 675 23 view .LVU158
 561 0014 4360     		str	r3, [r0, #4]
 562              	.LVL24:
 563              		.loc 6 677 3 is_stmt 1 view .LVU159
 564              		.loc 6 677 3 is_stmt 0 view .LVU160
 565              	.LBE197:
 566              	.LBE199:
 567              		.loc 1 268 18 view .LVU161
 568 0016 1477     		strb	r4, [r2, #28]
 569              		.loc 1 269 3 view .LVU162
 570 0018 1046     		mov	r0, r2
ARM GAS  C:\Users\USER\AppData\Local\Temp\cc9p0EmZ.s 			page 11


 571              		.loc 1 270 1 view .LVU163
 572 001a 5DF8044B 		ldr	r4, [sp], #4
 573              		.cfi_restore 4
 574              		.cfi_def_cfa_offset 0
 575              		.loc 1 262 3 view .LVU164
 576 001e 9A61     		str	r2, [r3, #24]
 577              		.loc 1 264 3 is_stmt 1 view .LVU165
 578              		.loc 1 265 5 view .LVU166
 579              		.loc 1 265 29 view .LVU167
 580              		.loc 1 268 3 view .LVU168
 581              		.loc 1 269 3 view .LVU169
 582              		.loc 1 269 3 view .LVU170
 583              		.loc 1 269 3 view .LVU171
 584              		.loc 1 269 3 view .LVU172
 585              		.loc 1 269 3 view .LVU173
 586 0020 FFF7FEBF 		b	_port_switch
 587              	.LVL25:
 588              	.L29:
 589              		.loc 1 269 3 is_stmt 0 view .LVU174
 590              		.align	2
 591              	.L28:
 592 0024 00000000 		.word	.LANCHOR0
 593              		.cfi_endproc
 594              	.LFE221:
 595              		.size	chSchGoSleepS, .-chSchGoSleepS
 596              		.section	.text.chSchGoSleepTimeoutS,"ax",%progbits
 597              		.align	1
 598              		.p2align 4,,15
 599              		.global	chSchGoSleepTimeoutS
 600              		.syntax unified
 601              		.thumb
 602              		.thumb_func
 603              		.fpu fpv4-sp-d16
 604              		.type	chSchGoSleepTimeoutS, %function
 605              	chSchGoSleepTimeoutS:
 606              	.LVL26:
 607              	.LFB223:
 608              		.loc 1 330 63 is_stmt 1 view -0
 609              		.cfi_startproc
 610              		@ args = 0, pretend = 0, frame = 24
 611              		@ frame_needed = 0, uses_anonymous_args = 0
 612              		.loc 1 332 21 view .LVU176
 613              		.loc 1 334 3 view .LVU177
 614              		.loc 1 330 63 is_stmt 0 view .LVU178
 615 0000 30B5     		push	{r4, r5, lr}
 616              		.cfi_def_cfa_offset 12
 617              		.cfi_offset 4, -12
 618              		.cfi_offset 5, -8
 619              		.cfi_offset 14, -4
 620              		.loc 1 334 6 view .LVU179
 621 0002 4B1C     		adds	r3, r1, #1
 622              		.loc 1 330 63 view .LVU180
 623 0004 87B0     		sub	sp, sp, #28
 624              		.cfi_def_cfa_offset 40
 625              		.loc 1 334 6 view .LVU181
 626 0006 12D0     		beq	.L31
 627              	.LBB200:
ARM GAS  C:\Users\USER\AppData\Local\Temp\cc9p0EmZ.s 			page 12


 628              		.loc 1 335 5 is_stmt 1 view .LVU182
 629              		.loc 1 337 5 view .LVU183
 630              		.loc 1 337 35 is_stmt 0 view .LVU184
 631 0008 0C4C     		ldr	r4, .L38
 632              		.loc 1 337 5 view .LVU185
 633 000a 0D4A     		ldr	r2, .L38+4
 634 000c A369     		ldr	r3, [r4, #24]
 635 000e 0546     		mov	r5, r0
 636 0010 01A8     		add	r0, sp, #4
 637              	.LVL27:
 638              		.loc 1 337 5 view .LVU186
 639 0012 FFF7FEFF 		bl	chVTDoSetI
 640              	.LVL28:
 641              		.loc 1 338 5 is_stmt 1 view .LVU187
 642 0016 2846     		mov	r0, r5
 643 0018 FFF7FEFF 		bl	chSchGoSleepS
 644              	.LVL29:
 645              		.loc 1 339 5 view .LVU188
 646              		.loc 1 339 5 is_stmt 0 view .LVU189
 647              	.LBE200:
 648              		.file 7 "src/ChibiOS_3.0.2/os/rt/include/chvt.h"
 649              		.loc 7 339 21 is_stmt 1 view .LVU190
 650              		.loc 7 341 3 view .LVU191
 651              	.LBB201:
 652              		.loc 1 339 8 is_stmt 0 view .LVU192
 653 001c 049B     		ldr	r3, [sp, #16]
 654 001e 13B1     		cbz	r3, .L33
 655              		.loc 1 340 7 is_stmt 1 view .LVU193
 656 0020 01A8     		add	r0, sp, #4
 657              	.LVL30:
 658              		.loc 1 340 7 is_stmt 0 view .LVU194
 659 0022 FFF7FEFF 		bl	chVTDoResetI
 660              	.LVL31:
 661              	.L33:
 662              		.loc 1 340 7 view .LVU195
 663              	.LBE201:
 664              		.loc 1 347 3 is_stmt 1 view .LVU196
 665              		.loc 1 347 20 is_stmt 0 view .LVU197
 666 0026 A369     		ldr	r3, [r4, #24]
 667              		.loc 1 348 1 view .LVU198
 668 0028 586A     		ldr	r0, [r3, #36]
 669 002a 07B0     		add	sp, sp, #28
 670              		.cfi_remember_state
 671              		.cfi_def_cfa_offset 12
 672              		@ sp needed
 673 002c 30BD     		pop	{r4, r5, pc}
 674              	.LVL32:
 675              	.L31:
 676              		.cfi_restore_state
 677              		.loc 1 344 5 is_stmt 1 view .LVU199
 678 002e 034C     		ldr	r4, .L38
 679 0030 FFF7FEFF 		bl	chSchGoSleepS
 680              	.LVL33:
 681              		.loc 1 347 3 view .LVU200
 682              		.loc 1 347 20 is_stmt 0 view .LVU201
 683 0034 A369     		ldr	r3, [r4, #24]
 684              		.loc 1 348 1 view .LVU202
ARM GAS  C:\Users\USER\AppData\Local\Temp\cc9p0EmZ.s 			page 13


 685 0036 586A     		ldr	r0, [r3, #36]
 686 0038 07B0     		add	sp, sp, #28
 687              		.cfi_def_cfa_offset 12
 688              		@ sp needed
 689 003a 30BD     		pop	{r4, r5, pc}
 690              	.L39:
 691              		.align	2
 692              	.L38:
 693 003c 00000000 		.word	.LANCHOR0
 694 0040 00000000 		.word	wakeup
 695              		.cfi_endproc
 696              	.LFE223:
 697              		.size	chSchGoSleepTimeoutS, .-chSchGoSleepTimeoutS
 698              		.section	.text.chSchWakeupS,"ax",%progbits
 699              		.align	1
 700              		.p2align 4,,15
 701              		.global	chSchWakeupS
 702              		.syntax unified
 703              		.thumb
 704              		.thumb_func
 705              		.fpu fpv4-sp-d16
 706              		.type	chSchWakeupS, %function
 707              	chSchWakeupS:
 708              	.LVL34:
 709              	.LFB224:
 710              		.loc 1 367 45 is_stmt 1 view -0
 711              		.cfi_startproc
 712              		@ args = 0, pretend = 0, frame = 0
 713              		@ frame_needed = 0, uses_anonymous_args = 0
 714              		@ link register save eliminated.
 715              		.loc 1 369 21 view .LVU204
 716              		.loc 1 373 3 view .LVU205
 717              		.loc 1 379 22 is_stmt 0 view .LVU206
 718 0000 144B     		ldr	r3, .L49
 719              		.loc 1 367 45 view .LVU207
 720 0002 70B4     		push	{r4, r5, r6}
 721              		.cfi_def_cfa_offset 12
 722              		.cfi_offset 4, -12
 723              		.cfi_offset 5, -8
 724              		.cfi_offset 6, -4
 725              		.loc 1 379 22 view .LVU208
 726 0004 9E69     		ldr	r6, [r3, #24]
 727              		.loc 1 379 10 view .LVU209
 728 0006 8568     		ldr	r5, [r0, #8]
 729              		.loc 1 367 45 view .LVU210
 730 0008 0446     		mov	r4, r0
 731              		.loc 1 379 27 view .LVU211
 732 000a B068     		ldr	r0, [r6, #8]
 733              	.LVL35:
 734              		.loc 1 373 19 view .LVU212
 735 000c 6162     		str	r1, [r4, #36]
 736              		.loc 1 379 3 is_stmt 1 view .LVU213
 737              		.loc 1 379 6 is_stmt 0 view .LVU214
 738 000e 8542     		cmp	r5, r0
 739              	.LBB202:
 740              	.LBB203:
 741              		.loc 1 227 15 view .LVU215
ARM GAS  C:\Users\USER\AppData\Local\Temp\cc9p0EmZ.s 			page 14


 742 0010 4FF00002 		mov	r2, #0
 743              	.LBE203:
 744              	.LBE202:
 745              		.loc 1 379 6 view .LVU216
 746 0014 0BD8     		bhi	.L41
 747              		.loc 1 380 5 is_stmt 1 view .LVU217
 748              	.LVL36:
 749              	.LBB205:
 750              	.LBI202:
 751              		.loc 1 218 11 view .LVU218
 752              	.LBB204:
 753              		.loc 1 219 3 view .LVU219
 754              		.loc 1 221 21 view .LVU220
 755              		.loc 1 222 3 view .LVU221
 756              		.loc 1 222 3 view .LVU222
 757              		.loc 1 223 3 view .LVU223
 758              		.loc 1 223 3 view .LVU224
 759              		.loc 1 227 3 view .LVU225
 760              		.loc 1 227 15 is_stmt 0 view .LVU226
 761 0016 2277     		strb	r2, [r4, #28]
 762              		.loc 1 228 3 is_stmt 1 view .LVU227
 763              	.LVL37:
 764              	.L42:
 765              		.loc 1 229 3 view .LVU228
 766              		.loc 1 230 5 view .LVU229
 767              		.loc 1 230 8 is_stmt 0 view .LVU230
 768 0018 1B68     		ldr	r3, [r3]
 769              	.LVL38:
 770              		.loc 1 231 3 view .LVU231
 771 001a 9A68     		ldr	r2, [r3, #8]
 772 001c 9542     		cmp	r5, r2
 773 001e FBD9     		bls	.L42
 774              		.loc 1 233 3 is_stmt 1 view .LVU232
 775              		.loc 1 234 18 is_stmt 0 view .LVU233
 776 0020 5A68     		ldr	r2, [r3, #4]
 777              		.loc 1 234 14 view .LVU234
 778 0022 C4E90032 		strd	r3, r2, [r4]
 779              		.loc 1 235 3 is_stmt 1 view .LVU235
 780              		.loc 1 235 22 is_stmt 0 view .LVU236
 781 0026 1460     		str	r4, [r2]
 782              		.loc 1 236 3 is_stmt 1 view .LVU237
 783              		.loc 1 236 14 is_stmt 0 view .LVU238
 784 0028 5C60     		str	r4, [r3, #4]
 785              		.loc 1 238 3 is_stmt 1 view .LVU239
 786              	.LBE204:
 787              	.LBE205:
 788              		.loc 1 393 1 is_stmt 0 view .LVU240
 789 002a 70BC     		pop	{r4, r5, r6}
 790              		.cfi_remember_state
 791              		.cfi_restore 6
 792              		.cfi_restore 5
 793              		.cfi_restore 4
 794              		.cfi_def_cfa_offset 0
 795              	.LVL39:
 796              		.loc 1 393 1 view .LVU241
 797 002c 7047     		bx	lr
 798              	.LVL40:
ARM GAS  C:\Users\USER\AppData\Local\Temp\cc9p0EmZ.s 			page 15


 799              	.L41:
 800              		.cfi_restore_state
 801              	.LBB206:
 802              		.loc 1 383 5 is_stmt 1 view .LVU242
 803              	.LBB207:
 804              	.LBI207:
 805              		.loc 1 218 11 view .LVU243
 806              	.LBB208:
 807              		.loc 1 219 3 view .LVU244
 808              		.loc 1 221 21 view .LVU245
 809              		.loc 1 222 3 view .LVU246
 810              		.loc 1 222 3 view .LVU247
 811              		.loc 1 223 3 view .LVU248
 812              		.loc 1 223 3 view .LVU249
 813              		.loc 1 227 3 view .LVU250
 814              		.loc 1 227 15 is_stmt 0 view .LVU251
 815 002e 3277     		strb	r2, [r6, #28]
 816              		.loc 1 228 3 is_stmt 1 view .LVU252
 817              	.LVL41:
 818              		.loc 1 228 6 is_stmt 0 view .LVU253
 819 0030 1A46     		mov	r2, r3
 820              	.LVL42:
 821              	.L44:
 822              		.loc 1 229 3 is_stmt 1 view .LVU254
 823              		.loc 1 230 5 view .LVU255
 824              		.loc 1 230 8 is_stmt 0 view .LVU256
 825 0032 1268     		ldr	r2, [r2]
 826              	.LVL43:
 827              		.loc 1 231 3 view .LVU257
 828 0034 9168     		ldr	r1, [r2, #8]
 829 0036 8842     		cmp	r0, r1
 830 0038 FBD9     		bls	.L44
 831              		.loc 1 233 3 is_stmt 1 view .LVU258
 832              		.loc 1 234 18 is_stmt 0 view .LVU259
 833 003a 5168     		ldr	r1, [r2, #4]
 834              		.loc 1 234 14 view .LVU260
 835 003c 7160     		str	r1, [r6, #4]
 836              	.LBE208:
 837              	.LBE207:
 838              		.loc 1 390 18 view .LVU261
 839 003e 0120     		movs	r0, #1
 840              	.LBB210:
 841              	.LBB209:
 842              		.loc 1 233 14 view .LVU262
 843 0040 3260     		str	r2, [r6]
 844              		.loc 1 234 3 is_stmt 1 view .LVU263
 845              		.loc 1 235 3 view .LVU264
 846              		.loc 1 235 22 is_stmt 0 view .LVU265
 847 0042 0E60     		str	r6, [r1]
 848              		.loc 1 236 3 is_stmt 1 view .LVU266
 849              		.loc 1 236 14 is_stmt 0 view .LVU267
 850 0044 5660     		str	r6, [r2, #4]
 851              		.loc 1 238 3 is_stmt 1 view .LVU268
 852              	.LVL44:
 853              		.loc 1 238 3 is_stmt 0 view .LVU269
 854              	.LBE209:
 855              	.LBE210:
ARM GAS  C:\Users\USER\AppData\Local\Temp\cc9p0EmZ.s 			page 16


 856              		.loc 1 384 5 is_stmt 1 view .LVU270
 857              		.loc 1 390 18 is_stmt 0 view .LVU271
 858 0046 2077     		strb	r0, [r4, #28]
 859              	.LVL45:
 860              		.loc 1 391 5 view .LVU272
 861 0048 3146     		mov	r1, r6
 862 004a 2046     		mov	r0, r4
 863              		.loc 1 384 5 view .LVU273
 864 004c 9C61     		str	r4, [r3, #24]
 865              		.loc 1 386 5 is_stmt 1 view .LVU274
 866              		.loc 1 387 7 view .LVU275
 867              		.loc 1 387 31 view .LVU276
 868              		.loc 1 390 5 view .LVU277
 869              		.loc 1 391 5 view .LVU278
 870              		.loc 1 391 5 view .LVU279
 871              		.loc 1 391 5 view .LVU280
 872              		.loc 1 391 5 view .LVU281
 873              		.loc 1 391 5 view .LVU282
 874              	.LBE206:
 875              		.loc 1 393 1 is_stmt 0 view .LVU283
 876 004e 70BC     		pop	{r4, r5, r6}
 877              		.cfi_restore 6
 878              		.cfi_restore 5
 879              		.cfi_restore 4
 880              		.cfi_def_cfa_offset 0
 881              	.LVL46:
 882              	.LBB211:
 883              		.loc 1 391 5 view .LVU284
 884 0050 FFF7FEBF 		b	_port_switch
 885              	.LVL47:
 886              	.L50:
 887              		.loc 1 391 5 view .LVU285
 888              		.align	2
 889              	.L49:
 890 0054 00000000 		.word	.LANCHOR0
 891              	.LBE211:
 892              		.cfi_endproc
 893              	.LFE224:
 894              		.size	chSchWakeupS, .-chSchWakeupS
 895              		.section	.text.chSchIsPreemptionRequired,"ax",%progbits
 896              		.align	1
 897              		.p2align 4,,15
 898              		.global	chSchIsPreemptionRequired
 899              		.syntax unified
 900              		.thumb
 901              		.thumb_func
 902              		.fpu fpv4-sp-d16
 903              		.type	chSchIsPreemptionRequired, %function
 904              	chSchIsPreemptionRequired:
 905              	.LFB226:
 906              		.loc 1 424 38 is_stmt 1 view -0
 907              		.cfi_startproc
 908              		@ args = 0, pretend = 0, frame = 0
 909              		@ frame_needed = 0, uses_anonymous_args = 0
 910              		@ link register save eliminated.
 911              		.loc 1 425 3 view .LVU287
 912              		.loc 1 425 16 is_stmt 0 view .LVU288
ARM GAS  C:\Users\USER\AppData\Local\Temp\cc9p0EmZ.s 			page 17


 913 0000 084A     		ldr	r2, .L54
 914              		.loc 1 426 16 view .LVU289
 915 0002 9369     		ldr	r3, [r2, #24]
 916              		.loc 1 425 11 view .LVU290
 917 0004 1168     		ldr	r1, [r2]
 918              		.loc 1 433 56 view .LVU291
 919 0006 DA7F     		ldrb	r2, [r3, #31]	@ zero_extendqisi2
 920              		.loc 1 425 11 view .LVU292
 921 0008 8868     		ldr	r0, [r1, #8]
 922              	.LVL48:
 923              		.loc 1 426 3 is_stmt 1 view .LVU293
 924              		.loc 1 426 11 is_stmt 0 view .LVU294
 925 000a 9B68     		ldr	r3, [r3, #8]
 926              	.LVL49:
 927              		.loc 1 433 3 is_stmt 1 view .LVU295
 928              		.loc 1 433 56 is_stmt 0 view .LVU296
 929 000c 22B1     		cbz	r2, .L52
 930              		.loc 1 433 56 discriminator 1 view .LVU297
 931 000e 9842     		cmp	r0, r3
 932 0010 94BF     		ite	ls
 933 0012 0020     		movls	r0, #0
 934              	.LVL50:
 935              		.loc 1 433 56 discriminator 1 view .LVU298
 936 0014 0120     		movhi	r0, #1
 937 0016 7047     		bx	lr
 938              	.LVL51:
 939              	.L52:
 940              		.loc 1 433 56 discriminator 2 view .LVU299
 941 0018 9842     		cmp	r0, r3
 942 001a 34BF     		ite	cc
 943 001c 0020     		movcc	r0, #0
 944              	.LVL52:
 945              		.loc 1 433 56 discriminator 2 view .LVU300
 946 001e 0120     		movcs	r0, #1
 947              		.loc 1 439 1 discriminator 2 view .LVU301
 948 0020 7047     		bx	lr
 949              	.L55:
 950 0022 00BF     		.align	2
 951              	.L54:
 952 0024 00000000 		.word	.LANCHOR0
 953              		.cfi_endproc
 954              	.LFE226:
 955              		.size	chSchIsPreemptionRequired, .-chSchIsPreemptionRequired
 956              		.section	.text.chSchDoRescheduleBehind,"ax",%progbits
 957              		.align	1
 958              		.p2align 4,,15
 959              		.global	chSchDoRescheduleBehind
 960              		.syntax unified
 961              		.thumb
 962              		.thumb_func
 963              		.fpu fpv4-sp-d16
 964              		.type	chSchDoRescheduleBehind, %function
 965              	chSchDoRescheduleBehind:
 966              	.LFB227:
 967              		.loc 1 451 36 is_stmt 1 view -0
 968              		.cfi_startproc
 969              		@ args = 0, pretend = 0, frame = 0
ARM GAS  C:\Users\USER\AppData\Local\Temp\cc9p0EmZ.s 			page 18


 970              		@ frame_needed = 0, uses_anonymous_args = 0
 971              		@ link register save eliminated.
 972              		.loc 1 452 3 view .LVU303
 973              		.loc 1 454 3 view .LVU304
 974              		.loc 1 454 7 is_stmt 0 view .LVU305
 975 0000 0D4B     		ldr	r3, .L60
 976              	.LBB212:
 977              	.LBB213:
 978              		.loc 6 672 13 view .LVU306
 979 0002 1868     		ldr	r0, [r3]
 980              	.LBE213:
 981              	.LBE212:
 982              		.loc 1 451 36 view .LVU307
 983 0004 70B4     		push	{r4, r5, r6}
 984              		.cfi_def_cfa_offset 12
 985              		.cfi_offset 4, -12
 986              		.cfi_offset 5, -8
 987              		.cfi_offset 6, -4
 988              	.LBB217:
 989              	.LBB214:
 990              		.loc 6 674 19 view .LVU308
 991 0006 0268     		ldr	r2, [r0]
 992              	.LBE214:
 993              	.LBE217:
 994              		.loc 1 454 7 view .LVU309
 995 0008 9C69     		ldr	r4, [r3, #24]
 996              	.LVL53:
 997              		.loc 1 456 3 is_stmt 1 view .LVU310
 998              	.LBB218:
 999              	.LBI212:
 1000              		.loc 6 671 25 view .LVU311
 1001              	.LBB215:
 1002              		.loc 6 672 3 view .LVU312
 1003              		.loc 6 674 3 view .LVU313
 1004              		.loc 6 674 15 is_stmt 0 view .LVU314
 1005 000a 1A60     		str	r2, [r3]
 1006              		.loc 6 675 3 is_stmt 1 view .LVU315
 1007              		.loc 6 677 3 view .LVU316
 1008              	.LVL54:
 1009              		.loc 6 677 3 is_stmt 0 view .LVU317
 1010              	.LBE215:
 1011              	.LBE218:
 1012              		.loc 1 458 10 view .LVU318
 1013 000c A168     		ldr	r1, [r4, #8]
 1014              	.LBB219:
 1015              	.LBB216:
 1016              		.loc 6 675 23 view .LVU319
 1017 000e 5360     		str	r3, [r2, #4]
 1018              	.LBE216:
 1019              	.LBE219:
 1020              		.loc 1 462 18 view .LVU320
 1021 0010 0126     		movs	r6, #1
 1022              		.loc 1 464 18 view .LVU321
 1023 0012 0425     		movs	r5, #4
 1024              	.LBB220:
 1025              	.LBB221:
 1026              		.loc 1 227 15 view .LVU322
ARM GAS  C:\Users\USER\AppData\Local\Temp\cc9p0EmZ.s 			page 19


 1027 0014 0022     		movs	r2, #0
 1028              	.LBE221:
 1029              	.LBE220:
 1030              		.loc 1 462 18 view .LVU323
 1031 0016 0677     		strb	r6, [r0, #28]
 1032              		.loc 1 456 3 view .LVU324
 1033 0018 9861     		str	r0, [r3, #24]
 1034              		.loc 1 458 3 is_stmt 1 view .LVU325
 1035              		.loc 1 459 5 view .LVU326
 1036              		.loc 1 459 29 view .LVU327
 1037              		.loc 1 462 3 view .LVU328
 1038              		.loc 1 464 3 view .LVU329
 1039              		.loc 1 464 18 is_stmt 0 view .LVU330
 1040 001a E577     		strb	r5, [r4, #31]
 1041              		.loc 1 466 3 is_stmt 1 view .LVU331
 1042              	.LVL55:
 1043              	.LBB224:
 1044              	.LBI220:
 1045              		.loc 1 218 11 view .LVU332
 1046              	.LBB222:
 1047              		.loc 1 219 3 view .LVU333
 1048              		.loc 1 221 21 view .LVU334
 1049              		.loc 1 222 3 view .LVU335
 1050              		.loc 1 222 3 view .LVU336
 1051              		.loc 1 223 3 view .LVU337
 1052              		.loc 1 223 3 view .LVU338
 1053              		.loc 1 227 3 view .LVU339
 1054              		.loc 1 227 15 is_stmt 0 view .LVU340
 1055 001c 2277     		strb	r2, [r4, #28]
 1056              		.loc 1 228 3 is_stmt 1 view .LVU341
 1057              	.LVL56:
 1058              	.L57:
 1059              		.loc 1 229 3 view .LVU342
 1060              		.loc 1 230 5 view .LVU343
 1061              		.loc 1 230 8 is_stmt 0 view .LVU344
 1062 001e 1B68     		ldr	r3, [r3]
 1063              	.LVL57:
 1064              		.loc 1 231 3 view .LVU345
 1065 0020 9A68     		ldr	r2, [r3, #8]
 1066 0022 9142     		cmp	r1, r2
 1067 0024 FBD9     		bls	.L57
 1068              		.loc 1 233 3 is_stmt 1 view .LVU346
 1069              		.loc 1 234 18 is_stmt 0 view .LVU347
 1070 0026 5A68     		ldr	r2, [r3, #4]
 1071              	.LBE222:
 1072              	.LBE224:
 1073              		.loc 1 467 3 view .LVU348
 1074 0028 2146     		mov	r1, r4
 1075              	.LBB225:
 1076              	.LBB223:
 1077              		.loc 1 234 14 view .LVU349
 1078 002a C4E90032 		strd	r3, r2, [r4]
 1079              		.loc 1 235 3 is_stmt 1 view .LVU350
 1080              		.loc 1 235 22 is_stmt 0 view .LVU351
 1081 002e 1460     		str	r4, [r2]
 1082              		.loc 1 236 3 is_stmt 1 view .LVU352
 1083              		.loc 1 236 14 is_stmt 0 view .LVU353
ARM GAS  C:\Users\USER\AppData\Local\Temp\cc9p0EmZ.s 			page 20


 1084 0030 5C60     		str	r4, [r3, #4]
 1085              		.loc 1 238 3 is_stmt 1 view .LVU354
 1086              	.LVL58:
 1087              		.loc 1 238 3 is_stmt 0 view .LVU355
 1088              	.LBE223:
 1089              	.LBE225:
 1090              		.loc 1 467 3 is_stmt 1 view .LVU356
 1091              		.loc 1 467 3 view .LVU357
 1092              		.loc 1 467 3 view .LVU358
 1093              		.loc 1 467 3 view .LVU359
 1094              		.loc 1 467 3 view .LVU360
 1095              		.loc 1 468 1 is_stmt 0 view .LVU361
 1096 0032 70BC     		pop	{r4, r5, r6}
 1097              		.cfi_restore 6
 1098              		.cfi_restore 5
 1099              		.cfi_restore 4
 1100              		.cfi_def_cfa_offset 0
 1101              	.LVL59:
 1102              		.loc 1 467 3 view .LVU362
 1103 0034 FFF7FEBF 		b	_port_switch
 1104              	.LVL60:
 1105              	.L61:
 1106              		.loc 1 467 3 view .LVU363
 1107              		.align	2
 1108              	.L60:
 1109 0038 00000000 		.word	.LANCHOR0
 1110              		.cfi_endproc
 1111              	.LFE227:
 1112              		.size	chSchDoRescheduleBehind, .-chSchDoRescheduleBehind
 1113              		.section	.text.chSchDoRescheduleAhead,"ax",%progbits
 1114              		.align	1
 1115              		.p2align 4,,15
 1116              		.global	chSchDoRescheduleAhead
 1117              		.syntax unified
 1118              		.thumb
 1119              		.thumb_func
 1120              		.fpu fpv4-sp-d16
 1121              		.type	chSchDoRescheduleAhead, %function
 1122              	chSchDoRescheduleAhead:
 1123              	.LFB228:
 1124              		.loc 1 479 35 is_stmt 1 view -0
 1125              		.cfi_startproc
 1126              		@ args = 0, pretend = 0, frame = 0
 1127              		@ frame_needed = 0, uses_anonymous_args = 0
 1128              		@ link register save eliminated.
 1129              		.loc 1 480 3 view .LVU365
 1130              		.loc 1 482 3 view .LVU366
 1131              		.loc 1 482 7 is_stmt 0 view .LVU367
 1132 0000 0C4B     		ldr	r3, .L66
 1133              	.LBB226:
 1134              	.LBB227:
 1135              		.loc 6 672 13 view .LVU368
 1136 0002 1868     		ldr	r0, [r3]
 1137              	.LBE227:
 1138              	.LBE226:
 1139              		.loc 1 479 35 view .LVU369
 1140 0004 30B4     		push	{r4, r5}
ARM GAS  C:\Users\USER\AppData\Local\Temp\cc9p0EmZ.s 			page 21


 1141              		.cfi_def_cfa_offset 8
 1142              		.cfi_offset 4, -8
 1143              		.cfi_offset 5, -4
 1144              	.LBB231:
 1145              	.LBB228:
 1146              		.loc 6 674 19 view .LVU370
 1147 0006 0268     		ldr	r2, [r0]
 1148              	.LBE228:
 1149              	.LBE231:
 1150              		.loc 1 482 7 view .LVU371
 1151 0008 9C69     		ldr	r4, [r3, #24]
 1152              	.LVL61:
 1153              		.loc 1 484 3 is_stmt 1 view .LVU372
 1154              	.LBB232:
 1155              	.LBI226:
 1156              		.loc 6 671 25 view .LVU373
 1157              	.LBB229:
 1158              		.loc 6 672 3 view .LVU374
 1159              		.loc 6 674 3 view .LVU375
 1160              		.loc 6 674 15 is_stmt 0 view .LVU376
 1161 000a 1A60     		str	r2, [r3]
 1162              		.loc 6 675 3 is_stmt 1 view .LVU377
 1163              		.loc 6 677 3 view .LVU378
 1164              	.LVL62:
 1165              		.loc 6 677 3 is_stmt 0 view .LVU379
 1166              	.LBE229:
 1167              	.LBE232:
 1168              		.loc 1 486 10 view .LVU380
 1169 000c A168     		ldr	r1, [r4, #8]
 1170              	.LBB233:
 1171              	.LBB230:
 1172              		.loc 6 675 23 view .LVU381
 1173 000e 5360     		str	r3, [r2, #4]
 1174              	.LBE230:
 1175              	.LBE233:
 1176              		.loc 1 490 18 view .LVU382
 1177 0010 0125     		movs	r5, #1
 1178              		.loc 1 492 16 view .LVU383
 1179 0012 0022     		movs	r2, #0
 1180              		.loc 1 490 18 view .LVU384
 1181 0014 0577     		strb	r5, [r0, #28]
 1182              		.loc 1 484 3 view .LVU385
 1183 0016 9861     		str	r0, [r3, #24]
 1184              		.loc 1 486 3 is_stmt 1 view .LVU386
 1185              		.loc 1 487 5 view .LVU387
 1186              		.loc 1 487 29 view .LVU388
 1187              		.loc 1 490 3 view .LVU389
 1188              		.loc 1 492 3 view .LVU390
 1189              		.loc 1 492 16 is_stmt 0 view .LVU391
 1190 0018 2277     		strb	r2, [r4, #28]
 1191              		.loc 1 493 3 is_stmt 1 view .LVU392
 1192              	.LVL63:
 1193              	.L63:
 1194              		.loc 1 494 3 discriminator 1 view .LVU393
 1195              		.loc 1 495 5 discriminator 1 view .LVU394
 1196              		.loc 1 495 8 is_stmt 0 discriminator 1 view .LVU395
 1197 001a 1B68     		ldr	r3, [r3]
ARM GAS  C:\Users\USER\AppData\Local\Temp\cc9p0EmZ.s 			page 22


 1198              	.LVL64:
 1199              		.loc 1 496 3 discriminator 1 view .LVU396
 1200 001c 9A68     		ldr	r2, [r3, #8]
 1201 001e 9142     		cmp	r1, r2
 1202 0020 FBD3     		bcc	.L63
 1203              		.loc 1 498 3 is_stmt 1 view .LVU397
 1204              		.loc 1 499 19 is_stmt 0 view .LVU398
 1205 0022 5A68     		ldr	r2, [r3, #4]
 1206              		.loc 1 503 3 view .LVU399
 1207 0024 2146     		mov	r1, r4
 1208              		.loc 1 499 15 view .LVU400
 1209 0026 C4E90032 		strd	r3, r2, [r4]
 1210              		.loc 1 500 3 is_stmt 1 view .LVU401
 1211              		.loc 1 500 23 is_stmt 0 view .LVU402
 1212 002a 1460     		str	r4, [r2]
 1213              		.loc 1 501 3 is_stmt 1 view .LVU403
 1214              		.loc 1 501 14 is_stmt 0 view .LVU404
 1215 002c 5C60     		str	r4, [r3, #4]
 1216              		.loc 1 503 3 is_stmt 1 view .LVU405
 1217              		.loc 1 503 3 view .LVU406
 1218              		.loc 1 503 3 view .LVU407
 1219              		.loc 1 503 3 view .LVU408
 1220              		.loc 1 503 3 view .LVU409
 1221              		.loc 1 504 1 is_stmt 0 view .LVU410
 1222 002e 30BC     		pop	{r4, r5}
 1223              		.cfi_restore 5
 1224              		.cfi_restore 4
 1225              		.cfi_def_cfa_offset 0
 1226              	.LVL65:
 1227              		.loc 1 503 3 view .LVU411
 1228 0030 FFF7FEBF 		b	_port_switch
 1229              	.LVL66:
 1230              	.L67:
 1231              		.loc 1 503 3 view .LVU412
 1232              		.align	2
 1233              	.L66:
 1234 0034 00000000 		.word	.LANCHOR0
 1235              		.cfi_endproc
 1236              	.LFE228:
 1237              		.size	chSchDoRescheduleAhead, .-chSchDoRescheduleAhead
 1238              		.section	.text.chSchRescheduleS,"ax",%progbits
 1239              		.align	1
 1240              		.p2align 4,,15
 1241              		.global	chSchRescheduleS
 1242              		.syntax unified
 1243              		.thumb
 1244              		.thumb_func
 1245              		.fpu fpv4-sp-d16
 1246              		.type	chSchRescheduleS, %function
 1247              	chSchRescheduleS:
 1248              	.LFB225:
 1249              		.loc 1 402 29 is_stmt 1 view -0
 1250              		.cfi_startproc
 1251              		@ args = 0, pretend = 0, frame = 0
 1252              		@ frame_needed = 0, uses_anonymous_args = 0
 1253              		@ link register save eliminated.
 1254              		.loc 1 404 21 view .LVU414
ARM GAS  C:\Users\USER\AppData\Local\Temp\cc9p0EmZ.s 			page 23


 1255              		.loc 1 406 3 view .LVU415
 1256              	.LBB234:
 1257              	.LBI234:
 1258              		.loc 6 709 20 view .LVU416
 1259              	.LBB235:
 1260              		.loc 6 711 21 view .LVU417
 1261              		.loc 6 713 3 view .LVU418
 1262              		.loc 6 713 10 is_stmt 0 view .LVU419
 1263 0000 044B     		ldr	r3, .L71
 1264 0002 1A68     		ldr	r2, [r3]
 1265              		.loc 6 713 46 view .LVU420
 1266 0004 9B69     		ldr	r3, [r3, #24]
 1267              	.LBE235:
 1268              	.LBE234:
 1269              		.loc 1 406 6 view .LVU421
 1270 0006 9268     		ldr	r2, [r2, #8]
 1271 0008 9B68     		ldr	r3, [r3, #8]
 1272 000a 9A42     		cmp	r2, r3
 1273 000c 00D8     		bhi	.L70
 1274              		.loc 1 409 1 view .LVU422
 1275 000e 7047     		bx	lr
 1276              	.L70:
 1277              		.loc 1 407 5 is_stmt 1 view .LVU423
 1278 0010 FFF7FEBF 		b	chSchDoRescheduleAhead
 1279              	.LVL67:
 1280              	.L72:
 1281              		.align	2
 1282              	.L71:
 1283 0014 00000000 		.word	.LANCHOR0
 1284              		.cfi_endproc
 1285              	.LFE225:
 1286              		.size	chSchRescheduleS, .-chSchRescheduleS
 1287              		.section	.text.chSchDoReschedule,"ax",%progbits
 1288              		.align	1
 1289              		.p2align 4,,15
 1290              		.global	chSchDoReschedule
 1291              		.syntax unified
 1292              		.thumb
 1293              		.thumb_func
 1294              		.fpu fpv4-sp-d16
 1295              		.type	chSchDoReschedule, %function
 1296              	chSchDoReschedule:
 1297              	.LFB229:
 1298              		.loc 1 516 30 view -0
 1299              		.cfi_startproc
 1300              		@ args = 0, pretend = 0, frame = 0
 1301              		@ frame_needed = 0, uses_anonymous_args = 0
 1302              		@ link register save eliminated.
 1303              		.loc 1 521 3 view .LVU425
 1304              		.loc 1 521 7 is_stmt 0 view .LVU426
 1305 0000 034B     		ldr	r3, .L75
 1306              		.loc 1 521 12 view .LVU427
 1307 0002 9B69     		ldr	r3, [r3, #24]
 1308              		.loc 1 521 6 view .LVU428
 1309 0004 DB7F     		ldrb	r3, [r3, #31]	@ zero_extendqisi2
 1310 0006 0BB9     		cbnz	r3, .L74
 1311              		.loc 1 524 5 is_stmt 1 view .LVU429
ARM GAS  C:\Users\USER\AppData\Local\Temp\cc9p0EmZ.s 			page 24


 1312 0008 FFF7FEBF 		b	chSchDoRescheduleBehind
 1313              	.LVL68:
 1314              	.L74:
 1315              		.loc 1 529 5 view .LVU430
 1316 000c FFF7FEBF 		b	chSchDoRescheduleAhead
 1317              	.LVL69:
 1318              	.L76:
 1319              		.align	2
 1320              	.L75:
 1321 0010 00000000 		.word	.LANCHOR0
 1322              		.cfi_endproc
 1323              	.LFE229:
 1324              		.size	chSchDoReschedule, .-chSchDoReschedule
 1325              		.global	ch
 1326              		.section	.bss.ch,"aw",%nobits
 1327              		.align	3
 1328              		.set	.LANCHOR0,. + 0
 1329              		.type	ch, %object
 1330              		.size	ch, 600
 1331              	ch:
 1332 0000 00000000 		.space	600
 1332      00000000 
 1332      00000000 
 1332      00000000 
 1332      00000000 
 1333              		.text
 1334              	.Letext0:
 1335              		.file 8 "c:\\program files (x86)\\gnu tools arm embedded\\8 2018-q4-major\\lib\\gcc\\arm-none-eabi
 1336              		.file 9 "c:\\program files (x86)\\gnu tools arm embedded\\8 2018-q4-major\\arm-none-eabi\\include\
 1337              		.file 10 "c:\\program files (x86)\\gnu tools arm embedded\\8 2018-q4-major\\arm-none-eabi\\include
 1338              		.file 11 "src/ChibiOS_3.0.2/os/rt/ports/ARMCMx/compilers/GCC/chtypes.h"
 1339              		.file 12 "src/ChibiOS_3.0.2/os/rt/include/chsystypes.h"
 1340              		.file 13 "src/ChibiOS_3.0.2/os/ext/CMSIS/include/core_cm4.h"
 1341              		.file 14 "src/ChibiOS_3.0.2/os/ext/CMSIS/ST/system_stm32f4xx.h"
 1342              		.file 15 "src/ChibiOS_3.0.2/os/rt/ports/ARMCMx/chcore.h"
 1343              		.file 16 "src/ChibiOS_3.0.2/os/rt/include/chtm.h"
 1344              		.file 17 "src/ChibiOS_3.0.2/os/rt/include/chmtx.h"
 1345              		.file 18 "src/ChibiOS_3.0.2/os/rt/include/chregistry.h"