ARM GAS  C:\Users\USER\AppData\Local\Temp\ccp9XlzO.s 			page 1


   1              		.cpu cortex-m4
   2              		.eabi_attribute 27, 1
   3              		.eabi_attribute 28, 1
   4              		.eabi_attribute 20, 1
   5              		.eabi_attribute 21, 1
   6              		.eabi_attribute 23, 3
   7              		.eabi_attribute 24, 1
   8              		.eabi_attribute 25, 1
   9              		.eabi_attribute 26, 1
  10              		.eabi_attribute 30, 2
  11              		.eabi_attribute 34, 1
  12              		.eabi_attribute 18, 4
  13              		.file	"chsem.c"
  14              		.text
  15              	.Ltext0:
  16              		.cfi_sections	.debug_frame
  17              		.section	.text.chSemObjectInit,"ax",%progbits
  18              		.align	1
  19              		.p2align 4,,15
  20              		.global	chSemObjectInit
  21              		.arch armv7e-m
  22              		.syntax unified
  23              		.thumb
  24              		.thumb_func
  25              		.fpu fpv4-sp-d16
  26              		.type	chSemObjectInit, %function
  27              	chSemObjectInit:
  28              	.LVL0:
  29              	.LFB219:
  30              		.file 1 "src/ChibiOS_3.0.2/os/rt/src/chsem.c"
  31              		.loc 1 97 48 view -0
  32              		.cfi_startproc
  33              		@ args = 0, pretend = 0, frame = 0
  34              		@ frame_needed = 0, uses_anonymous_args = 0
  35              		@ link register save eliminated.
  36              		.loc 1 99 3 view .LVU1
  37              		.loc 1 99 3 view .LVU2
  38              		.loc 1 101 3 view .LVU3
  39              	.LBB92:
  40              	.LBI92:
  41              		.file 2 "src/ChibiOS_3.0.2/os/rt/include/chschd.h"
  42              		.loc 2 602 20 view .LVU4
  43              	.LBB93:
  44              		.loc 2 604 3 view .LVU5
  45              		.loc 2 605 15 is_stmt 0 view .LVU6
  46 0000 C0E90000 		strd	r0, r0, [r0]
  47              	.LVL1:
  48              		.loc 2 605 15 view .LVU7
  49              	.LBE93:
  50              	.LBE92:
  51              		.loc 1 102 3 is_stmt 1 view .LVU8
  52              		.loc 1 102 13 is_stmt 0 view .LVU9
  53 0004 8160     		str	r1, [r0, #8]
  54              		.loc 1 103 1 view .LVU10
  55 0006 7047     		bx	lr
  56              		.cfi_endproc
  57              	.LFE219:
ARM GAS  C:\Users\USER\AppData\Local\Temp\ccp9XlzO.s 			page 2


  58              		.size	chSemObjectInit, .-chSemObjectInit
  59              		.section	.text.chSemResetI,"ax",%progbits
  60              		.align	1
  61              		.p2align 4,,15
  62              		.global	chSemResetI
  63              		.syntax unified
  64              		.thumb
  65              		.thumb_func
  66              		.fpu fpv4-sp-d16
  67              		.type	chSemResetI, %function
  68              	chSemResetI:
  69              	.LVL2:
  70              	.LFB221:
  71              		.loc 1 147 44 is_stmt 1 view -0
  72              		.cfi_startproc
  73              		@ args = 0, pretend = 0, frame = 0
  74              		@ frame_needed = 0, uses_anonymous_args = 0
  75              		.loc 1 148 3 view .LVU12
  76              		.loc 1 150 21 view .LVU13
  77              		.loc 1 151 3 view .LVU14
  78              		.loc 1 151 3 view .LVU15
  79              		.loc 1 152 3 view .LVU16
  80              		.loc 1 152 3 view .LVU17
  81              		.loc 1 156 3 view .LVU18
  82              		.loc 1 147 44 is_stmt 0 view .LVU19
  83 0000 70B5     		push	{r4, r5, r6, lr}
  84              		.cfi_def_cfa_offset 16
  85              		.cfi_offset 4, -16
  86              		.cfi_offset 5, -12
  87              		.cfi_offset 6, -8
  88              		.cfi_offset 14, -4
  89              		.loc 1 156 7 view .LVU20
  90 0002 8568     		ldr	r5, [r0, #8]
  91              	.LVL3:
  92              		.loc 1 157 3 is_stmt 1 view .LVU21
  93              		.loc 1 157 13 is_stmt 0 view .LVU22
  94 0004 8160     		str	r1, [r0, #8]
  95              		.loc 1 158 3 is_stmt 1 view .LVU23
  96              		.loc 1 158 9 is_stmt 0 view .LVU24
  97 0006 0135     		adds	r5, r5, #1
  98              	.LVL4:
  99              		.loc 1 158 9 view .LVU25
 100 0008 002D     		cmp	r5, #0
 101 000a 0CDC     		bgt	.L3
 102 000c 0446     		mov	r4, r0
 103              		.loc 1 159 62 view .LVU26
 104 000e 6FF00106 		mvn	r6, #1
 105              	.LVL5:
 106              	.L5:
 107              		.loc 1 159 5 is_stmt 1 view .LVU27
 108              	.LBB94:
 109              	.LBI94:
 110              		.loc 2 680 25 view .LVU28
 111              	.LBB95:
 112              		.loc 2 681 3 view .LVU29
 113              		.loc 2 681 13 is_stmt 0 view .LVU30
 114 0012 6068     		ldr	r0, [r4, #4]
ARM GAS  C:\Users\USER\AppData\Local\Temp\ccp9XlzO.s 			page 3


 115              	.LVL6:
 116              		.loc 2 683 3 is_stmt 1 view .LVU31
 117              		.loc 2 683 19 is_stmt 0 view .LVU32
 118 0014 4368     		ldr	r3, [r0, #4]
 119              		.loc 2 683 15 view .LVU33
 120 0016 6360     		str	r3, [r4, #4]
 121              		.loc 2 684 3 is_stmt 1 view .LVU34
 122              		.loc 2 684 23 is_stmt 0 view .LVU35
 123 0018 1C60     		str	r4, [r3]
 124              		.loc 2 686 3 is_stmt 1 view .LVU36
 125              	.LVL7:
 126              		.loc 2 686 3 is_stmt 0 view .LVU37
 127              	.LBE95:
 128              	.LBE94:
 129              		.loc 1 159 5 view .LVU38
 130 001a FFF7FEFF 		bl	chSchReadyI
 131              	.LVL8:
 132              		.loc 1 158 9 view .LVU39
 133 001e 0135     		adds	r5, r5, #1
 134              	.LVL9:
 135              		.loc 1 158 9 view .LVU40
 136 0020 012D     		cmp	r5, #1
 137              		.loc 1 159 62 view .LVU41
 138 0022 4662     		str	r6, [r0, #36]
 139              	.LVL10:
 140              		.loc 1 158 9 view .LVU42
 141 0024 F5D1     		bne	.L5
 142              	.LVL11:
 143              	.L3:
 144              		.loc 1 161 1 view .LVU43
 145 0026 70BD     		pop	{r4, r5, r6, pc}
 146              		.loc 1 161 1 view .LVU44
 147              		.cfi_endproc
 148              	.LFE221:
 149              		.size	chSemResetI, .-chSemResetI
 150              		.section	.text.chSemReset,"ax",%progbits
 151              		.align	1
 152              		.p2align 4,,15
 153              		.global	chSemReset
 154              		.syntax unified
 155              		.thumb
 156              		.thumb_func
 157              		.fpu fpv4-sp-d16
 158              		.type	chSemReset, %function
 159              	chSemReset:
 160              	.LVL12:
 161              	.LFB220:
 162              		.loc 1 120 43 is_stmt 1 view -0
 163              		.cfi_startproc
 164              		@ args = 0, pretend = 0, frame = 0
 165              		@ frame_needed = 0, uses_anonymous_args = 0
 166              		.loc 1 122 3 view .LVU46
 167              	.LBB96:
 168              	.LBI96:
 169              		.file 3 "src/ChibiOS_3.0.2/os/rt/include/chsys.h"
 170              		.loc 3 346 20 view .LVU47
 171              	.LBE96:
ARM GAS  C:\Users\USER\AppData\Local\Temp\ccp9XlzO.s 			page 4


 172              		.loc 3 348 3 view .LVU48
 173              	.LBB104:
 174              	.LBB97:
 175              	.LBI97:
 176              		.file 4 "src/ChibiOS_3.0.2/os/rt/ports/ARMCMx/chcore_v7m.h"
 177              		.loc 4 444 20 view .LVU49
 178              	.LBE97:
 179              	.LBE104:
 180              		.loc 4 447 3 view .LVU50
 181              	.LBB105:
 182              	.LBB102:
 183              	.LBB98:
 184              	.LBI98:
 185              		.file 5 "src/ChibiOS_3.0.2/os/ext/CMSIS/include/core_cmFunc.h"
 186              		.loc 5 544 57 view .LVU51
 187              	.LBB99:
 188              		.loc 5 546 3 view .LVU52
 189              	.LBE99:
 190              	.LBE98:
 191              	.LBE102:
 192              	.LBE105:
 193              		.loc 1 120 43 is_stmt 0 view .LVU53
 194 0000 08B5     		push	{r3, lr}
 195              		.cfi_def_cfa_offset 8
 196              		.cfi_offset 3, -8
 197              		.cfi_offset 14, -4
 198              	.LBB106:
 199              	.LBB103:
 200              	.LBB101:
 201              	.LBB100:
 202              		.loc 5 546 3 view .LVU54
 203 0002 2023     		movs	r3, #32
 204              		.syntax unified
 205              	@ 546 "src/ChibiOS_3.0.2/os/ext/CMSIS/include/core_cmFunc.h" 1
 206 0004 83F31188 		MSR basepri, r3
 207              	@ 0 "" 2
 208              	.LVL13:
 209              		.loc 5 546 3 view .LVU55
 210              		.thumb
 211              		.syntax unified
 212              	.LBE100:
 213              	.LBE101:
 214              	.LBE103:
 215              	.LBE106:
 216              		.loc 3 349 34 is_stmt 1 view .LVU56
 217              		.loc 3 350 20 view .LVU57
 218              		.loc 1 123 3 view .LVU58
 219 0008 FFF7FEFF 		bl	chSemResetI
 220              	.LVL14:
 221              		.loc 1 124 3 view .LVU59
 222 000c FFF7FEFF 		bl	chSchRescheduleS
 223              	.LVL15:
 224              		.loc 1 125 3 view .LVU60
 225              	.LBB107:
 226              	.LBI107:
 227              		.loc 3 358 20 view .LVU61
 228              	.LBB108:
ARM GAS  C:\Users\USER\AppData\Local\Temp\ccp9XlzO.s 			page 5


 229              		.loc 3 360 22 view .LVU62
 230              		.loc 3 361 33 view .LVU63
 231              		.loc 3 367 3 view .LVU64
 232              		.loc 3 367 3 view .LVU65
 233              		.loc 3 371 3 view .LVU66
 234              	.LBB109:
 235              	.LBI109:
 236              		.loc 4 458 20 view .LVU67
 237              	.LBE109:
 238              	.LBE108:
 239              	.LBE107:
 240              		.loc 4 461 3 view .LVU68
 241              	.LBB114:
 242              	.LBB113:
 243              	.LBB112:
 244              	.LBB110:
 245              	.LBI110:
 246              		.loc 5 544 57 view .LVU69
 247              	.LBB111:
 248              		.loc 5 546 3 view .LVU70
 249 0010 0023     		movs	r3, #0
 250              		.syntax unified
 251              	@ 546 "src/ChibiOS_3.0.2/os/ext/CMSIS/include/core_cmFunc.h" 1
 252 0012 83F31188 		MSR basepri, r3
 253              	@ 0 "" 2
 254              	.LVL16:
 255              		.loc 5 546 3 is_stmt 0 view .LVU71
 256              		.thumb
 257              		.syntax unified
 258              	.LBE111:
 259              	.LBE110:
 260              	.LBE112:
 261              	.LBE113:
 262              	.LBE114:
 263              		.loc 1 126 1 view .LVU72
 264 0016 08BD     		pop	{r3, pc}
 265              		.cfi_endproc
 266              	.LFE220:
 267              		.size	chSemReset, .-chSemReset
 268              		.section	.text.chSemWait,"ax",%progbits
 269              		.align	1
 270              		.p2align 4,,15
 271              		.global	chSemWait
 272              		.syntax unified
 273              		.thumb
 274              		.thumb_func
 275              		.fpu fpv4-sp-d16
 276              		.type	chSemWait, %function
 277              	chSemWait:
 278              	.LVL17:
 279              	.LFB222:
 280              		.loc 1 175 34 is_stmt 1 view -0
 281              		.cfi_startproc
 282              		@ args = 0, pretend = 0, frame = 0
 283              		@ frame_needed = 0, uses_anonymous_args = 0
 284              		.loc 1 176 3 view .LVU74
 285              		.loc 1 178 3 view .LVU75
ARM GAS  C:\Users\USER\AppData\Local\Temp\ccp9XlzO.s 			page 6


 286              	.LBB130:
 287              	.LBI130:
 288              		.loc 3 346 20 view .LVU76
 289              	.LBE130:
 290              		.loc 3 348 3 view .LVU77
 291              	.LBB135:
 292              	.LBB131:
 293              	.LBI131:
 294              		.loc 4 444 20 view .LVU78
 295              	.LBE131:
 296              	.LBE135:
 297              		.loc 4 447 3 view .LVU79
 298              	.LBB136:
 299              	.LBB134:
 300              	.LBB132:
 301              	.LBI132:
 302              		.loc 5 544 57 view .LVU80
 303              	.LBB133:
 304              		.loc 5 546 3 view .LVU81
 305 0000 2023     		movs	r3, #32
 306              		.syntax unified
 307              	@ 546 "src/ChibiOS_3.0.2/os/ext/CMSIS/include/core_cmFunc.h" 1
 308 0002 83F31188 		MSR basepri, r3
 309              	@ 0 "" 2
 310              	.LVL18:
 311              		.loc 5 546 3 is_stmt 0 view .LVU82
 312              		.thumb
 313              		.syntax unified
 314              	.LBE133:
 315              	.LBE132:
 316              	.LBE134:
 317              	.LBE136:
 318              		.loc 3 349 34 is_stmt 1 view .LVU83
 319              		.loc 3 350 20 view .LVU84
 320              		.loc 1 179 3 view .LVU85
 321              	.LBB137:
 322              	.LBI137:
 323              		.loc 1 197 7 view .LVU86
 324              	.LBB138:
 325              		.loc 1 199 21 view .LVU87
 326              		.loc 1 200 3 view .LVU88
 327              		.loc 1 200 3 view .LVU89
 328              		.loc 1 201 3 view .LVU90
 329              		.loc 1 201 3 view .LVU91
 330              		.loc 1 205 3 view .LVU92
 331              		.loc 1 205 7 is_stmt 0 view .LVU93
 332 0006 8368     		ldr	r3, [r0, #8]
 333 0008 013B     		subs	r3, r3, #1
 334              		.loc 1 205 6 view .LVU94
 335 000a 002B     		cmp	r3, #0
 336 000c 8360     		str	r3, [r0, #8]
 337 000e 04DB     		blt	.L18
 338              		.loc 1 213 10 view .LVU95
 339 0010 0020     		movs	r0, #0
 340              	.LVL19:
 341              		.loc 1 213 10 view .LVU96
 342              	.LBE138:
ARM GAS  C:\Users\USER\AppData\Local\Temp\ccp9XlzO.s 			page 7


 343              	.LBE137:
 344              		.loc 1 180 3 is_stmt 1 view .LVU97
 345              	.LBB149:
 346              	.LBI149:
 347              		.loc 3 358 20 view .LVU98
 348              	.LBB150:
 349              		.loc 3 360 22 view .LVU99
 350              		.loc 3 361 33 view .LVU100
 351              		.loc 3 367 3 view .LVU101
 352              		.loc 3 367 3 view .LVU102
 353              		.loc 3 371 3 view .LVU103
 354              	.LBB151:
 355              	.LBI151:
 356              		.loc 4 458 20 view .LVU104
 357              	.LBE151:
 358              	.LBE150:
 359              	.LBE149:
 360              		.loc 4 461 3 view .LVU105
 361              	.LBB162:
 362              	.LBB159:
 363              	.LBB156:
 364              	.LBB152:
 365              	.LBI152:
 366              		.loc 5 544 57 view .LVU106
 367              	.LBB153:
 368              		.loc 5 546 3 view .LVU107
 369 0012 0023     		movs	r3, #0
 370              		.syntax unified
 371              	@ 546 "src/ChibiOS_3.0.2/os/ext/CMSIS/include/core_cmFunc.h" 1
 372 0014 83F31188 		MSR basepri, r3
 373              	@ 0 "" 2
 374              	.LVL20:
 375              		.loc 5 546 3 is_stmt 0 view .LVU108
 376              		.thumb
 377              		.syntax unified
 378              	.LBE153:
 379              	.LBE152:
 380              	.LBE156:
 381              	.LBE159:
 382              	.LBE162:
 383              		.loc 1 182 3 is_stmt 1 view .LVU109
 384              		.loc 1 183 1 is_stmt 0 view .LVU110
 385 0018 7047     		bx	lr
 386              	.LVL21:
 387              	.L18:
 388              		.loc 1 175 34 view .LVU111
 389 001a 10B5     		push	{r4, lr}
 390              		.cfi_def_cfa_offset 8
 391              		.cfi_offset 4, -8
 392              		.cfi_offset 14, -4
 393              	.LBB163:
 394              	.LBB148:
 395              	.LBB139:
 396              	.LBB140:
 397              		.loc 1 206 5 view .LVU112
 398 001c 084C     		ldr	r4, .L19
 399              	.LBB141:
ARM GAS  C:\Users\USER\AppData\Local\Temp\ccp9XlzO.s 			page 8


 400              	.LBB142:
 401              		.loc 2 666 19 view .LVU113
 402 001e 4168     		ldr	r1, [r0, #4]
 403              	.LBE142:
 404              	.LBE141:
 405              		.loc 1 206 5 view .LVU114
 406 0020 A269     		ldr	r2, [r4, #24]
 407 0022 0346     		mov	r3, r0
 408              	.LVL22:
 409              		.loc 1 206 5 view .LVU115
 410              	.LBE140:
 411              	.LBI139:
 412              		.loc 1 197 7 is_stmt 1 view .LVU116
 413              	.LBB147:
 414              		.loc 1 206 5 view .LVU117
 415              		.loc 1 206 23 is_stmt 0 view .LVU118
 416 0024 5362     		str	r3, [r2, #36]
 417              		.loc 1 207 5 is_stmt 1 view .LVU119
 418              	.LVL23:
 419              	.LBB145:
 420              	.LBI141:
 421              		.loc 2 663 20 view .LVU120
 422              	.LBB143:
 423              		.loc 2 665 3 view .LVU121
 424              		.loc 2 666 14 is_stmt 0 view .LVU122
 425 0026 C2E90031 		strd	r3, r1, [r2]
 426              		.loc 2 667 3 is_stmt 1 view .LVU123
 427              	.LBE143:
 428              	.LBE145:
 429              		.loc 1 208 5 is_stmt 0 view .LVU124
 430 002a 0520     		movs	r0, #5
 431              	.LVL24:
 432              	.LBB146:
 433              	.LBB144:
 434              		.loc 2 667 22 view .LVU125
 435 002c 0A60     		str	r2, [r1]
 436              		.loc 2 668 3 is_stmt 1 view .LVU126
 437              		.loc 2 668 15 is_stmt 0 view .LVU127
 438 002e 5A60     		str	r2, [r3, #4]
 439              	.LVL25:
 440              		.loc 2 668 15 view .LVU128
 441              	.LBE144:
 442              	.LBE146:
 443              		.loc 1 208 5 is_stmt 1 view .LVU129
 444 0030 FFF7FEFF 		bl	chSchGoSleepS
 445              	.LVL26:
 446              		.loc 1 210 5 view .LVU130
 447              		.loc 1 210 22 is_stmt 0 view .LVU131
 448 0034 A369     		ldr	r3, [r4, #24]
 449 0036 586A     		ldr	r0, [r3, #36]
 450              	.LVL27:
 451              		.loc 1 210 22 view .LVU132
 452              	.LBE147:
 453              	.LBE139:
 454              	.LBE148:
 455              	.LBE163:
 456              		.loc 1 180 3 is_stmt 1 view .LVU133
ARM GAS  C:\Users\USER\AppData\Local\Temp\ccp9XlzO.s 			page 9


 457              	.LBB164:
 458              		.loc 3 358 20 view .LVU134
 459              	.LBB160:
 460              		.loc 3 360 22 view .LVU135
 461              		.loc 3 361 33 view .LVU136
 462              		.loc 3 367 3 view .LVU137
 463              		.loc 3 367 3 view .LVU138
 464              		.loc 3 371 3 view .LVU139
 465              	.LBB157:
 466              		.loc 4 458 20 view .LVU140
 467              	.LBE157:
 468              	.LBE160:
 469              	.LBE164:
 470              		.loc 4 461 3 view .LVU141
 471              	.LBB165:
 472              	.LBB161:
 473              	.LBB158:
 474              	.LBB155:
 475              		.loc 5 544 57 view .LVU142
 476              	.LBB154:
 477              		.loc 5 546 3 view .LVU143
 478 0038 0023     		movs	r3, #0
 479              		.syntax unified
 480              	@ 546 "src/ChibiOS_3.0.2/os/ext/CMSIS/include/core_cmFunc.h" 1
 481 003a 83F31188 		MSR basepri, r3
 482              	@ 0 "" 2
 483              	.LVL28:
 484              		.loc 5 546 3 is_stmt 0 view .LVU144
 485              		.thumb
 486              		.syntax unified
 487              	.LBE154:
 488              	.LBE155:
 489              	.LBE158:
 490              	.LBE161:
 491              	.LBE165:
 492              		.loc 1 182 3 is_stmt 1 view .LVU145
 493              		.loc 1 183 1 is_stmt 0 view .LVU146
 494 003e 10BD     		pop	{r4, pc}
 495              	.L20:
 496              		.align	2
 497              	.L19:
 498 0040 00000000 		.word	ch
 499              		.cfi_endproc
 500              	.LFE222:
 501              		.size	chSemWait, .-chSemWait
 502              		.section	.text.chSemWaitS,"ax",%progbits
 503              		.align	1
 504              		.p2align 4,,15
 505              		.global	chSemWaitS
 506              		.syntax unified
 507              		.thumb
 508              		.thumb_func
 509              		.fpu fpv4-sp-d16
 510              		.type	chSemWaitS, %function
 511              	chSemWaitS:
 512              	.LVL29:
 513              	.LFB223:
ARM GAS  C:\Users\USER\AppData\Local\Temp\ccp9XlzO.s 			page 10


 514              		.loc 1 197 35 is_stmt 1 view -0
 515              		.cfi_startproc
 516              		@ args = 0, pretend = 0, frame = 0
 517              		@ frame_needed = 0, uses_anonymous_args = 0
 518              		.loc 1 199 21 view .LVU148
 519              		.loc 1 200 3 view .LVU149
 520              		.loc 1 200 3 view .LVU150
 521              		.loc 1 201 3 view .LVU151
 522              		.loc 1 201 3 view .LVU152
 523              		.loc 1 205 3 view .LVU153
 524              		.loc 1 205 7 is_stmt 0 view .LVU154
 525 0000 8368     		ldr	r3, [r0, #8]
 526 0002 013B     		subs	r3, r3, #1
 527              		.loc 1 205 6 view .LVU155
 528 0004 002B     		cmp	r3, #0
 529 0006 8360     		str	r3, [r0, #8]
 530 0008 01DB     		blt	.L28
 531              		.loc 1 213 10 view .LVU156
 532 000a 0020     		movs	r0, #0
 533              	.LVL30:
 534              		.loc 1 214 1 view .LVU157
 535 000c 7047     		bx	lr
 536              	.LVL31:
 537              	.L28:
 538              		.loc 1 197 35 view .LVU158
 539 000e 10B5     		push	{r4, lr}
 540              		.cfi_def_cfa_offset 8
 541              		.cfi_offset 4, -8
 542              		.cfi_offset 14, -4
 543              	.LBB170:
 544              	.LBB171:
 545              		.loc 1 206 5 view .LVU159
 546 0010 074C     		ldr	r4, .L29
 547              	.LBB172:
 548              	.LBB173:
 549              		.loc 2 666 19 view .LVU160
 550 0012 4168     		ldr	r1, [r0, #4]
 551              	.LBE173:
 552              	.LBE172:
 553              		.loc 1 206 5 view .LVU161
 554 0014 A269     		ldr	r2, [r4, #24]
 555 0016 0346     		mov	r3, r0
 556              	.LVL32:
 557              		.loc 1 206 5 view .LVU162
 558              	.LBE171:
 559              	.LBI170:
 560              		.loc 1 197 7 is_stmt 1 view .LVU163
 561              	.LBB178:
 562              		.loc 1 206 5 view .LVU164
 563              		.loc 1 206 23 is_stmt 0 view .LVU165
 564 0018 5362     		str	r3, [r2, #36]
 565              		.loc 1 207 5 is_stmt 1 view .LVU166
 566              	.LVL33:
 567              	.LBB176:
 568              	.LBI172:
 569              		.loc 2 663 20 view .LVU167
 570              	.LBB174:
ARM GAS  C:\Users\USER\AppData\Local\Temp\ccp9XlzO.s 			page 11


 571              		.loc 2 665 3 view .LVU168
 572              		.loc 2 666 14 is_stmt 0 view .LVU169
 573 001a C2E90031 		strd	r3, r1, [r2]
 574              		.loc 2 667 3 is_stmt 1 view .LVU170
 575              	.LBE174:
 576              	.LBE176:
 577              		.loc 1 208 5 is_stmt 0 view .LVU171
 578 001e 0520     		movs	r0, #5
 579              	.LVL34:
 580              	.LBB177:
 581              	.LBB175:
 582              		.loc 2 667 22 view .LVU172
 583 0020 0A60     		str	r2, [r1]
 584              		.loc 2 668 3 is_stmt 1 view .LVU173
 585              		.loc 2 668 15 is_stmt 0 view .LVU174
 586 0022 5A60     		str	r2, [r3, #4]
 587              	.LVL35:
 588              		.loc 2 668 15 view .LVU175
 589              	.LBE175:
 590              	.LBE177:
 591              		.loc 1 208 5 is_stmt 1 view .LVU176
 592 0024 FFF7FEFF 		bl	chSchGoSleepS
 593              	.LVL36:
 594              		.loc 1 210 5 view .LVU177
 595              		.loc 1 210 22 is_stmt 0 view .LVU178
 596 0028 A369     		ldr	r3, [r4, #24]
 597 002a 586A     		ldr	r0, [r3, #36]
 598              	.LVL37:
 599              		.loc 1 210 22 view .LVU179
 600              	.LBE178:
 601              	.LBE170:
 602              		.loc 1 214 1 view .LVU180
 603 002c 10BD     		pop	{r4, pc}
 604              	.L30:
 605 002e 00BF     		.align	2
 606              	.L29:
 607 0030 00000000 		.word	ch
 608              		.cfi_endproc
 609              	.LFE223:
 610              		.size	chSemWaitS, .-chSemWaitS
 611              		.section	.text.chSemWaitTimeout,"ax",%progbits
 612              		.align	1
 613              		.p2align 4,,15
 614              		.global	chSemWaitTimeout
 615              		.syntax unified
 616              		.thumb
 617              		.thumb_func
 618              		.fpu fpv4-sp-d16
 619              		.type	chSemWaitTimeout, %function
 620              	chSemWaitTimeout:
 621              	.LVL38:
 622              	.LFB224:
 623              		.loc 1 235 57 is_stmt 1 view -0
 624              		.cfi_startproc
 625              		@ args = 0, pretend = 0, frame = 0
 626              		@ frame_needed = 0, uses_anonymous_args = 0
 627              		.loc 1 236 3 view .LVU182
ARM GAS  C:\Users\USER\AppData\Local\Temp\ccp9XlzO.s 			page 12


 628              		.loc 1 238 3 view .LVU183
 629              	.LBB194:
 630              	.LBI194:
 631              		.loc 3 346 20 view .LVU184
 632              	.LBE194:
 633              		.loc 3 348 3 view .LVU185
 634              	.LBB199:
 635              	.LBB195:
 636              	.LBI195:
 637              		.loc 4 444 20 view .LVU186
 638              	.LBE195:
 639              	.LBE199:
 640              		.loc 4 447 3 view .LVU187
 641              	.LBB200:
 642              	.LBB198:
 643              	.LBB196:
 644              	.LBI196:
 645              		.loc 5 544 57 view .LVU188
 646              	.LBB197:
 647              		.loc 5 546 3 view .LVU189
 648 0000 2023     		movs	r3, #32
 649              		.syntax unified
 650              	@ 546 "src/ChibiOS_3.0.2/os/ext/CMSIS/include/core_cmFunc.h" 1
 651 0002 83F31188 		MSR basepri, r3
 652              	@ 0 "" 2
 653              	.LVL39:
 654              		.loc 5 546 3 is_stmt 0 view .LVU190
 655              		.thumb
 656              		.syntax unified
 657              	.LBE197:
 658              	.LBE196:
 659              	.LBE198:
 660              	.LBE200:
 661              		.loc 3 349 34 is_stmt 1 view .LVU191
 662              		.loc 3 350 20 view .LVU192
 663              		.loc 1 239 3 view .LVU193
 664              	.LBB201:
 665              	.LBI201:
 666              		.loc 1 264 7 view .LVU194
 667              	.LBB202:
 668              		.loc 1 266 21 view .LVU195
 669              		.loc 1 267 3 view .LVU196
 670              		.loc 1 267 3 view .LVU197
 671              		.loc 1 268 3 view .LVU198
 672              		.loc 1 268 3 view .LVU199
 673              		.loc 1 272 3 view .LVU200
 674              		.loc 1 272 11 is_stmt 0 view .LVU201
 675 0006 8268     		ldr	r2, [r0, #8]
 676              		.loc 1 272 7 view .LVU202
 677 0008 531E     		subs	r3, r2, #1
 678              		.loc 1 272 6 view .LVU203
 679 000a 002B     		cmp	r3, #0
 680 000c 8360     		str	r3, [r0, #8]
 681 000e 04DB     		blt	.L39
 682              		.loc 1 284 10 view .LVU204
 683 0010 0020     		movs	r0, #0
 684              	.LVL40:
ARM GAS  C:\Users\USER\AppData\Local\Temp\ccp9XlzO.s 			page 13


 685              		.loc 1 284 10 view .LVU205
 686              	.LBE202:
 687              	.LBE201:
 688              		.loc 1 240 3 is_stmt 1 view .LVU206
 689              	.LBB215:
 690              	.LBI215:
 691              		.loc 3 358 20 view .LVU207
 692              	.LBB216:
 693              		.loc 3 360 22 view .LVU208
 694              		.loc 3 361 33 view .LVU209
 695              		.loc 3 367 3 view .LVU210
 696              		.loc 3 367 3 view .LVU211
 697              		.loc 3 371 3 view .LVU212
 698              	.LBB217:
 699              	.LBI217:
 700              		.loc 4 458 20 view .LVU213
 701              	.LBE217:
 702              	.LBE216:
 703              	.LBE215:
 704              		.loc 4 461 3 view .LVU214
 705              	.LBB228:
 706              	.LBB225:
 707              	.LBB222:
 708              	.LBB218:
 709              	.LBI218:
 710              		.loc 5 544 57 view .LVU215
 711              	.LBB219:
 712              		.loc 5 546 3 view .LVU216
 713 0012 0023     		movs	r3, #0
 714              		.syntax unified
 715              	@ 546 "src/ChibiOS_3.0.2/os/ext/CMSIS/include/core_cmFunc.h" 1
 716 0014 83F31188 		MSR basepri, r3
 717              	@ 0 "" 2
 718              	.LVL41:
 719              		.loc 5 546 3 is_stmt 0 view .LVU217
 720              		.thumb
 721              		.syntax unified
 722              	.LBE219:
 723              	.LBE218:
 724              	.LBE222:
 725              	.LBE225:
 726              	.LBE228:
 727              		.loc 1 242 3 is_stmt 1 view .LVU218
 728              		.loc 1 243 1 is_stmt 0 view .LVU219
 729 0018 7047     		bx	lr
 730              	.LVL42:
 731              	.L39:
 732              	.LBB229:
 733              	.LBB212:
 734              		.loc 1 273 5 is_stmt 1 view .LVU220
 735              	.LBE212:
 736              	.LBE229:
 737              		.loc 1 235 57 is_stmt 0 view .LVU221
 738 001a 10B5     		push	{r4, lr}
 739              		.cfi_def_cfa_offset 8
 740              		.cfi_offset 4, -8
 741              		.cfi_offset 14, -4
ARM GAS  C:\Users\USER\AppData\Local\Temp\ccp9XlzO.s 			page 14


 742              	.LBB230:
 743              	.LBB213:
 744              		.loc 1 273 8 view .LVU222
 745 001c 79B1     		cbz	r1, .L40
 746              	.LBB203:
 747              	.LBB204:
 748              		.loc 1 278 5 view .LVU223
 749 001e 0A4A     		ldr	r2, .L41
 750              	.LBB205:
 751              	.LBB206:
 752              		.loc 2 666 19 view .LVU224
 753 0020 4468     		ldr	r4, [r0, #4]
 754              	.LBE206:
 755              	.LBE205:
 756              		.loc 1 278 5 view .LVU225
 757 0022 9269     		ldr	r2, [r2, #24]
 758 0024 0346     		mov	r3, r0
 759              	.LVL43:
 760              		.loc 1 278 5 view .LVU226
 761              	.LBE204:
 762              	.LBI203:
 763              		.loc 1 264 7 is_stmt 1 view .LVU227
 764              	.LBB211:
 765              		.loc 1 278 5 view .LVU228
 766              		.loc 1 278 23 is_stmt 0 view .LVU229
 767 0026 5362     		str	r3, [r2, #36]
 768              		.loc 1 279 5 is_stmt 1 view .LVU230
 769              	.LVL44:
 770              	.LBB209:
 771              	.LBI205:
 772              		.loc 2 663 20 view .LVU231
 773              	.LBB207:
 774              		.loc 2 665 3 view .LVU232
 775              		.loc 2 666 14 is_stmt 0 view .LVU233
 776 0028 C2E90034 		strd	r3, r4, [r2]
 777              		.loc 2 667 3 is_stmt 1 view .LVU234
 778              	.LBE207:
 779              	.LBE209:
 780              		.loc 1 281 12 is_stmt 0 view .LVU235
 781 002c 0520     		movs	r0, #5
 782              	.LVL45:
 783              	.LBB210:
 784              	.LBB208:
 785              		.loc 2 667 22 view .LVU236
 786 002e 2260     		str	r2, [r4]
 787              		.loc 2 668 3 is_stmt 1 view .LVU237
 788              		.loc 2 668 15 is_stmt 0 view .LVU238
 789 0030 5A60     		str	r2, [r3, #4]
 790              	.LVL46:
 791              		.loc 2 668 15 view .LVU239
 792              	.LBE208:
 793              	.LBE210:
 794              		.loc 1 281 5 is_stmt 1 view .LVU240
 795              		.loc 1 281 12 is_stmt 0 view .LVU241
 796 0032 FFF7FEFF 		bl	chSchGoSleepTimeoutS
 797              	.LVL47:
 798              	.L32:
ARM GAS  C:\Users\USER\AppData\Local\Temp\ccp9XlzO.s 			page 15


 799              		.loc 1 281 12 view .LVU242
 800              	.LBE211:
 801              	.LBE203:
 802              	.LBE213:
 803              	.LBE230:
 804              		.loc 1 240 3 is_stmt 1 view .LVU243
 805              	.LBB231:
 806              		.loc 3 358 20 view .LVU244
 807              	.LBB226:
 808              		.loc 3 360 22 view .LVU245
 809              		.loc 3 361 33 view .LVU246
 810              		.loc 3 367 3 view .LVU247
 811              		.loc 3 367 3 view .LVU248
 812              		.loc 3 371 3 view .LVU249
 813              	.LBB223:
 814              		.loc 4 458 20 view .LVU250
 815              	.LBE223:
 816              	.LBE226:
 817              	.LBE231:
 818              		.loc 4 461 3 view .LVU251
 819              	.LBB232:
 820              	.LBB227:
 821              	.LBB224:
 822              	.LBB221:
 823              		.loc 5 544 57 view .LVU252
 824              	.LBB220:
 825              		.loc 5 546 3 view .LVU253
 826 0036 0023     		movs	r3, #0
 827              		.syntax unified
 828              	@ 546 "src/ChibiOS_3.0.2/os/ext/CMSIS/include/core_cmFunc.h" 1
 829 0038 83F31188 		MSR basepri, r3
 830              	@ 0 "" 2
 831              	.LVL48:
 832              		.loc 5 546 3 is_stmt 0 view .LVU254
 833              		.thumb
 834              		.syntax unified
 835              	.LBE220:
 836              	.LBE221:
 837              	.LBE224:
 838              	.LBE227:
 839              	.LBE232:
 840              		.loc 1 242 3 is_stmt 1 view .LVU255
 841              		.loc 1 243 1 is_stmt 0 view .LVU256
 842 003c 10BD     		pop	{r4, pc}
 843              	.LVL49:
 844              	.L40:
 845              	.LBB233:
 846              	.LBB214:
 847              		.loc 1 274 7 is_stmt 1 view .LVU257
 848              		.loc 1 274 16 is_stmt 0 view .LVU258
 849 003e 8260     		str	r2, [r0, #8]
 850              		.loc 1 276 7 is_stmt 1 view .LVU259
 851              		.loc 1 276 14 is_stmt 0 view .LVU260
 852 0040 4FF0FF30 		mov	r0, #-1
 853              	.LVL50:
 854              		.loc 1 276 14 view .LVU261
 855 0044 F7E7     		b	.L32
ARM GAS  C:\Users\USER\AppData\Local\Temp\ccp9XlzO.s 			page 16


 856              	.L42:
 857 0046 00BF     		.align	2
 858              	.L41:
 859 0048 00000000 		.word	ch
 860              	.LBE214:
 861              	.LBE233:
 862              		.cfi_endproc
 863              	.LFE224:
 864              		.size	chSemWaitTimeout, .-chSemWaitTimeout
 865              		.section	.text.chSemWaitTimeoutS,"ax",%progbits
 866              		.align	1
 867              		.p2align 4,,15
 868              		.global	chSemWaitTimeoutS
 869              		.syntax unified
 870              		.thumb
 871              		.thumb_func
 872              		.fpu fpv4-sp-d16
 873              		.type	chSemWaitTimeoutS, %function
 874              	chSemWaitTimeoutS:
 875              	.LVL51:
 876              	.LFB225:
 877              		.loc 1 264 58 is_stmt 1 view -0
 878              		.cfi_startproc
 879              		@ args = 0, pretend = 0, frame = 0
 880              		@ frame_needed = 0, uses_anonymous_args = 0
 881              		@ link register save eliminated.
 882              		.loc 1 266 21 view .LVU263
 883              		.loc 1 267 3 view .LVU264
 884              		.loc 1 267 3 view .LVU265
 885              		.loc 1 268 3 view .LVU266
 886              		.loc 1 268 3 view .LVU267
 887              		.loc 1 272 3 view .LVU268
 888              		.loc 1 264 58 is_stmt 0 view .LVU269
 889 0000 0346     		mov	r3, r0
 890              		.loc 1 272 11 view .LVU270
 891 0002 8068     		ldr	r0, [r0, #8]
 892              	.LVL52:
 893              		.loc 1 272 7 view .LVU271
 894 0004 421E     		subs	r2, r0, #1
 895              		.loc 1 272 6 view .LVU272
 896 0006 002A     		cmp	r2, #0
 897 0008 9A60     		str	r2, [r3, #8]
 898 000a 01DB     		blt	.L51
 899              		.loc 1 284 10 view .LVU273
 900 000c 0020     		movs	r0, #0
 901              		.loc 1 285 1 view .LVU274
 902 000e 7047     		bx	lr
 903              	.L51:
 904              		.loc 1 273 5 is_stmt 1 view .LVU275
 905              		.loc 1 264 58 is_stmt 0 view .LVU276
 906 0010 10B4     		push	{r4}
 907              		.cfi_def_cfa_offset 4
 908              		.cfi_offset 4, -4
 909              		.loc 1 273 8 view .LVU277
 910 0012 61B1     		cbz	r1, .L52
 911              	.LVL53:
 912              	.LBB238:
ARM GAS  C:\Users\USER\AppData\Local\Temp\ccp9XlzO.s 			page 17


 913              	.LBI238:
 914              		.loc 1 264 7 is_stmt 1 view .LVU278
 915              	.LBB239:
 916              		.loc 1 278 5 view .LVU279
 917 0014 094A     		ldr	r2, .L53
 918              	.LBB240:
 919              	.LBB241:
 920              		.loc 2 666 19 is_stmt 0 view .LVU280
 921 0016 5C68     		ldr	r4, [r3, #4]
 922              	.LBE241:
 923              	.LBE240:
 924              		.loc 1 278 5 view .LVU281
 925 0018 9269     		ldr	r2, [r2, #24]
 926              		.loc 1 281 12 view .LVU282
 927 001a 0520     		movs	r0, #5
 928              	.LBB244:
 929              	.LBB242:
 930              		.loc 2 666 14 view .LVU283
 931 001c C2E90034 		strd	r3, r4, [r2]
 932              	.LBE242:
 933              	.LBE244:
 934              		.loc 1 278 23 view .LVU284
 935 0020 5362     		str	r3, [r2, #36]
 936              		.loc 1 279 5 is_stmt 1 view .LVU285
 937              	.LVL54:
 938              	.LBB245:
 939              	.LBI240:
 940              		.loc 2 663 20 view .LVU286
 941              	.LBB243:
 942              		.loc 2 665 3 view .LVU287
 943              		.loc 2 667 3 view .LVU288
 944              		.loc 2 667 22 is_stmt 0 view .LVU289
 945 0022 2260     		str	r2, [r4]
 946              		.loc 2 668 3 is_stmt 1 view .LVU290
 947              		.loc 2 668 15 is_stmt 0 view .LVU291
 948 0024 5A60     		str	r2, [r3, #4]
 949              	.LVL55:
 950              		.loc 2 668 15 view .LVU292
 951              	.LBE243:
 952              	.LBE245:
 953              		.loc 1 281 5 is_stmt 1 view .LVU293
 954              	.LBE239:
 955              	.LBE238:
 956              		.loc 1 285 1 is_stmt 0 view .LVU294
 957 0026 5DF8044B 		ldr	r4, [sp], #4
 958              		.cfi_remember_state
 959              		.cfi_restore 4
 960              		.cfi_def_cfa_offset 0
 961              	.LBB247:
 962              	.LBB246:
 963              		.loc 1 281 12 view .LVU295
 964 002a FFF7FEBF 		b	chSchGoSleepTimeoutS
 965              	.LVL56:
 966              	.L52:
 967              		.cfi_restore_state
 968              		.loc 1 281 12 view .LVU296
 969              	.LBE246:
ARM GAS  C:\Users\USER\AppData\Local\Temp\ccp9XlzO.s 			page 18


 970              	.LBE247:
 971              		.loc 1 274 7 is_stmt 1 view .LVU297
 972              		.loc 1 274 16 is_stmt 0 view .LVU298
 973 002e 9860     		str	r0, [r3, #8]
 974              		.loc 1 276 7 is_stmt 1 view .LVU299
 975              		.loc 1 285 1 is_stmt 0 view .LVU300
 976 0030 5DF8044B 		ldr	r4, [sp], #4
 977              		.cfi_restore 4
 978              		.cfi_def_cfa_offset 0
 979              		.loc 1 276 14 view .LVU301
 980 0034 4FF0FF30 		mov	r0, #-1
 981              		.loc 1 285 1 view .LVU302
 982 0038 7047     		bx	lr
 983              	.L54:
 984 003a 00BF     		.align	2
 985              	.L53:
 986 003c 00000000 		.word	ch
 987              		.cfi_endproc
 988              	.LFE225:
 989              		.size	chSemWaitTimeoutS, .-chSemWaitTimeoutS
 990              		.section	.text.chSemSignal,"ax",%progbits
 991              		.align	1
 992              		.p2align 4,,15
 993              		.global	chSemSignal
 994              		.syntax unified
 995              		.thumb
 996              		.thumb_func
 997              		.fpu fpv4-sp-d16
 998              		.type	chSemSignal, %function
 999              	chSemSignal:
 1000              	.LVL57:
 1001              	.LFB226:
 1002              		.loc 1 294 35 is_stmt 1 view -0
 1003              		.cfi_startproc
 1004              		@ args = 0, pretend = 0, frame = 0
 1005              		@ frame_needed = 0, uses_anonymous_args = 0
 1006              		.loc 1 296 3 view .LVU304
 1007              		.loc 1 296 3 view .LVU305
 1008              		.loc 1 297 3 view .LVU306
 1009              		.loc 1 297 3 view .LVU307
 1010              		.loc 1 301 3 view .LVU308
 1011              	.LBB248:
 1012              	.LBI248:
 1013              		.loc 3 346 20 view .LVU309
 1014              	.LBE248:
 1015              		.loc 3 348 3 view .LVU310
 1016              	.LBB256:
 1017              	.LBB249:
 1018              	.LBI249:
 1019              		.loc 4 444 20 view .LVU311
 1020              	.LBE249:
 1021              	.LBE256:
 1022              		.loc 4 447 3 view .LVU312
 1023              	.LBB257:
 1024              	.LBB254:
 1025              	.LBB250:
 1026              	.LBI250:
ARM GAS  C:\Users\USER\AppData\Local\Temp\ccp9XlzO.s 			page 19


 1027              		.loc 5 544 57 view .LVU313
 1028              	.LBB251:
 1029              		.loc 5 546 3 view .LVU314
 1030              	.LBE251:
 1031              	.LBE250:
 1032              	.LBE254:
 1033              	.LBE257:
 1034              		.loc 1 294 35 is_stmt 0 view .LVU315
 1035 0000 08B5     		push	{r3, lr}
 1036              		.cfi_def_cfa_offset 8
 1037              		.cfi_offset 3, -8
 1038              		.cfi_offset 14, -4
 1039              	.LBB258:
 1040              	.LBB255:
 1041              	.LBB253:
 1042              	.LBB252:
 1043              		.loc 5 546 3 view .LVU316
 1044 0002 2023     		movs	r3, #32
 1045              		.syntax unified
 1046              	@ 546 "src/ChibiOS_3.0.2/os/ext/CMSIS/include/core_cmFunc.h" 1
 1047 0004 83F31188 		MSR basepri, r3
 1048              	@ 0 "" 2
 1049              	.LVL58:
 1050              		.loc 5 546 3 view .LVU317
 1051              		.thumb
 1052              		.syntax unified
 1053              	.LBE252:
 1054              	.LBE253:
 1055              	.LBE255:
 1056              	.LBE258:
 1057              		.loc 3 349 34 is_stmt 1 view .LVU318
 1058              		.loc 3 350 20 view .LVU319
 1059              		.loc 1 302 3 view .LVU320
 1060              		.loc 1 302 7 is_stmt 0 view .LVU321
 1061 0008 8368     		ldr	r3, [r0, #8]
 1062 000a 0133     		adds	r3, r3, #1
 1063              		.loc 1 302 6 view .LVU322
 1064 000c 002B     		cmp	r3, #0
 1065 000e 8360     		str	r3, [r0, #8]
 1066 0010 03DD     		ble	.L58
 1067              		.loc 1 305 3 is_stmt 1 view .LVU323
 1068              	.LBB259:
 1069              	.LBI259:
 1070              		.loc 3 358 20 view .LVU324
 1071              	.LBB260:
 1072              		.loc 3 360 22 view .LVU325
 1073              		.loc 3 361 33 view .LVU326
 1074              		.loc 3 367 3 view .LVU327
 1075              		.loc 3 367 3 view .LVU328
 1076              		.loc 3 371 3 view .LVU329
 1077              	.LBB261:
 1078              	.LBI261:
 1079              		.loc 4 458 20 view .LVU330
 1080              	.LBE261:
 1081              	.LBE260:
 1082              	.LBE259:
 1083              		.loc 4 461 3 view .LVU331
ARM GAS  C:\Users\USER\AppData\Local\Temp\ccp9XlzO.s 			page 20


 1084              	.LVL59:
 1085              	.LBB272:
 1086              	.LBB269:
 1087              	.LBB266:
 1088              	.LBB262:
 1089              	.LBI262:
 1090              		.loc 5 544 57 view .LVU332
 1091              	.LBB263:
 1092              		.loc 5 546 3 view .LVU333
 1093 0012 0023     		movs	r3, #0
 1094              		.syntax unified
 1095              	@ 546 "src/ChibiOS_3.0.2/os/ext/CMSIS/include/core_cmFunc.h" 1
 1096 0014 83F31188 		MSR basepri, r3
 1097              	@ 0 "" 2
 1098              	.LVL60:
 1099              		.loc 5 546 3 is_stmt 0 view .LVU334
 1100              		.thumb
 1101              		.syntax unified
 1102              	.LBE263:
 1103              	.LBE262:
 1104              	.LBE266:
 1105              	.LBE269:
 1106              	.LBE272:
 1107              		.loc 1 306 1 view .LVU335
 1108 0018 08BD     		pop	{r3, pc}
 1109              	.L58:
 1110 001a 0346     		mov	r3, r0
 1111              		.loc 1 303 5 is_stmt 1 view .LVU336
 1112              	.LVL61:
 1113              	.LBB273:
 1114              	.LBI273:
 1115              		.loc 2 671 25 view .LVU337
 1116              	.LBB274:
 1117              		.loc 2 672 3 view .LVU338
 1118              		.loc 2 672 13 is_stmt 0 view .LVU339
 1119 001c 0068     		ldr	r0, [r0]
 1120              	.LVL62:
 1121              		.loc 2 674 3 is_stmt 1 view .LVU340
 1122              		.loc 2 674 19 is_stmt 0 view .LVU341
 1123 001e 0268     		ldr	r2, [r0]
 1124              		.loc 2 674 15 view .LVU342
 1125 0020 1A60     		str	r2, [r3]
 1126              		.loc 2 675 3 is_stmt 1 view .LVU343
 1127              	.LBE274:
 1128              	.LBE273:
 1129              		.loc 1 303 5 is_stmt 0 view .LVU344
 1130 0022 0021     		movs	r1, #0
 1131              	.LBB276:
 1132              	.LBB275:
 1133              		.loc 2 675 23 view .LVU345
 1134 0024 5360     		str	r3, [r2, #4]
 1135              		.loc 2 677 3 is_stmt 1 view .LVU346
 1136              	.LVL63:
 1137              		.loc 2 677 3 is_stmt 0 view .LVU347
 1138              	.LBE275:
 1139              	.LBE276:
 1140              		.loc 1 303 5 view .LVU348
ARM GAS  C:\Users\USER\AppData\Local\Temp\ccp9XlzO.s 			page 21


 1141 0026 FFF7FEFF 		bl	chSchWakeupS
 1142              	.LVL64:
 1143              		.loc 1 305 3 is_stmt 1 view .LVU349
 1144              	.LBB277:
 1145              		.loc 3 358 20 view .LVU350
 1146              	.LBB270:
 1147              		.loc 3 360 22 view .LVU351
 1148              		.loc 3 361 33 view .LVU352
 1149              		.loc 3 367 3 view .LVU353
 1150              		.loc 3 367 3 view .LVU354
 1151              		.loc 3 371 3 view .LVU355
 1152              	.LBB267:
 1153              		.loc 4 458 20 view .LVU356
 1154              	.LBE267:
 1155              	.LBE270:
 1156              	.LBE277:
 1157              		.loc 4 461 3 view .LVU357
 1158              	.LBB278:
 1159              	.LBB271:
 1160              	.LBB268:
 1161              	.LBB265:
 1162              		.loc 5 544 57 view .LVU358
 1163              	.LBB264:
 1164              		.loc 5 546 3 view .LVU359
 1165 002a 0023     		movs	r3, #0
 1166              		.syntax unified
 1167              	@ 546 "src/ChibiOS_3.0.2/os/ext/CMSIS/include/core_cmFunc.h" 1
 1168 002c 83F31188 		MSR basepri, r3
 1169              	@ 0 "" 2
 1170              	.LVL65:
 1171              		.loc 5 546 3 is_stmt 0 view .LVU360
 1172              		.thumb
 1173              		.syntax unified
 1174              	.LBE264:
 1175              	.LBE265:
 1176              	.LBE268:
 1177              	.LBE271:
 1178              	.LBE278:
 1179              		.loc 1 306 1 view .LVU361
 1180 0030 08BD     		pop	{r3, pc}
 1181              		.cfi_endproc
 1182              	.LFE226:
 1183              		.size	chSemSignal, .-chSemSignal
 1184 0032 00BF     		.section	.text.chSemSignalI,"ax",%progbits
 1185              		.align	1
 1186              		.p2align 4,,15
 1187              		.global	chSemSignalI
 1188              		.syntax unified
 1189              		.thumb
 1190              		.thumb_func
 1191              		.fpu fpv4-sp-d16
 1192              		.type	chSemSignalI, %function
 1193              	chSemSignalI:
 1194              	.LVL66:
 1195              	.LFB227:
 1196              		.loc 1 319 36 is_stmt 1 view -0
 1197              		.cfi_startproc
ARM GAS  C:\Users\USER\AppData\Local\Temp\ccp9XlzO.s 			page 22


 1198              		@ args = 0, pretend = 0, frame = 0
 1199              		@ frame_needed = 0, uses_anonymous_args = 0
 1200              		@ link register save eliminated.
 1201              		.loc 1 321 21 view .LVU363
 1202              		.loc 1 322 3 view .LVU364
 1203              		.loc 1 322 3 view .LVU365
 1204              		.loc 1 323 3 view .LVU366
 1205              		.loc 1 323 3 view .LVU367
 1206              		.loc 1 327 3 view .LVU368
 1207              		.loc 1 327 7 is_stmt 0 view .LVU369
 1208 0000 8368     		ldr	r3, [r0, #8]
 1209 0002 0133     		adds	r3, r3, #1
 1210              		.loc 1 327 6 view .LVU370
 1211 0004 002B     		cmp	r3, #0
 1212 0006 8360     		str	r3, [r0, #8]
 1213 0008 00DD     		ble	.L61
 1214              		.loc 1 334 1 view .LVU371
 1215 000a 7047     		bx	lr
 1216              	.L61:
 1217              	.LBB279:
 1218              		.loc 1 330 5 is_stmt 1 view .LVU372
 1219              	.LVL67:
 1220              	.LBB280:
 1221              	.LBI280:
 1222              		.loc 2 671 25 view .LVU373
 1223              	.LBB281:
 1224              		.loc 2 672 3 view .LVU374
 1225              		.loc 2 672 13 is_stmt 0 view .LVU375
 1226 000c 0368     		ldr	r3, [r0]
 1227              	.LVL68:
 1228              		.loc 2 674 3 is_stmt 1 view .LVU376
 1229              		.loc 2 674 19 is_stmt 0 view .LVU377
 1230 000e 1A68     		ldr	r2, [r3]
 1231              		.loc 2 674 15 view .LVU378
 1232 0010 0260     		str	r2, [r0]
 1233              		.loc 2 675 3 is_stmt 1 view .LVU379
 1234              	.LBE281:
 1235              	.LBE280:
 1236              		.loc 1 331 20 is_stmt 0 view .LVU380
 1237 0012 0021     		movs	r1, #0
 1238              	.LBB283:
 1239              	.LBB282:
 1240              		.loc 2 675 23 view .LVU381
 1241 0014 5060     		str	r0, [r2, #4]
 1242              		.loc 2 677 3 is_stmt 1 view .LVU382
 1243              	.LVL69:
 1244              		.loc 2 677 3 is_stmt 0 view .LVU383
 1245              	.LBE282:
 1246              	.LBE283:
 1247              		.loc 1 331 5 is_stmt 1 view .LVU384
 1248              		.loc 1 332 12 is_stmt 0 view .LVU385
 1249 0016 1846     		mov	r0, r3
 1250              	.LVL70:
 1251              		.loc 1 331 20 view .LVU386
 1252 0018 5962     		str	r1, [r3, #36]
 1253              		.loc 1 332 5 is_stmt 1 view .LVU387
 1254              		.loc 1 332 12 is_stmt 0 view .LVU388
ARM GAS  C:\Users\USER\AppData\Local\Temp\ccp9XlzO.s 			page 23


 1255 001a FFF7FEBF 		b	chSchReadyI
 1256              	.LVL71:
 1257              		.loc 1 332 12 view .LVU389
 1258              	.LBE279:
 1259              		.cfi_endproc
 1260              	.LFE227:
 1261              		.size	chSemSignalI, .-chSemSignalI
 1262 001e 00BF     		.section	.text.chSemAddCounterI,"ax",%progbits
 1263              		.align	1
 1264              		.p2align 4,,15
 1265              		.global	chSemAddCounterI
 1266              		.syntax unified
 1267              		.thumb
 1268              		.thumb_func
 1269              		.fpu fpv4-sp-d16
 1270              		.type	chSemAddCounterI, %function
 1271              	chSemAddCounterI:
 1272              	.LVL72:
 1273              	.LFB228:
 1274              		.loc 1 349 49 is_stmt 1 view -0
 1275              		.cfi_startproc
 1276              		@ args = 0, pretend = 0, frame = 0
 1277              		@ frame_needed = 0, uses_anonymous_args = 0
 1278              		.loc 1 351 21 view .LVU391
 1279              		.loc 1 352 3 view .LVU392
 1280              		.loc 1 352 3 view .LVU393
 1281              		.loc 1 353 3 view .LVU394
 1282              		.loc 1 353 3 view .LVU395
 1283              		.loc 1 349 49 is_stmt 0 view .LVU396
 1284 0000 70B5     		push	{r4, r5, r6, lr}
 1285              		.cfi_def_cfa_offset 16
 1286              		.cfi_offset 4, -16
 1287              		.cfi_offset 5, -12
 1288              		.cfi_offset 6, -8
 1289              		.cfi_offset 14, -4
 1290              		.loc 1 357 9 view .LVU397
 1291 0002 0C1E     		subs	r4, r1, #0
 1292 0004 12DD     		ble	.L62
 1293 0006 0546     		mov	r5, r0
 1294              		.loc 1 359 64 view .LVU398
 1295 0008 0026     		movs	r6, #0
 1296 000a 01E0     		b	.L65
 1297              	.LVL73:
 1298              	.L64:
 1299              		.loc 1 361 5 is_stmt 1 view .LVU399
 1300              		.loc 1 357 9 is_stmt 0 view .LVU400
 1301 000c 013C     		subs	r4, r4, #1
 1302              	.LVL74:
 1303              		.loc 1 357 9 view .LVU401
 1304 000e 0DD0     		beq	.L62
 1305              	.LVL75:
 1306              	.L65:
 1307              		.loc 1 358 5 is_stmt 1 view .LVU402
 1308              		.loc 1 358 9 is_stmt 0 view .LVU403
 1309 0010 AB68     		ldr	r3, [r5, #8]
 1310 0012 0133     		adds	r3, r3, #1
 1311              		.loc 1 358 8 view .LVU404
ARM GAS  C:\Users\USER\AppData\Local\Temp\ccp9XlzO.s 			page 24


 1312 0014 002B     		cmp	r3, #0
 1313 0016 AB60     		str	r3, [r5, #8]
 1314 0018 F8DC     		bgt	.L64
 1315              		.loc 1 359 7 is_stmt 1 view .LVU405
 1316              	.LVL76:
 1317              	.LBB284:
 1318              	.LBI284:
 1319              		.loc 2 671 25 view .LVU406
 1320              	.LBB285:
 1321              		.loc 2 672 3 view .LVU407
 1322              		.loc 2 672 13 is_stmt 0 view .LVU408
 1323 001a 2868     		ldr	r0, [r5]
 1324              	.LVL77:
 1325              		.loc 2 674 3 is_stmt 1 view .LVU409
 1326              		.loc 2 674 19 is_stmt 0 view .LVU410
 1327 001c 0368     		ldr	r3, [r0]
 1328              		.loc 2 674 15 view .LVU411
 1329 001e 2B60     		str	r3, [r5]
 1330              		.loc 2 675 3 is_stmt 1 view .LVU412
 1331              		.loc 2 675 23 is_stmt 0 view .LVU413
 1332 0020 5D60     		str	r5, [r3, #4]
 1333              		.loc 2 677 3 is_stmt 1 view .LVU414
 1334              	.LVL78:
 1335              		.loc 2 677 3 is_stmt 0 view .LVU415
 1336              	.LBE285:
 1337              	.LBE284:
 1338              		.loc 1 359 7 view .LVU416
 1339 0022 FFF7FEFF 		bl	chSchReadyI
 1340              	.LVL79:
 1341              		.loc 1 357 9 view .LVU417
 1342 0026 013C     		subs	r4, r4, #1
 1343              	.LVL80:
 1344              		.loc 1 359 64 view .LVU418
 1345 0028 4662     		str	r6, [r0, #36]
 1346              		.loc 1 361 5 is_stmt 1 view .LVU419
 1347              	.LVL81:
 1348              		.loc 1 357 9 is_stmt 0 view .LVU420
 1349 002a F1D1     		bne	.L65
 1350              	.LVL82:
 1351              	.L62:
 1352              		.loc 1 363 1 view .LVU421
 1353 002c 70BD     		pop	{r4, r5, r6, pc}
 1354              		.cfi_endproc
 1355              	.LFE228:
 1356              		.size	chSemAddCounterI, .-chSemAddCounterI
 1357 002e 00BF     		.section	.text.chSemSignalWait,"ax",%progbits
 1358              		.align	1
 1359              		.p2align 4,,15
 1360              		.global	chSemSignalWait
 1361              		.syntax unified
 1362              		.thumb
 1363              		.thumb_func
 1364              		.fpu fpv4-sp-d16
 1365              		.type	chSemSignalWait, %function
 1366              	chSemSignalWait:
 1367              	.LVL83:
 1368              	.LFB229:
ARM GAS  C:\Users\USER\AppData\Local\Temp\ccp9XlzO.s 			page 25


 1369              		.loc 1 378 59 is_stmt 1 view -0
 1370              		.cfi_startproc
 1371              		@ args = 0, pretend = 0, frame = 0
 1372              		@ frame_needed = 0, uses_anonymous_args = 0
 1373              		.loc 1 379 3 view .LVU423
 1374              		.loc 1 381 3 view .LVU424
 1375              		.loc 1 381 3 view .LVU425
 1376              		.loc 1 382 3 view .LVU426
 1377              		.loc 1 382 3 view .LVU427
 1378              		.loc 1 385 3 view .LVU428
 1379              		.loc 1 385 3 view .LVU429
 1380              		.loc 1 389 3 view .LVU430
 1381              	.LBB286:
 1382              	.LBI286:
 1383              		.loc 3 346 20 view .LVU431
 1384              	.LBE286:
 1385              		.loc 3 348 3 view .LVU432
 1386              	.LBB294:
 1387              	.LBB287:
 1388              	.LBI287:
 1389              		.loc 4 444 20 view .LVU433
 1390              	.LBE287:
 1391              	.LBE294:
 1392              		.loc 4 447 3 view .LVU434
 1393              	.LBB295:
 1394              	.LBB292:
 1395              	.LBB288:
 1396              	.LBI288:
 1397              		.loc 5 544 57 view .LVU435
 1398              	.LBB289:
 1399              		.loc 5 546 3 view .LVU436
 1400              	.LBE289:
 1401              	.LBE288:
 1402              	.LBE292:
 1403              	.LBE295:
 1404              		.loc 1 378 59 is_stmt 0 view .LVU437
 1405 0000 38B5     		push	{r3, r4, r5, lr}
 1406              		.cfi_def_cfa_offset 16
 1407              		.cfi_offset 3, -16
 1408              		.cfi_offset 4, -12
 1409              		.cfi_offset 5, -8
 1410              		.cfi_offset 14, -4
 1411              		.loc 1 378 59 view .LVU438
 1412 0002 0C46     		mov	r4, r1
 1413              	.LBB296:
 1414              	.LBB293:
 1415              	.LBB291:
 1416              	.LBB290:
 1417              		.loc 5 546 3 view .LVU439
 1418 0004 2023     		movs	r3, #32
 1419              		.syntax unified
 1420              	@ 546 "src/ChibiOS_3.0.2/os/ext/CMSIS/include/core_cmFunc.h" 1
 1421 0006 83F31188 		MSR basepri, r3
 1422              	@ 0 "" 2
 1423              	.LVL84:
 1424              		.loc 5 546 3 view .LVU440
 1425              		.thumb
ARM GAS  C:\Users\USER\AppData\Local\Temp\ccp9XlzO.s 			page 26


 1426              		.syntax unified
 1427              	.LBE290:
 1428              	.LBE291:
 1429              	.LBE293:
 1430              	.LBE296:
 1431              		.loc 3 349 34 is_stmt 1 view .LVU441
 1432              		.loc 3 350 20 view .LVU442
 1433              		.loc 1 390 3 view .LVU443
 1434              		.loc 1 390 7 is_stmt 0 view .LVU444
 1435 000a 8368     		ldr	r3, [r0, #8]
 1436 000c 0133     		adds	r3, r3, #1
 1437              		.loc 1 390 6 view .LVU445
 1438 000e 002B     		cmp	r3, #0
 1439 0010 8360     		str	r3, [r0, #8]
 1440 0012 1BDD     		ble	.L73
 1441              	.LVL85:
 1442              	.L69:
 1443              		.loc 1 393 3 is_stmt 1 view .LVU446
 1444              		.loc 1 393 7 is_stmt 0 view .LVU447
 1445 0014 A368     		ldr	r3, [r4, #8]
 1446 0016 013B     		subs	r3, r3, #1
 1447              		.loc 1 393 6 view .LVU448
 1448 0018 002B     		cmp	r3, #0
 1449 001a A360     		str	r3, [r4, #8]
 1450 001c 06DB     		blt	.L74
 1451              		.loc 1 401 5 is_stmt 1 view .LVU449
 1452 001e FFF7FEFF 		bl	chSchRescheduleS
 1453              	.LVL86:
 1454              		.loc 1 402 5 view .LVU450
 1455              		.loc 1 402 9 is_stmt 0 view .LVU451
 1456 0022 0020     		movs	r0, #0
 1457              	.LVL87:
 1458              		.loc 1 404 3 is_stmt 1 view .LVU452
 1459              	.LBB297:
 1460              	.LBI297:
 1461              		.loc 3 358 20 view .LVU453
 1462              	.LBB298:
 1463              		.loc 3 360 22 view .LVU454
 1464              		.loc 3 361 33 view .LVU455
 1465              		.loc 3 367 3 view .LVU456
 1466              		.loc 3 367 3 view .LVU457
 1467              		.loc 3 371 3 view .LVU458
 1468              	.LBB299:
 1469              	.LBI299:
 1470              		.loc 4 458 20 view .LVU459
 1471              	.LBE299:
 1472              	.LBE298:
 1473              	.LBE297:
 1474              		.loc 4 461 3 view .LVU460
 1475              	.LBB310:
 1476              	.LBB307:
 1477              	.LBB304:
 1478              	.LBB300:
 1479              	.LBI300:
 1480              		.loc 5 544 57 view .LVU461
 1481              	.LBB301:
 1482              		.loc 5 546 3 view .LVU462
ARM GAS  C:\Users\USER\AppData\Local\Temp\ccp9XlzO.s 			page 27


 1483 0024 0023     		movs	r3, #0
 1484              		.syntax unified
 1485              	@ 546 "src/ChibiOS_3.0.2/os/ext/CMSIS/include/core_cmFunc.h" 1
 1486 0026 83F31188 		MSR basepri, r3
 1487              	@ 0 "" 2
 1488              	.LVL88:
 1489              		.loc 5 546 3 is_stmt 0 view .LVU463
 1490              		.thumb
 1491              		.syntax unified
 1492              	.LBE301:
 1493              	.LBE300:
 1494              	.LBE304:
 1495              	.LBE307:
 1496              	.LBE310:
 1497              		.loc 1 406 3 is_stmt 1 view .LVU464
 1498              		.loc 1 407 1 is_stmt 0 view .LVU465
 1499 002a 38BD     		pop	{r3, r4, r5, pc}
 1500              	.LVL89:
 1501              	.L74:
 1502              	.LBB311:
 1503              		.loc 1 394 5 is_stmt 1 view .LVU466
 1504              		.loc 1 394 15 is_stmt 0 view .LVU467
 1505 002c 0C4A     		ldr	r2, .L75
 1506              	.LBB312:
 1507              	.LBB313:
 1508              		.loc 2 666 19 view .LVU468
 1509 002e 6368     		ldr	r3, [r4, #4]
 1510              	.LBE313:
 1511              	.LBE312:
 1512              		.loc 1 394 15 view .LVU469
 1513 0030 9569     		ldr	r5, [r2, #24]
 1514              	.LVL90:
 1515              		.loc 1 395 5 is_stmt 1 view .LVU470
 1516              	.LBB316:
 1517              	.LBI312:
 1518              		.loc 2 663 20 view .LVU471
 1519              	.LBB314:
 1520              		.loc 2 665 3 view .LVU472
 1521              	.LBE314:
 1522              	.LBE316:
 1523              		.loc 1 397 5 is_stmt 0 view .LVU473
 1524 0032 0520     		movs	r0, #5
 1525              	.LBB317:
 1526              	.LBB315:
 1527              		.loc 2 666 14 view .LVU474
 1528 0034 C5E90043 		strd	r4, r3, [r5]
 1529              		.loc 2 667 3 is_stmt 1 view .LVU475
 1530              		.loc 2 667 22 is_stmt 0 view .LVU476
 1531 0038 1D60     		str	r5, [r3]
 1532              		.loc 2 668 3 is_stmt 1 view .LVU477
 1533              		.loc 2 668 15 is_stmt 0 view .LVU478
 1534 003a 6560     		str	r5, [r4, #4]
 1535              	.LVL91:
 1536              		.loc 2 668 15 view .LVU479
 1537              	.LBE315:
 1538              	.LBE317:
 1539              		.loc 1 396 5 is_stmt 1 view .LVU480
ARM GAS  C:\Users\USER\AppData\Local\Temp\ccp9XlzO.s 			page 28


 1540              		.loc 1 396 21 is_stmt 0 view .LVU481
 1541 003c 6C62     		str	r4, [r5, #36]
 1542              		.loc 1 397 5 is_stmt 1 view .LVU482
 1543 003e FFF7FEFF 		bl	chSchGoSleepS
 1544              	.LVL92:
 1545              		.loc 1 398 5 view .LVU483
 1546              		.loc 1 398 9 is_stmt 0 view .LVU484
 1547 0042 686A     		ldr	r0, [r5, #36]
 1548              	.LVL93:
 1549              		.loc 1 398 9 view .LVU485
 1550              	.LBE311:
 1551              		.loc 1 404 3 is_stmt 1 view .LVU486
 1552              	.LBB318:
 1553              		.loc 3 358 20 view .LVU487
 1554              	.LBB308:
 1555              		.loc 3 360 22 view .LVU488
 1556              		.loc 3 361 33 view .LVU489
 1557              		.loc 3 367 3 view .LVU490
 1558              		.loc 3 367 3 view .LVU491
 1559              		.loc 3 371 3 view .LVU492
 1560              	.LBB305:
 1561              		.loc 4 458 20 view .LVU493
 1562              	.LBE305:
 1563              	.LBE308:
 1564              	.LBE318:
 1565              		.loc 4 461 3 view .LVU494
 1566              	.LBB319:
 1567              	.LBB309:
 1568              	.LBB306:
 1569              	.LBB303:
 1570              		.loc 5 544 57 view .LVU495
 1571              	.LBB302:
 1572              		.loc 5 546 3 view .LVU496
 1573 0044 0023     		movs	r3, #0
 1574              		.syntax unified
 1575              	@ 546 "src/ChibiOS_3.0.2/os/ext/CMSIS/include/core_cmFunc.h" 1
 1576 0046 83F31188 		MSR basepri, r3
 1577              	@ 0 "" 2
 1578              	.LVL94:
 1579              		.loc 5 546 3 is_stmt 0 view .LVU497
 1580              		.thumb
 1581              		.syntax unified
 1582              	.LBE302:
 1583              	.LBE303:
 1584              	.LBE306:
 1585              	.LBE309:
 1586              	.LBE319:
 1587              		.loc 1 406 3 is_stmt 1 view .LVU498
 1588              		.loc 1 407 1 is_stmt 0 view .LVU499
 1589 004a 38BD     		pop	{r3, r4, r5, pc}
 1590              	.LVL95:
 1591              	.L73:
 1592              		.loc 1 407 1 view .LVU500
 1593 004c 0246     		mov	r2, r0
 1594              		.loc 1 391 5 is_stmt 1 view .LVU501
 1595              	.LVL96:
 1596              	.LBB320:
ARM GAS  C:\Users\USER\AppData\Local\Temp\ccp9XlzO.s 			page 29


 1597              	.LBI320:
 1598              		.loc 2 671 25 view .LVU502
 1599              	.LBB321:
 1600              		.loc 2 672 3 view .LVU503
 1601              		.loc 2 672 13 is_stmt 0 view .LVU504
 1602 004e 0068     		ldr	r0, [r0]
 1603              	.LVL97:
 1604              		.loc 2 674 3 is_stmt 1 view .LVU505
 1605              		.loc 2 674 19 is_stmt 0 view .LVU506
 1606 0050 0368     		ldr	r3, [r0]
 1607              		.loc 2 674 15 view .LVU507
 1608 0052 1360     		str	r3, [r2]
 1609              		.loc 2 675 3 is_stmt 1 view .LVU508
 1610              		.loc 2 675 23 is_stmt 0 view .LVU509
 1611 0054 5A60     		str	r2, [r3, #4]
 1612              		.loc 2 677 3 is_stmt 1 view .LVU510
 1613              	.LVL98:
 1614              		.loc 2 677 3 is_stmt 0 view .LVU511
 1615              	.LBE321:
 1616              	.LBE320:
 1617              		.loc 1 391 5 view .LVU512
 1618 0056 FFF7FEFF 		bl	chSchReadyI
 1619              	.LVL99:
 1620              		.loc 1 391 63 view .LVU513
 1621 005a 0023     		movs	r3, #0
 1622 005c 4362     		str	r3, [r0, #36]
 1623 005e D9E7     		b	.L69
 1624              	.L76:
 1625              		.align	2
 1626              	.L75:
 1627 0060 00000000 		.word	ch
 1628              		.cfi_endproc
 1629              	.LFE229:
 1630              		.size	chSemSignalWait, .-chSemSignalWait
 1631              		.text
 1632              	.Letext0:
 1633              		.file 6 "c:\\program files (x86)\\gnu tools arm embedded\\8 2018-q4-major\\arm-none-eabi\\include\
 1634              		.file 7 "c:\\program files (x86)\\gnu tools arm embedded\\8 2018-q4-major\\arm-none-eabi\\include\
 1635              		.file 8 "src/ChibiOS_3.0.2/os/rt/ports/ARMCMx/compilers/GCC/chtypes.h"
 1636              		.file 9 "src/ChibiOS_3.0.2/os/rt/include/chsystypes.h"
 1637              		.file 10 "src/ChibiOS_3.0.2/os/ext/CMSIS/include/core_cm4.h"
 1638              		.file 11 "src/ChibiOS_3.0.2/os/ext/CMSIS/ST/system_stm32f4xx.h"
 1639              		.file 12 "src/ChibiOS_3.0.2/os/rt/ports/ARMCMx/chcore.h"
 1640              		.file 13 "src/ChibiOS_3.0.2/os/rt/include/chtm.h"
 1641              		.file 14 "src/ChibiOS_3.0.2/os/rt/include/chsem.h"
 1642              		.file 15 "src/ChibiOS_3.0.2/os/rt/include/chmtx.h"
 1643              		.file 16 "src/ChibiOS_3.0.2/os/rt/include/chregistry.h"