ARM GAS  C:\Users\USER\AppData\Local\Temp\ccSZzxf3.s 			page 1


   1              		.cpu cortex-m4
   2              		.eabi_attribute 27, 1
   3              		.eabi_attribute 28, 1
   4              		.eabi_attribute 20, 1
   5              		.eabi_attribute 21, 1
   6              		.eabi_attribute 23, 3
   7              		.eabi_attribute 24, 1
   8              		.eabi_attribute 25, 1
   9              		.eabi_attribute 26, 1
  10              		.eabi_attribute 30, 2
  11              		.eabi_attribute 34, 1
  12              		.eabi_attribute 18, 4
  13              		.file	"chsys.c"
  14              		.text
  15              	.Ltext0:
  16              		.cfi_sections	.debug_frame
  17              		.section	.text._idle_thread,"ax",%progbits
  18              		.align	1
  19              		.p2align 4,,15
  20              		.arch armv7e-m
  21              		.syntax unified
  22              		.thumb
  23              		.thumb_func
  24              		.fpu fpv4-sp-d16
  25              		.type	_idle_thread, %function
  26              	_idle_thread:
  27              	.LFB219:
  28              		.file 1 "src/ChibiOS_3.0.2/os/rt/src/chsys.c"
  29              		.loc 1 65 35 view -0
  30              		.cfi_startproc
  31              		@ Volatile: function does not return.
  32              		@ args = 0, pretend = 0, frame = 0
  33              		@ frame_needed = 0, uses_anonymous_args = 0
  34              		@ link register save eliminated.
  35              	.LVL0:
  36              	.L2:
  37              		.loc 1 67 3 discriminator 1 view .LVU1
  38              		.loc 1 69 3 discriminator 1 view .LVU2
  39              		.loc 1 72 5 discriminator 1 view .LVU3
  40              		.file 2 "src/ChibiOS_3.0.2/os/rt/ports/ARMCMx/chcore_v7m.h"
  41              		.loc 2 539 1 discriminator 1 view .LVU4
  42 0000 FEE7     		b	.L2
  43              		.cfi_endproc
  44              	.LFE219:
  45              		.size	_idle_thread, .-_idle_thread
  46 0002 00BF     		.section	.text.chSysInit,"ax",%progbits
  47              		.align	1
  48              		.p2align 4,,15
  49              		.global	chSysInit
  50              		.syntax unified
  51              		.thumb
  52              		.thumb_func
  53              		.fpu fpv4-sp-d16
  54              		.type	chSysInit, %function
  55              	chSysInit:
  56              	.LFB220:
  57              		.loc 1 93 22 view -0
ARM GAS  C:\Users\USER\AppData\Local\Temp\ccSZzxf3.s 			page 2


  58              		.cfi_startproc
  59              		@ args = 0, pretend = 0, frame = 0
  60              		@ frame_needed = 0, uses_anonymous_args = 0
  61              		.loc 1 98 3 view .LVU6
  62              	.LBB137:
  63              	.LBI137:
  64              		.loc 2 374 20 view .LVU7
  65              	.LBB138:
  66              		.loc 2 377 3 view .LVU8
  67              		.loc 2 377 13 is_stmt 0 view .LVU9
  68 0000 204B     		ldr	r3, .L6
  69              	.LBB139:
  70              	.LBB140:
  71              		.file 3 "src/ChibiOS_3.0.2/os/ext/CMSIS/include/core_cm4.h"
  72              		.loc 3 1442 14 view .LVU10
  73 0002 214A     		ldr	r2, .L6+4
  74              	.LBE140:
  75              	.LBE139:
  76              		.loc 2 383 20 view .LVU11
  77 0004 2148     		ldr	r0, .L6+8
  78              	.LBE138:
  79              	.LBE137:
  80              		.loc 1 93 22 view .LVU12
  81 0006 30B5     		push	{r4, r5, lr}
  82              		.cfi_def_cfa_offset 12
  83              		.cfi_offset 4, -12
  84              		.cfi_offset 5, -8
  85              		.cfi_offset 14, -4
  86              	.LBB154:
  87              	.LBB151:
  88              		.loc 2 377 13 view .LVU13
  89 0008 0024     		movs	r4, #0
  90 000a 9C60     		str	r4, [r3, #8]
  91              		.loc 2 380 3 is_stmt 1 view .LVU14
  92              	.LVL1:
  93              	.LBB142:
  94              	.LBI139:
  95              		.loc 3 1435 22 view .LVU15
  96              	.LBB141:
  97              		.loc 3 1437 3 view .LVU16
  98              		.loc 3 1438 3 view .LVU17
  99              		.loc 3 1440 3 view .LVU18
 100              		.loc 3 1440 14 is_stmt 0 view .LVU19
 101 000c D968     		ldr	r1, [r3, #12]
 102              	.LVL2:
 103              		.loc 3 1441 3 is_stmt 1 view .LVU20
 104              		.loc 3 1441 13 is_stmt 0 view .LVU21
 105 000e 4FF6FF05 		movw	r5, #63743
 106 0012 2940     		ands	r1, r1, r5
 107              	.LVL3:
 108              		.loc 3 1442 3 is_stmt 1 view .LVU22
 109              		.loc 3 1442 14 is_stmt 0 view .LVU23
 110 0014 0A43     		orrs	r2, r2, r1
 111              	.LVL4:
 112              		.loc 3 1445 3 is_stmt 1 view .LVU24
 113              		.loc 3 1445 14 is_stmt 0 view .LVU25
 114 0016 DA60     		str	r2, [r3, #12]
ARM GAS  C:\Users\USER\AppData\Local\Temp\ccSZzxf3.s 			page 3


 115              	.LVL5:
 116              		.loc 3 1445 14 view .LVU26
 117              	.LBE141:
 118              	.LBE142:
 119              		.loc 2 383 3 is_stmt 1 view .LVU27
 120              		.loc 2 383 20 is_stmt 0 view .LVU28
 121 0018 C268     		ldr	r2, [r0, #12]
 122              		.loc 2 384 13 view .LVU29
 123 001a 1D49     		ldr	r1, .L6+12
 124              	.LBE151:
 125              	.LBE154:
 126              		.loc 1 119 3 view .LVU30
 127 001c 1D4D     		ldr	r5, .L6+16
 128              	.LBB155:
 129              	.LBB152:
 130              		.loc 2 383 20 view .LVU31
 131 001e 42F08072 		orr	r2, r2, #16777216
 132 0022 C260     		str	r2, [r0, #12]
 133              		.loc 2 384 3 is_stmt 1 view .LVU32
 134              		.loc 2 384 13 is_stmt 0 view .LVU33
 135 0024 0A68     		ldr	r2, [r1]
 136 0026 42F00102 		orr	r2, r2, #1
 137 002a 0A60     		str	r2, [r1]
 138              		.loc 2 388 3 is_stmt 1 view .LVU34
 139              	.LVL6:
 140              	.LBB143:
 141              	.LBI143:
 142              		.loc 3 1550 22 view .LVU35
 143              	.LBB144:
 144              		.loc 3 1552 3 view .LVU36
 145              		.loc 3 1553 5 view .LVU37
 146              		.loc 3 1553 42 is_stmt 0 view .LVU38
 147 002c 1020     		movs	r0, #16
 148              	.LBE144:
 149              	.LBE143:
 150              	.LBB146:
 151              	.LBB147:
 152 002e 2022     		movs	r2, #32
 153              	.LBE147:
 154              	.LBE146:
 155              	.LBE152:
 156              	.LBE155:
 157              		.loc 1 93 22 view .LVU39
 158 0030 83B0     		sub	sp, sp, #12
 159              		.cfi_def_cfa_offset 24
 160              	.LBB156:
 161              	.LBB153:
 162              	.LBB149:
 163              	.LBB145:
 164              		.loc 3 1553 42 view .LVU40
 165 0032 D877     		strb	r0, [r3, #31]
 166              	.LVL7:
 167              		.loc 3 1553 42 view .LVU41
 168              	.LBE145:
 169              	.LBE149:
 170              		.loc 2 390 3 is_stmt 1 view .LVU42
 171              	.LBB150:
ARM GAS  C:\Users\USER\AppData\Local\Temp\ccSZzxf3.s 			page 4


 172              	.LBI146:
 173              		.loc 3 1550 22 view .LVU43
 174              	.LBB148:
 175              		.loc 3 1552 3 view .LVU44
 176              		.loc 3 1553 5 view .LVU45
 177              		.loc 3 1553 42 is_stmt 0 view .LVU46
 178 0034 83F82220 		strb	r2, [r3, #34]
 179              	.LVL8:
 180              		.loc 3 1553 42 view .LVU47
 181              	.LBE148:
 182              	.LBE150:
 183              	.LBE153:
 184              	.LBE156:
 185              		.loc 1 99 3 is_stmt 1 view .LVU48
 186 0038 FFF7FEFF 		bl	_scheduler_init
 187              	.LVL9:
 188              		.loc 1 100 3 view .LVU49
 189 003c FFF7FEFF 		bl	_vt_init
 190              	.LVL10:
 191              		.loc 1 102 3 view .LVU50
 192 0040 FFF7FEFF 		bl	_tm_init
 193              	.LVL11:
 194              		.loc 1 105 3 view .LVU51
 195 0044 FFF7FEFF 		bl	_core_init
 196              	.LVL12:
 197              		.loc 1 108 3 view .LVU52
 198 0048 FFF7FEFF 		bl	_heap_init
 199              	.LVL13:
 200              		.loc 1 119 3 view .LVU53
 201 004c 2846     		mov	r0, r5
 202 004e 4021     		movs	r1, #64
 203 0050 FFF7FEFF 		bl	_thread_init
 204              	.LVL14:
 205 0054 A5F13003 		sub	r3, r5, #48
 206              		.loc 1 125 18 is_stmt 0 view .LVU54
 207 0058 0122     		movs	r2, #1
 208              		.loc 1 119 3 view .LVU55
 209 005a 9861     		str	r0, [r3, #24]
 210              		.loc 1 125 3 is_stmt 1 view .LVU56
 211              		.loc 1 125 18 is_stmt 0 view .LVU57
 212 005c 0277     		strb	r2, [r0, #28]
 213              		.loc 1 131 3 is_stmt 1 view .LVU58
 214              	.LBB157:
 215              	.LBI157:
 216              		.file 4 "src/ChibiOS_3.0.2/os/rt/include/chsys.h"
 217              		.loc 4 335 20 view .LVU59
 218              	.LBE157:
 219              		.loc 4 337 22 view .LVU60
 220              		.loc 4 338 3 view .LVU61
 221              	.LBB165:
 222              	.LBB158:
 223              	.LBI158:
 224              		.loc 2 518 20 view .LVU62
 225              	.LBE158:
 226              	.LBE165:
 227              		.loc 2 521 3 view .LVU63
 228              	.LVL15:
ARM GAS  C:\Users\USER\AppData\Local\Temp\ccSZzxf3.s 			page 5


 229              	.LBB166:
 230              	.LBB163:
 231              	.LBB159:
 232              	.LBI159:
 233              		.file 5 "src/ChibiOS_3.0.2/os/ext/CMSIS/include/core_cmFunc.h"
 234              		.loc 5 544 57 view .LVU64
 235              	.LBB160:
 236              		.loc 5 546 3 view .LVU65
 237              		.syntax unified
 238              	@ 546 "src/ChibiOS_3.0.2/os/ext/CMSIS/include/core_cmFunc.h" 1
 239 005e 84F31188 		MSR basepri, r4
 240              	@ 0 "" 2
 241              	.LVL16:
 242              		.loc 5 546 3 is_stmt 0 view .LVU66
 243              		.thumb
 244              		.syntax unified
 245              	.LBE160:
 246              	.LBE159:
 247              	.LBE163:
 248              	.LBE166:
 249              		.loc 2 523 3 is_stmt 1 view .LVU67
 250              	.LBB167:
 251              	.LBB164:
 252              	.LBB161:
 253              	.LBI161:
 254              		.loc 5 329 57 view .LVU68
 255              	.LBB162:
 256              		.loc 5 331 3 view .LVU69
 257              		.syntax unified
 258              	@ 331 "src/ChibiOS_3.0.2/os/ext/CMSIS/include/core_cmFunc.h" 1
 259 0062 62B6     		cpsie i
 260              	@ 0 "" 2
 261              		.thumb
 262              		.syntax unified
 263              	.LBE162:
 264              	.LBE161:
 265              	.LBE164:
 266              	.LBE167:
 267              		.loc 1 136 3 view .LVU70
 268              	.LVL17:
 269              	.LBB168:
 270              	.LBI168:
 271              		.file 6 "src/ChibiOS_3.0.2/os/rt/include/chregistry.h"
 272              		.loc 6 132 20 view .LVU71
 273              	.LBB169:
 274              		.loc 6 135 3 view .LVU72
 275              		.loc 6 135 30 is_stmt 0 view .LVU73
 276 0064 9B69     		ldr	r3, [r3, #24]
 277 0066 0C49     		ldr	r1, .L6+20
 278 0068 9961     		str	r1, [r3, #24]
 279              	.LVL18:
 280              		.loc 6 135 30 view .LVU74
 281              	.LBE169:
 282              	.LBE168:
 283              	.LBB170:
 284              		.loc 1 144 5 is_stmt 1 view .LVU75
 285              		.loc 1 144 21 is_stmt 0 view .LVU76
ARM GAS  C:\Users\USER\AppData\Local\Temp\ccSZzxf3.s 			page 6


 286 006a 05F15000 		add	r0, r5, #80
 287 006e 0094     		str	r4, [sp]
 288 0070 0A4B     		ldr	r3, .L6+24
 289 0072 4FF4EC71 		mov	r1, #472
 290 0076 FFF7FEFF 		bl	chThdCreateStatic
 291              	.LVL19:
 292              		.loc 1 149 5 is_stmt 1 view .LVU77
 293              	.LBB171:
 294              	.LBI171:
 295              		.loc 6 172 20 view .LVU78
 296              	.LBB172:
 297              		.loc 6 175 3 view .LVU79
 298              		.loc 6 175 14 is_stmt 0 view .LVU80
 299 007a 094B     		ldr	r3, .L6+28
 300 007c 8361     		str	r3, [r0, #24]
 301              	.LVL20:
 302              		.loc 6 175 14 view .LVU81
 303              	.LBE172:
 304              	.LBE171:
 305              	.LBE170:
 306              		.loc 1 152 1 view .LVU82
 307 007e 03B0     		add	sp, sp, #12
 308              		.cfi_def_cfa_offset 12
 309              		@ sp needed
 310 0080 30BD     		pop	{r4, r5, pc}
 311              	.L7:
 312 0082 00BF     		.align	2
 313              	.L6:
 314 0084 00ED00E0 		.word	-536810240
 315 0088 0003FA05 		.word	100270848
 316 008c F0ED00E0 		.word	-536810000
 317 0090 001000E0 		.word	-536866816
 318 0094 30000000 		.word	ch+48
 319 0098 00000000 		.word	ch_debug
 320 009c 00000000 		.word	_idle_thread
 321 00a0 00000000 		.word	.LC0
 322              		.cfi_endproc
 323              	.LFE220:
 324              		.size	chSysInit, .-chSysInit
 325              		.section	.text.chSysHalt,"ax",%progbits
 326              		.align	1
 327              		.p2align 4,,15
 328              		.global	chSysHalt
 329              		.syntax unified
 330              		.thumb
 331              		.thumb_func
 332              		.fpu fpv4-sp-d16
 333              		.type	chSysHalt, %function
 334              	chSysHalt:
 335              	.LVL21:
 336              	.LFB221:
 337              		.loc 1 166 36 is_stmt 1 view -0
 338              		.cfi_startproc
 339              		@ Volatile: function does not return.
 340              		@ args = 0, pretend = 0, frame = 0
 341              		@ frame_needed = 0, uses_anonymous_args = 0
 342              		@ link register save eliminated.
ARM GAS  C:\Users\USER\AppData\Local\Temp\ccSZzxf3.s 			page 7


 343              		.loc 1 168 3 view .LVU84
 344              	.LBB173:
 345              	.LBI173:
 346              		.loc 2 494 20 view .LVU85
 347              	.LBE173:
 348              		.loc 2 496 3 view .LVU86
 349              	.LBB176:
 350              	.LBB174:
 351              	.LBI174:
 352              		.loc 5 340 57 view .LVU87
 353              	.LBB175:
 354              		.loc 5 342 3 view .LVU88
 355              		.syntax unified
 356              	@ 342 "src/ChibiOS_3.0.2/os/ext/CMSIS/include/core_cmFunc.h" 1
 357 0000 72B6     		cpsid i
 358              	@ 0 "" 2
 359              		.thumb
 360              		.syntax unified
 361              	.LBE175:
 362              	.LBE174:
 363              	.LBE176:
 364              		.loc 1 171 3 view .LVU89
 365              		.loc 1 171 34 view .LVU90
 366              		.loc 1 175 3 view .LVU91
 367              		.loc 1 175 20 is_stmt 0 view .LVU92
 368 0002 014B     		ldr	r3, .L10
 369 0004 D862     		str	r0, [r3, #44]
 370              	.L9:
 371              		.loc 1 178 3 is_stmt 1 discriminator 1 view .LVU93
 372              		.loc 1 179 3 discriminator 1 view .LVU94
 373              		.loc 1 178 3 discriminator 1 view .LVU95
 374              		.loc 1 179 3 discriminator 1 view .LVU96
 375 0006 FEE7     		b	.L9
 376              	.L11:
 377              		.align	2
 378              	.L10:
 379 0008 00000000 		.word	ch
 380              		.cfi_endproc
 381              	.LFE221:
 382              		.size	chSysHalt, .-chSysHalt
 383              		.section	.text.chSysIntegrityCheckI,"ax",%progbits
 384              		.align	1
 385              		.p2align 4,,15
 386              		.global	chSysIntegrityCheckI
 387              		.syntax unified
 388              		.thumb
 389              		.thumb_func
 390              		.fpu fpv4-sp-d16
 391              		.type	chSysIntegrityCheckI, %function
 392              	chSysIntegrityCheckI:
 393              	.LVL22:
 394              	.LFB222:
 395              		.loc 1 206 46 view -0
 396              		.cfi_startproc
 397              		@ args = 0, pretend = 0, frame = 0
 398              		@ frame_needed = 0, uses_anonymous_args = 0
 399              		@ link register save eliminated.
ARM GAS  C:\Users\USER\AppData\Local\Temp\ccSZzxf3.s 			page 8


 400              		.loc 1 207 3 view .LVU98
 401              		.loc 1 209 21 view .LVU99
 402              		.loc 1 212 3 view .LVU100
 403              		.loc 1 212 6 is_stmt 0 view .LVU101
 404 0000 C207     		lsls	r2, r0, #31
 405              		.loc 1 206 46 view .LVU102
 406 0002 10B4     		push	{r4}
 407              		.cfi_def_cfa_offset 4
 408              		.cfi_offset 4, -4
 409              		.loc 1 212 6 view .LVU103
 410 0004 12D5     		bpl	.L13
 411              	.LBB177:
 412              		.loc 1 213 5 is_stmt 1 view .LVU104
 413              		.loc 1 216 5 view .LVU105
 414              	.LVL23:
 415              		.loc 1 217 5 view .LVU106
 416              		.loc 1 217 8 is_stmt 0 view .LVU107
 417 0006 294B     		ldr	r3, .L53
 418 0008 D3E90014 		ldrd	r1, r4, [r3]
 419              		.loc 1 218 11 view .LVU108
 420 000c 9942     		cmp	r1, r3
 421 000e 43D0     		beq	.L14
 422              		.loc 1 216 7 view .LVU109
 423 0010 0022     		movs	r2, #0
 424              	.LVL24:
 425              	.L15:
 426              		.loc 1 219 7 is_stmt 1 view .LVU110
 427              		.loc 1 220 10 is_stmt 0 view .LVU111
 428 0012 0968     		ldr	r1, [r1]
 429              	.LVL25:
 430              		.loc 1 218 11 view .LVU112
 431 0014 9942     		cmp	r1, r3
 432              		.loc 1 219 8 view .LVU113
 433 0016 02F10102 		add	r2, r2, #1
 434              	.LVL26:
 435              		.loc 1 220 7 is_stmt 1 view .LVU114
 436              		.loc 1 218 11 is_stmt 0 view .LVU115
 437 001a FAD1     		bne	.L15
 438              		.loc 1 224 5 is_stmt 1 view .LVU116
 439              	.LVL27:
 440              		.loc 1 225 5 view .LVU117
 441              		.loc 1 225 11 is_stmt 0 view .LVU118
 442 001c 8C42     		cmp	r4, r1
 443 001e 37D0     		beq	.L35
 444              	.LVL28:
 445              	.L19:
 446              		.loc 1 226 7 is_stmt 1 view .LVU119
 447              		.loc 1 227 10 is_stmt 0 view .LVU120
 448 0020 6468     		ldr	r4, [r4, #4]
 449              	.LVL29:
 450              		.loc 1 225 11 view .LVU121
 451 0022 9C42     		cmp	r4, r3
 452              		.loc 1 226 8 view .LVU122
 453 0024 02F1FF32 		add	r2, r2, #-1
 454              	.LVL30:
 455              		.loc 1 227 7 is_stmt 1 view .LVU123
 456              		.loc 1 225 11 is_stmt 0 view .LVU124
ARM GAS  C:\Users\USER\AppData\Local\Temp\ccSZzxf3.s 			page 9


 457 0028 FAD1     		bne	.L19
 458              		.loc 1 231 5 is_stmt 1 view .LVU125
 459              		.loc 1 231 8 is_stmt 0 view .LVU126
 460 002a 8ABB     		cbnz	r2, .L35
 461              	.LVL31:
 462              	.L13:
 463              		.loc 1 231 8 view .LVU127
 464              	.LBE177:
 465              		.loc 1 237 3 is_stmt 1 view .LVU128
 466              		.loc 1 237 6 is_stmt 0 view .LVU129
 467 002c 8307     		lsls	r3, r0, #30
 468 002e 13D5     		bpl	.L20
 469              	.LBB178:
 470              		.loc 1 238 5 is_stmt 1 view .LVU130
 471              		.loc 1 241 5 view .LVU131
 472              	.LVL32:
 473              		.loc 1 242 5 view .LVU132
 474              		.loc 1 242 9 is_stmt 0 view .LVU133
 475 0030 1E4C     		ldr	r4, .L53
 476 0032 D4E90721 		ldrd	r2, r1, [r4, #28]
 477              		.loc 1 243 11 view .LVU134
 478 0036 1C34     		adds	r4, r4, #28
 479 0038 A242     		cmp	r2, r4
 480 003a 32D0     		beq	.L21
 481              		.loc 1 241 7 view .LVU135
 482 003c 0023     		movs	r3, #0
 483              	.LVL33:
 484              	.L22:
 485              		.loc 1 244 7 is_stmt 1 view .LVU136
 486              		.loc 1 245 11 is_stmt 0 view .LVU137
 487 003e 1268     		ldr	r2, [r2]
 488              	.LVL34:
 489              		.loc 1 243 11 view .LVU138
 490 0040 A242     		cmp	r2, r4
 491              		.loc 1 244 8 view .LVU139
 492 0042 03F10103 		add	r3, r3, #1
 493              	.LVL35:
 494              		.loc 1 245 7 is_stmt 1 view .LVU140
 495              		.loc 1 243 11 is_stmt 0 view .LVU141
 496 0046 FAD1     		bne	.L22
 497              		.loc 1 249 5 is_stmt 1 view .LVU142
 498              	.LVL36:
 499              		.loc 1 250 5 view .LVU143
 500              		.loc 1 250 11 is_stmt 0 view .LVU144
 501 0048 9142     		cmp	r1, r2
 502 004a 21D0     		beq	.L35
 503              	.LVL37:
 504              	.L25:
 505              		.loc 1 251 7 is_stmt 1 view .LVU145
 506              		.loc 1 252 11 is_stmt 0 view .LVU146
 507 004c 4968     		ldr	r1, [r1, #4]
 508              	.LVL38:
 509              		.loc 1 250 11 view .LVU147
 510 004e A142     		cmp	r1, r4
 511              		.loc 1 251 8 view .LVU148
 512 0050 03F1FF33 		add	r3, r3, #-1
 513              	.LVL39:
ARM GAS  C:\Users\USER\AppData\Local\Temp\ccSZzxf3.s 			page 10


 514              		.loc 1 252 7 is_stmt 1 view .LVU149
 515              		.loc 1 250 11 is_stmt 0 view .LVU150
 516 0054 FAD1     		bne	.L25
 517              		.loc 1 256 5 is_stmt 1 view .LVU151
 518              		.loc 1 256 8 is_stmt 0 view .LVU152
 519 0056 DBB9     		cbnz	r3, .L35
 520              	.LVL40:
 521              	.L20:
 522              		.loc 1 256 8 view .LVU153
 523              	.LBE178:
 524              		.loc 1 262 3 is_stmt 1 view .LVU154
 525              		.loc 1 262 6 is_stmt 0 view .LVU155
 526 0058 10F00400 		ands	r0, r0, #4
 527              	.LVL41:
 528              		.loc 1 262 6 view .LVU156
 529 005c 15D0     		beq	.L18
 530              	.LBB179:
 531              		.loc 1 263 5 is_stmt 1 view .LVU157
 532              		.loc 1 266 5 view .LVU158
 533              	.LVL42:
 534              		.loc 1 267 5 view .LVU159
 535              		.loc 1 267 8 is_stmt 0 view .LVU160
 536 005e 134B     		ldr	r3, .L53
 537 0060 1A69     		ldr	r2, [r3, #16]
 538              	.LVL43:
 539              		.loc 1 268 5 is_stmt 1 view .LVU161
 540              		.loc 1 268 11 is_stmt 0 view .LVU162
 541 0062 9A42     		cmp	r2, r3
 542              		.loc 1 266 7 view .LVU163
 543 0064 4FF00000 		mov	r0, #0
 544              		.loc 1 268 11 view .LVU164
 545 0068 04D0     		beq	.L26
 546              	.LVL44:
 547              	.L27:
 548              		.loc 1 269 7 is_stmt 1 view .LVU165
 549              		.loc 1 270 10 is_stmt 0 view .LVU166
 550 006a 1269     		ldr	r2, [r2, #16]
 551              	.LVL45:
 552              		.loc 1 268 11 view .LVU167
 553 006c 9A42     		cmp	r2, r3
 554              		.loc 1 269 8 view .LVU168
 555 006e 00F10100 		add	r0, r0, #1
 556              	.LVL46:
 557              		.loc 1 270 7 is_stmt 1 view .LVU169
 558              		.loc 1 268 11 is_stmt 0 view .LVU170
 559 0072 FAD1     		bne	.L27
 560              	.LVL47:
 561              	.L26:
 562              		.loc 1 274 5 is_stmt 1 view .LVU171
 563              		.loc 1 274 8 is_stmt 0 view .LVU172
 564 0074 5A69     		ldr	r2, [r3, #20]
 565              	.LVL48:
 566              		.loc 1 275 5 is_stmt 1 view .LVU173
 567              		.loc 1 275 11 is_stmt 0 view .LVU174
 568 0076 9A42     		cmp	r2, r3
 569 0078 04D0     		beq	.L28
 570              	.L29:
ARM GAS  C:\Users\USER\AppData\Local\Temp\ccSZzxf3.s 			page 11


 571              		.loc 1 276 7 is_stmt 1 view .LVU175
 572              		.loc 1 277 10 is_stmt 0 view .LVU176
 573 007a 5269     		ldr	r2, [r2, #20]
 574              	.LVL49:
 575              		.loc 1 275 11 view .LVU177
 576 007c 9A42     		cmp	r2, r3
 577              		.loc 1 276 8 view .LVU178
 578 007e 00F1FF30 		add	r0, r0, #-1
 579              	.LVL50:
 580              		.loc 1 277 7 is_stmt 1 view .LVU179
 581              		.loc 1 275 11 is_stmt 0 view .LVU180
 582 0082 FAD1     		bne	.L29
 583              	.L28:
 584              		.loc 1 281 5 is_stmt 1 view .LVU181
 585              		.loc 1 281 8 is_stmt 0 view .LVU182
 586 0084 0030     		adds	r0, r0, #0
 587              		.loc 1 281 8 view .LVU183
 588 0086 18BF     		it	ne
 589 0088 0120     		movne	r0, #1
 590              	.LVL51:
 591              	.L18:
 592              		.loc 1 281 8 view .LVU184
 593              	.LBE179:
 594              		.loc 1 294 1 view .LVU185
 595 008a 5DF8044B 		ldr	r4, [sp], #4
 596              		.cfi_remember_state
 597              		.cfi_restore 4
 598              		.cfi_def_cfa_offset 0
 599 008e 7047     		bx	lr
 600              	.LVL52:
 601              	.L35:
 602              		.cfi_restore_state
 603              	.LBB180:
 604              		.loc 1 232 14 view .LVU186
 605 0090 0120     		movs	r0, #1
 606              	.LVL53:
 607              		.loc 1 232 14 view .LVU187
 608              	.LBE180:
 609              		.loc 1 294 1 view .LVU188
 610 0092 5DF8044B 		ldr	r4, [sp], #4
 611              		.cfi_remember_state
 612              		.cfi_restore 4
 613              		.cfi_def_cfa_offset 0
 614 0096 7047     		bx	lr
 615              	.LVL54:
 616              	.L14:
 617              		.cfi_restore_state
 618              	.LBB181:
 619              		.loc 1 224 5 is_stmt 1 view .LVU189
 620              		.loc 1 225 5 view .LVU190
 621              		.loc 1 225 11 is_stmt 0 view .LVU191
 622 0098 9C42     		cmp	r4, r3
 623              		.loc 1 216 7 view .LVU192
 624 009a 18BF     		it	ne
 625 009c 0022     		movne	r2, #0
 626              		.loc 1 225 11 view .LVU193
 627 009e BFD1     		bne	.L19
ARM GAS  C:\Users\USER\AppData\Local\Temp\ccSZzxf3.s 			page 12


 628 00a0 C4E7     		b	.L13
 629              	.LVL55:
 630              	.L21:
 631              		.loc 1 225 11 view .LVU194
 632              	.LBE181:
 633              	.LBB182:
 634              		.loc 1 249 5 is_stmt 1 view .LVU195
 635              		.loc 1 250 5 view .LVU196
 636              		.loc 1 250 11 is_stmt 0 view .LVU197
 637 00a2 A142     		cmp	r1, r4
 638              		.loc 1 241 7 view .LVU198
 639 00a4 18BF     		it	ne
 640 00a6 0023     		movne	r3, #0
 641              		.loc 1 250 11 view .LVU199
 642 00a8 D0D1     		bne	.L25
 643 00aa D5E7     		b	.L20
 644              	.L54:
 645              		.align	2
 646              	.L53:
 647 00ac 00000000 		.word	ch
 648              	.LBE182:
 649              		.cfi_endproc
 650              	.LFE222:
 651              		.size	chSysIntegrityCheckI, .-chSysIntegrityCheckI
 652              		.section	.text.chSysTimerHandlerI,"ax",%progbits
 653              		.align	1
 654              		.p2align 4,,15
 655              		.global	chSysTimerHandlerI
 656              		.syntax unified
 657              		.thumb
 658              		.thumb_func
 659              		.fpu fpv4-sp-d16
 660              		.type	chSysTimerHandlerI, %function
 661              	chSysTimerHandlerI:
 662              	.LFB223:
 663              		.loc 1 307 31 is_stmt 1 view -0
 664              		.cfi_startproc
 665              		@ args = 0, pretend = 0, frame = 0
 666              		@ frame_needed = 0, uses_anonymous_args = 0
 667              		.loc 1 309 21 view .LVU201
 668              		.loc 1 313 3 view .LVU202
 669              		.loc 1 307 31 is_stmt 0 view .LVU203
 670 0000 F8B5     		push	{r3, r4, r5, r6, r7, lr}
 671              		.cfi_def_cfa_offset 24
 672              		.cfi_offset 3, -24
 673              		.cfi_offset 4, -20
 674              		.cfi_offset 5, -16
 675              		.cfi_offset 6, -12
 676              		.cfi_offset 7, -8
 677              		.cfi_offset 14, -4
 678              		.loc 1 313 7 view .LVU204
 679 0002 134C     		ldr	r4, .L65
 680 0004 A269     		ldr	r2, [r4, #24]
 681              		.loc 1 313 12 view .LVU205
 682 0006 D37F     		ldrb	r3, [r2, #31]	@ zero_extendqisi2
 683              		.loc 1 313 6 view .LVU206
 684 0008 0BB1     		cbz	r3, .L56
ARM GAS  C:\Users\USER\AppData\Local\Temp\ccSZzxf3.s 			page 13


 685              		.loc 1 315 5 is_stmt 1 view .LVU207
 686              		.loc 1 315 21 is_stmt 0 view .LVU208
 687 000a 013B     		subs	r3, r3, #1
 688 000c D377     		strb	r3, [r2, #31]
 689              	.L56:
 690              		.loc 1 319 3 is_stmt 1 view .LVU209
 691              		.loc 1 319 8 is_stmt 0 view .LVU210
 692 000e 116A     		ldr	r1, [r2, #32]
 693              	.LBB196:
 694              	.LBB197:
 695              		.file 7 "src/ChibiOS_3.0.2/os/rt/include/chvt.h"
 696              		.loc 7 472 55 view .LVU211
 697 0010 E369     		ldr	r3, [r4, #28]
 698              		.loc 7 472 6 view .LVU212
 699 0012 104E     		ldr	r6, .L65+4
 700              	.LBE197:
 701              	.LBE196:
 702              		.loc 1 319 16 view .LVU213
 703 0014 0131     		adds	r1, r1, #1
 704 0016 1162     		str	r1, [r2, #32]
 705              		.loc 1 321 3 is_stmt 1 view .LVU214
 706              	.LBB240:
 707              	.LBI196:
 708              		.loc 7 466 20 view .LVU215
 709              	.LBB232:
 710              		.loc 7 468 21 view .LVU216
 711              		.loc 7 471 3 view .LVU217
 712              		.loc 7 471 12 is_stmt 0 view .LVU218
 713 0018 A26A     		ldr	r2, [r4, #40]
 714              		.loc 7 472 6 view .LVU219
 715 001a B342     		cmp	r3, r6
 716              		.loc 7 471 23 view .LVU220
 717 001c 02F10102 		add	r2, r2, #1
 718 0020 A262     		str	r2, [r4, #40]
 719              		.loc 7 472 3 is_stmt 1 view .LVU221
 720              		.loc 7 472 6 is_stmt 0 view .LVU222
 721 0022 13D0     		beq	.L55
 722              		.loc 7 474 5 is_stmt 1 view .LVU223
 723 0024 9A68     		ldr	r2, [r3, #8]
 724 0026 551E     		subs	r5, r2, #1
 725 0028 9D60     		str	r5, [r3, #8]
 726              		.loc 7 475 5 view .LVU224
 727              		.loc 7 475 11 is_stmt 0 view .LVU225
 728 002a 7DB9     		cbnz	r5, .L55
 729              	.LBB198:
 730              	.LBB199:
 731              	.LBB200:
 732              	.LBB201:
 733              	.LBB202:
 734              	.LBB203:
 735              		.loc 5 546 3 view .LVU226
 736 002c 2027     		movs	r7, #32
 737              	.L58:
 738              	.LBE203:
 739              	.LBE202:
 740              	.LBE201:
 741              	.LBE200:
ARM GAS  C:\Users\USER\AppData\Local\Temp\ccSZzxf3.s 			page 14


 742              	.LBE199:
 743              		.loc 7 476 7 is_stmt 1 view .LVU227
 744              		.loc 7 477 7 view .LVU228
 745              		.loc 7 479 7 view .LVU229
 746              	.LVL56:
 747              		.loc 7 480 7 view .LVU230
 748              		.loc 7 482 10 is_stmt 0 view .LVU231
 749 002e 1A68     		ldr	r2, [r3]
 750              		.loc 7 480 10 view .LVU232
 751 0030 D968     		ldr	r1, [r3, #12]
 752              	.LVL57:
 753              		.loc 7 481 7 is_stmt 1 view .LVU233
 754              		.loc 7 481 20 is_stmt 0 view .LVU234
 755 0032 DD60     		str	r5, [r3, #12]
 756              		.loc 7 482 7 is_stmt 1 view .LVU235
 757              		.loc 7 482 29 is_stmt 0 view .LVU236
 758 0034 5660     		str	r6, [r2, #4]
 759              		.loc 7 483 7 is_stmt 1 view .LVU237
 760              		.loc 7 483 25 is_stmt 0 view .LVU238
 761 0036 E261     		str	r2, [r4, #28]
 762              		.loc 7 484 7 is_stmt 1 view .LVU239
 763              	.LBB211:
 764              	.LBI211:
 765              		.loc 4 406 20 view .LVU240
 766              	.LBE211:
 767              	.LBE198:
 768              	.LBE232:
 769              	.LBE240:
 770              		.loc 4 408 31 view .LVU241
 771              		.loc 4 409 33 view .LVU242
 772              		.loc 4 410 3 view .LVU243
 773              	.LBB241:
 774              	.LBB233:
 775              	.LBB226:
 776              	.LBB219:
 777              	.LBB212:
 778              	.LBI212:
 779              		.loc 2 484 20 view .LVU244
 780              	.LBE212:
 781              	.LBE219:
 782              	.LBE226:
 783              	.LBE233:
 784              	.LBE241:
 785              		.loc 2 486 3 view .LVU245
 786              	.LBB242:
 787              	.LBB234:
 788              	.LBB227:
 789              	.LBB220:
 790              	.LBB217:
 791              	.LBB213:
 792              	.LBI213:
 793              		.loc 2 458 20 view .LVU246
 794              	.LBE213:
 795              	.LBE217:
 796              	.LBE220:
 797              	.LBE227:
 798              	.LBE234:
ARM GAS  C:\Users\USER\AppData\Local\Temp\ccSZzxf3.s 			page 15


 799              	.LBE242:
 800              		.loc 2 461 3 view .LVU247
 801              	.LVL58:
 802              	.LBB243:
 803              	.LBB235:
 804              	.LBB228:
 805              	.LBB221:
 806              	.LBB218:
 807              	.LBB216:
 808              	.LBB214:
 809              	.LBI214:
 810              		.loc 5 544 57 view .LVU248
 811              	.LBB215:
 812              		.loc 5 546 3 view .LVU249
 813              		.syntax unified
 814              	@ 546 "src/ChibiOS_3.0.2/os/ext/CMSIS/include/core_cmFunc.h" 1
 815 0038 85F31188 		MSR basepri, r5
 816              	@ 0 "" 2
 817              	.LVL59:
 818              		.loc 5 546 3 is_stmt 0 view .LVU250
 819              		.thumb
 820              		.syntax unified
 821              	.LBE215:
 822              	.LBE214:
 823              	.LBE216:
 824              	.LBE218:
 825              	.LBE221:
 826              		.loc 7 485 7 is_stmt 1 view .LVU251
 827 003c 1869     		ldr	r0, [r3, #16]
 828 003e 8847     		blx	r1
 829              	.LVL60:
 830              		.loc 7 486 7 view .LVU252
 831              	.LBB222:
 832              	.LBI199:
 833              		.loc 4 386 20 view .LVU253
 834              	.LBE222:
 835              	.LBE228:
 836              	.LBE235:
 837              	.LBE243:
 838              		.loc 4 388 3 view .LVU254
 839              	.LBB244:
 840              	.LBB236:
 841              	.LBB229:
 842              	.LBB223:
 843              	.LBB208:
 844              	.LBI200:
 845              		.loc 2 473 20 view .LVU255
 846              	.LBE208:
 847              	.LBE223:
 848              	.LBE229:
 849              	.LBE236:
 850              	.LBE244:
 851              		.loc 2 475 3 view .LVU256
 852              	.LBB245:
 853              	.LBB237:
 854              	.LBB230:
 855              	.LBB224:
ARM GAS  C:\Users\USER\AppData\Local\Temp\ccSZzxf3.s 			page 16


 856              	.LBB209:
 857              	.LBB206:
 858              	.LBI201:
 859              		.loc 2 444 20 view .LVU257
 860              	.LBE206:
 861              	.LBE209:
 862              	.LBE224:
 863              	.LBE230:
 864              	.LBE237:
 865              	.LBE245:
 866              		.loc 2 447 3 view .LVU258
 867              	.LBB246:
 868              	.LBB238:
 869              	.LBB231:
 870              	.LBB225:
 871              	.LBB210:
 872              	.LBB207:
 873              	.LBB205:
 874              	.LBI202:
 875              		.loc 5 544 57 view .LVU259
 876              	.LBB204:
 877              		.loc 5 546 3 view .LVU260
 878              		.syntax unified
 879              	@ 546 "src/ChibiOS_3.0.2/os/ext/CMSIS/include/core_cmFunc.h" 1
 880 0040 87F31188 		MSR basepri, r7
 881              	@ 0 "" 2
 882              	.LVL61:
 883              		.loc 5 546 3 is_stmt 0 view .LVU261
 884              		.thumb
 885              		.syntax unified
 886              	.LBE204:
 887              	.LBE205:
 888              	.LBE207:
 889              	.LBE210:
 890              	.LBE225:
 891              	.LBE231:
 892              	.LBE238:
 893              	.LBE246:
 894              		.loc 4 389 34 is_stmt 1 view .LVU262
 895              		.loc 4 390 29 view .LVU263
 896              	.LBB247:
 897              	.LBB239:
 898              		.loc 7 475 21 is_stmt 0 view .LVU264
 899 0044 E369     		ldr	r3, [r4, #28]
 900              		.loc 7 475 11 view .LVU265
 901 0046 9A68     		ldr	r2, [r3, #8]
 902 0048 002A     		cmp	r2, #0
 903 004a F0D0     		beq	.L58
 904              	.L55:
 905              		.loc 7 475 11 view .LVU266
 906              	.LBE239:
 907              	.LBE247:
 908              		.loc 1 325 1 view .LVU267
 909 004c F8BD     		pop	{r3, r4, r5, r6, r7, pc}
 910              	.L66:
 911 004e 00BF     		.align	2
 912              	.L65:
ARM GAS  C:\Users\USER\AppData\Local\Temp\ccSZzxf3.s 			page 17


 913 0050 00000000 		.word	ch
 914 0054 1C000000 		.word	ch+28
 915              		.cfi_endproc
 916              	.LFE223:
 917              		.size	chSysTimerHandlerI, .-chSysTimerHandlerI
 918              		.section	.text.chSysGetStatusAndLockX,"ax",%progbits
 919              		.align	1
 920              		.p2align 4,,15
 921              		.global	chSysGetStatusAndLockX
 922              		.syntax unified
 923              		.thumb
 924              		.thumb_func
 925              		.fpu fpv4-sp-d16
 926              		.type	chSysGetStatusAndLockX, %function
 927              	chSysGetStatusAndLockX:
 928              	.LFB224:
 929              		.loc 1 340 39 is_stmt 1 view -0
 930              		.cfi_startproc
 931              		@ args = 0, pretend = 0, frame = 0
 932              		@ frame_needed = 0, uses_anonymous_args = 0
 933              		@ link register save eliminated.
 934              		.loc 1 342 3 view .LVU269
 935              	.LBB248:
 936              	.LBI248:
 937              		.loc 2 398 24 view .LVU270
 938              	.LBB249:
 939              		.loc 2 399 3 view .LVU271
 940              		.loc 2 402 3 view .LVU272
 941              	.LBB250:
 942              	.LBI250:
 943              		.loc 5 529 61 view .LVU273
 944              	.LBB251:
 945              		.loc 5 531 3 view .LVU274
 946              		.loc 5 533 3 view .LVU275
 947              		.syntax unified
 948              	@ 533 "src/ChibiOS_3.0.2/os/ext/CMSIS/include/core_cmFunc.h" 1
 949 0000 EFF31280 		MRS r0, basepri_max
 950              	@ 0 "" 2
 951              	.LVL62:
 952              		.loc 5 534 3 view .LVU276
 953              		.loc 5 534 3 is_stmt 0 view .LVU277
 954              		.thumb
 955              		.syntax unified
 956              	.LBE251:
 957              	.LBE250:
 958              		.loc 2 406 3 is_stmt 1 view .LVU278
 959              		.loc 2 406 3 is_stmt 0 view .LVU279
 960              	.LBE249:
 961              	.LBE248:
 962              		.loc 1 343 3 is_stmt 1 view .LVU280
 963              		.loc 2 421 3 view .LVU281
 964              		.loc 1 343 6 is_stmt 0 view .LVU282
 965 0004 20B9     		cbnz	r0, .L67
 966              		.loc 1 344 5 is_stmt 1 view .LVU283
 967              	.LBB252:
 968              	.LBI252:
 969              		.loc 2 434 20 view .LVU284
ARM GAS  C:\Users\USER\AppData\Local\Temp\ccSZzxf3.s 			page 18


 970              	.LBB253:
 971              		.loc 2 436 3 view .LVU285
 972              	.LBB254:
 973              	.LBI254:
 974              		.loc 5 379 61 view .LVU286
 975              	.LBB255:
 976              		.loc 5 381 3 view .LVU287
 977              		.loc 5 383 3 view .LVU288
 978              		.syntax unified
 979              	@ 383 "src/ChibiOS_3.0.2/os/ext/CMSIS/include/core_cmFunc.h" 1
 980 0006 EFF30583 		MRS r3, ipsr
 981              	@ 0 "" 2
 982              	.LVL63:
 983              		.loc 5 384 3 view .LVU289
 984              		.loc 5 384 3 is_stmt 0 view .LVU290
 985              		.thumb
 986              		.syntax unified
 987              	.LBE255:
 988              	.LBE254:
 989              	.LBE253:
 990              	.LBE252:
 991              		.loc 1 348 7 is_stmt 1 view .LVU291
 992              	.LBB256:
 993              	.LBI256:
 994              		.loc 4 346 20 view .LVU292
 995              	.LBE256:
 996              		.loc 4 348 3 view .LVU293
 997              	.LBB261:
 998              	.LBB257:
 999              	.LBI257:
 1000              		.loc 2 444 20 view .LVU294
 1001              	.LBE257:
 1002              	.LBE261:
 1003              		.loc 2 447 3 view .LVU295
 1004              	.LBB262:
 1005              	.LBB260:
 1006              	.LBB258:
 1007              	.LBI258:
 1008              		.loc 5 544 57 view .LVU296
 1009              	.LBB259:
 1010              		.loc 5 546 3 view .LVU297
 1011 000a 2023     		movs	r3, #32
 1012              		.syntax unified
 1013              	@ 546 "src/ChibiOS_3.0.2/os/ext/CMSIS/include/core_cmFunc.h" 1
 1014 000c 83F31188 		MSR basepri, r3
 1015              	@ 0 "" 2
 1016              	.LVL64:
 1017              		.loc 5 546 3 is_stmt 0 view .LVU298
 1018              		.thumb
 1019              		.syntax unified
 1020              	.LBE259:
 1021              	.LBE258:
 1022              	.LBE260:
 1023              	.LBE262:
 1024              		.loc 4 349 34 is_stmt 1 view .LVU299
 1025              		.loc 4 350 20 view .LVU300
 1026              		.loc 1 351 3 view .LVU301
ARM GAS  C:\Users\USER\AppData\Local\Temp\ccSZzxf3.s 			page 19


 1027              	.L67:
 1028              		.loc 1 352 1 is_stmt 0 view .LVU302
 1029 0010 7047     		bx	lr
 1030              		.cfi_endproc
 1031              	.LFE224:
 1032              		.size	chSysGetStatusAndLockX, .-chSysGetStatusAndLockX
 1033 0012 00BF     		.section	.text.chSysRestoreStatusX,"ax",%progbits
 1034              		.align	1
 1035              		.p2align 4,,15
 1036              		.global	chSysRestoreStatusX
 1037              		.syntax unified
 1038              		.thumb
 1039              		.thumb_func
 1040              		.fpu fpv4-sp-d16
 1041              		.type	chSysRestoreStatusX, %function
 1042              	chSysRestoreStatusX:
 1043              	.LVL65:
 1044              	.LFB225:
 1045              		.loc 1 363 40 is_stmt 1 view -0
 1046              		.cfi_startproc
 1047              		@ args = 0, pretend = 0, frame = 0
 1048              		@ frame_needed = 0, uses_anonymous_args = 0
 1049              		.loc 1 365 3 view .LVU304
 1050              		.loc 2 421 3 view .LVU305
 1051              		.loc 1 365 6 is_stmt 0 view .LVU306
 1052 0000 40B9     		cbnz	r0, .L74
 1053              		.loc 1 366 5 is_stmt 1 view .LVU307
 1054              	.LBB263:
 1055              	.LBI263:
 1056              		.loc 2 434 20 view .LVU308
 1057              	.LBB264:
 1058              		.loc 2 436 3 view .LVU309
 1059              	.LBB265:
 1060              	.LBI265:
 1061              		.loc 5 379 61 view .LVU310
 1062              	.LBB266:
 1063              		.loc 5 381 3 view .LVU311
 1064              		.loc 5 383 3 view .LVU312
 1065              	.LBE266:
 1066              	.LBE265:
 1067              	.LBE264:
 1068              	.LBE263:
 1069              		.loc 1 363 40 is_stmt 0 view .LVU313
 1070 0002 10B5     		push	{r4, lr}
 1071              		.cfi_def_cfa_offset 8
 1072              		.cfi_offset 4, -8
 1073              		.cfi_offset 14, -4
 1074              	.LBB270:
 1075              	.LBB269:
 1076              	.LBB268:
 1077              	.LBB267:
 1078              		.loc 5 383 3 view .LVU314
 1079              		.syntax unified
 1080              	@ 383 "src/ChibiOS_3.0.2/os/ext/CMSIS/include/core_cmFunc.h" 1
 1081 0004 EFF30584 		MRS r4, ipsr
 1082              	@ 0 "" 2
 1083              	.LVL66:
ARM GAS  C:\Users\USER\AppData\Local\Temp\ccSZzxf3.s 			page 20


 1084              		.loc 5 384 3 is_stmt 1 view .LVU315
 1085              		.loc 5 384 3 is_stmt 0 view .LVU316
 1086              		.thumb
 1087              		.syntax unified
 1088              	.LBE267:
 1089              	.LBE268:
 1090              		.loc 2 436 31 view .LVU317
 1091 0008 C4F30804 		ubfx	r4, r4, #0, #9
 1092              	.LBE269:
 1093              	.LBE270:
 1094              		.loc 1 366 8 view .LVU318
 1095 000c 1CB1     		cbz	r4, .L72
 1096              		.loc 1 367 7 is_stmt 1 view .LVU319
 1097              	.LBB271:
 1098              	.LBI271:
 1099              		.loc 4 406 20 view .LVU320
 1100              	.LBE271:
 1101              		.loc 4 408 31 view .LVU321
 1102              		.loc 4 409 33 view .LVU322
 1103              		.loc 4 410 3 view .LVU323
 1104              	.LBB279:
 1105              	.LBB272:
 1106              	.LBI272:
 1107              		.loc 2 484 20 view .LVU324
 1108              	.LBE272:
 1109              	.LBE279:
 1110              		.loc 2 486 3 view .LVU325
 1111              	.LBB280:
 1112              	.LBB277:
 1113              	.LBB273:
 1114              	.LBI273:
 1115              		.loc 2 458 20 view .LVU326
 1116              	.LBE273:
 1117              	.LBE277:
 1118              	.LBE280:
 1119              		.loc 2 461 3 view .LVU327
 1120              	.LVL67:
 1121              	.LBB281:
 1122              	.LBB278:
 1123              	.LBB276:
 1124              	.LBB274:
 1125              	.LBI274:
 1126              		.loc 5 544 57 view .LVU328
 1127              	.LBB275:
 1128              		.loc 5 546 3 view .LVU329
 1129              		.syntax unified
 1130              	@ 546 "src/ChibiOS_3.0.2/os/ext/CMSIS/include/core_cmFunc.h" 1
 1131 000e 80F31188 		MSR basepri, r0
 1132              	@ 0 "" 2
 1133              	.LVL68:
 1134              		.loc 5 546 3 is_stmt 0 view .LVU330
 1135              		.thumb
 1136              		.syntax unified
 1137              	.LBE275:
 1138              	.LBE274:
 1139              	.LBE276:
 1140              	.LBE278:
ARM GAS  C:\Users\USER\AppData\Local\Temp\ccSZzxf3.s 			page 21


 1141              	.LBE281:
 1142              		.loc 1 374 1 view .LVU331
 1143 0012 10BD     		pop	{r4, pc}
 1144              	.L74:
 1145              		.cfi_def_cfa_offset 0
 1146              		.cfi_restore 4
 1147              		.cfi_restore 14
 1148 0014 7047     		bx	lr
 1149              	.L72:
 1150              		.cfi_def_cfa_offset 8
 1151              		.cfi_offset 4, -8
 1152              		.cfi_offset 14, -4
 1153              		.loc 1 370 7 is_stmt 1 view .LVU332
 1154 0016 FFF7FEFF 		bl	chSchRescheduleS
 1155              	.LVL69:
 1156              		.loc 1 371 7 view .LVU333
 1157              	.LBB282:
 1158              	.LBI282:
 1159              		.loc 4 358 20 view .LVU334
 1160              	.LBB283:
 1161              		.loc 4 360 22 view .LVU335
 1162              		.loc 4 361 33 view .LVU336
 1163              		.loc 4 367 3 view .LVU337
 1164              		.loc 4 367 3 view .LVU338
 1165              		.loc 4 371 3 view .LVU339
 1166              	.LBB284:
 1167              	.LBI284:
 1168              		.loc 2 458 20 view .LVU340
 1169              	.LBE284:
 1170              	.LBE283:
 1171              	.LBE282:
 1172              		.loc 2 461 3 view .LVU341
 1173              	.LBB289:
 1174              	.LBB288:
 1175              	.LBB287:
 1176              	.LBB285:
 1177              	.LBI285:
 1178              		.loc 5 544 57 view .LVU342
 1179              	.LBB286:
 1180              		.loc 5 546 3 view .LVU343
 1181              		.syntax unified
 1182              	@ 546 "src/ChibiOS_3.0.2/os/ext/CMSIS/include/core_cmFunc.h" 1
 1183 001a 84F31188 		MSR basepri, r4
 1184              	@ 0 "" 2
 1185              	.LVL70:
 1186              		.loc 5 546 3 is_stmt 0 view .LVU344
 1187              		.thumb
 1188              		.syntax unified
 1189              	.LBE286:
 1190              	.LBE285:
 1191              	.LBE287:
 1192              	.LBE288:
 1193              	.LBE289:
 1194              		.loc 1 374 1 view .LVU345
 1195 001e 10BD     		pop	{r4, pc}
 1196              		.cfi_endproc
 1197              	.LFE225:
ARM GAS  C:\Users\USER\AppData\Local\Temp\ccSZzxf3.s 			page 22


 1198              		.size	chSysRestoreStatusX, .-chSysRestoreStatusX
 1199              		.section	.text.chSysIsCounterWithinX,"ax",%progbits
 1200              		.align	1
 1201              		.p2align 4,,15
 1202              		.global	chSysIsCounterWithinX
 1203              		.syntax unified
 1204              		.thumb
 1205              		.thumb_func
 1206              		.fpu fpv4-sp-d16
 1207              		.type	chSysIsCounterWithinX, %function
 1208              	chSysIsCounterWithinX:
 1209              	.LVL71:
 1210              	.LFB226:
 1211              		.loc 1 395 69 is_stmt 1 view -0
 1212              		.cfi_startproc
 1213              		@ args = 0, pretend = 0, frame = 0
 1214              		@ frame_needed = 0, uses_anonymous_args = 0
 1215              		@ link register save eliminated.
 1216              		.loc 1 397 3 view .LVU347
 1217              		.loc 1 397 22 is_stmt 0 view .LVU348
 1218 0000 401A     		subs	r0, r0, r1
 1219              	.LVL72:
 1220              		.loc 1 397 38 view .LVU349
 1221 0002 521A     		subs	r2, r2, r1
 1222              	.LVL73:
 1223              		.loc 1 398 1 view .LVU350
 1224 0004 9042     		cmp	r0, r2
 1225 0006 2CBF     		ite	cs
 1226 0008 0020     		movcs	r0, #0
 1227 000a 0120     		movcc	r0, #1
 1228 000c 7047     		bx	lr
 1229              		.cfi_endproc
 1230              	.LFE226:
 1231              		.size	chSysIsCounterWithinX, .-chSysIsCounterWithinX
 1232 000e 00BF     		.section	.text.chSysPolledDelayX,"ax",%progbits
 1233              		.align	1
 1234              		.p2align 4,,15
 1235              		.global	chSysPolledDelayX
 1236              		.syntax unified
 1237              		.thumb
 1238              		.thumb_func
 1239              		.fpu fpv4-sp-d16
 1240              		.type	chSysPolledDelayX, %function
 1241              	chSysPolledDelayX:
 1242              	.LVL74:
 1243              	.LFB227:
 1244              		.loc 1 411 40 is_stmt 1 view -0
 1245              		.cfi_startproc
 1246              		@ args = 0, pretend = 0, frame = 0
 1247              		@ frame_needed = 0, uses_anonymous_args = 0
 1248              		@ link register save eliminated.
 1249              		.loc 1 412 3 view .LVU352
 1250              	.LBB290:
 1251              	.LBI290:
 1252              		.loc 2 546 23 view .LVU353
 1253              	.LBB291:
 1254              		.loc 2 548 3 view .LVU354
ARM GAS  C:\Users\USER\AppData\Local\Temp\ccSZzxf3.s 			page 23


 1255              		.loc 2 548 13 is_stmt 0 view .LVU355
 1256 0000 034A     		ldr	r2, .L81
 1257 0002 5168     		ldr	r1, [r2, #4]
 1258              	.LVL75:
 1259              		.loc 2 548 13 view .LVU356
 1260              	.LBE291:
 1261              	.LBE290:
 1262              		.loc 1 413 3 is_stmt 1 view .LVU357
 1263              		.loc 1 415 3 view .LVU358
 1264              	.L79:
 1265              		.loc 1 416 3 discriminator 1 view .LVU359
 1266              	.LBB292:
 1267              	.LBI292:
 1268              		.loc 2 546 23 discriminator 1 view .LVU360
 1269              	.LBB293:
 1270              		.loc 2 548 3 discriminator 1 view .LVU361
 1271              		.loc 2 548 13 is_stmt 0 discriminator 1 view .LVU362
 1272 0004 5368     		ldr	r3, [r2, #4]
 1273              	.LVL76:
 1274              		.loc 2 548 13 discriminator 1 view .LVU363
 1275              	.LBE293:
 1276              	.LBE292:
 1277              	.LBB294:
 1278              	.LBI294:
 1279              		.loc 1 395 6 is_stmt 1 discriminator 1 view .LVU364
 1280              	.LBB295:
 1281              		.loc 1 397 3 discriminator 1 view .LVU365
 1282              		.loc 1 397 22 is_stmt 0 discriminator 1 view .LVU366
 1283 0006 5B1A     		subs	r3, r3, r1
 1284              	.LBE295:
 1285              	.LBE294:
 1286              		.loc 1 415 9 discriminator 1 view .LVU367
 1287 0008 9842     		cmp	r0, r3
 1288 000a FBD8     		bhi	.L79
 1289              		.loc 1 417 1 view .LVU368
 1290 000c 7047     		bx	lr
 1291              	.L82:
 1292 000e 00BF     		.align	2
 1293              	.L81:
 1294 0010 001000E0 		.word	-536866816
 1295              		.cfi_endproc
 1296              	.LFE227:
 1297              		.size	chSysPolledDelayX, .-chSysPolledDelayX
 1298              		.section	.rodata.chSysInit.str1.4,"aMS",%progbits,1
 1299              		.align	2
 1300              	.LC0:
 1301 0000 69646C65 		.ascii	"idle\000"
 1301      00
 1302              		.text
 1303              	.Letext0:
 1304              		.file 8 "c:\\program files (x86)\\gnu tools arm embedded\\8 2018-q4-major\\arm-none-eabi\\include\
 1305              		.file 9 "c:\\program files (x86)\\gnu tools arm embedded\\8 2018-q4-major\\arm-none-eabi\\include\
 1306              		.file 10 "src/ChibiOS_3.0.2/os/rt/ports/ARMCMx/compilers/GCC/chtypes.h"
 1307              		.file 11 "src/ChibiOS_3.0.2/os/rt/include/chsystypes.h"
 1308              		.file 12 "src/ChibiOS_3.0.2/os/rt/include/chschd.h"
 1309              		.file 13 "src/ChibiOS_3.0.2/os/ext/CMSIS/ST/stm32f407xx.h"
 1310              		.file 14 "src/ChibiOS_3.0.2/os/ext/CMSIS/ST/system_stm32f4xx.h"
ARM GAS  C:\Users\USER\AppData\Local\Temp\ccSZzxf3.s 			page 24


 1311              		.file 15 "src/ChibiOS_3.0.2/os/rt/ports/ARMCMx/chcore.h"
 1312              		.file 16 "src/ChibiOS_3.0.2/os/rt/include/chtm.h"
 1313              		.file 17 "src/ChibiOS_3.0.2/os/rt/include/chsem.h"
 1314              		.file 18 "src/ChibiOS_3.0.2/os/rt/include/chmtx.h"
 1315              		.file 19 "src/ChibiOS_3.0.2/os/rt/include/chthreads.h"
 1316              		.file 20 "src/ChibiOS_3.0.2/os/rt/include/chmemcore.h"
 1317              		.file 21 "src/ChibiOS_3.0.2/os/rt/include/chheap.h"