ARM GAS  C:\Users\USER\AppData\Local\Temp\ccULuntG.s 			page 1


   1              		.cpu cortex-m4
   2              		.eabi_attribute 27, 1
   3              		.eabi_attribute 28, 1
   4              		.eabi_attribute 20, 1
   5              		.eabi_attribute 21, 1
   6              		.eabi_attribute 23, 3
   7              		.eabi_attribute 24, 1
   8              		.eabi_attribute 25, 1
   9              		.eabi_attribute 26, 1
  10              		.eabi_attribute 30, 2
  11              		.eabi_attribute 34, 1
  12              		.eabi_attribute 18, 4
  13              		.file	"chtm.c"
  14              		.text
  15              	.Ltext0:
  16              		.cfi_sections	.debug_frame
  17              		.section	.text.chTMObjectInit,"ax",%progbits
  18              		.align	1
  19              		.p2align 4,,15
  20              		.global	chTMObjectInit
  21              		.arch armv7e-m
  22              		.syntax unified
  23              		.thumb
  24              		.thumb_func
  25              		.fpu fpv4-sp-d16
  26              		.type	chTMObjectInit, %function
  27              	chTMObjectInit:
  28              	.LVL0:
  29              	.LFB221:
  30              		.file 1 "src/ChibiOS_3.0.2/os/rt/src/chtm.c"
  31              		.loc 1 99 46 view -0
  32              		.cfi_startproc
  33              		@ args = 0, pretend = 0, frame = 0
  34              		@ frame_needed = 0, uses_anonymous_args = 0
  35              		@ link register save eliminated.
  36              		.loc 1 101 3 view .LVU1
  37              		.loc 1 105 19 is_stmt 0 view .LVU2
  38 0000 0022     		movs	r2, #0
  39 0002 0023     		movs	r3, #0
  40 0004 C0E90423 		strd	r2, [r0, #16]
  41              		.loc 1 102 19 view .LVU3
  42 0008 0023     		movs	r3, #0
  43 000a 4FF0FF32 		mov	r2, #-1
  44 000e C0E90023 		strd	r2, r3, [r0]
  45              		.loc 1 103 3 is_stmt 1 view .LVU4
  46              		.loc 1 104 19 is_stmt 0 view .LVU5
  47 0012 C0E90233 		strd	r3, r3, [r0, #8]
  48              		.loc 1 105 3 is_stmt 1 view .LVU6
  49              		.loc 1 106 1 is_stmt 0 view .LVU7
  50 0016 7047     		bx	lr
  51              		.cfi_endproc
  52              	.LFE221:
  53              		.size	chTMObjectInit, .-chTMObjectInit
  54              		.section	.text.chTMStartMeasurementX,"ax",%progbits
  55              		.align	1
  56              		.p2align 4,,15
  57              		.global	chTMStartMeasurementX
ARM GAS  C:\Users\USER\AppData\Local\Temp\ccULuntG.s 			page 2


  58              		.syntax unified
  59              		.thumb
  60              		.thumb_func
  61              		.fpu fpv4-sp-d16
  62              		.type	chTMStartMeasurementX, %function
  63              	chTMStartMeasurementX:
  64              	.LVL1:
  65              	.LFB222:
  66              		.loc 1 116 62 is_stmt 1 view -0
  67              		.cfi_startproc
  68              		@ args = 0, pretend = 0, frame = 0
  69              		@ frame_needed = 0, uses_anonymous_args = 0
  70              		@ link register save eliminated.
  71              		.loc 1 118 3 view .LVU9
  72              	.LBB14:
  73              	.LBI14:
  74              		.file 2 "src/ChibiOS_3.0.2/os/rt/ports/ARMCMx/chcore_v7m.h"
  75              		.loc 2 546 23 view .LVU10
  76              	.LBB15:
  77              		.loc 2 548 3 view .LVU11
  78              		.loc 2 548 13 is_stmt 0 view .LVU12
  79 0000 014B     		ldr	r3, .L4
  80 0002 5B68     		ldr	r3, [r3, #4]
  81              	.LBE15:
  82              	.LBE14:
  83              		.loc 1 118 13 view .LVU13
  84 0004 8360     		str	r3, [r0, #8]
  85              		.loc 1 119 1 view .LVU14
  86 0006 7047     		bx	lr
  87              	.L5:
  88              		.align	2
  89              	.L4:
  90 0008 001000E0 		.word	-536866816
  91              		.cfi_endproc
  92              	.LFE222:
  93              		.size	chTMStartMeasurementX, .-chTMStartMeasurementX
  94              		.section	.text.chTMStopMeasurementX,"ax",%progbits
  95              		.align	1
  96              		.p2align 4,,15
  97              		.global	chTMStopMeasurementX
  98              		.syntax unified
  99              		.thumb
 100              		.thumb_func
 101              		.fpu fpv4-sp-d16
 102              		.type	chTMStopMeasurementX, %function
 103              	chTMStopMeasurementX:
 104              	.LVL2:
 105              	.LFB223:
 106              		.loc 1 129 61 is_stmt 1 view -0
 107              		.cfi_startproc
 108              		@ args = 0, pretend = 0, frame = 0
 109              		@ frame_needed = 0, uses_anonymous_args = 0
 110              		@ link register save eliminated.
 111              		.loc 1 131 3 view .LVU16
 112              	.LBB16:
 113              	.LBI16:
 114              		.loc 2 546 23 view .LVU17
ARM GAS  C:\Users\USER\AppData\Local\Temp\ccULuntG.s 			page 3


 115              	.LBB17:
 116              		.loc 2 548 3 view .LVU18
 117              		.loc 2 548 13 is_stmt 0 view .LVU19
 118 0000 114A     		ldr	r2, .L10
 119              	.LBE17:
 120              	.LBE16:
 121              		.loc 1 131 3 view .LVU20
 122 0002 124B     		ldr	r3, .L10+4
 123              	.LBB19:
 124              	.LBB18:
 125              		.loc 2 548 13 view .LVU21
 126 0004 5268     		ldr	r2, [r2, #4]
 127              	.LBE18:
 128              	.LBE19:
 129              		.loc 1 131 3 view .LVU22
 130 0006 9B6F     		ldr	r3, [r3, #120]
 131              	.LVL3:
 132              	.LBB20:
 133              	.LBI20:
 134              		.loc 1 53 20 is_stmt 1 view .LVU23
 135              	.LBB21:
 136              		.loc 1 57 3 view .LVU24
 137              		.loc 1 58 33 is_stmt 0 view .LVU25
 138 0008 8168     		ldr	r1, [r0, #8]
 139              	.LBE21:
 140              	.LBE20:
 141              		.loc 1 129 61 view .LVU26
 142 000a 2DE93008 		push	{r4, r5, fp}
 143              		.cfi_def_cfa_offset 12
 144              		.cfi_offset 4, -12
 145              		.cfi_offset 5, -8
 146              		.cfi_offset 11, -4
 147              	.LBB24:
 148              	.LBB22:
 149              		.loc 1 59 19 view .LVU27
 150 000e D0E90445 		ldrd	r4, [r0, #16]
 151              		.loc 1 58 33 view .LVU28
 152 0012 D31A     		subs	r3, r2, r3
 153              	.LVL4:
 154              		.loc 1 58 33 view .LVU29
 155 0014 5B1A     		subs	r3, r3, r1
 156              		.loc 1 57 9 view .LVU30
 157 0016 C268     		ldr	r2, [r0, #12]
 158              	.LVL5:
 159              		.loc 1 61 6 view .LVU31
 160 0018 4168     		ldr	r1, [r0, #4]
 161              		.loc 1 58 13 view .LVU32
 162 001a 8360     		str	r3, [r0, #8]
 163              		.loc 1 59 19 view .LVU33
 164 001c 14EB030B 		adds	fp, r4, r3
 165 0020 45F1000C 		adc	ip, r5, #0
 166              		.loc 1 57 9 view .LVU34
 167 0024 0132     		adds	r2, r2, #1
 168              		.loc 1 61 6 view .LVU35
 169 0026 8B42     		cmp	r3, r1
 170              		.loc 1 57 9 view .LVU36
 171 0028 C260     		str	r2, [r0, #12]
ARM GAS  C:\Users\USER\AppData\Local\Temp\ccULuntG.s 			page 4


 172              		.loc 1 58 3 is_stmt 1 view .LVU37
 173              		.loc 1 59 3 view .LVU38
 174              		.loc 1 59 19 is_stmt 0 view .LVU39
 175 002a C0E904BC 		strd	fp, [r0, #16]
 176              		.loc 1 61 3 is_stmt 1 view .LVU40
 177              		.loc 1 61 6 is_stmt 0 view .LVU41
 178 002e 03D9     		bls	.L7
 179              		.loc 1 62 5 is_stmt 1 view .LVU42
 180              		.loc 1 62 16 is_stmt 0 view .LVU43
 181 0030 4360     		str	r3, [r0, #4]
 182              	.LBE22:
 183              	.LBE24:
 184              		.loc 1 132 1 view .LVU44
 185 0032 BDE83008 		pop	{r4, r5, fp}
 186              		.cfi_remember_state
 187              		.cfi_restore 11
 188              		.cfi_restore 5
 189              		.cfi_restore 4
 190              		.cfi_def_cfa_offset 0
 191 0036 7047     		bx	lr
 192              	.L7:
 193              		.cfi_restore_state
 194              	.LBB25:
 195              	.LBB23:
 196              		.loc 1 64 8 is_stmt 1 view .LVU45
 197              		.loc 1 64 11 is_stmt 0 view .LVU46
 198 0038 0268     		ldr	r2, [r0]
 199 003a 9342     		cmp	r3, r2
 200              		.loc 1 65 5 is_stmt 1 view .LVU47
 201              		.loc 1 65 15 is_stmt 0 view .LVU48
 202 003c 38BF     		it	cc
 203 003e 0360     		strcc	r3, [r0]
 204              	.LVL6:
 205              		.loc 1 65 15 view .LVU49
 206              	.LBE23:
 207              	.LBE25:
 208              		.loc 1 132 1 view .LVU50
 209 0040 BDE83008 		pop	{r4, r5, fp}
 210              		.cfi_restore 11
 211              		.cfi_restore 5
 212              		.cfi_restore 4
 213              		.cfi_def_cfa_offset 0
 214 0044 7047     		bx	lr
 215              	.L11:
 216 0046 00BF     		.align	2
 217              	.L10:
 218 0048 001000E0 		.word	-536866816
 219 004c 00000000 		.word	ch
 220              		.cfi_endproc
 221              	.LFE223:
 222              		.size	chTMStopMeasurementX, .-chTMStopMeasurementX
 223              		.section	.text._tm_init,"ax",%progbits
 224              		.align	1
 225              		.p2align 4,,15
 226              		.global	_tm_init
 227              		.syntax unified
 228              		.thumb
ARM GAS  C:\Users\USER\AppData\Local\Temp\ccULuntG.s 			page 5


 229              		.thumb_func
 230              		.fpu fpv4-sp-d16
 231              		.type	_tm_init, %function
 232              	_tm_init:
 233              	.LFB220:
 234              		.loc 1 79 21 is_stmt 1 view -0
 235              		.cfi_startproc
 236              		@ args = 0, pretend = 0, frame = 24
 237              		@ frame_needed = 0, uses_anonymous_args = 0
 238              		.loc 1 80 3 view .LVU52
 239              		.loc 1 85 3 view .LVU53
 240              		.loc 1 79 21 is_stmt 0 view .LVU54
 241 0000 10B5     		push	{r4, lr}
 242              		.cfi_def_cfa_offset 8
 243              		.cfi_offset 4, -8
 244              		.cfi_offset 14, -4
 245              		.loc 1 85 16 view .LVU55
 246 0002 0C4C     		ldr	r4, .L14
 247              		.loc 1 79 21 view .LVU56
 248 0004 86B0     		sub	sp, sp, #24
 249              		.cfi_def_cfa_offset 32
 250              		.loc 1 85 16 view .LVU57
 251 0006 0023     		movs	r3, #0
 252              	.LBB26:
 253              	.LBB27:
 254              		.loc 1 101 19 view .LVU58
 255 0008 4FF0FF31 		mov	r1, #-1
 256              		.loc 1 105 19 view .LVU59
 257 000c 0022     		movs	r2, #0
 258              	.LBE27:
 259              	.LBE26:
 260              		.loc 1 87 3 view .LVU60
 261 000e 6846     		mov	r0, sp
 262              		.loc 1 85 16 view .LVU61
 263 0010 A367     		str	r3, [r4, #120]
 264              		.loc 1 86 3 is_stmt 1 view .LVU62
 265              	.LVL7:
 266              	.LBB29:
 267              	.LBI26:
 268              		.loc 1 99 6 view .LVU63
 269              	.LBB28:
 270              		.loc 1 101 3 view .LVU64
 271              		.loc 1 103 19 is_stmt 0 view .LVU65
 272 0012 CDE90133 		strd	r3, r3, [sp, #4]
 273              		.loc 1 104 19 view .LVU66
 274 0016 0393     		str	r3, [sp, #12]
 275              		.loc 1 105 19 view .LVU67
 276 0018 0023     		movs	r3, #0
 277 001a CDE90423 		strd	r2, [sp, #16]
 278              		.loc 1 101 19 view .LVU68
 279 001e 0091     		str	r1, [sp]
 280              		.loc 1 102 3 is_stmt 1 view .LVU69
 281              		.loc 1 103 3 view .LVU70
 282              		.loc 1 104 3 view .LVU71
 283              		.loc 1 105 3 view .LVU72
 284              	.LVL8:
 285              		.loc 1 105 3 is_stmt 0 view .LVU73
ARM GAS  C:\Users\USER\AppData\Local\Temp\ccULuntG.s 			page 6


 286              	.LBE28:
 287              	.LBE29:
 288              		.loc 1 87 3 is_stmt 1 view .LVU74
 289 0020 FFF7FEFF 		bl	chTMStartMeasurementX
 290              	.LVL9:
 291              		.loc 1 88 3 view .LVU75
 292 0024 6846     		mov	r0, sp
 293 0026 FFF7FEFF 		bl	chTMStopMeasurementX
 294              	.LVL10:
 295              		.loc 1 89 3 view .LVU76
 296              		.loc 1 89 16 is_stmt 0 view .LVU77
 297 002a 029B     		ldr	r3, [sp, #8]
 298 002c A367     		str	r3, [r4, #120]
 299              		.loc 1 90 1 view .LVU78
 300 002e 06B0     		add	sp, sp, #24
 301              		.cfi_def_cfa_offset 8
 302              		@ sp needed
 303 0030 10BD     		pop	{r4, pc}
 304              	.L15:
 305 0032 00BF     		.align	2
 306              	.L14:
 307 0034 00000000 		.word	ch
 308              		.cfi_endproc
 309              	.LFE220:
 310              		.size	_tm_init, .-_tm_init
 311              		.section	.text.chTMChainMeasurementToX,"ax",%progbits
 312              		.align	1
 313              		.p2align 4,,15
 314              		.global	chTMChainMeasurementToX
 315              		.syntax unified
 316              		.thumb
 317              		.thumb_func
 318              		.fpu fpv4-sp-d16
 319              		.type	chTMChainMeasurementToX, %function
 320              	chTMChainMeasurementToX:
 321              	.LVL11:
 322              	.LFB224:
 323              		.loc 1 147 65 is_stmt 1 view -0
 324              		.cfi_startproc
 325              		@ args = 0, pretend = 0, frame = 0
 326              		@ frame_needed = 0, uses_anonymous_args = 0
 327              		@ link register save eliminated.
 328              		.loc 1 150 3 view .LVU80
 329              	.LBB30:
 330              	.LBI30:
 331              		.loc 2 546 23 view .LVU81
 332              	.LBB31:
 333              		.loc 2 548 3 view .LVU82
 334              		.loc 2 548 13 is_stmt 0 view .LVU83
 335 0000 0E4B     		ldr	r3, .L20
 336              	.LBE31:
 337              	.LBE30:
 338              	.LBB33:
 339              	.LBB34:
 340              		.loc 1 61 6 view .LVU84
 341 0002 4268     		ldr	r2, [r0, #4]
 342              	.LBE34:
ARM GAS  C:\Users\USER\AppData\Local\Temp\ccULuntG.s 			page 7


 343              	.LBE33:
 344              	.LBB37:
 345              	.LBB32:
 346              		.loc 2 548 13 view .LVU85
 347 0004 5B68     		ldr	r3, [r3, #4]
 348              	.LBE32:
 349              	.LBE37:
 350              		.loc 1 147 65 view .LVU86
 351 0006 F0B4     		push	{r4, r5, r6, r7}
 352              		.cfi_def_cfa_offset 16
 353              		.cfi_offset 4, -16
 354              		.cfi_offset 5, -12
 355              		.cfi_offset 6, -8
 356              		.cfi_offset 7, -4
 357              		.loc 1 150 14 view .LVU87
 358 0008 8B60     		str	r3, [r1, #8]
 359              		.loc 1 153 3 is_stmt 1 view .LVU88
 360              	.LVL12:
 361              	.LBB38:
 362              	.LBI33:
 363              		.loc 1 53 20 view .LVU89
 364              	.LBB35:
 365              		.loc 1 57 3 view .LVU90
 366              		.loc 1 57 9 is_stmt 0 view .LVU91
 367 000a D0E90261 		ldrd	r6, r1, [r0, #8]
 368              	.LVL13:
 369              		.loc 1 59 19 view .LVU92
 370 000e D0E90445 		ldrd	r4, [r0, #16]
 371              		.loc 1 58 20 view .LVU93
 372 0012 9B1B     		subs	r3, r3, r6
 373              	.LVL14:
 374              		.loc 1 59 19 view .LVU94
 375 0014 E618     		adds	r6, r4, r3
 376 0016 45F10007 		adc	r7, r5, #0
 377              		.loc 1 57 9 view .LVU95
 378 001a 0131     		adds	r1, r1, #1
 379              		.loc 1 61 6 view .LVU96
 380 001c 9342     		cmp	r3, r2
 381              		.loc 1 58 13 view .LVU97
 382 001e C0E90231 		strd	r3, r1, [r0, #8]
 383              	.LVL15:
 384              		.loc 1 59 3 is_stmt 1 view .LVU98
 385              		.loc 1 59 19 is_stmt 0 view .LVU99
 386 0022 C0E90467 		strd	r6, [r0, #16]
 387              		.loc 1 61 3 is_stmt 1 view .LVU100
 388              		.loc 1 61 6 is_stmt 0 view .LVU101
 389 0026 02D9     		bls	.L17
 390              		.loc 1 62 5 is_stmt 1 view .LVU102
 391              		.loc 1 62 16 is_stmt 0 view .LVU103
 392 0028 4360     		str	r3, [r0, #4]
 393              	.LBE35:
 394              	.LBE38:
 395              		.loc 1 154 1 view .LVU104
 396 002a F0BC     		pop	{r4, r5, r6, r7}
 397              		.cfi_remember_state
 398              		.cfi_restore 7
 399              		.cfi_restore 6
ARM GAS  C:\Users\USER\AppData\Local\Temp\ccULuntG.s 			page 8


 400              		.cfi_restore 5
 401              		.cfi_restore 4
 402              		.cfi_def_cfa_offset 0
 403 002c 7047     		bx	lr
 404              	.L17:
 405              		.cfi_restore_state
 406              	.LBB39:
 407              	.LBB36:
 408              		.loc 1 64 8 is_stmt 1 view .LVU105
 409              		.loc 1 64 11 is_stmt 0 view .LVU106
 410 002e 0268     		ldr	r2, [r0]
 411 0030 9342     		cmp	r3, r2
 412              		.loc 1 65 5 is_stmt 1 view .LVU107
 413              		.loc 1 65 15 is_stmt 0 view .LVU108
 414 0032 38BF     		it	cc
 415 0034 0360     		strcc	r3, [r0]
 416              	.LVL16:
 417              		.loc 1 65 15 view .LVU109
 418              	.LBE36:
 419              	.LBE39:
 420              		.loc 1 154 1 view .LVU110
 421 0036 F0BC     		pop	{r4, r5, r6, r7}
 422              		.cfi_restore 7
 423              		.cfi_restore 6
 424              		.cfi_restore 5
 425              		.cfi_restore 4
 426              		.cfi_def_cfa_offset 0
 427 0038 7047     		bx	lr
 428              	.L21:
 429 003a 00BF     		.align	2
 430              	.L20:
 431 003c 001000E0 		.word	-536866816
 432              		.cfi_endproc
 433              	.LFE224:
 434              		.size	chTMChainMeasurementToX, .-chTMChainMeasurementToX
 435              		.text
 436              	.Letext0:
 437              		.file 3 "c:\\program files (x86)\\gnu tools arm embedded\\8 2018-q4-major\\arm-none-eabi\\include\
 438              		.file 4 "c:\\program files (x86)\\gnu tools arm embedded\\8 2018-q4-major\\arm-none-eabi\\include\
 439              		.file 5 "src/ChibiOS_3.0.2/os/rt/ports/ARMCMx/compilers/GCC/chtypes.h"
 440              		.file 6 "src/ChibiOS_3.0.2/os/rt/include/chsystypes.h"
 441              		.file 7 "src/ChibiOS_3.0.2/os/rt/include/chschd.h"
 442              		.file 8 "src/ChibiOS_3.0.2/os/ext/CMSIS/include/core_cm4.h"
 443              		.file 9 "src/ChibiOS_3.0.2/os/ext/CMSIS/ST/system_stm32f4xx.h"
 444              		.file 10 "src/ChibiOS_3.0.2/os/rt/ports/ARMCMx/chcore.h"
 445              		.file 11 "src/ChibiOS_3.0.2/os/rt/include/chtm.h"
 446              		.file 12 "src/ChibiOS_3.0.2/os/rt/include/chsem.h"
 447              		.file 13 "src/ChibiOS_3.0.2/os/rt/include/chmtx.h"
 448              		.file 14 "src/ChibiOS_3.0.2/os/rt/include/chregistry.h"