ARM GAS  C:\Users\USER\AppData\Local\Temp\ccULuntG.s 			page 1


   1              		.cpu cortex-m4
   2              		.eabi_attribute 27, 1
   3              		.eabi_attribute 28, 1
   4              		.eabi_attribute 20, 1
   5              		.eabi_attribute 21, 1
   6              		.eabi_attribute 23, 3
   7              		.eabi_attribute 24, 1
   8              		.eabi_attribute 25, 1
   9              		.eabi_attribute 26, 1
  10              		.eabi_attribute 30, 2
  11              		.eabi_attribute 34, 1
  12              		.eabi_attribute 18, 4
  13              		.file	"chtm.c"
  14              		.text
  15              	.Ltext0:
  16              		.cfi_sections	.debug_frame
  17              		.section	.text.chTMObjectInit,"ax",%progbits
  18              		.align	1
  19              		.p2align 4,,15
  20              		.global	chTMObjectInit
  21              		.arch armv7e-m
  22              		.syntax unified
  23              		.thumb
  24              		.thumb_func
  25              		.fpu fpv4-sp-d16
  26              		.type	chTMObjectInit, %function
  27              	chTMObjectInit:
  28              	.LVL0:
  29              	.LFB221:
  30              		.file 1 "src/ChibiOS_3.0.2/os/rt/src/chtm.c"
  31              		.loc 1 99 46 view -0
  32              		.cfi_startproc
  33              		@ args = 0, pretend = 0, frame = 0
  34              		@ frame_needed = 0, uses_anonymous_args = 0
  35              		@ link register save eliminated.
  36              		.loc 1 101 3 view .LVU1
  37              		.loc 1 105 19 is_stmt 0 view .LVU2
  38 0000 0022     		movs	r2, #0
  39 0002 0023     		movs	r3, #0
  40 0004 C0E90423 		strd	r2, [r0, #16]
  41              		.loc 1 102 19 view .LVU3
  42 0008 0023     		movs	r3, #0
  43 000a 4FF0FF32 		mov	r2, #-1
  44 000e C0E90023 		strd	r2, r3, [r0]
  45              		.loc 1 103 3 is_stmt 1 view .LVU4
  46              		.loc 1 104 19 is_stmt 0 view .LVU5
  47 0012 C0E90233 		strd	r3, r3, [r0, #8]
  48              		.loc 1 105 3 is_stmt 1 view .LVU6
  49              		.loc 1 106 1 is_stmt 0 view .LVU7
  50 0016 7047     		bx	lr
  51              		.cfi_endproc
  52              	.LFE221:
  53              		.size	chTMObjectInit, .-chTMObjectInit
  54              		.section	.text.chTMStartMeasurementX,"ax",%progbits
  55              		.align	1
  56              		.p2align 4,,15
  57              		.global	chTMStartMeasurementX
ARM GAS  C:\Users\USER\AppData\Local\Temp\ccULuntG.s 			page 2


  58              		.syntax unified
  59              		.thumb
  60              		.thumb_func
  61              		.fpu fpv4-sp-d16
  62              		.type	chTMStartMeasurementX, %function
  63              	chTMStartMeasurementX:
  64              	.LVL1:
  65              	.LFB222:
  66              		.loc 1 116 62 is_stmt 1 view -0
  67              		.cfi_startproc
  68              		@ args = 0, pretend = 0, frame = 0
  69              		@ frame_needed = 0, uses_anonymous_args = 0
  70              		@ link register save eliminated.
  71              		.loc 1 118 3 view .LVU9
  72              	.LBB14:
  73              	.LBI14:
  74              		.file 2 "src/ChibiOS_3.0.2/os/rt/ports/ARMCMx/chcore_v7m.h"
  75              		.loc 2 546 23 view .LVU10
  76              	.LBB15:
  77              		.loc 2 548 3 view .LVU11
  78              		.loc 2 548 13 is_stmt 0 view .LVU12
  79 0000 014B     		ldr	r3, .L4
  80 0002 5B68     		ldr	r3, [r3, #4]
  81              	.LBE15:
  82              	.LBE14:
  83              		.loc 1 118 13 view .LVU13
  84 0004 8360     		str	r3, [r0, #8]
  85              		.loc 1 119 1 view .LVU14
  86 0006 7047     		bx	lr
  87              	.L5:
  88              		.align	2
  89              	.L4:
  90 0008 001000E0 		.word	-536866816
  91              		.cfi_endproc
  92              	.LFE222:
  93              		.size	chTMStartMeasurementX, .-chTMStartMeasurementX
  94              		.section	.text.chTMStopMeasurementX,"ax",%progbits
  95              		.align	1
  96              		.p2align 4,,15
  97              		.global	chTMStopMeasurementX
  98              		.syntax unified
  99              		.thumb
 100              		.thumb_func
 101              		.fpu fpv4-sp-d16
 102              		.type	chTMStopMeasurementX, %function
 103              	chTMStopMeasurementX:
 104              	.LVL2:
 105              	.LFB223:
 106              		.loc 1 129 61 is_stmt 1 view -0
 107              		.cfi_startproc
 108              		@ args = 0, pretend = 0, frame = 0
 109              		@ frame_needed = 0, uses_anonymous_args = 0
 110              		@ link register save eliminated.
 111              		.loc 1 131 3 view .LVU16
 112              	.LBB16:
 113              	.LBI16:
 114              		.loc 2 546 23 view .LVU17
ARM GAS  C:\Users\USER\AppData\Local\Temp\ccULuntG.s 			page 3


 115              	.LBB17:
 116              		.loc 2 548 3 view .LVU18
 117              		.loc 2 548 13 is_stmt 0 view .LVU19
 118 0000 114A     		ldr	r2, .L10
 119              	.LBE17:
 120              	.LBE16:
 121              		.loc 1 131 3 view .LVU20
 122 0002 124B     		ldr	r3, .L10+4
 123              	.LBB19:
 124              	.LBB18:
 125              		.loc 2 548 13 view .LVU21
 126 0004 5268     		ldr	r2, [r2, #4]
 127              	.LBE18:
 128              	.LBE19:
 129              		.loc 1 131 3 view .LVU22
 130 0006 9B6F     		ldr	r3, [r3, #120]
 131              	.LVL3:
 132              	.LBB20:
 133              	.LBI20:
 134              		.loc 1 53 20 is_stmt 1 view .LVU23
 135              	.LBB21:
 136              		.loc 1 57 3 view .LVU24
 137              		.loc 1 58 33 is_stmt 0 view .LVU25
 138 0008 8168     		ldr	r1, [r0, #8]
 139              	.LBE21:
 140              	.LBE20:
 141              		.loc 1 129 61 view .LVU26
 142 000a 2DE93008 		push	{r4, r5, fp}
 143              		.cfi_def_cfa_offset 12
 144              		.cfi_offset 4, -12
 145              		.cfi_offset 5, -8
 146              		.cfi_offset 11, -4
 147              	.LBB24:
 148              	.LBB22:
 149              		.loc 1 59 19 view .LVU27
 150 000e D0E90445 		ldrd	r4, [r0, #16]
 151              		.loc 1 58 33 view .LVU28
 152 0012 D31A     		subs	r3, r2, r3
 153              	.LVL4:
 154              		.loc 1 58 33 view .LVU29
 155 0014 5B1A     		subs	r3, r3, r1
 156              		.loc 1 57 9 view .LVU30
 157 0016 C268     		ldr	r2, [r0, #12]
 158              	.LVL5:
 159              		.loc 1 61 6 view .LVU31
 160 0018 4168     		ldr	r1, [r0, #4]
 161              		.loc 1 58 13 view .LVU32
 162 001a 8360     		str	r3, [r0, #8]
 163              		.loc 1 59 19 view .LVU33
 164 001c 14EB030B 		adds	fp, r4, r3
 165 0020 45F1000C 		adc	ip, r5, #0
 166              		.loc 1 57 9 view .LVU34
 167 0024 0132     		adds	r2, r2, #1
 168              		.loc 1 61 6 view .LVU35
 169 0026 8B42     		cmp	r3, r1
 170              		.loc 1 57 9 view .LVU36
 171 0028 C260     		str	r2, [r0, #12]
ARM GAS  C:\Users\USER\AppData\Local\Temp\ccULuntG.s 			page 4


 172              		.loc 1 58 3 is_stmt 1 view .LVU37
 173              		.loc 1 59 3 view .LVU38
 174              		.loc 1 59 19 is_stmt 0 view .LVU39
 175 002a C0E904BC 		strd	fp, [r0, #16]
 176              		.loc 1 61 3 is_stmt 1 view .LVU40
 177              		.loc 1 61 6 is_stmt 0 view .LVU41
 178 002e 03D9     		bls	.L7
 179              		.loc 1 62 5 is_stmt 1 view .LVU42
 180              		.loc 1 62 16 is_stmt 0 view .LVU43
 181 0030 4360     		str	r3, [r0, #4]
 182              	.LBE22:
 183              	.LBE24:
 184              		.loc 1 132 1 view .LVU44
 185 0032 BDE83008 		pop	{r4, r5, fp}
 186              		.cfi_remember_state
 187              		.cfi_restore 11
 188              		.cfi_restore 5
 189              		.cfi_restore 4
 190              		.cfi_def_cfa_offset 0
 191 0036 7047     		bx	lr
 192              	.L7:
 193              		.cfi_restore_state
 194              	.LBB25:
 195              	.LBB23:
 196              		.loc 1 64 8 is_stmt 1 view .LVU45
 197              		.loc 1 64 11 is_stmt 0 view .LVU46
 198 0038 0268     		ldr	r2, [r0]
 199 003a 9342     		cmp	r3, r2
 200              		.loc 1 65 5 is_stmt 1 view .LVU47
 201              		.loc 1 65 15 is_stmt 0 view .LVU48
 202 003c 38BF     		it	cc
 203 003e 0360     		strcc	r3, [r0]
 204              	.LVL6:
 205              		.loc 1 65 15 view .LVU49
 206              	.LBE23:
 207              	.LBE25:
 208              		.loc 1 132 1 view .LVU50
 209 0040 BDE83008 		pop	{r4, r5, fp}
 210              		.cfi_restore 11
 211              		.cfi_restore 5
 212              		.cfi_restore 4
 213              		.cfi_def_cfa_offset 0
 214 0044 7047     		bx	lr
 215              	.L11:
 216 0046 00BF     		.align	2
 217              	.L10:
 218 0048 001000E0 		.word	-536866816
 219 004c 00000000 		.word	ch
 220              		.cfi_endproc
 221              	.LFE223:
 222              		.size	chTMStopMeasurementX, .-chTMStopMeasurementX
 223              		.section	.text._tm_init,"ax",%progbits
 224              		.align	1
 225              		.p2align 4,,15
 226              		.global	_tm_init
 227              		.syntax unified
 228              		.thumb
ARM GAS  C:\Users\USER\AppData\Local\Temp\ccULuntG.s 			page 5


 229              		.thumb_func
 230              		.fpu fpv4-sp-d16
 231              		.type	_tm_init, %function
 232              	_tm_init:
 233              	.LFB220:
 234              		.loc 1 79 21 is_stmt 1 view -0
 235              		.cfi_startproc
 236              		@ args = 0, pretend = 0, frame = 24
 237              		@ frame_needed = 0, uses_anonymous_args = 0
 238              		.loc 1 80 3 view .LVU52
 239              		.loc 1 85 3 view .LVU53
 240              		.loc 1 79 21 is_stmt 0 view .LVU54
 241 0000 10B5     		push	{r4, lr}
 242              		.cfi_def_cfa_offset 8
 243              		.cfi_offset 4, -8
 244              		.cfi_offset 14, -4
 245              		.loc 1 85 16 view .LVU55
 246 0002 0C4C     		ldr	r4, .L14
 247              		.loc 1 79 21 view .LVU56
 248 0004 86B0     		sub	sp, sp, #24
 249              		.cfi_def_cfa_offset 32
 250              		.loc 1 85 16 view .LVU57
 251 0006 0023     		movs	r3, #0
 252              	.LBB26:
 253              	.LBB27:
 254              		.loc 1 101 19 view .LVU58
 255 0008 4FF0FF31 		mov	r1, #-1
 256              		.loc 1 105 19 view .LVU59
 257 000c 0022     		movs	r2, #0
 258              	.LBE27:
 259              	.LBE26:
 260              		.loc 1 87 3 view .LVU60
 261 000e 6846     		mov	r0, sp
 262              		.loc 1 85 16 view .LVU61
 263 0010 A367     		str	r3, [r4, #120]
 264              		.loc 1 86 3 is_stmt 1 view .LVU62
 265              	.LVL7:
 266              	.LBB29:
 267              	.LBI26:
 268              		.loc 1 99 6 view .LVU63
 269              	.LBB28:
 270              		.loc 1 101 3 view .LVU64
 271              		.loc 1 103 19 is_stmt 0 view .LVU65
 272 0012 CDE90133 		strd	r3, r3, [sp, #4]
 273              		.loc 1 104 19 view .LVU66
 274 0016 0393     		str	r3, [sp, #12]
 275              		.loc 1 105 19 view .LVU67
 276 0018 0023     		movs	r3, #0
 277 001a CDE90423 		strd	r2, [sp, #16]
 278              		.loc 1 101 19 view .LVU68
 279 001e 0091     		str	r1, [sp]
 280              		.loc 1 102 3 is_stmt 1 view .LVU69
 281              		.loc 1 103 3 view .LVU70
 282              		.loc 1 104 3 view .LVU71
 283              		.loc 1 105 3 view .LVU72
 284              	.LVL8:
 285              		.loc 1 105 3 is_stmt 0 view .LVU73
ARM GAS  C:\Users\USER\AppData\Local\Temp\ccULuntG.s 			page 6


 286              	.LBE28:
 287              	.LBE29:
 288              		.loc 1 87 3 is_stmt 1 view .LVU74
 289 0020 FFF7FEFF 		bl	chTMStartMeasurementX
 290              	.LVL9:
 291              		.loc 1 88 3 view .LVU75
 292 0024 6846     		mov	r0, sp
 293 0026 FFF7FEFF 		bl	chTMStopMeasurementX
 294              	.LVL10:
 295              		.loc 1 89 3 view .LVU76
 296              		.loc 1 89 16 is_stmt 0 view .LVU77
 297 002a 029B     		ldr	r3, [sp, #8]
 298 002c A367     		str	r3, [r4, #120]
 299              		.loc 1 90 1 view .LVU78
 300 002e 06B0     		add	sp, sp, #24
 301              		.cfi_def_cfa_offset 8
 302              		@ sp needed
 303 0030 10BD     		pop	{r4, pc}
 304              	.L15:
 305 0032 00BF     		.align	2
 306              	.L14:
 307 0034 00000000 		.word	ch
 308              		.cfi_endproc
 309              	.LFE220:
 310              		.size	_tm_init, .-_tm_init
 311              		.section	.text.chTMChainMeasurementToX,"ax",%progbits
 312              		.align	1
 313              		.p2align 4,,15
 314              		.global	chTMChainMeasurementToX
 315              		.syntax unified
 316              		.thumb
 317              		.thumb_func
 318              		.fpu fpv4-sp-d16
 319              		.type	chTMChainMeasurementToX, %function
 320              	chTMChainMeasurementToX:
 321              	.LVL11:
 322              	.LFB224:
 323              		.loc 1 147 65 is_stmt 1 view -0
 324              		.cfi_startproc
 325              		@ args = 0, pretend = 0, frame = 0
 326              		@ frame_needed = 0, uses_anonymous_args = 0
 327              		@ link register save eliminated.
 328              		.loc 1 150 3 view .LVU80
 329              	.LBB30:
 330              	.LBI30:
 331              		.loc 2 546 23 view .LVU81
 332              	.LBB31:
 333              		.loc 2 548 3 view .LVU82
 334              		.loc 2 548 13 is_stmt 0 view .LVU83
 335 0000 0E4B     		ldr	r3, .L20
 336              	.LBE31:
 337              	.LBE30:
 338              	.LBB33:
 339              	.LBB34:
 340              		.loc 1 61 6 view .LVU84
 341 0002 4268     		ldr	r2, [r0, #4]
 342              	.LBE34:
ARM GAS  C:\Users\USER\AppData\Local\Temp\ccULuntG.s 			page 7


 343              	.LBE33:
 344              	.LBB37:
 345              	.LBB32:
 346              		.loc 2 548 13 view .LVU85
 347 0004 5B68     		ldr	r3, [r3, #4]
 348              	.LBE32:
 349              	.LBE37:
 350              		.loc 1 147 65 view .LVU86
 351 0006 F0B4     		push	{r4, r5, r6, r7}
 352              		.cfi_def_cfa_offset 16
 353              		.cfi_offset 4, -16
 354              		.cfi_offset 5, -12
 355              		.cfi_offset 6, -8
 356              		.cfi_offset 7, -4
 357              		.loc 1 150 14 view .LVU87
 358 0008 8B60     		str	r3, [r1, #8]
 359              		.loc 1 153 3 is_stmt 1 view .LVU88
 360              	.LVL12:
 361              	.LBB38:
 362              	.LBI33:
 363              		.loc 1 53 20 view .LVU89
 364              	.LBB35:
 365              		.loc 1 57 3 view .LVU90
 366              		.loc 1 57 9 is_stmt 0 view .LVU91
 367 000a D0E90261 		ldrd	r6, r1, [r0, #8]
 368              	.LVL13:
 369              		.loc 1 59 19 view .LVU92
 370 000e D0E90445 		ldrd	r4, [r0, #16]
 371              		.loc 1 58 20 view .LVU93
 372 0012 9B1B     		subs	r3, r3, r6
 373              	.LVL14:
 374              		.loc 1 59 19 view .LVU94
 375 0014 E618     		adds	r6, r4, r3
 376 0016 45F10007 		adc	r7, r5, #0
 377              		.loc 1 57 9 view .LVU95
 378 001a 0131     		adds	r1, r1, #1
 379              		.loc 1 61 6 view .LVU96
 380 001c 9342     		cmp	r3, r2
 381              		.loc 1 58 13 view .LVU97
 382 001e C0E90231 		strd	r3, r1, [r0, #8]
 383              	.LVL15:
 384              		.loc 1 59 3 is_stmt 1 view .LVU98
 385              		.loc 1 59 19 is_stmt 0 view .LVU99
 386 0022 C0E90467 		strd	r6, [r0, #16]
 387              		.loc 1 61 3 is_stmt 1 view .LVU100
 388              		.loc 1 61 6 is_stmt 0 view .LVU101
 389 0026 02D9     		bls	.L17
 390              		.loc 1 62 5 is_stmt 1 view .LVU102
 391              		.loc 1 62 16 is_stmt 0 view .LVU103
 392 0028 4360     		str	r3, [r0, #4]
 393              	.LBE35:
 394              	.LBE38:
 395              		.loc 1 154 1 view .LVU104
 396 002a F0BC     		pop	{r4, r5, r6, r7}
 397              		.cfi_remember_state
 398              		.cfi_restore 7
 399              		.cfi_restore 6
ARM GAS  C:\Users\USER\AppData\Local\Temp\ccULuntG.s 			page 8


 400              		.cfi_restore 5
 401              		.cfi_restore 4
 402              		.cfi_def_cfa_offset 0
 403 002c 7047     		bx	lr
 404              	.L17:
 405              		.cfi_restore_state
 406              	.LBB39:
 407              	.LBB36:
 408              		.loc 1 64 8 is_stmt 1 view .LVU105
 409              		.loc 1 64 11 is_stmt 0 view .LVU106
 410 002e 0268     		ldr	r2, [r0]
 411 0030 9342     		cmp	r3, r2
 412              		.loc 1 65 5 is_stmt 1 view .LVU107
 413              		.loc 1 65 15 is_stmt 0 view .LVU108
 414 0032 38BF     		it	cc
 415 0034 0360     		strcc	r3, [r0]
 416              	.LVL16:
 417              		.loc 1 65 15 view .LVU109
 418              	.LBE36:
 419              	.LBE39:
 420              		.loc 1 154 1 view .LVU110
 421 0036 F0BC     		pop	{r4, r5, r6, r7}
 422              		.cfi_restore 7
 423              		.cfi_restore 6
 424              		.cfi_restore 5
 425              		.cfi_restore 4
 426              		.cfi_def_cfa_offset 0
 427 0038 7047     		bx	lr
 428              	.L21:
 429 003a 00BF     		.align	2
 430              	.L20:
 431 003c 001000E0 		.word	-536866816
 432              		.cfi_endproc
 433              	.LFE224:
 434              		.size	chTMChainMeasurementToX, .-chTMChainMeasurementToX
 435              		.text
 436              	.Letext0:
 437              		.file 3 "c:\\program files (x86)\\gnu tools arm embedded\\8 2018-q4-major\\arm-none-eabi\\include\
 438              		.file 4 "c:\\program files (x86)\\gnu tools arm embedded\\8 2018-q4-major\\arm-none-eabi\\include\
 439              		.file 5 "src/ChibiOS_3.0.2/os/rt/ports/ARMCMx/compilers/GCC/chtypes.h"
 440              		.file 6 "src/ChibiOS_3.0.2/os/rt/include/chsystypes.h"
 441              		.file 7 "src/ChibiOS_3.0.2/os/rt/include/chschd.h"
 442              		.file 8 "src/ChibiOS_3.0.2/os/ext/CMSIS/include/core_cm4.h"
 443              		.file 9 "src/ChibiOS_3.0.2/os/ext/CMSIS/ST/system_stm32f4xx.h"
 444              		.file 10 "src/ChibiOS_3.0.2/os/rt/ports/ARMCMx/chcore.h"
 445              		.file 11 "src/ChibiOS_3.0.2/os/rt/include/chtm.h"
 446              		.file 12 "src/ChibiOS_3.0.2/os/rt/include/chsem.h"
 447              		.file 13 "src/ChibiOS_3.0.2/os/rt/include/chmtx.h"
 448              		.file 14 "src/ChibiOS_3.0.2/os/rt/include/chregistry.h"
 449              		.section	.debug_info,"",%progbits
 450              	.Ldebug_info0:
 451 0000 CF0C0000 		.4byte	0xccf
 452 0004 0400     		.2byte	0x4
 453 0006 00000000 		.4byte	.Ldebug_abbrev0
 454 000a 04       		.byte	0x4
 455 000b 01       		.uleb128 0x1
 456 000c EE010000 		.4byte	.LASF163
ARM GAS  C:\Users\USER\AppData\Local\Temp\ccULuntG.s 			page 9


 457 0010 0C       		.byte	0xc
 458 0011 5E060000 		.4byte	.LASF164
 459 0015 99070000 		.4byte	.LASF165
 460 0019 88000000 		.4byte	.Ldebug_ranges0+0x88
 461 001d 00000000 		.4byte	0
 462 0021 00000000 		.4byte	.Ldebug_line0
 463 0025 02       		.uleb128 0x2
 464 0026 04       		.byte	0x4
 465 0027 05       		.byte	0x5
 466 0028 696E7400 		.ascii	"int\000"
 467 002c 03       		.uleb128 0x3
 468 002d 04       		.byte	0x4
 469 002e 07       		.byte	0x7
 470 002f 49030000 		.4byte	.LASF0
 471 0033 03       		.uleb128 0x3
 472 0034 01       		.byte	0x1
 473 0035 06       		.byte	0x6
 474 0036 20010000 		.4byte	.LASF1
 475 003a 04       		.uleb128 0x4
 476 003b 36000000 		.4byte	.LASF4
 477 003f 03       		.byte	0x3
 478 0040 2B       		.byte	0x2b
 479 0041 18       		.byte	0x18
 480 0042 46000000 		.4byte	0x46
 481 0046 03       		.uleb128 0x3
 482 0047 01       		.byte	0x1
 483 0048 08       		.byte	0x8
 484 0049 7B050000 		.4byte	.LASF2
 485 004d 03       		.uleb128 0x3
 486 004e 02       		.byte	0x2
 487 004f 05       		.byte	0x5
 488 0050 BE050000 		.4byte	.LASF3
 489 0054 04       		.uleb128 0x4
 490 0055 DB060000 		.4byte	.LASF5
 491 0059 03       		.byte	0x3
 492 005a 39       		.byte	0x39
 493 005b 19       		.byte	0x19
 494 005c 60000000 		.4byte	0x60
 495 0060 03       		.uleb128 0x3
 496 0061 02       		.byte	0x2
 497 0062 07       		.byte	0x7
 498 0063 B8030000 		.4byte	.LASF6
 499 0067 04       		.uleb128 0x4
 500 0068 25040000 		.4byte	.LASF7
 501 006c 03       		.byte	0x3
 502 006d 4D       		.byte	0x4d
 503 006e 18       		.byte	0x18
 504 006f 73000000 		.4byte	0x73
 505 0073 03       		.uleb128 0x3
 506 0074 04       		.byte	0x4
 507 0075 05       		.byte	0x5
 508 0076 A0010000 		.4byte	.LASF8
 509 007a 04       		.uleb128 0x4
 510 007b 2E070000 		.4byte	.LASF9
 511 007f 03       		.byte	0x3
 512 0080 4F       		.byte	0x4f
 513 0081 19       		.byte	0x19
ARM GAS  C:\Users\USER\AppData\Local\Temp\ccULuntG.s 			page 10


 514 0082 86000000 		.4byte	0x86
 515 0086 03       		.uleb128 0x3
 516 0087 04       		.byte	0x4
 517 0088 07       		.byte	0x7
 518 0089 B7060000 		.4byte	.LASF10
 519 008d 03       		.uleb128 0x3
 520 008e 08       		.byte	0x8
 521 008f 05       		.byte	0x5
 522 0090 12010000 		.4byte	.LASF11
 523 0094 04       		.uleb128 0x4
 524 0095 06050000 		.4byte	.LASF12
 525 0099 03       		.byte	0x3
 526 009a 69       		.byte	0x69
 527 009b 19       		.byte	0x19
 528 009c A0000000 		.4byte	0xa0
 529 00a0 03       		.uleb128 0x3
 530 00a1 08       		.byte	0x8
 531 00a2 07       		.byte	0x7
 532 00a3 85000000 		.4byte	.LASF13
 533 00a7 04       		.uleb128 0x4
 534 00a8 D6070000 		.4byte	.LASF14
 535 00ac 04       		.byte	0x4
 536 00ad 18       		.byte	0x18
 537 00ae 13       		.byte	0x13
 538 00af 3A000000 		.4byte	0x3a
 539 00b3 04       		.uleb128 0x4
 540 00b4 06040000 		.4byte	.LASF15
 541 00b8 04       		.byte	0x4
 542 00b9 24       		.byte	0x24
 543 00ba 14       		.byte	0x14
 544 00bb 54000000 		.4byte	0x54
 545 00bf 04       		.uleb128 0x4
 546 00c0 73050000 		.4byte	.LASF16
 547 00c4 04       		.byte	0x4
 548 00c5 2C       		.byte	0x2c
 549 00c6 13       		.byte	0x13
 550 00c7 67000000 		.4byte	0x67
 551 00cb 05       		.uleb128 0x5
 552 00cc BF000000 		.4byte	0xbf
 553 00d0 04       		.uleb128 0x4
 554 00d1 25080000 		.4byte	.LASF17
 555 00d5 04       		.byte	0x4
 556 00d6 30       		.byte	0x30
 557 00d7 14       		.byte	0x14
 558 00d8 7A000000 		.4byte	0x7a
 559 00dc 05       		.uleb128 0x5
 560 00dd D0000000 		.4byte	0xd0
 561 00e1 06       		.uleb128 0x6
 562 00e2 DC000000 		.4byte	0xdc
 563 00e6 04       		.uleb128 0x4
 564 00e7 2D000000 		.4byte	.LASF18
 565 00eb 04       		.byte	0x4
 566 00ec 3C       		.byte	0x3c
 567 00ed 14       		.byte	0x14
 568 00ee 94000000 		.4byte	0x94
 569 00f2 04       		.uleb128 0x4
 570 00f3 86040000 		.4byte	.LASF19
ARM GAS  C:\Users\USER\AppData\Local\Temp\ccULuntG.s 			page 11


 571 00f7 05       		.byte	0x5
 572 00f8 45       		.byte	0x45
 573 00f9 1D       		.byte	0x1d
 574 00fa D0000000 		.4byte	0xd0
 575 00fe 04       		.uleb128 0x4
 576 00ff EB000000 		.4byte	.LASF20
 577 0103 05       		.byte	0x5
 578 0104 46       		.byte	0x46
 579 0105 1D       		.byte	0x1d
 580 0106 E6000000 		.4byte	0xe6
 581 010a 04       		.uleb128 0x4
 582 010b EF050000 		.4byte	.LASF21
 583 010f 05       		.byte	0x5
 584 0110 48       		.byte	0x48
 585 0111 1D       		.byte	0x1d
 586 0112 A7000000 		.4byte	0xa7
 587 0116 04       		.uleb128 0x4
 588 0117 A9010000 		.4byte	.LASF22
 589 011b 05       		.byte	0x5
 590 011c 49       		.byte	0x49
 591 011d 1D       		.byte	0x1d
 592 011e A7000000 		.4byte	0xa7
 593 0122 04       		.uleb128 0x4
 594 0123 1C050000 		.4byte	.LASF23
 595 0127 05       		.byte	0x5
 596 0128 4A       		.byte	0x4a
 597 0129 1D       		.byte	0x1d
 598 012a A7000000 		.4byte	0xa7
 599 012e 04       		.uleb128 0x4
 600 012f AD060000 		.4byte	.LASF24
 601 0133 05       		.byte	0x5
 602 0134 4B       		.byte	0x4b
 603 0135 1D       		.byte	0x1d
 604 0136 A7000000 		.4byte	0xa7
 605 013a 04       		.uleb128 0x4
 606 013b 5A050000 		.4byte	.LASF25
 607 013f 05       		.byte	0x5
 608 0140 4C       		.byte	0x4c
 609 0141 1D       		.byte	0x1d
 610 0142 D0000000 		.4byte	0xd0
 611 0146 04       		.uleb128 0x4
 612 0147 DC030000 		.4byte	.LASF26
 613 014b 05       		.byte	0x5
 614 014c 4D       		.byte	0x4d
 615 014d 1D       		.byte	0x1d
 616 014e BF000000 		.4byte	0xbf
 617 0152 04       		.uleb128 0x4
 618 0153 19040000 		.4byte	.LASF27
 619 0157 05       		.byte	0x5
 620 0158 4F       		.byte	0x4f
 621 0159 1D       		.byte	0x1d
 622 015a D0000000 		.4byte	0xd0
 623 015e 04       		.uleb128 0x4
 624 015f 43030000 		.4byte	.LASF28
 625 0163 05       		.byte	0x5
 626 0164 51       		.byte	0x51
 627 0165 1D       		.byte	0x1d
ARM GAS  C:\Users\USER\AppData\Local\Temp\ccULuntG.s 			page 12


 628 0166 BF000000 		.4byte	0xbf
 629 016a 04       		.uleb128 0x4
 630 016b E7030000 		.4byte	.LASF29
 631 016f 05       		.byte	0x5
 632 0170 52       		.byte	0x52
 633 0171 1D       		.byte	0x1d
 634 0172 D0000000 		.4byte	0xd0
 635 0176 04       		.uleb128 0x4
 636 0177 10070000 		.4byte	.LASF30
 637 017b 06       		.byte	0x6
 638 017c 33       		.byte	0x33
 639 017d 12       		.byte	0x12
 640 017e D0000000 		.4byte	0xd0
 641 0182 05       		.uleb128 0x5
 642 0183 76010000 		.4byte	0x176
 643 0187 04       		.uleb128 0x4
 644 0188 E6060000 		.4byte	.LASF31
 645 018c 06       		.byte	0x6
 646 018d 3F       		.byte	0x3f
 647 018e 1A       		.byte	0x1a
 648 018f 93010000 		.4byte	0x193
 649 0193 07       		.uleb128 0x7
 650 0194 CB030000 		.4byte	.LASF53
 651 0198 48       		.byte	0x48
 652 0199 07       		.byte	0x7
 653 019a C2       		.byte	0xc2
 654 019b 08       		.byte	0x8
 655 019c AD020000 		.4byte	0x2ad
 656 01a0 08       		.uleb128 0x8
 657 01a1 E8050000 		.4byte	.LASF32
 658 01a5 07       		.byte	0x7
 659 01a6 C3       		.byte	0xc3
 660 01a7 1A       		.byte	0x1a
 661 01a8 B9020000 		.4byte	0x2b9
 662 01ac 00       		.byte	0
 663 01ad 08       		.uleb128 0x8
 664 01ae 53050000 		.4byte	.LASF33
 665 01b2 07       		.byte	0x7
 666 01b3 C5       		.byte	0xc5
 667 01b4 1A       		.byte	0x1a
 668 01b5 B9020000 		.4byte	0x2b9
 669 01b9 04       		.byte	0x4
 670 01ba 08       		.uleb128 0x8
 671 01bb F4000000 		.4byte	.LASF34
 672 01bf 07       		.byte	0x7
 673 01c0 C7       		.byte	0xc7
 674 01c1 19       		.byte	0x19
 675 01c2 3A010000 		.4byte	0x13a
 676 01c6 08       		.byte	0x8
 677 01c7 08       		.uleb128 0x8
 678 01c8 DC040000 		.4byte	.LASF35
 679 01cc 07       		.byte	0x7
 680 01cd C8       		.byte	0xc8
 681 01ce 19       		.byte	0x19
 682 01cf 8F060000 		.4byte	0x68f
 683 01d3 0C       		.byte	0xc
 684 01d4 08       		.uleb128 0x8
ARM GAS  C:\Users\USER\AppData\Local\Temp\ccULuntG.s 			page 13


 685 01d5 C5010000 		.4byte	.LASF36
 686 01d9 07       		.byte	0x7
 687 01da CA       		.byte	0xca
 688 01db 1A       		.byte	0x1a
 689 01dc B9020000 		.4byte	0x2b9
 690 01e0 10       		.byte	0x10
 691 01e1 08       		.uleb128 0x8
 692 01e2 CE040000 		.4byte	.LASF37
 693 01e6 07       		.byte	0x7
 694 01e7 CB       		.byte	0xcb
 695 01e8 1A       		.byte	0x1a
 696 01e9 B9020000 		.4byte	0x2b9
 697 01ed 14       		.byte	0x14
 698 01ee 08       		.uleb128 0x8
 699 01ef 00080000 		.4byte	.LASF38
 700 01f3 07       		.byte	0x7
 701 01f4 D2       		.byte	0xd2
 702 01f5 1A       		.byte	0x1a
 703 01f6 57090000 		.4byte	0x957
 704 01fa 18       		.byte	0x18
 705 01fb 08       		.uleb128 0x8
 706 01fc C8050000 		.4byte	.LASF39
 707 0200 07       		.byte	0x7
 708 0201 DD       		.byte	0xdd
 709 0202 19       		.byte	0x19
 710 0203 16010000 		.4byte	0x116
 711 0207 1C       		.byte	0x1c
 712 0208 08       		.uleb128 0x8
 713 0209 06060000 		.4byte	.LASF40
 714 020d 07       		.byte	0x7
 715 020e E1       		.byte	0xe1
 716 020f 19       		.byte	0x19
 717 0210 0A010000 		.4byte	0x10a
 718 0214 1D       		.byte	0x1d
 719 0215 08       		.uleb128 0x8
 720 0216 92070000 		.4byte	.LASF41
 721 021a 07       		.byte	0x7
 722 021b E6       		.byte	0xe6
 723 021c 19       		.byte	0x19
 724 021d 22010000 		.4byte	0x122
 725 0221 1E       		.byte	0x1e
 726 0222 08       		.uleb128 0x8
 727 0223 D0050000 		.4byte	.LASF42
 728 0227 07       		.byte	0x7
 729 0228 EC       		.byte	0xec
 730 0229 19       		.byte	0x19
 731 022a 2E010000 		.4byte	0x12e
 732 022e 1F       		.byte	0x1f
 733 022f 08       		.uleb128 0x8
 734 0230 74030000 		.4byte	.LASF43
 735 0234 07       		.byte	0x7
 736 0235 F3       		.byte	0xf3
 737 0236 19       		.byte	0x19
 738 0237 82010000 		.4byte	0x182
 739 023b 20       		.byte	0x20
 740 023c 09       		.uleb128 0x9
 741 023d 705F7500 		.ascii	"p_u\000"
ARM GAS  C:\Users\USER\AppData\Local\Temp\ccULuntG.s 			page 14


 742 0241 07       		.byte	0x7
 743 0242 3101     		.2byte	0x131
 744 0244 19       		.byte	0x19
 745 0245 83080000 		.4byte	0x883
 746 0249 24       		.byte	0x24
 747 024a 0A       		.uleb128 0xa
 748 024b 7C040000 		.4byte	.LASF44
 749 024f 07       		.byte	0x7
 750 0250 3601     		.2byte	0x136
 751 0252 19       		.byte	0x19
 752 0253 BF020000 		.4byte	0x2bf
 753 0257 28       		.byte	0x28
 754 0258 0A       		.uleb128 0xa
 755 0259 8B030000 		.4byte	.LASF45
 756 025d 07       		.byte	0x7
 757 025e 3C01     		.2byte	0x13c
 758 0260 19       		.byte	0x19
 759 0261 E6020000 		.4byte	0x2e6
 760 0265 2C       		.byte	0x2c
 761 0266 0A       		.uleb128 0xa
 762 0267 D5060000 		.4byte	.LASF46
 763 026b 07       		.byte	0x7
 764 026c 4001     		.2byte	0x140
 765 026e 19       		.byte	0x19
 766 026f 46010000 		.4byte	0x146
 767 0273 34       		.byte	0x34
 768 0274 0A       		.uleb128 0xa
 769 0275 4C060000 		.4byte	.LASF47
 770 0279 07       		.byte	0x7
 771 027a 4601     		.2byte	0x146
 772 027c 19       		.byte	0x19
 773 027d 52010000 		.4byte	0x152
 774 0281 38       		.byte	0x38
 775 0282 0A       		.uleb128 0xa
 776 0283 0F040000 		.4byte	.LASF48
 777 0287 07       		.byte	0x7
 778 0288 4D01     		.2byte	0x14d
 779 028a 1A       		.byte	0x1a
 780 028b 51090000 		.4byte	0x951
 781 028f 3C       		.byte	0x3c
 782 0290 0A       		.uleb128 0xa
 783 0291 1A070000 		.4byte	.LASF49
 784 0295 07       		.byte	0x7
 785 0296 5101     		.2byte	0x151
 786 0298 19       		.byte	0x19
 787 0299 3A010000 		.4byte	0x13a
 788 029d 40       		.byte	0x40
 789 029e 0A       		.uleb128 0xa
 790 029f 49010000 		.4byte	.LASF50
 791 02a3 07       		.byte	0x7
 792 02a4 5801     		.2byte	0x158
 793 02a6 1A       		.byte	0x1a
 794 02a7 A6030000 		.4byte	0x3a6
 795 02ab 44       		.byte	0x44
 796 02ac 00       		.byte	0
 797 02ad 04       		.uleb128 0x4
 798 02ae E6070000 		.4byte	.LASF51
ARM GAS  C:\Users\USER\AppData\Local\Temp\ccULuntG.s 			page 15


 799 02b2 06       		.byte	0x6
 800 02b3 44       		.byte	0x44
 801 02b4 14       		.byte	0x14
 802 02b5 B9020000 		.4byte	0x2b9
 803 02b9 0B       		.uleb128 0xb
 804 02ba 04       		.byte	0x4
 805 02bb 87010000 		.4byte	0x187
 806 02bf 04       		.uleb128 0x4
 807 02c0 52040000 		.4byte	.LASF52
 808 02c4 06       		.byte	0x6
 809 02c5 49       		.byte	0x49
 810 02c6 20       		.byte	0x20
 811 02c7 CB020000 		.4byte	0x2cb
 812 02cb 07       		.uleb128 0x7
 813 02cc 95060000 		.4byte	.LASF54
 814 02d0 04       		.byte	0x4
 815 02d1 07       		.byte	0x7
 816 02d2 B0       		.byte	0xb0
 817 02d3 08       		.byte	0x8
 818 02d4 E6020000 		.4byte	0x2e6
 819 02d8 08       		.uleb128 0x8
 820 02d9 E8050000 		.4byte	.LASF32
 821 02dd 07       		.byte	0x7
 822 02de B1       		.byte	0xb1
 823 02df 1A       		.byte	0x1a
 824 02e0 B9020000 		.4byte	0x2b9
 825 02e4 00       		.byte	0
 826 02e5 00       		.byte	0
 827 02e6 04       		.uleb128 0x4
 828 02e7 18060000 		.4byte	.LASF55
 829 02eb 06       		.byte	0x6
 830 02ec 50       		.byte	0x50
 831 02ed 21       		.byte	0x21
 832 02ee F2020000 		.4byte	0x2f2
 833 02f2 07       		.uleb128 0x7
 834 02f3 4C000000 		.4byte	.LASF56
 835 02f7 08       		.byte	0x8
 836 02f8 07       		.byte	0x7
 837 02f9 B7       		.byte	0xb7
 838 02fa 08       		.byte	0x8
 839 02fb 1A030000 		.4byte	0x31a
 840 02ff 08       		.uleb128 0x8
 841 0300 E8050000 		.4byte	.LASF32
 842 0304 07       		.byte	0x7
 843 0305 B8       		.byte	0xb8
 844 0306 1A       		.byte	0x1a
 845 0307 B9020000 		.4byte	0x2b9
 846 030b 00       		.byte	0
 847 030c 08       		.uleb128 0x8
 848 030d 53050000 		.4byte	.LASF33
 849 0311 07       		.byte	0x7
 850 0312 B9       		.byte	0xb9
 851 0313 1A       		.byte	0x1a
 852 0314 B9020000 		.4byte	0x2b9
 853 0318 04       		.byte	0x4
 854 0319 00       		.byte	0
 855 031a 04       		.uleb128 0x4
ARM GAS  C:\Users\USER\AppData\Local\Temp\ccULuntG.s 			page 16


 856 031b 0D000000 		.4byte	.LASF57
 857 031f 06       		.byte	0x6
 858 0320 57       		.byte	0x57
 859 0321 1E       		.byte	0x1e
 860 0322 26030000 		.4byte	0x326
 861 0326 0C       		.uleb128 0xc
 862 0327 9F030000 		.4byte	.LASF58
 863 032b 1C       		.byte	0x1c
 864 032c 07       		.byte	0x7
 865 032d 9001     		.2byte	0x190
 866 032f 08       		.byte	0x8
 867 0330 89030000 		.4byte	0x389
 868 0334 0A       		.uleb128 0xa
 869 0335 8D060000 		.4byte	.LASF59
 870 0339 07       		.byte	0x7
 871 033a 9101     		.2byte	0x191
 872 033c 19       		.byte	0x19
 873 033d E6020000 		.4byte	0x2e6
 874 0341 00       		.byte	0
 875 0342 0A       		.uleb128 0xa
 876 0343 DA050000 		.4byte	.LASF60
 877 0347 07       		.byte	0x7
 878 0348 9201     		.2byte	0x192
 879 034a 19       		.byte	0x19
 880 034b 3A010000 		.4byte	0x13a
 881 034f 08       		.byte	0x8
 882 0350 0A       		.uleb128 0xa
 883 0351 D6040000 		.4byte	.LASF61
 884 0355 07       		.byte	0x7
 885 0356 9401     		.2byte	0x194
 886 0358 19       		.byte	0x19
 887 0359 8F060000 		.4byte	0x68f
 888 035d 0C       		.byte	0xc
 889 035e 0A       		.uleb128 0xa
 890 035f D5010000 		.4byte	.LASF62
 891 0363 07       		.byte	0x7
 892 0364 9701     		.2byte	0x197
 893 0366 1A       		.byte	0x1a
 894 0367 B9020000 		.4byte	0x2b9
 895 036b 10       		.byte	0x10
 896 036c 0A       		.uleb128 0xa
 897 036d FE040000 		.4byte	.LASF63
 898 0371 07       		.byte	0x7
 899 0372 9801     		.2byte	0x198
 900 0374 1A       		.byte	0x1a
 901 0375 B9020000 		.4byte	0x2b9
 902 0379 14       		.byte	0x14
 903 037a 0A       		.uleb128 0xa
 904 037b F4040000 		.4byte	.LASF64
 905 037f 07       		.byte	0x7
 906 0380 9B01     		.2byte	0x19b
 907 0382 1A       		.byte	0x1a
 908 0383 B9020000 		.4byte	0x2b9
 909 0387 18       		.byte	0x18
 910 0388 00       		.byte	0
 911 0389 04       		.uleb128 0x4
 912 038a 25070000 		.4byte	.LASF65
ARM GAS  C:\Users\USER\AppData\Local\Temp\ccULuntG.s 			page 17


 913 038e 06       		.byte	0x6
 914 038f 5C       		.byte	0x5c
 915 0390 10       		.byte	0x10
 916 0391 95030000 		.4byte	0x395
 917 0395 0B       		.uleb128 0xb
 918 0396 04       		.byte	0x4
 919 0397 9B030000 		.4byte	0x39b
 920 039b 0D       		.uleb128 0xd
 921 039c A6030000 		.4byte	0x3a6
 922 03a0 0E       		.uleb128 0xe
 923 03a1 A6030000 		.4byte	0x3a6
 924 03a5 00       		.byte	0
 925 03a6 0F       		.uleb128 0xf
 926 03a7 04       		.byte	0x4
 927 03a8 04       		.uleb128 0x4
 928 03a9 43050000 		.4byte	.LASF66
 929 03ad 06       		.byte	0x6
 930 03ae 61       		.byte	0x61
 931 03af 21       		.byte	0x21
 932 03b0 B4030000 		.4byte	0x3b4
 933 03b4 0C       		.uleb128 0xc
 934 03b5 5B070000 		.4byte	.LASF67
 935 03b9 14       		.byte	0x14
 936 03ba 07       		.byte	0x7
 937 03bb 6B01     		.2byte	0x16b
 938 03bd 08       		.byte	0x8
 939 03be 09040000 		.4byte	0x409
 940 03c2 0A       		.uleb128 0xa
 941 03c3 56030000 		.4byte	.LASF68
 942 03c7 07       		.byte	0x7
 943 03c8 6C01     		.2byte	0x16c
 944 03ca 1A       		.byte	0x1a
 945 03cb 6E090000 		.4byte	0x96e
 946 03cf 00       		.byte	0
 947 03d0 0A       		.uleb128 0xa
 948 03d1 E6010000 		.4byte	.LASF69
 949 03d5 07       		.byte	0x7
 950 03d6 6D01     		.2byte	0x16d
 951 03d8 1A       		.byte	0x1a
 952 03d9 6E090000 		.4byte	0x96e
 953 03dd 04       		.byte	0x4
 954 03de 0A       		.uleb128 0xa
 955 03df 82030000 		.4byte	.LASF70
 956 03e3 07       		.byte	0x7
 957 03e4 6E01     		.2byte	0x16e
 958 03e6 19       		.byte	0x19
 959 03e7 76010000 		.4byte	0x176
 960 03eb 08       		.byte	0x8
 961 03ec 0A       		.uleb128 0xa
 962 03ed 2E080000 		.4byte	.LASF71
 963 03f1 07       		.byte	0x7
 964 03f2 6F01     		.2byte	0x16f
 965 03f4 19       		.byte	0x19
 966 03f5 89030000 		.4byte	0x389
 967 03f9 0C       		.byte	0xc
 968 03fa 0A       		.uleb128 0xa
 969 03fb 71070000 		.4byte	.LASF72
ARM GAS  C:\Users\USER\AppData\Local\Temp\ccULuntG.s 			page 18


 970 03ff 07       		.byte	0x7
 971 0400 7101     		.2byte	0x171
 972 0402 1A       		.byte	0x1a
 973 0403 A6030000 		.4byte	0x3a6
 974 0407 10       		.byte	0x10
 975 0408 00       		.byte	0
 976 0409 04       		.uleb128 0x4
 977 040a C6000000 		.4byte	.LASF73
 978 040e 06       		.byte	0x6
 979 040f 66       		.byte	0x66
 980 0410 28       		.byte	0x28
 981 0411 15040000 		.4byte	0x415
 982 0415 0C       		.uleb128 0xc
 983 0416 8E040000 		.4byte	.LASF74
 984 041a 10       		.byte	0x10
 985 041b 07       		.byte	0x7
 986 041c 7B01     		.2byte	0x17b
 987 041e 08       		.byte	0x8
 988 041f 5C040000 		.4byte	0x45c
 989 0423 0A       		.uleb128 0xa
 990 0424 56030000 		.4byte	.LASF68
 991 0428 07       		.byte	0x7
 992 0429 7C01     		.2byte	0x17c
 993 042b 1A       		.byte	0x1a
 994 042c 6E090000 		.4byte	0x96e
 995 0430 00       		.byte	0
 996 0431 0A       		.uleb128 0xa
 997 0432 E6010000 		.4byte	.LASF69
 998 0436 07       		.byte	0x7
 999 0437 7E01     		.2byte	0x17e
 1000 0439 1A       		.byte	0x1a
 1001 043a 6E090000 		.4byte	0x96e
 1002 043e 04       		.byte	0x4
 1003 043f 0A       		.uleb128 0xa
 1004 0440 82030000 		.4byte	.LASF70
 1005 0444 07       		.byte	0x7
 1006 0445 8001     		.2byte	0x180
 1007 0447 19       		.byte	0x19
 1008 0448 76010000 		.4byte	0x176
 1009 044c 08       		.byte	0x8
 1010 044d 0A       		.uleb128 0xa
 1011 044e 07080000 		.4byte	.LASF75
 1012 0452 07       		.byte	0x7
 1013 0453 8201     		.2byte	0x182
 1014 0455 19       		.byte	0x19
 1015 0456 82010000 		.4byte	0x182
 1016 045a 0C       		.byte	0xc
 1017 045b 00       		.byte	0
 1018 045c 04       		.uleb128 0x4
 1019 045d 5D000000 		.4byte	.LASF76
 1020 0461 06       		.byte	0x6
 1021 0462 6B       		.byte	0x6b
 1022 0463 20       		.byte	0x20
 1023 0464 68040000 		.4byte	0x468
 1024 0468 0C       		.uleb128 0xc
 1025 0469 1C030000 		.4byte	.LASF77
 1026 046d 04       		.byte	0x4
ARM GAS  C:\Users\USER\AppData\Local\Temp\ccULuntG.s 			page 19


 1027 046e 07       		.byte	0x7
 1028 046f A201     		.2byte	0x1a2
 1029 0471 08       		.byte	0x8
 1030 0472 85040000 		.4byte	0x485
 1031 0476 0A       		.uleb128 0xa
 1032 0477 39070000 		.4byte	.LASF78
 1033 047b 07       		.byte	0x7
 1034 047c AA01     		.2byte	0x1aa
 1035 047e 24       		.byte	0x24
 1036 047f 5D090000 		.4byte	0x95d
 1037 0483 00       		.byte	0
 1038 0484 00       		.byte	0
 1039 0485 04       		.uleb128 0x4
 1040 0486 EE030000 		.4byte	.LASF79
 1041 048a 06       		.byte	0x6
 1042 048b 70       		.byte	0x70
 1043 048c 1A       		.byte	0x1a
 1044 048d 91040000 		.4byte	0x491
 1045 0491 10       		.uleb128 0x10
 1046 0492 0E060000 		.4byte	.LASF80
 1047 0496 5802     		.2byte	0x258
 1048 0498 07       		.byte	0x7
 1049 0499 C201     		.2byte	0x1c2
 1050 049b 08       		.byte	0x8
 1051 049c F4040000 		.4byte	0x4f4
 1052 04a0 0A       		.uleb128 0xa
 1053 04a1 D0070000 		.4byte	.LASF81
 1054 04a5 07       		.byte	0x7
 1055 04a6 C601     		.2byte	0x1c6
 1056 04a8 19       		.byte	0x19
 1057 04a9 1A030000 		.4byte	0x31a
 1058 04ad 00       		.byte	0
 1059 04ae 0A       		.uleb128 0xa
 1060 04af 60010000 		.4byte	.LASF82
 1061 04b3 07       		.byte	0x7
 1062 04b4 CA01     		.2byte	0x1ca
 1063 04b6 19       		.byte	0x19
 1064 04b7 09040000 		.4byte	0x409
 1065 04bb 1C       		.byte	0x1c
 1066 04bc 09       		.uleb128 0x9
 1067 04bd 64626700 		.ascii	"dbg\000"
 1068 04c1 07       		.byte	0x7
 1069 04c2 CE01     		.2byte	0x1ce
 1070 04c4 19       		.byte	0x19
 1071 04c5 5C040000 		.4byte	0x45c
 1072 04c9 2C       		.byte	0x2c
 1073 04ca 0A       		.uleb128 0xa
 1074 04cb B3000000 		.4byte	.LASF83
 1075 04cf 07       		.byte	0x7
 1076 04d0 D201     		.2byte	0x1d2
 1077 04d2 19       		.byte	0x19
 1078 04d3 87010000 		.4byte	0x187
 1079 04d7 30       		.byte	0x30
 1080 04d8 09       		.uleb128 0x9
 1081 04d9 746D00   		.ascii	"tm\000"
 1082 04dc 07       		.byte	0x7
 1083 04dd D701     		.2byte	0x1d7
ARM GAS  C:\Users\USER\AppData\Local\Temp\ccULuntG.s 			page 20


 1084 04df 19       		.byte	0x19
 1085 04e0 22080000 		.4byte	0x822
 1086 04e4 78       		.byte	0x78
 1087 04e5 0A       		.uleb128 0xa
 1088 04e6 34030000 		.4byte	.LASF84
 1089 04ea 07       		.byte	0x7
 1090 04eb E301     		.2byte	0x1e3
 1091 04ed 03       		.byte	0x3
 1092 04ee 74090000 		.4byte	0x974
 1093 04f2 80       		.byte	0x80
 1094 04f3 00       		.byte	0
 1095 04f4 11       		.uleb128 0x11
 1096 04f5 D0000000 		.4byte	0xd0
 1097 04f9 04050000 		.4byte	0x504
 1098 04fd 12       		.uleb128 0x12
 1099 04fe 2C000000 		.4byte	0x2c
 1100 0502 00       		.byte	0
 1101 0503 00       		.byte	0
 1102 0504 13       		.uleb128 0x13
 1103 0505 5C       		.byte	0x5c
 1104 0506 08       		.byte	0x8
 1105 0507 0603     		.2byte	0x306
 1106 0509 09       		.byte	0x9
 1107 050a 51060000 		.4byte	0x651
 1108 050e 0A       		.uleb128 0xa
 1109 050f 6C070000 		.4byte	.LASF85
 1110 0513 08       		.byte	0x8
 1111 0514 0803     		.2byte	0x308
 1112 0516 11       		.byte	0x11
 1113 0517 DC000000 		.4byte	0xdc
 1114 051b 00       		.byte	0
 1115 051c 0A       		.uleb128 0xa
 1116 051d 75040000 		.4byte	.LASF86
 1117 0521 08       		.byte	0x8
 1118 0522 0903     		.2byte	0x309
 1119 0524 11       		.byte	0x11
 1120 0525 DC000000 		.4byte	0xdc
 1121 0529 04       		.byte	0x4
 1122 052a 0A       		.uleb128 0xa
 1123 052b 51010000 		.4byte	.LASF87
 1124 052f 08       		.byte	0x8
 1125 0530 0A03     		.2byte	0x30a
 1126 0532 11       		.byte	0x11
 1127 0533 DC000000 		.4byte	0xdc
 1128 0537 08       		.byte	0x8
 1129 0538 0A       		.uleb128 0xa
 1130 0539 D5030000 		.4byte	.LASF88
 1131 053d 08       		.byte	0x8
 1132 053e 0B03     		.2byte	0x30b
 1133 0540 11       		.byte	0x11
 1134 0541 DC000000 		.4byte	0xdc
 1135 0545 0C       		.byte	0xc
 1136 0546 0A       		.uleb128 0xa
 1137 0547 BC010000 		.4byte	.LASF89
 1138 054b 08       		.byte	0x8
 1139 054c 0C03     		.2byte	0x30c
 1140 054e 11       		.byte	0x11
ARM GAS  C:\Users\USER\AppData\Local\Temp\ccULuntG.s 			page 21


 1141 054f DC000000 		.4byte	0xdc
 1142 0553 10       		.byte	0x10
 1143 0554 0A       		.uleb128 0xa
 1144 0555 57060000 		.4byte	.LASF90
 1145 0559 08       		.byte	0x8
 1146 055a 0D03     		.2byte	0x30d
 1147 055c 11       		.byte	0x11
 1148 055d DC000000 		.4byte	0xdc
 1149 0561 14       		.byte	0x14
 1150 0562 0A       		.uleb128 0xa
 1151 0563 DE070000 		.4byte	.LASF91
 1152 0567 08       		.byte	0x8
 1153 0568 0E03     		.2byte	0x30e
 1154 056a 11       		.byte	0x11
 1155 056b DC000000 		.4byte	0xdc
 1156 056f 18       		.byte	0x18
 1157 0570 0A       		.uleb128 0xa
 1158 0571 62050000 		.4byte	.LASF92
 1159 0575 08       		.byte	0x8
 1160 0576 0F03     		.2byte	0x30f
 1161 0578 11       		.byte	0x11
 1162 0579 E1000000 		.4byte	0xe1
 1163 057d 1C       		.byte	0x1c
 1164 057e 0A       		.uleb128 0xa
 1165 057f 78070000 		.4byte	.LASF93
 1166 0583 08       		.byte	0x8
 1167 0584 1003     		.2byte	0x310
 1168 0586 11       		.byte	0x11
 1169 0587 DC000000 		.4byte	0xdc
 1170 058b 20       		.byte	0x20
 1171 058c 0A       		.uleb128 0xa
 1172 058d 67050000 		.4byte	.LASF94
 1173 0591 08       		.byte	0x8
 1174 0592 1103     		.2byte	0x311
 1175 0594 11       		.byte	0x11
 1176 0595 DC000000 		.4byte	0xdc
 1177 0599 24       		.byte	0x24
 1178 059a 0A       		.uleb128 0xa
 1179 059b 96050000 		.4byte	.LASF95
 1180 059f 08       		.byte	0x8
 1181 05a0 1203     		.2byte	0x312
 1182 05a2 11       		.byte	0x11
 1183 05a3 DC000000 		.4byte	0xdc
 1184 05a7 28       		.byte	0x28
 1185 05a8 0A       		.uleb128 0xa
 1186 05a9 24050000 		.4byte	.LASF96
 1187 05ad 08       		.byte	0x8
 1188 05ae 1303     		.2byte	0x313
 1189 05b0 11       		.byte	0x11
 1190 05b1 F4040000 		.4byte	0x4f4
 1191 05b5 2C       		.byte	0x2c
 1192 05b6 0A       		.uleb128 0xa
 1193 05b7 E2040000 		.4byte	.LASF97
 1194 05bb 08       		.byte	0x8
 1195 05bc 1403     		.2byte	0x314
 1196 05be 11       		.byte	0x11
 1197 05bf DC000000 		.4byte	0xdc
ARM GAS  C:\Users\USER\AppData\Local\Temp\ccULuntG.s 			page 22


 1198 05c3 30       		.byte	0x30
 1199 05c4 0A       		.uleb128 0xa
 1200 05c5 6D050000 		.4byte	.LASF98
 1201 05c9 08       		.byte	0x8
 1202 05ca 1503     		.2byte	0x315
 1203 05cc 11       		.byte	0x11
 1204 05cd DC000000 		.4byte	0xdc
 1205 05d1 34       		.byte	0x34
 1206 05d2 0A       		.uleb128 0xa
 1207 05d3 A0050000 		.4byte	.LASF99
 1208 05d7 08       		.byte	0x8
 1209 05d8 1603     		.2byte	0x316
 1210 05da 11       		.byte	0x11
 1211 05db DC000000 		.4byte	0xdc
 1212 05df 38       		.byte	0x38
 1213 05e0 0A       		.uleb128 0xa
 1214 05e1 28060000 		.4byte	.LASF100
 1215 05e5 08       		.byte	0x8
 1216 05e6 1703     		.2byte	0x317
 1217 05e8 11       		.byte	0x11
 1218 05e9 F4040000 		.4byte	0x4f4
 1219 05ed 3C       		.byte	0x3c
 1220 05ee 0A       		.uleb128 0xa
 1221 05ef E8040000 		.4byte	.LASF101
 1222 05f3 08       		.byte	0x8
 1223 05f4 1803     		.2byte	0x318
 1224 05f6 11       		.byte	0x11
 1225 05f7 DC000000 		.4byte	0xdc
 1226 05fb 40       		.byte	0x40
 1227 05fc 0A       		.uleb128 0xa
 1228 05fd 5E030000 		.4byte	.LASF102
 1229 0601 08       		.byte	0x8
 1230 0602 1903     		.2byte	0x319
 1231 0604 11       		.byte	0x11
 1232 0605 DC000000 		.4byte	0xdc
 1233 0609 44       		.byte	0x44
 1234 060a 0A       		.uleb128 0xa
 1235 060b AA050000 		.4byte	.LASF103
 1236 060f 08       		.byte	0x8
 1237 0610 1A03     		.2byte	0x31a
 1238 0612 11       		.byte	0x11
 1239 0613 DC000000 		.4byte	0xdc
 1240 0617 48       		.byte	0x48
 1241 0618 0A       		.uleb128 0xa
 1242 0619 39050000 		.4byte	.LASF104
 1243 061d 08       		.byte	0x8
 1244 061e 1B03     		.2byte	0x31b
 1245 0620 11       		.byte	0x11
 1246 0621 F4040000 		.4byte	0x4f4
 1247 0625 4C       		.byte	0x4c
 1248 0626 0A       		.uleb128 0xa
 1249 0627 EE040000 		.4byte	.LASF105
 1250 062b 08       		.byte	0x8
 1251 062c 1C03     		.2byte	0x31c
 1252 062e 11       		.byte	0x11
 1253 062f DC000000 		.4byte	0xdc
 1254 0633 50       		.byte	0x50
ARM GAS  C:\Users\USER\AppData\Local\Temp\ccULuntG.s 			page 23


 1255 0634 0A       		.uleb128 0xa
 1256 0635 1A000000 		.4byte	.LASF106
 1257 0639 08       		.byte	0x8
 1258 063a 1D03     		.2byte	0x31d
 1259 063c 11       		.byte	0x11
 1260 063d DC000000 		.4byte	0xdc
 1261 0641 54       		.byte	0x54
 1262 0642 0A       		.uleb128 0xa
 1263 0643 B4050000 		.4byte	.LASF107
 1264 0647 08       		.byte	0x8
 1265 0648 1E03     		.2byte	0x31e
 1266 064a 11       		.byte	0x11
 1267 064b DC000000 		.4byte	0xdc
 1268 064f 58       		.byte	0x58
 1269 0650 00       		.byte	0
 1270 0651 14       		.uleb128 0x14
 1271 0652 52070000 		.4byte	.LASF108
 1272 0656 08       		.byte	0x8
 1273 0657 1F03     		.2byte	0x31f
 1274 0659 03       		.byte	0x3
 1275 065a 04050000 		.4byte	0x504
 1276 065e 15       		.uleb128 0x15
 1277 065f 89050000 		.4byte	.LASF109
 1278 0663 08       		.byte	0x8
 1279 0664 A706     		.2byte	0x6a7
 1280 0666 19       		.byte	0x19
 1281 0667 CB000000 		.4byte	0xcb
 1282 066b 16       		.uleb128 0x16
 1283 066c 64030000 		.4byte	.LASF110
 1284 0670 09       		.byte	0x9
 1285 0671 4C       		.byte	0x4c
 1286 0672 11       		.byte	0x11
 1287 0673 D0000000 		.4byte	0xd0
 1288 0677 04       		.uleb128 0x4
 1289 0678 DD010000 		.4byte	.LASF111
 1290 067c 0A       		.byte	0xa
 1291 067d 65       		.byte	0x65
 1292 067e 0F       		.byte	0xf
 1293 067f A6030000 		.4byte	0x3a6
 1294 0683 04       		.uleb128 0x4
 1295 0684 47040000 		.4byte	.LASF112
 1296 0688 0A       		.byte	0xa
 1297 0689 6D       		.byte	0x6d
 1298 068a 12       		.byte	0x12
 1299 068b E6000000 		.4byte	0xe6
 1300 068f 07       		.uleb128 0x7
 1301 0690 4A070000 		.4byte	.LASF113
 1302 0694 04       		.byte	0x4
 1303 0695 0A       		.byte	0xa
 1304 0696 89       		.byte	0x89
 1305 0697 08       		.byte	0x8
 1306 0698 AA060000 		.4byte	0x6aa
 1307 069c 17       		.uleb128 0x17
 1308 069d 72313300 		.ascii	"r13\000"
 1309 06a1 0A       		.byte	0xa
 1310 06a2 8A       		.byte	0x8a
 1311 06a3 17       		.byte	0x17
ARM GAS  C:\Users\USER\AppData\Local\Temp\ccULuntG.s 			page 24


 1312 06a4 05080000 		.4byte	0x805
 1313 06a8 00       		.byte	0
 1314 06a9 00       		.byte	0
 1315 06aa 07       		.uleb128 0x7
 1316 06ab 40000000 		.4byte	.LASF114
 1317 06af 64       		.byte	0x64
 1318 06b0 02       		.byte	0x2
 1319 06b1 F4       		.byte	0xf4
 1320 06b2 08       		.byte	0x8
 1321 06b3 05080000 		.4byte	0x805
 1322 06b7 17       		.uleb128 0x17
 1323 06b8 73313600 		.ascii	"s16\000"
 1324 06bc 02       		.byte	0x2
 1325 06bd F6       		.byte	0xf6
 1326 06be 11       		.byte	0x11
 1327 06bf 77060000 		.4byte	0x677
 1328 06c3 00       		.byte	0
 1329 06c4 17       		.uleb128 0x17
 1330 06c5 73313700 		.ascii	"s17\000"
 1331 06c9 02       		.byte	0x2
 1332 06ca F7       		.byte	0xf7
 1333 06cb 11       		.byte	0x11
 1334 06cc 77060000 		.4byte	0x677
 1335 06d0 04       		.byte	0x4
 1336 06d1 17       		.uleb128 0x17
 1337 06d2 73313800 		.ascii	"s18\000"
 1338 06d6 02       		.byte	0x2
 1339 06d7 F8       		.byte	0xf8
 1340 06d8 11       		.byte	0x11
 1341 06d9 77060000 		.4byte	0x677
 1342 06dd 08       		.byte	0x8
 1343 06de 17       		.uleb128 0x17
 1344 06df 73313900 		.ascii	"s19\000"
 1345 06e3 02       		.byte	0x2
 1346 06e4 F9       		.byte	0xf9
 1347 06e5 11       		.byte	0x11
 1348 06e6 77060000 		.4byte	0x677
 1349 06ea 0C       		.byte	0xc
 1350 06eb 17       		.uleb128 0x17
 1351 06ec 73323000 		.ascii	"s20\000"
 1352 06f0 02       		.byte	0x2
 1353 06f1 FA       		.byte	0xfa
 1354 06f2 11       		.byte	0x11
 1355 06f3 77060000 		.4byte	0x677
 1356 06f7 10       		.byte	0x10
 1357 06f8 17       		.uleb128 0x17
 1358 06f9 73323100 		.ascii	"s21\000"
 1359 06fd 02       		.byte	0x2
 1360 06fe FB       		.byte	0xfb
 1361 06ff 11       		.byte	0x11
 1362 0700 77060000 		.4byte	0x677
 1363 0704 14       		.byte	0x14
 1364 0705 17       		.uleb128 0x17
 1365 0706 73323200 		.ascii	"s22\000"
 1366 070a 02       		.byte	0x2
 1367 070b FC       		.byte	0xfc
 1368 070c 11       		.byte	0x11
ARM GAS  C:\Users\USER\AppData\Local\Temp\ccULuntG.s 			page 25


 1369 070d 77060000 		.4byte	0x677
 1370 0711 18       		.byte	0x18
 1371 0712 17       		.uleb128 0x17
 1372 0713 73323300 		.ascii	"s23\000"
 1373 0717 02       		.byte	0x2
 1374 0718 FD       		.byte	0xfd
 1375 0719 11       		.byte	0x11
 1376 071a 77060000 		.4byte	0x677
 1377 071e 1C       		.byte	0x1c
 1378 071f 17       		.uleb128 0x17
 1379 0720 73323400 		.ascii	"s24\000"
 1380 0724 02       		.byte	0x2
 1381 0725 FE       		.byte	0xfe
 1382 0726 11       		.byte	0x11
 1383 0727 77060000 		.4byte	0x677
 1384 072b 20       		.byte	0x20
 1385 072c 17       		.uleb128 0x17
 1386 072d 73323500 		.ascii	"s25\000"
 1387 0731 02       		.byte	0x2
 1388 0732 FF       		.byte	0xff
 1389 0733 11       		.byte	0x11
 1390 0734 77060000 		.4byte	0x677
 1391 0738 24       		.byte	0x24
 1392 0739 09       		.uleb128 0x9
 1393 073a 73323600 		.ascii	"s26\000"
 1394 073e 02       		.byte	0x2
 1395 073f 0001     		.2byte	0x100
 1396 0741 11       		.byte	0x11
 1397 0742 77060000 		.4byte	0x677
 1398 0746 28       		.byte	0x28
 1399 0747 09       		.uleb128 0x9
 1400 0748 73323700 		.ascii	"s27\000"
 1401 074c 02       		.byte	0x2
 1402 074d 0101     		.2byte	0x101
 1403 074f 11       		.byte	0x11
 1404 0750 77060000 		.4byte	0x677
 1405 0754 2C       		.byte	0x2c
 1406 0755 09       		.uleb128 0x9
 1407 0756 73323800 		.ascii	"s28\000"
 1408 075a 02       		.byte	0x2
 1409 075b 0201     		.2byte	0x102
 1410 075d 11       		.byte	0x11
 1411 075e 77060000 		.4byte	0x677
 1412 0762 30       		.byte	0x30
 1413 0763 09       		.uleb128 0x9
 1414 0764 73323900 		.ascii	"s29\000"
 1415 0768 02       		.byte	0x2
 1416 0769 0301     		.2byte	0x103
 1417 076b 11       		.byte	0x11
 1418 076c 77060000 		.4byte	0x677
 1419 0770 34       		.byte	0x34
 1420 0771 09       		.uleb128 0x9
 1421 0772 73333000 		.ascii	"s30\000"
 1422 0776 02       		.byte	0x2
 1423 0777 0401     		.2byte	0x104
 1424 0779 11       		.byte	0x11
 1425 077a 77060000 		.4byte	0x677
ARM GAS  C:\Users\USER\AppData\Local\Temp\ccULuntG.s 			page 26


 1426 077e 38       		.byte	0x38
 1427 077f 09       		.uleb128 0x9
 1428 0780 73333100 		.ascii	"s31\000"
 1429 0784 02       		.byte	0x2
 1430 0785 0501     		.2byte	0x105
 1431 0787 11       		.byte	0x11
 1432 0788 77060000 		.4byte	0x677
 1433 078c 3C       		.byte	0x3c
 1434 078d 09       		.uleb128 0x9
 1435 078e 723400   		.ascii	"r4\000"
 1436 0791 02       		.byte	0x2
 1437 0792 0701     		.2byte	0x107
 1438 0794 11       		.byte	0x11
 1439 0795 77060000 		.4byte	0x677
 1440 0799 40       		.byte	0x40
 1441 079a 09       		.uleb128 0x9
 1442 079b 723500   		.ascii	"r5\000"
 1443 079e 02       		.byte	0x2
 1444 079f 0801     		.2byte	0x108
 1445 07a1 11       		.byte	0x11
 1446 07a2 77060000 		.4byte	0x677
 1447 07a6 44       		.byte	0x44
 1448 07a7 09       		.uleb128 0x9
 1449 07a8 723600   		.ascii	"r6\000"
 1450 07ab 02       		.byte	0x2
 1451 07ac 0901     		.2byte	0x109
 1452 07ae 11       		.byte	0x11
 1453 07af 77060000 		.4byte	0x677
 1454 07b3 48       		.byte	0x48
 1455 07b4 09       		.uleb128 0x9
 1456 07b5 723700   		.ascii	"r7\000"
 1457 07b8 02       		.byte	0x2
 1458 07b9 0A01     		.2byte	0x10a
 1459 07bb 11       		.byte	0x11
 1460 07bc 77060000 		.4byte	0x677
 1461 07c0 4C       		.byte	0x4c
 1462 07c1 09       		.uleb128 0x9
 1463 07c2 723800   		.ascii	"r8\000"
 1464 07c5 02       		.byte	0x2
 1465 07c6 0B01     		.2byte	0x10b
 1466 07c8 11       		.byte	0x11
 1467 07c9 77060000 		.4byte	0x677
 1468 07cd 50       		.byte	0x50
 1469 07ce 09       		.uleb128 0x9
 1470 07cf 723900   		.ascii	"r9\000"
 1471 07d2 02       		.byte	0x2
 1472 07d3 0C01     		.2byte	0x10c
 1473 07d5 11       		.byte	0x11
 1474 07d6 77060000 		.4byte	0x677
 1475 07da 54       		.byte	0x54
 1476 07db 09       		.uleb128 0x9
 1477 07dc 72313000 		.ascii	"r10\000"
 1478 07e0 02       		.byte	0x2
 1479 07e1 0D01     		.2byte	0x10d
 1480 07e3 11       		.byte	0x11
 1481 07e4 77060000 		.4byte	0x677
 1482 07e8 58       		.byte	0x58
ARM GAS  C:\Users\USER\AppData\Local\Temp\ccULuntG.s 			page 27


 1483 07e9 09       		.uleb128 0x9
 1484 07ea 72313100 		.ascii	"r11\000"
 1485 07ee 02       		.byte	0x2
 1486 07ef 0E01     		.2byte	0x10e
 1487 07f1 11       		.byte	0x11
 1488 07f2 77060000 		.4byte	0x677
 1489 07f6 5C       		.byte	0x5c
 1490 07f7 09       		.uleb128 0x9
 1491 07f8 6C7200   		.ascii	"lr\000"
 1492 07fb 02       		.byte	0x2
 1493 07fc 0F01     		.2byte	0x10f
 1494 07fe 11       		.byte	0x11
 1495 07ff 77060000 		.4byte	0x677
 1496 0803 60       		.byte	0x60
 1497 0804 00       		.byte	0
 1498 0805 0B       		.uleb128 0xb
 1499 0806 04       		.byte	0x4
 1500 0807 AA060000 		.4byte	0x6aa
 1501 080b 18       		.uleb128 0x18
 1502 080c 04       		.byte	0x4
 1503 080d 0B       		.byte	0xb
 1504 080e 38       		.byte	0x38
 1505 080f 09       		.byte	0x9
 1506 0810 22080000 		.4byte	0x822
 1507 0814 08       		.uleb128 0x8
 1508 0815 43070000 		.4byte	.LASF115
 1509 0819 0B       		.byte	0xb
 1510 081a 3C       		.byte	0x3c
 1511 081b 19       		.byte	0x19
 1512 081c F2000000 		.4byte	0xf2
 1513 0820 00       		.byte	0
 1514 0821 00       		.byte	0
 1515 0822 04       		.uleb128 0x4
 1516 0823 B1040000 		.4byte	.LASF116
 1517 0827 0B       		.byte	0xb
 1518 0828 3D       		.byte	0x3d
 1519 0829 03       		.byte	0x3
 1520 082a 0B080000 		.4byte	0x80b
 1521 082e 18       		.uleb128 0x18
 1522 082f 18       		.byte	0x18
 1523 0830 0B       		.byte	0xb
 1524 0831 48       		.byte	0x48
 1525 0832 09       		.byte	0x9
 1526 0833 77080000 		.4byte	0x877
 1527 0837 08       		.uleb128 0x8
 1528 0838 B3030000 		.4byte	.LASF117
 1529 083c 0B       		.byte	0xb
 1530 083d 49       		.byte	0x49
 1531 083e 19       		.byte	0x19
 1532 083f F2000000 		.4byte	0xf2
 1533 0843 00       		.byte	0
 1534 0844 08       		.uleb128 0x8
 1535 0845 6C000000 		.4byte	.LASF118
 1536 0849 0B       		.byte	0xb
 1537 084a 4A       		.byte	0x4a
 1538 084b 19       		.byte	0x19
 1539 084c F2000000 		.4byte	0xf2
ARM GAS  C:\Users\USER\AppData\Local\Temp\ccULuntG.s 			page 28


 1540 0850 04       		.byte	0x4
 1541 0851 08       		.uleb128 0x8
 1542 0852 E2030000 		.4byte	.LASF119
 1543 0856 0B       		.byte	0xb
 1544 0857 4B       		.byte	0x4b
 1545 0858 19       		.byte	0x19
 1546 0859 F2000000 		.4byte	0xf2
 1547 085d 08       		.byte	0x8
 1548 085e 17       		.uleb128 0x17
 1549 085f 6E00     		.ascii	"n\000"
 1550 0861 0B       		.byte	0xb
 1551 0862 4C       		.byte	0x4c
 1552 0863 19       		.byte	0x19
 1553 0864 6A010000 		.4byte	0x16a
 1554 0868 0C       		.byte	0xc
 1555 0869 08       		.uleb128 0x8
 1556 086a 11050000 		.4byte	.LASF120
 1557 086e 0B       		.byte	0xb
 1558 086f 4D       		.byte	0x4d
 1559 0870 19       		.byte	0x19
 1560 0871 FE000000 		.4byte	0xfe
 1561 0875 10       		.byte	0x10
 1562 0876 00       		.byte	0
 1563 0877 04       		.uleb128 0x4
 1564 0878 72000000 		.4byte	.LASF121
 1565 087c 0B       		.byte	0xb
 1566 087d 4E       		.byte	0x4e
 1567 087e 03       		.byte	0x3
 1568 087f 2E080000 		.4byte	0x82e
 1569 0883 19       		.uleb128 0x19
 1570 0884 04       		.byte	0x4
 1571 0885 07       		.byte	0x7
 1572 0886 FA       		.byte	0xfa
 1573 0887 03       		.byte	0x3
 1574 0888 E8080000 		.4byte	0x8e8
 1575 088c 1A       		.uleb128 0x1a
 1576 088d 26000000 		.4byte	.LASF122
 1577 0891 07       		.byte	0x7
 1578 0892 0101     		.2byte	0x101
 1579 0894 19       		.byte	0x19
 1580 0895 46010000 		.4byte	0x146
 1581 0899 1A       		.uleb128 0x1a
 1582 089a AA000000 		.4byte	.LASF123
 1583 089e 07       		.byte	0x7
 1584 089f 0801     		.2byte	0x108
 1585 08a1 19       		.byte	0x19
 1586 08a2 46010000 		.4byte	0x146
 1587 08a6 1A       		.uleb128 0x1a
 1588 08a7 F9070000 		.4byte	.LASF124
 1589 08ab 07       		.byte	0x7
 1590 08ac 0F01     		.2byte	0x10f
 1591 08ae 1A       		.byte	0x1a
 1592 08af A6030000 		.4byte	0x3a6
 1593 08b3 1A       		.uleb128 0x1a
 1594 08b4 20000000 		.4byte	.LASF125
 1595 08b8 07       		.byte	0x7
 1596 08b9 1601     		.2byte	0x116
ARM GAS  C:\Users\USER\AppData\Local\Temp\ccULuntG.s 			page 29


 1597 08bb 1A       		.byte	0x1a
 1598 08bc E8080000 		.4byte	0x8e8
 1599 08c0 1A       		.uleb128 0x1a
 1600 08c1 7B030000 		.4byte	.LASF126
 1601 08c5 07       		.byte	0x7
 1602 08c6 1E01     		.2byte	0x11e
 1603 08c8 1A       		.byte	0x1a
 1604 08c9 16090000 		.4byte	0x916
 1605 08cd 1A       		.uleb128 0x1a
 1606 08ce CE060000 		.4byte	.LASF127
 1607 08d2 07       		.byte	0x7
 1608 08d3 2701     		.2byte	0x127
 1609 08d5 1A       		.byte	0x1a
 1610 08d6 51090000 		.4byte	0x951
 1611 08da 1A       		.uleb128 0x1a
 1612 08db E1050000 		.4byte	.LASF128
 1613 08df 07       		.byte	0x7
 1614 08e0 2F01     		.2byte	0x12f
 1615 08e2 19       		.byte	0x19
 1616 08e3 52010000 		.4byte	0x152
 1617 08e7 00       		.byte	0
 1618 08e8 0B       		.uleb128 0xb
 1619 08e9 04       		.byte	0x4
 1620 08ea AD020000 		.4byte	0x2ad
 1621 08ee 07       		.uleb128 0x7
 1622 08ef 3F060000 		.4byte	.LASF129
 1623 08f3 0C       		.byte	0xc
 1624 08f4 0C       		.byte	0xc
 1625 08f5 34       		.byte	0x34
 1626 08f6 10       		.byte	0x10
 1627 08f7 16090000 		.4byte	0x916
 1628 08fb 08       		.uleb128 0x8
 1629 08fc CD010000 		.4byte	.LASF130
 1630 0900 0C       		.byte	0xc
 1631 0901 35       		.byte	0x35
 1632 0902 19       		.byte	0x19
 1633 0903 E6020000 		.4byte	0x2e6
 1634 0907 00       		.byte	0
 1635 0908 08       		.uleb128 0x8
 1636 0909 AD030000 		.4byte	.LASF131
 1637 090d 0C       		.byte	0xc
 1638 090e 37       		.byte	0x37
 1639 090f 19       		.byte	0x19
 1640 0910 5E010000 		.4byte	0x15e
 1641 0914 08       		.byte	0x8
 1642 0915 00       		.byte	0
 1643 0916 0B       		.uleb128 0xb
 1644 0917 04       		.byte	0x4
 1645 0918 EE080000 		.4byte	0x8ee
 1646 091c 07       		.uleb128 0x7
 1647 091d 89070000 		.4byte	.LASF132
 1648 0921 10       		.byte	0x10
 1649 0922 0D       		.byte	0xd
 1650 0923 39       		.byte	0x39
 1651 0924 08       		.byte	0x8
 1652 0925 51090000 		.4byte	0x951
 1653 0929 08       		.uleb128 0x8
ARM GAS  C:\Users\USER\AppData\Local\Temp\ccULuntG.s 			page 30


 1654 092a 58010000 		.4byte	.LASF133
 1655 092e 0D       		.byte	0xd
 1656 092f 3A       		.byte	0x3a
 1657 0930 19       		.byte	0x19
 1658 0931 E6020000 		.4byte	0x2e6
 1659 0935 00       		.byte	0
 1660 0936 08       		.uleb128 0x8
 1661 0937 1D080000 		.4byte	.LASF134
 1662 093b 0D       		.byte	0xd
 1663 093c 3C       		.byte	0x3c
 1664 093d 1A       		.byte	0x1a
 1665 093e B9020000 		.4byte	0x2b9
 1666 0942 08       		.byte	0x8
 1667 0943 08       		.uleb128 0x8
 1668 0944 09070000 		.4byte	.LASF135
 1669 0948 0D       		.byte	0xd
 1670 0949 3E       		.byte	0x3e
 1671 094a 1A       		.byte	0x1a
 1672 094b BD0A0000 		.4byte	0xabd
 1673 094f 0C       		.byte	0xc
 1674 0950 00       		.byte	0
 1675 0951 0B       		.uleb128 0xb
 1676 0952 04       		.byte	0x4
 1677 0953 1C090000 		.4byte	0x91c
 1678 0957 0B       		.uleb128 0xb
 1679 0958 04       		.byte	0x4
 1680 0959 69090000 		.4byte	0x969
 1681 095d 05       		.uleb128 0x5
 1682 095e 57090000 		.4byte	0x957
 1683 0962 03       		.uleb128 0x3
 1684 0963 01       		.byte	0x1
 1685 0964 08       		.byte	0x8
 1686 0965 C9060000 		.4byte	.LASF136
 1687 0969 06       		.uleb128 0x6
 1688 096a 62090000 		.4byte	0x962
 1689 096e 0B       		.uleb128 0xb
 1690 096f 04       		.byte	0x4
 1691 0970 A8030000 		.4byte	0x3a8
 1692 0974 11       		.uleb128 0x11
 1693 0975 83060000 		.4byte	0x683
 1694 0979 84090000 		.4byte	0x984
 1695 097d 12       		.uleb128 0x12
 1696 097e 2C000000 		.4byte	0x2c
 1697 0982 3A       		.byte	0x3a
 1698 0983 00       		.byte	0
 1699 0984 1B       		.uleb128 0x1b
 1700 0985 636800   		.ascii	"ch\000"
 1701 0988 07       		.byte	0x7
 1702 0989 0902     		.2byte	0x209
 1703 098b 14       		.byte	0x14
 1704 098c 85040000 		.4byte	0x485
 1705 0990 18       		.uleb128 0x18
 1706 0991 16       		.byte	0x16
 1707 0992 0E       		.byte	0xe
 1708 0993 34       		.byte	0x34
 1709 0994 09       		.byte	0x9
 1710 0995 840A0000 		.4byte	0xa84
ARM GAS  C:\Users\USER\AppData\Local\Temp\ccULuntG.s 			page 31


 1711 0999 08       		.uleb128 0x8
 1712 099a 67010000 		.4byte	.LASF137
 1713 099e 0E       		.byte	0xe
 1714 099f 35       		.byte	0x35
 1715 09a0 0D       		.byte	0xd
 1716 09a1 840A0000 		.4byte	0xa84
 1717 09a5 00       		.byte	0
 1718 09a6 08       		.uleb128 0x8
 1719 09a7 61040000 		.4byte	.LASF138
 1720 09ab 0E       		.byte	0xe
 1721 09ac 36       		.byte	0x36
 1722 09ad 0D       		.byte	0xd
 1723 09ae A7000000 		.4byte	0xa7
 1724 09b2 04       		.byte	0x4
 1725 09b3 08       		.uleb128 0x8
 1726 09b4 A5060000 		.4byte	.LASF139
 1727 09b8 0E       		.byte	0xe
 1728 09b9 37       		.byte	0x37
 1729 09ba 0D       		.byte	0xd
 1730 09bb A7000000 		.4byte	0xa7
 1731 09bf 05       		.byte	0x5
 1732 09c0 08       		.uleb128 0x8
 1733 09c1 12080000 		.4byte	.LASF140
 1734 09c5 0E       		.byte	0xe
 1735 09c6 38       		.byte	0x38
 1736 09c7 0D       		.byte	0xd
 1737 09c8 B3000000 		.4byte	0xb3
 1738 09cc 06       		.byte	0x6
 1739 09cd 08       		.uleb128 0x8
 1740 09ce 2E050000 		.4byte	.LASF141
 1741 09d2 0E       		.byte	0xe
 1742 09d3 39       		.byte	0x39
 1743 09d4 0D       		.byte	0xd
 1744 09d5 A7000000 		.4byte	0xa7
 1745 09d9 08       		.byte	0x8
 1746 09da 08       		.uleb128 0x8
 1747 09db A5040000 		.4byte	.LASF142
 1748 09df 0E       		.byte	0xe
 1749 09e0 3A       		.byte	0x3a
 1750 09e1 0D       		.byte	0xd
 1751 09e2 A7000000 		.4byte	0xa7
 1752 09e6 09       		.byte	0x9
 1753 09e7 08       		.uleb128 0x8
 1754 09e8 9C000000 		.4byte	.LASF143
 1755 09ec 0E       		.byte	0xe
 1756 09ed 3B       		.byte	0x3b
 1757 09ee 0D       		.byte	0xd
 1758 09ef A7000000 		.4byte	0xa7
 1759 09f3 0A       		.byte	0xa
 1760 09f4 08       		.uleb128 0x8
 1761 09f5 81060000 		.4byte	.LASF144
 1762 09f9 0E       		.byte	0xe
 1763 09fa 3C       		.byte	0x3c
 1764 09fb 0D       		.byte	0xd
 1765 09fc A7000000 		.4byte	0xa7
 1766 0a00 0B       		.byte	0xb
 1767 0a01 08       		.uleb128 0x8
ARM GAS  C:\Users\USER\AppData\Local\Temp\ccULuntG.s 			page 32


 1768 0a02 7E070000 		.4byte	.LASF145
 1769 0a06 0E       		.byte	0xe
 1770 0a07 3D       		.byte	0x3d
 1771 0a08 0D       		.byte	0xd
 1772 0a09 A7000000 		.4byte	0xa7
 1773 0a0d 0C       		.byte	0xc
 1774 0a0e 08       		.uleb128 0x8
 1775 0a0f 32060000 		.4byte	.LASF146
 1776 0a13 0E       		.byte	0xe
 1777 0a14 3E       		.byte	0x3e
 1778 0a15 0D       		.byte	0xd
 1779 0a16 A7000000 		.4byte	0xa7
 1780 0a1a 0D       		.byte	0xd
 1781 0a1b 08       		.uleb128 0x8
 1782 0a1c 00000000 		.4byte	.LASF147
 1783 0a20 0E       		.byte	0xe
 1784 0a21 3F       		.byte	0x3f
 1785 0a22 0D       		.byte	0xd
 1786 0a23 A7000000 		.4byte	0xa7
 1787 0a27 0E       		.byte	0xe
 1788 0a28 08       		.uleb128 0x8
 1789 0a29 C2040000 		.4byte	.LASF148
 1790 0a2d 0E       		.byte	0xe
 1791 0a2e 40       		.byte	0x40
 1792 0a2f 0D       		.byte	0xd
 1793 0a30 A7000000 		.4byte	0xa7
 1794 0a34 0F       		.byte	0xf
 1795 0a35 08       		.uleb128 0x8
 1796 0a36 2C010000 		.4byte	.LASF149
 1797 0a3a 0E       		.byte	0xe
 1798 0a3b 41       		.byte	0x41
 1799 0a3c 0D       		.byte	0xd
 1800 0a3d A7000000 		.4byte	0xa7
 1801 0a41 10       		.byte	0x10
 1802 0a42 08       		.uleb128 0x8
 1803 0a43 FB000000 		.4byte	.LASF150
 1804 0a47 0E       		.byte	0xe
 1805 0a48 43       		.byte	0x43
 1806 0a49 0D       		.byte	0xd
 1807 0a4a A7000000 		.4byte	0xa7
 1808 0a4e 11       		.byte	0x11
 1809 0a4f 08       		.uleb128 0x8
 1810 0a50 3C010000 		.4byte	.LASF151
 1811 0a54 0E       		.byte	0xe
 1812 0a55 44       		.byte	0x44
 1813 0a56 0D       		.byte	0xd
 1814 0a57 A7000000 		.4byte	0xa7
 1815 0a5b 12       		.byte	0x12
 1816 0a5c 08       		.uleb128 0x8
 1817 0a5d 69040000 		.4byte	.LASF152
 1818 0a61 0E       		.byte	0xe
 1819 0a62 45       		.byte	0x45
 1820 0a63 0D       		.byte	0xd
 1821 0a64 A7000000 		.4byte	0xa7
 1822 0a68 13       		.byte	0x13
 1823 0a69 08       		.uleb128 0x8
 1824 0a6a F7050000 		.4byte	.LASF153
ARM GAS  C:\Users\USER\AppData\Local\Temp\ccULuntG.s 			page 33


 1825 0a6e 0E       		.byte	0xe
 1826 0a6f 46       		.byte	0x46
 1827 0a70 0D       		.byte	0xd
 1828 0a71 A7000000 		.4byte	0xa7
 1829 0a75 14       		.byte	0x14
 1830 0a76 08       		.uleb128 0x8
 1831 0a77 FA030000 		.4byte	.LASF154
 1832 0a7b 0E       		.byte	0xe
 1833 0a7c 48       		.byte	0x48
 1834 0a7d 0D       		.byte	0xd
 1835 0a7e A7000000 		.4byte	0xa7
 1836 0a82 15       		.byte	0x15
 1837 0a83 00       		.byte	0
 1838 0a84 11       		.uleb128 0x11
 1839 0a85 62090000 		.4byte	0x962
 1840 0a89 940A0000 		.4byte	0xa94
 1841 0a8d 12       		.uleb128 0x12
 1842 0a8e 2C000000 		.4byte	0x2c
 1843 0a92 03       		.byte	0x3
 1844 0a93 00       		.byte	0
 1845 0a94 04       		.uleb128 0x4
 1846 0a95 B2010000 		.4byte	.LASF155
 1847 0a99 0E       		.byte	0xe
 1848 0a9a 49       		.byte	0x49
 1849 0a9b 03       		.byte	0x3
 1850 0a9c 90090000 		.4byte	0x990
 1851 0aa0 06       		.uleb128 0x6
 1852 0aa1 940A0000 		.4byte	0xa94
 1853 0aa5 16       		.uleb128 0x16
 1854 0aa6 96030000 		.4byte	.LASF156
 1855 0aaa 0E       		.byte	0xe
 1856 0aab 6E       		.byte	0x6e
 1857 0aac 1D       		.byte	0x1d
 1858 0aad A00A0000 		.4byte	0xaa0
 1859 0ab1 04       		.uleb128 0x4
 1860 0ab2 2C030000 		.4byte	.LASF157
 1861 0ab6 0D       		.byte	0xd
 1862 0ab7 34       		.byte	0x34
 1863 0ab8 19       		.byte	0x19
 1864 0ab9 1C090000 		.4byte	0x91c
 1865 0abd 0B       		.uleb128 0xb
 1866 0abe 04       		.byte	0x4
 1867 0abf B10A0000 		.4byte	0xab1
 1868 0ac3 1C       		.uleb128 0x1c
 1869 0ac4 2F040000 		.4byte	.LASF158
 1870 0ac8 01       		.byte	0x1
 1871 0ac9 92       		.byte	0x92
 1872 0aca 0F       		.byte	0xf
 1873 0acb 00000000 		.4byte	.LFB224
 1874 0acf 40000000 		.4byte	.LFE224-.LFB224
 1875 0ad3 01       		.uleb128 0x1
 1876 0ad4 9C       		.byte	0x9c
 1877 0ad5 460B0000 		.4byte	0xb46
 1878 0ad9 1D       		.uleb128 0x1d
 1879 0ada 08010000 		.4byte	.LASF160
 1880 0ade 01       		.byte	0x1
 1881 0adf 92       		.byte	0x92
ARM GAS  C:\Users\USER\AppData\Local\Temp\ccULuntG.s 			page 34


 1882 0ae0 3B       		.byte	0x3b
 1883 0ae1 460B0000 		.4byte	0xb46
 1884 0ae5 01       		.uleb128 0x1
 1885 0ae6 50       		.byte	0x50
 1886 0ae7 1E       		.uleb128 0x1e
 1887 0ae8 0D010000 		.4byte	.LASF166
 1888 0aec 01       		.byte	0x1
 1889 0aed 93       		.byte	0x93
 1890 0aee 3B       		.byte	0x3b
 1891 0aef 460B0000 		.4byte	0xb46
 1892 0af3 04000000 		.4byte	.LLST4
 1893 0af7 00000000 		.4byte	.LVUS4
 1894 0afb 1F       		.uleb128 0x1f
 1895 0afc AD0C0000 		.4byte	0xcad
 1896 0b00 00000000 		.4byte	.LBI30
 1897 0b04 02       		.byte	.LVU81
 1898 0b05 50000000 		.4byte	.Ldebug_ranges0+0x50
 1899 0b09 01       		.byte	0x1
 1900 0b0a 96       		.byte	0x96
 1901 0b0b 10       		.byte	0x10
 1902 0b0c 20       		.uleb128 0x20
 1903 0b0d 7B0C0000 		.4byte	0xc7b
 1904 0b11 0A000000 		.4byte	.LBI33
 1905 0b15 01       		.byte	.LVU89
 1906 0b16 68000000 		.4byte	.Ldebug_ranges0+0x68
 1907 0b1a 01       		.byte	0x1
 1908 0b1b 99       		.byte	0x99
 1909 0b1c 03       		.byte	0x3
 1910 0b1d 21       		.uleb128 0x21
 1911 0b1e A00C0000 		.4byte	0xca0
 1912 0b22 27000000 		.4byte	.LLST5
 1913 0b26 25000000 		.4byte	.LVUS5
 1914 0b2a 21       		.uleb128 0x21
 1915 0b2b 940C0000 		.4byte	0xc94
 1916 0b2f 3F000000 		.4byte	.LLST6
 1917 0b33 3B000000 		.4byte	.LVUS6
 1918 0b37 21       		.uleb128 0x21
 1919 0b38 880C0000 		.4byte	0xc88
 1920 0b3c 63000000 		.4byte	.LLST7
 1921 0b40 61000000 		.4byte	.LVUS7
 1922 0b44 00       		.byte	0
 1923 0b45 00       		.byte	0
 1924 0b46 0B       		.uleb128 0xb
 1925 0b47 04       		.byte	0x4
 1926 0b48 77080000 		.4byte	0x877
 1927 0b4c 1C       		.uleb128 0x1c
 1928 0b4d 8B010000 		.4byte	.LASF159
 1929 0b51 01       		.byte	0x1
 1930 0b52 81       		.byte	0x81
 1931 0b53 0F       		.byte	0xf
 1932 0b54 00000000 		.4byte	.LFB223
 1933 0b58 50000000 		.4byte	.LFE223-.LFB223
 1934 0b5c 01       		.uleb128 0x1
 1935 0b5d 9C       		.byte	0x9c
 1936 0b5e BB0B0000 		.4byte	0xbbb
 1937 0b62 22       		.uleb128 0x22
 1938 0b63 746D7000 		.ascii	"tmp\000"
ARM GAS  C:\Users\USER\AppData\Local\Temp\ccULuntG.s 			page 35


 1939 0b67 01       		.byte	0x1
 1940 0b68 81       		.byte	0x81
 1941 0b69 38       		.byte	0x38
 1942 0b6a 460B0000 		.4byte	0xb46
 1943 0b6e 01       		.uleb128 0x1
 1944 0b6f 50       		.byte	0x50
 1945 0b70 1F       		.uleb128 0x1f
 1946 0b71 AD0C0000 		.4byte	0xcad
 1947 0b75 00000000 		.4byte	.LBI16
 1948 0b79 02       		.byte	.LVU17
 1949 0b7a 00000000 		.4byte	.Ldebug_ranges0+0
 1950 0b7e 01       		.byte	0x1
 1951 0b7f 83       		.byte	0x83
 1952 0b80 10       		.byte	0x10
 1953 0b81 20       		.uleb128 0x20
 1954 0b82 7B0C0000 		.4byte	0xc7b
 1955 0b86 08000000 		.4byte	.LBI20
 1956 0b8a 00       		.byte	.LVU23
 1957 0b8b 18000000 		.4byte	.Ldebug_ranges0+0x18
 1958 0b8f 01       		.byte	0x1
 1959 0b90 83       		.byte	0x83
 1960 0b91 03       		.byte	0x3
 1961 0b92 21       		.uleb128 0x21
 1962 0b93 A00C0000 		.4byte	0xca0
 1963 0b97 78000000 		.4byte	.LLST0
 1964 0b9b 76000000 		.4byte	.LVUS0
 1965 0b9f 21       		.uleb128 0x21
 1966 0ba0 940C0000 		.4byte	0xc94
 1967 0ba4 8D000000 		.4byte	.LLST1
 1968 0ba8 8B000000 		.4byte	.LVUS1
 1969 0bac 21       		.uleb128 0x21
 1970 0bad 880C0000 		.4byte	0xc88
 1971 0bb1 A2000000 		.4byte	.LLST2
 1972 0bb5 A0000000 		.4byte	.LVUS2
 1973 0bb9 00       		.byte	0
 1974 0bba 00       		.byte	0
 1975 0bbb 1C       		.uleb128 0x1c
 1976 0bbc 75010000 		.4byte	.LASF161
 1977 0bc0 01       		.byte	0x1
 1978 0bc1 74       		.byte	0x74
 1979 0bc2 0F       		.byte	0xf
 1980 0bc3 00000000 		.4byte	.LFB222
 1981 0bc7 0C000000 		.4byte	.LFE222-.LFB222
 1982 0bcb 01       		.uleb128 0x1
 1983 0bcc 9C       		.byte	0x9c
 1984 0bcd F50B0000 		.4byte	0xbf5
 1985 0bd1 22       		.uleb128 0x22
 1986 0bd2 746D7000 		.ascii	"tmp\000"
 1987 0bd6 01       		.byte	0x1
 1988 0bd7 74       		.byte	0x74
 1989 0bd8 39       		.byte	0x39
 1990 0bd9 460B0000 		.4byte	0xb46
 1991 0bdd 01       		.uleb128 0x1
 1992 0bde 50       		.byte	0x50
 1993 0bdf 23       		.uleb128 0x23
 1994 0be0 AD0C0000 		.4byte	0xcad
 1995 0be4 00000000 		.4byte	.LBI14
ARM GAS  C:\Users\USER\AppData\Local\Temp\ccULuntG.s 			page 36


 1996 0be8 02       		.byte	.LVU10
 1997 0be9 00000000 		.4byte	.LBB14
 1998 0bed 04000000 		.4byte	.LBE14-.LBB14
 1999 0bf1 01       		.byte	0x1
 2000 0bf2 76       		.byte	0x76
 2001 0bf3 0F       		.byte	0xf
 2002 0bf4 00       		.byte	0
 2003 0bf5 24       		.uleb128 0x24
 2004 0bf6 DC000000 		.4byte	.LASF167
 2005 0bfa 01       		.byte	0x1
 2006 0bfb 63       		.byte	0x63
 2007 0bfc 06       		.byte	0x6
 2008 0bfd 01       		.byte	0x1
 2009 0bfe 0F0C0000 		.4byte	0xc0f
 2010 0c02 25       		.uleb128 0x25
 2011 0c03 746D7000 		.ascii	"tmp\000"
 2012 0c07 01       		.byte	0x1
 2013 0c08 63       		.byte	0x63
 2014 0c09 29       		.byte	0x29
 2015 0c0a 460B0000 		.4byte	0xb46
 2016 0c0e 00       		.byte	0
 2017 0c0f 1C       		.uleb128 0x1c
 2018 0c10 36080000 		.4byte	.LASF162
 2019 0c14 01       		.byte	0x1
 2020 0c15 4F       		.byte	0x4f
 2021 0c16 06       		.byte	0x6
 2022 0c17 00000000 		.4byte	.LFB220
 2023 0c1b 38000000 		.4byte	.LFE220-.LFB220
 2024 0c1f 01       		.uleb128 0x1
 2025 0c20 9C       		.byte	0x9c
 2026 0c21 7B0C0000 		.4byte	0xc7b
 2027 0c25 26       		.uleb128 0x26
 2028 0c26 746D00   		.ascii	"tm\000"
 2029 0c29 01       		.byte	0x1
 2030 0c2a 50       		.byte	0x50
 2031 0c2b 16       		.byte	0x16
 2032 0c2c 77080000 		.4byte	0x877
 2033 0c30 02       		.uleb128 0x2
 2034 0c31 91       		.byte	0x91
 2035 0c32 60       		.sleb128 -32
 2036 0c33 27       		.uleb128 0x27
 2037 0c34 F50B0000 		.4byte	0xbf5
 2038 0c38 12000000 		.4byte	.LBI26
 2039 0c3c 01       		.byte	.LVU63
 2040 0c3d 38000000 		.4byte	.Ldebug_ranges0+0x38
 2041 0c41 01       		.byte	0x1
 2042 0c42 56       		.byte	0x56
 2043 0c43 03       		.byte	0x3
 2044 0c44 560C0000 		.4byte	0xc56
 2045 0c48 21       		.uleb128 0x21
 2046 0c49 020C0000 		.4byte	0xc02
 2047 0c4d B7000000 		.4byte	.LLST3
 2048 0c51 B5000000 		.4byte	.LVUS3
 2049 0c55 00       		.byte	0
 2050 0c56 28       		.uleb128 0x28
 2051 0c57 24000000 		.4byte	.LVL9
 2052 0c5b BB0B0000 		.4byte	0xbbb
ARM GAS  C:\Users\USER\AppData\Local\Temp\ccULuntG.s 			page 37


 2053 0c5f 6A0C0000 		.4byte	0xc6a
 2054 0c63 29       		.uleb128 0x29
 2055 0c64 01       		.uleb128 0x1
 2056 0c65 50       		.byte	0x50
 2057 0c66 02       		.uleb128 0x2
 2058 0c67 70       		.byte	0x70
 2059 0c68 00       		.sleb128 0
 2060 0c69 00       		.byte	0
 2061 0c6a 2A       		.uleb128 0x2a
 2062 0c6b 2A000000 		.4byte	.LVL10
 2063 0c6f 4C0B0000 		.4byte	0xb4c
 2064 0c73 29       		.uleb128 0x29
 2065 0c74 01       		.uleb128 0x1
 2066 0c75 50       		.byte	0x50
 2067 0c76 02       		.uleb128 0x2
 2068 0c77 70       		.byte	0x70
 2069 0c78 00       		.sleb128 0
 2070 0c79 00       		.byte	0
 2071 0c7a 00       		.byte	0
 2072 0c7b 2B       		.uleb128 0x2b
 2073 0c7c BE000000 		.4byte	.LASF168
 2074 0c80 01       		.byte	0x1
 2075 0c81 35       		.byte	0x35
 2076 0c82 14       		.byte	0x14
 2077 0c83 03       		.byte	0x3
 2078 0c84 AD0C0000 		.4byte	0xcad
 2079 0c88 25       		.uleb128 0x25
 2080 0c89 746D7000 		.ascii	"tmp\000"
 2081 0c8d 01       		.byte	0x1
 2082 0c8e 35       		.byte	0x35
 2083 0c8f 30       		.byte	0x30
 2084 0c90 460B0000 		.4byte	0xb46
 2085 0c94 25       		.uleb128 0x25
 2086 0c95 6E6F7700 		.ascii	"now\000"
 2087 0c99 01       		.byte	0x1
 2088 0c9a 36       		.byte	0x36
 2089 0c9b 24       		.byte	0x24
 2090 0c9c F2000000 		.4byte	0xf2
 2091 0ca0 2C       		.uleb128 0x2c
 2092 0ca1 43070000 		.4byte	.LASF115
 2093 0ca5 01       		.byte	0x1
 2094 0ca6 37       		.byte	0x37
 2095 0ca7 24       		.byte	0x24
 2096 0ca8 F2000000 		.4byte	0xf2
 2097 0cac 00       		.byte	0
 2098 0cad 2D       		.uleb128 0x2d
 2099 0cae EF060000 		.4byte	.LASF169
 2100 0cb2 02       		.byte	0x2
 2101 0cb3 2202     		.2byte	0x222
 2102 0cb5 17       		.byte	0x17
 2103 0cb6 F2000000 		.4byte	0xf2
 2104 0cba 03       		.byte	0x3
 2105 0cbb 2E       		.uleb128 0x2e
 2106 0cbc F50B0000 		.4byte	0xbf5
 2107 0cc0 00000000 		.4byte	.LFB221
 2108 0cc4 18000000 		.4byte	.LFE221-.LFB221
 2109 0cc8 01       		.uleb128 0x1
ARM GAS  C:\Users\USER\AppData\Local\Temp\ccULuntG.s 			page 38


 2110 0cc9 9C       		.byte	0x9c
 2111 0cca 2F       		.uleb128 0x2f
 2112 0ccb 020C0000 		.4byte	0xc02
 2113 0ccf 01       		.uleb128 0x1
 2114 0cd0 50       		.byte	0x50
 2115 0cd1 00       		.byte	0
 2116 0cd2 00       		.byte	0
 2117              		.section	.debug_abbrev,"",%progbits
 2118              	.Ldebug_abbrev0:
 2119 0000 01       		.uleb128 0x1
 2120 0001 11       		.uleb128 0x11
 2121 0002 01       		.byte	0x1
 2122 0003 25       		.uleb128 0x25
 2123 0004 0E       		.uleb128 0xe
 2124 0005 13       		.uleb128 0x13
 2125 0006 0B       		.uleb128 0xb
 2126 0007 03       		.uleb128 0x3
 2127 0008 0E       		.uleb128 0xe
 2128 0009 1B       		.uleb128 0x1b
 2129 000a 0E       		.uleb128 0xe
 2130 000b 55       		.uleb128 0x55
 2131 000c 17       		.uleb128 0x17
 2132 000d 11       		.uleb128 0x11
 2133 000e 01       		.uleb128 0x1
 2134 000f 10       		.uleb128 0x10
 2135 0010 17       		.uleb128 0x17
 2136 0011 00       		.byte	0
 2137 0012 00       		.byte	0
 2138 0013 02       		.uleb128 0x2
 2139 0014 24       		.uleb128 0x24
 2140 0015 00       		.byte	0
 2141 0016 0B       		.uleb128 0xb
 2142 0017 0B       		.uleb128 0xb
 2143 0018 3E       		.uleb128 0x3e
 2144 0019 0B       		.uleb128 0xb
 2145 001a 03       		.uleb128 0x3
 2146 001b 08       		.uleb128 0x8
 2147 001c 00       		.byte	0
 2148 001d 00       		.byte	0
 2149 001e 03       		.uleb128 0x3
 2150 001f 24       		.uleb128 0x24
 2151 0020 00       		.byte	0
 2152 0021 0B       		.uleb128 0xb
 2153 0022 0B       		.uleb128 0xb
 2154 0023 3E       		.uleb128 0x3e
 2155 0024 0B       		.uleb128 0xb
 2156 0025 03       		.uleb128 0x3
 2157 0026 0E       		.uleb128 0xe
 2158 0027 00       		.byte	0
 2159 0028 00       		.byte	0
 2160 0029 04       		.uleb128 0x4
 2161 002a 16       		.uleb128 0x16
 2162 002b 00       		.byte	0
 2163 002c 03       		.uleb128 0x3
 2164 002d 0E       		.uleb128 0xe
 2165 002e 3A       		.uleb128 0x3a
 2166 002f 0B       		.uleb128 0xb
ARM GAS  C:\Users\USER\AppData\Local\Temp\ccULuntG.s 			page 39


 2167 0030 3B       		.uleb128 0x3b
 2168 0031 0B       		.uleb128 0xb
 2169 0032 39       		.uleb128 0x39
 2170 0033 0B       		.uleb128 0xb
 2171 0034 49       		.uleb128 0x49
 2172 0035 13       		.uleb128 0x13
 2173 0036 00       		.byte	0
 2174 0037 00       		.byte	0
 2175 0038 05       		.uleb128 0x5
 2176 0039 35       		.uleb128 0x35
 2177 003a 00       		.byte	0
 2178 003b 49       		.uleb128 0x49
 2179 003c 13       		.uleb128 0x13
 2180 003d 00       		.byte	0
 2181 003e 00       		.byte	0
 2182 003f 06       		.uleb128 0x6
 2183 0040 26       		.uleb128 0x26
 2184 0041 00       		.byte	0
 2185 0042 49       		.uleb128 0x49
 2186 0043 13       		.uleb128 0x13
 2187 0044 00       		.byte	0
 2188 0045 00       		.byte	0
 2189 0046 07       		.uleb128 0x7
 2190 0047 13       		.uleb128 0x13
 2191 0048 01       		.byte	0x1
 2192 0049 03       		.uleb128 0x3
 2193 004a 0E       		.uleb128 0xe
 2194 004b 0B       		.uleb128 0xb
 2195 004c 0B       		.uleb128 0xb
 2196 004d 3A       		.uleb128 0x3a
 2197 004e 0B       		.uleb128 0xb
 2198 004f 3B       		.uleb128 0x3b
 2199 0050 0B       		.uleb128 0xb
 2200 0051 39       		.uleb128 0x39
 2201 0052 0B       		.uleb128 0xb
 2202 0053 01       		.uleb128 0x1
 2203 0054 13       		.uleb128 0x13
 2204 0055 00       		.byte	0
 2205 0056 00       		.byte	0
 2206 0057 08       		.uleb128 0x8
 2207 0058 0D       		.uleb128 0xd
 2208 0059 00       		.byte	0
 2209 005a 03       		.uleb128 0x3
 2210 005b 0E       		.uleb128 0xe
 2211 005c 3A       		.uleb128 0x3a
 2212 005d 0B       		.uleb128 0xb
 2213 005e 3B       		.uleb128 0x3b
 2214 005f 0B       		.uleb128 0xb
 2215 0060 39       		.uleb128 0x39
 2216 0061 0B       		.uleb128 0xb
 2217 0062 49       		.uleb128 0x49
 2218 0063 13       		.uleb128 0x13
 2219 0064 38       		.uleb128 0x38
 2220 0065 0B       		.uleb128 0xb
 2221 0066 00       		.byte	0
 2222 0067 00       		.byte	0
 2223 0068 09       		.uleb128 0x9
ARM GAS  C:\Users\USER\AppData\Local\Temp\ccULuntG.s 			page 40


 2224 0069 0D       		.uleb128 0xd
 2225 006a 00       		.byte	0
 2226 006b 03       		.uleb128 0x3
 2227 006c 08       		.uleb128 0x8
 2228 006d 3A       		.uleb128 0x3a
 2229 006e 0B       		.uleb128 0xb
 2230 006f 3B       		.uleb128 0x3b
 2231 0070 05       		.uleb128 0x5
 2232 0071 39       		.uleb128 0x39
 2233 0072 0B       		.uleb128 0xb
 2234 0073 49       		.uleb128 0x49
 2235 0074 13       		.uleb128 0x13
 2236 0075 38       		.uleb128 0x38
 2237 0076 0B       		.uleb128 0xb
 2238 0077 00       		.byte	0
 2239 0078 00       		.byte	0
 2240 0079 0A       		.uleb128 0xa
 2241 007a 0D       		.uleb128 0xd
 2242 007b 00       		.byte	0
 2243 007c 03       		.uleb128 0x3
 2244 007d 0E       		.uleb128 0xe
 2245 007e 3A       		.uleb128 0x3a
 2246 007f 0B       		.uleb128 0xb
 2247 0080 3B       		.uleb128 0x3b
 2248 0081 05       		.uleb128 0x5
 2249 0082 39       		.uleb128 0x39
 2250 0083 0B       		.uleb128 0xb
 2251 0084 49       		.uleb128 0x49
 2252 0085 13       		.uleb128 0x13
 2253 0086 38       		.uleb128 0x38
 2254 0087 0B       		.uleb128 0xb
 2255 0088 00       		.byte	0
 2256 0089 00       		.byte	0
 2257 008a 0B       		.uleb128 0xb
 2258 008b 0F       		.uleb128 0xf
 2259 008c 00       		.byte	0
 2260 008d 0B       		.uleb128 0xb
 2261 008e 0B       		.uleb128 0xb
 2262 008f 49       		.uleb128 0x49
 2263 0090 13       		.uleb128 0x13
 2264 0091 00       		.byte	0
 2265 0092 00       		.byte	0
 2266 0093 0C       		.uleb128 0xc
 2267 0094 13       		.uleb128 0x13
 2268 0095 01       		.byte	0x1
 2269 0096 03       		.uleb128 0x3
 2270 0097 0E       		.uleb128 0xe
 2271 0098 0B       		.uleb128 0xb
 2272 0099 0B       		.uleb128 0xb
 2273 009a 3A       		.uleb128 0x3a
 2274 009b 0B       		.uleb128 0xb
 2275 009c 3B       		.uleb128 0x3b
 2276 009d 05       		.uleb128 0x5
 2277 009e 39       		.uleb128 0x39
 2278 009f 0B       		.uleb128 0xb
 2279 00a0 01       		.uleb128 0x1
 2280 00a1 13       		.uleb128 0x13
ARM GAS  C:\Users\USER\AppData\Local\Temp\ccULuntG.s 			page 41


 2281 00a2 00       		.byte	0
 2282 00a3 00       		.byte	0
 2283 00a4 0D       		.uleb128 0xd
 2284 00a5 15       		.uleb128 0x15
 2285 00a6 01       		.byte	0x1
 2286 00a7 27       		.uleb128 0x27
 2287 00a8 19       		.uleb128 0x19
 2288 00a9 01       		.uleb128 0x1
 2289 00aa 13       		.uleb128 0x13
 2290 00ab 00       		.byte	0
 2291 00ac 00       		.byte	0
 2292 00ad 0E       		.uleb128 0xe
 2293 00ae 05       		.uleb128 0x5
 2294 00af 00       		.byte	0
 2295 00b0 49       		.uleb128 0x49
 2296 00b1 13       		.uleb128 0x13
 2297 00b2 00       		.byte	0
 2298 00b3 00       		.byte	0
 2299 00b4 0F       		.uleb128 0xf
 2300 00b5 0F       		.uleb128 0xf
 2301 00b6 00       		.byte	0
 2302 00b7 0B       		.uleb128 0xb
 2303 00b8 0B       		.uleb128 0xb
 2304 00b9 00       		.byte	0
 2305 00ba 00       		.byte	0
 2306 00bb 10       		.uleb128 0x10
 2307 00bc 13       		.uleb128 0x13
 2308 00bd 01       		.byte	0x1
 2309 00be 03       		.uleb128 0x3
 2310 00bf 0E       		.uleb128 0xe
 2311 00c0 0B       		.uleb128 0xb
 2312 00c1 05       		.uleb128 0x5
 2313 00c2 3A       		.uleb128 0x3a
 2314 00c3 0B       		.uleb128 0xb
 2315 00c4 3B       		.uleb128 0x3b
 2316 00c5 05       		.uleb128 0x5
 2317 00c6 39       		.uleb128 0x39
 2318 00c7 0B       		.uleb128 0xb
 2319 00c8 01       		.uleb128 0x1
 2320 00c9 13       		.uleb128 0x13
 2321 00ca 00       		.byte	0
 2322 00cb 00       		.byte	0
 2323 00cc 11       		.uleb128 0x11
 2324 00cd 01       		.uleb128 0x1
 2325 00ce 01       		.byte	0x1
 2326 00cf 49       		.uleb128 0x49
 2327 00d0 13       		.uleb128 0x13
 2328 00d1 01       		.uleb128 0x1
 2329 00d2 13       		.uleb128 0x13
 2330 00d3 00       		.byte	0
 2331 00d4 00       		.byte	0
 2332 00d5 12       		.uleb128 0x12
 2333 00d6 21       		.uleb128 0x21
 2334 00d7 00       		.byte	0
 2335 00d8 49       		.uleb128 0x49
 2336 00d9 13       		.uleb128 0x13
 2337 00da 2F       		.uleb128 0x2f
ARM GAS  C:\Users\USER\AppData\Local\Temp\ccULuntG.s 			page 42


 2338 00db 0B       		.uleb128 0xb
 2339 00dc 00       		.byte	0
 2340 00dd 00       		.byte	0
 2341 00de 13       		.uleb128 0x13
 2342 00df 13       		.uleb128 0x13
 2343 00e0 01       		.byte	0x1
 2344 00e1 0B       		.uleb128 0xb
 2345 00e2 0B       		.uleb128 0xb
 2346 00e3 3A       		.uleb128 0x3a
 2347 00e4 0B       		.uleb128 0xb
 2348 00e5 3B       		.uleb128 0x3b
 2349 00e6 05       		.uleb128 0x5
 2350 00e7 39       		.uleb128 0x39
 2351 00e8 0B       		.uleb128 0xb
 2352 00e9 01       		.uleb128 0x1
 2353 00ea 13       		.uleb128 0x13
 2354 00eb 00       		.byte	0
 2355 00ec 00       		.byte	0
 2356 00ed 14       		.uleb128 0x14
 2357 00ee 16       		.uleb128 0x16
 2358 00ef 00       		.byte	0
 2359 00f0 03       		.uleb128 0x3
 2360 00f1 0E       		.uleb128 0xe
 2361 00f2 3A       		.uleb128 0x3a
 2362 00f3 0B       		.uleb128 0xb
 2363 00f4 3B       		.uleb128 0x3b
 2364 00f5 05       		.uleb128 0x5
 2365 00f6 39       		.uleb128 0x39
 2366 00f7 0B       		.uleb128 0xb
 2367 00f8 49       		.uleb128 0x49
 2368 00f9 13       		.uleb128 0x13
 2369 00fa 00       		.byte	0
 2370 00fb 00       		.byte	0
 2371 00fc 15       		.uleb128 0x15
 2372 00fd 34       		.uleb128 0x34
 2373 00fe 00       		.byte	0
 2374 00ff 03       		.uleb128 0x3
 2375 0100 0E       		.uleb128 0xe
 2376 0101 3A       		.uleb128 0x3a
 2377 0102 0B       		.uleb128 0xb
 2378 0103 3B       		.uleb128 0x3b
 2379 0104 05       		.uleb128 0x5
 2380 0105 39       		.uleb128 0x39
 2381 0106 0B       		.uleb128 0xb
 2382 0107 49       		.uleb128 0x49
 2383 0108 13       		.uleb128 0x13
 2384 0109 3F       		.uleb128 0x3f
 2385 010a 19       		.uleb128 0x19
 2386 010b 3C       		.uleb128 0x3c
 2387 010c 19       		.uleb128 0x19
 2388 010d 00       		.byte	0
 2389 010e 00       		.byte	0
 2390 010f 16       		.uleb128 0x16
 2391 0110 34       		.uleb128 0x34
 2392 0111 00       		.byte	0
 2393 0112 03       		.uleb128 0x3
 2394 0113 0E       		.uleb128 0xe
ARM GAS  C:\Users\USER\AppData\Local\Temp\ccULuntG.s 			page 43


 2395 0114 3A       		.uleb128 0x3a
 2396 0115 0B       		.uleb128 0xb
 2397 0116 3B       		.uleb128 0x3b
 2398 0117 0B       		.uleb128 0xb
 2399 0118 39       		.uleb128 0x39
 2400 0119 0B       		.uleb128 0xb
 2401 011a 49       		.uleb128 0x49
 2402 011b 13       		.uleb128 0x13
 2403 011c 3F       		.uleb128 0x3f
 2404 011d 19       		.uleb128 0x19
 2405 011e 3C       		.uleb128 0x3c
 2406 011f 19       		.uleb128 0x19
 2407 0120 00       		.byte	0
 2408 0121 00       		.byte	0
 2409 0122 17       		.uleb128 0x17
 2410 0123 0D       		.uleb128 0xd
 2411 0124 00       		.byte	0
 2412 0125 03       		.uleb128 0x3
 2413 0126 08       		.uleb128 0x8
 2414 0127 3A       		.uleb128 0x3a
 2415 0128 0B       		.uleb128 0xb
 2416 0129 3B       		.uleb128 0x3b
 2417 012a 0B       		.uleb128 0xb
 2418 012b 39       		.uleb128 0x39
 2419 012c 0B       		.uleb128 0xb
 2420 012d 49       		.uleb128 0x49
 2421 012e 13       		.uleb128 0x13
 2422 012f 38       		.uleb128 0x38
 2423 0130 0B       		.uleb128 0xb
 2424 0131 00       		.byte	0
 2425 0132 00       		.byte	0
 2426 0133 18       		.uleb128 0x18
 2427 0134 13       		.uleb128 0x13
 2428 0135 01       		.byte	0x1
 2429 0136 0B       		.uleb128 0xb
 2430 0137 0B       		.uleb128 0xb
 2431 0138 3A       		.uleb128 0x3a
 2432 0139 0B       		.uleb128 0xb
 2433 013a 3B       		.uleb128 0x3b
 2434 013b 0B       		.uleb128 0xb
 2435 013c 39       		.uleb128 0x39
 2436 013d 0B       		.uleb128 0xb
 2437 013e 01       		.uleb128 0x1
 2438 013f 13       		.uleb128 0x13
 2439 0140 00       		.byte	0
 2440 0141 00       		.byte	0
 2441 0142 19       		.uleb128 0x19
 2442 0143 17       		.uleb128 0x17
 2443 0144 01       		.byte	0x1
 2444 0145 0B       		.uleb128 0xb
 2445 0146 0B       		.uleb128 0xb
 2446 0147 3A       		.uleb128 0x3a
 2447 0148 0B       		.uleb128 0xb
 2448 0149 3B       		.uleb128 0x3b
 2449 014a 0B       		.uleb128 0xb
 2450 014b 39       		.uleb128 0x39
 2451 014c 0B       		.uleb128 0xb
ARM GAS  C:\Users\USER\AppData\Local\Temp\ccULuntG.s 			page 44


 2452 014d 01       		.uleb128 0x1
 2453 014e 13       		.uleb128 0x13
 2454 014f 00       		.byte	0
 2455 0150 00       		.byte	0
 2456 0151 1A       		.uleb128 0x1a
 2457 0152 0D       		.uleb128 0xd
 2458 0153 00       		.byte	0
 2459 0154 03       		.uleb128 0x3
 2460 0155 0E       		.uleb128 0xe
 2461 0156 3A       		.uleb128 0x3a
 2462 0157 0B       		.uleb128 0xb
 2463 0158 3B       		.uleb128 0x3b
 2464 0159 05       		.uleb128 0x5
 2465 015a 39       		.uleb128 0x39
 2466 015b 0B       		.uleb128 0xb
 2467 015c 49       		.uleb128 0x49
 2468 015d 13       		.uleb128 0x13
 2469 015e 00       		.byte	0
 2470 015f 00       		.byte	0
 2471 0160 1B       		.uleb128 0x1b
 2472 0161 34       		.uleb128 0x34
 2473 0162 00       		.byte	0
 2474 0163 03       		.uleb128 0x3
 2475 0164 08       		.uleb128 0x8
 2476 0165 3A       		.uleb128 0x3a
 2477 0166 0B       		.uleb128 0xb
 2478 0167 3B       		.uleb128 0x3b
 2479 0168 05       		.uleb128 0x5
 2480 0169 39       		.uleb128 0x39
 2481 016a 0B       		.uleb128 0xb
 2482 016b 49       		.uleb128 0x49
 2483 016c 13       		.uleb128 0x13
 2484 016d 3F       		.uleb128 0x3f
 2485 016e 19       		.uleb128 0x19
 2486 016f 3C       		.uleb128 0x3c
 2487 0170 19       		.uleb128 0x19
 2488 0171 00       		.byte	0
 2489 0172 00       		.byte	0
 2490 0173 1C       		.uleb128 0x1c
 2491 0174 2E       		.uleb128 0x2e
 2492 0175 01       		.byte	0x1
 2493 0176 3F       		.uleb128 0x3f
 2494 0177 19       		.uleb128 0x19
 2495 0178 03       		.uleb128 0x3
 2496 0179 0E       		.uleb128 0xe
 2497 017a 3A       		.uleb128 0x3a
 2498 017b 0B       		.uleb128 0xb
 2499 017c 3B       		.uleb128 0x3b
 2500 017d 0B       		.uleb128 0xb
 2501 017e 39       		.uleb128 0x39
 2502 017f 0B       		.uleb128 0xb
 2503 0180 27       		.uleb128 0x27
 2504 0181 19       		.uleb128 0x19
 2505 0182 11       		.uleb128 0x11
 2506 0183 01       		.uleb128 0x1
 2507 0184 12       		.uleb128 0x12
 2508 0185 06       		.uleb128 0x6
ARM GAS  C:\Users\USER\AppData\Local\Temp\ccULuntG.s 			page 45


 2509 0186 40       		.uleb128 0x40
 2510 0187 18       		.uleb128 0x18
 2511 0188 9742     		.uleb128 0x2117
 2512 018a 19       		.uleb128 0x19
 2513 018b 01       		.uleb128 0x1
 2514 018c 13       		.uleb128 0x13
 2515 018d 00       		.byte	0
 2516 018e 00       		.byte	0
 2517 018f 1D       		.uleb128 0x1d
 2518 0190 05       		.uleb128 0x5
 2519 0191 00       		.byte	0
 2520 0192 03       		.uleb128 0x3
 2521 0193 0E       		.uleb128 0xe
 2522 0194 3A       		.uleb128 0x3a
 2523 0195 0B       		.uleb128 0xb
 2524 0196 3B       		.uleb128 0x3b
 2525 0197 0B       		.uleb128 0xb
 2526 0198 39       		.uleb128 0x39
 2527 0199 0B       		.uleb128 0xb
 2528 019a 49       		.uleb128 0x49
 2529 019b 13       		.uleb128 0x13
 2530 019c 02       		.uleb128 0x2
 2531 019d 18       		.uleb128 0x18
 2532 019e 00       		.byte	0
 2533 019f 00       		.byte	0
 2534 01a0 1E       		.uleb128 0x1e
 2535 01a1 05       		.uleb128 0x5
 2536 01a2 00       		.byte	0
 2537 01a3 03       		.uleb128 0x3
 2538 01a4 0E       		.uleb128 0xe
 2539 01a5 3A       		.uleb128 0x3a
 2540 01a6 0B       		.uleb128 0xb
 2541 01a7 3B       		.uleb128 0x3b
 2542 01a8 0B       		.uleb128 0xb
 2543 01a9 39       		.uleb128 0x39
 2544 01aa 0B       		.uleb128 0xb
 2545 01ab 49       		.uleb128 0x49
 2546 01ac 13       		.uleb128 0x13
 2547 01ad 02       		.uleb128 0x2
 2548 01ae 17       		.uleb128 0x17
 2549 01af B742     		.uleb128 0x2137
 2550 01b1 17       		.uleb128 0x17
 2551 01b2 00       		.byte	0
 2552 01b3 00       		.byte	0
 2553 01b4 1F       		.uleb128 0x1f
 2554 01b5 1D       		.uleb128 0x1d
 2555 01b6 00       		.byte	0
 2556 01b7 31       		.uleb128 0x31
 2557 01b8 13       		.uleb128 0x13
 2558 01b9 52       		.uleb128 0x52
 2559 01ba 01       		.uleb128 0x1
 2560 01bb B842     		.uleb128 0x2138
 2561 01bd 0B       		.uleb128 0xb
 2562 01be 55       		.uleb128 0x55
 2563 01bf 17       		.uleb128 0x17
 2564 01c0 58       		.uleb128 0x58
 2565 01c1 0B       		.uleb128 0xb
ARM GAS  C:\Users\USER\AppData\Local\Temp\ccULuntG.s 			page 46


 2566 01c2 59       		.uleb128 0x59
 2567 01c3 0B       		.uleb128 0xb
 2568 01c4 57       		.uleb128 0x57
 2569 01c5 0B       		.uleb128 0xb
 2570 01c6 00       		.byte	0
 2571 01c7 00       		.byte	0
 2572 01c8 20       		.uleb128 0x20
 2573 01c9 1D       		.uleb128 0x1d
 2574 01ca 01       		.byte	0x1
 2575 01cb 31       		.uleb128 0x31
 2576 01cc 13       		.uleb128 0x13
 2577 01cd 52       		.uleb128 0x52
 2578 01ce 01       		.uleb128 0x1
 2579 01cf B842     		.uleb128 0x2138
 2580 01d1 0B       		.uleb128 0xb
 2581 01d2 55       		.uleb128 0x55
 2582 01d3 17       		.uleb128 0x17
 2583 01d4 58       		.uleb128 0x58
 2584 01d5 0B       		.uleb128 0xb
 2585 01d6 59       		.uleb128 0x59
 2586 01d7 0B       		.uleb128 0xb
 2587 01d8 57       		.uleb128 0x57
 2588 01d9 0B       		.uleb128 0xb
 2589 01da 00       		.byte	0
 2590 01db 00       		.byte	0
 2591 01dc 21       		.uleb128 0x21
 2592 01dd 05       		.uleb128 0x5
 2593 01de 00       		.byte	0
 2594 01df 31       		.uleb128 0x31
 2595 01e0 13       		.uleb128 0x13
 2596 01e1 02       		.uleb128 0x2
 2597 01e2 17       		.uleb128 0x17
 2598 01e3 B742     		.uleb128 0x2137
 2599 01e5 17       		.uleb128 0x17
 2600 01e6 00       		.byte	0
 2601 01e7 00       		.byte	0
 2602 01e8 22       		.uleb128 0x22
 2603 01e9 05       		.uleb128 0x5
 2604 01ea 00       		.byte	0
 2605 01eb 03       		.uleb128 0x3
 2606 01ec 08       		.uleb128 0x8
 2607 01ed 3A       		.uleb128 0x3a
 2608 01ee 0B       		.uleb128 0xb
 2609 01ef 3B       		.uleb128 0x3b
 2610 01f0 0B       		.uleb128 0xb
 2611 01f1 39       		.uleb128 0x39
 2612 01f2 0B       		.uleb128 0xb
 2613 01f3 49       		.uleb128 0x49
 2614 01f4 13       		.uleb128 0x13
 2615 01f5 02       		.uleb128 0x2
 2616 01f6 18       		.uleb128 0x18
 2617 01f7 00       		.byte	0
 2618 01f8 00       		.byte	0
 2619 01f9 23       		.uleb128 0x23
 2620 01fa 1D       		.uleb128 0x1d
 2621 01fb 00       		.byte	0
 2622 01fc 31       		.uleb128 0x31
ARM GAS  C:\Users\USER\AppData\Local\Temp\ccULuntG.s 			page 47


 2623 01fd 13       		.uleb128 0x13
 2624 01fe 52       		.uleb128 0x52
 2625 01ff 01       		.uleb128 0x1
 2626 0200 B842     		.uleb128 0x2138
 2627 0202 0B       		.uleb128 0xb
 2628 0203 11       		.uleb128 0x11
 2629 0204 01       		.uleb128 0x1
 2630 0205 12       		.uleb128 0x12
 2631 0206 06       		.uleb128 0x6
 2632 0207 58       		.uleb128 0x58
 2633 0208 0B       		.uleb128 0xb
 2634 0209 59       		.uleb128 0x59
 2635 020a 0B       		.uleb128 0xb
 2636 020b 57       		.uleb128 0x57
 2637 020c 0B       		.uleb128 0xb
 2638 020d 00       		.byte	0
 2639 020e 00       		.byte	0
 2640 020f 24       		.uleb128 0x24
 2641 0210 2E       		.uleb128 0x2e
 2642 0211 01       		.byte	0x1
 2643 0212 3F       		.uleb128 0x3f
 2644 0213 19       		.uleb128 0x19
 2645 0214 03       		.uleb128 0x3
 2646 0215 0E       		.uleb128 0xe
 2647 0216 3A       		.uleb128 0x3a
 2648 0217 0B       		.uleb128 0xb
 2649 0218 3B       		.uleb128 0x3b
 2650 0219 0B       		.uleb128 0xb
 2651 021a 39       		.uleb128 0x39
 2652 021b 0B       		.uleb128 0xb
 2653 021c 27       		.uleb128 0x27
 2654 021d 19       		.uleb128 0x19
 2655 021e 20       		.uleb128 0x20
 2656 021f 0B       		.uleb128 0xb
 2657 0220 01       		.uleb128 0x1
 2658 0221 13       		.uleb128 0x13
 2659 0222 00       		.byte	0
 2660 0223 00       		.byte	0
 2661 0224 25       		.uleb128 0x25
 2662 0225 05       		.uleb128 0x5
 2663 0226 00       		.byte	0
 2664 0227 03       		.uleb128 0x3
 2665 0228 08       		.uleb128 0x8
 2666 0229 3A       		.uleb128 0x3a
 2667 022a 0B       		.uleb128 0xb
 2668 022b 3B       		.uleb128 0x3b
 2669 022c 0B       		.uleb128 0xb
 2670 022d 39       		.uleb128 0x39
 2671 022e 0B       		.uleb128 0xb
 2672 022f 49       		.uleb128 0x49
 2673 0230 13       		.uleb128 0x13
 2674 0231 00       		.byte	0
 2675 0232 00       		.byte	0
 2676 0233 26       		.uleb128 0x26
 2677 0234 34       		.uleb128 0x34
 2678 0235 00       		.byte	0
 2679 0236 03       		.uleb128 0x3
ARM GAS  C:\Users\USER\AppData\Local\Temp\ccULuntG.s 			page 48


 2680 0237 08       		.uleb128 0x8
 2681 0238 3A       		.uleb128 0x3a
 2682 0239 0B       		.uleb128 0xb
 2683 023a 3B       		.uleb128 0x3b
 2684 023b 0B       		.uleb128 0xb
 2685 023c 39       		.uleb128 0x39
 2686 023d 0B       		.uleb128 0xb
 2687 023e 49       		.uleb128 0x49
 2688 023f 13       		.uleb128 0x13
 2689 0240 02       		.uleb128 0x2
 2690 0241 18       		.uleb128 0x18
 2691 0242 00       		.byte	0
 2692 0243 00       		.byte	0
 2693 0244 27       		.uleb128 0x27
 2694 0245 1D       		.uleb128 0x1d
 2695 0246 01       		.byte	0x1
 2696 0247 31       		.uleb128 0x31
 2697 0248 13       		.uleb128 0x13
 2698 0249 52       		.uleb128 0x52
 2699 024a 01       		.uleb128 0x1
 2700 024b B842     		.uleb128 0x2138
 2701 024d 0B       		.uleb128 0xb
 2702 024e 55       		.uleb128 0x55
 2703 024f 17       		.uleb128 0x17
 2704 0250 58       		.uleb128 0x58
 2705 0251 0B       		.uleb128 0xb
 2706 0252 59       		.uleb128 0x59
 2707 0253 0B       		.uleb128 0xb
 2708 0254 57       		.uleb128 0x57
 2709 0255 0B       		.uleb128 0xb
 2710 0256 01       		.uleb128 0x1
 2711 0257 13       		.uleb128 0x13
 2712 0258 00       		.byte	0
 2713 0259 00       		.byte	0
 2714 025a 28       		.uleb128 0x28
 2715 025b 898201   		.uleb128 0x4109
 2716 025e 01       		.byte	0x1
 2717 025f 11       		.uleb128 0x11
 2718 0260 01       		.uleb128 0x1
 2719 0261 31       		.uleb128 0x31
 2720 0262 13       		.uleb128 0x13
 2721 0263 01       		.uleb128 0x1
 2722 0264 13       		.uleb128 0x13
 2723 0265 00       		.byte	0
 2724 0266 00       		.byte	0
 2725 0267 29       		.uleb128 0x29
 2726 0268 8A8201   		.uleb128 0x410a
 2727 026b 00       		.byte	0
 2728 026c 02       		.uleb128 0x2
 2729 026d 18       		.uleb128 0x18
 2730 026e 9142     		.uleb128 0x2111
 2731 0270 18       		.uleb128 0x18
 2732 0271 00       		.byte	0
 2733 0272 00       		.byte	0
 2734 0273 2A       		.uleb128 0x2a
 2735 0274 898201   		.uleb128 0x4109
 2736 0277 01       		.byte	0x1
ARM GAS  C:\Users\USER\AppData\Local\Temp\ccULuntG.s 			page 49


 2737 0278 11       		.uleb128 0x11
 2738 0279 01       		.uleb128 0x1
 2739 027a 31       		.uleb128 0x31
 2740 027b 13       		.uleb128 0x13
 2741 027c 00       		.byte	0
 2742 027d 00       		.byte	0
 2743 027e 2B       		.uleb128 0x2b
 2744 027f 2E       		.uleb128 0x2e
 2745 0280 01       		.byte	0x1
 2746 0281 03       		.uleb128 0x3
 2747 0282 0E       		.uleb128 0xe
 2748 0283 3A       		.uleb128 0x3a
 2749 0284 0B       		.uleb128 0xb
 2750 0285 3B       		.uleb128 0x3b
 2751 0286 0B       		.uleb128 0xb
 2752 0287 39       		.uleb128 0x39
 2753 0288 0B       		.uleb128 0xb
 2754 0289 27       		.uleb128 0x27
 2755 028a 19       		.uleb128 0x19
 2756 028b 20       		.uleb128 0x20
 2757 028c 0B       		.uleb128 0xb
 2758 028d 01       		.uleb128 0x1
 2759 028e 13       		.uleb128 0x13
 2760 028f 00       		.byte	0
 2761 0290 00       		.byte	0
 2762 0291 2C       		.uleb128 0x2c
 2763 0292 05       		.uleb128 0x5
 2764 0293 00       		.byte	0
 2765 0294 03       		.uleb128 0x3
 2766 0295 0E       		.uleb128 0xe
 2767 0296 3A       		.uleb128 0x3a
 2768 0297 0B       		.uleb128 0xb
 2769 0298 3B       		.uleb128 0x3b
 2770 0299 0B       		.uleb128 0xb
 2771 029a 39       		.uleb128 0x39
 2772 029b 0B       		.uleb128 0xb
 2773 029c 49       		.uleb128 0x49
 2774 029d 13       		.uleb128 0x13
 2775 029e 00       		.byte	0
 2776 029f 00       		.byte	0
 2777 02a0 2D       		.uleb128 0x2d
 2778 02a1 2E       		.uleb128 0x2e
 2779 02a2 00       		.byte	0
 2780 02a3 03       		.uleb128 0x3
 2781 02a4 0E       		.uleb128 0xe
 2782 02a5 3A       		.uleb128 0x3a
 2783 02a6 0B       		.uleb128 0xb
 2784 02a7 3B       		.uleb128 0x3b
 2785 02a8 05       		.uleb128 0x5
 2786 02a9 39       		.uleb128 0x39
 2787 02aa 0B       		.uleb128 0xb
 2788 02ab 27       		.uleb128 0x27
 2789 02ac 19       		.uleb128 0x19
 2790 02ad 49       		.uleb128 0x49
 2791 02ae 13       		.uleb128 0x13
 2792 02af 20       		.uleb128 0x20
 2793 02b0 0B       		.uleb128 0xb
ARM GAS  C:\Users\USER\AppData\Local\Temp\ccULuntG.s 			page 50


 2794 02b1 00       		.byte	0
 2795 02b2 00       		.byte	0
 2796 02b3 2E       		.uleb128 0x2e
 2797 02b4 2E       		.uleb128 0x2e
 2798 02b5 01       		.byte	0x1
 2799 02b6 31       		.uleb128 0x31
 2800 02b7 13       		.uleb128 0x13
 2801 02b8 11       		.uleb128 0x11
 2802 02b9 01       		.uleb128 0x1
 2803 02ba 12       		.uleb128 0x12
 2804 02bb 06       		.uleb128 0x6
 2805 02bc 40       		.uleb128 0x40
 2806 02bd 18       		.uleb128 0x18
 2807 02be 9742     		.uleb128 0x2117
 2808 02c0 19       		.uleb128 0x19
 2809 02c1 00       		.byte	0
 2810 02c2 00       		.byte	0
 2811 02c3 2F       		.uleb128 0x2f
 2812 02c4 05       		.uleb128 0x5
 2813 02c5 00       		.byte	0
 2814 02c6 31       		.uleb128 0x31
 2815 02c7 13       		.uleb128 0x13
 2816 02c8 02       		.uleb128 0x2
 2817 02c9 18       		.uleb128 0x18
 2818 02ca 00       		.byte	0
 2819 02cb 00       		.byte	0
 2820 02cc 00       		.byte	0
 2821              		.section	.debug_loc,"",%progbits
 2822              	.Ldebug_loc0:
 2823              	.LVUS4:
 2824 0000 00       		.uleb128 0
 2825 0001 00       		.uleb128 .LVU92
 2826 0002 00       		.uleb128 .LVU92
 2827 0003 00       		.uleb128 0
 2828              	.LLST4:
 2829 0004 00000000 		.4byte	.LVL11
 2830 0008 0E000000 		.4byte	.LVL13
 2831 000c 0100     		.2byte	0x1
 2832 000e 51       		.byte	0x51
 2833 000f 0E000000 		.4byte	.LVL13
 2834 0013 40000000 		.4byte	.LFE224
 2835 0017 0400     		.2byte	0x4
 2836 0019 F3       		.byte	0xf3
 2837 001a 01       		.uleb128 0x1
 2838 001b 51       		.byte	0x51
 2839 001c 9F       		.byte	0x9f
 2840 001d 00000000 		.4byte	0
 2841 0021 00000000 		.4byte	0
 2842              	.LVUS5:
 2843 0025 01       		.uleb128 .LVU89
 2844 0026 00       		.uleb128 .LVU109
 2845              	.LLST5:
 2846 0027 0A000000 		.4byte	.LVL12
 2847 002b 36000000 		.4byte	.LVL16
 2848 002f 0200     		.2byte	0x2
 2849 0031 30       		.byte	0x30
 2850 0032 9F       		.byte	0x9f
ARM GAS  C:\Users\USER\AppData\Local\Temp\ccULuntG.s 			page 51


 2851 0033 00000000 		.4byte	0
 2852 0037 00000000 		.4byte	0
 2853              	.LVUS6:
 2854 003b 01       		.uleb128 .LVU89
 2855 003c 00       		.uleb128 .LVU94
 2856 003d 00       		.uleb128 .LVU94
 2857 003e 00       		.uleb128 .LVU98
 2858              	.LLST6:
 2859 003f 0A000000 		.4byte	.LVL12
 2860 0043 14000000 		.4byte	.LVL14
 2861 0047 0100     		.2byte	0x1
 2862 0049 53       		.byte	0x53
 2863 004a 14000000 		.4byte	.LVL14
 2864 004e 22000000 		.4byte	.LVL15
 2865 0052 0500     		.2byte	0x5
 2866 0054 F3       		.byte	0xf3
 2867 0055 01       		.uleb128 0x1
 2868 0056 51       		.byte	0x51
 2869 0057 23       		.byte	0x23
 2870 0058 08       		.uleb128 0x8
 2871 0059 00000000 		.4byte	0
 2872 005d 00000000 		.4byte	0
 2873              	.LVUS7:
 2874 0061 01       		.uleb128 .LVU89
 2875 0062 00       		.uleb128 .LVU109
 2876              	.LLST7:
 2877 0063 0A000000 		.4byte	.LVL12
 2878 0067 36000000 		.4byte	.LVL16
 2879 006b 0100     		.2byte	0x1
 2880 006d 50       		.byte	0x50
 2881 006e 00000000 		.4byte	0
 2882 0072 00000000 		.4byte	0
 2883              	.LVUS0:
 2884 0076 00       		.uleb128 .LVU23
 2885 0077 00       		.uleb128 .LVU29
 2886              	.LLST0:
 2887 0078 08000000 		.4byte	.LVL3
 2888 007c 14000000 		.4byte	.LVL4
 2889 0080 0100     		.2byte	0x1
 2890 0082 53       		.byte	0x53
 2891 0083 00000000 		.4byte	0
 2892 0087 00000000 		.4byte	0
 2893              	.LVUS1:
 2894 008b 00       		.uleb128 .LVU23
 2895 008c 00       		.uleb128 .LVU31
 2896              	.LLST1:
 2897 008d 08000000 		.4byte	.LVL3
 2898 0091 18000000 		.4byte	.LVL5
 2899 0095 0100     		.2byte	0x1
 2900 0097 52       		.byte	0x52
 2901 0098 00000000 		.4byte	0
 2902 009c 00000000 		.4byte	0
 2903              	.LVUS2:
 2904 00a0 00       		.uleb128 .LVU23
 2905 00a1 00       		.uleb128 .LVU49
 2906              	.LLST2:
 2907 00a2 08000000 		.4byte	.LVL3
ARM GAS  C:\Users\USER\AppData\Local\Temp\ccULuntG.s 			page 52


 2908 00a6 40000000 		.4byte	.LVL6
 2909 00aa 0100     		.2byte	0x1
 2910 00ac 50       		.byte	0x50
 2911 00ad 00000000 		.4byte	0
 2912 00b1 00000000 		.4byte	0
 2913              	.LVUS3:
 2914 00b5 01       		.uleb128 .LVU63
 2915 00b6 04       		.uleb128 .LVU73
 2916              	.LLST3:
 2917 00b7 12000000 		.4byte	.LVL7
 2918 00bb 20000000 		.4byte	.LVL8
 2919 00bf 0100     		.2byte	0x1
 2920 00c1 50       		.byte	0x50
 2921 00c2 00000000 		.4byte	0
 2922 00c6 00000000 		.4byte	0
 2923              		.section	.debug_aranges,"",%progbits
 2924 0000 3C000000 		.4byte	0x3c
 2925 0004 0200     		.2byte	0x2
 2926 0006 00000000 		.4byte	.Ldebug_info0
 2927 000a 04       		.byte	0x4
 2928 000b 00       		.byte	0
 2929 000c 0000     		.2byte	0
 2930 000e 0000     		.2byte	0
 2931 0010 00000000 		.4byte	.LFB221
 2932 0014 18000000 		.4byte	.LFE221-.LFB221
 2933 0018 00000000 		.4byte	.LFB222
 2934 001c 0C000000 		.4byte	.LFE222-.LFB222
 2935 0020 00000000 		.4byte	.LFB223
 2936 0024 50000000 		.4byte	.LFE223-.LFB223
 2937 0028 00000000 		.4byte	.LFB220
 2938 002c 38000000 		.4byte	.LFE220-.LFB220
 2939 0030 00000000 		.4byte	.LFB224
 2940 0034 40000000 		.4byte	.LFE224-.LFB224
 2941 0038 00000000 		.4byte	0
 2942 003c 00000000 		.4byte	0
 2943              		.section	.debug_ranges,"",%progbits
 2944              	.Ldebug_ranges0:
 2945 0000 00000000 		.4byte	.LBB16
 2946 0004 02000000 		.4byte	.LBE16
 2947 0008 04000000 		.4byte	.LBB19
 2948 000c 06000000 		.4byte	.LBE19
 2949 0010 00000000 		.4byte	0
 2950 0014 00000000 		.4byte	0
 2951 0018 08000000 		.4byte	.LBB20
 2952 001c 0A000000 		.4byte	.LBE20
 2953 0020 0E000000 		.4byte	.LBB24
 2954 0024 32000000 		.4byte	.LBE24
 2955 0028 38000000 		.4byte	.LBB25
 2956 002c 40000000 		.4byte	.LBE25
 2957 0030 00000000 		.4byte	0
 2958 0034 00000000 		.4byte	0
 2959 0038 08000000 		.4byte	.LBB26
 2960 003c 0E000000 		.4byte	.LBE26
 2961 0040 12000000 		.4byte	.LBB29
 2962 0044 20000000 		.4byte	.LBE29
 2963 0048 00000000 		.4byte	0
 2964 004c 00000000 		.4byte	0
ARM GAS  C:\Users\USER\AppData\Local\Temp\ccULuntG.s 			page 53


 2965 0050 00000000 		.4byte	.LBB30
 2966 0054 02000000 		.4byte	.LBE30
 2967 0058 04000000 		.4byte	.LBB37
 2968 005c 06000000 		.4byte	.LBE37
 2969 0060 00000000 		.4byte	0
 2970 0064 00000000 		.4byte	0
 2971 0068 02000000 		.4byte	.LBB33
 2972 006c 04000000 		.4byte	.LBE33
 2973 0070 0A000000 		.4byte	.LBB38
 2974 0074 2A000000 		.4byte	.LBE38
 2975 0078 2E000000 		.4byte	.LBB39
 2976 007c 36000000 		.4byte	.LBE39
 2977 0080 00000000 		.4byte	0
 2978 0084 00000000 		.4byte	0
 2979 0088 00000000 		.4byte	.LFB221
 2980 008c 18000000 		.4byte	.LFE221
 2981 0090 00000000 		.4byte	.LFB222
 2982 0094 0C000000 		.4byte	.LFE222
 2983 0098 00000000 		.4byte	.LFB223
 2984 009c 50000000 		.4byte	.LFE223
 2985 00a0 00000000 		.4byte	.LFB220
 2986 00a4 38000000 		.4byte	.LFE220
 2987 00a8 00000000 		.4byte	.LFB224
 2988 00ac 40000000 		.4byte	.LFE224
 2989 00b0 00000000 		.4byte	0
 2990 00b4 00000000 		.4byte	0
 2991              		.section	.debug_line,"",%progbits
 2992              	.Ldebug_line0:
 2993 0000 65040000 		.section	.debug_str,"MS",%progbits,1
 2993      03006802 
 2993      00000201 
 2993      FB0E0D00 
 2993      01010101 
 2994              	.LASF147:
 2995 0000 63665F6F 		.ascii	"cf_off_older\000"
 2995      66665F6F 
 2995      6C646572 
 2995      00
 2996              	.LASF57:
 2997 000d 72656164 		.ascii	"ready_list_t\000"
 2997      795F6C69 
 2997      73745F74 
 2997      00
 2998              	.LASF106:
 2999 001a 4D41534B 		.ascii	"MASK3\000"
 2999      3300
 3000              	.LASF125:
 3001 0020 77747472 		.ascii	"wttrp\000"
 3001      7000
 3002              	.LASF122:
 3003 0026 7264796D 		.ascii	"rdymsg\000"
 3003      736700
 3004              	.LASF18:
 3005 002d 75696E74 		.ascii	"uint64_t\000"
 3005      36345F74 
 3005      00
 3006              	.LASF4:
ARM GAS  C:\Users\USER\AppData\Local\Temp\ccULuntG.s 			page 54


 3007 0036 5F5F7569 		.ascii	"__uint8_t\000"
 3007      6E74385F 
 3007      7400
 3008              	.LASF114:
 3009 0040 706F7274 		.ascii	"port_intctx\000"
 3009      5F696E74 
 3009      63747800 
 3010              	.LASF56:
 3011 004c 63685F74 		.ascii	"ch_threads_queue\000"
 3011      68726561 
 3011      64735F71 
 3011      75657565 
 3011      00
 3012              	.LASF76:
 3013 005d 73797374 		.ascii	"system_debug_t\000"
 3013      656D5F64 
 3013      65627567 
 3013      5F7400
 3014              	.LASF118:
 3015 006c 776F7273 		.ascii	"worst\000"
 3015      7400
 3016              	.LASF121:
 3017 0072 74696D65 		.ascii	"time_measurement_t\000"
 3017      5F6D6561 
 3017      73757265 
 3017      6D656E74 
 3017      5F7400
 3018              	.LASF13:
 3019 0085 6C6F6E67 		.ascii	"long long unsigned int\000"
 3019      206C6F6E 
 3019      6720756E 
 3019      7369676E 
 3019      65642069 
 3020              	.LASF143:
 3021 009c 63685F74 		.ascii	"ch_threadsize\000"
 3021      68726561 
 3021      6473697A 
 3021      6500
 3022              	.LASF123:
 3023 00aa 65786974 		.ascii	"exitcode\000"
 3023      636F6465 
 3023      00
 3024              	.LASF83:
 3025 00b3 6D61696E 		.ascii	"mainthread\000"
 3025      74687265 
 3025      616400
 3026              	.LASF168:
 3027 00be 746D5F73 		.ascii	"tm_stop\000"
 3027      746F7000 
 3028              	.LASF73:
 3029 00c6 76697274 		.ascii	"virtual_timers_list_t\000"
 3029      75616C5F 
 3029      74696D65 
 3029      72735F6C 
 3029      6973745F 
 3030              	.LASF167:
 3031 00dc 6368544D 		.ascii	"chTMObjectInit\000"
ARM GAS  C:\Users\USER\AppData\Local\Temp\ccULuntG.s 			page 55


 3031      4F626A65 
 3031      6374496E 
 3031      697400
 3032              	.LASF20:
 3033 00eb 72747469 		.ascii	"rttime_t\000"
 3033      6D655F74 
 3033      00
 3034              	.LASF34:
 3035 00f4 705F7072 		.ascii	"p_prio\000"
 3035      696F00
 3036              	.LASF150:
 3037 00fb 63665F6F 		.ascii	"cf_off_state\000"
 3037      66665F73 
 3037      74617465 
 3037      00
 3038              	.LASF160:
 3039 0108 746D7031 		.ascii	"tmp1\000"
 3039      00
 3040              	.LASF166:
 3041 010d 746D7032 		.ascii	"tmp2\000"
 3041      00
 3042              	.LASF11:
 3043 0112 6C6F6E67 		.ascii	"long long int\000"
 3043      206C6F6E 
 3043      6720696E 
 3043      7400
 3044              	.LASF1:
 3045 0120 7369676E 		.ascii	"signed char\000"
 3045      65642063 
 3045      68617200 
 3046              	.LASF149:
 3047 012c 63665F6F 		.ascii	"cf_off_stklimit\000"
 3047      66665F73 
 3047      746B6C69 
 3047      6D697400 
 3048              	.LASF151:
 3049 013c 63665F6F 		.ascii	"cf_off_flags\000"
 3049      66665F66 
 3049      6C616773 
 3049      00
 3050              	.LASF50:
 3051 0149 705F6D70 		.ascii	"p_mpool\000"
 3051      6F6F6C00 
 3052              	.LASF87:
 3053 0151 43504943 		.ascii	"CPICNT\000"
 3053      4E5400
 3054              	.LASF133:
 3055 0158 6D5F7175 		.ascii	"m_queue\000"
 3055      65756500 
 3056              	.LASF82:
 3057 0160 76746C69 		.ascii	"vtlist\000"
 3057      737400
 3058              	.LASF137:
 3059 0167 63685F69 		.ascii	"ch_identifier\000"
 3059      64656E74 
 3059      69666965 
 3059      7200
ARM GAS  C:\Users\USER\AppData\Local\Temp\ccULuntG.s 			page 56


 3060              	.LASF161:
 3061 0175 6368544D 		.ascii	"chTMStartMeasurementX\000"
 3061      53746172 
 3061      744D6561 
 3061      73757265 
 3061      6D656E74 
 3062              	.LASF159:
 3063 018b 6368544D 		.ascii	"chTMStopMeasurementX\000"
 3063      53746F70 
 3063      4D656173 
 3063      7572656D 
 3063      656E7458 
 3064              	.LASF8:
 3065 01a0 6C6F6E67 		.ascii	"long int\000"
 3065      20696E74 
 3065      00
 3066              	.LASF22:
 3067 01a9 74737461 		.ascii	"tstate_t\000"
 3067      74655F74 
 3067      00
 3068              	.LASF155:
 3069 01b2 63686465 		.ascii	"chdebug_t\000"
 3069      6275675F 
 3069      7400
 3070              	.LASF89:
 3071 01bc 534C4545 		.ascii	"SLEEPCNT\000"
 3071      50434E54 
 3071      00
 3072              	.LASF36:
 3073 01c5 705F6E65 		.ascii	"p_newer\000"
 3073      77657200 
 3074              	.LASF130:
 3075 01cd 735F7175 		.ascii	"s_queue\000"
 3075      65756500 
 3076              	.LASF62:
 3077 01d5 725F6E65 		.ascii	"r_newer\000"
 3077      77657200 
 3078              	.LASF111:
 3079 01dd 72656761 		.ascii	"regarm_t\000"
 3079      726D5F74 
 3079      00
 3080              	.LASF69:
 3081 01e6 76745F70 		.ascii	"vt_prev\000"
 3081      72657600 
 3082              	.LASF163:
 3083 01ee 474E5520 		.ascii	"GNU C99 8.2.1 20181213 (release) [gcc-8-branch revi"
 3083      43393920 
 3083      382E322E 
 3083      31203230 
 3083      31383132 
 3084 0221 73696F6E 		.ascii	"sion 267074] -mcpu=cortex-m4 -mfloat-abi=hard -mfpu"
 3084      20323637 
 3084      3037345D 
 3084      202D6D63 
 3084      70753D63 
 3085 0254 3D667076 		.ascii	"=fpv4-sp-d16 -mno-thumb-interwork -mthumb -march=ar"
 3085      342D7370 
ARM GAS  C:\Users\USER\AppData\Local\Temp\ccULuntG.s 			page 57


 3085      2D643136 
 3085      202D6D6E 
 3085      6F2D7468 
 3086 0287 6D763765 		.ascii	"mv7e-m+fp -ggdb -O2 -std=gnu99 -fomit-frame-pointer"
 3086      2D6D2B66 
 3086      70202D67 
 3086      67646220 
 3086      2D4F3220 
 3087 02ba 202D6661 		.ascii	" -falign-functions=16 -ffunction-sections -fdata-se"
 3087      6C69676E 
 3087      2D66756E 
 3087      6374696F 
 3087      6E733D31 
 3088 02ed 6374696F 		.ascii	"ctions -fno-common -fsingle-precision-constant\000"
 3088      6E73202D 
 3088      666E6F2D 
 3088      636F6D6D 
 3088      6F6E202D 
 3089              	.LASF77:
 3090 031c 63685F73 		.ascii	"ch_system_debug\000"
 3090      79737465 
 3090      6D5F6465 
 3090      62756700 
 3091              	.LASF157:
 3092 032c 6D757465 		.ascii	"mutex_t\000"
 3092      785F7400 
 3093              	.LASF84:
 3094 0334 69646C65 		.ascii	"idle_thread_wa\000"
 3094      5F746872 
 3094      6561645F 
 3094      776100
 3095              	.LASF28:
 3096 0343 636E745F 		.ascii	"cnt_t\000"
 3096      7400
 3097              	.LASF0:
 3098 0349 756E7369 		.ascii	"unsigned int\000"
 3098      676E6564 
 3098      20696E74 
 3098      00
 3099              	.LASF68:
 3100 0356 76745F6E 		.ascii	"vt_next\000"
 3100      65787400 
 3101              	.LASF102:
 3102 035e 4D41534B 		.ascii	"MASK2\000"
 3102      3200
 3103              	.LASF110:
 3104 0364 53797374 		.ascii	"SystemCoreClock\000"
 3104      656D436F 
 3104      7265436C 
 3104      6F636B00 
 3105              	.LASF43:
 3106 0374 705F7469 		.ascii	"p_time\000"
 3106      6D6500
 3107              	.LASF126:
 3108 037b 77747365 		.ascii	"wtsemp\000"
 3108      6D7000
 3109              	.LASF70:
ARM GAS  C:\Users\USER\AppData\Local\Temp\ccULuntG.s 			page 58


 3110 0382 76745F64 		.ascii	"vt_delta\000"
 3110      656C7461 
 3110      00
 3111              	.LASF45:
 3112 038b 705F6D73 		.ascii	"p_msgqueue\000"
 3112      67717565 
 3112      756500
 3113              	.LASF156:
 3114 0396 63685F64 		.ascii	"ch_debug\000"
 3114      65627567 
 3114      00
 3115              	.LASF58:
 3116 039f 63685F72 		.ascii	"ch_ready_list\000"
 3116      65616479 
 3116      5F6C6973 
 3116      7400
 3117              	.LASF131:
 3118 03ad 735F636E 		.ascii	"s_cnt\000"
 3118      7400
 3119              	.LASF117:
 3120 03b3 62657374 		.ascii	"best\000"
 3120      00
 3121              	.LASF6:
 3122 03b8 73686F72 		.ascii	"short unsigned int\000"
 3122      7420756E 
 3122      7369676E 
 3122      65642069 
 3122      6E7400
 3123              	.LASF53:
 3124 03cb 63685F74 		.ascii	"ch_thread\000"
 3124      68726561 
 3124      6400
 3125              	.LASF88:
 3126 03d5 45584343 		.ascii	"EXCCNT\000"
 3126      4E5400
 3127              	.LASF26:
 3128 03dc 6D73675F 		.ascii	"msg_t\000"
 3128      7400
 3129              	.LASF119:
 3130 03e2 6C617374 		.ascii	"last\000"
 3130      00
 3131              	.LASF29:
 3132 03e7 75636E74 		.ascii	"ucnt_t\000"
 3132      5F7400
 3133              	.LASF79:
 3134 03ee 63685F73 		.ascii	"ch_system_t\000"
 3134      79737465 
 3134      6D5F7400 
 3135              	.LASF154:
 3136 03fa 63665F6F 		.ascii	"cf_off_time\000"
 3136      66665F74 
 3136      696D6500 
 3137              	.LASF15:
 3138 0406 75696E74 		.ascii	"uint16_t\000"
 3138      31365F74 
 3138      00
 3139              	.LASF48:
ARM GAS  C:\Users\USER\AppData\Local\Temp\ccULuntG.s 			page 59


 3140 040f 705F6D74 		.ascii	"p_mtxlist\000"
 3140      786C6973 
 3140      7400
 3141              	.LASF27:
 3142 0419 6576656E 		.ascii	"eventmask_t\000"
 3142      746D6173 
 3142      6B5F7400 
 3143              	.LASF7:
 3144 0425 5F5F696E 		.ascii	"__int32_t\000"
 3144      7433325F 
 3144      7400
 3145              	.LASF158:
 3146 042f 6368544D 		.ascii	"chTMChainMeasurementToX\000"
 3146      43686169 
 3146      6E4D6561 
 3146      73757265 
 3146      6D656E74 
 3147              	.LASF112:
 3148 0447 73746B61 		.ascii	"stkalign_t\000"
 3148      6C69676E 
 3148      5F7400
 3149              	.LASF52:
 3150 0452 74687265 		.ascii	"threads_list_t\000"
 3150      6164735F 
 3150      6C697374 
 3150      5F7400
 3151              	.LASF138:
 3152 0461 63685F7A 		.ascii	"ch_zero\000"
 3152      65726F00 
 3153              	.LASF152:
 3154 0469 63665F6F 		.ascii	"cf_off_refs\000"
 3154      66665F72 
 3154      65667300 
 3155              	.LASF86:
 3156 0475 43594343 		.ascii	"CYCCNT\000"
 3156      4E5400
 3157              	.LASF44:
 3158 047c 705F7761 		.ascii	"p_waiting\000"
 3158      6974696E 
 3158      6700
 3159              	.LASF19:
 3160 0486 7274636E 		.ascii	"rtcnt_t\000"
 3160      745F7400 
 3161              	.LASF74:
 3162 048e 63685F76 		.ascii	"ch_virtual_timers_list\000"
 3162      69727475 
 3162      616C5F74 
 3162      696D6572 
 3162      735F6C69 
 3163              	.LASF142:
 3164 04a5 63685F74 		.ascii	"ch_timesize\000"
 3164      696D6573 
 3164      697A6500 
 3165              	.LASF116:
 3166 04b1 746D5F63 		.ascii	"tm_calibration_t\000"
 3166      616C6962 
 3166      72617469 
ARM GAS  C:\Users\USER\AppData\Local\Temp\ccULuntG.s 			page 60


 3166      6F6E5F74 
 3166      00
 3167              	.LASF148:
 3168 04c2 63665F6F 		.ascii	"cf_off_name\000"
 3168      66665F6E 
 3168      616D6500 
 3169              	.LASF37:
 3170 04ce 705F6F6C 		.ascii	"p_older\000"
 3170      64657200 
 3171              	.LASF61:
 3172 04d6 725F6374 		.ascii	"r_ctx\000"
 3172      7800
 3173              	.LASF35:
 3174 04dc 705F6374 		.ascii	"p_ctx\000"
 3174      7800
 3175              	.LASF97:
 3176 04e2 434F4D50 		.ascii	"COMP1\000"
 3176      3100
 3177              	.LASF101:
 3178 04e8 434F4D50 		.ascii	"COMP2\000"
 3178      3200
 3179              	.LASF105:
 3180 04ee 434F4D50 		.ascii	"COMP3\000"
 3180      3300
 3181              	.LASF64:
 3182 04f4 725F6375 		.ascii	"r_current\000"
 3182      7272656E 
 3182      7400
 3183              	.LASF63:
 3184 04fe 725F6F6C 		.ascii	"r_older\000"
 3184      64657200 
 3185              	.LASF12:
 3186 0506 5F5F7569 		.ascii	"__uint64_t\000"
 3186      6E743634 
 3186      5F7400
 3187              	.LASF120:
 3188 0511 63756D75 		.ascii	"cumulative\000"
 3188      6C617469 
 3188      766500
 3189              	.LASF23:
 3190 051c 74726566 		.ascii	"trefs_t\000"
 3190      735F7400 
 3191              	.LASF96:
 3192 0524 52455345 		.ascii	"RESERVED0\000"
 3192      52564544 
 3192      3000
 3193              	.LASF141:
 3194 052e 63685F70 		.ascii	"ch_ptrsize\000"
 3194      74727369 
 3194      7A6500
 3195              	.LASF104:
 3196 0539 52455345 		.ascii	"RESERVED2\000"
 3196      52564544 
 3196      3200
 3197              	.LASF66:
 3198 0543 76697274 		.ascii	"virtual_timer_t\000"
 3198      75616C5F 
ARM GAS  C:\Users\USER\AppData\Local\Temp\ccULuntG.s 			page 61


 3198      74696D65 
 3198      725F7400 
 3199              	.LASF33:
 3200 0553 705F7072 		.ascii	"p_prev\000"
 3200      657600
 3201              	.LASF25:
 3202 055a 74707269 		.ascii	"tprio_t\000"
 3202      6F5F7400 
 3203              	.LASF92:
 3204 0562 50435352 		.ascii	"PCSR\000"
 3204      00
 3205              	.LASF94:
 3206 0567 4D41534B 		.ascii	"MASK0\000"
 3206      3000
 3207              	.LASF98:
 3208 056d 4D41534B 		.ascii	"MASK1\000"
 3208      3100
 3209              	.LASF16:
 3210 0573 696E7433 		.ascii	"int32_t\000"
 3210      325F7400 
 3211              	.LASF2:
 3212 057b 756E7369 		.ascii	"unsigned char\000"
 3212      676E6564 
 3212      20636861 
 3212      7200
 3213              	.LASF109:
 3214 0589 49544D5F 		.ascii	"ITM_RxBuffer\000"
 3214      52784275 
 3214      66666572 
 3214      00
 3215              	.LASF95:
 3216 0596 46554E43 		.ascii	"FUNCTION0\000"
 3216      54494F4E 
 3216      3000
 3217              	.LASF99:
 3218 05a0 46554E43 		.ascii	"FUNCTION1\000"
 3218      54494F4E 
 3218      3100
 3219              	.LASF103:
 3220 05aa 46554E43 		.ascii	"FUNCTION2\000"
 3220      54494F4E 
 3220      3200
 3221              	.LASF107:
 3222 05b4 46554E43 		.ascii	"FUNCTION3\000"
 3222      54494F4E 
 3222      3300
 3223              	.LASF3:
 3224 05be 73686F72 		.ascii	"short int\000"
 3224      7420696E 
 3224      7400
 3225              	.LASF39:
 3226 05c8 705F7374 		.ascii	"p_state\000"
 3226      61746500 
 3227              	.LASF42:
 3228 05d0 705F7072 		.ascii	"p_preempt\000"
 3228      65656D70 
 3228      7400
ARM GAS  C:\Users\USER\AppData\Local\Temp\ccULuntG.s 			page 62


 3229              	.LASF60:
 3230 05da 725F7072 		.ascii	"r_prio\000"
 3230      696F00
 3231              	.LASF128:
 3232 05e1 65776D61 		.ascii	"ewmask\000"
 3232      736B00
 3233              	.LASF32:
 3234 05e8 705F6E65 		.ascii	"p_next\000"
 3234      787400
 3235              	.LASF21:
 3236 05ef 746D6F64 		.ascii	"tmode_t\000"
 3236      655F7400 
 3237              	.LASF153:
 3238 05f7 63665F6F 		.ascii	"cf_off_preempt\000"
 3238      66665F70 
 3238      7265656D 
 3238      707400
 3239              	.LASF40:
 3240 0606 705F666C 		.ascii	"p_flags\000"
 3240      61677300 
 3241              	.LASF80:
 3242 060e 63685F73 		.ascii	"ch_system\000"
 3242      79737465 
 3242      6D00
 3243              	.LASF55:
 3244 0618 74687265 		.ascii	"threads_queue_t\000"
 3244      6164735F 
 3244      71756575 
 3244      655F7400 
 3245              	.LASF100:
 3246 0628 52455345 		.ascii	"RESERVED1\000"
 3246      52564544 
 3246      3100
 3247              	.LASF146:
 3248 0632 63665F6F 		.ascii	"cf_off_newer\000"
 3248      66665F6E 
 3248      65776572 
 3248      00
 3249              	.LASF129:
 3250 063f 63685F73 		.ascii	"ch_semaphore\000"
 3250      656D6170 
 3250      686F7265 
 3250      00
 3251              	.LASF47:
 3252 064c 705F6570 		.ascii	"p_epending\000"
 3252      656E6469 
 3252      6E6700
 3253              	.LASF90:
 3254 0657 4C535543 		.ascii	"LSUCNT\000"
 3254      4E5400
 3255              	.LASF164:
 3256 065e 7372632F 		.ascii	"src/ChibiOS_3.0.2/os/rt/src/chtm.c\000"
 3256      43686962 
 3256      694F535F 
 3256      332E302E 
 3256      322F6F73 
 3257              	.LASF144:
ARM GAS  C:\Users\USER\AppData\Local\Temp\ccULuntG.s 			page 63


 3258 0681 63665F6F 		.ascii	"cf_off_prio\000"
 3258      66665F70 
 3258      72696F00 
 3259              	.LASF59:
 3260 068d 725F7175 		.ascii	"r_queue\000"
 3260      65756500 
 3261              	.LASF54:
 3262 0695 63685F74 		.ascii	"ch_threads_list\000"
 3262      68726561 
 3262      64735F6C 
 3262      69737400 
 3263              	.LASF139:
 3264 06a5 63685F73 		.ascii	"ch_size\000"
 3264      697A6500 
 3265              	.LASF24:
 3266 06ad 74736C69 		.ascii	"tslices_t\000"
 3266      6365735F 
 3266      7400
 3267              	.LASF10:
 3268 06b7 6C6F6E67 		.ascii	"long unsigned int\000"
 3268      20756E73 
 3268      69676E65 
 3268      6420696E 
 3268      7400
 3269              	.LASF136:
 3270 06c9 63686172 		.ascii	"char\000"
 3270      00
 3271              	.LASF127:
 3272 06ce 77746D74 		.ascii	"wtmtxp\000"
 3272      787000
 3273              	.LASF46:
 3274 06d5 705F6D73 		.ascii	"p_msg\000"
 3274      6700
 3275              	.LASF5:
 3276 06db 5F5F7569 		.ascii	"__uint16_t\000"
 3276      6E743136 
 3276      5F7400
 3277              	.LASF31:
 3278 06e6 74687265 		.ascii	"thread_t\000"
 3278      61645F74 
 3278      00
 3279              	.LASF169:
 3280 06ef 706F7274 		.ascii	"port_rt_get_counter_value\000"
 3280      5F72745F 
 3280      6765745F 
 3280      636F756E 
 3280      7465725F 
 3281              	.LASF135:
 3282 0709 6D5F6E65 		.ascii	"m_next\000"
 3282      787400
 3283              	.LASF30:
 3284 0710 73797374 		.ascii	"systime_t\000"
 3284      696D655F 
 3284      7400
 3285              	.LASF49:
 3286 071a 705F7265 		.ascii	"p_realprio\000"
 3286      616C7072 
ARM GAS  C:\Users\USER\AppData\Local\Temp\ccULuntG.s 			page 64


 3286      696F00
 3287              	.LASF65:
 3288 0725 76746675 		.ascii	"vtfunc_t\000"
 3288      6E635F74 
 3288      00
 3289              	.LASF9:
 3290 072e 5F5F7569 		.ascii	"__uint32_t\000"
 3290      6E743332 
 3290      5F7400
 3291              	.LASF78:
 3292 0739 70616E69 		.ascii	"panic_msg\000"
 3292      635F6D73 
 3292      6700
 3293              	.LASF115:
 3294 0743 6F666673 		.ascii	"offset\000"
 3294      657400
 3295              	.LASF113:
 3296 074a 636F6E74 		.ascii	"context\000"
 3296      65787400 
 3297              	.LASF108:
 3298 0752 4457545F 		.ascii	"DWT_Type\000"
 3298      54797065 
 3298      00
 3299              	.LASF67:
 3300 075b 63685F76 		.ascii	"ch_virtual_timer\000"
 3300      69727475 
 3300      616C5F74 
 3300      696D6572 
 3300      00
 3301              	.LASF85:
 3302 076c 4354524C 		.ascii	"CTRL\000"
 3302      00
 3303              	.LASF72:
 3304 0771 76745F70 		.ascii	"vt_par\000"
 3304      617200
 3305              	.LASF93:
 3306 0778 434F4D50 		.ascii	"COMP0\000"
 3306      3000
 3307              	.LASF145:
 3308 077e 63665F6F 		.ascii	"cf_off_ctx\000"
 3308      66665F63 
 3308      747800
 3309              	.LASF132:
 3310 0789 63685F6D 		.ascii	"ch_mutex\000"
 3310      75746578 
 3310      00
 3311              	.LASF41:
 3312 0792 705F7265 		.ascii	"p_refs\000"
 3312      667300
 3313              	.LASF165:
 3314 0799 443A5C67 		.ascii	"D:\\git\\oroca_bldc_dev\\oroca_bldc_FW\\oroca_bldc_"
 3314      69745C6F 
 3314      726F6361 
 3314      5F626C64 
 3314      635F6465 
 3315 07c8 63686962 		.ascii	"chibios\000"
 3315      696F7300 
ARM GAS  C:\Users\USER\AppData\Local\Temp\ccULuntG.s 			page 65


 3316              	.LASF81:
 3317 07d0 726C6973 		.ascii	"rlist\000"
 3317      7400
 3318              	.LASF14:
 3319 07d6 75696E74 		.ascii	"uint8_t\000"
 3319      385F7400 
 3320              	.LASF91:
 3321 07de 464F4C44 		.ascii	"FOLDCNT\000"
 3321      434E5400 
 3322              	.LASF51:
 3323 07e6 74687265 		.ascii	"thread_reference_t\000"
 3323      61645F72 
 3323      65666572 
 3323      656E6365 
 3323      5F7400
 3324              	.LASF124:
 3325 07f9 77746F62 		.ascii	"wtobjp\000"
 3325      6A7000
 3326              	.LASF38:
 3327 0800 705F6E61 		.ascii	"p_name\000"
 3327      6D6500
 3328              	.LASF75:
 3329 0807 76745F73 		.ascii	"vt_systime\000"
 3329      79737469 
 3329      6D6500
 3330              	.LASF140:
 3331 0812 63685F76 		.ascii	"ch_version\000"
 3331      65727369 
 3331      6F6E00
 3332              	.LASF134:
 3333 081d 6D5F6F77 		.ascii	"m_owner\000"
 3333      6E657200 
 3334              	.LASF17:
 3335 0825 75696E74 		.ascii	"uint32_t\000"
 3335      33325F74 
 3335      00
 3336              	.LASF71:
 3337 082e 76745F66 		.ascii	"vt_func\000"
 3337      756E6300 
 3338              	.LASF162:
 3339 0836 5F746D5F 		.ascii	"_tm_init\000"
 3339      696E6974 
 3339      00
 3340              		.ident	"GCC: (GNU Tools for Arm Embedded Processors 8-2018-q4-major) 8.2.1 20181213 (release) [gcc
ARM GAS  C:\Users\USER\AppData\Local\Temp\ccULuntG.s 			page 66


DEFINED SYMBOLS
                            *ABS*:00000000 chtm.c
C:\Users\USER\AppData\Local\Temp\ccULuntG.s:18     .text.chTMObjectInit:00000000 $t
C:\Users\USER\AppData\Local\Temp\ccULuntG.s:27     .text.chTMObjectInit:00000000 chTMObjectInit
C:\Users\USER\AppData\Local\Temp\ccULuntG.s:55     .text.chTMStartMeasurementX:00000000 $t
C:\Users\USER\AppData\Local\Temp\ccULuntG.s:63     .text.chTMStartMeasurementX:00000000 chTMStartMeasurementX
C:\Users\USER\AppData\Local\Temp\ccULuntG.s:90     .text.chTMStartMeasurementX:00000008 $d
C:\Users\USER\AppData\Local\Temp\ccULuntG.s:95     .text.chTMStopMeasurementX:00000000 $t
C:\Users\USER\AppData\Local\Temp\ccULuntG.s:103    .text.chTMStopMeasurementX:00000000 chTMStopMeasurementX
C:\Users\USER\AppData\Local\Temp\ccULuntG.s:218    .text.chTMStopMeasurementX:00000048 $d
C:\Users\USER\AppData\Local\Temp\ccULuntG.s:224    .text._tm_init:00000000 $t
C:\Users\USER\AppData\Local\Temp\ccULuntG.s:232    .text._tm_init:00000000 _tm_init
C:\Users\USER\AppData\Local\Temp\ccULuntG.s:307    .text._tm_init:00000034 $d
C:\Users\USER\AppData\Local\Temp\ccULuntG.s:312    .text.chTMChainMeasurementToX:00000000 $t
C:\Users\USER\AppData\Local\Temp\ccULuntG.s:320    .text.chTMChainMeasurementToX:00000000 chTMChainMeasurementToX
C:\Users\USER\AppData\Local\Temp\ccULuntG.s:431    .text.chTMChainMeasurementToX:0000003c $d

UNDEFINED SYMBOLS
ch
