ARM GAS  C:\Users\USER\AppData\Local\Temp\cc9vjrjC.s 			page 1


   1              		.cpu cortex-m4
   2              		.eabi_attribute 27, 1
   3              		.eabi_attribute 28, 1
   4              		.eabi_attribute 20, 1
   5              		.eabi_attribute 21, 1
   6              		.eabi_attribute 23, 3
   7              		.eabi_attribute 24, 1
   8              		.eabi_attribute 25, 1
   9              		.eabi_attribute 26, 1
  10              		.eabi_attribute 30, 2
  11              		.eabi_attribute 34, 1
  12              		.eabi_attribute 18, 4
  13              		.file	"chvt.c"
  14              		.text
  15              	.Ltext0:
  16              		.cfi_sections	.debug_frame
  17              		.section	.text._vt_init,"ax",%progbits
  18              		.align	1
  19              		.p2align 4,,15
  20              		.global	_vt_init
  21              		.arch armv7e-m
  22              		.syntax unified
  23              		.thumb
  24              		.thumb_func
  25              		.fpu fpv4-sp-d16
  26              		.type	_vt_init, %function
  27              	_vt_init:
  28              	.LFB219:
  29              		.file 1 "src/ChibiOS_3.0.2/os/rt/src/chvt.c"
  30              		.loc 1 61 21 view -0
  31              		.cfi_startproc
  32              		@ args = 0, pretend = 0, frame = 0
  33              		@ frame_needed = 0, uses_anonymous_args = 0
  34              		@ link register save eliminated.
  35              		.loc 1 63 3 view .LVU1
  36              		.loc 1 63 21 is_stmt 0 view .LVU2
  37 0000 054B     		ldr	r3, .L3
  38              		.loc 1 65 22 view .LVU3
  39 0002 4FF0FF30 		mov	r0, #-1
  40              		.loc 1 67 24 view .LVU4
  41 0006 0021     		movs	r1, #0
  42              		.loc 1 63 21 view .LVU5
  43 0008 03F11C02 		add	r2, r3, #28
  44              		.loc 1 65 22 view .LVU6
  45 000c 5862     		str	r0, [r3, #36]
  46              		.loc 1 67 24 view .LVU7
  47 000e 9962     		str	r1, [r3, #40]
  48              		.loc 1 64 21 view .LVU8
  49 0010 C3E90722 		strd	r2, r2, [r3, #28]
  50              		.loc 1 65 3 is_stmt 1 view .LVU9
  51              		.loc 1 67 3 view .LVU10
  52              		.loc 1 71 1 is_stmt 0 view .LVU11
  53 0014 7047     		bx	lr
  54              	.L4:
  55 0016 00BF     		.align	2
  56              	.L3:
  57 0018 00000000 		.word	ch
ARM GAS  C:\Users\USER\AppData\Local\Temp\cc9vjrjC.s 			page 2


  58              		.cfi_endproc
  59              	.LFE219:
  60              		.size	_vt_init, .-_vt_init
  61              		.section	.text.chVTDoSetI,"ax",%progbits
  62              		.align	1
  63              		.p2align 4,,15
  64              		.global	chVTDoSetI
  65              		.syntax unified
  66              		.thumb
  67              		.thumb_func
  68              		.fpu fpv4-sp-d16
  69              		.type	chVTDoSetI, %function
  70              	chVTDoSetI:
  71              	.LVL0:
  72              	.LFB220:
  73              		.loc 1 96 45 is_stmt 1 view -0
  74              		.cfi_startproc
  75              		@ args = 0, pretend = 0, frame = 0
  76              		@ frame_needed = 0, uses_anonymous_args = 0
  77              		@ link register save eliminated.
  78              		.loc 1 97 3 view .LVU13
  79              		.loc 1 98 3 view .LVU14
  80              		.loc 1 100 21 view .LVU15
  81              		.loc 1 101 3 view .LVU16
  82              		.loc 1 101 3 view .LVU17
  83              		.loc 1 103 3 view .LVU18
  84              		.loc 1 96 45 is_stmt 0 view .LVU19
  85 0000 30B4     		push	{r4, r5}
  86              		.cfi_def_cfa_offset 8
  87              		.cfi_offset 4, -8
  88              		.cfi_offset 5, -4
  89              		.loc 1 150 5 view .LVU20
  90 0002 0D4D     		ldr	r5, .L10
  91 0004 EC69     		ldr	r4, [r5, #28]
  92              		.loc 1 103 15 view .LVU21
  93 0006 0361     		str	r3, [r0, #16]
  94              		.loc 1 104 3 is_stmt 1 view .LVU22
  95              		.loc 1 151 11 is_stmt 0 view .LVU23
  96 0008 A368     		ldr	r3, [r4, #8]
  97              	.LVL1:
  98              		.loc 1 104 16 view .LVU24
  99 000a C260     		str	r2, [r0, #12]
 100              		.loc 1 145 3 is_stmt 1 view .LVU25
 101              	.LVL2:
 102              		.loc 1 150 3 view .LVU26
 103              		.loc 1 151 3 view .LVU27
 104              		.loc 1 151 9 is_stmt 0 view .LVU28
 105 000c 9942     		cmp	r1, r3
 106 000e 04D9     		bls	.L6
 107              	.LVL3:
 108              	.L7:
 109              		.loc 1 152 5 is_stmt 1 view .LVU29
 110              		.loc 1 153 7 is_stmt 0 view .LVU30
 111 0010 2468     		ldr	r4, [r4]
 112              	.LVL4:
 113              		.loc 1 152 11 view .LVU31
 114 0012 C91A     		subs	r1, r1, r3
ARM GAS  C:\Users\USER\AppData\Local\Temp\cc9vjrjC.s 			page 3


 115              	.LVL5:
 116              		.loc 1 153 5 is_stmt 1 view .LVU32
 117              		.loc 1 151 11 is_stmt 0 view .LVU33
 118 0014 A368     		ldr	r3, [r4, #8]
 119              		.loc 1 151 9 view .LVU34
 120 0016 8B42     		cmp	r3, r1
 121 0018 FAD3     		bcc	.L7
 122              	.L6:
 123              		.loc 1 157 3 is_stmt 1 view .LVU35
 124              		.loc 1 158 30 is_stmt 0 view .LVU36
 125 001a 6368     		ldr	r3, [r4, #4]
 126              		.loc 1 158 16 view .LVU37
 127 001c C0E90043 		strd	r4, r3, [r0]
 128              		.loc 1 159 3 is_stmt 1 view .LVU38
 129              		.loc 1 159 25 is_stmt 0 view .LVU39
 130 0020 1860     		str	r0, [r3]
 131              		.loc 1 160 3 is_stmt 1 view .LVU40
 132              		.loc 1 160 14 is_stmt 0 view .LVU41
 133 0022 6060     		str	r0, [r4, #4]
 134              		.loc 1 161 3 is_stmt 1 view .LVU42
 135              		.loc 1 161 17 is_stmt 0 view .LVU43
 136 0024 8160     		str	r1, [r0, #8]
 137              		.loc 1 165 3 is_stmt 1 view .LVU44
 138              		.loc 1 165 15 is_stmt 0 view .LVU45
 139 0026 A368     		ldr	r3, [r4, #8]
 140              		.loc 1 166 22 view .LVU46
 141 0028 4FF0FF32 		mov	r2, #-1
 142              	.LVL6:
 143              		.loc 1 165 15 view .LVU47
 144 002c 591A     		subs	r1, r3, r1
 145              	.LVL7:
 146              		.loc 1 165 15 view .LVU48
 147 002e A160     		str	r1, [r4, #8]
 148              	.LVL8:
 149              		.loc 1 166 3 is_stmt 1 view .LVU49
 150              		.loc 1 166 22 is_stmt 0 view .LVU50
 151 0030 6A62     		str	r2, [r5, #36]
 152              		.loc 1 167 1 view .LVU51
 153 0032 30BC     		pop	{r4, r5}
 154              		.cfi_restore 5
 155              		.cfi_restore 4
 156              		.cfi_def_cfa_offset 0
 157              	.LVL9:
 158              		.loc 1 167 1 view .LVU52
 159 0034 7047     		bx	lr
 160              	.L11:
 161 0036 00BF     		.align	2
 162              	.L10:
 163 0038 00000000 		.word	ch
 164              		.cfi_endproc
 165              	.LFE220:
 166              		.size	chVTDoSetI, .-chVTDoSetI
 167              		.section	.text.chVTDoResetI,"ax",%progbits
 168              		.align	1
 169              		.p2align 4,,15
 170              		.global	chVTDoResetI
 171              		.syntax unified
ARM GAS  C:\Users\USER\AppData\Local\Temp\cc9vjrjC.s 			page 4


 172              		.thumb
 173              		.thumb_func
 174              		.fpu fpv4-sp-d16
 175              		.type	chVTDoResetI, %function
 176              	chVTDoResetI:
 177              	.LVL10:
 178              	.LFB221:
 179              		.loc 1 177 41 is_stmt 1 view -0
 180              		.cfi_startproc
 181              		@ args = 0, pretend = 0, frame = 0
 182              		@ frame_needed = 0, uses_anonymous_args = 0
 183              		@ link register save eliminated.
 184              		.loc 1 179 21 view .LVU54
 185              		.loc 1 180 3 view .LVU55
 186              		.loc 1 180 3 view .LVU56
 187              		.loc 1 181 3 view .LVU57
 188              		.loc 1 181 3 view .LVU58
 189              		.loc 1 186 3 view .LVU59
 190              		.loc 1 186 6 is_stmt 0 view .LVU60
 191 0000 0368     		ldr	r3, [r0]
 192              		.loc 1 189 6 view .LVU61
 193 0002 4168     		ldr	r1, [r0, #4]
 194              		.loc 1 186 26 view .LVU62
 195 0004 9A68     		ldr	r2, [r3, #8]
 196              		.loc 1 177 41 view .LVU63
 197 0006 30B4     		push	{r4, r5}
 198              		.cfi_def_cfa_offset 8
 199              		.cfi_offset 4, -8
 200              		.cfi_offset 5, -4
 201              		.loc 1 186 26 view .LVU64
 202 0008 8568     		ldr	r5, [r0, #8]
 203              		.loc 1 195 22 view .LVU65
 204 000a 064C     		ldr	r4, .L14
 205              		.loc 1 186 26 view .LVU66
 206 000c 2A44     		add	r2, r2, r5
 207 000e 9A60     		str	r2, [r3, #8]
 208              		.loc 1 189 3 is_stmt 1 view .LVU67
 209              		.loc 1 189 25 is_stmt 0 view .LVU68
 210 0010 0B60     		str	r3, [r1]
 211              		.loc 1 190 3 is_stmt 1 view .LVU69
 212              		.loc 1 190 25 is_stmt 0 view .LVU70
 213 0012 0568     		ldr	r5, [r0]
 214              		.loc 1 191 16 view .LVU71
 215 0014 0022     		movs	r2, #0
 216              		.loc 1 195 22 view .LVU72
 217 0016 4FF0FF33 		mov	r3, #-1
 218              		.loc 1 190 25 view .LVU73
 219 001a 6960     		str	r1, [r5, #4]
 220              		.loc 1 191 3 is_stmt 1 view .LVU74
 221              		.loc 1 191 16 is_stmt 0 view .LVU75
 222 001c C260     		str	r2, [r0, #12]
 223              		.loc 1 195 3 is_stmt 1 view .LVU76
 224              		.loc 1 195 22 is_stmt 0 view .LVU77
 225 001e 6362     		str	r3, [r4, #36]
 226              		.loc 1 255 1 view .LVU78
 227 0020 30BC     		pop	{r4, r5}
 228              		.cfi_restore 5
ARM GAS  C:\Users\USER\AppData\Local\Temp\cc9vjrjC.s 			page 5


 229              		.cfi_restore 4
 230              		.cfi_def_cfa_offset 0
 231 0022 7047     		bx	lr
 232              	.L15:
 233              		.align	2
 234              	.L14:
 235 0024 00000000 		.word	ch
 236              		.cfi_endproc
 237              	.LFE221:
 238              		.size	chVTDoResetI, .-chVTDoResetI
 239              		.text
 240              	.Letext0:
 241              		.file 2 "c:\\program files (x86)\\gnu tools arm embedded\\8 2018-q4-major\\arm-none-eabi\\include\
 242              		.file 3 "c:\\program files (x86)\\gnu tools arm embedded\\8 2018-q4-major\\arm-none-eabi\\include\
 243              		.file 4 "src/ChibiOS_3.0.2/os/rt/ports/ARMCMx/compilers/GCC/chtypes.h"
 244              		.file 5 "src/ChibiOS_3.0.2/os/rt/include/chsystypes.h"
 245              		.file 6 "src/ChibiOS_3.0.2/os/rt/include/chschd.h"
 246              		.file 7 "src/ChibiOS_3.0.2/os/ext/CMSIS/include/core_cm4.h"
 247              		.file 8 "src/ChibiOS_3.0.2/os/ext/CMSIS/ST/system_stm32f4xx.h"
 248              		.file 9 "src/ChibiOS_3.0.2/os/rt/ports/ARMCMx/chcore.h"
 249              		.file 10 "src/ChibiOS_3.0.2/os/rt/ports/ARMCMx/chcore_v7m.h"
 250              		.file 11 "src/ChibiOS_3.0.2/os/rt/include/chtm.h"
 251              		.file 12 "src/ChibiOS_3.0.2/os/rt/include/chsem.h"
 252              		.file 13 "src/ChibiOS_3.0.2/os/rt/include/chmtx.h"
 253              		.file 14 "src/ChibiOS_3.0.2/os/rt/include/chregistry.h"