ARM GAS  C:\Users\USER\AppData\Local\Temp\cc9vjrjC.s 			page 1


   1              		.cpu cortex-m4
   2              		.eabi_attribute 27, 1
   3              		.eabi_attribute 28, 1
   4              		.eabi_attribute 20, 1
   5              		.eabi_attribute 21, 1
   6              		.eabi_attribute 23, 3
   7              		.eabi_attribute 24, 1
   8              		.eabi_attribute 25, 1
   9              		.eabi_attribute 26, 1
  10              		.eabi_attribute 30, 2
  11              		.eabi_attribute 34, 1
  12              		.eabi_attribute 18, 4
  13              		.file	"chvt.c"
  14              		.text
  15              	.Ltext0:
  16              		.cfi_sections	.debug_frame
  17              		.section	.text._vt_init,"ax",%progbits
  18              		.align	1
  19              		.p2align 4,,15
  20              		.global	_vt_init
  21              		.arch armv7e-m
  22              		.syntax unified
  23              		.thumb
  24              		.thumb_func
  25              		.fpu fpv4-sp-d16
  26              		.type	_vt_init, %function
  27              	_vt_init:
  28              	.LFB219:
  29              		.file 1 "src/ChibiOS_3.0.2/os/rt/src/chvt.c"
  30              		.loc 1 61 21 view -0
  31              		.cfi_startproc
  32              		@ args = 0, pretend = 0, frame = 0
  33              		@ frame_needed = 0, uses_anonymous_args = 0
  34              		@ link register save eliminated.
  35              		.loc 1 63 3 view .LVU1
  36              		.loc 1 63 21 is_stmt 0 view .LVU2
  37 0000 054B     		ldr	r3, .L3
  38              		.loc 1 65 22 view .LVU3
  39 0002 4FF0FF30 		mov	r0, #-1
  40              		.loc 1 67 24 view .LVU4
  41 0006 0021     		movs	r1, #0
  42              		.loc 1 63 21 view .LVU5
  43 0008 03F11C02 		add	r2, r3, #28
  44              		.loc 1 65 22 view .LVU6
  45 000c 5862     		str	r0, [r3, #36]
  46              		.loc 1 67 24 view .LVU7
  47 000e 9962     		str	r1, [r3, #40]
  48              		.loc 1 64 21 view .LVU8
  49 0010 C3E90722 		strd	r2, r2, [r3, #28]
  50              		.loc 1 65 3 is_stmt 1 view .LVU9
  51              		.loc 1 67 3 view .LVU10
  52              		.loc 1 71 1 is_stmt 0 view .LVU11
  53 0014 7047     		bx	lr
  54              	.L4:
  55 0016 00BF     		.align	2
  56              	.L3:
  57 0018 00000000 		.word	ch
ARM GAS  C:\Users\USER\AppData\Local\Temp\cc9vjrjC.s 			page 2


  58              		.cfi_endproc
  59              	.LFE219:
  60              		.size	_vt_init, .-_vt_init
  61              		.section	.text.chVTDoSetI,"ax",%progbits
  62              		.align	1
  63              		.p2align 4,,15
  64              		.global	chVTDoSetI
  65              		.syntax unified
  66              		.thumb
  67              		.thumb_func
  68              		.fpu fpv4-sp-d16
  69              		.type	chVTDoSetI, %function
  70              	chVTDoSetI:
  71              	.LVL0:
  72              	.LFB220:
  73              		.loc 1 96 45 is_stmt 1 view -0
  74              		.cfi_startproc
  75              		@ args = 0, pretend = 0, frame = 0
  76              		@ frame_needed = 0, uses_anonymous_args = 0
  77              		@ link register save eliminated.
  78              		.loc 1 97 3 view .LVU13
  79              		.loc 1 98 3 view .LVU14
  80              		.loc 1 100 21 view .LVU15
  81              		.loc 1 101 3 view .LVU16
  82              		.loc 1 101 3 view .LVU17
  83              		.loc 1 103 3 view .LVU18
  84              		.loc 1 96 45 is_stmt 0 view .LVU19
  85 0000 30B4     		push	{r4, r5}
  86              		.cfi_def_cfa_offset 8
  87              		.cfi_offset 4, -8
  88              		.cfi_offset 5, -4
  89              		.loc 1 150 5 view .LVU20
  90 0002 0D4D     		ldr	r5, .L10
  91 0004 EC69     		ldr	r4, [r5, #28]
  92              		.loc 1 103 15 view .LVU21
  93 0006 0361     		str	r3, [r0, #16]
  94              		.loc 1 104 3 is_stmt 1 view .LVU22
  95              		.loc 1 151 11 is_stmt 0 view .LVU23
  96 0008 A368     		ldr	r3, [r4, #8]
  97              	.LVL1:
  98              		.loc 1 104 16 view .LVU24
  99 000a C260     		str	r2, [r0, #12]
 100              		.loc 1 145 3 is_stmt 1 view .LVU25
 101              	.LVL2:
 102              		.loc 1 150 3 view .LVU26
 103              		.loc 1 151 3 view .LVU27
 104              		.loc 1 151 9 is_stmt 0 view .LVU28
 105 000c 9942     		cmp	r1, r3
 106 000e 04D9     		bls	.L6
 107              	.LVL3:
 108              	.L7:
 109              		.loc 1 152 5 is_stmt 1 view .LVU29
 110              		.loc 1 153 7 is_stmt 0 view .LVU30
 111 0010 2468     		ldr	r4, [r4]
 112              	.LVL4:
 113              		.loc 1 152 11 view .LVU31
 114 0012 C91A     		subs	r1, r1, r3
ARM GAS  C:\Users\USER\AppData\Local\Temp\cc9vjrjC.s 			page 3


 115              	.LVL5:
 116              		.loc 1 153 5 is_stmt 1 view .LVU32
 117              		.loc 1 151 11 is_stmt 0 view .LVU33
 118 0014 A368     		ldr	r3, [r4, #8]
 119              		.loc 1 151 9 view .LVU34
 120 0016 8B42     		cmp	r3, r1
 121 0018 FAD3     		bcc	.L7
 122              	.L6:
 123              		.loc 1 157 3 is_stmt 1 view .LVU35
 124              		.loc 1 158 30 is_stmt 0 view .LVU36
 125 001a 6368     		ldr	r3, [r4, #4]
 126              		.loc 1 158 16 view .LVU37
 127 001c C0E90043 		strd	r4, r3, [r0]
 128              		.loc 1 159 3 is_stmt 1 view .LVU38
 129              		.loc 1 159 25 is_stmt 0 view .LVU39
 130 0020 1860     		str	r0, [r3]
 131              		.loc 1 160 3 is_stmt 1 view .LVU40
 132              		.loc 1 160 14 is_stmt 0 view .LVU41
 133 0022 6060     		str	r0, [r4, #4]
 134              		.loc 1 161 3 is_stmt 1 view .LVU42
 135              		.loc 1 161 17 is_stmt 0 view .LVU43
 136 0024 8160     		str	r1, [r0, #8]
 137              		.loc 1 165 3 is_stmt 1 view .LVU44
 138              		.loc 1 165 15 is_stmt 0 view .LVU45
 139 0026 A368     		ldr	r3, [r4, #8]
 140              		.loc 1 166 22 view .LVU46
 141 0028 4FF0FF32 		mov	r2, #-1
 142              	.LVL6:
 143              		.loc 1 165 15 view .LVU47
 144 002c 591A     		subs	r1, r3, r1
 145              	.LVL7:
 146              		.loc 1 165 15 view .LVU48
 147 002e A160     		str	r1, [r4, #8]
 148              	.LVL8:
 149              		.loc 1 166 3 is_stmt 1 view .LVU49
 150              		.loc 1 166 22 is_stmt 0 view .LVU50
 151 0030 6A62     		str	r2, [r5, #36]
 152              		.loc 1 167 1 view .LVU51
 153 0032 30BC     		pop	{r4, r5}
 154              		.cfi_restore 5
 155              		.cfi_restore 4
 156              		.cfi_def_cfa_offset 0
 157              	.LVL9:
 158              		.loc 1 167 1 view .LVU52
 159 0034 7047     		bx	lr
 160              	.L11:
 161 0036 00BF     		.align	2
 162              	.L10:
 163 0038 00000000 		.word	ch
 164              		.cfi_endproc
 165              	.LFE220:
 166              		.size	chVTDoSetI, .-chVTDoSetI
 167              		.section	.text.chVTDoResetI,"ax",%progbits
 168              		.align	1
 169              		.p2align 4,,15
 170              		.global	chVTDoResetI
 171              		.syntax unified
ARM GAS  C:\Users\USER\AppData\Local\Temp\cc9vjrjC.s 			page 4


 172              		.thumb
 173              		.thumb_func
 174              		.fpu fpv4-sp-d16
 175              		.type	chVTDoResetI, %function
 176              	chVTDoResetI:
 177              	.LVL10:
 178              	.LFB221:
 179              		.loc 1 177 41 is_stmt 1 view -0
 180              		.cfi_startproc
 181              		@ args = 0, pretend = 0, frame = 0
 182              		@ frame_needed = 0, uses_anonymous_args = 0
 183              		@ link register save eliminated.
 184              		.loc 1 179 21 view .LVU54
 185              		.loc 1 180 3 view .LVU55
 186              		.loc 1 180 3 view .LVU56
 187              		.loc 1 181 3 view .LVU57
 188              		.loc 1 181 3 view .LVU58
 189              		.loc 1 186 3 view .LVU59
 190              		.loc 1 186 6 is_stmt 0 view .LVU60
 191 0000 0368     		ldr	r3, [r0]
 192              		.loc 1 189 6 view .LVU61
 193 0002 4168     		ldr	r1, [r0, #4]
 194              		.loc 1 186 26 view .LVU62
 195 0004 9A68     		ldr	r2, [r3, #8]
 196              		.loc 1 177 41 view .LVU63
 197 0006 30B4     		push	{r4, r5}
 198              		.cfi_def_cfa_offset 8
 199              		.cfi_offset 4, -8
 200              		.cfi_offset 5, -4
 201              		.loc 1 186 26 view .LVU64
 202 0008 8568     		ldr	r5, [r0, #8]
 203              		.loc 1 195 22 view .LVU65
 204 000a 064C     		ldr	r4, .L14
 205              		.loc 1 186 26 view .LVU66
 206 000c 2A44     		add	r2, r2, r5
 207 000e 9A60     		str	r2, [r3, #8]
 208              		.loc 1 189 3 is_stmt 1 view .LVU67
 209              		.loc 1 189 25 is_stmt 0 view .LVU68
 210 0010 0B60     		str	r3, [r1]
 211              		.loc 1 190 3 is_stmt 1 view .LVU69
 212              		.loc 1 190 25 is_stmt 0 view .LVU70
 213 0012 0568     		ldr	r5, [r0]
 214              		.loc 1 191 16 view .LVU71
 215 0014 0022     		movs	r2, #0
 216              		.loc 1 195 22 view .LVU72
 217 0016 4FF0FF33 		mov	r3, #-1
 218              		.loc 1 190 25 view .LVU73
 219 001a 6960     		str	r1, [r5, #4]
 220              		.loc 1 191 3 is_stmt 1 view .LVU74
 221              		.loc 1 191 16 is_stmt 0 view .LVU75
 222 001c C260     		str	r2, [r0, #12]
 223              		.loc 1 195 3 is_stmt 1 view .LVU76
 224              		.loc 1 195 22 is_stmt 0 view .LVU77
 225 001e 6362     		str	r3, [r4, #36]
 226              		.loc 1 255 1 view .LVU78
 227 0020 30BC     		pop	{r4, r5}
 228              		.cfi_restore 5
ARM GAS  C:\Users\USER\AppData\Local\Temp\cc9vjrjC.s 			page 5


 229              		.cfi_restore 4
 230              		.cfi_def_cfa_offset 0
 231 0022 7047     		bx	lr
 232              	.L15:
 233              		.align	2
 234              	.L14:
 235 0024 00000000 		.word	ch
 236              		.cfi_endproc
 237              	.LFE221:
 238              		.size	chVTDoResetI, .-chVTDoResetI
 239              		.text
 240              	.Letext0:
 241              		.file 2 "c:\\program files (x86)\\gnu tools arm embedded\\8 2018-q4-major\\arm-none-eabi\\include\
 242              		.file 3 "c:\\program files (x86)\\gnu tools arm embedded\\8 2018-q4-major\\arm-none-eabi\\include\
 243              		.file 4 "src/ChibiOS_3.0.2/os/rt/ports/ARMCMx/compilers/GCC/chtypes.h"
 244              		.file 5 "src/ChibiOS_3.0.2/os/rt/include/chsystypes.h"
 245              		.file 6 "src/ChibiOS_3.0.2/os/rt/include/chschd.h"
 246              		.file 7 "src/ChibiOS_3.0.2/os/ext/CMSIS/include/core_cm4.h"
 247              		.file 8 "src/ChibiOS_3.0.2/os/ext/CMSIS/ST/system_stm32f4xx.h"
 248              		.file 9 "src/ChibiOS_3.0.2/os/rt/ports/ARMCMx/chcore.h"
 249              		.file 10 "src/ChibiOS_3.0.2/os/rt/ports/ARMCMx/chcore_v7m.h"
 250              		.file 11 "src/ChibiOS_3.0.2/os/rt/include/chtm.h"
 251              		.file 12 "src/ChibiOS_3.0.2/os/rt/include/chsem.h"
 252              		.file 13 "src/ChibiOS_3.0.2/os/rt/include/chmtx.h"
 253              		.file 14 "src/ChibiOS_3.0.2/os/rt/include/chregistry.h"
 254              		.section	.debug_info,"",%progbits
 255              	.Ldebug_info0:
 256 0000 D9090000 		.4byte	0x9d9
 257 0004 0400     		.2byte	0x4
 258 0006 00000000 		.4byte	.Ldebug_abbrev0
 259 000a 04       		.byte	0x4
 260 000b 01       		.uleb128 0x1
 261 000c BE010000 		.4byte	.LASF133
 262 0010 0C       		.byte	0xc
 263 0011 72010000 		.4byte	.LASF134
 264 0015 5D060000 		.4byte	.LASF135
 265 0019 00000000 		.4byte	.Ldebug_ranges0+0
 266 001d 00000000 		.4byte	0
 267 0021 00000000 		.4byte	.Ldebug_line0
 268 0025 02       		.uleb128 0x2
 269 0026 04       		.byte	0x4
 270 0027 05       		.byte	0x5
 271 0028 696E7400 		.ascii	"int\000"
 272 002c 03       		.uleb128 0x3
 273 002d 04       		.byte	0x4
 274 002e 07       		.byte	0x7
 275 002f 09030000 		.4byte	.LASF0
 276 0033 03       		.uleb128 0x3
 277 0034 01       		.byte	0x1
 278 0035 06       		.byte	0x6
 279 0036 0C010000 		.4byte	.LASF1
 280 003a 04       		.uleb128 0x4
 281 003b 42000000 		.4byte	.LASF4
 282 003f 02       		.byte	0x2
 283 0040 2B       		.byte	0x2b
 284 0041 18       		.byte	0x18
 285 0042 46000000 		.4byte	0x46
ARM GAS  C:\Users\USER\AppData\Local\Temp\cc9vjrjC.s 			page 6


 286 0046 03       		.uleb128 0x3
 287 0047 01       		.byte	0x1
 288 0048 08       		.byte	0x8
 289 0049 C1040000 		.4byte	.LASF2
 290 004d 03       		.uleb128 0x3
 291 004e 02       		.byte	0x2
 292 004f 05       		.byte	0x5
 293 0050 DF040000 		.4byte	.LASF3
 294 0054 04       		.uleb128 0x4
 295 0055 D1050000 		.4byte	.LASF5
 296 0059 02       		.byte	0x2
 297 005a 39       		.byte	0x39
 298 005b 19       		.byte	0x19
 299 005c 60000000 		.4byte	0x60
 300 0060 03       		.uleb128 0x3
 301 0061 02       		.byte	0x2
 302 0062 07       		.byte	0x7
 303 0063 68030000 		.4byte	.LASF6
 304 0067 04       		.uleb128 0x4
 305 0068 BC030000 		.4byte	.LASF7
 306 006c 02       		.byte	0x2
 307 006d 4D       		.byte	0x4d
 308 006e 18       		.byte	0x18
 309 006f 73000000 		.4byte	0x73
 310 0073 03       		.uleb128 0x3
 311 0074 04       		.byte	0x4
 312 0075 05       		.byte	0x5
 313 0076 60010000 		.4byte	.LASF8
 314 007a 04       		.uleb128 0x4
 315 007b 0A060000 		.4byte	.LASF9
 316 007f 02       		.byte	0x2
 317 0080 4F       		.byte	0x4f
 318 0081 19       		.byte	0x19
 319 0082 86000000 		.4byte	0x86
 320 0086 03       		.uleb128 0x3
 321 0087 04       		.byte	0x4
 322 0088 07       		.byte	0x7
 323 0089 B3050000 		.4byte	.LASF10
 324 008d 03       		.uleb128 0x3
 325 008e 08       		.byte	0x8
 326 008f 05       		.byte	0x5
 327 0090 FE000000 		.4byte	.LASF11
 328 0094 04       		.uleb128 0x4
 329 0095 6C040000 		.4byte	.LASF12
 330 0099 02       		.byte	0x2
 331 009a 69       		.byte	0x69
 332 009b 19       		.byte	0x19
 333 009c A0000000 		.4byte	0xa0
 334 00a0 03       		.uleb128 0x3
 335 00a1 08       		.byte	0x8
 336 00a2 07       		.byte	0x7
 337 00a3 67000000 		.4byte	.LASF13
 338 00a7 04       		.uleb128 0x4
 339 00a8 9A060000 		.4byte	.LASF14
 340 00ac 03       		.byte	0x3
 341 00ad 18       		.byte	0x18
 342 00ae 13       		.byte	0x13
ARM GAS  C:\Users\USER\AppData\Local\Temp\cc9vjrjC.s 			page 7


 343 00af 3A000000 		.4byte	0x3a
 344 00b3 04       		.uleb128 0x4
 345 00b4 1E030000 		.4byte	.LASF15
 346 00b8 03       		.byte	0x3
 347 00b9 24       		.byte	0x24
 348 00ba 14       		.byte	0x14
 349 00bb 54000000 		.4byte	0x54
 350 00bf 04       		.uleb128 0x4
 351 00c0 B9040000 		.4byte	.LASF16
 352 00c4 03       		.byte	0x3
 353 00c5 2C       		.byte	0x2c
 354 00c6 13       		.byte	0x13
 355 00c7 67000000 		.4byte	0x67
 356 00cb 05       		.uleb128 0x5
 357 00cc BF000000 		.4byte	0xbf
 358 00d0 04       		.uleb128 0x4
 359 00d1 7E050000 		.4byte	.LASF17
 360 00d5 03       		.byte	0x3
 361 00d6 30       		.byte	0x30
 362 00d7 14       		.byte	0x14
 363 00d8 7A000000 		.4byte	0x7a
 364 00dc 04       		.uleb128 0x4
 365 00dd 2D000000 		.4byte	.LASF18
 366 00e1 03       		.byte	0x3
 367 00e2 3C       		.byte	0x3c
 368 00e3 14       		.byte	0x14
 369 00e4 94000000 		.4byte	0x94
 370 00e8 04       		.uleb128 0x4
 371 00e9 FE030000 		.4byte	.LASF19
 372 00ed 04       		.byte	0x4
 373 00ee 45       		.byte	0x45
 374 00ef 1D       		.byte	0x1d
 375 00f0 D0000000 		.4byte	0xd0
 376 00f4 04       		.uleb128 0x4
 377 00f5 10050000 		.4byte	.LASF20
 378 00f9 04       		.byte	0x4
 379 00fa 48       		.byte	0x48
 380 00fb 1D       		.byte	0x1d
 381 00fc A7000000 		.4byte	0xa7
 382 0100 04       		.uleb128 0x4
 383 0101 69010000 		.4byte	.LASF21
 384 0105 04       		.byte	0x4
 385 0106 49       		.byte	0x49
 386 0107 1D       		.byte	0x1d
 387 0108 A7000000 		.4byte	0xa7
 388 010c 04       		.uleb128 0x4
 389 010d 77040000 		.4byte	.LASF22
 390 0111 04       		.byte	0x4
 391 0112 4A       		.byte	0x4a
 392 0113 1D       		.byte	0x1d
 393 0114 A7000000 		.4byte	0xa7
 394 0118 04       		.uleb128 0x4
 395 0119 4C010000 		.4byte	.LASF23
 396 011d 04       		.byte	0x4
 397 011e 4B       		.byte	0x4b
 398 011f 1D       		.byte	0x1d
 399 0120 A7000000 		.4byte	0xa7
ARM GAS  C:\Users\USER\AppData\Local\Temp\cc9vjrjC.s 			page 8


 400 0124 04       		.uleb128 0x4
 401 0125 A1040000 		.4byte	.LASF24
 402 0129 04       		.byte	0x4
 403 012a 4C       		.byte	0x4c
 404 012b 1D       		.byte	0x1d
 405 012c D0000000 		.4byte	0xd0
 406 0130 04       		.uleb128 0x4
 407 0131 85030000 		.4byte	.LASF25
 408 0135 04       		.byte	0x4
 409 0136 4D       		.byte	0x4d
 410 0137 1D       		.byte	0x1d
 411 0138 BF000000 		.4byte	0xbf
 412 013c 04       		.uleb128 0x4
 413 013d 36000000 		.4byte	.LASF26
 414 0141 04       		.byte	0x4
 415 0142 4F       		.byte	0x4f
 416 0143 1D       		.byte	0x1d
 417 0144 D0000000 		.4byte	0xd0
 418 0148 04       		.uleb128 0x4
 419 0149 03030000 		.4byte	.LASF27
 420 014d 04       		.byte	0x4
 421 014e 51       		.byte	0x51
 422 014f 1D       		.byte	0x1d
 423 0150 BF000000 		.4byte	0xbf
 424 0154 04       		.uleb128 0x4
 425 0155 EC050000 		.4byte	.LASF28
 426 0159 05       		.byte	0x5
 427 015a 33       		.byte	0x33
 428 015b 12       		.byte	0x12
 429 015c D0000000 		.4byte	0xd0
 430 0160 05       		.uleb128 0x5
 431 0161 54010000 		.4byte	0x154
 432 0165 04       		.uleb128 0x4
 433 0166 DC050000 		.4byte	.LASF29
 434 016a 05       		.byte	0x5
 435 016b 3F       		.byte	0x3f
 436 016c 1A       		.byte	0x1a
 437 016d 71010000 		.4byte	0x171
 438 0171 06       		.uleb128 0x6
 439 0172 7B030000 		.4byte	.LASF51
 440 0176 48       		.byte	0x48
 441 0177 06       		.byte	0x6
 442 0178 C2       		.byte	0xc2
 443 0179 08       		.byte	0x8
 444 017a 8B020000 		.4byte	0x28b
 445 017e 07       		.uleb128 0x7
 446 017f 09050000 		.4byte	.LASF30
 447 0183 06       		.byte	0x6
 448 0184 C3       		.byte	0xc3
 449 0185 1A       		.byte	0x1a
 450 0186 97020000 		.4byte	0x297
 451 018a 00       		.byte	0
 452 018b 07       		.uleb128 0x7
 453 018c 9A040000 		.4byte	.LASF31
 454 0190 06       		.byte	0x6
 455 0191 C5       		.byte	0xc5
 456 0192 1A       		.byte	0x1a
ARM GAS  C:\Users\USER\AppData\Local\Temp\cc9vjrjC.s 			page 9


 457 0193 97020000 		.4byte	0x297
 458 0197 04       		.byte	0x4
 459 0198 07       		.uleb128 0x7
 460 0199 E1000000 		.4byte	.LASF32
 461 019d 06       		.byte	0x6
 462 019e C7       		.byte	0xc7
 463 019f 19       		.byte	0x19
 464 01a0 24010000 		.4byte	0x124
 465 01a4 08       		.byte	0x8
 466 01a5 07       		.uleb128 0x7
 467 01a6 43040000 		.4byte	.LASF33
 468 01aa 06       		.byte	0x6
 469 01ab C8       		.byte	0xc8
 470 01ac 19       		.byte	0x19
 471 01ad 03050000 		.4byte	0x503
 472 01b1 0C       		.byte	0xc
 473 01b2 07       		.uleb128 0x7
 474 01b3 9D010000 		.4byte	.LASF34
 475 01b7 06       		.byte	0x6
 476 01b8 CA       		.byte	0xca
 477 01b9 1A       		.byte	0x1a
 478 01ba 97020000 		.4byte	0x297
 479 01be 10       		.byte	0x10
 480 01bf 07       		.uleb128 0x7
 481 01c0 35040000 		.4byte	.LASF35
 482 01c4 06       		.byte	0x6
 483 01c5 CB       		.byte	0xcb
 484 01c6 1A       		.byte	0x1a
 485 01c7 97020000 		.4byte	0x297
 486 01cb 14       		.byte	0x14
 487 01cc 07       		.uleb128 0x7
 488 01cd BC060000 		.4byte	.LASF36
 489 01d1 06       		.byte	0x6
 490 01d2 D2       		.byte	0xd2
 491 01d3 1A       		.byte	0x1a
 492 01d4 76070000 		.4byte	0x776
 493 01d8 18       		.byte	0x18
 494 01d9 07       		.uleb128 0x7
 495 01da E9040000 		.4byte	.LASF37
 496 01de 06       		.byte	0x6
 497 01df DD       		.byte	0xdd
 498 01e0 19       		.byte	0x19
 499 01e1 00010000 		.4byte	0x100
 500 01e5 1C       		.byte	0x1c
 501 01e6 07       		.uleb128 0x7
 502 01e7 27050000 		.4byte	.LASF38
 503 01eb 06       		.byte	0x6
 504 01ec E1       		.byte	0xe1
 505 01ed 19       		.byte	0x19
 506 01ee F4000000 		.4byte	0xf4
 507 01f2 1D       		.byte	0x1d
 508 01f3 07       		.uleb128 0x7
 509 01f4 56060000 		.4byte	.LASF39
 510 01f8 06       		.byte	0x6
 511 01f9 E6       		.byte	0xe6
 512 01fa 19       		.byte	0x19
 513 01fb 0C010000 		.4byte	0x10c
ARM GAS  C:\Users\USER\AppData\Local\Temp\cc9vjrjC.s 			page 10


 514 01ff 1E       		.byte	0x1e
 515 0200 07       		.uleb128 0x7
 516 0201 F1040000 		.4byte	.LASF40
 517 0205 06       		.byte	0x6
 518 0206 EC       		.byte	0xec
 519 0207 19       		.byte	0x19
 520 0208 18010000 		.4byte	0x118
 521 020c 1F       		.byte	0x1f
 522 020d 07       		.uleb128 0x7
 523 020e 37030000 		.4byte	.LASF41
 524 0212 06       		.byte	0x6
 525 0213 F3       		.byte	0xf3
 526 0214 19       		.byte	0x19
 527 0215 60010000 		.4byte	0x160
 528 0219 20       		.byte	0x20
 529 021a 08       		.uleb128 0x8
 530 021b 705F7500 		.ascii	"p_u\000"
 531 021f 06       		.byte	0x6
 532 0220 3101     		.2byte	0x131
 533 0222 19       		.byte	0x19
 534 0223 A2060000 		.4byte	0x6a2
 535 0227 24       		.byte	0x24
 536 0228 09       		.uleb128 0x9
 537 0229 F4030000 		.4byte	.LASF42
 538 022d 06       		.byte	0x6
 539 022e 3601     		.2byte	0x136
 540 0230 19       		.byte	0x19
 541 0231 9D020000 		.4byte	0x29d
 542 0235 28       		.byte	0x28
 543 0236 09       		.uleb128 0x9
 544 0237 4E030000 		.4byte	.LASF43
 545 023b 06       		.byte	0x6
 546 023c 3C01     		.2byte	0x13c
 547 023e 19       		.byte	0x19
 548 023f C4020000 		.4byte	0x2c4
 549 0243 2C       		.byte	0x2c
 550 0244 09       		.uleb128 0x9
 551 0245 2E060000 		.4byte	.LASF44
 552 0249 06       		.byte	0x6
 553 024a 4001     		.2byte	0x140
 554 024c 19       		.byte	0x19
 555 024d 30010000 		.4byte	0x130
 556 0251 34       		.byte	0x34
 557 0252 09       		.uleb128 0x9
 558 0253 73050000 		.4byte	.LASF45
 559 0257 06       		.byte	0x6
 560 0258 4601     		.2byte	0x146
 561 025a 19       		.byte	0x19
 562 025b 3C010000 		.4byte	0x13c
 563 025f 38       		.byte	0x38
 564 0260 09       		.uleb128 0x9
 565 0261 D5040000 		.4byte	.LASF46
 566 0265 06       		.byte	0x6
 567 0266 4D01     		.2byte	0x14d
 568 0268 1A       		.byte	0x1a
 569 0269 70070000 		.4byte	0x770
 570 026d 3C       		.byte	0x3c
ARM GAS  C:\Users\USER\AppData\Local\Temp\cc9vjrjC.s 			page 11


 571 026e 09       		.uleb128 0x9
 572 026f F6050000 		.4byte	.LASF47
 573 0273 06       		.byte	0x6
 574 0274 5101     		.2byte	0x151
 575 0276 19       		.byte	0x19
 576 0277 24010000 		.4byte	0x124
 577 027b 40       		.byte	0x40
 578 027c 09       		.uleb128 0x9
 579 027d 35010000 		.4byte	.LASF48
 580 0281 06       		.byte	0x6
 581 0282 5801     		.2byte	0x158
 582 0284 1A       		.byte	0x1a
 583 0285 84030000 		.4byte	0x384
 584 0289 44       		.byte	0x44
 585 028a 00       		.byte	0
 586 028b 04       		.uleb128 0x4
 587 028c A2060000 		.4byte	.LASF49
 588 0290 05       		.byte	0x5
 589 0291 44       		.byte	0x44
 590 0292 14       		.byte	0x14
 591 0293 97020000 		.4byte	0x297
 592 0297 0A       		.uleb128 0xa
 593 0298 04       		.byte	0x4
 594 0299 65010000 		.4byte	0x165
 595 029d 04       		.uleb128 0x4
 596 029e D1030000 		.4byte	.LASF50
 597 02a2 05       		.byte	0x5
 598 02a3 49       		.byte	0x49
 599 02a4 20       		.byte	0x20
 600 02a5 A9020000 		.4byte	0x2a9
 601 02a9 06       		.uleb128 0x6
 602 02aa 9B050000 		.4byte	.LASF52
 603 02ae 04       		.byte	0x4
 604 02af 06       		.byte	0x6
 605 02b0 B0       		.byte	0xb0
 606 02b1 08       		.byte	0x8
 607 02b2 C4020000 		.4byte	0x2c4
 608 02b6 07       		.uleb128 0x7
 609 02b7 09050000 		.4byte	.LASF30
 610 02bb 06       		.byte	0x6
 611 02bc B1       		.byte	0xb1
 612 02bd 1A       		.byte	0x1a
 613 02be 97020000 		.4byte	0x297
 614 02c2 00       		.byte	0
 615 02c3 00       		.byte	0
 616 02c4 04       		.uleb128 0x4
 617 02c5 38050000 		.4byte	.LASF53
 618 02c9 05       		.byte	0x5
 619 02ca 50       		.byte	0x50
 620 02cb 21       		.byte	0x21
 621 02cc D0020000 		.4byte	0x2d0
 622 02d0 06       		.uleb128 0x6
 623 02d1 D0000000 		.4byte	.LASF54
 624 02d5 08       		.byte	0x8
 625 02d6 06       		.byte	0x6
 626 02d7 B7       		.byte	0xb7
 627 02d8 08       		.byte	0x8
ARM GAS  C:\Users\USER\AppData\Local\Temp\cc9vjrjC.s 			page 12


 628 02d9 F8020000 		.4byte	0x2f8
 629 02dd 07       		.uleb128 0x7
 630 02de 09050000 		.4byte	.LASF30
 631 02e2 06       		.byte	0x6
 632 02e3 B8       		.byte	0xb8
 633 02e4 1A       		.byte	0x1a
 634 02e5 97020000 		.4byte	0x297
 635 02e9 00       		.byte	0
 636 02ea 07       		.uleb128 0x7
 637 02eb 9A040000 		.4byte	.LASF31
 638 02ef 06       		.byte	0x6
 639 02f0 B9       		.byte	0xb9
 640 02f1 1A       		.byte	0x1a
 641 02f2 97020000 		.4byte	0x297
 642 02f6 04       		.byte	0x4
 643 02f7 00       		.byte	0
 644 02f8 04       		.uleb128 0x4
 645 02f9 0D000000 		.4byte	.LASF55
 646 02fd 05       		.byte	0x5
 647 02fe 57       		.byte	0x57
 648 02ff 1E       		.byte	0x1e
 649 0300 04030000 		.4byte	0x304
 650 0304 0B       		.uleb128 0xb
 651 0305 A3030000 		.4byte	.LASF56
 652 0309 1C       		.byte	0x1c
 653 030a 06       		.byte	0x6
 654 030b 9001     		.2byte	0x190
 655 030d 08       		.byte	0x8
 656 030e 67030000 		.4byte	0x367
 657 0312 09       		.uleb128 0x9
 658 0313 93050000 		.4byte	.LASF57
 659 0317 06       		.byte	0x6
 660 0318 9101     		.2byte	0x191
 661 031a 19       		.byte	0x19
 662 031b C4020000 		.4byte	0x2c4
 663 031f 00       		.byte	0
 664 0320 09       		.uleb128 0x9
 665 0321 FB040000 		.4byte	.LASF58
 666 0325 06       		.byte	0x6
 667 0326 9201     		.2byte	0x192
 668 0328 19       		.byte	0x19
 669 0329 24010000 		.4byte	0x124
 670 032d 08       		.byte	0x8
 671 032e 09       		.uleb128 0x9
 672 032f 3D040000 		.4byte	.LASF59
 673 0333 06       		.byte	0x6
 674 0334 9401     		.2byte	0x194
 675 0336 19       		.byte	0x19
 676 0337 03050000 		.4byte	0x503
 677 033b 0C       		.byte	0xc
 678 033c 09       		.uleb128 0x9
 679 033d A5010000 		.4byte	.LASF60
 680 0341 06       		.byte	0x6
 681 0342 9701     		.2byte	0x197
 682 0344 1A       		.byte	0x1a
 683 0345 97020000 		.4byte	0x297
 684 0349 10       		.byte	0x10
ARM GAS  C:\Users\USER\AppData\Local\Temp\cc9vjrjC.s 			page 13


 685 034a 09       		.uleb128 0x9
 686 034b 64040000 		.4byte	.LASF61
 687 034f 06       		.byte	0x6
 688 0350 9801     		.2byte	0x198
 689 0352 1A       		.byte	0x1a
 690 0353 97020000 		.4byte	0x297
 691 0357 14       		.byte	0x14
 692 0358 09       		.uleb128 0x9
 693 0359 5A040000 		.4byte	.LASF62
 694 035d 06       		.byte	0x6
 695 035e 9B01     		.2byte	0x19b
 696 0360 1A       		.byte	0x1a
 697 0361 97020000 		.4byte	0x297
 698 0365 18       		.byte	0x18
 699 0366 00       		.byte	0
 700 0367 04       		.uleb128 0x4
 701 0368 01060000 		.4byte	.LASF63
 702 036c 05       		.byte	0x5
 703 036d 5C       		.byte	0x5c
 704 036e 10       		.byte	0x10
 705 036f 73030000 		.4byte	0x373
 706 0373 0A       		.uleb128 0xa
 707 0374 04       		.byte	0x4
 708 0375 79030000 		.4byte	0x379
 709 0379 0C       		.uleb128 0xc
 710 037a 84030000 		.4byte	0x384
 711 037e 0D       		.uleb128 0xd
 712 037f 84030000 		.4byte	0x384
 713 0383 00       		.byte	0
 714 0384 0E       		.uleb128 0xe
 715 0385 04       		.byte	0x4
 716 0386 04       		.uleb128 0x4
 717 0387 8A040000 		.4byte	.LASF64
 718 038b 05       		.byte	0x5
 719 038c 61       		.byte	0x61
 720 038d 21       		.byte	0x21
 721 038e 92030000 		.4byte	0x392
 722 0392 0B       		.uleb128 0xb
 723 0393 48050000 		.4byte	.LASF65
 724 0397 14       		.byte	0x14
 725 0398 06       		.byte	0x6
 726 0399 6B01     		.2byte	0x16b
 727 039b 08       		.byte	0x8
 728 039c E7030000 		.4byte	0x3e7
 729 03a0 09       		.uleb128 0x9
 730 03a1 16030000 		.4byte	.LASF66
 731 03a5 06       		.byte	0x6
 732 03a6 6C01     		.2byte	0x16c
 733 03a8 1A       		.byte	0x1a
 734 03a9 8D070000 		.4byte	0x78d
 735 03ad 00       		.byte	0
 736 03ae 09       		.uleb128 0x9
 737 03af B6010000 		.4byte	.LASF67
 738 03b3 06       		.byte	0x6
 739 03b4 6D01     		.2byte	0x16d
 740 03b6 1A       		.byte	0x1a
 741 03b7 8D070000 		.4byte	0x78d
ARM GAS  C:\Users\USER\AppData\Local\Temp\cc9vjrjC.s 			page 14


 742 03bb 04       		.byte	0x4
 743 03bc 09       		.uleb128 0x9
 744 03bd 45030000 		.4byte	.LASF68
 745 03c1 06       		.byte	0x6
 746 03c2 6E01     		.2byte	0x16e
 747 03c4 19       		.byte	0x19
 748 03c5 54010000 		.4byte	0x154
 749 03c9 08       		.byte	0x8
 750 03ca 09       		.uleb128 0x9
 751 03cb F9060000 		.4byte	.LASF69
 752 03cf 06       		.byte	0x6
 753 03d0 6F01     		.2byte	0x16f
 754 03d2 19       		.byte	0x19
 755 03d3 67030000 		.4byte	0x367
 756 03d7 0C       		.byte	0xc
 757 03d8 09       		.uleb128 0x9
 758 03d9 34060000 		.4byte	.LASF70
 759 03dd 06       		.byte	0x6
 760 03de 7101     		.2byte	0x171
 761 03e0 1A       		.byte	0x1a
 762 03e1 84030000 		.4byte	0x384
 763 03e5 10       		.byte	0x10
 764 03e6 00       		.byte	0
 765 03e7 04       		.uleb128 0x4
 766 03e8 AD000000 		.4byte	.LASF71
 767 03ec 05       		.byte	0x5
 768 03ed 66       		.byte	0x66
 769 03ee 28       		.byte	0x28
 770 03ef F3030000 		.4byte	0x3f3
 771 03f3 0B       		.uleb128 0xb
 772 03f4 06040000 		.4byte	.LASF72
 773 03f8 10       		.byte	0x10
 774 03f9 06       		.byte	0x6
 775 03fa 7B01     		.2byte	0x17b
 776 03fc 08       		.byte	0x8
 777 03fd 3A040000 		.4byte	0x43a
 778 0401 09       		.uleb128 0x9
 779 0402 16030000 		.4byte	.LASF66
 780 0406 06       		.byte	0x6
 781 0407 7C01     		.2byte	0x17c
 782 0409 1A       		.byte	0x1a
 783 040a 8D070000 		.4byte	0x78d
 784 040e 00       		.byte	0
 785 040f 09       		.uleb128 0x9
 786 0410 B6010000 		.4byte	.LASF67
 787 0414 06       		.byte	0x6
 788 0415 7E01     		.2byte	0x17e
 789 0417 1A       		.byte	0x1a
 790 0418 8D070000 		.4byte	0x78d
 791 041c 04       		.byte	0x4
 792 041d 09       		.uleb128 0x9
 793 041e 45030000 		.4byte	.LASF68
 794 0422 06       		.byte	0x6
 795 0423 8001     		.2byte	0x180
 796 0425 19       		.byte	0x19
 797 0426 54010000 		.4byte	0x154
 798 042a 08       		.byte	0x8
ARM GAS  C:\Users\USER\AppData\Local\Temp\cc9vjrjC.s 			page 15


 799 042b 09       		.uleb128 0x9
 800 042c C3060000 		.4byte	.LASF73
 801 0430 06       		.byte	0x6
 802 0431 8201     		.2byte	0x182
 803 0433 19       		.byte	0x19
 804 0434 60010000 		.4byte	0x160
 805 0438 0C       		.byte	0xc
 806 0439 00       		.byte	0
 807 043a 04       		.uleb128 0x4
 808 043b 58000000 		.4byte	.LASF74
 809 043f 05       		.byte	0x5
 810 0440 6B       		.byte	0x6b
 811 0441 20       		.byte	0x20
 812 0442 46040000 		.4byte	0x446
 813 0446 0B       		.uleb128 0xb
 814 0447 A9040000 		.4byte	.LASF75
 815 044b 04       		.byte	0x4
 816 044c 06       		.byte	0x6
 817 044d A201     		.2byte	0x1a2
 818 044f 08       		.byte	0x8
 819 0450 63040000 		.4byte	0x463
 820 0454 09       		.uleb128 0x9
 821 0455 15060000 		.4byte	.LASF76
 822 0459 06       		.byte	0x6
 823 045a AA01     		.2byte	0x1aa
 824 045c 24       		.byte	0x24
 825 045d 7C070000 		.4byte	0x77c
 826 0461 00       		.byte	0
 827 0462 00       		.byte	0
 828 0463 04       		.uleb128 0x4
 829 0464 8B030000 		.4byte	.LASF77
 830 0468 05       		.byte	0x5
 831 0469 70       		.byte	0x70
 832 046a 1A       		.byte	0x1a
 833 046b 6F040000 		.4byte	0x46f
 834 046f 0F       		.uleb128 0xf
 835 0470 56010000 		.4byte	.LASF78
 836 0474 5802     		.2byte	0x258
 837 0476 06       		.byte	0x6
 838 0477 C201     		.2byte	0x1c2
 839 0479 08       		.byte	0x8
 840 047a D2040000 		.4byte	0x4d2
 841 047e 09       		.uleb128 0x9
 842 047f 94060000 		.4byte	.LASF79
 843 0483 06       		.byte	0x6
 844 0484 C601     		.2byte	0x1c6
 845 0486 19       		.byte	0x19
 846 0487 F8020000 		.4byte	0x2f8
 847 048b 00       		.byte	0
 848 048c 09       		.uleb128 0x9
 849 048d 45010000 		.4byte	.LASF80
 850 0491 06       		.byte	0x6
 851 0492 CA01     		.2byte	0x1ca
 852 0494 19       		.byte	0x19
 853 0495 E7030000 		.4byte	0x3e7
 854 0499 1C       		.byte	0x1c
 855 049a 08       		.uleb128 0x8
ARM GAS  C:\Users\USER\AppData\Local\Temp\cc9vjrjC.s 			page 16


 856 049b 64626700 		.ascii	"dbg\000"
 857 049f 06       		.byte	0x6
 858 04a0 CE01     		.2byte	0x1ce
 859 04a2 19       		.byte	0x19
 860 04a3 3A040000 		.4byte	0x43a
 861 04a7 2C       		.byte	0x2c
 862 04a8 09       		.uleb128 0x9
 863 04a9 A2000000 		.4byte	.LASF81
 864 04ad 06       		.byte	0x6
 865 04ae D201     		.2byte	0x1d2
 866 04b0 19       		.byte	0x19
 867 04b1 65010000 		.4byte	0x165
 868 04b5 30       		.byte	0x30
 869 04b6 08       		.uleb128 0x8
 870 04b7 746D00   		.ascii	"tm\000"
 871 04ba 06       		.byte	0x6
 872 04bb D701     		.2byte	0x1d7
 873 04bd 19       		.byte	0x19
 874 04be 96060000 		.4byte	0x696
 875 04c2 78       		.byte	0x78
 876 04c3 09       		.uleb128 0x9
 877 04c4 F4020000 		.4byte	.LASF82
 878 04c8 06       		.byte	0x6
 879 04c9 E301     		.2byte	0x1e3
 880 04cb 03       		.byte	0x3
 881 04cc 93070000 		.4byte	0x793
 882 04d0 80       		.byte	0x80
 883 04d1 00       		.byte	0
 884 04d2 10       		.uleb128 0x10
 885 04d3 C3000000 		.4byte	.LASF83
 886 04d7 07       		.byte	0x7
 887 04d8 A706     		.2byte	0x6a7
 888 04da 19       		.byte	0x19
 889 04db CB000000 		.4byte	0xcb
 890 04df 11       		.uleb128 0x11
 891 04e0 27030000 		.4byte	.LASF84
 892 04e4 08       		.byte	0x8
 893 04e5 4C       		.byte	0x4c
 894 04e6 11       		.byte	0x11
 895 04e7 D0000000 		.4byte	0xd0
 896 04eb 04       		.uleb128 0x4
 897 04ec AD010000 		.4byte	.LASF85
 898 04f0 09       		.byte	0x9
 899 04f1 65       		.byte	0x65
 900 04f2 0F       		.byte	0xf
 901 04f3 84030000 		.4byte	0x384
 902 04f7 04       		.uleb128 0x4
 903 04f8 C6030000 		.4byte	.LASF86
 904 04fc 09       		.byte	0x9
 905 04fd 6D       		.byte	0x6d
 906 04fe 12       		.byte	0x12
 907 04ff DC000000 		.4byte	0xdc
 908 0503 06       		.uleb128 0x6
 909 0504 26060000 		.4byte	.LASF87
 910 0508 04       		.byte	0x4
 911 0509 09       		.byte	0x9
 912 050a 89       		.byte	0x89
ARM GAS  C:\Users\USER\AppData\Local\Temp\cc9vjrjC.s 			page 17


 913 050b 08       		.byte	0x8
 914 050c 1E050000 		.4byte	0x51e
 915 0510 12       		.uleb128 0x12
 916 0511 72313300 		.ascii	"r13\000"
 917 0515 09       		.byte	0x9
 918 0516 8A       		.byte	0x8a
 919 0517 17       		.byte	0x17
 920 0518 79060000 		.4byte	0x679
 921 051c 00       		.byte	0
 922 051d 00       		.byte	0
 923 051e 06       		.uleb128 0x6
 924 051f 4C000000 		.4byte	.LASF88
 925 0523 64       		.byte	0x64
 926 0524 0A       		.byte	0xa
 927 0525 F4       		.byte	0xf4
 928 0526 08       		.byte	0x8
 929 0527 79060000 		.4byte	0x679
 930 052b 12       		.uleb128 0x12
 931 052c 73313600 		.ascii	"s16\000"
 932 0530 0A       		.byte	0xa
 933 0531 F6       		.byte	0xf6
 934 0532 11       		.byte	0x11
 935 0533 EB040000 		.4byte	0x4eb
 936 0537 00       		.byte	0
 937 0538 12       		.uleb128 0x12
 938 0539 73313700 		.ascii	"s17\000"
 939 053d 0A       		.byte	0xa
 940 053e F7       		.byte	0xf7
 941 053f 11       		.byte	0x11
 942 0540 EB040000 		.4byte	0x4eb
 943 0544 04       		.byte	0x4
 944 0545 12       		.uleb128 0x12
 945 0546 73313800 		.ascii	"s18\000"
 946 054a 0A       		.byte	0xa
 947 054b F8       		.byte	0xf8
 948 054c 11       		.byte	0x11
 949 054d EB040000 		.4byte	0x4eb
 950 0551 08       		.byte	0x8
 951 0552 12       		.uleb128 0x12
 952 0553 73313900 		.ascii	"s19\000"
 953 0557 0A       		.byte	0xa
 954 0558 F9       		.byte	0xf9
 955 0559 11       		.byte	0x11
 956 055a EB040000 		.4byte	0x4eb
 957 055e 0C       		.byte	0xc
 958 055f 12       		.uleb128 0x12
 959 0560 73323000 		.ascii	"s20\000"
 960 0564 0A       		.byte	0xa
 961 0565 FA       		.byte	0xfa
 962 0566 11       		.byte	0x11
 963 0567 EB040000 		.4byte	0x4eb
 964 056b 10       		.byte	0x10
 965 056c 12       		.uleb128 0x12
 966 056d 73323100 		.ascii	"s21\000"
 967 0571 0A       		.byte	0xa
 968 0572 FB       		.byte	0xfb
 969 0573 11       		.byte	0x11
ARM GAS  C:\Users\USER\AppData\Local\Temp\cc9vjrjC.s 			page 18


 970 0574 EB040000 		.4byte	0x4eb
 971 0578 14       		.byte	0x14
 972 0579 12       		.uleb128 0x12
 973 057a 73323200 		.ascii	"s22\000"
 974 057e 0A       		.byte	0xa
 975 057f FC       		.byte	0xfc
 976 0580 11       		.byte	0x11
 977 0581 EB040000 		.4byte	0x4eb
 978 0585 18       		.byte	0x18
 979 0586 12       		.uleb128 0x12
 980 0587 73323300 		.ascii	"s23\000"
 981 058b 0A       		.byte	0xa
 982 058c FD       		.byte	0xfd
 983 058d 11       		.byte	0x11
 984 058e EB040000 		.4byte	0x4eb
 985 0592 1C       		.byte	0x1c
 986 0593 12       		.uleb128 0x12
 987 0594 73323400 		.ascii	"s24\000"
 988 0598 0A       		.byte	0xa
 989 0599 FE       		.byte	0xfe
 990 059a 11       		.byte	0x11
 991 059b EB040000 		.4byte	0x4eb
 992 059f 20       		.byte	0x20
 993 05a0 12       		.uleb128 0x12
 994 05a1 73323500 		.ascii	"s25\000"
 995 05a5 0A       		.byte	0xa
 996 05a6 FF       		.byte	0xff
 997 05a7 11       		.byte	0x11
 998 05a8 EB040000 		.4byte	0x4eb
 999 05ac 24       		.byte	0x24
 1000 05ad 08       		.uleb128 0x8
 1001 05ae 73323600 		.ascii	"s26\000"
 1002 05b2 0A       		.byte	0xa
 1003 05b3 0001     		.2byte	0x100
 1004 05b5 11       		.byte	0x11
 1005 05b6 EB040000 		.4byte	0x4eb
 1006 05ba 28       		.byte	0x28
 1007 05bb 08       		.uleb128 0x8
 1008 05bc 73323700 		.ascii	"s27\000"
 1009 05c0 0A       		.byte	0xa
 1010 05c1 0101     		.2byte	0x101
 1011 05c3 11       		.byte	0x11
 1012 05c4 EB040000 		.4byte	0x4eb
 1013 05c8 2C       		.byte	0x2c
 1014 05c9 08       		.uleb128 0x8
 1015 05ca 73323800 		.ascii	"s28\000"
 1016 05ce 0A       		.byte	0xa
 1017 05cf 0201     		.2byte	0x102
 1018 05d1 11       		.byte	0x11
 1019 05d2 EB040000 		.4byte	0x4eb
 1020 05d6 30       		.byte	0x30
 1021 05d7 08       		.uleb128 0x8
 1022 05d8 73323900 		.ascii	"s29\000"
 1023 05dc 0A       		.byte	0xa
 1024 05dd 0301     		.2byte	0x103
 1025 05df 11       		.byte	0x11
 1026 05e0 EB040000 		.4byte	0x4eb
ARM GAS  C:\Users\USER\AppData\Local\Temp\cc9vjrjC.s 			page 19


 1027 05e4 34       		.byte	0x34
 1028 05e5 08       		.uleb128 0x8
 1029 05e6 73333000 		.ascii	"s30\000"
 1030 05ea 0A       		.byte	0xa
 1031 05eb 0401     		.2byte	0x104
 1032 05ed 11       		.byte	0x11
 1033 05ee EB040000 		.4byte	0x4eb
 1034 05f2 38       		.byte	0x38
 1035 05f3 08       		.uleb128 0x8
 1036 05f4 73333100 		.ascii	"s31\000"
 1037 05f8 0A       		.byte	0xa
 1038 05f9 0501     		.2byte	0x105
 1039 05fb 11       		.byte	0x11
 1040 05fc EB040000 		.4byte	0x4eb
 1041 0600 3C       		.byte	0x3c
 1042 0601 08       		.uleb128 0x8
 1043 0602 723400   		.ascii	"r4\000"
 1044 0605 0A       		.byte	0xa
 1045 0606 0701     		.2byte	0x107
 1046 0608 11       		.byte	0x11
 1047 0609 EB040000 		.4byte	0x4eb
 1048 060d 40       		.byte	0x40
 1049 060e 08       		.uleb128 0x8
 1050 060f 723500   		.ascii	"r5\000"
 1051 0612 0A       		.byte	0xa
 1052 0613 0801     		.2byte	0x108
 1053 0615 11       		.byte	0x11
 1054 0616 EB040000 		.4byte	0x4eb
 1055 061a 44       		.byte	0x44
 1056 061b 08       		.uleb128 0x8
 1057 061c 723600   		.ascii	"r6\000"
 1058 061f 0A       		.byte	0xa
 1059 0620 0901     		.2byte	0x109
 1060 0622 11       		.byte	0x11
 1061 0623 EB040000 		.4byte	0x4eb
 1062 0627 48       		.byte	0x48
 1063 0628 08       		.uleb128 0x8
 1064 0629 723700   		.ascii	"r7\000"
 1065 062c 0A       		.byte	0xa
 1066 062d 0A01     		.2byte	0x10a
 1067 062f 11       		.byte	0x11
 1068 0630 EB040000 		.4byte	0x4eb
 1069 0634 4C       		.byte	0x4c
 1070 0635 08       		.uleb128 0x8
 1071 0636 723800   		.ascii	"r8\000"
 1072 0639 0A       		.byte	0xa
 1073 063a 0B01     		.2byte	0x10b
 1074 063c 11       		.byte	0x11
 1075 063d EB040000 		.4byte	0x4eb
 1076 0641 50       		.byte	0x50
 1077 0642 08       		.uleb128 0x8
 1078 0643 723900   		.ascii	"r9\000"
 1079 0646 0A       		.byte	0xa
 1080 0647 0C01     		.2byte	0x10c
 1081 0649 11       		.byte	0x11
 1082 064a EB040000 		.4byte	0x4eb
 1083 064e 54       		.byte	0x54
ARM GAS  C:\Users\USER\AppData\Local\Temp\cc9vjrjC.s 			page 20


 1084 064f 08       		.uleb128 0x8
 1085 0650 72313000 		.ascii	"r10\000"
 1086 0654 0A       		.byte	0xa
 1087 0655 0D01     		.2byte	0x10d
 1088 0657 11       		.byte	0x11
 1089 0658 EB040000 		.4byte	0x4eb
 1090 065c 58       		.byte	0x58
 1091 065d 08       		.uleb128 0x8
 1092 065e 72313100 		.ascii	"r11\000"
 1093 0662 0A       		.byte	0xa
 1094 0663 0E01     		.2byte	0x10e
 1095 0665 11       		.byte	0x11
 1096 0666 EB040000 		.4byte	0x4eb
 1097 066a 5C       		.byte	0x5c
 1098 066b 08       		.uleb128 0x8
 1099 066c 6C7200   		.ascii	"lr\000"
 1100 066f 0A       		.byte	0xa
 1101 0670 0F01     		.2byte	0x10f
 1102 0672 11       		.byte	0x11
 1103 0673 EB040000 		.4byte	0x4eb
 1104 0677 60       		.byte	0x60
 1105 0678 00       		.byte	0
 1106 0679 0A       		.uleb128 0xa
 1107 067a 04       		.byte	0x4
 1108 067b 1E050000 		.4byte	0x51e
 1109 067f 13       		.uleb128 0x13
 1110 0680 04       		.byte	0x4
 1111 0681 0B       		.byte	0xb
 1112 0682 38       		.byte	0x38
 1113 0683 09       		.byte	0x9
 1114 0684 96060000 		.4byte	0x696
 1115 0688 07       		.uleb128 0x7
 1116 0689 1F060000 		.4byte	.LASF89
 1117 068d 0B       		.byte	0xb
 1118 068e 3C       		.byte	0x3c
 1119 068f 19       		.byte	0x19
 1120 0690 E8000000 		.4byte	0xe8
 1121 0694 00       		.byte	0
 1122 0695 00       		.byte	0
 1123 0696 04       		.uleb128 0x4
 1124 0697 49040000 		.4byte	.LASF90
 1125 069b 0B       		.byte	0xb
 1126 069c 3D       		.byte	0x3d
 1127 069d 03       		.byte	0x3
 1128 069e 7F060000 		.4byte	0x67f
 1129 06a2 14       		.uleb128 0x14
 1130 06a3 04       		.byte	0x4
 1131 06a4 06       		.byte	0x6
 1132 06a5 FA       		.byte	0xfa
 1133 06a6 03       		.byte	0x3
 1134 06a7 07070000 		.4byte	0x707
 1135 06ab 15       		.uleb128 0x15
 1136 06ac 26000000 		.4byte	.LASF91
 1137 06b0 06       		.byte	0x6
 1138 06b1 0101     		.2byte	0x101
 1139 06b3 19       		.byte	0x19
 1140 06b4 30010000 		.4byte	0x130
ARM GAS  C:\Users\USER\AppData\Local\Temp\cc9vjrjC.s 			page 21


 1141 06b8 15       		.uleb128 0x15
 1142 06b9 99000000 		.4byte	.LASF92
 1143 06bd 06       		.byte	0x6
 1144 06be 0801     		.2byte	0x108
 1145 06c0 19       		.byte	0x19
 1146 06c1 30010000 		.4byte	0x130
 1147 06c5 15       		.uleb128 0x15
 1148 06c6 B5060000 		.4byte	.LASF93
 1149 06ca 06       		.byte	0x6
 1150 06cb 0F01     		.2byte	0x10f
 1151 06cd 1A       		.byte	0x1a
 1152 06ce 84030000 		.4byte	0x384
 1153 06d2 15       		.uleb128 0x15
 1154 06d3 1A000000 		.4byte	.LASF94
 1155 06d7 06       		.byte	0x6
 1156 06d8 1601     		.2byte	0x116
 1157 06da 1A       		.byte	0x1a
 1158 06db 07070000 		.4byte	0x707
 1159 06df 15       		.uleb128 0x15
 1160 06e0 3E030000 		.4byte	.LASF95
 1161 06e4 06       		.byte	0x6
 1162 06e5 1E01     		.2byte	0x11e
 1163 06e7 1A       		.byte	0x1a
 1164 06e8 35070000 		.4byte	0x735
 1165 06ec 15       		.uleb128 0x15
 1166 06ed CA050000 		.4byte	.LASF96
 1167 06f1 06       		.byte	0x6
 1168 06f2 2701     		.2byte	0x127
 1169 06f4 1A       		.byte	0x1a
 1170 06f5 70070000 		.4byte	0x770
 1171 06f9 15       		.uleb128 0x15
 1172 06fa 02050000 		.4byte	.LASF97
 1173 06fe 06       		.byte	0x6
 1174 06ff 2F01     		.2byte	0x12f
 1175 0701 19       		.byte	0x19
 1176 0702 3C010000 		.4byte	0x13c
 1177 0706 00       		.byte	0
 1178 0707 0A       		.uleb128 0xa
 1179 0708 04       		.byte	0x4
 1180 0709 8B020000 		.4byte	0x28b
 1181 070d 06       		.uleb128 0x6
 1182 070e 66050000 		.4byte	.LASF98
 1183 0712 0C       		.byte	0xc
 1184 0713 0C       		.byte	0xc
 1185 0714 34       		.byte	0x34
 1186 0715 10       		.byte	0x10
 1187 0716 35070000 		.4byte	0x735
 1188 071a 07       		.uleb128 0x7
 1189 071b 95010000 		.4byte	.LASF99
 1190 071f 0C       		.byte	0xc
 1191 0720 35       		.byte	0x35
 1192 0721 19       		.byte	0x19
 1193 0722 C4020000 		.4byte	0x2c4
 1194 0726 00       		.byte	0
 1195 0727 07       		.uleb128 0x7
 1196 0728 62030000 		.4byte	.LASF100
 1197 072c 0C       		.byte	0xc
ARM GAS  C:\Users\USER\AppData\Local\Temp\cc9vjrjC.s 			page 22


 1198 072d 37       		.byte	0x37
 1199 072e 19       		.byte	0x19
 1200 072f 48010000 		.4byte	0x148
 1201 0733 08       		.byte	0x8
 1202 0734 00       		.byte	0
 1203 0735 0A       		.uleb128 0xa
 1204 0736 04       		.byte	0x4
 1205 0737 0D070000 		.4byte	0x70d
 1206 073b 06       		.uleb128 0x6
 1207 073c 4D060000 		.4byte	.LASF101
 1208 0740 10       		.byte	0x10
 1209 0741 0D       		.byte	0xd
 1210 0742 39       		.byte	0x39
 1211 0743 08       		.byte	0x8
 1212 0744 70070000 		.4byte	0x770
 1213 0748 07       		.uleb128 0x7
 1214 0749 3D010000 		.4byte	.LASF102
 1215 074d 0D       		.byte	0xd
 1216 074e 3A       		.byte	0x3a
 1217 074f 19       		.byte	0x19
 1218 0750 C4020000 		.4byte	0x2c4
 1219 0754 00       		.byte	0
 1220 0755 07       		.uleb128 0x7
 1221 0756 D9060000 		.4byte	.LASF103
 1222 075a 0D       		.byte	0xd
 1223 075b 3C       		.byte	0x3c
 1224 075c 1A       		.byte	0x1a
 1225 075d 97020000 		.4byte	0x297
 1226 0761 08       		.byte	0x8
 1227 0762 07       		.uleb128 0x7
 1228 0763 E5050000 		.4byte	.LASF104
 1229 0767 0D       		.byte	0xd
 1230 0768 3E       		.byte	0x3e
 1231 0769 1A       		.byte	0x1a
 1232 076a DC080000 		.4byte	0x8dc
 1233 076e 0C       		.byte	0xc
 1234 076f 00       		.byte	0
 1235 0770 0A       		.uleb128 0xa
 1236 0771 04       		.byte	0x4
 1237 0772 3B070000 		.4byte	0x73b
 1238 0776 0A       		.uleb128 0xa
 1239 0777 04       		.byte	0x4
 1240 0778 88070000 		.4byte	0x788
 1241 077c 05       		.uleb128 0x5
 1242 077d 76070000 		.4byte	0x776
 1243 0781 03       		.uleb128 0x3
 1244 0782 01       		.byte	0x1
 1245 0783 08       		.byte	0x8
 1246 0784 C5050000 		.4byte	.LASF105
 1247 0788 16       		.uleb128 0x16
 1248 0789 81070000 		.4byte	0x781
 1249 078d 0A       		.uleb128 0xa
 1250 078e 04       		.byte	0x4
 1251 078f 86030000 		.4byte	0x386
 1252 0793 17       		.uleb128 0x17
 1253 0794 F7040000 		.4byte	0x4f7
 1254 0798 A3070000 		.4byte	0x7a3
ARM GAS  C:\Users\USER\AppData\Local\Temp\cc9vjrjC.s 			page 23


 1255 079c 18       		.uleb128 0x18
 1256 079d 2C000000 		.4byte	0x2c
 1257 07a1 3A       		.byte	0x3a
 1258 07a2 00       		.byte	0
 1259 07a3 19       		.uleb128 0x19
 1260 07a4 636800   		.ascii	"ch\000"
 1261 07a7 06       		.byte	0x6
 1262 07a8 0902     		.2byte	0x209
 1263 07aa 14       		.byte	0x14
 1264 07ab 63040000 		.4byte	0x463
 1265 07af 13       		.uleb128 0x13
 1266 07b0 16       		.byte	0x16
 1267 07b1 0E       		.byte	0xe
 1268 07b2 34       		.byte	0x34
 1269 07b3 09       		.byte	0x9
 1270 07b4 A3080000 		.4byte	0x8a3
 1271 07b8 07       		.uleb128 0x7
 1272 07b9 EB060000 		.4byte	.LASF106
 1273 07bd 0E       		.byte	0xe
 1274 07be 35       		.byte	0x35
 1275 07bf 0D       		.byte	0xd
 1276 07c0 A3080000 		.4byte	0x8a3
 1277 07c4 00       		.byte	0
 1278 07c5 07       		.uleb128 0x7
 1279 07c6 E0030000 		.4byte	.LASF107
 1280 07ca 0E       		.byte	0xe
 1281 07cb 36       		.byte	0x36
 1282 07cc 0D       		.byte	0xd
 1283 07cd A7000000 		.4byte	0xa7
 1284 07d1 04       		.byte	0x4
 1285 07d2 07       		.uleb128 0x7
 1286 07d3 AB050000 		.4byte	.LASF108
 1287 07d7 0E       		.byte	0xe
 1288 07d8 37       		.byte	0x37
 1289 07d9 0D       		.byte	0xd
 1290 07da A7000000 		.4byte	0xa7
 1291 07de 05       		.byte	0x5
 1292 07df 07       		.uleb128 0x7
 1293 07e0 CE060000 		.4byte	.LASF109
 1294 07e4 0E       		.byte	0xe
 1295 07e5 38       		.byte	0x38
 1296 07e6 0D       		.byte	0xd
 1297 07e7 B3000000 		.4byte	0xb3
 1298 07eb 06       		.byte	0x6
 1299 07ec 07       		.uleb128 0x7
 1300 07ed 7F040000 		.4byte	.LASF110
 1301 07f1 0E       		.byte	0xe
 1302 07f2 39       		.byte	0x39
 1303 07f3 0D       		.byte	0xd
 1304 07f4 A7000000 		.4byte	0xa7
 1305 07f8 08       		.byte	0x8
 1306 07f9 07       		.uleb128 0x7
 1307 07fa 1D040000 		.4byte	.LASF111
 1308 07fe 0E       		.byte	0xe
 1309 07ff 3A       		.byte	0x3a
 1310 0800 0D       		.byte	0xd
 1311 0801 A7000000 		.4byte	0xa7
ARM GAS  C:\Users\USER\AppData\Local\Temp\cc9vjrjC.s 			page 24


 1312 0805 09       		.byte	0x9
 1313 0806 07       		.uleb128 0x7
 1314 0807 7E000000 		.4byte	.LASF112
 1315 080b 0E       		.byte	0xe
 1316 080c 3B       		.byte	0x3b
 1317 080d 0D       		.byte	0xd
 1318 080e A7000000 		.4byte	0xa7
 1319 0812 0A       		.byte	0xa
 1320 0813 07       		.uleb128 0x7
 1321 0814 87050000 		.4byte	.LASF113
 1322 0818 0E       		.byte	0xe
 1323 0819 3C       		.byte	0x3c
 1324 081a 0D       		.byte	0xd
 1325 081b A7000000 		.4byte	0xa7
 1326 081f 0B       		.byte	0xb
 1327 0820 07       		.uleb128 0x7
 1328 0821 42060000 		.4byte	.LASF114
 1329 0825 0E       		.byte	0xe
 1330 0826 3D       		.byte	0x3d
 1331 0827 0D       		.byte	0xd
 1332 0828 A7000000 		.4byte	0xa7
 1333 082c 0C       		.byte	0xc
 1334 082d 07       		.uleb128 0x7
 1335 082e 59050000 		.4byte	.LASF115
 1336 0832 0E       		.byte	0xe
 1337 0833 3E       		.byte	0x3e
 1338 0834 0D       		.byte	0xd
 1339 0835 A7000000 		.4byte	0xa7
 1340 0839 0D       		.byte	0xd
 1341 083a 07       		.uleb128 0x7
 1342 083b 00000000 		.4byte	.LASF116
 1343 083f 0E       		.byte	0xe
 1344 0840 3F       		.byte	0x3f
 1345 0841 0D       		.byte	0xd
 1346 0842 A7000000 		.4byte	0xa7
 1347 0846 0E       		.byte	0xe
 1348 0847 07       		.uleb128 0x7
 1349 0848 29040000 		.4byte	.LASF117
 1350 084c 0E       		.byte	0xe
 1351 084d 40       		.byte	0x40
 1352 084e 0D       		.byte	0xd
 1353 084f A7000000 		.4byte	0xa7
 1354 0853 0F       		.byte	0xf
 1355 0854 07       		.uleb128 0x7
 1356 0855 18010000 		.4byte	.LASF118
 1357 0859 0E       		.byte	0xe
 1358 085a 41       		.byte	0x41
 1359 085b 0D       		.byte	0xd
 1360 085c A7000000 		.4byte	0xa7
 1361 0860 10       		.byte	0x10
 1362 0861 07       		.uleb128 0x7
 1363 0862 E8000000 		.4byte	.LASF119
 1364 0866 0E       		.byte	0xe
 1365 0867 43       		.byte	0x43
 1366 0868 0D       		.byte	0xd
 1367 0869 A7000000 		.4byte	0xa7
 1368 086d 11       		.byte	0x11
ARM GAS  C:\Users\USER\AppData\Local\Temp\cc9vjrjC.s 			page 25


 1369 086e 07       		.uleb128 0x7
 1370 086f 28010000 		.4byte	.LASF120
 1371 0873 0E       		.byte	0xe
 1372 0874 44       		.byte	0x44
 1373 0875 0D       		.byte	0xd
 1374 0876 A7000000 		.4byte	0xa7
 1375 087a 12       		.byte	0x12
 1376 087b 07       		.uleb128 0x7
 1377 087c E8030000 		.4byte	.LASF121
 1378 0880 0E       		.byte	0xe
 1379 0881 45       		.byte	0x45
 1380 0882 0D       		.byte	0xd
 1381 0883 A7000000 		.4byte	0xa7
 1382 0887 13       		.byte	0x13
 1383 0888 07       		.uleb128 0x7
 1384 0889 18050000 		.4byte	.LASF122
 1385 088d 0E       		.byte	0xe
 1386 088e 46       		.byte	0x46
 1387 088f 0D       		.byte	0xd
 1388 0890 A7000000 		.4byte	0xa7
 1389 0894 14       		.byte	0x14
 1390 0895 07       		.uleb128 0x7
 1391 0896 97030000 		.4byte	.LASF123
 1392 089a 0E       		.byte	0xe
 1393 089b 48       		.byte	0x48
 1394 089c 0D       		.byte	0xd
 1395 089d A7000000 		.4byte	0xa7
 1396 08a1 15       		.byte	0x15
 1397 08a2 00       		.byte	0
 1398 08a3 17       		.uleb128 0x17
 1399 08a4 81070000 		.4byte	0x781
 1400 08a8 B3080000 		.4byte	0x8b3
 1401 08ac 18       		.uleb128 0x18
 1402 08ad 2C000000 		.4byte	0x2c
 1403 08b1 03       		.byte	0x3
 1404 08b2 00       		.byte	0
 1405 08b3 04       		.uleb128 0x4
 1406 08b4 E1060000 		.4byte	.LASF124
 1407 08b8 0E       		.byte	0xe
 1408 08b9 49       		.byte	0x49
 1409 08ba 03       		.byte	0x3
 1410 08bb AF070000 		.4byte	0x7af
 1411 08bf 16       		.uleb128 0x16
 1412 08c0 B3080000 		.4byte	0x8b3
 1413 08c4 11       		.uleb128 0x11
 1414 08c5 59030000 		.4byte	.LASF125
 1415 08c9 0E       		.byte	0xe
 1416 08ca 6E       		.byte	0x6e
 1417 08cb 1D       		.byte	0x1d
 1418 08cc BF080000 		.4byte	0x8bf
 1419 08d0 04       		.uleb128 0x4
 1420 08d1 EC020000 		.4byte	.LASF126
 1421 08d5 0D       		.byte	0xd
 1422 08d6 34       		.byte	0x34
 1423 08d7 19       		.byte	0x19
 1424 08d8 3B070000 		.4byte	0x73b
 1425 08dc 0A       		.uleb128 0xa
ARM GAS  C:\Users\USER\AppData\Local\Temp\cc9vjrjC.s 			page 26


 1426 08dd 04       		.byte	0x4
 1427 08de D0080000 		.4byte	0x8d0
 1428 08e2 1A       		.uleb128 0x1a
 1429 08e3 8C000000 		.4byte	.LASF127
 1430 08e7 01       		.byte	0x1
 1431 08e8 B1       		.byte	0xb1
 1432 08e9 06       		.byte	0x6
 1433 08ea 00000000 		.4byte	.LFB221
 1434 08ee 28000000 		.4byte	.LFE221-.LFB221
 1435 08f2 01       		.uleb128 0x1
 1436 08f3 9C       		.byte	0x9c
 1437 08f4 10090000 		.4byte	0x910
 1438 08f8 1B       		.uleb128 0x1b
 1439 08f9 76747000 		.ascii	"vtp\000"
 1440 08fd 01       		.byte	0x1
 1441 08fe B1       		.byte	0xb1
 1442 08ff 24       		.byte	0x24
 1443 0900 8D070000 		.4byte	0x78d
 1444 0904 01       		.uleb128 0x1
 1445 0905 50       		.byte	0x50
 1446 0906 1C       		.uleb128 0x1c
 1447 0907 2F050000 		.4byte	.LASF132
 1448 090b 20090000 		.4byte	0x920
 1449 090f 00       		.byte	0
 1450 0910 17       		.uleb128 0x17
 1451 0911 88070000 		.4byte	0x788
 1452 0915 20090000 		.4byte	0x920
 1453 0919 18       		.uleb128 0x18
 1454 091a 2C000000 		.4byte	0x2c
 1455 091e 0C       		.byte	0xc
 1456 091f 00       		.byte	0
 1457 0920 16       		.uleb128 0x16
 1458 0921 10090000 		.4byte	0x910
 1459 0925 1A       		.uleb128 0x1a
 1460 0926 B1030000 		.4byte	.LASF128
 1461 092a 01       		.byte	0x1
 1462 092b 5F       		.byte	0x5f
 1463 092c 06       		.byte	0x6
 1464 092d 00000000 		.4byte	.LFB220
 1465 0931 3C000000 		.4byte	.LFE220-.LFB220
 1466 0935 01       		.uleb128 0x1
 1467 0936 9C       		.byte	0x9c
 1468 0937 B5090000 		.4byte	0x9b5
 1469 093b 1B       		.uleb128 0x1b
 1470 093c 76747000 		.ascii	"vtp\000"
 1471 0940 01       		.byte	0x1
 1472 0941 5F       		.byte	0x5f
 1473 0942 22       		.byte	0x22
 1474 0943 8D070000 		.4byte	0x78d
 1475 0947 01       		.uleb128 0x1
 1476 0948 50       		.byte	0x50
 1477 0949 1D       		.uleb128 0x1d
 1478 094a CF040000 		.4byte	.LASF129
 1479 094e 01       		.byte	0x1
 1480 094f 5F       		.byte	0x5f
 1481 0950 31       		.byte	0x31
 1482 0951 54010000 		.4byte	0x154
ARM GAS  C:\Users\USER\AppData\Local\Temp\cc9vjrjC.s 			page 27


 1483 0955 04000000 		.4byte	.LLST0
 1484 0959 00000000 		.4byte	.LVUS0
 1485 095d 1D       		.uleb128 0x1d
 1486 095e 3B060000 		.4byte	.LASF130
 1487 0962 01       		.byte	0x1
 1488 0963 60       		.byte	0x60
 1489 0964 1A       		.byte	0x1a
 1490 0965 67030000 		.4byte	0x367
 1491 0969 29000000 		.4byte	.LLST1
 1492 096d 25000000 		.4byte	.LVUS1
 1493 0971 1E       		.uleb128 0x1e
 1494 0972 70617200 		.ascii	"par\000"
 1495 0976 01       		.byte	0x1
 1496 0977 60       		.byte	0x60
 1497 0978 28       		.byte	0x28
 1498 0979 84030000 		.4byte	0x384
 1499 097d 4C000000 		.4byte	.LLST2
 1500 0981 48000000 		.4byte	.LVUS2
 1501 0985 1F       		.uleb128 0x1f
 1502 0986 7000     		.ascii	"p\000"
 1503 0988 01       		.byte	0x1
 1504 0989 61       		.byte	0x61
 1505 098a 14       		.byte	0x14
 1506 098b 8D070000 		.4byte	0x78d
 1507 098f 6F000000 		.4byte	.LLST3
 1508 0993 6B000000 		.4byte	.LVUS3
 1509 0997 20       		.uleb128 0x20
 1510 0998 20000000 		.4byte	.LASF131
 1511 099c 01       		.byte	0x1
 1512 099d 62       		.byte	0x62
 1513 099e 0D       		.byte	0xd
 1514 099f 54010000 		.4byte	0x154
 1515 09a3 91000000 		.4byte	.LLST4
 1516 09a7 8D000000 		.4byte	.LVUS4
 1517 09ab 1C       		.uleb128 0x1c
 1518 09ac 2F050000 		.4byte	.LASF132
 1519 09b0 C5090000 		.4byte	0x9c5
 1520 09b4 00       		.byte	0
 1521 09b5 17       		.uleb128 0x17
 1522 09b6 88070000 		.4byte	0x788
 1523 09ba C5090000 		.4byte	0x9c5
 1524 09be 18       		.uleb128 0x18
 1525 09bf 2C000000 		.4byte	0x2c
 1526 09c3 0A       		.byte	0xa
 1527 09c4 00       		.byte	0
 1528 09c5 16       		.uleb128 0x16
 1529 09c6 B5090000 		.4byte	0x9b5
 1530 09ca 21       		.uleb128 0x21
 1531 09cb F5000000 		.4byte	.LASF136
 1532 09cf 01       		.byte	0x1
 1533 09d0 3D       		.byte	0x3d
 1534 09d1 06       		.byte	0x6
 1535 09d2 00000000 		.4byte	.LFB219
 1536 09d6 1C000000 		.4byte	.LFE219-.LFB219
 1537 09da 01       		.uleb128 0x1
 1538 09db 9C       		.byte	0x9c
 1539 09dc 00       		.byte	0
ARM GAS  C:\Users\USER\AppData\Local\Temp\cc9vjrjC.s 			page 28


 1540              		.section	.debug_abbrev,"",%progbits
 1541              	.Ldebug_abbrev0:
 1542 0000 01       		.uleb128 0x1
 1543 0001 11       		.uleb128 0x11
 1544 0002 01       		.byte	0x1
 1545 0003 25       		.uleb128 0x25
 1546 0004 0E       		.uleb128 0xe
 1547 0005 13       		.uleb128 0x13
 1548 0006 0B       		.uleb128 0xb
 1549 0007 03       		.uleb128 0x3
 1550 0008 0E       		.uleb128 0xe
 1551 0009 1B       		.uleb128 0x1b
 1552 000a 0E       		.uleb128 0xe
 1553 000b 55       		.uleb128 0x55
 1554 000c 17       		.uleb128 0x17
 1555 000d 11       		.uleb128 0x11
 1556 000e 01       		.uleb128 0x1
 1557 000f 10       		.uleb128 0x10
 1558 0010 17       		.uleb128 0x17
 1559 0011 00       		.byte	0
 1560 0012 00       		.byte	0
 1561 0013 02       		.uleb128 0x2
 1562 0014 24       		.uleb128 0x24
 1563 0015 00       		.byte	0
 1564 0016 0B       		.uleb128 0xb
 1565 0017 0B       		.uleb128 0xb
 1566 0018 3E       		.uleb128 0x3e
 1567 0019 0B       		.uleb128 0xb
 1568 001a 03       		.uleb128 0x3
 1569 001b 08       		.uleb128 0x8
 1570 001c 00       		.byte	0
 1571 001d 00       		.byte	0
 1572 001e 03       		.uleb128 0x3
 1573 001f 24       		.uleb128 0x24
 1574 0020 00       		.byte	0
 1575 0021 0B       		.uleb128 0xb
 1576 0022 0B       		.uleb128 0xb
 1577 0023 3E       		.uleb128 0x3e
 1578 0024 0B       		.uleb128 0xb
 1579 0025 03       		.uleb128 0x3
 1580 0026 0E       		.uleb128 0xe
 1581 0027 00       		.byte	0
 1582 0028 00       		.byte	0
 1583 0029 04       		.uleb128 0x4
 1584 002a 16       		.uleb128 0x16
 1585 002b 00       		.byte	0
 1586 002c 03       		.uleb128 0x3
 1587 002d 0E       		.uleb128 0xe
 1588 002e 3A       		.uleb128 0x3a
 1589 002f 0B       		.uleb128 0xb
 1590 0030 3B       		.uleb128 0x3b
 1591 0031 0B       		.uleb128 0xb
 1592 0032 39       		.uleb128 0x39
 1593 0033 0B       		.uleb128 0xb
 1594 0034 49       		.uleb128 0x49
 1595 0035 13       		.uleb128 0x13
 1596 0036 00       		.byte	0
ARM GAS  C:\Users\USER\AppData\Local\Temp\cc9vjrjC.s 			page 29


 1597 0037 00       		.byte	0
 1598 0038 05       		.uleb128 0x5
 1599 0039 35       		.uleb128 0x35
 1600 003a 00       		.byte	0
 1601 003b 49       		.uleb128 0x49
 1602 003c 13       		.uleb128 0x13
 1603 003d 00       		.byte	0
 1604 003e 00       		.byte	0
 1605 003f 06       		.uleb128 0x6
 1606 0040 13       		.uleb128 0x13
 1607 0041 01       		.byte	0x1
 1608 0042 03       		.uleb128 0x3
 1609 0043 0E       		.uleb128 0xe
 1610 0044 0B       		.uleb128 0xb
 1611 0045 0B       		.uleb128 0xb
 1612 0046 3A       		.uleb128 0x3a
 1613 0047 0B       		.uleb128 0xb
 1614 0048 3B       		.uleb128 0x3b
 1615 0049 0B       		.uleb128 0xb
 1616 004a 39       		.uleb128 0x39
 1617 004b 0B       		.uleb128 0xb
 1618 004c 01       		.uleb128 0x1
 1619 004d 13       		.uleb128 0x13
 1620 004e 00       		.byte	0
 1621 004f 00       		.byte	0
 1622 0050 07       		.uleb128 0x7
 1623 0051 0D       		.uleb128 0xd
 1624 0052 00       		.byte	0
 1625 0053 03       		.uleb128 0x3
 1626 0054 0E       		.uleb128 0xe
 1627 0055 3A       		.uleb128 0x3a
 1628 0056 0B       		.uleb128 0xb
 1629 0057 3B       		.uleb128 0x3b
 1630 0058 0B       		.uleb128 0xb
 1631 0059 39       		.uleb128 0x39
 1632 005a 0B       		.uleb128 0xb
 1633 005b 49       		.uleb128 0x49
 1634 005c 13       		.uleb128 0x13
 1635 005d 38       		.uleb128 0x38
 1636 005e 0B       		.uleb128 0xb
 1637 005f 00       		.byte	0
 1638 0060 00       		.byte	0
 1639 0061 08       		.uleb128 0x8
 1640 0062 0D       		.uleb128 0xd
 1641 0063 00       		.byte	0
 1642 0064 03       		.uleb128 0x3
 1643 0065 08       		.uleb128 0x8
 1644 0066 3A       		.uleb128 0x3a
 1645 0067 0B       		.uleb128 0xb
 1646 0068 3B       		.uleb128 0x3b
 1647 0069 05       		.uleb128 0x5
 1648 006a 39       		.uleb128 0x39
 1649 006b 0B       		.uleb128 0xb
 1650 006c 49       		.uleb128 0x49
 1651 006d 13       		.uleb128 0x13
 1652 006e 38       		.uleb128 0x38
 1653 006f 0B       		.uleb128 0xb
ARM GAS  C:\Users\USER\AppData\Local\Temp\cc9vjrjC.s 			page 30


 1654 0070 00       		.byte	0
 1655 0071 00       		.byte	0
 1656 0072 09       		.uleb128 0x9
 1657 0073 0D       		.uleb128 0xd
 1658 0074 00       		.byte	0
 1659 0075 03       		.uleb128 0x3
 1660 0076 0E       		.uleb128 0xe
 1661 0077 3A       		.uleb128 0x3a
 1662 0078 0B       		.uleb128 0xb
 1663 0079 3B       		.uleb128 0x3b
 1664 007a 05       		.uleb128 0x5
 1665 007b 39       		.uleb128 0x39
 1666 007c 0B       		.uleb128 0xb
 1667 007d 49       		.uleb128 0x49
 1668 007e 13       		.uleb128 0x13
 1669 007f 38       		.uleb128 0x38
 1670 0080 0B       		.uleb128 0xb
 1671 0081 00       		.byte	0
 1672 0082 00       		.byte	0
 1673 0083 0A       		.uleb128 0xa
 1674 0084 0F       		.uleb128 0xf
 1675 0085 00       		.byte	0
 1676 0086 0B       		.uleb128 0xb
 1677 0087 0B       		.uleb128 0xb
 1678 0088 49       		.uleb128 0x49
 1679 0089 13       		.uleb128 0x13
 1680 008a 00       		.byte	0
 1681 008b 00       		.byte	0
 1682 008c 0B       		.uleb128 0xb
 1683 008d 13       		.uleb128 0x13
 1684 008e 01       		.byte	0x1
 1685 008f 03       		.uleb128 0x3
 1686 0090 0E       		.uleb128 0xe
 1687 0091 0B       		.uleb128 0xb
 1688 0092 0B       		.uleb128 0xb
 1689 0093 3A       		.uleb128 0x3a
 1690 0094 0B       		.uleb128 0xb
 1691 0095 3B       		.uleb128 0x3b
 1692 0096 05       		.uleb128 0x5
 1693 0097 39       		.uleb128 0x39
 1694 0098 0B       		.uleb128 0xb
 1695 0099 01       		.uleb128 0x1
 1696 009a 13       		.uleb128 0x13
 1697 009b 00       		.byte	0
 1698 009c 00       		.byte	0
 1699 009d 0C       		.uleb128 0xc
 1700 009e 15       		.uleb128 0x15
 1701 009f 01       		.byte	0x1
 1702 00a0 27       		.uleb128 0x27
 1703 00a1 19       		.uleb128 0x19
 1704 00a2 01       		.uleb128 0x1
 1705 00a3 13       		.uleb128 0x13
 1706 00a4 00       		.byte	0
 1707 00a5 00       		.byte	0
 1708 00a6 0D       		.uleb128 0xd
 1709 00a7 05       		.uleb128 0x5
 1710 00a8 00       		.byte	0
ARM GAS  C:\Users\USER\AppData\Local\Temp\cc9vjrjC.s 			page 31


 1711 00a9 49       		.uleb128 0x49
 1712 00aa 13       		.uleb128 0x13
 1713 00ab 00       		.byte	0
 1714 00ac 00       		.byte	0
 1715 00ad 0E       		.uleb128 0xe
 1716 00ae 0F       		.uleb128 0xf
 1717 00af 00       		.byte	0
 1718 00b0 0B       		.uleb128 0xb
 1719 00b1 0B       		.uleb128 0xb
 1720 00b2 00       		.byte	0
 1721 00b3 00       		.byte	0
 1722 00b4 0F       		.uleb128 0xf
 1723 00b5 13       		.uleb128 0x13
 1724 00b6 01       		.byte	0x1
 1725 00b7 03       		.uleb128 0x3
 1726 00b8 0E       		.uleb128 0xe
 1727 00b9 0B       		.uleb128 0xb
 1728 00ba 05       		.uleb128 0x5
 1729 00bb 3A       		.uleb128 0x3a
 1730 00bc 0B       		.uleb128 0xb
 1731 00bd 3B       		.uleb128 0x3b
 1732 00be 05       		.uleb128 0x5
 1733 00bf 39       		.uleb128 0x39
 1734 00c0 0B       		.uleb128 0xb
 1735 00c1 01       		.uleb128 0x1
 1736 00c2 13       		.uleb128 0x13
 1737 00c3 00       		.byte	0
 1738 00c4 00       		.byte	0
 1739 00c5 10       		.uleb128 0x10
 1740 00c6 34       		.uleb128 0x34
 1741 00c7 00       		.byte	0
 1742 00c8 03       		.uleb128 0x3
 1743 00c9 0E       		.uleb128 0xe
 1744 00ca 3A       		.uleb128 0x3a
 1745 00cb 0B       		.uleb128 0xb
 1746 00cc 3B       		.uleb128 0x3b
 1747 00cd 05       		.uleb128 0x5
 1748 00ce 39       		.uleb128 0x39
 1749 00cf 0B       		.uleb128 0xb
 1750 00d0 49       		.uleb128 0x49
 1751 00d1 13       		.uleb128 0x13
 1752 00d2 3F       		.uleb128 0x3f
 1753 00d3 19       		.uleb128 0x19
 1754 00d4 3C       		.uleb128 0x3c
 1755 00d5 19       		.uleb128 0x19
 1756 00d6 00       		.byte	0
 1757 00d7 00       		.byte	0
 1758 00d8 11       		.uleb128 0x11
 1759 00d9 34       		.uleb128 0x34
 1760 00da 00       		.byte	0
 1761 00db 03       		.uleb128 0x3
 1762 00dc 0E       		.uleb128 0xe
 1763 00dd 3A       		.uleb128 0x3a
 1764 00de 0B       		.uleb128 0xb
 1765 00df 3B       		.uleb128 0x3b
 1766 00e0 0B       		.uleb128 0xb
 1767 00e1 39       		.uleb128 0x39
ARM GAS  C:\Users\USER\AppData\Local\Temp\cc9vjrjC.s 			page 32


 1768 00e2 0B       		.uleb128 0xb
 1769 00e3 49       		.uleb128 0x49
 1770 00e4 13       		.uleb128 0x13
 1771 00e5 3F       		.uleb128 0x3f
 1772 00e6 19       		.uleb128 0x19
 1773 00e7 3C       		.uleb128 0x3c
 1774 00e8 19       		.uleb128 0x19
 1775 00e9 00       		.byte	0
 1776 00ea 00       		.byte	0
 1777 00eb 12       		.uleb128 0x12
 1778 00ec 0D       		.uleb128 0xd
 1779 00ed 00       		.byte	0
 1780 00ee 03       		.uleb128 0x3
 1781 00ef 08       		.uleb128 0x8
 1782 00f0 3A       		.uleb128 0x3a
 1783 00f1 0B       		.uleb128 0xb
 1784 00f2 3B       		.uleb128 0x3b
 1785 00f3 0B       		.uleb128 0xb
 1786 00f4 39       		.uleb128 0x39
 1787 00f5 0B       		.uleb128 0xb
 1788 00f6 49       		.uleb128 0x49
 1789 00f7 13       		.uleb128 0x13
 1790 00f8 38       		.uleb128 0x38
 1791 00f9 0B       		.uleb128 0xb
 1792 00fa 00       		.byte	0
 1793 00fb 00       		.byte	0
 1794 00fc 13       		.uleb128 0x13
 1795 00fd 13       		.uleb128 0x13
 1796 00fe 01       		.byte	0x1
 1797 00ff 0B       		.uleb128 0xb
 1798 0100 0B       		.uleb128 0xb
 1799 0101 3A       		.uleb128 0x3a
 1800 0102 0B       		.uleb128 0xb
 1801 0103 3B       		.uleb128 0x3b
 1802 0104 0B       		.uleb128 0xb
 1803 0105 39       		.uleb128 0x39
 1804 0106 0B       		.uleb128 0xb
 1805 0107 01       		.uleb128 0x1
 1806 0108 13       		.uleb128 0x13
 1807 0109 00       		.byte	0
 1808 010a 00       		.byte	0
 1809 010b 14       		.uleb128 0x14
 1810 010c 17       		.uleb128 0x17
 1811 010d 01       		.byte	0x1
 1812 010e 0B       		.uleb128 0xb
 1813 010f 0B       		.uleb128 0xb
 1814 0110 3A       		.uleb128 0x3a
 1815 0111 0B       		.uleb128 0xb
 1816 0112 3B       		.uleb128 0x3b
 1817 0113 0B       		.uleb128 0xb
 1818 0114 39       		.uleb128 0x39
 1819 0115 0B       		.uleb128 0xb
 1820 0116 01       		.uleb128 0x1
 1821 0117 13       		.uleb128 0x13
 1822 0118 00       		.byte	0
 1823 0119 00       		.byte	0
 1824 011a 15       		.uleb128 0x15
ARM GAS  C:\Users\USER\AppData\Local\Temp\cc9vjrjC.s 			page 33


 1825 011b 0D       		.uleb128 0xd
 1826 011c 00       		.byte	0
 1827 011d 03       		.uleb128 0x3
 1828 011e 0E       		.uleb128 0xe
 1829 011f 3A       		.uleb128 0x3a
 1830 0120 0B       		.uleb128 0xb
 1831 0121 3B       		.uleb128 0x3b
 1832 0122 05       		.uleb128 0x5
 1833 0123 39       		.uleb128 0x39
 1834 0124 0B       		.uleb128 0xb
 1835 0125 49       		.uleb128 0x49
 1836 0126 13       		.uleb128 0x13
 1837 0127 00       		.byte	0
 1838 0128 00       		.byte	0
 1839 0129 16       		.uleb128 0x16
 1840 012a 26       		.uleb128 0x26
 1841 012b 00       		.byte	0
 1842 012c 49       		.uleb128 0x49
 1843 012d 13       		.uleb128 0x13
 1844 012e 00       		.byte	0
 1845 012f 00       		.byte	0
 1846 0130 17       		.uleb128 0x17
 1847 0131 01       		.uleb128 0x1
 1848 0132 01       		.byte	0x1
 1849 0133 49       		.uleb128 0x49
 1850 0134 13       		.uleb128 0x13
 1851 0135 01       		.uleb128 0x1
 1852 0136 13       		.uleb128 0x13
 1853 0137 00       		.byte	0
 1854 0138 00       		.byte	0
 1855 0139 18       		.uleb128 0x18
 1856 013a 21       		.uleb128 0x21
 1857 013b 00       		.byte	0
 1858 013c 49       		.uleb128 0x49
 1859 013d 13       		.uleb128 0x13
 1860 013e 2F       		.uleb128 0x2f
 1861 013f 0B       		.uleb128 0xb
 1862 0140 00       		.byte	0
 1863 0141 00       		.byte	0
 1864 0142 19       		.uleb128 0x19
 1865 0143 34       		.uleb128 0x34
 1866 0144 00       		.byte	0
 1867 0145 03       		.uleb128 0x3
 1868 0146 08       		.uleb128 0x8
 1869 0147 3A       		.uleb128 0x3a
 1870 0148 0B       		.uleb128 0xb
 1871 0149 3B       		.uleb128 0x3b
 1872 014a 05       		.uleb128 0x5
 1873 014b 39       		.uleb128 0x39
 1874 014c 0B       		.uleb128 0xb
 1875 014d 49       		.uleb128 0x49
 1876 014e 13       		.uleb128 0x13
 1877 014f 3F       		.uleb128 0x3f
 1878 0150 19       		.uleb128 0x19
 1879 0151 3C       		.uleb128 0x3c
 1880 0152 19       		.uleb128 0x19
 1881 0153 00       		.byte	0
ARM GAS  C:\Users\USER\AppData\Local\Temp\cc9vjrjC.s 			page 34


 1882 0154 00       		.byte	0
 1883 0155 1A       		.uleb128 0x1a
 1884 0156 2E       		.uleb128 0x2e
 1885 0157 01       		.byte	0x1
 1886 0158 3F       		.uleb128 0x3f
 1887 0159 19       		.uleb128 0x19
 1888 015a 03       		.uleb128 0x3
 1889 015b 0E       		.uleb128 0xe
 1890 015c 3A       		.uleb128 0x3a
 1891 015d 0B       		.uleb128 0xb
 1892 015e 3B       		.uleb128 0x3b
 1893 015f 0B       		.uleb128 0xb
 1894 0160 39       		.uleb128 0x39
 1895 0161 0B       		.uleb128 0xb
 1896 0162 27       		.uleb128 0x27
 1897 0163 19       		.uleb128 0x19
 1898 0164 11       		.uleb128 0x11
 1899 0165 01       		.uleb128 0x1
 1900 0166 12       		.uleb128 0x12
 1901 0167 06       		.uleb128 0x6
 1902 0168 40       		.uleb128 0x40
 1903 0169 18       		.uleb128 0x18
 1904 016a 9742     		.uleb128 0x2117
 1905 016c 19       		.uleb128 0x19
 1906 016d 01       		.uleb128 0x1
 1907 016e 13       		.uleb128 0x13
 1908 016f 00       		.byte	0
 1909 0170 00       		.byte	0
 1910 0171 1B       		.uleb128 0x1b
 1911 0172 05       		.uleb128 0x5
 1912 0173 00       		.byte	0
 1913 0174 03       		.uleb128 0x3
 1914 0175 08       		.uleb128 0x8
 1915 0176 3A       		.uleb128 0x3a
 1916 0177 0B       		.uleb128 0xb
 1917 0178 3B       		.uleb128 0x3b
 1918 0179 0B       		.uleb128 0xb
 1919 017a 39       		.uleb128 0x39
 1920 017b 0B       		.uleb128 0xb
 1921 017c 49       		.uleb128 0x49
 1922 017d 13       		.uleb128 0x13
 1923 017e 02       		.uleb128 0x2
 1924 017f 18       		.uleb128 0x18
 1925 0180 00       		.byte	0
 1926 0181 00       		.byte	0
 1927 0182 1C       		.uleb128 0x1c
 1928 0183 34       		.uleb128 0x34
 1929 0184 00       		.byte	0
 1930 0185 03       		.uleb128 0x3
 1931 0186 0E       		.uleb128 0xe
 1932 0187 49       		.uleb128 0x49
 1933 0188 13       		.uleb128 0x13
 1934 0189 34       		.uleb128 0x34
 1935 018a 19       		.uleb128 0x19
 1936 018b 00       		.byte	0
 1937 018c 00       		.byte	0
 1938 018d 1D       		.uleb128 0x1d
ARM GAS  C:\Users\USER\AppData\Local\Temp\cc9vjrjC.s 			page 35


 1939 018e 05       		.uleb128 0x5
 1940 018f 00       		.byte	0
 1941 0190 03       		.uleb128 0x3
 1942 0191 0E       		.uleb128 0xe
 1943 0192 3A       		.uleb128 0x3a
 1944 0193 0B       		.uleb128 0xb
 1945 0194 3B       		.uleb128 0x3b
 1946 0195 0B       		.uleb128 0xb
 1947 0196 39       		.uleb128 0x39
 1948 0197 0B       		.uleb128 0xb
 1949 0198 49       		.uleb128 0x49
 1950 0199 13       		.uleb128 0x13
 1951 019a 02       		.uleb128 0x2
 1952 019b 17       		.uleb128 0x17
 1953 019c B742     		.uleb128 0x2137
 1954 019e 17       		.uleb128 0x17
 1955 019f 00       		.byte	0
 1956 01a0 00       		.byte	0
 1957 01a1 1E       		.uleb128 0x1e
 1958 01a2 05       		.uleb128 0x5
 1959 01a3 00       		.byte	0
 1960 01a4 03       		.uleb128 0x3
 1961 01a5 08       		.uleb128 0x8
 1962 01a6 3A       		.uleb128 0x3a
 1963 01a7 0B       		.uleb128 0xb
 1964 01a8 3B       		.uleb128 0x3b
 1965 01a9 0B       		.uleb128 0xb
 1966 01aa 39       		.uleb128 0x39
 1967 01ab 0B       		.uleb128 0xb
 1968 01ac 49       		.uleb128 0x49
 1969 01ad 13       		.uleb128 0x13
 1970 01ae 02       		.uleb128 0x2
 1971 01af 17       		.uleb128 0x17
 1972 01b0 B742     		.uleb128 0x2137
 1973 01b2 17       		.uleb128 0x17
 1974 01b3 00       		.byte	0
 1975 01b4 00       		.byte	0
 1976 01b5 1F       		.uleb128 0x1f
 1977 01b6 34       		.uleb128 0x34
 1978 01b7 00       		.byte	0
 1979 01b8 03       		.uleb128 0x3
 1980 01b9 08       		.uleb128 0x8
 1981 01ba 3A       		.uleb128 0x3a
 1982 01bb 0B       		.uleb128 0xb
 1983 01bc 3B       		.uleb128 0x3b
 1984 01bd 0B       		.uleb128 0xb
 1985 01be 39       		.uleb128 0x39
 1986 01bf 0B       		.uleb128 0xb
 1987 01c0 49       		.uleb128 0x49
 1988 01c1 13       		.uleb128 0x13
 1989 01c2 02       		.uleb128 0x2
 1990 01c3 17       		.uleb128 0x17
 1991 01c4 B742     		.uleb128 0x2137
 1992 01c6 17       		.uleb128 0x17
 1993 01c7 00       		.byte	0
 1994 01c8 00       		.byte	0
 1995 01c9 20       		.uleb128 0x20
ARM GAS  C:\Users\USER\AppData\Local\Temp\cc9vjrjC.s 			page 36


 1996 01ca 34       		.uleb128 0x34
 1997 01cb 00       		.byte	0
 1998 01cc 03       		.uleb128 0x3
 1999 01cd 0E       		.uleb128 0xe
 2000 01ce 3A       		.uleb128 0x3a
 2001 01cf 0B       		.uleb128 0xb
 2002 01d0 3B       		.uleb128 0x3b
 2003 01d1 0B       		.uleb128 0xb
 2004 01d2 39       		.uleb128 0x39
 2005 01d3 0B       		.uleb128 0xb
 2006 01d4 49       		.uleb128 0x49
 2007 01d5 13       		.uleb128 0x13
 2008 01d6 02       		.uleb128 0x2
 2009 01d7 17       		.uleb128 0x17
 2010 01d8 B742     		.uleb128 0x2137
 2011 01da 17       		.uleb128 0x17
 2012 01db 00       		.byte	0
 2013 01dc 00       		.byte	0
 2014 01dd 21       		.uleb128 0x21
 2015 01de 2E       		.uleb128 0x2e
 2016 01df 00       		.byte	0
 2017 01e0 3F       		.uleb128 0x3f
 2018 01e1 19       		.uleb128 0x19
 2019 01e2 03       		.uleb128 0x3
 2020 01e3 0E       		.uleb128 0xe
 2021 01e4 3A       		.uleb128 0x3a
 2022 01e5 0B       		.uleb128 0xb
 2023 01e6 3B       		.uleb128 0x3b
 2024 01e7 0B       		.uleb128 0xb
 2025 01e8 39       		.uleb128 0x39
 2026 01e9 0B       		.uleb128 0xb
 2027 01ea 27       		.uleb128 0x27
 2028 01eb 19       		.uleb128 0x19
 2029 01ec 11       		.uleb128 0x11
 2030 01ed 01       		.uleb128 0x1
 2031 01ee 12       		.uleb128 0x12
 2032 01ef 06       		.uleb128 0x6
 2033 01f0 40       		.uleb128 0x40
 2034 01f1 18       		.uleb128 0x18
 2035 01f2 9742     		.uleb128 0x2117
 2036 01f4 19       		.uleb128 0x19
 2037 01f5 00       		.byte	0
 2038 01f6 00       		.byte	0
 2039 01f7 00       		.byte	0
 2040              		.section	.debug_loc,"",%progbits
 2041              	.Ldebug_loc0:
 2042              	.LVUS0:
 2043 0000 00       		.uleb128 0
 2044 0001 00       		.uleb128 .LVU29
 2045 0002 00       		.uleb128 .LVU29
 2046 0003 00       		.uleb128 0
 2047              	.LLST0:
 2048 0004 00000000 		.4byte	.LVL0
 2049 0008 10000000 		.4byte	.LVL3
 2050 000c 0100     		.2byte	0x1
 2051 000e 51       		.byte	0x51
 2052 000f 10000000 		.4byte	.LVL3
ARM GAS  C:\Users\USER\AppData\Local\Temp\cc9vjrjC.s 			page 37


 2053 0013 3C000000 		.4byte	.LFE220
 2054 0017 0400     		.2byte	0x4
 2055 0019 F3       		.byte	0xf3
 2056 001a 01       		.uleb128 0x1
 2057 001b 51       		.byte	0x51
 2058 001c 9F       		.byte	0x9f
 2059 001d 00000000 		.4byte	0
 2060 0021 00000000 		.4byte	0
 2061              	.LVUS1:
 2062 0025 00       		.uleb128 0
 2063 0026 00       		.uleb128 .LVU47
 2064 0027 00       		.uleb128 .LVU47
 2065 0028 00       		.uleb128 0
 2066              	.LLST1:
 2067 0029 00000000 		.4byte	.LVL0
 2068 002d 2C000000 		.4byte	.LVL6
 2069 0031 0100     		.2byte	0x1
 2070 0033 52       		.byte	0x52
 2071 0034 2C000000 		.4byte	.LVL6
 2072 0038 3C000000 		.4byte	.LFE220
 2073 003c 0200     		.2byte	0x2
 2074 003e 70       		.byte	0x70
 2075 003f 0C       		.sleb128 12
 2076 0040 00000000 		.4byte	0
 2077 0044 00000000 		.4byte	0
 2078              	.LVUS2:
 2079 0048 00       		.uleb128 0
 2080 0049 00       		.uleb128 .LVU24
 2081 004a 00       		.uleb128 .LVU24
 2082 004b 00       		.uleb128 0
 2083              	.LLST2:
 2084 004c 00000000 		.4byte	.LVL0
 2085 0050 0A000000 		.4byte	.LVL1
 2086 0054 0100     		.2byte	0x1
 2087 0056 53       		.byte	0x53
 2088 0057 0A000000 		.4byte	.LVL1
 2089 005b 3C000000 		.4byte	.LFE220
 2090 005f 0200     		.2byte	0x2
 2091 0061 70       		.byte	0x70
 2092 0062 10       		.sleb128 16
 2093 0063 00000000 		.4byte	0
 2094 0067 00000000 		.4byte	0
 2095              	.LVUS3:
 2096 006b 02       		.uleb128 .LVU27
 2097 006c 00       		.uleb128 .LVU31
 2098 006d 01       		.uleb128 .LVU33
 2099 006e 00       		.uleb128 .LVU52
 2100              	.LLST3:
 2101 006f 0C000000 		.4byte	.LVL2
 2102 0073 12000000 		.4byte	.LVL4
 2103 0077 0100     		.2byte	0x1
 2104 0079 54       		.byte	0x54
 2105 007a 14000000 		.4byte	.LVL5
 2106 007e 34000000 		.4byte	.LVL9
 2107 0082 0100     		.2byte	0x1
 2108 0084 54       		.byte	0x54
 2109 0085 00000000 		.4byte	0
ARM GAS  C:\Users\USER\AppData\Local\Temp\cc9vjrjC.s 			page 38


 2110 0089 00000000 		.4byte	0
 2111              	.LVUS4:
 2112 008d 01       		.uleb128 .LVU26
 2113 008e 00       		.uleb128 .LVU48
 2114 008f 00       		.uleb128 .LVU48
 2115 0090 00       		.uleb128 .LVU49
 2116              	.LLST4:
 2117 0091 0C000000 		.4byte	.LVL2
 2118 0095 2E000000 		.4byte	.LVL7
 2119 0099 0100     		.2byte	0x1
 2120 009b 51       		.byte	0x51
 2121 009c 2E000000 		.4byte	.LVL7
 2122 00a0 30000000 		.4byte	.LVL8
 2123 00a4 0500     		.2byte	0x5
 2124 00a6 74       		.byte	0x74
 2125 00a7 04       		.sleb128 4
 2126 00a8 06       		.byte	0x6
 2127 00a9 23       		.byte	0x23
 2128 00aa 08       		.uleb128 0x8
 2129 00ab 00000000 		.4byte	0
 2130 00af 00000000 		.4byte	0
 2131              		.section	.debug_aranges,"",%progbits
 2132 0000 2C000000 		.4byte	0x2c
 2133 0004 0200     		.2byte	0x2
 2134 0006 00000000 		.4byte	.Ldebug_info0
 2135 000a 04       		.byte	0x4
 2136 000b 00       		.byte	0
 2137 000c 0000     		.2byte	0
 2138 000e 0000     		.2byte	0
 2139 0010 00000000 		.4byte	.LFB219
 2140 0014 1C000000 		.4byte	.LFE219-.LFB219
 2141 0018 00000000 		.4byte	.LFB220
 2142 001c 3C000000 		.4byte	.LFE220-.LFB220
 2143 0020 00000000 		.4byte	.LFB221
 2144 0024 28000000 		.4byte	.LFE221-.LFB221
 2145 0028 00000000 		.4byte	0
 2146 002c 00000000 		.4byte	0
 2147              		.section	.debug_ranges,"",%progbits
 2148              	.Ldebug_ranges0:
 2149 0000 00000000 		.4byte	.LFB219
 2150 0004 1C000000 		.4byte	.LFE219
 2151 0008 00000000 		.4byte	.LFB220
 2152 000c 3C000000 		.4byte	.LFE220
 2153 0010 00000000 		.4byte	.LFB221
 2154 0014 28000000 		.4byte	.LFE221
 2155 0018 00000000 		.4byte	0
 2156 001c 00000000 		.4byte	0
 2157              		.section	.debug_line,"",%progbits
 2158              	.Ldebug_line0:
 2159 0000 A4030000 		.section	.debug_str,"MS",%progbits,1
 2159      03006802 
 2159      00000201 
 2159      FB0E0D00 
 2159      01010101 
 2160              	.LASF116:
 2161 0000 63665F6F 		.ascii	"cf_off_older\000"
 2161      66665F6F 
ARM GAS  C:\Users\USER\AppData\Local\Temp\cc9vjrjC.s 			page 39


 2161      6C646572 
 2161      00
 2162              	.LASF55:
 2163 000d 72656164 		.ascii	"ready_list_t\000"
 2163      795F6C69 
 2163      73745F74 
 2163      00
 2164              	.LASF94:
 2165 001a 77747472 		.ascii	"wttrp\000"
 2165      7000
 2166              	.LASF131:
 2167 0020 64656C74 		.ascii	"delta\000"
 2167      6100
 2168              	.LASF91:
 2169 0026 7264796D 		.ascii	"rdymsg\000"
 2169      736700
 2170              	.LASF18:
 2171 002d 75696E74 		.ascii	"uint64_t\000"
 2171      36345F74 
 2171      00
 2172              	.LASF26:
 2173 0036 6576656E 		.ascii	"eventmask_t\000"
 2173      746D6173 
 2173      6B5F7400 
 2174              	.LASF4:
 2175 0042 5F5F7569 		.ascii	"__uint8_t\000"
 2175      6E74385F 
 2175      7400
 2176              	.LASF88:
 2177 004c 706F7274 		.ascii	"port_intctx\000"
 2177      5F696E74 
 2177      63747800 
 2178              	.LASF74:
 2179 0058 73797374 		.ascii	"system_debug_t\000"
 2179      656D5F64 
 2179      65627567 
 2179      5F7400
 2180              	.LASF13:
 2181 0067 6C6F6E67 		.ascii	"long long unsigned int\000"
 2181      206C6F6E 
 2181      6720756E 
 2181      7369676E 
 2181      65642069 
 2182              	.LASF112:
 2183 007e 63685F74 		.ascii	"ch_threadsize\000"
 2183      68726561 
 2183      6473697A 
 2183      6500
 2184              	.LASF127:
 2185 008c 63685654 		.ascii	"chVTDoResetI\000"
 2185      446F5265 
 2185      73657449 
 2185      00
 2186              	.LASF92:
 2187 0099 65786974 		.ascii	"exitcode\000"
 2187      636F6465 
 2187      00
ARM GAS  C:\Users\USER\AppData\Local\Temp\cc9vjrjC.s 			page 40


 2188              	.LASF81:
 2189 00a2 6D61696E 		.ascii	"mainthread\000"
 2189      74687265 
 2189      616400
 2190              	.LASF71:
 2191 00ad 76697274 		.ascii	"virtual_timers_list_t\000"
 2191      75616C5F 
 2191      74696D65 
 2191      72735F6C 
 2191      6973745F 
 2192              	.LASF83:
 2193 00c3 49544D5F 		.ascii	"ITM_RxBuffer\000"
 2193      52784275 
 2193      66666572 
 2193      00
 2194              	.LASF54:
 2195 00d0 63685F74 		.ascii	"ch_threads_queue\000"
 2195      68726561 
 2195      64735F71 
 2195      75657565 
 2195      00
 2196              	.LASF32:
 2197 00e1 705F7072 		.ascii	"p_prio\000"
 2197      696F00
 2198              	.LASF119:
 2199 00e8 63665F6F 		.ascii	"cf_off_state\000"
 2199      66665F73 
 2199      74617465 
 2199      00
 2200              	.LASF136:
 2201 00f5 5F76745F 		.ascii	"_vt_init\000"
 2201      696E6974 
 2201      00
 2202              	.LASF11:
 2203 00fe 6C6F6E67 		.ascii	"long long int\000"
 2203      206C6F6E 
 2203      6720696E 
 2203      7400
 2204              	.LASF1:
 2205 010c 7369676E 		.ascii	"signed char\000"
 2205      65642063 
 2205      68617200 
 2206              	.LASF118:
 2207 0118 63665F6F 		.ascii	"cf_off_stklimit\000"
 2207      66665F73 
 2207      746B6C69 
 2207      6D697400 
 2208              	.LASF120:
 2209 0128 63665F6F 		.ascii	"cf_off_flags\000"
 2209      66665F66 
 2209      6C616773 
 2209      00
 2210              	.LASF48:
 2211 0135 705F6D70 		.ascii	"p_mpool\000"
 2211      6F6F6C00 
 2212              	.LASF102:
 2213 013d 6D5F7175 		.ascii	"m_queue\000"
ARM GAS  C:\Users\USER\AppData\Local\Temp\cc9vjrjC.s 			page 41


 2213      65756500 
 2214              	.LASF80:
 2215 0145 76746C69 		.ascii	"vtlist\000"
 2215      737400
 2216              	.LASF23:
 2217 014c 74736C69 		.ascii	"tslices_t\000"
 2217      6365735F 
 2217      7400
 2218              	.LASF78:
 2219 0156 63685F73 		.ascii	"ch_system\000"
 2219      79737465 
 2219      6D00
 2220              	.LASF8:
 2221 0160 6C6F6E67 		.ascii	"long int\000"
 2221      20696E74 
 2221      00
 2222              	.LASF21:
 2223 0169 74737461 		.ascii	"tstate_t\000"
 2223      74655F74 
 2223      00
 2224              	.LASF134:
 2225 0172 7372632F 		.ascii	"src/ChibiOS_3.0.2/os/rt/src/chvt.c\000"
 2225      43686962 
 2225      694F535F 
 2225      332E302E 
 2225      322F6F73 
 2226              	.LASF99:
 2227 0195 735F7175 		.ascii	"s_queue\000"
 2227      65756500 
 2228              	.LASF34:
 2229 019d 705F6E65 		.ascii	"p_newer\000"
 2229      77657200 
 2230              	.LASF60:
 2231 01a5 725F6E65 		.ascii	"r_newer\000"
 2231      77657200 
 2232              	.LASF85:
 2233 01ad 72656761 		.ascii	"regarm_t\000"
 2233      726D5F74 
 2233      00
 2234              	.LASF67:
 2235 01b6 76745F70 		.ascii	"vt_prev\000"
 2235      72657600 
 2236              	.LASF133:
 2237 01be 474E5520 		.ascii	"GNU C99 8.2.1 20181213 (release) [gcc-8-branch revi"
 2237      43393920 
 2237      382E322E 
 2237      31203230 
 2237      31383132 
 2238 01f1 73696F6E 		.ascii	"sion 267074] -mcpu=cortex-m4 -mfloat-abi=hard -mfpu"
 2238      20323637 
 2238      3037345D 
 2238      202D6D63 
 2238      70753D63 
 2239 0224 3D667076 		.ascii	"=fpv4-sp-d16 -mno-thumb-interwork -mthumb -march=ar"
 2239      342D7370 
 2239      2D643136 
 2239      202D6D6E 
ARM GAS  C:\Users\USER\AppData\Local\Temp\cc9vjrjC.s 			page 42


 2239      6F2D7468 
 2240 0257 6D763765 		.ascii	"mv7e-m+fp -ggdb -O2 -std=gnu99 -fomit-frame-pointer"
 2240      2D6D2B66 
 2240      70202D67 
 2240      67646220 
 2240      2D4F3220 
 2241 028a 202D6661 		.ascii	" -falign-functions=16 -ffunction-sections -fdata-se"
 2241      6C69676E 
 2241      2D66756E 
 2241      6374696F 
 2241      6E733D31 
 2242 02bd 6374696F 		.ascii	"ctions -fno-common -fsingle-precision-constant\000"
 2242      6E73202D 
 2242      666E6F2D 
 2242      636F6D6D 
 2242      6F6E202D 
 2243              	.LASF126:
 2244 02ec 6D757465 		.ascii	"mutex_t\000"
 2244      785F7400 
 2245              	.LASF82:
 2246 02f4 69646C65 		.ascii	"idle_thread_wa\000"
 2246      5F746872 
 2246      6561645F 
 2246      776100
 2247              	.LASF27:
 2248 0303 636E745F 		.ascii	"cnt_t\000"
 2248      7400
 2249              	.LASF0:
 2250 0309 756E7369 		.ascii	"unsigned int\000"
 2250      676E6564 
 2250      20696E74 
 2250      00
 2251              	.LASF66:
 2252 0316 76745F6E 		.ascii	"vt_next\000"
 2252      65787400 
 2253              	.LASF15:
 2254 031e 75696E74 		.ascii	"uint16_t\000"
 2254      31365F74 
 2254      00
 2255              	.LASF84:
 2256 0327 53797374 		.ascii	"SystemCoreClock\000"
 2256      656D436F 
 2256      7265436C 
 2256      6F636B00 
 2257              	.LASF41:
 2258 0337 705F7469 		.ascii	"p_time\000"
 2258      6D6500
 2259              	.LASF95:
 2260 033e 77747365 		.ascii	"wtsemp\000"
 2260      6D7000
 2261              	.LASF68:
 2262 0345 76745F64 		.ascii	"vt_delta\000"
 2262      656C7461 
 2262      00
 2263              	.LASF43:
 2264 034e 705F6D73 		.ascii	"p_msgqueue\000"
 2264      67717565 
ARM GAS  C:\Users\USER\AppData\Local\Temp\cc9vjrjC.s 			page 43


 2264      756500
 2265              	.LASF125:
 2266 0359 63685F64 		.ascii	"ch_debug\000"
 2266      65627567 
 2266      00
 2267              	.LASF100:
 2268 0362 735F636E 		.ascii	"s_cnt\000"
 2268      7400
 2269              	.LASF6:
 2270 0368 73686F72 		.ascii	"short unsigned int\000"
 2270      7420756E 
 2270      7369676E 
 2270      65642069 
 2270      6E7400
 2271              	.LASF51:
 2272 037b 63685F74 		.ascii	"ch_thread\000"
 2272      68726561 
 2272      6400
 2273              	.LASF25:
 2274 0385 6D73675F 		.ascii	"msg_t\000"
 2274      7400
 2275              	.LASF77:
 2276 038b 63685F73 		.ascii	"ch_system_t\000"
 2276      79737465 
 2276      6D5F7400 
 2277              	.LASF123:
 2278 0397 63665F6F 		.ascii	"cf_off_time\000"
 2278      66665F74 
 2278      696D6500 
 2279              	.LASF56:
 2280 03a3 63685F72 		.ascii	"ch_ready_list\000"
 2280      65616479 
 2280      5F6C6973 
 2280      7400
 2281              	.LASF128:
 2282 03b1 63685654 		.ascii	"chVTDoSetI\000"
 2282      446F5365 
 2282      744900
 2283              	.LASF7:
 2284 03bc 5F5F696E 		.ascii	"__int32_t\000"
 2284      7433325F 
 2284      7400
 2285              	.LASF86:
 2286 03c6 73746B61 		.ascii	"stkalign_t\000"
 2286      6C69676E 
 2286      5F7400
 2287              	.LASF50:
 2288 03d1 74687265 		.ascii	"threads_list_t\000"
 2288      6164735F 
 2288      6C697374 
 2288      5F7400
 2289              	.LASF107:
 2290 03e0 63685F7A 		.ascii	"ch_zero\000"
 2290      65726F00 
 2291              	.LASF121:
 2292 03e8 63665F6F 		.ascii	"cf_off_refs\000"
 2292      66665F72 
ARM GAS  C:\Users\USER\AppData\Local\Temp\cc9vjrjC.s 			page 44


 2292      65667300 
 2293              	.LASF42:
 2294 03f4 705F7761 		.ascii	"p_waiting\000"
 2294      6974696E 
 2294      6700
 2295              	.LASF19:
 2296 03fe 7274636E 		.ascii	"rtcnt_t\000"
 2296      745F7400 
 2297              	.LASF72:
 2298 0406 63685F76 		.ascii	"ch_virtual_timers_list\000"
 2298      69727475 
 2298      616C5F74 
 2298      696D6572 
 2298      735F6C69 
 2299              	.LASF111:
 2300 041d 63685F74 		.ascii	"ch_timesize\000"
 2300      696D6573 
 2300      697A6500 
 2301              	.LASF117:
 2302 0429 63665F6F 		.ascii	"cf_off_name\000"
 2302      66665F6E 
 2302      616D6500 
 2303              	.LASF35:
 2304 0435 705F6F6C 		.ascii	"p_older\000"
 2304      64657200 
 2305              	.LASF59:
 2306 043d 725F6374 		.ascii	"r_ctx\000"
 2306      7800
 2307              	.LASF33:
 2308 0443 705F6374 		.ascii	"p_ctx\000"
 2308      7800
 2309              	.LASF90:
 2310 0449 746D5F63 		.ascii	"tm_calibration_t\000"
 2310      616C6962 
 2310      72617469 
 2310      6F6E5F74 
 2310      00
 2311              	.LASF62:
 2312 045a 725F6375 		.ascii	"r_current\000"
 2312      7272656E 
 2312      7400
 2313              	.LASF61:
 2314 0464 725F6F6C 		.ascii	"r_older\000"
 2314      64657200 
 2315              	.LASF12:
 2316 046c 5F5F7569 		.ascii	"__uint64_t\000"
 2316      6E743634 
 2316      5F7400
 2317              	.LASF22:
 2318 0477 74726566 		.ascii	"trefs_t\000"
 2318      735F7400 
 2319              	.LASF110:
 2320 047f 63685F70 		.ascii	"ch_ptrsize\000"
 2320      74727369 
 2320      7A6500
 2321              	.LASF64:
 2322 048a 76697274 		.ascii	"virtual_timer_t\000"
ARM GAS  C:\Users\USER\AppData\Local\Temp\cc9vjrjC.s 			page 45


 2322      75616C5F 
 2322      74696D65 
 2322      725F7400 
 2323              	.LASF31:
 2324 049a 705F7072 		.ascii	"p_prev\000"
 2324      657600
 2325              	.LASF24:
 2326 04a1 74707269 		.ascii	"tprio_t\000"
 2326      6F5F7400 
 2327              	.LASF75:
 2328 04a9 63685F73 		.ascii	"ch_system_debug\000"
 2328      79737465 
 2328      6D5F6465 
 2328      62756700 
 2329              	.LASF16:
 2330 04b9 696E7433 		.ascii	"int32_t\000"
 2330      325F7400 
 2331              	.LASF2:
 2332 04c1 756E7369 		.ascii	"unsigned char\000"
 2332      676E6564 
 2332      20636861 
 2332      7200
 2333              	.LASF129:
 2334 04cf 64656C61 		.ascii	"delay\000"
 2334      7900
 2335              	.LASF46:
 2336 04d5 705F6D74 		.ascii	"p_mtxlist\000"
 2336      786C6973 
 2336      7400
 2337              	.LASF3:
 2338 04df 73686F72 		.ascii	"short int\000"
 2338      7420696E 
 2338      7400
 2339              	.LASF37:
 2340 04e9 705F7374 		.ascii	"p_state\000"
 2340      61746500 
 2341              	.LASF40:
 2342 04f1 705F7072 		.ascii	"p_preempt\000"
 2342      65656D70 
 2342      7400
 2343              	.LASF58:
 2344 04fb 725F7072 		.ascii	"r_prio\000"
 2344      696F00
 2345              	.LASF97:
 2346 0502 65776D61 		.ascii	"ewmask\000"
 2346      736B00
 2347              	.LASF30:
 2348 0509 705F6E65 		.ascii	"p_next\000"
 2348      787400
 2349              	.LASF20:
 2350 0510 746D6F64 		.ascii	"tmode_t\000"
 2350      655F7400 
 2351              	.LASF122:
 2352 0518 63665F6F 		.ascii	"cf_off_preempt\000"
 2352      66665F70 
 2352      7265656D 
 2352      707400
ARM GAS  C:\Users\USER\AppData\Local\Temp\cc9vjrjC.s 			page 46


 2353              	.LASF38:
 2354 0527 705F666C 		.ascii	"p_flags\000"
 2354      61677300 
 2355              	.LASF132:
 2356 052f 5F5F6675 		.ascii	"__func__\000"
 2356      6E635F5F 
 2356      00
 2357              	.LASF53:
 2358 0538 74687265 		.ascii	"threads_queue_t\000"
 2358      6164735F 
 2358      71756575 
 2358      655F7400 
 2359              	.LASF65:
 2360 0548 63685F76 		.ascii	"ch_virtual_timer\000"
 2360      69727475 
 2360      616C5F74 
 2360      696D6572 
 2360      00
 2361              	.LASF115:
 2362 0559 63665F6F 		.ascii	"cf_off_newer\000"
 2362      66665F6E 
 2362      65776572 
 2362      00
 2363              	.LASF98:
 2364 0566 63685F73 		.ascii	"ch_semaphore\000"
 2364      656D6170 
 2364      686F7265 
 2364      00
 2365              	.LASF45:
 2366 0573 705F6570 		.ascii	"p_epending\000"
 2366      656E6469 
 2366      6E6700
 2367              	.LASF17:
 2368 057e 75696E74 		.ascii	"uint32_t\000"
 2368      33325F74 
 2368      00
 2369              	.LASF113:
 2370 0587 63665F6F 		.ascii	"cf_off_prio\000"
 2370      66665F70 
 2370      72696F00 
 2371              	.LASF57:
 2372 0593 725F7175 		.ascii	"r_queue\000"
 2372      65756500 
 2373              	.LASF52:
 2374 059b 63685F74 		.ascii	"ch_threads_list\000"
 2374      68726561 
 2374      64735F6C 
 2374      69737400 
 2375              	.LASF108:
 2376 05ab 63685F73 		.ascii	"ch_size\000"
 2376      697A6500 
 2377              	.LASF10:
 2378 05b3 6C6F6E67 		.ascii	"long unsigned int\000"
 2378      20756E73 
 2378      69676E65 
 2378      6420696E 
 2378      7400
ARM GAS  C:\Users\USER\AppData\Local\Temp\cc9vjrjC.s 			page 47


 2379              	.LASF105:
 2380 05c5 63686172 		.ascii	"char\000"
 2380      00
 2381              	.LASF96:
 2382 05ca 77746D74 		.ascii	"wtmtxp\000"
 2382      787000
 2383              	.LASF5:
 2384 05d1 5F5F7569 		.ascii	"__uint16_t\000"
 2384      6E743136 
 2384      5F7400
 2385              	.LASF29:
 2386 05dc 74687265 		.ascii	"thread_t\000"
 2386      61645F74 
 2386      00
 2387              	.LASF104:
 2388 05e5 6D5F6E65 		.ascii	"m_next\000"
 2388      787400
 2389              	.LASF28:
 2390 05ec 73797374 		.ascii	"systime_t\000"
 2390      696D655F 
 2390      7400
 2391              	.LASF47:
 2392 05f6 705F7265 		.ascii	"p_realprio\000"
 2392      616C7072 
 2392      696F00
 2393              	.LASF63:
 2394 0601 76746675 		.ascii	"vtfunc_t\000"
 2394      6E635F74 
 2394      00
 2395              	.LASF9:
 2396 060a 5F5F7569 		.ascii	"__uint32_t\000"
 2396      6E743332 
 2396      5F7400
 2397              	.LASF76:
 2398 0615 70616E69 		.ascii	"panic_msg\000"
 2398      635F6D73 
 2398      6700
 2399              	.LASF89:
 2400 061f 6F666673 		.ascii	"offset\000"
 2400      657400
 2401              	.LASF87:
 2402 0626 636F6E74 		.ascii	"context\000"
 2402      65787400 
 2403              	.LASF44:
 2404 062e 705F6D73 		.ascii	"p_msg\000"
 2404      6700
 2405              	.LASF70:
 2406 0634 76745F70 		.ascii	"vt_par\000"
 2406      617200
 2407              	.LASF130:
 2408 063b 76746675 		.ascii	"vtfunc\000"
 2408      6E6300
 2409              	.LASF114:
 2410 0642 63665F6F 		.ascii	"cf_off_ctx\000"
 2410      66665F63 
 2410      747800
 2411              	.LASF101:
ARM GAS  C:\Users\USER\AppData\Local\Temp\cc9vjrjC.s 			page 48


 2412 064d 63685F6D 		.ascii	"ch_mutex\000"
 2412      75746578 
 2412      00
 2413              	.LASF39:
 2414 0656 705F7265 		.ascii	"p_refs\000"
 2414      667300
 2415              	.LASF135:
 2416 065d 443A5C67 		.ascii	"D:\\git\\oroca_bldc_dev\\oroca_bldc_FW\\oroca_bldc_"
 2416      69745C6F 
 2416      726F6361 
 2416      5F626C64 
 2416      635F6465 
 2417 068c 63686962 		.ascii	"chibios\000"
 2417      696F7300 
 2418              	.LASF79:
 2419 0694 726C6973 		.ascii	"rlist\000"
 2419      7400
 2420              	.LASF14:
 2421 069a 75696E74 		.ascii	"uint8_t\000"
 2421      385F7400 
 2422              	.LASF49:
 2423 06a2 74687265 		.ascii	"thread_reference_t\000"
 2423      61645F72 
 2423      65666572 
 2423      656E6365 
 2423      5F7400
 2424              	.LASF93:
 2425 06b5 77746F62 		.ascii	"wtobjp\000"
 2425      6A7000
 2426              	.LASF36:
 2427 06bc 705F6E61 		.ascii	"p_name\000"
 2427      6D6500
 2428              	.LASF73:
 2429 06c3 76745F73 		.ascii	"vt_systime\000"
 2429      79737469 
 2429      6D6500
 2430              	.LASF109:
 2431 06ce 63685F76 		.ascii	"ch_version\000"
 2431      65727369 
 2431      6F6E00
 2432              	.LASF103:
 2433 06d9 6D5F6F77 		.ascii	"m_owner\000"
 2433      6E657200 
 2434              	.LASF124:
 2435 06e1 63686465 		.ascii	"chdebug_t\000"
 2435      6275675F 
 2435      7400
 2436              	.LASF106:
 2437 06eb 63685F69 		.ascii	"ch_identifier\000"
 2437      64656E74 
 2437      69666965 
 2437      7200
 2438              	.LASF69:
 2439 06f9 76745F66 		.ascii	"vt_func\000"
 2439      756E6300 
 2440              		.ident	"GCC: (GNU Tools for Arm Embedded Processors 8-2018-q4-major) 8.2.1 20181213 (release) [gcc
ARM GAS  C:\Users\USER\AppData\Local\Temp\cc9vjrjC.s 			page 49


DEFINED SYMBOLS
                            *ABS*:00000000 chvt.c
C:\Users\USER\AppData\Local\Temp\cc9vjrjC.s:18     .text._vt_init:00000000 $t
C:\Users\USER\AppData\Local\Temp\cc9vjrjC.s:27     .text._vt_init:00000000 _vt_init
C:\Users\USER\AppData\Local\Temp\cc9vjrjC.s:57     .text._vt_init:00000018 $d
C:\Users\USER\AppData\Local\Temp\cc9vjrjC.s:62     .text.chVTDoSetI:00000000 $t
C:\Users\USER\AppData\Local\Temp\cc9vjrjC.s:70     .text.chVTDoSetI:00000000 chVTDoSetI
C:\Users\USER\AppData\Local\Temp\cc9vjrjC.s:163    .text.chVTDoSetI:00000038 $d
C:\Users\USER\AppData\Local\Temp\cc9vjrjC.s:168    .text.chVTDoResetI:00000000 $t
C:\Users\USER\AppData\Local\Temp\cc9vjrjC.s:176    .text.chVTDoResetI:00000000 chVTDoResetI
C:\Users\USER\AppData\Local\Temp\cc9vjrjC.s:235    .text.chVTDoResetI:00000024 $d

UNDEFINED SYMBOLS
ch
