ARM GAS  C:\Users\IDONNO~1\AppData\Local\Temp\ccJ4EA8s.s 			page 1


   1              		.syntax unified
   2              		.cpu cortex-m4
   3              		.eabi_attribute 27, 1
   4              		.eabi_attribute 28, 1
   5              		.fpu fpv4-sp-d16
   6              		.eabi_attribute 20, 1
   7              		.eabi_attribute 21, 1
   8              		.eabi_attribute 23, 3
   9              		.eabi_attribute 24, 1
  10              		.eabi_attribute 25, 1
  11              		.eabi_attribute 26, 1
  12              		.eabi_attribute 30, 2
  13              		.eabi_attribute 34, 1
  14              		.eabi_attribute 18, 4
  15              		.thumb
  16              		.syntax unified
  17              		.file	"comm_can.c"
  18              		.text
  19              	.Ltext0:
  20              		.cfi_sections	.debug_frame
  21              		.section	.text.cancom_process_thread,"ax",%progbits
  22              		.align	2
  23              		.p2align 4,,15
  24              		.thumb
  25              		.thumb_func
  26              		.type	cancom_process_thread, %function
  27              	cancom_process_thread:
  28              	.LFB258:
  29              		.file 1 "src/core/comm_can.c"
  30              		.loc 1 137 0
  31              		.cfi_startproc
  32              		@ args = 0, pretend = 0, frame = 0
  33              		@ frame_needed = 0, uses_anonymous_args = 0
  34              	.LVL0:
  35              	.LBB26:
  36              	.LBB27:
  37              		.file 2 "src/ChibiOS_3.0.2/os/rt/include/chregistry.h"
  38              		.loc 2 135 0
  39 0000 104B     		ldr	r3, .L15
  40              	.LBE27:
  41              	.LBE26:
  42              		.loc 1 141 0
  43 0002 114A     		ldr	r2, .L15+4
  44              	.LBB30:
  45              	.LBB28:
  46              		.loc 2 135 0
  47 0004 9B69     		ldr	r3, [r3, #24]
  48 0006 1149     		ldr	r1, .L15+8
  49              	.LBE28:
  50              	.LBE30:
  51              		.loc 1 137 0
  52 0008 70B5     		push	{r4, r5, r6, lr}
  53              		.cfi_def_cfa_offset 16
  54              		.cfi_offset 4, -16
  55              		.cfi_offset 5, -12
  56              		.cfi_offset 6, -8
  57              		.cfi_offset 14, -4
ARM GAS  C:\Users\IDONNO~1\AppData\Local\Temp\ccJ4EA8s.s 			page 2


  58 000a 114E     		ldr	r6, .L15+12
  59 000c 114D     		ldr	r5, .L15+16
  60              	.LBB31:
  61              	.LBB29:
  62              		.loc 2 135 0
  63 000e 9961     		str	r1, [r3, #24]
  64              	.LVL1:
  65              	.LBE29:
  66              	.LBE31:
  67              		.loc 1 141 0
  68 0010 1360     		str	r3, [r2]
  69              	.LVL2:
  70              	.L6:
  71              		.loc 1 151 0
  72 0012 0120     		movs	r0, #1
  73 0014 FFF7FEFF 		bl	chEvtWaitAny
  74              	.LVL3:
  75 0018 3468     		ldr	r4, [r6]
  76 001a 2968     		ldr	r1, [r5]
  77              		.loc 1 153 0
  78 001c 0020     		movs	r0, #0
  79              	.L2:
  80 001e 0B46     		mov	r3, r1
  81 0020 A342     		cmp	r3, r4
  82 0022 0246     		mov	r2, r0
  83              	.LVL4:
  84              	.LBB32:
  85              		.loc 1 165 0
  86 0024 4FF00001 		mov	r1, #0
  87              	.LBE32:
  88              		.loc 1 153 0
  89 0028 08D0     		beq	.L14
  90              	.LVL5:
  91              	.L4:
  92 002a 0133     		adds	r3, r3, #1
  93 002c 0122     		movs	r2, #1
  94              	.LBB33:
  95              		.loc 1 164 0
  96 002e 642B     		cmp	r3, #100
  97 0030 1046     		mov	r0, r2
  98 0032 F4D0     		beq	.L2
  99              	.LVL6:
 100              	.LBE33:
 101              		.loc 1 153 0
 102 0034 A342     		cmp	r3, r4
 103              	.LBB34:
 104              		.loc 1 165 0
 105 0036 4FF00001 		mov	r1, #0
 106              	.LBE34:
 107              		.loc 1 153 0
 108 003a F6D1     		bne	.L4
 109              	.LVL7:
 110              	.L14:
 111 003c 002A     		cmp	r2, #0
 112 003e E8D0     		beq	.L6
 113 0040 2B60     		str	r3, [r5]
 114 0042 E6E7     		b	.L6
ARM GAS  C:\Users\IDONNO~1\AppData\Local\Temp\ccJ4EA8s.s 			page 3


 115              	.L16:
 116              		.align	2
 117              	.L15:
 118 0044 00000000 		.word	ch
 119 0048 00000000 		.word	.LANCHOR0
 120 004c 00000000 		.word	.LC0
 121 0050 00000000 		.word	.LANCHOR1
 122 0054 00000000 		.word	.LANCHOR2
 123              		.cfi_endproc
 124              	.LFE258:
 125              		.size	cancom_process_thread, .-cancom_process_thread
 126              		.section	.text.cancom_status_thread,"ax",%progbits
 127              		.align	2
 128              		.p2align 4,,15
 129              		.thumb
 130              		.thumb_func
 131              		.type	cancom_status_thread, %function
 132              	cancom_status_thread:
 133              	.LFB259:
 134              		.loc 1 171 0
 135              		.cfi_startproc
 136              		@ args = 0, pretend = 0, frame = 0
 137              		@ frame_needed = 0, uses_anonymous_args = 0
 138              	.LVL8:
 139              	.LBB35:
 140              	.LBB36:
 141              		.loc 2 135 0
 142 0000 094B     		ldr	r3, .L21
 143 0002 0A4A     		ldr	r2, .L21+4
 144 0004 9B69     		ldr	r3, [r3, #24]
 145              	.LBE36:
 146              	.LBE35:
 147              		.loc 1 171 0
 148 0006 10B5     		push	{r4, lr}
 149              		.cfi_def_cfa_offset 8
 150              		.cfi_offset 4, -8
 151              		.cfi_offset 14, -4
 152              	.LBB38:
 153              		.loc 1 186 0
 154 0008 42F21074 		movw	r4, #10000
 155              	.LBE38:
 156              	.LBB39:
 157              	.LBB37:
 158              		.loc 2 135 0
 159 000c 9A61     		str	r2, [r3, #24]
 160              	.LVL9:
 161              	.L19:
 162              	.LBE37:
 163              	.LBE39:
 164              	.LBB40:
 165              		.loc 1 176 0
 166 000e FFF7FEFF 		bl	app_get_configuration
 167              	.LVL10:
 168              		.loc 1 186 0
 169 0012 FFF7FEFF 		bl	app_get_configuration
 170              	.LVL11:
 171 0016 0069     		ldr	r0, [r0, #16]
ARM GAS  C:\Users\IDONNO~1\AppData\Local\Temp\ccJ4EA8s.s 			page 4


 172 0018 B4FBF0F0 		udiv	r0, r4, r0
 173              	.LVL12:
 174              		.loc 1 188 0
 175 001c 0028     		cmp	r0, #0
 176              	.LVL13:
 177              		.loc 1 191 0
 178 001e 08BF     		it	eq
 179 0020 0120     		moveq	r0, #1
 180              	.LVL14:
 181 0022 FFF7FEFF 		bl	chThdSleep
 182              	.LVL15:
 183              	.LBE40:
 184              		.loc 1 192 0
 185 0026 F2E7     		b	.L19
 186              	.L22:
 187              		.align	2
 188              	.L21:
 189 0028 00000000 		.word	ch
 190 002c 10000000 		.word	.LC1
 191              		.cfi_endproc
 192              	.LFE259:
 193              		.size	cancom_status_thread, .-cancom_status_thread
 194              		.section	.text.cancom_read_thread,"ax",%progbits
 195              		.align	2
 196              		.p2align 4,,15
 197              		.thumb
 198              		.thumb_func
 199              		.type	cancom_read_thread, %function
 200              	cancom_read_thread:
 201              	.LFB257:
 202              		.loc 1 106 0
 203              		.cfi_startproc
 204              		@ args = 0, pretend = 0, frame = 40
 205              		@ frame_needed = 0, uses_anonymous_args = 0
 206              	.LVL16:
 207 0000 F0B5     		push	{r4, r5, r6, r7, lr}
 208              		.cfi_def_cfa_offset 20
 209              		.cfi_offset 4, -20
 210              		.cfi_offset 5, -16
 211              		.cfi_offset 6, -12
 212              		.cfi_offset 7, -8
 213              		.cfi_offset 14, -4
 214              	.LBB41:
 215              	.LBB42:
 216              		.loc 2 135 0
 217 0002 1F4E     		ldr	r6, .L35
 218 0004 1F4A     		ldr	r2, .L35+4
 219 0006 B369     		ldr	r3, [r6, #24]
 220              	.LBE42:
 221              	.LBE41:
 222              	.LBB44:
 223              	.LBB45:
 224              	.LBB46:
 225              		.file 3 "src/ChibiOS_3.0.2/os/rt/include/chevents.h"
 226              		.loc 3 193 0
 227 0008 1F48     		ldr	r0, .L35+8
 228              	.LVL17:
ARM GAS  C:\Users\IDONNO~1\AppData\Local\Temp\ccJ4EA8s.s 			page 5


 229              	.LBE46:
 230              	.LBE45:
 231              	.LBE44:
 232              	.LBB49:
 233              	.LBB43:
 234              		.loc 2 135 0
 235 000a 9A61     		str	r2, [r3, #24]
 236              	.LVL18:
 237              	.LBE43:
 238              	.LBE49:
 239              		.loc 1 106 0
 240 000c 8BB0     		sub	sp, sp, #44
 241              		.cfi_def_cfa_offset 64
 242              	.LVL19:
 243              	.LBB50:
 244              	.LBB48:
 245              	.LBB47:
 246              		.loc 3 193 0
 247 000e 6946     		mov	r1, sp
 248 0010 4FF0FF33 		mov	r3, #-1
 249 0014 0122     		movs	r2, #1
 250 0016 FFF7FEFF 		bl	chEvtRegisterMaskWithFlags
 251              	.LVL20:
 252 001a 1C4C     		ldr	r4, .L35+12
 253              	.L24:
 254              	.LBE47:
 255              	.LBE48:
 256              	.LBE50:
 257              	.LBB51:
 258              	.LBB52:
 259              		.file 4 "src/ChibiOS_3.0.2/os/rt/include/chthreads.h"
 260              		.loc 4 233 0
 261 001c B369     		ldr	r3, [r6, #24]
 262              	.LBE52:
 263              	.LBE51:
 264              		.loc 1 115 0
 265 001e 5B7F     		ldrb	r3, [r3, #29]	@ zero_extendqisi2
 266 0020 03F00403 		and	r3, r3, #4
 267 0024 03F0FF05 		and	r5, r3, #255
 268 0028 1BBB     		cbnz	r3, .L34
 269              	.LBB53:
 270              		.loc 1 116 0
 271 002a 6421     		movs	r1, #100
 272 002c 4FF0FF30 		mov	r0, #-1
 273 0030 FFF7FEFF 		bl	chEvtWaitAnyTimeout
 274              	.LVL21:
 275 0034 0028     		cmp	r0, #0
 276 0036 F1D0     		beq	.L24
 277              		.loc 1 120 0
 278 0038 05AA     		add	r2, sp, #20
 279 003a 2B46     		mov	r3, r5
 280 003c 2946     		mov	r1, r5
 281 003e 1448     		ldr	r0, .L35+16
 282 0040 FFF7FEFF 		bl	canReceive
 283              	.LVL22:
 284              		.loc 1 122 0
 285 0044 0028     		cmp	r0, #0
ARM GAS  C:\Users\IDONNO~1\AppData\Local\Temp\ccJ4EA8s.s 			page 6


 286 0046 E9D1     		bne	.L24
 287 0048 124F     		ldr	r7, .L35+20
 288              		.loc 1 125 0
 289 004a 0546     		mov	r5, r0
 290              	.L29:
 291              	.LVL23:
 292              		.loc 1 123 0
 293 004c 2368     		ldr	r3, [r4]
 294              		.loc 1 128 0
 295 004e 3868     		ldr	r0, [r7]
 296              		.loc 1 123 0
 297 0050 0133     		adds	r3, r3, #1
 298 0052 642B     		cmp	r3, #100
 299 0054 08BF     		it	eq
 300 0056 2B46     		moveq	r3, r5
 301              		.loc 1 128 0
 302 0058 0121     		movs	r1, #1
 303              		.loc 1 123 0
 304 005a 2360     		str	r3, [r4]
 305              		.loc 1 128 0
 306 005c FFF7FEFF 		bl	chEvtSignal
 307              	.LVL24:
 308              		.loc 1 130 0
 309 0060 0023     		movs	r3, #0
 310 0062 1946     		mov	r1, r3
 311 0064 05AA     		add	r2, sp, #20
 312 0066 0A48     		ldr	r0, .L35+16
 313 0068 FFF7FEFF 		bl	canReceive
 314              	.LVL25:
 315              		.loc 1 122 0
 316 006c 0028     		cmp	r0, #0
 317 006e EDD0     		beq	.L29
 318 0070 D4E7     		b	.L24
 319              	.LVL26:
 320              	.L34:
 321              	.LBE53:
 322              		.loc 1 134 0
 323 0072 6946     		mov	r1, sp
 324 0074 0448     		ldr	r0, .L35+8
 325              	.LVL27:
 326 0076 FFF7FEFF 		bl	chEvtUnregister
 327              	.LVL28:
 328              		.loc 1 135 0
 329 007a 0BB0     		add	sp, sp, #44
 330              		.cfi_def_cfa_offset 20
 331              	.LVL29:
 332              		@ sp needed
 333 007c F0BD     		pop	{r4, r5, r6, r7, pc}
 334              	.LVL30:
 335              	.L36:
 336 007e 00BF     		.align	2
 337              	.L35:
 338 0080 00000000 		.word	ch
 339 0084 1C000000 		.word	.LC2
 340 0088 18000000 		.word	CAND1+24
 341 008c 00000000 		.word	.LANCHOR1
 342 0090 00000000 		.word	CAND1
ARM GAS  C:\Users\IDONNO~1\AppData\Local\Temp\ccJ4EA8s.s 			page 7


 343 0094 00000000 		.word	.LANCHOR0
 344              		.cfi_endproc
 345              	.LFE257:
 346              		.size	cancom_read_thread, .-cancom_read_thread
 347              		.section	.text.comm_can_init,"ax",%progbits
 348              		.align	2
 349              		.p2align 4,,15
 350              		.global	comm_can_init
 351              		.thumb
 352              		.thumb_func
 353              		.type	comm_can_init, %function
 354              	comm_can_init:
 355              	.LFB256:
 356              		.loc 1 77 0
 357              		.cfi_startproc
 358              		@ args = 0, pretend = 0, frame = 0
 359              		@ frame_needed = 0, uses_anonymous_args = 0
 360              	.LVL31:
 361 0000 1F49     		ldr	r1, .L41
 362              	.LBB54:
 363              		.loc 1 78 0
 364 0002 0023     		movs	r3, #0
 365              		.loc 1 79 0
 366 0004 4FF0FF32 		mov	r2, #-1
 367              	.LVL32:
 368              	.L38:
 369              		.loc 1 79 0 is_stmt 0 discriminator 3
 370 0008 41F83320 		str	r2, [r1, r3, lsl #3]
 371              		.loc 1 78 0 is_stmt 1 discriminator 3
 372 000c 0133     		adds	r3, r3, #1
 373              	.LVL33:
 374 000e 0A2B     		cmp	r3, #10
 375 0010 FAD1     		bne	.L38
 376              	.LBE54:
 377              		.loc 1 77 0
 378 0012 10B5     		push	{r4, lr}
 379              		.cfi_def_cfa_offset 8
 380              		.cfi_offset 4, -8
 381              		.cfi_offset 14, -4
 382              		.loc 1 83 0
 383 0014 1B4B     		ldr	r3, .L41+4
 384              	.LVL34:
 385              		.loc 1 82 0
 386 0016 1C4A     		ldr	r2, .L41+8
 387              		.loc 1 85 0
 388 0018 1C48     		ldr	r0, .L41+12
 389              		.loc 1 77 0
 390 001a 82B0     		sub	sp, sp, #8
 391              		.cfi_def_cfa_offset 16
 392              		.loc 1 82 0
 393 001c 0024     		movs	r4, #0
 394              		.loc 1 83 0
 395 001e 1C60     		str	r4, [r3]
 396              		.loc 1 82 0
 397 0020 1460     		str	r4, [r2]
 398              		.loc 1 85 0
 399 0022 FFF7FEFF 		bl	chMtxObjectInit
ARM GAS  C:\Users\IDONNO~1\AppData\Local\Temp\ccJ4EA8s.s 			page 8


 400              	.LVL35:
 401              		.loc 1 87 0
 402 0026 40F28A42 		movw	r2, #1162
 403 002a 4FF48071 		mov	r1, #256
 404 002e 1848     		ldr	r0, .L41+16
 405 0030 FFF7FEFF 		bl	_pal_lld_setgroupmode
 406              	.LVL36:
 407              		.loc 1 91 0
 408 0034 40F28A42 		movw	r2, #1162
 409 0038 4FF40071 		mov	r1, #512
 410 003c 1448     		ldr	r0, .L41+16
 411 003e FFF7FEFF 		bl	_pal_lld_setgroupmode
 412              	.LVL37:
 413              		.loc 1 96 0
 414 0042 1449     		ldr	r1, .L41+20
 415 0044 1448     		ldr	r0, .L41+24
 416 0046 FFF7FEFF 		bl	canStart
 417              	.LVL38:
 418              		.loc 1 98 0
 419 004a 0094     		str	r4, [sp]
 420 004c 134B     		ldr	r3, .L41+28
 421 004e 1448     		ldr	r0, .L41+32
 422 0050 4122     		movs	r2, #65
 423 0052 4FF46671 		mov	r1, #920
 424 0056 FFF7FEFF 		bl	chThdCreateStatic
 425              	.LVL39:
 426              		.loc 1 100 0
 427 005a 0094     		str	r4, [sp]
 428 005c 114B     		ldr	r3, .L41+36
 429 005e 1248     		ldr	r0, .L41+40
 430 0060 4022     		movs	r2, #64
 431 0062 4FF4B361 		mov	r1, #1432
 432 0066 FFF7FEFF 		bl	chThdCreateStatic
 433              	.LVL40:
 434              		.loc 1 102 0
 435 006a 0094     		str	r4, [sp]
 436 006c 0F4B     		ldr	r3, .L41+44
 437 006e 1048     		ldr	r0, .L41+48
 438 0070 4022     		movs	r2, #64
 439 0072 41F29811 		movw	r1, #4504
 440 0076 FFF7FEFF 		bl	chThdCreateStatic
 441              	.LVL41:
 442              		.loc 1 104 0
 443 007a 02B0     		add	sp, sp, #8
 444              		.cfi_def_cfa_offset 8
 445              		@ sp needed
 446 007c 10BD     		pop	{r4, pc}
 447              	.L42:
 448 007e 00BF     		.align	2
 449              	.L41:
 450 0080 00000000 		.word	.LANCHOR3
 451 0084 00000000 		.word	.LANCHOR1
 452 0088 00000000 		.word	.LANCHOR2
 453 008c 00000000 		.word	.LANCHOR4
 454 0090 00040240 		.word	1073873920
 455 0094 00000000 		.word	.LANCHOR5
 456 0098 00000000 		.word	CAND1
ARM GAS  C:\Users\IDONNO~1\AppData\Local\Temp\ccJ4EA8s.s 			page 9


 457 009c 00000000 		.word	cancom_read_thread
 458 00a0 00000000 		.word	.LANCHOR6
 459 00a4 00000000 		.word	cancom_status_thread
 460 00a8 00000000 		.word	.LANCHOR7
 461 00ac 00000000 		.word	cancom_process_thread
 462 00b0 00000000 		.word	.LANCHOR8
 463              		.cfi_endproc
 464              	.LFE256:
 465              		.size	comm_can_init, .-comm_can_init
 466              		.section	.text.comm_can_transmit,"ax",%progbits
 467              		.align	2
 468              		.p2align 4,,15
 469              		.global	comm_can_transmit
 470              		.thumb
 471              		.thumb_func
 472              		.type	comm_can_transmit, %function
 473              	comm_can_transmit:
 474              	.LFB260:
 475              		.loc 1 195 0
 476              		.cfi_startproc
 477              		@ args = 0, pretend = 0, frame = 0
 478              		@ frame_needed = 0, uses_anonymous_args = 0
 479              		@ link register save eliminated.
 480              	.LVL42:
 481 0000 7047     		bx	lr
 482              		.cfi_endproc
 483              	.LFE260:
 484              		.size	comm_can_transmit, .-comm_can_transmit
 485 0002 00BF     		.section	.text.comm_can_send_buffer,"ax",%progbits
 486              		.align	2
 487              		.p2align 4,,15
 488              		.global	comm_can_send_buffer
 489              		.thumb
 490              		.thumb_func
 491              		.type	comm_can_send_buffer, %function
 492              	comm_can_send_buffer:
 493              	.LFB261:
 494              		.loc 1 233 0
 495              		.cfi_startproc
 496              		@ args = 0, pretend = 0, frame = 8
 497              		@ frame_needed = 0, uses_anonymous_args = 0
 498              	.LVL43:
 499              		.loc 1 236 0
 500 0000 062A     		cmp	r2, #6
 501 0002 44D9     		bls	.L45
 502              		.loc 1 233 0
 503 0004 2DE9F043 		push	{r4, r5, r6, r7, r8, r9, lr}
 504              		.cfi_def_cfa_offset 28
 505              		.cfi_offset 4, -28
 506              		.cfi_offset 5, -24
 507              		.cfi_offset 6, -20
 508              		.cfi_offset 7, -16
 509              		.cfi_offset 8, -12
 510              		.cfi_offset 9, -8
 511              		.cfi_offset 14, -4
 512              		.loc 1 236 0
 513 0008 4FF00008 		mov	r8, #0
ARM GAS  C:\Users\IDONNO~1\AppData\Local\Temp\ccJ4EA8s.s 			page 10


 514              		.loc 1 233 0
 515 000c 83B0     		sub	sp, sp, #12
 516              		.cfi_def_cfa_offset 40
 517 000e 0F46     		mov	r7, r1
 518 0010 1646     		mov	r6, r2
 519              		.loc 1 236 0
 520 0012 4446     		mov	r4, r8
 521 0014 0D46     		mov	r5, r1
 522              	.LBB55:
 523              	.LBB56:
 524              	.LBB57:
 525              		.loc 1 246 0
 526 0016 40F20319 		movw	r9, #259
 527 001a 01E0     		b	.L46
 528              	.LVL44:
 529              	.L50:
 530 001c 4C45     		cmp	r4, r9
 531 001e 18D0     		beq	.L47
 532              	.LVL45:
 533              	.L46:
 534              		.loc 1 250 0
 535 0020 0734     		adds	r4, r4, #7
 536              	.LVL46:
 537              		.loc 1 253 0
 538 0022 5FFA88F3 		uxtb	r3, r8
 539              		.loc 1 255 0
 540 0026 A642     		cmp	r6, r4
 541              		.loc 1 253 0
 542 0028 8DF80030 		strb	r3, [sp]
 543              		.loc 1 255 0
 544 002c 31D3     		bcc	.L48
 545              		.loc 1 256 0
 546 002e 2968     		ldr	r1, [r5]	@ unaligned
 547 0030 AA88     		ldrh	r2, [r5, #4]	@ unaligned
 548 0032 AB79     		ldrb	r3, [r5, #6]	@ zero_extendqisi2
 549 0034 CDF80110 		str	r1, [sp, #1]	@ unaligned
 550 0038 ADF80520 		strh	r2, [sp, #5]	@ unaligned
 551 003c 8DF80730 		strb	r3, [sp, #7]
 552              	.LVL47:
 553              	.L49:
 554              	.LBE57:
 555              		.loc 1 245 0 discriminator 1
 556 0040 A642     		cmp	r6, r4
 557 0042 08F10708 		add	r8, r8, #7
 558 0046 05F10705 		add	r5, r5, #7
 559 004a E7D8     		bhi	.L50
 560              	.LVL48:
 561              	.L44:
 562              	.LBE56:
 563              	.LBE55:
 564              		.loc 1 291 0
 565 004c 03B0     		add	sp, sp, #12
 566              		.cfi_remember_state
 567              		.cfi_def_cfa_offset 28
 568              		@ sp needed
 569 004e BDE8F083 		pop	{r4, r5, r6, r7, r8, r9, pc}
 570              	.LVL49:
ARM GAS  C:\Users\IDONNO~1\AppData\Local\Temp\ccJ4EA8s.s 			page 11


 571              	.L47:
 572              		.cfi_restore_state
 573 0052 07F20315 		addw	r5, r7, #259
 574              	.LBB63:
 575              	.LBB59:
 576              	.LBB60:
 577              		.loc 1 274 0
 578 0056 B71D     		adds	r7, r6, #6
 579              	.LVL50:
 580 0058 09E0     		b	.L54
 581              	.LVL51:
 582              	.L58:
 583              		.loc 1 271 0
 584 005a 2A68     		ldr	r2, [r5]	@ unaligned
 585 005c AB88     		ldrh	r3, [r5, #4]	@ unaligned
 586 005e CDF80220 		str	r2, [sp, #2]	@ unaligned
 587 0062 ADF80630 		strh	r3, [sp, #6]	@ unaligned
 588              	.L53:
 589              	.LVL52:
 590              	.LBE60:
 591              		.loc 1 265 0 discriminator 1
 592 0066 A642     		cmp	r6, r4
 593 0068 05F10605 		add	r5, r5, #6
 594 006c EED9     		bls	.L44
 595              	.LVL53:
 596              	.L54:
 597              	.LBB61:
 598              		.loc 1 267 0
 599 006e 230A     		lsrs	r3, r4, #8
 600              		.loc 1 268 0
 601 0070 8DF80140 		strb	r4, [sp, #1]
 602              		.loc 1 270 0
 603 0074 0634     		adds	r4, r4, #6
 604              	.LVL54:
 605              		.loc 1 274 0
 606 0076 3A1B     		subs	r2, r7, r4
 607              		.loc 1 270 0
 608 0078 A642     		cmp	r6, r4
 609              		.loc 1 267 0
 610 007a 8DF80030 		strb	r3, [sp]
 611              		.loc 1 274 0
 612 007e 2946     		mov	r1, r5
 613 0080 D2B2     		uxtb	r2, r2
 614 0082 0DF10200 		add	r0, sp, #2
 615              		.loc 1 270 0
 616 0086 E8D2     		bcs	.L58
 617              		.loc 1 274 0
 618 0088 FFF7FEFF 		bl	memcpy
 619              	.LVL55:
 620 008c EBE7     		b	.L53
 621              	.LVL56:
 622              	.L45:
 623              		.cfi_def_cfa_offset 0
 624              		.cfi_restore 4
 625              		.cfi_restore 5
 626              		.cfi_restore 6
 627              		.cfi_restore 7
ARM GAS  C:\Users\IDONNO~1\AppData\Local\Temp\ccJ4EA8s.s 			page 12


 628              		.cfi_restore 8
 629              		.cfi_restore 9
 630              		.cfi_restore 14
 631              	.LBE61:
 632              	.LBE59:
 633              	.LBE63:
 634              	.LBB64:
 635              		.loc 1 238 0
 636 008e FFF7FEBF 		b	app_get_configuration
 637              	.LVL57:
 638              	.L48:
 639              		.cfi_def_cfa_offset 40
 640              		.cfi_offset 4, -28
 641              		.cfi_offset 5, -24
 642              		.cfi_offset 6, -20
 643              		.cfi_offset 7, -16
 644              		.cfi_offset 8, -12
 645              		.cfi_offset 9, -8
 646              		.cfi_offset 14, -4
 647              	.LBE64:
 648              	.LBB65:
 649              	.LBB62:
 650              	.LBB58:
 651              		.loc 1 259 0
 652 0092 F21A     		subs	r2, r6, r3
 653 0094 D2B2     		uxtb	r2, r2
 654 0096 2946     		mov	r1, r5
 655 0098 0DF10100 		add	r0, sp, #1
 656 009c FFF7FEFF 		bl	memcpy
 657              	.LVL58:
 658 00a0 CEE7     		b	.L49
 659              	.LBE58:
 660              	.LBE62:
 661              	.LBE65:
 662              		.cfi_endproc
 663              	.LFE261:
 664              		.size	comm_can_send_buffer, .-comm_can_send_buffer
 665 00a2 00BF     		.section	.text.comm_can_get_status_msg_index,"ax",%progbits
 666              		.align	2
 667              		.p2align 4,,15
 668              		.global	comm_can_get_status_msg_index
 669              		.thumb
 670              		.thumb_func
 671              		.type	comm_can_get_status_msg_index, %function
 672              	comm_can_get_status_msg_index:
 673              	.LFB262:
 674              		.loc 1 302 0
 675              		.cfi_startproc
 676              		@ args = 0, pretend = 0, frame = 0
 677              		@ frame_needed = 0, uses_anonymous_args = 0
 678              		@ link register save eliminated.
 679              	.LVL59:
 680              		.loc 1 303 0
 681 0000 0928     		cmp	r0, #9
 682              		.loc 1 304 0
 683 0002 DABF     		itte	le
 684 0004 024B     		ldrle	r3, .L62
ARM GAS  C:\Users\IDONNO~1\AppData\Local\Temp\ccJ4EA8s.s 			page 13


 685 0006 03EBC000 		addle	r0, r3, r0, lsl #3
 686              	.LVL60:
 687              		.loc 1 306 0
 688 000a 0020     		movgt	r0, #0
 689              		.loc 1 308 0
 690 000c 7047     		bx	lr
 691              	.L63:
 692 000e 00BF     		.align	2
 693              	.L62:
 694 0010 00000000 		.word	.LANCHOR3
 695              		.cfi_endproc
 696              	.LFE262:
 697              		.size	comm_can_get_status_msg_index, .-comm_can_get_status_msg_index
 698              		.section	.text.comm_can_get_status_msg_id,"ax",%progbits
 699              		.align	2
 700              		.p2align 4,,15
 701              		.global	comm_can_get_status_msg_id
 702              		.thumb
 703              		.thumb_func
 704              		.type	comm_can_get_status_msg_id, %function
 705              	comm_can_get_status_msg_id:
 706              	.LFB263:
 707              		.loc 1 319 0
 708              		.cfi_startproc
 709              		@ args = 0, pretend = 0, frame = 0
 710              		@ frame_needed = 0, uses_anonymous_args = 0
 711              		@ link register save eliminated.
 712              	.LVL61:
 713 0000 30B4     		push	{r4, r5}
 714              		.cfi_def_cfa_offset 8
 715              		.cfi_offset 4, -8
 716              		.cfi_offset 5, -4
 717 0002 094C     		ldr	r4, .L71
 718              	.LBB66:
 719              		.loc 1 320 0
 720 0004 0023     		movs	r3, #0
 721              	.LVL62:
 722              	.L67:
 723              		.loc 1 321 0
 724 0006 54F83320 		ldr	r2, [r4, r3, lsl #3]
 725 000a 074D     		ldr	r5, .L71
 726 000c 8242     		cmp	r2, r0
 727 000e 4FEAC301 		lsl	r1, r3, #3
 728              		.loc 1 320 0
 729 0012 03F10103 		add	r3, r3, #1
 730              	.LVL63:
 731              		.loc 1 321 0
 732 0016 04D0     		beq	.L70
 733              		.loc 1 320 0 discriminator 2
 734 0018 0A2B     		cmp	r3, #10
 735 001a F4D1     		bne	.L67
 736              	.LBE66:
 737              		.loc 1 326 0
 738 001c 0020     		movs	r0, #0
 739              	.LVL64:
 740              		.loc 1 327 0
 741 001e 30BC     		pop	{r4, r5}
ARM GAS  C:\Users\IDONNO~1\AppData\Local\Temp\ccJ4EA8s.s 			page 14


 742              		.cfi_remember_state
 743              		.cfi_restore 5
 744              		.cfi_restore 4
 745              		.cfi_def_cfa_offset 0
 746 0020 7047     		bx	lr
 747              	.LVL65:
 748              	.L70:
 749              		.cfi_restore_state
 750              	.LBB67:
 751              		.loc 1 322 0
 752 0022 6818     		adds	r0, r5, r1
 753              	.LVL66:
 754              	.LBE67:
 755              		.loc 1 327 0
 756 0024 30BC     		pop	{r4, r5}
 757              		.cfi_restore 4
 758              		.cfi_restore 5
 759              		.cfi_def_cfa_offset 0
 760 0026 7047     		bx	lr
 761              	.L72:
 762              		.align	2
 763              	.L71:
 764 0028 00000000 		.word	.LANCHOR3
 765              		.cfi_endproc
 766              	.LFE263:
 767              		.size	comm_can_get_status_msg_id, .-comm_can_get_status_msg_id
 768              		.section	.bss.cancom_process_thread_wa,"aw",%nobits
 769              		.align	3
 770              		.set	.LANCHOR8,. + 0
 771              		.type	cancom_process_thread_wa, %object
 772              		.size	cancom_process_thread_wa, 4504
 773              	cancom_process_thread_wa:
 774 0000 00000000 		.space	4504
 774      00000000 
 774      00000000 
 774      00000000 
 774      00000000 
 775              		.section	.bss.rx_frame_read,"aw",%nobits
 776              		.align	2
 777              		.set	.LANCHOR2,. + 0
 778              		.type	rx_frame_read, %object
 779              		.size	rx_frame_read, 4
 780              	rx_frame_read:
 781 0000 00000000 		.space	4
 782              		.section	.rodata.cancfg,"a",%progbits
 783              		.align	2
 784              		.set	.LANCHOR5,. + 0
 785              		.type	cancfg, %object
 786              		.size	cancfg, 8
 787              	cancfg:
 788 0000 64000000 		.word	100
 789 0004 06001800 		.word	1572870
 790              		.section	.bss.cancom_status_thread_wa,"aw",%nobits
 791              		.align	3
 792              		.set	.LANCHOR7,. + 0
 793              		.type	cancom_status_thread_wa, %object
 794              		.size	cancom_status_thread_wa, 1432
ARM GAS  C:\Users\IDONNO~1\AppData\Local\Temp\ccJ4EA8s.s 			page 15


 795              	cancom_status_thread_wa:
 796 0000 00000000 		.space	1432
 796      00000000 
 796      00000000 
 796      00000000 
 796      00000000 
 797              		.section	.bss.stat_msgs,"aw",%nobits
 798              		.align	2
 799              		.set	.LANCHOR3,. + 0
 800              		.type	stat_msgs, %object
 801              		.size	stat_msgs, 80
 802              	stat_msgs:
 803 0000 00000000 		.space	80
 803      00000000 
 803      00000000 
 803      00000000 
 803      00000000 
 804              		.section	.rodata.str1.4,"aMS",%progbits,1
 805              		.align	2
 806              	.LC0:
 807 0000 43616E63 		.ascii	"Cancom process\000"
 807      6F6D2070 
 807      726F6365 
 807      737300
 808 000f 00       		.space	1
 809              	.LC1:
 810 0010 43414E20 		.ascii	"CAN status\000"
 810      73746174 
 810      757300
 811 001b 00       		.space	1
 812              	.LC2:
 813 001c 43414E00 		.ascii	"CAN\000"
 814              		.section	.bss.can_mtx,"aw",%nobits
 815              		.align	2
 816              		.set	.LANCHOR4,. + 0
 817              		.type	can_mtx, %object
 818              		.size	can_mtx, 16
 819              	can_mtx:
 820 0000 00000000 		.space	16
 820      00000000 
 820      00000000 
 820      00000000 
 821              		.section	.bss.cancom_read_thread_wa,"aw",%nobits
 822              		.align	3
 823              		.set	.LANCHOR6,. + 0
 824              		.type	cancom_read_thread_wa, %object
 825              		.size	cancom_read_thread_wa, 920
 826              	cancom_read_thread_wa:
 827 0000 00000000 		.space	920
 827      00000000 
 827      00000000 
 827      00000000 
 827      00000000 
 828              		.section	.bss.process_tp,"aw",%nobits
 829              		.align	2
 830              		.set	.LANCHOR0,. + 0
 831              		.type	process_tp, %object
ARM GAS  C:\Users\IDONNO~1\AppData\Local\Temp\ccJ4EA8s.s 			page 16


 832              		.size	process_tp, 4
 833              	process_tp:
 834 0000 00000000 		.space	4
 835              		.section	.bss.rx_frame_write,"aw",%nobits
 836              		.align	2
 837              		.set	.LANCHOR1,. + 0
 838              		.type	rx_frame_write, %object
 839              		.size	rx_frame_write, 4
 840              	rx_frame_write:
 841 0000 00000000 		.space	4
 842              		.text
 843              	.Letext0:
 844              		.file 5 "c:\\program files (x86)\\gnu tools arm embedded\\5.4 2016q3\\lib\\gcc\\arm-none-eabi\\5.4
 845              		.file 6 "c:\\program files (x86)\\gnu tools arm embedded\\5.4 2016q3\\arm-none-eabi\\include\\mach
 846              		.file 7 "c:\\program files (x86)\\gnu tools arm embedded\\5.4 2016q3\\arm-none-eabi\\include\\sys\
 847              		.file 8 "src/ChibiOS_3.0.2/os/rt/ports/ARMCMx/compilers/GCC/chtypes.h"
 848              		.file 9 "src/ChibiOS_3.0.2/os/rt/include/chsystypes.h"
 849              		.file 10 "src/ChibiOS_3.0.2/os/rt/include/chschd.h"
 850              		.file 11 "src/ChibiOS_3.0.2/os/ext/CMSIS/ST/stm32f407xx.h"
 851              		.file 12 "src/ChibiOS_3.0.2/os/rt/ports/ARMCMx/chcore.h"
 852              		.file 13 "src/ChibiOS_3.0.2/os/rt/ports/ARMCMx/chcore_v7m.h"
 853              		.file 14 "src/ChibiOS_3.0.2/os/rt/include/chtm.h"
 854              		.file 15 "src/ChibiOS_3.0.2/os/rt/include/chsem.h"
 855              		.file 16 "src/ChibiOS_3.0.2/os/rt/include/chmtx.h"
 856              		.file 17 "src/core/comm_can.h"
 857              		.file 18 "src/ChibiOS_3.0.2/os/hal/ports/STM32/LLD/GPIOv2/pal_lld.h"
 858              		.file 19 "src/ChibiOS_3.0.2/os/hal/include/can.h"
 859              		.file 20 "src/ChibiOS_3.0.2/os/hal/ports/STM32/LLD/can_lld.h"
 860              		.file 21 "src/ChibiOS_3.0.2/os/ext/CMSIS/include/core_cm4.h"
 861              		.file 22 "src/app/app.h"