ARM GAS  C:\Users\IDONNO~1\AppData\Local\Temp\ccYD79C6.s 			page 1


   1              		.syntax unified
   2              		.cpu cortex-m4
   3              		.eabi_attribute 27, 1
   4              		.eabi_attribute 28, 1
   5              		.fpu fpv4-sp-d16
   6              		.eabi_attribute 20, 1
   7              		.eabi_attribute 21, 1
   8              		.eabi_attribute 23, 3
   9              		.eabi_attribute 24, 1
  10              		.eabi_attribute 25, 1
  11              		.eabi_attribute 26, 1
  12              		.eabi_attribute 30, 2
  13              		.eabi_attribute 34, 1
  14              		.eabi_attribute 18, 4
  15              		.thumb
  16              		.syntax unified
  17              		.file	"comm_usb_serial.c"
  18              		.text
  19              	.Ltext0:
  20              		.cfi_sections	.debug_frame
  21              		.section	.text.get_descriptor,"ax",%progbits
  22              		.align	2
  23              		.p2align 4,,15
  24              		.thumb
  25              		.thumb_func
  26              		.type	get_descriptor, %function
  27              	get_descriptor:
  28              	.LFB256:
  29              		.file 1 "src/core/comm_usb_serial.c"
  30              		.loc 1 189 0
  31              		.cfi_startproc
  32              		@ args = 0, pretend = 0, frame = 0
  33              		@ frame_needed = 0, uses_anonymous_args = 0
  34              		@ link register save eliminated.
  35              	.LVL0:
  36              		.loc 1 193 0
  37 0000 0229     		cmp	r1, #2
  38 0002 06D0     		beq	.L3
  39 0004 0329     		cmp	r1, #3
  40 0006 06D0     		beq	.L4
  41 0008 0129     		cmp	r1, #1
  42              		.loc 1 202 0
  43 000a 0648     		ldr	r0, .L9
  44              	.LVL1:
  45 000c 18BF     		it	ne
  46 000e 0020     		movne	r0, #0
  47 0010 7047     		bx	lr
  48              	.LVL2:
  49              	.L3:
  50              		.loc 1 197 0
  51 0012 0548     		ldr	r0, .L9+4
  52              	.LVL3:
  53 0014 7047     		bx	lr
  54              	.LVL4:
  55              	.L4:
  56              		.loc 1 199 0
  57 0016 032A     		cmp	r2, #3
ARM GAS  C:\Users\IDONNO~1\AppData\Local\Temp\ccYD79C6.s 			page 2


  58              		.loc 1 200 0
  59 0018 9ABF     		itte	ls
  60 001a 044B     		ldrls	r3, .L9+8
  61              	.LVL5:
  62 001c 03EBC200 		addls	r0, r3, r2, lsl #3
  63              	.LVL6:
  64              		.loc 1 202 0
  65 0020 0020     		movhi	r0, #0
  66              		.loc 1 203 0
  67 0022 7047     		bx	lr
  68              	.L10:
  69              		.align	2
  70              	.L9:
  71 0024 00000000 		.word	.LANCHOR0
  72 0028 00000000 		.word	.LANCHOR1
  73 002c 00000000 		.word	.LANCHOR2
  74              		.cfi_endproc
  75              	.LFE256:
  76              		.size	get_descriptor, .-get_descriptor
  77              		.section	.text.usb_event,"ax",%progbits
  78              		.align	2
  79              		.p2align 4,,15
  80              		.thumb
  81              		.thumb_func
  82              		.type	usb_event, %function
  83              	usb_event:
  84              	.LFB257:
  85              		.loc 1 255 0
  86              		.cfi_startproc
  87              		@ args = 0, pretend = 0, frame = 0
  88              		@ frame_needed = 0, uses_anonymous_args = 0
  89              	.LVL7:
  90              		.loc 1 257 0
  91 0000 0229     		cmp	r1, #2
  92 0002 15D1     		bne	.L15
  93              		.loc 1 255 0
  94 0004 38B5     		push	{r3, r4, r5, lr}
  95              		.cfi_def_cfa_offset 16
  96              		.cfi_offset 3, -16
  97              		.cfi_offset 4, -12
  98              		.cfi_offset 5, -8
  99              		.cfi_offset 14, -4
 100 0006 0546     		mov	r5, r0
 101 0008 0C46     		mov	r4, r1
 102              	.LVL8:
 103              	.LBB58:
 104              	.LBB59:
 105              	.LBB60:
 106              	.LBB61:
 107              	.LBB62:
 108              	.LBB63:
 109              	.LBB64:
 110              		.file 2 "src/ChibiOS_3.0.2/os/ext/CMSIS/include/core_cmFunc.h"
 111              		.loc 2 546 0
 112 000a 2023     		movs	r3, #32
 113              		.syntax unified
 114              	@ 546 "src/ChibiOS_3.0.2/os/ext/CMSIS/include/core_cmFunc.h" 1
ARM GAS  C:\Users\IDONNO~1\AppData\Local\Temp\ccYD79C6.s 			page 3


 115 000c 83F31188 		MSR basepri, r3
 116              	@ 0 "" 2
 117              	.LVL9:
 118              		.thumb
 119              		.syntax unified
 120              	.LBE64:
 121              	.LBE63:
 122              	.LBE62:
 123              	.LBE61:
 124              	.LBE60:
 125              		.loc 1 268 0
 126 0010 084A     		ldr	r2, .L16
 127 0012 0121     		movs	r1, #1
 128              	.LVL10:
 129 0014 FFF7FEFF 		bl	usbInitEndpointI
 130              	.LVL11:
 131              		.loc 1 269 0
 132 0018 2146     		mov	r1, r4
 133 001a 2846     		mov	r0, r5
 134 001c 064A     		ldr	r2, .L16+4
 135 001e FFF7FEFF 		bl	usbInitEndpointI
 136              	.LVL12:
 137              		.loc 1 272 0
 138 0022 0648     		ldr	r0, .L16+8
 139 0024 FFF7FEFF 		bl	sduConfigureHookI
 140              	.LVL13:
 141              	.LBB65:
 142              	.LBB66:
 143              	.LBB67:
 144              	.LBB68:
 145              	.LBB69:
 146              		.loc 2 546 0
 147 0028 0023     		movs	r3, #0
 148              		.syntax unified
 149              	@ 546 "src/ChibiOS_3.0.2/os/ext/CMSIS/include/core_cmFunc.h" 1
 150 002a 83F31188 		MSR basepri, r3
 151              	@ 0 "" 2
 152              	.LVL14:
 153              		.thumb
 154              		.syntax unified
 155 002e 38BD     		pop	{r3, r4, r5, pc}
 156              	.LVL15:
 157              	.L15:
 158              		.cfi_def_cfa_offset 0
 159              		.cfi_restore 3
 160              		.cfi_restore 4
 161              		.cfi_restore 5
 162              		.cfi_restore 14
 163 0030 7047     		bx	lr
 164              	.L17:
 165 0032 00BF     		.align	2
 166              	.L16:
 167 0034 00000000 		.word	.LANCHOR3
 168 0038 00000000 		.word	.LANCHOR4
 169 003c 00000000 		.word	.LANCHOR5
 170              	.LBE69:
 171              	.LBE68:
ARM GAS  C:\Users\IDONNO~1\AppData\Local\Temp\ccYD79C6.s 			page 4


 172              	.LBE67:
 173              	.LBE66:
 174              	.LBE65:
 175              	.LBE59:
 176              	.LBE58:
 177              		.cfi_endproc
 178              	.LFE257:
 179              		.size	usb_event, .-usb_event
 180              		.section	.text.comm_usb_serial_init,"ax",%progbits
 181              		.align	2
 182              		.p2align 4,,15
 183              		.global	comm_usb_serial_init
 184              		.thumb
 185              		.thumb_func
 186              		.type	comm_usb_serial_init, %function
 187              	comm_usb_serial_init:
 188              	.LFB258:
 189              		.loc 1 306 0
 190              		.cfi_startproc
 191              		@ args = 0, pretend = 0, frame = 0
 192              		@ frame_needed = 0, uses_anonymous_args = 0
 193 0000 38B5     		push	{r3, r4, r5, lr}
 194              		.cfi_def_cfa_offset 16
 195              		.cfi_offset 3, -16
 196              		.cfi_offset 4, -12
 197              		.cfi_offset 5, -8
 198              		.cfi_offset 14, -4
 199              		.loc 1 307 0
 200 0002 0E4D     		ldr	r5, .L20
 201              		.loc 1 315 0
 202 0004 0E4C     		ldr	r4, .L20+4
 203              		.loc 1 307 0
 204 0006 2846     		mov	r0, r5
 205 0008 FFF7FEFF 		bl	sduObjectInit
 206              	.LVL16:
 207              		.loc 1 308 0
 208 000c 0D49     		ldr	r1, .L20+8
 209 000e 2846     		mov	r0, r5
 210 0010 FFF7FEFF 		bl	sduStart
 211              	.LVL17:
 212              		.loc 1 315 0
 213 0014 226D     		ldr	r2, [r4, #80]
 214 0016 936B     		ldr	r3, [r2, #56]
 215 0018 23F40023 		bic	r3, r3, #524288
 216 001c 9363     		str	r3, [r2, #56]
 217              		.loc 1 316 0
 218 001e 43F69820 		movw	r0, #15000
 219 0022 FFF7FEFF 		bl	chThdSleep
 220              	.LVL18:
 221              		.loc 1 317 0
 222 0026 2046     		mov	r0, r4
 223 0028 0749     		ldr	r1, .L20+12
 224 002a FFF7FEFF 		bl	usbStart
 225              	.LVL19:
 226              		.loc 1 318 0
 227 002e 226D     		ldr	r2, [r4, #80]
 228 0030 936B     		ldr	r3, [r2, #56]
ARM GAS  C:\Users\IDONNO~1\AppData\Local\Temp\ccYD79C6.s 			page 5


 229 0032 43F40023 		orr	r3, r3, #524288
 230 0036 9363     		str	r3, [r2, #56]
 231 0038 38BD     		pop	{r3, r4, r5, pc}
 232              	.L21:
 233 003a 00BF     		.align	2
 234              	.L20:
 235 003c 00000000 		.word	.LANCHOR5
 236 0040 00000000 		.word	USBD1
 237 0044 00000000 		.word	.LANCHOR6
 238 0048 00000000 		.word	.LANCHOR7
 239              		.cfi_endproc
 240              	.LFE258:
 241              		.size	comm_usb_serial_init, .-comm_usb_serial_init
 242              		.section	.text.comm_usb_serial_is_active,"ax",%progbits
 243              		.align	2
 244              		.p2align 4,,15
 245              		.global	comm_usb_serial_is_active
 246              		.thumb
 247              		.thumb_func
 248              		.type	comm_usb_serial_is_active, %function
 249              	comm_usb_serial_is_active:
 250              	.LFB259:
 251              		.loc 1 321 0
 252              		.cfi_startproc
 253              		@ args = 0, pretend = 0, frame = 0
 254              		@ frame_needed = 0, uses_anonymous_args = 0
 255              		@ link register save eliminated.
 256              		.loc 1 322 0
 257 0000 054B     		ldr	r3, .L23
 258 0002 D3F85432 		ldr	r3, [r3, #596]
 259 0006 1B68     		ldr	r3, [r3]
 260 0008 1878     		ldrb	r0, [r3]	@ zero_extendqisi2
 261              		.loc 1 323 0
 262 000a A0F10400 		sub	r0, #4
 263 000e B0FA80F0 		clz	r0, r0
 264 0012 4009     		lsrs	r0, r0, #5
 265 0014 7047     		bx	lr
 266              	.L24:
 267 0016 00BF     		.align	2
 268              	.L23:
 269 0018 00000000 		.word	.LANCHOR5
 270              		.cfi_endproc
 271              	.LFE259:
 272              		.size	comm_usb_serial_is_active, .-comm_usb_serial_is_active
 273              		.global	serusbcfg
 274              		.global	SDU1
 275              		.section	.rodata.ep1config,"a",%progbits
 276              		.align	2
 277              		.set	.LANCHOR3,. + 0
 278              		.type	ep1config, %object
 279              		.size	ep1config, 36
 280              	ep1config:
 281 0000 02000000 		.word	2
 282 0004 00000000 		.word	0
 283 0008 00000000 		.word	sduDataTransmitted
 284 000c 00000000 		.word	sduDataReceived
 285 0010 4000     		.short	64
ARM GAS  C:\Users\IDONNO~1\AppData\Local\Temp\ccYD79C6.s 			page 6


 286 0012 4000     		.short	64
 287 0014 00000000 		.word	ep1instate
 288 0018 00000000 		.word	ep1outstate
 289 001c 0200     		.short	2
 290 001e 0000     		.space	2
 291 0020 00000000 		.word	0
 292              		.section	.bss.ep2instate,"aw",%nobits
 293              		.align	2
 294              		.type	ep2instate, %object
 295              		.size	ep2instate, 20
 296              	ep2instate:
 297 0000 00000000 		.space	20
 297      00000000 
 297      00000000 
 297      00000000 
 297      00000000 
 298              		.section	.bss.SDU1,"aw",%nobits
 299              		.align	2
 300              		.set	.LANCHOR5,. + 0
 301              		.type	SDU1, %object
 302              		.size	SDU1, 600
 303              	SDU1:
 304 0000 00000000 		.space	600
 304      00000000 
 304      00000000 
 304      00000000 
 304      00000000 
 305              		.section	.bss.ep1instate,"aw",%nobits
 306              		.align	2
 307              		.type	ep1instate, %object
 308              		.size	ep1instate, 20
 309              	ep1instate:
 310 0000 00000000 		.space	20
 310      00000000 
 310      00000000 
 310      00000000 
 310      00000000 
 311              		.section	.rodata.vcom_configuration_descriptor,"a",%progbits
 312              		.align	2
 313              		.set	.LANCHOR1,. + 0
 314              		.type	vcom_configuration_descriptor, %object
 315              		.size	vcom_configuration_descriptor, 8
 316              	vcom_configuration_descriptor:
 317 0000 43000000 		.word	67
 318 0004 00000000 		.word	vcom_configuration_descriptor_data
 319              		.section	.rodata.ep2config,"a",%progbits
 320              		.align	2
 321              		.set	.LANCHOR4,. + 0
 322              		.type	ep2config, %object
 323              		.size	ep2config, 36
 324              	ep2config:
 325 0000 03000000 		.word	3
 326 0004 00000000 		.word	0
 327 0008 00000000 		.word	sduInterruptTransmitted
 328 000c 00000000 		.word	0
 329 0010 1000     		.short	16
 330 0012 0000     		.short	0
ARM GAS  C:\Users\IDONNO~1\AppData\Local\Temp\ccYD79C6.s 			page 7


 331 0014 00000000 		.word	ep2instate
 332 0018 00000000 		.word	0
 333 001c 0100     		.short	1
 334 001e 0000     		.space	2
 335 0020 00000000 		.word	0
 336              		.section	.rodata.usbcfg,"a",%progbits
 337              		.align	2
 338              		.set	.LANCHOR7,. + 0
 339              		.type	usbcfg, %object
 340              		.size	usbcfg, 16
 341              	usbcfg:
 342 0000 00000000 		.word	usb_event
 343 0004 00000000 		.word	get_descriptor
 344 0008 00000000 		.word	sduRequestsHook
 345 000c 00000000 		.word	0
 346              		.section	.rodata.vcom_configuration_descriptor_data,"a",%progbits
 347              		.align	2
 348              		.type	vcom_configuration_descriptor_data, %object
 349              		.size	vcom_configuration_descriptor_data, 67
 350              	vcom_configuration_descriptor_data:
 351 0000 09       		.byte	9
 352 0001 02       		.byte	2
 353 0002 43       		.byte	67
 354 0003 00       		.byte	0
 355 0004 02       		.byte	2
 356 0005 01       		.byte	1
 357 0006 00       		.byte	0
 358 0007 C0       		.byte	-64
 359 0008 32       		.byte	50
 360 0009 09       		.byte	9
 361 000a 04       		.byte	4
 362 000b 00       		.byte	0
 363 000c 00       		.byte	0
 364 000d 01       		.byte	1
 365 000e 02       		.byte	2
 366 000f 02       		.byte	2
 367 0010 01       		.byte	1
 368 0011 00       		.byte	0
 369 0012 05       		.byte	5
 370 0013 24       		.byte	36
 371 0014 00       		.byte	0
 372 0015 10       		.byte	16
 373 0016 01       		.byte	1
 374 0017 05       		.byte	5
 375 0018 24       		.byte	36
 376 0019 01       		.byte	1
 377 001a 00       		.byte	0
 378 001b 01       		.byte	1
 379 001c 04       		.byte	4
 380 001d 24       		.byte	36
 381 001e 02       		.byte	2
 382 001f 02       		.byte	2
 383 0020 05       		.byte	5
 384 0021 24       		.byte	36
 385 0022 06       		.byte	6
 386 0023 00       		.byte	0
 387 0024 01       		.byte	1
ARM GAS  C:\Users\IDONNO~1\AppData\Local\Temp\ccYD79C6.s 			page 8


 388 0025 07       		.byte	7
 389 0026 05       		.byte	5
 390 0027 82       		.byte	-126
 391 0028 03       		.byte	3
 392 0029 08       		.byte	8
 393 002a 00       		.byte	0
 394 002b FF       		.byte	-1
 395 002c 09       		.byte	9
 396 002d 04       		.byte	4
 397 002e 01       		.byte	1
 398 002f 00       		.byte	0
 399 0030 02       		.byte	2
 400 0031 0A       		.byte	10
 401 0032 00       		.byte	0
 402 0033 00       		.byte	0
 403 0034 00       		.byte	0
 404 0035 07       		.byte	7
 405 0036 05       		.byte	5
 406 0037 01       		.byte	1
 407 0038 02       		.byte	2
 408 0039 40       		.byte	64
 409 003a 00       		.byte	0
 410 003b 00       		.byte	0
 411 003c 07       		.byte	7
 412 003d 05       		.byte	5
 413 003e 81       		.byte	-127
 414 003f 02       		.byte	2
 415 0040 40       		.byte	64
 416 0041 00       		.byte	0
 417 0042 00       		.byte	0
 418              		.section	.rodata.vcom_device_descriptor_data,"a",%progbits
 419              		.align	2
 420              		.type	vcom_device_descriptor_data, %object
 421              		.size	vcom_device_descriptor_data, 18
 422              	vcom_device_descriptor_data:
 423 0000 12       		.byte	18
 424 0001 01       		.byte	1
 425 0002 10       		.byte	16
 426 0003 01       		.byte	1
 427 0004 02       		.byte	2
 428 0005 00       		.byte	0
 429 0006 00       		.byte	0
 430 0007 40       		.byte	64
 431 0008 83       		.byte	-125
 432 0009 04       		.byte	4
 433 000a 40       		.byte	64
 434 000b 57       		.byte	87
 435 000c 00       		.byte	0
 436 000d 02       		.byte	2
 437 000e 01       		.byte	1
 438 000f 02       		.byte	2
 439 0010 03       		.byte	3
 440 0011 01       		.byte	1
 441              		.section	.bss.ep1outstate,"aw",%nobits
 442              		.align	2
 443              		.type	ep1outstate, %object
 444              		.size	ep1outstate, 20
ARM GAS  C:\Users\IDONNO~1\AppData\Local\Temp\ccYD79C6.s 			page 9


 445              	ep1outstate:
 446 0000 00000000 		.space	20
 446      00000000 
 446      00000000 
 446      00000000 
 446      00000000 
 447              		.section	.rodata.vcom_string0,"a",%progbits
 448              		.align	2
 449              		.type	vcom_string0, %object
 450              		.size	vcom_string0, 4
 451              	vcom_string0:
 452 0000 04       		.byte	4
 453 0001 03       		.byte	3
 454 0002 09       		.byte	9
 455 0003 04       		.byte	4
 456              		.section	.rodata.vcom_string1,"a",%progbits
 457              		.align	2
 458              		.type	vcom_string1, %object
 459              		.size	vcom_string1, 38
 460              	vcom_string1:
 461 0000 26       		.byte	38
 462 0001 03       		.byte	3
 463 0002 53       		.byte	83
 464 0003 00       		.byte	0
 465 0004 54       		.byte	84
 466 0005 00       		.byte	0
 467 0006 4D       		.byte	77
 468 0007 00       		.byte	0
 469 0008 69       		.byte	105
 470 0009 00       		.byte	0
 471 000a 63       		.byte	99
 472 000b 00       		.byte	0
 473 000c 72       		.byte	114
 474 000d 00       		.byte	0
 475 000e 6F       		.byte	111
 476 000f 00       		.byte	0
 477 0010 65       		.byte	101
 478 0011 00       		.byte	0
 479 0012 6C       		.byte	108
 480 0013 00       		.byte	0
 481 0014 65       		.byte	101
 482 0015 00       		.byte	0
 483 0016 63       		.byte	99
 484 0017 00       		.byte	0
 485 0018 74       		.byte	116
 486 0019 00       		.byte	0
 487 001a 72       		.byte	114
 488 001b 00       		.byte	0
 489 001c 6F       		.byte	111
 490 001d 00       		.byte	0
 491 001e 6E       		.byte	110
 492 001f 00       		.byte	0
 493 0020 69       		.byte	105
 494 0021 00       		.byte	0
 495 0022 63       		.byte	99
 496 0023 00       		.byte	0
 497 0024 73       		.byte	115
ARM GAS  C:\Users\IDONNO~1\AppData\Local\Temp\ccYD79C6.s 			page 10


 498 0025 00       		.byte	0
 499              		.section	.rodata.vcom_string2,"a",%progbits
 500              		.align	2
 501              		.type	vcom_string2, %object
 502              		.size	vcom_string2, 56
 503              	vcom_string2:
 504 0000 38       		.byte	56
 505 0001 03       		.byte	3
 506 0002 43       		.byte	67
 507 0003 00       		.byte	0
 508 0004 68       		.byte	104
 509 0005 00       		.byte	0
 510 0006 69       		.byte	105
 511 0007 00       		.byte	0
 512 0008 62       		.byte	98
 513 0009 00       		.byte	0
 514 000a 69       		.byte	105
 515 000b 00       		.byte	0
 516 000c 4F       		.byte	79
 517 000d 00       		.byte	0
 518 000e 53       		.byte	83
 519 000f 00       		.byte	0
 520 0010 2F       		.byte	47
 521 0011 00       		.byte	0
 522 0012 52       		.byte	82
 523 0013 00       		.byte	0
 524 0014 54       		.byte	84
 525 0015 00       		.byte	0
 526 0016 20       		.byte	32
 527 0017 00       		.byte	0
 528 0018 56       		.byte	86
 529 0019 00       		.byte	0
 530 001a 69       		.byte	105
 531 001b 00       		.byte	0
 532 001c 72       		.byte	114
 533 001d 00       		.byte	0
 534 001e 74       		.byte	116
 535 001f 00       		.byte	0
 536 0020 75       		.byte	117
 537 0021 00       		.byte	0
 538 0022 61       		.byte	97
 539 0023 00       		.byte	0
 540 0024 6C       		.byte	108
 541 0025 00       		.byte	0
 542 0026 20       		.byte	32
 543 0027 00       		.byte	0
 544 0028 43       		.byte	67
 545 0029 00       		.byte	0
 546 002a 4F       		.byte	79
 547 002b 00       		.byte	0
 548 002c 4D       		.byte	77
 549 002d 00       		.byte	0
 550 002e 20       		.byte	32
 551 002f 00       		.byte	0
 552 0030 50       		.byte	80
 553 0031 00       		.byte	0
 554 0032 6F       		.byte	111
ARM GAS  C:\Users\IDONNO~1\AppData\Local\Temp\ccYD79C6.s 			page 11


 555 0033 00       		.byte	0
 556 0034 72       		.byte	114
 557 0035 00       		.byte	0
 558 0036 74       		.byte	116
 559 0037 00       		.byte	0
 560              		.section	.rodata.vcom_string3,"a",%progbits
 561              		.align	2
 562              		.type	vcom_string3, %object
 563              		.size	vcom_string3, 8
 564              	vcom_string3:
 565 0000 08       		.byte	8
 566 0001 03       		.byte	3
 567 0002 33       		.byte	51
 568 0003 00       		.byte	0
 569 0004 30       		.byte	48
 570 0005 00       		.byte	0
 571 0006 31       		.byte	49
 572 0007 00       		.byte	0
 573              		.section	.rodata.vcom_strings,"a",%progbits
 574              		.align	2
 575              		.set	.LANCHOR2,. + 0
 576              		.type	vcom_strings, %object
 577              		.size	vcom_strings, 32
 578              	vcom_strings:
 579 0000 04000000 		.word	4
 580 0004 00000000 		.word	vcom_string0
 581 0008 26000000 		.word	38
 582 000c 00000000 		.word	vcom_string1
 583 0010 38000000 		.word	56
 584 0014 00000000 		.word	vcom_string2
 585 0018 08000000 		.word	8
 586 001c 00000000 		.word	vcom_string3
 587              		.section	.rodata.serusbcfg,"a",%progbits
 588              		.align	2
 589              		.set	.LANCHOR6,. + 0
 590              		.type	serusbcfg, %object
 591              		.size	serusbcfg, 8
 592              	serusbcfg:
 593 0000 00000000 		.word	USBD1
 594 0004 01       		.byte	1
 595 0005 01       		.byte	1
 596 0006 02       		.byte	2
 597 0007 00       		.space	1
 598              		.section	.rodata.vcom_device_descriptor,"a",%progbits
 599              		.align	2
 600              		.set	.LANCHOR0,. + 0
 601              		.type	vcom_device_descriptor, %object
 602              		.size	vcom_device_descriptor, 8
 603              	vcom_device_descriptor:
 604 0000 12000000 		.word	18
 605 0004 00000000 		.word	vcom_device_descriptor_data
 606              		.text
 607              	.Letext0:
 608              		.file 3 "c:\\program files (x86)\\gnu tools arm embedded\\5.4 2016q3\\lib\\gcc\\arm-none-eabi\\5.4
 609              		.file 4 "c:\\program files (x86)\\gnu tools arm embedded\\5.4 2016q3\\arm-none-eabi\\include\\mach
 610              		.file 5 "c:\\program files (x86)\\gnu tools arm embedded\\5.4 2016q3\\arm-none-eabi\\include\\sys\
 611              		.file 6 "src/ChibiOS_3.0.2/os/rt/ports/ARMCMx/compilers/GCC/chtypes.h"
ARM GAS  C:\Users\IDONNO~1\AppData\Local\Temp\ccYD79C6.s 			page 12


 612              		.file 7 "src/ChibiOS_3.0.2/os/rt/include/chsystypes.h"
 613              		.file 8 "src/ChibiOS_3.0.2/os/rt/include/chschd.h"
 614              		.file 9 "src/ChibiOS_3.0.2/os/rt/ports/ARMCMx/chcore.h"
 615              		.file 10 "src/ChibiOS_3.0.2/os/rt/ports/ARMCMx/chcore_v7m.h"
 616              		.file 11 "src/ChibiOS_3.0.2/os/rt/include/chtm.h"
 617              		.file 12 "src/ChibiOS_3.0.2/os/rt/include/chsem.h"
 618              		.file 13 "src/ChibiOS_3.0.2/os/rt/include/chmtx.h"
 619              		.file 14 "src/ChibiOS_3.0.2/os/rt/include/chevents.h"
 620              		.file 15 "src/ChibiOS_3.0.2/os/rt/include/chqueues.h"
 621              		.file 16 "src/ChibiOS_3.0.2/os/hal/include/usb.h"
 622              		.file 17 "src/ChibiOS_3.0.2/os/hal/ports/STM32/LLD/OTGv1/usb_lld.h"
 623              		.file 18 "src/ChibiOS_3.0.2/os/hal/ports/STM32/LLD/OTGv1/stm32_otg.h"
 624              		.file 19 "src/ChibiOS_3.0.2/os/hal/include/serial_usb.h"
 625              		.file 20 "src/ChibiOS_3.0.2/os/rt/include/chsys.h"
 626              		.file 21 "src/ChibiOS_3.0.2/os/ext/CMSIS/include/core_cm4.h"
 627              		.file 22 "src/ChibiOS_3.0.2/os/rt/include/chthreads.h"