ARM GAS  C:\Users\IDONNO~1\AppData\Local\Temp\ccYHOdRg.s 			page 1


   1              		.syntax unified
   2              		.cpu cortex-m4
   3              		.eabi_attribute 27, 1
   4              		.eabi_attribute 28, 1
   5              		.fpu fpv4-sp-d16
   6              		.eabi_attribute 20, 1
   7              		.eabi_attribute 21, 1
   8              		.eabi_attribute 23, 3
   9              		.eabi_attribute 24, 1
  10              		.eabi_attribute 25, 1
  11              		.eabi_attribute 26, 1
  12              		.eabi_attribute 30, 2
  13              		.eabi_attribute 34, 1
  14              		.eabi_attribute 18, 4
  15              		.thumb
  16              		.syntax unified
  17              		.file	"comm_usb.c"
  18              		.text
  19              	.Ltext0:
  20              		.cfi_sections	.debug_frame
  21              		.section	.text.serial_read_thread,"ax",%progbits
  22              		.align	2
  23              		.p2align 4,,15
  24              		.thumb
  25              		.thumb_func
  26              		.type	serial_read_thread, %function
  27              	serial_read_thread:
  28              	.LFB408:
  29              		.file 1 "src/core/comm_usb.c"
  30              		.loc 1 66 0
  31              		.cfi_startproc
  32              		@ args = 0, pretend = 0, frame = 128
  33              		@ frame_needed = 0, uses_anonymous_args = 0
  34              	.LVL0:
  35 0000 2DE9F043 		push	{r4, r5, r6, r7, r8, r9, lr}
  36              		.cfi_def_cfa_offset 28
  37              		.cfi_offset 4, -28
  38              		.cfi_offset 5, -24
  39              		.cfi_offset 6, -20
  40              		.cfi_offset 7, -16
  41              		.cfi_offset 8, -12
  42              		.cfi_offset 9, -8
  43              		.cfi_offset 14, -4
  44              	.LBB12:
  45              	.LBB13:
  46              		.file 2 "src/ChibiOS_3.0.2/os/rt/include/chregistry.h"
  47              		.loc 2 135 0
  48 0004 154B     		ldr	r3, .L11
  49 0006 164A     		ldr	r2, .L11+4
  50 0008 9B69     		ldr	r3, [r3, #24]
  51 000a 164F     		ldr	r7, .L11+8
  52 000c 164E     		ldr	r6, .L11+12
  53 000e DFF85C90 		ldr	r9, .L11+16
  54 0012 DFF85C80 		ldr	r8, .L11+20
  55 0016 9A61     		str	r2, [r3, #24]
  56              	.LVL1:
  57              	.LBE13:
ARM GAS  C:\Users\IDONNO~1\AppData\Local\Temp\ccYHOdRg.s 			page 2


  58              	.LBE12:
  59              		.loc 1 66 0
  60 0018 A1B0     		sub	sp, sp, #132
  61              		.cfi_def_cfa_offset 160
  62              	.LVL2:
  63              	.L2:
  64              		.loc 1 78 0
  65 001a 3B68     		ldr	r3, [r7]
  66 001c 1148     		ldr	r0, .L11+8
  67 001e 5B68     		ldr	r3, [r3, #4]
  68 0020 0122     		movs	r2, #1
  69 0022 6946     		mov	r1, sp
  70 0024 9847     		blx	r3
  71              	.LVL3:
  72              		.loc 1 80 0
  73 0026 0028     		cmp	r0, #0
  74 0028 F7DD     		ble	.L2
  75 002a 3368     		ldr	r3, [r6]
  76 002c 0DF1FF34 		add	r4, sp, #-1
  77 0030 0022     		movs	r2, #0
  78              	.LVL4:
  79              	.L4:
  80              		.loc 1 82 0
  81 0032 591C     		adds	r1, r3, #1
  82              		.loc 1 84 0
  83 0034 B1F5006F 		cmp	r1, #2048
  84              		.loc 1 80 0
  85 0038 02F10102 		add	r2, r2, #1
  86              	.LVL5:
  87              		.loc 1 82 0
  88 003c 14F8015F 		ldrb	r5, [r4, #1]!	@ zero_extendqisi2
  89 0040 09F80350 		strb	r5, [r9, r3]
  90              		.loc 1 84 0
  91 0044 14BF     		ite	ne
  92 0046 0B46     		movne	r3, r1
  93 0048 0023     		moveq	r3, #0
  94              	.LVL6:
  95              		.loc 1 80 0
  96 004a 9042     		cmp	r0, r2
  97 004c F1DC     		bgt	.L4
  98              		.loc 1 94 0
  99 004e 0121     		movs	r1, #1
 100 0050 D8F80000 		ldr	r0, [r8]
 101              	.LVL7:
 102 0054 3360     		str	r3, [r6]
 103 0056 FFF7FEFF 		bl	chEvtSignal
 104              	.LVL8:
 105 005a DEE7     		b	.L2
 106              	.L12:
 107              		.align	2
 108              	.L11:
 109 005c 00000000 		.word	ch
 110 0060 00000000 		.word	.LC0
 111 0064 00000000 		.word	SDU1
 112 0068 00000000 		.word	.LANCHOR0
 113 006c 00000000 		.word	.LANCHOR1
 114 0070 00000000 		.word	.LANCHOR2
ARM GAS  C:\Users\IDONNO~1\AppData\Local\Temp\ccYHOdRg.s 			page 3


 115              		.cfi_endproc
 116              	.LFE408:
 117              		.size	serial_read_thread, .-serial_read_thread
 118              		.section	.text.serial_write_thread,"ax",%progbits
 119              		.align	2
 120              		.p2align 4,,15
 121              		.thumb
 122              		.thumb_func
 123              		.type	serial_write_thread, %function
 124              	serial_write_thread:
 125              	.LFB410:
 126              		.loc 1 127 0
 127              		.cfi_startproc
 128              		@ Volatile: function does not return.
 129              		@ args = 0, pretend = 0, frame = 0
 130              		@ frame_needed = 0, uses_anonymous_args = 0
 131              	.LVL9:
 132              	.LBB14:
 133              	.LBB15:
 134              		.loc 2 135 0
 135 0000 144B     		ldr	r3, .L20
 136              	.LBE15:
 137              	.LBE14:
 138              		.loc 1 132 0
 139 0002 154A     		ldr	r2, .L20+4
 140              	.LBB18:
 141              	.LBB16:
 142              		.loc 2 135 0
 143 0004 9B69     		ldr	r3, [r3, #24]
 144 0006 154C     		ldr	r4, .L20+8
 145 0008 1549     		ldr	r1, .L20+12
 146 000a DFF85C80 		ldr	r8, .L20+20
 147 000e DFF85CA0 		ldr	r10, .L20+24
 148 0012 144D     		ldr	r5, .L20+16
 149              	.LBE16:
 150              	.LBE18:
 151              		.loc 1 127 0
 152 0014 80B5     		push	{r7, lr}
 153              		.cfi_def_cfa_offset 8
 154              		.cfi_offset 7, -8
 155              		.cfi_offset 14, -4
 156              		.loc 1 142 0
 157 0016 A146     		mov	r9, r4
 158              	.LBB19:
 159              	.LBB17:
 160              		.loc 2 135 0
 161 0018 9961     		str	r1, [r3, #24]
 162              	.LVL10:
 163              	.LBE17:
 164              	.LBE19:
 165              		.loc 1 132 0
 166 001a 1360     		str	r3, [r2]
 167              	.LVL11:
 168              	.L17:
 169              		.loc 1 136 0
 170 001c 0120     		movs	r0, #1
 171 001e FFF7FEFF 		bl	chEvtWaitAny
ARM GAS  C:\Users\IDONNO~1\AppData\Local\Temp\ccYHOdRg.s 			page 4


 172              	.LVL12:
 173              	.L14:
 174 0022 2368     		ldr	r3, [r4]
 175              	.L15:
 176              		.loc 1 140 0
 177 0024 2F68     		ldr	r7, [r5]
 178              		.loc 1 142 0
 179 0026 1048     		ldr	r0, .L20+20
 180              		.loc 1 140 0
 181 0028 9F42     		cmp	r7, r3
 182              		.loc 1 142 0
 183 002a 03F10106 		add	r6, r3, #1
 184 002e 0AEB0301 		add	r1, r10, r3
 185 0032 4FF00102 		mov	r2, #1
 186              		.loc 1 140 0
 187 0036 F1D0     		beq	.L17
 188              		.loc 1 142 0
 189 0038 D8F80030 		ldr	r3, [r8]
 190 003c 2660     		str	r6, [r4]
 191 003e 1B68     		ldr	r3, [r3]
 192 0040 9847     		blx	r3
 193              	.LVL13:
 194              		.loc 1 144 0
 195 0042 2368     		ldr	r3, [r4]
 196 0044 B3F5006F 		cmp	r3, #2048
 197 0048 ECD1     		bne	.L15
 198              		.loc 1 146 0
 199 004a 0023     		movs	r3, #0
 200 004c C9F80030 		str	r3, [r9]
 201 0050 E7E7     		b	.L14
 202              	.L21:
 203 0052 00BF     		.align	2
 204              	.L20:
 205 0054 00000000 		.word	ch
 206 0058 00000000 		.word	.LANCHOR3
 207 005c 00000000 		.word	.LANCHOR4
 208 0060 10000000 		.word	.LC1
 209 0064 00000000 		.word	.LANCHOR6
 210 0068 00000000 		.word	SDU1
 211 006c 00000000 		.word	.LANCHOR5
 212              		.cfi_endproc
 213              	.LFE410:
 214              		.size	serial_write_thread, .-serial_write_thread
 215              		.section	.text.serial_process_thread,"ax",%progbits
 216              		.align	2
 217              		.p2align 4,,15
 218              		.thumb
 219              		.thumb_func
 220              		.type	serial_process_thread, %function
 221              	serial_process_thread:
 222              	.LFB409:
 223              		.loc 1 100 0
 224              		.cfi_startproc
 225              		@ Volatile: function does not return.
 226              		@ args = 0, pretend = 0, frame = 0
 227              		@ frame_needed = 0, uses_anonymous_args = 0
 228              	.LVL14:
ARM GAS  C:\Users\IDONNO~1\AppData\Local\Temp\ccYHOdRg.s 			page 5


 229              	.LBB20:
 230              	.LBB21:
 231              		.loc 2 135 0
 232 0000 164B     		ldr	r3, .L34
 233              	.LBE21:
 234              	.LBE20:
 235              		.loc 1 105 0
 236 0002 174A     		ldr	r2, .L34+4
 237              	.LBB24:
 238              	.LBB22:
 239              		.loc 2 135 0
 240 0004 9B69     		ldr	r3, [r3, #24]
 241 0006 174C     		ldr	r4, .L34+8
 242 0008 1749     		ldr	r1, .L34+12
 243 000a 184E     		ldr	r6, .L34+16
 244              	.LBE22:
 245              	.LBE24:
 246              		.loc 1 100 0
 247 000c 80B5     		push	{r7, lr}
 248              		.cfi_def_cfa_offset 8
 249              		.cfi_offset 7, -8
 250              		.cfi_offset 14, -4
 251 000e 184F     		ldr	r7, .L34+20
 252              	.LBB25:
 253              	.LBB23:
 254              		.loc 2 135 0
 255 0010 9961     		str	r1, [r3, #24]
 256              	.LVL15:
 257              	.LBE23:
 258              	.LBE25:
 259              		.loc 1 105 0
 260 0012 1360     		str	r3, [r2]
 261              		.loc 1 118 0
 262 0014 A146     		mov	r9, r4
 263              	.LVL16:
 264              	.L27:
 265              		.loc 1 108 0
 266 0016 0120     		movs	r0, #1
 267 0018 FFF7FEFF 		bl	chEvtWaitAny
 268              	.LVL17:
 269              		.loc 1 113 0
 270 001c 4FF00008 		mov	r8, #0
 271              	.L23:
 272 0020 2368     		ldr	r3, [r4]
 273 0022 03E0     		b	.L25
 274              	.L24:
 275              		.loc 1 118 0
 276 0024 2368     		ldr	r3, [r4]
 277 0026 B3F5006F 		cmp	r3, #2048
 278 002a 14D0     		beq	.L33
 279              	.L25:
 280              		.loc 1 110 0
 281 002c 3168     		ldr	r1, [r6]
 282              		.loc 1 113 0
 283 002e 114A     		ldr	r2, .L34+24
 284              		.loc 1 110 0
 285 0030 9942     		cmp	r1, r3
ARM GAS  C:\Users\IDONNO~1\AppData\Local\Temp\ccYHOdRg.s 			page 6


 286              		.loc 1 113 0
 287 0032 03F10105 		add	r5, r3, #1
 288 0036 4FF00000 		mov	r0, #0
 289              		.loc 1 110 0
 290 003a ECD0     		beq	.L27
 291              		.loc 1 113 0
 292 003c F95C     		ldrb	r1, [r7, r3]	@ zero_extendqisi2
 293 003e 2560     		str	r5, [r4]
 294 0040 FFF7FEFF 		bl	mavlink_msg_recv
 295              	.LVL18:
 296 0044 0028     		cmp	r0, #0
 297 0046 EDD0     		beq	.L24
 298              		.loc 1 115 0
 299 0048 0A48     		ldr	r0, .L34+24
 300 004a FFF7FEFF 		bl	mavlink_msg_process_vcp
 301              	.LVL19:
 302              		.loc 1 118 0
 303 004e 2368     		ldr	r3, [r4]
 304 0050 B3F5006F 		cmp	r3, #2048
 305 0054 EAD1     		bne	.L25
 306              	.L33:
 307              		.loc 1 120 0
 308 0056 C9F80080 		str	r8, [r9]
 309 005a E1E7     		b	.L23
 310              	.L35:
 311              		.align	2
 312              	.L34:
 313 005c 00000000 		.word	ch
 314 0060 00000000 		.word	.LANCHOR2
 315 0064 00000000 		.word	.LANCHOR7
 316 0068 24000000 		.word	.LC2
 317 006c 00000000 		.word	.LANCHOR0
 318 0070 00000000 		.word	.LANCHOR1
 319 0074 00000000 		.word	gMsg
 320              		.cfi_endproc
 321              	.LFE409:
 322              		.size	serial_process_thread, .-serial_process_thread
 323              		.section	.text.usb_serial_send,"ax",%progbits
 324              		.align	2
 325              		.p2align 4,,15
 326              		.global	usb_serial_send
 327              		.thumb
 328              		.thumb_func
 329              		.type	usb_serial_send, %function
 330              	usb_serial_send:
 331              	.LFB411:
 332              		.loc 1 155 0
 333              		.cfi_startproc
 334              		@ args = 0, pretend = 0, frame = 0
 335              		@ frame_needed = 0, uses_anonymous_args = 0
 336              		@ link register save eliminated.
 337              	.LVL20:
 338              		.loc 1 159 0
 339 0000 C9B1     		cbz	r1, .L44
 340              		.loc 1 155 0
 341 0002 70B4     		push	{r4, r5, r6}
 342              		.cfi_def_cfa_offset 12
ARM GAS  C:\Users\IDONNO~1\AppData\Local\Temp\ccYHOdRg.s 			page 7


 343              		.cfi_offset 4, -12
 344              		.cfi_offset 5, -8
 345              		.cfi_offset 6, -4
 346 0004 0C4E     		ldr	r6, .L45
 347 0006 0D4D     		ldr	r5, .L45+4
 348 0008 3368     		ldr	r3, [r6]
 349 000a 0139     		subs	r1, r1, #1
 350              	.LVL21:
 351 000c 10FA81F1 		uxtah	r1, r0, r1
 352 0010 0138     		subs	r0, r0, #1
 353              	.LVL22:
 354              	.L39:
 355              		.loc 1 161 0
 356 0012 5A1C     		adds	r2, r3, #1
 357 0014 10F8014F 		ldrb	r4, [r0, #1]!	@ zero_extendqisi2
 358              	.LVL23:
 359 0018 EC54     		strb	r4, [r5, r3]
 360              		.loc 1 163 0
 361 001a B2F5006F 		cmp	r2, #2048
 362 001e 14BF     		ite	ne
 363 0020 1346     		movne	r3, r2
 364 0022 0023     		moveq	r3, #0
 365              	.LVL24:
 366              		.loc 1 159 0
 367 0024 8842     		cmp	r0, r1
 368 0026 F4D1     		bne	.L39
 369              		.loc 1 173 0
 370 0028 054A     		ldr	r2, .L45+8
 371 002a 3360     		str	r3, [r6]
 372 002c 1068     		ldr	r0, [r2]
 373              	.LVL25:
 374 002e 0121     		movs	r1, #1
 375              		.loc 1 176 0
 376 0030 70BC     		pop	{r4, r5, r6}
 377              		.cfi_restore 6
 378              		.cfi_restore 5
 379              		.cfi_restore 4
 380              		.cfi_def_cfa_offset 0
 381              		.loc 1 173 0
 382 0032 FFF7FEBF 		b	chEvtSignal
 383              	.LVL26:
 384              	.L44:
 385 0036 7047     		bx	lr
 386              	.L46:
 387              		.align	2
 388              	.L45:
 389 0038 00000000 		.word	.LANCHOR6
 390 003c 00000000 		.word	.LANCHOR5
 391 0040 00000000 		.word	.LANCHOR3
 392              		.cfi_endproc
 393              	.LFE411:
 394              		.size	usb_serial_send, .-usb_serial_send
 395              		.section	.text.comm_usb_init,"ax",%progbits
 396              		.align	2
 397              		.p2align 4,,15
 398              		.global	comm_usb_init
 399              		.thumb
ARM GAS  C:\Users\IDONNO~1\AppData\Local\Temp\ccYHOdRg.s 			page 8


 400              		.thumb_func
 401              		.type	comm_usb_init, %function
 402              	comm_usb_init:
 403              	.LFB412:
 404              		.loc 1 179 0
 405              		.cfi_startproc
 406              		@ args = 0, pretend = 0, frame = 0
 407              		@ frame_needed = 0, uses_anonymous_args = 0
 408 0000 10B5     		push	{r4, lr}
 409              		.cfi_def_cfa_offset 8
 410              		.cfi_offset 4, -8
 411              		.cfi_offset 14, -4
 412 0002 82B0     		sub	sp, sp, #8
 413              		.cfi_def_cfa_offset 16
 414              		.loc 1 180 0
 415 0004 FFF7FEFF 		bl	comm_usb_serial_init
 416              	.LVL27:
 417              		.loc 1 188 0
 418 0008 0024     		movs	r4, #0
 419              		.loc 1 183 0
 420 000a 0E48     		ldr	r0, .L49
 421 000c FFF7FEFF 		bl	chMtxObjectInit
 422              	.LVL28:
 423              		.loc 1 188 0
 424 0010 0094     		str	r4, [sp]
 425 0012 0D4B     		ldr	r3, .L49+4
 426 0014 0D48     		ldr	r0, .L49+8
 427 0016 4022     		movs	r2, #64
 428 0018 4FF46671 		mov	r1, #920
 429 001c FFF7FEFF 		bl	chThdCreateStatic
 430              	.LVL29:
 431              		.loc 1 189 0
 432 0020 0094     		str	r4, [sp]
 433 0022 0B4B     		ldr	r3, .L49+12
 434 0024 0B48     		ldr	r0, .L49+16
 435 0026 4022     		movs	r2, #64
 436 0028 41F29811 		movw	r1, #4504
 437 002c FFF7FEFF 		bl	chThdCreateStatic
 438              	.LVL30:
 439              		.loc 1 190 0
 440 0030 0094     		str	r4, [sp]
 441 0032 094B     		ldr	r3, .L49+20
 442 0034 0948     		ldr	r0, .L49+24
 443 0036 4022     		movs	r2, #64
 444 0038 4FF46671 		mov	r1, #920
 445 003c FFF7FEFF 		bl	chThdCreateStatic
 446              	.LVL31:
 447              		.loc 1 191 0
 448 0040 02B0     		add	sp, sp, #8
 449              		.cfi_def_cfa_offset 8
 450              		@ sp needed
 451 0042 10BD     		pop	{r4, pc}
 452              	.L50:
 453              		.align	2
 454              	.L49:
 455 0044 00000000 		.word	.LANCHOR8
 456 0048 00000000 		.word	serial_read_thread
ARM GAS  C:\Users\IDONNO~1\AppData\Local\Temp\ccYHOdRg.s 			page 9


 457 004c 00000000 		.word	.LANCHOR9
 458 0050 00000000 		.word	serial_process_thread
 459 0054 00000000 		.word	.LANCHOR10
 460 0058 00000000 		.word	serial_write_thread
 461 005c 00000000 		.word	.LANCHOR11
 462              		.cfi_endproc
 463              	.LFE412:
 464              		.size	comm_usb_init, .-comm_usb_init
 465              		.section	.text.usb_uart_printf,"ax",%progbits
 466              		.align	2
 467              		.p2align 4,,15
 468              		.global	usb_uart_printf
 469              		.thumb
 470              		.thumb_func
 471              		.type	usb_uart_printf, %function
 472              	usb_uart_printf:
 473              	.LFB413:
 474              		.loc 1 197 0
 475              		.cfi_startproc
 476              		@ args = 4, pretend = 16, frame = 8
 477              		@ frame_needed = 0, uses_anonymous_args = 1
 478              	.LVL32:
 479 0000 0FB4     		push	{r0, r1, r2, r3}
 480              		.cfi_def_cfa_offset 16
 481              		.cfi_offset 0, -16
 482              		.cfi_offset 1, -12
 483              		.cfi_offset 2, -8
 484              		.cfi_offset 3, -4
 485 0002 30B5     		push	{r4, r5, lr}
 486              		.cfi_def_cfa_offset 28
 487              		.cfi_offset 4, -28
 488              		.cfi_offset 5, -24
 489              		.cfi_offset 14, -20
 490 0004 83B0     		sub	sp, sp, #12
 491              		.cfi_def_cfa_offset 40
 492              		.loc 1 197 0
 493 0006 06AB     		add	r3, sp, #24
 494              		.loc 1 204 0
 495 0008 094C     		ldr	r4, .L53
 496              		.loc 1 197 0
 497 000a 53F8042B 		ldr	r2, [r3], #4
 498              		.loc 1 200 0
 499 000e 0193     		str	r3, [sp, #4]
 500              		.loc 1 204 0
 501 0010 2046     		mov	r0, r4
 502 0012 FF21     		movs	r1, #255
 503 0014 FFF7FEFF 		bl	vsnprintf
 504              	.LVL33:
 505              		.loc 1 207 0
 506 0018 064B     		ldr	r3, .L53+4
 507 001a 1D68     		ldr	r5, [r3]
 508 001c 0246     		mov	r2, r0
 509 001e 2146     		mov	r1, r4
 510 0020 1846     		mov	r0, r3
 511              	.LVL34:
 512 0022 2C68     		ldr	r4, [r5]
 513 0024 A047     		blx	r4
ARM GAS  C:\Users\IDONNO~1\AppData\Local\Temp\ccYHOdRg.s 			page 10


 514              	.LVL35:
 515              		.loc 1 210 0
 516 0026 03B0     		add	sp, sp, #12
 517              		.cfi_def_cfa_offset 28
 518              		@ sp needed
 519 0028 BDE83040 		pop	{r4, r5, lr}
 520              		.cfi_restore 14
 521              		.cfi_restore 5
 522              		.cfi_restore 4
 523              		.cfi_def_cfa_offset 16
 524 002c 04B0     		add	sp, sp, #16
 525              		.cfi_restore 3
 526              		.cfi_restore 2
 527              		.cfi_restore 1
 528              		.cfi_restore 0
 529              		.cfi_def_cfa_offset 0
 530 002e 7047     		bx	lr
 531              	.L54:
 532              		.align	2
 533              	.L53:
 534 0030 00000000 		.word	.LANCHOR12
 535 0034 00000000 		.word	SDU1
 536              		.cfi_endproc
 537              	.LFE413:
 538              		.size	usb_uart_printf, .-usb_uart_printf
 539              		.section	.text.usb_uart_write,"ax",%progbits
 540              		.align	2
 541              		.p2align 4,,15
 542              		.global	usb_uart_write
 543              		.thumb
 544              		.thumb_func
 545              		.type	usb_uart_write, %function
 546              	usb_uart_write:
 547              	.LFB414:
 548              		.loc 1 214 0
 549              		.cfi_startproc
 550              		@ args = 0, pretend = 0, frame = 0
 551              		@ frame_needed = 0, uses_anonymous_args = 0
 552              		@ link register save eliminated.
 553              	.LVL36:
 554              		.loc 1 217 0
 555 0000 054B     		ldr	r3, .L57
 556              		.loc 1 214 0
 557 0002 10B4     		push	{r4}
 558              		.cfi_def_cfa_offset 4
 559              		.cfi_offset 4, -4
 560              		.loc 1 217 0
 561 0004 1C68     		ldr	r4, [r3]
 562 0006 2468     		ldr	r4, [r4]
 563 0008 0A46     		mov	r2, r1
 564 000a 0146     		mov	r1, r0
 565              	.LVL37:
 566 000c 1846     		mov	r0, r3
 567              	.LVL38:
 568 000e 2346     		mov	r3, r4
 569              		.loc 1 220 0
 570 0010 5DF8044B 		ldr	r4, [sp], #4
ARM GAS  C:\Users\IDONNO~1\AppData\Local\Temp\ccYHOdRg.s 			page 11


 571              		.cfi_restore 4
 572              		.cfi_def_cfa_offset 0
 573              		.loc 1 217 0
 574 0014 1847     		bx	r3
 575              	.LVL39:
 576              	.L58:
 577 0016 00BF     		.align	2
 578              	.L57:
 579 0018 00000000 		.word	SDU1
 580              		.cfi_endproc
 581              	.LFE414:
 582              		.size	usb_uart_write, .-usb_uart_write
 583              		.section	.text.usb_uart_getch,"ax",%progbits
 584              		.align	2
 585              		.p2align 4,,15
 586              		.global	usb_uart_getch
 587              		.thumb
 588              		.thumb_func
 589              		.type	usb_uart_getch, %function
 590              	usb_uart_getch:
 591              	.LFB415:
 592              		.loc 1 223 0
 593              		.cfi_startproc
 594              		@ args = 0, pretend = 0, frame = 128
 595              		@ frame_needed = 0, uses_anonymous_args = 0
 596 0000 00B5     		push	{lr}
 597              		.cfi_def_cfa_offset 4
 598              		.cfi_offset 14, -4
 599              		.loc 1 228 0
 600 0002 0648     		ldr	r0, .L61
 601 0004 0368     		ldr	r3, [r0]
 602              		.loc 1 223 0
 603 0006 A1B0     		sub	sp, sp, #132
 604              		.cfi_def_cfa_offset 136
 605              		.loc 1 228 0
 606 0008 5B68     		ldr	r3, [r3, #4]
 607 000a 0122     		movs	r2, #1
 608 000c 6946     		mov	r1, sp
 609 000e 9847     		blx	r3
 610              	.LVL40:
 611              		.loc 1 231 0
 612 0010 9DF80000 		ldrb	r0, [sp]	@ zero_extendqisi2
 613 0014 21B0     		add	sp, sp, #132
 614              		.cfi_def_cfa_offset 4
 615              		@ sp needed
 616 0016 5DF804FB 		ldr	pc, [sp], #4
 617              	.L62:
 618 001a 00BF     		.align	2
 619              	.L61:
 620 001c 00000000 		.word	SDU1
 621              		.cfi_endproc
 622              	.LFE415:
 623              		.size	usb_uart_getch, .-usb_uart_getch
 624              		.section	.bss.serial_rx_write_pos,"aw",%nobits
 625              		.align	2
 626              		.set	.LANCHOR0,. + 0
 627              		.type	serial_rx_write_pos, %object
ARM GAS  C:\Users\IDONNO~1\AppData\Local\Temp\ccYHOdRg.s 			page 12


 628              		.size	serial_rx_write_pos, 4
 629              	serial_rx_write_pos:
 630 0000 00000000 		.space	4
 631              		.section	.bss.print_buffer.12220,"aw",%nobits
 632              		.align	2
 633              		.set	.LANCHOR12,. + 0
 634              		.type	print_buffer.12220, %object
 635              		.size	print_buffer.12220, 255
 636              	print_buffer.12220:
 637 0000 00000000 		.space	255
 637      00000000 
 637      00000000 
 637      00000000 
 637      00000000 
 638              		.section	.bss.serial_tx_write_pos,"aw",%nobits
 639              		.align	2
 640              		.set	.LANCHOR6,. + 0
 641              		.type	serial_tx_write_pos, %object
 642              		.size	serial_tx_write_pos, 4
 643              	serial_tx_write_pos:
 644 0000 00000000 		.space	4
 645              		.section	.bss.process_tx_tp,"aw",%nobits
 646              		.align	2
 647              		.set	.LANCHOR3,. + 0
 648              		.type	process_tx_tp, %object
 649              		.size	process_tx_tp, 4
 650              	process_tx_tp:
 651 0000 00000000 		.space	4
 652              		.section	.bss.send_mutex,"aw",%nobits
 653              		.align	2
 654              		.set	.LANCHOR8,. + 0
 655              		.type	send_mutex, %object
 656              		.size	send_mutex, 16
 657              	send_mutex:
 658 0000 00000000 		.space	16
 658      00000000 
 658      00000000 
 658      00000000 
 659              		.section	.bss.serial_tx_buffer,"aw",%nobits
 660              		.align	2
 661              		.set	.LANCHOR5,. + 0
 662              		.type	serial_tx_buffer, %object
 663              		.size	serial_tx_buffer, 2048
 664              	serial_tx_buffer:
 665 0000 00000000 		.space	2048
 665      00000000 
 665      00000000 
 665      00000000 
 665      00000000 
 666              		.section	.bss.serial_process_thread_wa,"aw",%nobits
 667              		.align	3
 668              		.set	.LANCHOR10,. + 0
 669              		.type	serial_process_thread_wa, %object
 670              		.size	serial_process_thread_wa, 4504
 671              	serial_process_thread_wa:
 672 0000 00000000 		.space	4504
 672      00000000 
ARM GAS  C:\Users\IDONNO~1\AppData\Local\Temp\ccYHOdRg.s 			page 13


 672      00000000 
 672      00000000 
 672      00000000 
 673              		.section	.bss.serial_rx_buffer,"aw",%nobits
 674              		.align	2
 675              		.set	.LANCHOR1,. + 0
 676              		.type	serial_rx_buffer, %object
 677              		.size	serial_rx_buffer, 2048
 678              	serial_rx_buffer:
 679 0000 00000000 		.space	2048
 679      00000000 
 679      00000000 
 679      00000000 
 679      00000000 
 680              		.section	.bss.serial_write_thread_wa,"aw",%nobits
 681              		.align	3
 682              		.set	.LANCHOR11,. + 0
 683              		.type	serial_write_thread_wa, %object
 684              		.size	serial_write_thread_wa, 920
 685              	serial_write_thread_wa:
 686 0000 00000000 		.space	920
 686      00000000 
 686      00000000 
 686      00000000 
 686      00000000 
 687              		.section	.rodata.str1.4,"aMS",%progbits,1
 688              		.align	2
 689              	.LC0:
 690 0000 5553422D 		.ascii	"USB-Serial read\000"
 690      53657269 
 690      616C2072 
 690      65616400 
 691              	.LC1:
 692 0010 5553422D 		.ascii	"USB-Serial write\000"
 692      53657269 
 692      616C2077 
 692      72697465 
 692      00
 693 0021 000000   		.space	3
 694              	.LC2:
 695 0024 5553422D 		.ascii	"USB-Serial process\000"
 695      53657269 
 695      616C2070 
 695      726F6365 
 695      737300
 696              		.section	.bss.serial_read_thread_wa,"aw",%nobits
 697              		.align	3
 698              		.set	.LANCHOR9,. + 0
 699              		.type	serial_read_thread_wa, %object
 700              		.size	serial_read_thread_wa, 920
 701              	serial_read_thread_wa:
 702 0000 00000000 		.space	920
 702      00000000 
 702      00000000 
 702      00000000 
 702      00000000 
 703              		.section	.bss.serial_tx_read_pos,"aw",%nobits
ARM GAS  C:\Users\IDONNO~1\AppData\Local\Temp\ccYHOdRg.s 			page 14


 704              		.align	2
 705              		.set	.LANCHOR4,. + 0
 706              		.type	serial_tx_read_pos, %object
 707              		.size	serial_tx_read_pos, 4
 708              	serial_tx_read_pos:
 709 0000 00000000 		.space	4
 710              		.section	.bss.serial_rx_read_pos,"aw",%nobits
 711              		.align	2
 712              		.set	.LANCHOR7,. + 0
 713              		.type	serial_rx_read_pos, %object
 714              		.size	serial_rx_read_pos, 4
 715              	serial_rx_read_pos:
 716 0000 00000000 		.space	4
 717              		.section	.bss.process_rx_tp,"aw",%nobits
 718              		.align	2
 719              		.set	.LANCHOR2,. + 0
 720              		.type	process_rx_tp, %object
 721              		.size	process_rx_tp, 4
 722              	process_rx_tp:
 723 0000 00000000 		.space	4
 724              		.text
 725              	.Letext0:
 726              		.file 3 "c:\\program files (x86)\\gnu tools arm embedded\\5.4 2016q3\\lib\\gcc\\arm-none-eabi\\5.4
 727              		.file 4 "c:\\program files (x86)\\gnu tools arm embedded\\5.4 2016q3\\arm-none-eabi\\include\\mach
 728              		.file 5 "c:\\program files (x86)\\gnu tools arm embedded\\5.4 2016q3\\arm-none-eabi\\include\\sys\
 729              		.file 6 "src/ChibiOS_3.0.2/os/rt/ports/ARMCMx/compilers/GCC/chtypes.h"
 730              		.file 7 "src/ChibiOS_3.0.2/os/rt/include/chsystypes.h"
 731              		.file 8 "src/ChibiOS_3.0.2/os/rt/include/chschd.h"
 732              		.file 9 "src/ChibiOS_3.0.2/os/rt/ports/ARMCMx/chcore.h"
 733              		.file 10 "src/ChibiOS_3.0.2/os/rt/ports/ARMCMx/chcore_v7m.h"
 734              		.file 11 "src/ChibiOS_3.0.2/os/rt/include/chtm.h"
 735              		.file 12 "src/ChibiOS_3.0.2/os/rt/include/chsem.h"
 736              		.file 13 "src/ChibiOS_3.0.2/os/rt/include/chmtx.h"
 737              		.file 14 "src/ChibiOS_3.0.2/os/rt/include/chevents.h"
 738              		.file 15 "src/ChibiOS_3.0.2/os/rt/include/chqueues.h"
 739              		.file 16 "src/ChibiOS_3.0.2/os/hal/include/usb.h"
 740              		.file 17 "src/ChibiOS_3.0.2/os/hal/ports/STM32/LLD/OTGv1/usb_lld.h"
 741              		.file 18 "src/ChibiOS_3.0.2/os/hal/ports/STM32/LLD/OTGv1/stm32_otg.h"
 742              		.file 19 "src/ChibiOS_3.0.2/os/hal/include/serial_usb.h"
 743              		.file 20 "src/core/../mavlink/oroca_bldc/../mavlink_types.h"
 744              		.file 21 "src/core/mavlink_proc.h"
 745              		.file 22 "c:\\program files (x86)\\gnu tools arm embedded\\5.4 2016q3\\lib\\gcc\\arm-none-eabi\\5.
 746              		.file 23 "<built-in>"
 747              		.file 24 "src/ChibiOS_3.0.2/os/ext/CMSIS/include/core_cm4.h"
 748              		.file 25 "src/core/comm_usb_serial.h"
 749              		.file 26 "src/ChibiOS_3.0.2/os/rt/include/chthreads.h"
 750              		.file 27 "c:\\program files (x86)\\gnu tools arm embedded\\5.4 2016q3\\arm-none-eabi\\include\\std