ARM GAS  C:\Users\IDONNO~1\AppData\Local\Temp\cch9h1hs.s 			page 1


   1              		.syntax unified
   2              		.cpu cortex-m4
   3              		.eabi_attribute 27, 1
   4              		.eabi_attribute 28, 1
   5              		.fpu fpv4-sp-d16
   6              		.eabi_attribute 20, 1
   7              		.eabi_attribute 21, 1
   8              		.eabi_attribute 23, 3
   9              		.eabi_attribute 24, 1
  10              		.eabi_attribute 25, 1
  11              		.eabi_attribute 26, 1
  12              		.eabi_attribute 30, 2
  13              		.eabi_attribute 34, 1
  14              		.eabi_attribute 18, 4
  15              		.thumb
  16              		.syntax unified
  17              		.file	"conf_general.c"
  18              		.text
  19              	.Ltext0:
  20              		.cfi_sections	.debug_frame
  21              		.section	.text.conf_general_init,"ax",%progbits
  22              		.align	2
  23              		.p2align 4,,15
  24              		.global	conf_general_init
  25              		.thumb
  26              		.thumb_func
  27              		.type	conf_general_init, %function
  28              	conf_general_init:
  29              	.LFB407:
  30              		.file 1 "src/conf_general.c"
  31              		.loc 1 56 0
  32              		.cfi_startproc
  33              		@ args = 0, pretend = 0, frame = 0
  34              		@ frame_needed = 0, uses_anonymous_args = 0
  35 0000 08B5     		push	{r3, lr}
  36              		.cfi_def_cfa_offset 8
  37              		.cfi_offset 3, -8
  38              		.cfi_offset 14, -4
  39              		.loc 1 58 0
  40 0002 4FF4A072 		mov	r2, #320
  41 0006 0021     		movs	r1, #0
  42 0008 0F48     		ldr	r0, .L8
  43 000a FFF7FEFF 		bl	memset
  44              	.LVL0:
  45 000e 0F49     		ldr	r1, .L8+4
  46 0010 4FF47A73 		mov	r3, #1000
  47 0014 01F1A002 		add	r2, r1, #160
  48              	.LVL1:
  49              	.L2:
  50              	.LBB5:
  51              		.loc 1 63 0 discriminator 3
  52 0018 21F8023F 		strh	r3, [r1, #2]!	@ movhi
  53 001c 0133     		adds	r3, r3, #1
  54              		.loc 1 61 0 discriminator 3
  55 001e 8A42     		cmp	r2, r1
  56 0020 9BB2     		uxth	r3, r3
  57 0022 F9D1     		bne	.L2
ARM GAS  C:\Users\IDONNO~1\AppData\Local\Temp\cch9h1hs.s 			page 2


  58 0024 0A49     		ldr	r1, .L8+8
  59              		.loc 1 61 0 is_stmt 0
  60 0026 4FF4FA63 		mov	r3, #2000
  61              	.L3:
  62              	.LBE5:
  63              	.LBB6:
  64              		.loc 1 68 0 is_stmt 1 discriminator 3
  65 002a 22F8023F 		strh	r3, [r2, #2]!	@ movhi
  66              	.LVL2:
  67 002e 0133     		adds	r3, r3, #1
  68              		.loc 1 66 0 discriminator 3
  69 0030 9142     		cmp	r1, r2
  70 0032 9BB2     		uxth	r3, r3
  71 0034 F9D1     		bne	.L3
  72              	.LBE6:
  73              		.loc 1 71 0
  74 0036 FFF7FEFF 		bl	FLASH_Unlock
  75              	.LVL3:
  76              		.loc 1 72 0
  77 003a F220     		movs	r0, #242
  78 003c FFF7FEFF 		bl	FLASH_ClearFlag
  79              	.LVL4:
  80              		.loc 1 74 0
  81 0040 BDE80840 		pop	{r3, lr}
  82              		.cfi_restore 14
  83              		.cfi_restore 3
  84              		.cfi_def_cfa_offset 0
  85              		.loc 1 73 0
  86 0044 FFF7FEBF 		b	EE_Init
  87              	.LVL5:
  88              	.L9:
  89              		.align	2
  90              	.L8:
  91 0048 00000000 		.word	.LANCHOR0
  92 004c FEFFFFFF 		.word	.LANCHOR0-2
  93 0050 3E010000 		.word	.LANCHOR0+318
  94              		.cfi_endproc
  95              	.LFE407:
  96              		.size	conf_general_init, .-conf_general_init
  97              		.section	.text.conf_general_get_default_app_configuration,"ax",%progbits
  98              		.align	2
  99              		.p2align 4,,15
 100              		.global	conf_general_get_default_app_configuration
 101              		.thumb
 102              		.thumb_func
 103              		.type	conf_general_get_default_app_configuration, %function
 104              	conf_general_get_default_app_configuration:
 105              	.LFB408:
 106              		.loc 1 82 0
 107              		.cfi_startproc
 108              		@ args = 0, pretend = 0, frame = 0
 109              		@ frame_needed = 0, uses_anonymous_args = 0
 110              		@ link register save eliminated.
 111              	.LVL6:
 112              		.loc 1 83 0
 113 0000 A022     		movs	r2, #160
 114 0002 0021     		movs	r1, #0
ARM GAS  C:\Users\IDONNO~1\AppData\Local\Temp\cch9h1hs.s 			page 3


 115 0004 FFF7FEBF 		b	memset
 116              	.LVL7:
 117              		.cfi_endproc
 118              	.LFE408:
 119              		.size	conf_general_get_default_app_configuration, .-conf_general_get_default_app_configuration
 120              		.section	.text.conf_general_get_default_mc_configuration,"ax",%progbits
 121              		.align	2
 122              		.p2align 4,,15
 123              		.global	conf_general_get_default_mc_configuration
 124              		.thumb
 125              		.thumb_func
 126              		.type	conf_general_get_default_mc_configuration, %function
 127              	conf_general_get_default_mc_configuration:
 128              	.LFB409:
 129              		.loc 1 152 0
 130              		.cfi_startproc
 131              		@ args = 0, pretend = 0, frame = 0
 132              		@ frame_needed = 0, uses_anonymous_args = 0
 133              	.LVL8:
 134 0000 F8B5     		push	{r3, r4, r5, r6, r7, lr}
 135              		.cfi_def_cfa_offset 24
 136              		.cfi_offset 3, -24
 137              		.cfi_offset 4, -20
 138              		.cfi_offset 5, -16
 139              		.cfi_offset 6, -12
 140              		.cfi_offset 7, -8
 141              		.cfi_offset 14, -4
 142              		.loc 1 153 0
 143 0002 D422     		movs	r2, #212
 144              		.loc 1 152 0
 145 0004 0446     		mov	r4, r0
 146              		.loc 1 153 0
 147 0006 0021     		movs	r1, #0
 148 0008 FFF7FEFF 		bl	memset
 149              	.LVL9:
 150              		.loc 1 177 0
 151 000c 184D     		ldr	r5, .L13
 152              		.loc 1 163 0
 153 000e 194A     		ldr	r2, .L13+4
 154              		.loc 1 169 0
 155 0010 1949     		ldr	r1, .L13+8
 156              		.loc 1 164 0
 157 0012 1A4B     		ldr	r3, .L13+12
 158              		.loc 1 165 0
 159 0014 1A4F     		ldr	r7, .L13+16
 160              		.loc 1 166 0
 161 0016 1B4E     		ldr	r6, .L13+20
 162              		.loc 1 167 0
 163 0018 1B48     		ldr	r0, .L13+24
 164              		.loc 1 163 0
 165 001a 2262     		str	r2, [r4, #32]	@ float
 166              		.loc 1 169 0
 167 001c E163     		str	r1, [r4, #60]	@ float
 168              		.loc 1 178 0
 169 001e 1B4A     		ldr	r2, .L13+28
 170              		.loc 1 170 0
 171 0020 1B49     		ldr	r1, .L13+32
ARM GAS  C:\Users\IDONNO~1\AppData\Local\Temp\cch9h1hs.s 			page 4


 172              		.loc 1 177 0
 173 0022 E565     		str	r5, [r4, #92]	@ float
 174              		.loc 1 154 0
 175 0024 0125     		movs	r5, #1
 176              		.loc 1 164 0
 177 0026 6362     		str	r3, [r4, #36]	@ float
 178              		.loc 1 165 0
 179 0028 A762     		str	r7, [r4, #40]	@ float
 180              		.loc 1 159 0
 181 002a 1A4B     		ldr	r3, .L13+36
 182              		.loc 1 160 0
 183 002c 1A4F     		ldr	r7, .L13+40
 184              		.loc 1 166 0
 185 002e 2663     		str	r6, [r4, #48]	@ float
 186              		.loc 1 167 0
 187 0030 6063     		str	r0, [r4, #52]	@ float
 188              		.loc 1 162 0
 189 0032 1A4E     		ldr	r6, .L13+44
 190              		.loc 1 173 0
 191 0034 1A48     		ldr	r0, .L13+48
 192              		.loc 1 170 0
 193 0036 2164     		str	r1, [r4, #64]	@ float
 194              		.loc 1 178 0
 195 0038 2266     		str	r2, [r4, #96]	@ float
 196              		.loc 1 174 0
 197 003a 1A49     		ldr	r1, .L13+52
 198              		.loc 1 154 0
 199 003c A572     		strb	r5, [r4, #10]
 200              		.loc 1 155 0
 201 003e 0022     		movs	r2, #0
 202              		.loc 1 172 0
 203 0040 84F84850 		strb	r5, [r4, #72]
 204              		.loc 1 168 0
 205 0044 4FF08245 		mov	r5, #1090519040
 206              		.loc 1 155 0
 207 0048 E272     		strb	r2, [r4, #11]
 208              		.loc 1 156 0
 209 004a 2273     		strb	r2, [r4, #12]
 210              		.loc 1 157 0
 211 004c 6273     		strb	r2, [r4, #13]
 212              		.loc 1 255 0
 213 004e 84F88420 		strb	r2, [r4, #132]
 214              		.loc 1 159 0
 215 0052 2361     		str	r3, [r4, #16]	@ float
 216              		.loc 1 161 0
 217 0054 A361     		str	r3, [r4, #24]	@ float
 218              		.loc 1 180 0
 219 0056 E366     		str	r3, [r4, #108]	@ float
 220              		.loc 1 182 0
 221 0058 6367     		str	r3, [r4, #116]	@ float
 222              		.loc 1 160 0
 223 005a 6761     		str	r7, [r4, #20]	@ float
 224              		.loc 1 181 0
 225 005c 2767     		str	r7, [r4, #112]	@ float
 226              		.loc 1 162 0
 227 005e E661     		str	r6, [r4, #28]	@ float
 228              		.loc 1 183 0
ARM GAS  C:\Users\IDONNO~1\AppData\Local\Temp\cch9h1hs.s 			page 5


 229 0060 A667     		str	r6, [r4, #120]	@ float
 230              		.loc 1 168 0
 231 0062 A563     		str	r5, [r4, #56]	@ float
 232              		.loc 1 171 0
 233 0064 6564     		str	r5, [r4, #68]	@ float
 234              		.loc 1 173 0
 235 0066 E064     		str	r0, [r4, #76]	@ float
 236              		.loc 1 175 0
 237 0068 6065     		str	r0, [r4, #84]	@ float
 238              		.loc 1 174 0
 239 006a 2165     		str	r1, [r4, #80]	@ float
 240              		.loc 1 176 0
 241 006c A165     		str	r1, [r4, #88]	@ float
 242 006e F8BD     		pop	{r3, r4, r5, r6, r7, pc}
 243              	.LVL10:
 244              	.L14:
 245              		.align	2
 246              	.L13:
 247 0070 0AD7A33B 		.word	1000593162
 248 0074 00000243 		.word	1124204544
 249 0078 00006442 		.word	1113849856
 250 007c 0050C3C7 		.word	-943501312
 251 0080 0050C347 		.word	1203982336
 252 0084 00009643 		.word	1133903872
 253 0088 0080BB44 		.word	1153138688
 254 008c 3333733F 		.word	1064514355
 255 0090 00002041 		.word	1092616192
 256 0094 00007042 		.word	1114636288
 257 0098 000070C2 		.word	-1032847360
 258 009c 000020C2 		.word	-1038090240
 259 00a0 0000A042 		.word	1117782016
 260 00a4 0000C842 		.word	1120403456
 261              		.cfi_endproc
 262              	.LFE409:
 263              		.size	conf_general_get_default_mc_configuration, .-conf_general_get_default_mc_configuration
 264              		.section	.text.conf_general_read_app_configuration,"ax",%progbits
 265              		.align	2
 266              		.p2align 4,,15
 267              		.global	conf_general_read_app_configuration
 268              		.thumb
 269              		.thumb_func
 270              		.type	conf_general_read_app_configuration, %function
 271              	conf_general_read_app_configuration:
 272              	.LFB410:
 273              		.loc 1 264 0
 274              		.cfi_startproc
 275              		@ args = 0, pretend = 0, frame = 8
 276              		@ frame_needed = 0, uses_anonymous_args = 0
 277              	.LVL11:
 278 0000 70B5     		push	{r4, r5, r6, lr}
 279              		.cfi_def_cfa_offset 16
 280              		.cfi_offset 4, -16
 281              		.cfi_offset 5, -12
 282              		.cfi_offset 6, -8
 283              		.cfi_offset 14, -4
 284 0002 0646     		mov	r6, r0
 285              	.LVL12:
ARM GAS  C:\Users\IDONNO~1\AppData\Local\Temp\cch9h1hs.s 			page 6


 286 0004 82B0     		sub	sp, sp, #8
 287              		.cfi_def_cfa_offset 24
 288 0006 451C     		adds	r5, r0, #1
 289              		.loc 1 264 0
 290 0008 4FF4FA64 		mov	r4, #2000
 291 000c 0AE0     		b	.L17
 292              	.LVL13:
 293              	.L23:
 294              	.LBB7:
 295              		.loc 1 271 0
 296 000e BDF80630 		ldrh	r3, [sp, #6]
 297              		.loc 1 269 0
 298 0012 B4F5026F 		cmp	r4, #2080
 299              		.loc 1 271 0
 300 0016 4FEA1322 		lsr	r2, r3, #8
 301 001a 05F8012C 		strb	r2, [r5, #-1]
 302              		.loc 1 272 0
 303 001e 05F8023B 		strb	r3, [r5], #2
 304              		.loc 1 269 0
 305 0022 10D0     		beq	.L22
 306              	.L17:
 307              		.loc 1 270 0
 308 0024 2046     		mov	r0, r4
 309 0026 0DF10601 		add	r1, sp, #6
 310 002a FFF7FEFF 		bl	EE_ReadVariable
 311              	.LVL14:
 312 002e 0134     		adds	r4, r4, #1
 313 0030 A4B2     		uxth	r4, r4
 314 0032 0028     		cmp	r0, #0
 315 0034 EBD0     		beq	.L23
 316              	.LVL15:
 317              	.LBE7:
 318              	.LBB8:
 319              	.LBB9:
 320              		.loc 1 83 0
 321 0036 3046     		mov	r0, r6
 322 0038 A022     		movs	r2, #160
 323 003a 0021     		movs	r1, #0
 324              	.LBE9:
 325              	.LBE8:
 326              		.loc 1 283 0
 327 003c 02B0     		add	sp, sp, #8
 328              		.cfi_remember_state
 329              		.cfi_def_cfa_offset 16
 330              		@ sp needed
 331 003e BDE87040 		pop	{r4, r5, r6, lr}
 332              		.cfi_restore 14
 333              		.cfi_restore 6
 334              		.cfi_restore 5
 335              		.cfi_restore 4
 336              		.cfi_def_cfa_offset 0
 337              	.LVL16:
 338              	.LBB11:
 339              	.LBB10:
 340              		.loc 1 83 0
 341 0042 FFF7FEBF 		b	memset
 342              	.LVL17:
ARM GAS  C:\Users\IDONNO~1\AppData\Local\Temp\cch9h1hs.s 			page 7


 343              	.L22:
 344              		.cfi_restore_state
 345              	.LBE10:
 346              	.LBE11:
 347              		.loc 1 283 0
 348 0046 02B0     		add	sp, sp, #8
 349              		.cfi_def_cfa_offset 16
 350              		@ sp needed
 351 0048 70BD     		pop	{r4, r5, r6, pc}
 352              		.cfi_endproc
 353              	.LFE410:
 354              		.size	conf_general_read_app_configuration, .-conf_general_read_app_configuration
 355 004a 00BF     		.section	.text.conf_general_store_app_configuration,"ax",%progbits
 356              		.align	2
 357              		.p2align 4,,15
 358              		.global	conf_general_store_app_configuration
 359              		.thumb
 360              		.thumb_func
 361              		.type	conf_general_store_app_configuration, %function
 362              	conf_general_store_app_configuration:
 363              	.LFB411:
 364              		.loc 1 291 0
 365              		.cfi_startproc
 366              		@ args = 0, pretend = 0, frame = 0
 367              		@ frame_needed = 0, uses_anonymous_args = 0
 368              	.LVL18:
 369 0000 38B5     		push	{r3, r4, r5, lr}
 370              		.cfi_def_cfa_offset 16
 371              		.cfi_offset 3, -16
 372              		.cfi_offset 4, -12
 373              		.cfi_offset 5, -8
 374              		.cfi_offset 14, -4
 375              		.loc 1 291 0
 376 0002 0546     		mov	r5, r0
 377              		.loc 1 292 0
 378 0004 FFF7FEFF 		bl	mc_interface_unlock
 379              	.LVL19:
 380              		.loc 1 295 0
 381 0008 FFF7FEFF 		bl	utils_sys_lock_cnt
 382              	.LVL20:
 383              		.loc 1 296 0
 384 000c 0021     		movs	r1, #0
 385 000e 4FF40060 		mov	r0, #2048
 386 0012 FFF7FEFF 		bl	RCC_APB1PeriphClockCmd
 387              	.LVL21:
 388              		.loc 1 302 0
 389 0016 F220     		movs	r0, #242
 390 0018 FFF7FEFF 		bl	FLASH_ClearFlag
 391              	.LVL22:
 392 001c 0135     		adds	r5, r5, #1
 393              	.LVL23:
 394 001e 4FF4FA64 		mov	r4, #2000
 395 0022 02E0     		b	.L26
 396              	.LVL24:
 397              	.L31:
 398              	.LBB12:
 399              		.loc 1 305 0 discriminator 2
ARM GAS  C:\Users\IDONNO~1\AppData\Local\Temp\cch9h1hs.s 			page 8


 400 0024 B4F5026F 		cmp	r4, #2080
 401 0028 17D0     		beq	.L30
 402              	.L26:
 403              		.loc 1 306 0
 404 002a 15F8011C 		ldrb	r1, [r5, #-1]	@ zero_extendqisi2
 405              	.LVL25:
 406              		.loc 1 309 0
 407 002e 2B78     		ldrb	r3, [r5]	@ zero_extendqisi2
 408 0030 2046     		mov	r0, r4
 409 0032 43EA0121 		orr	r1, r3, r1, lsl #8
 410              	.LVL26:
 411 0036 FFF7FEFF 		bl	EE_WriteVariable
 412              	.LVL27:
 413 003a 0134     		adds	r4, r4, #1
 414 003c 0928     		cmp	r0, #9
 415 003e A4B2     		uxth	r4, r4
 416 0040 05F10205 		add	r5, r5, #2
 417 0044 EED0     		beq	.L31
 418              		.loc 1 310 0
 419 0046 0024     		movs	r4, #0
 420              	.L25:
 421              	.LVL28:
 422              	.LBE12:
 423              		.loc 1 315 0
 424 0048 0121     		movs	r1, #1
 425 004a 4FF40060 		mov	r0, #2048
 426 004e FFF7FEFF 		bl	RCC_APB1PeriphClockCmd
 427              	.LVL29:
 428              		.loc 1 316 0
 429 0052 FFF7FEFF 		bl	utils_sys_unlock_cnt
 430              	.LVL30:
 431              		.loc 1 319 0
 432 0056 2046     		mov	r0, r4
 433 0058 38BD     		pop	{r3, r4, r5, pc}
 434              	.LVL31:
 435              	.L30:
 436              		.loc 1 298 0
 437 005a 0124     		movs	r4, #1
 438              	.LBB13:
 439 005c F4E7     		b	.L25
 440              	.LBE13:
 441              		.cfi_endproc
 442              	.LFE411:
 443              		.size	conf_general_store_app_configuration, .-conf_general_store_app_configuration
 444 005e 00BF     		.section	.text.conf_general_read_mc_configuration,"ax",%progbits
 445              		.align	2
 446              		.p2align 4,,15
 447              		.global	conf_general_read_mc_configuration
 448              		.thumb
 449              		.thumb_func
 450              		.type	conf_general_read_mc_configuration, %function
 451              	conf_general_read_mc_configuration:
 452              	.LFB412:
 453              		.loc 1 328 0
 454              		.cfi_startproc
 455              		@ args = 0, pretend = 0, frame = 8
 456              		@ frame_needed = 0, uses_anonymous_args = 0
ARM GAS  C:\Users\IDONNO~1\AppData\Local\Temp\cch9h1hs.s 			page 9


 457              	.LVL32:
 458 0000 F0B5     		push	{r4, r5, r6, r7, lr}
 459              		.cfi_def_cfa_offset 20
 460              		.cfi_offset 4, -20
 461              		.cfi_offset 5, -16
 462              		.cfi_offset 6, -12
 463              		.cfi_offset 7, -8
 464              		.cfi_offset 14, -4
 465 0002 0746     		mov	r7, r0
 466              	.LVL33:
 467 0004 83B0     		sub	sp, sp, #12
 468              		.cfi_def_cfa_offset 32
 469 0006 451C     		adds	r5, r0, #1
 470              		.loc 1 328 0
 471 0008 4FF47A74 		mov	r4, #1000
 472              	.LBB14:
 473              		.loc 1 333 0
 474 000c 40F25246 		movw	r6, #1106
 475 0010 09E0     		b	.L34
 476              	.LVL34:
 477              	.L38:
 478              		.loc 1 337 0
 479 0012 BDF80630 		ldrh	r3, [sp, #6]
 480              		.loc 1 333 0
 481 0016 B442     		cmp	r4, r6
 482              		.loc 1 337 0
 483 0018 4FEA1322 		lsr	r2, r3, #8
 484 001c 05F8012C 		strb	r2, [r5, #-1]
 485              		.loc 1 338 0
 486 0020 05F8023B 		strb	r3, [r5], #2
 487              		.loc 1 333 0
 488 0024 0BD0     		beq	.L32
 489              	.L34:
 490              		.loc 1 335 0
 491 0026 2046     		mov	r0, r4
 492 0028 0DF10601 		add	r1, sp, #6
 493 002c FFF7FEFF 		bl	EE_ReadVariable
 494              	.LVL35:
 495 0030 0134     		adds	r4, r4, #1
 496 0032 A4B2     		uxth	r4, r4
 497 0034 0028     		cmp	r0, #0
 498 0036 ECD0     		beq	.L38
 499              	.LVL36:
 500              	.LBE14:
 501              		.loc 1 356 0
 502 0038 3846     		mov	r0, r7
 503 003a FFF7FEFF 		bl	conf_general_get_default_mc_configuration
 504              	.LVL37:
 505              	.L32:
 506              		.loc 1 360 0
 507 003e 03B0     		add	sp, sp, #12
 508              		.cfi_def_cfa_offset 20
 509              		@ sp needed
 510 0040 F0BD     		pop	{r4, r5, r6, r7, pc}
 511              		.cfi_endproc
 512              	.LFE412:
 513              		.size	conf_general_read_mc_configuration, .-conf_general_read_mc_configuration
ARM GAS  C:\Users\IDONNO~1\AppData\Local\Temp\cch9h1hs.s 			page 10


 514              		.section	.text.conf_general_store_mc_configuration,"ax",%progbits
 515              		.align	2
 516              		.p2align 4,,15
 517              		.global	conf_general_store_mc_configuration
 518              		.thumb
 519              		.thumb_func
 520              		.type	conf_general_store_mc_configuration, %function
 521              	conf_general_store_mc_configuration:
 522              	.LFB413:
 523              		.loc 1 369 0
 524              		.cfi_startproc
 525              		@ args = 0, pretend = 0, frame = 0
 526              		@ frame_needed = 0, uses_anonymous_args = 0
 527              	.LVL38:
 528 0000 70B5     		push	{r4, r5, r6, lr}
 529              		.cfi_def_cfa_offset 16
 530              		.cfi_offset 4, -16
 531              		.cfi_offset 5, -12
 532              		.cfi_offset 6, -8
 533              		.cfi_offset 14, -4
 534              		.loc 1 371 0
 535 0002 1B49     		ldr	r1, .L47
 536              		.loc 1 369 0
 537 0004 0546     		mov	r5, r0
 538              		.loc 1 371 0
 539 0006 0020     		movs	r0, #0
 540              	.LVL39:
 541 0008 FFF7FEFF 		bl	mavlink_dbgString
 542              	.LVL40:
 543              		.loc 1 374 0
 544 000c FFF7FEFF 		bl	mc_interface_unlock
 545              	.LVL41:
 546              		.loc 1 377 0
 547 0010 FFF7FEFF 		bl	utils_sys_lock_cnt
 548              	.LVL42:
 549              		.loc 1 378 0
 550 0014 0021     		movs	r1, #0
 551 0016 4FF40060 		mov	r0, #2048
 552 001a FFF7FEFF 		bl	RCC_APB1PeriphClockCmd
 553              	.LVL43:
 554              		.loc 1 384 0
 555 001e F220     		movs	r0, #242
 556 0020 FFF7FEFF 		bl	FLASH_ClearFlag
 557              	.LVL44:
 558 0024 0135     		adds	r5, r5, #1
 559              	.LVL45:
 560 0026 4FF47A74 		mov	r4, #1000
 561              	.LBB15:
 562              		.loc 1 386 0
 563 002a 40F25246 		movw	r6, #1106
 564 002e 01E0     		b	.L41
 565              	.LVL46:
 566              	.L46:
 567              		.loc 1 386 0 is_stmt 0 discriminator 2
 568 0030 B442     		cmp	r4, r6
 569 0032 1BD0     		beq	.L45
 570              	.L41:
ARM GAS  C:\Users\IDONNO~1\AppData\Local\Temp\cch9h1hs.s 			page 11


 571              		.loc 1 388 0 is_stmt 1
 572 0034 15F8011C 		ldrb	r1, [r5, #-1]	@ zero_extendqisi2
 573              	.LVL47:
 574              		.loc 1 391 0
 575 0038 2B78     		ldrb	r3, [r5]	@ zero_extendqisi2
 576 003a 2046     		mov	r0, r4
 577 003c 43EA0121 		orr	r1, r3, r1, lsl #8
 578              	.LVL48:
 579 0040 FFF7FEFF 		bl	EE_WriteVariable
 580              	.LVL49:
 581 0044 0134     		adds	r4, r4, #1
 582 0046 0928     		cmp	r0, #9
 583 0048 A4B2     		uxth	r4, r4
 584 004a 05F10205 		add	r5, r5, #2
 585 004e EFD0     		beq	.L46
 586              		.loc 1 393 0
 587 0050 0024     		movs	r4, #0
 588              	.L40:
 589              	.LVL50:
 590              	.LBE15:
 591              		.loc 1 398 0
 592 0052 0121     		movs	r1, #1
 593 0054 4FF40060 		mov	r0, #2048
 594 0058 FFF7FEFF 		bl	RCC_APB1PeriphClockCmd
 595              	.LVL51:
 596              		.loc 1 399 0
 597 005c FFF7FEFF 		bl	utils_sys_unlock_cnt
 598              	.LVL52:
 599              		.loc 1 401 0
 600 0060 0449     		ldr	r1, .L47+4
 601 0062 0020     		movs	r0, #0
 602 0064 FFF7FEFF 		bl	mavlink_dbgString
 603              	.LVL53:
 604              		.loc 1 403 0
 605 0068 2046     		mov	r0, r4
 606 006a 70BD     		pop	{r4, r5, r6, pc}
 607              	.LVL54:
 608              	.L45:
 609              		.loc 1 380 0
 610 006c 0124     		movs	r4, #1
 611              	.LBB16:
 612 006e F0E7     		b	.L40
 613              	.L48:
 614              		.align	2
 615              	.L47:
 616 0070 00000000 		.word	.LC0
 617 0074 24000000 		.word	.LC1
 618              	.LBE16:
 619              		.cfi_endproc
 620              	.LFE413:
 621              		.size	conf_general_store_mc_configuration, .-conf_general_store_mc_configuration
 622              		.section	.text.conf_general_detect_motor_param,"ax",%progbits
 623              		.align	2
 624              		.p2align 4,,15
 625              		.global	conf_general_detect_motor_param
 626              		.thumb
 627              		.thumb_func
ARM GAS  C:\Users\IDONNO~1\AppData\Local\Temp\cch9h1hs.s 			page 12


 628              		.type	conf_general_detect_motor_param, %function
 629              	conf_general_detect_motor_param:
 630              	.LFB414:
 631              		.loc 1 406 0
 632              		.cfi_startproc
 633              		@ args = 0, pretend = 0, frame = 0
 634              		@ frame_needed = 0, uses_anonymous_args = 0
 635              	.LVL55:
 636 0000 38B5     		push	{r3, r4, r5, lr}
 637              		.cfi_def_cfa_offset 16
 638              		.cfi_offset 3, -16
 639              		.cfi_offset 4, -12
 640              		.cfi_offset 5, -8
 641              		.cfi_offset 14, -4
 642              		.loc 1 411 0
 643 0002 FFF7FEFF 		bl	mc_interface_get_configuration
 644              	.LVL56:
 645 0006 094C     		ldr	r4, .L51
 646 0008 D425     		movs	r5, #212
 647 000a 0146     		mov	r1, r0
 648 000c 2A46     		mov	r2, r5
 649 000e 2046     		mov	r0, r4
 650 0010 FFF7FEFF 		bl	memcpy
 651              	.LVL57:
 652              		.loc 1 412 0
 653 0014 2A46     		mov	r2, r5
 654 0016 2146     		mov	r1, r4
 655 0018 0548     		ldr	r0, .L51+4
 656 001a FFF7FEFF 		bl	memcpy
 657              	.LVL58:
 658              		.loc 1 414 0
 659 001e 0020     		movs	r0, #0
 660              		.loc 1 416 0
 661 0020 0123     		movs	r3, #1
 662 0022 E372     		strb	r3, [r4, #11]
 663              		.loc 1 414 0
 664 0024 2073     		strb	r0, [r4, #12]
 665              		.loc 1 415 0
 666 0026 6073     		strb	r0, [r4, #13]
 667              		.loc 1 521 0
 668 0028 38BD     		pop	{r3, r4, r5, pc}
 669              	.L52:
 670 002a 00BF     		.align	2
 671              	.L51:
 672 002c 00000000 		.word	.LANCHOR1
 673 0030 00000000 		.word	.LANCHOR2
 674              		.cfi_endproc
 675              	.LFE414:
 676              		.size	conf_general_detect_motor_param, .-conf_general_detect_motor_param
 677              		.section	.text.conf_general_measure_flux_linkage,"ax",%progbits
 678              		.align	2
 679              		.p2align 4,,15
 680              		.global	conf_general_measure_flux_linkage
 681              		.thumb
 682              		.thumb_func
 683              		.type	conf_general_measure_flux_linkage, %function
 684              	conf_general_measure_flux_linkage:
ARM GAS  C:\Users\IDONNO~1\AppData\Local\Temp\cch9h1hs.s 			page 13


 685              	.LFB415:
 686              		.loc 1 545 0
 687              		.cfi_startproc
 688              		@ args = 0, pretend = 0, frame = 0
 689              		@ frame_needed = 0, uses_anonymous_args = 0
 690              	.LVL59:
 691 0000 38B5     		push	{r3, r4, r5, lr}
 692              		.cfi_def_cfa_offset 16
 693              		.cfi_offset 3, -16
 694              		.cfi_offset 4, -12
 695              		.cfi_offset 5, -8
 696              		.cfi_offset 14, -4
 697              		.loc 1 546 0
 698 0002 FFF7FEFF 		bl	mc_interface_get_configuration
 699              	.LVL60:
 700 0006 094C     		ldr	r4, .L55
 701 0008 D425     		movs	r5, #212
 702 000a 0146     		mov	r1, r0
 703 000c 2A46     		mov	r2, r5
 704 000e 2046     		mov	r0, r4
 705 0010 FFF7FEFF 		bl	memcpy
 706              	.LVL61:
 707              		.loc 1 547 0
 708 0014 2A46     		mov	r2, r5
 709 0016 2146     		mov	r1, r4
 710 0018 0548     		ldr	r0, .L55+4
 711 001a FFF7FEFF 		bl	memcpy
 712              	.LVL62:
 713              		.loc 1 549 0
 714 001e 0023     		movs	r3, #0
 715              		.loc 1 551 0
 716 0020 0120     		movs	r0, #1
 717              		.loc 1 549 0
 718 0022 2373     		strb	r3, [r4, #12]
 719              		.loc 1 550 0
 720 0024 6373     		strb	r3, [r4, #13]
 721              		.loc 1 551 0
 722 0026 E072     		strb	r0, [r4, #11]
 723              		.loc 1 608 0
 724 0028 38BD     		pop	{r3, r4, r5, pc}
 725              	.L56:
 726 002a 00BF     		.align	2
 727              	.L55:
 728 002c 00000000 		.word	.LANCHOR1
 729 0030 00000000 		.word	.LANCHOR2
 730              		.cfi_endproc
 731              	.LFE415:
 732              		.size	conf_general_measure_flux_linkage, .-conf_general_measure_flux_linkage
 733              		.global	mcconf_old
 734              		.global	mcconf
 735              		.global	VirtAddVarTab
 736              		.section	.bss.mcconf,"aw",%nobits
 737              		.align	2
 738              		.set	.LANCHOR1,. + 0
 739              		.type	mcconf, %object
 740              		.size	mcconf, 212
 741              	mcconf:
ARM GAS  C:\Users\IDONNO~1\AppData\Local\Temp\cch9h1hs.s 			page 14


 742 0000 00000000 		.space	212
 742      00000000 
 742      00000000 
 742      00000000 
 742      00000000 
 743              		.section	.bss.mcconf_old,"aw",%nobits
 744              		.align	2
 745              		.set	.LANCHOR2,. + 0
 746              		.type	mcconf_old, %object
 747              		.size	mcconf_old, 212
 748              	mcconf_old:
 749 0000 00000000 		.space	212
 749      00000000 
 749      00000000 
 749      00000000 
 749      00000000 
 750              		.section	.rodata.str1.4,"aMS",%progbits,1
 751              		.align	2
 752              	.LC0:
 753 0000 636F6E66 		.ascii	"conf_general_store_mc_configuration\000"
 753      5F67656E 
 753      6572616C 
 753      5F73746F 
 753      72655F6D 
 754              	.LC1:
 755 0024 66696E69 		.ascii	"finish\000"
 755      736800
 756              		.section	.bss.VirtAddVarTab,"aw",%nobits
 757              		.align	2
 758              		.set	.LANCHOR0,. + 0
 759              		.type	VirtAddVarTab, %object
 760              		.size	VirtAddVarTab, 320
 761              	VirtAddVarTab:
 762 0000 00000000 		.space	320
 762      00000000 
 762      00000000 
 762      00000000 
 762      00000000 
 763              		.text
 764              	.Letext0:
 765              		.file 2 "c:\\program files (x86)\\gnu tools arm embedded\\5.4 2016q3\\lib\\gcc\\arm-none-eabi\\5.4
 766              		.file 3 "c:\\program files (x86)\\gnu tools arm embedded\\5.4 2016q3\\arm-none-eabi\\include\\mach
 767              		.file 4 "c:\\program files (x86)\\gnu tools arm embedded\\5.4 2016q3\\arm-none-eabi\\include\\sys\
 768              		.file 5 "src/ChibiOS_3.0.2/os/rt/ports/ARMCMx/compilers/GCC/chtypes.h"
 769              		.file 6 "src/ChibiOS_3.0.2/os/rt/include/chsystypes.h"
 770              		.file 7 "src/ChibiOS_3.0.2/os/rt/include/chschd.h"
 771              		.file 8 "src/ChibiOS_3.0.2/os/rt/ports/ARMCMx/chcore.h"
 772              		.file 9 "src/ChibiOS_3.0.2/os/rt/ports/ARMCMx/chcore_v7m.h"
 773              		.file 10 "src/ChibiOS_3.0.2/os/rt/include/chtm.h"
 774              		.file 11 "src/ChibiOS_3.0.2/os/rt/include/chsem.h"
 775              		.file 12 "src/ChibiOS_3.0.2/os/rt/include/chmtx.h"
 776              		.file 13 "src/ChibiOS_3.0.2/os/ext/CMSIS/ST/stm32f4xx.h"
 777              		.file 14 "src/ChibiOS_3.0.2/ext/stdperiph_stm32f4/inc/stm32f4xx_flash.h"
 778              		.file 15 "src/mc/mc_typedef.h"
 779              		.file 16 "src/core/rf.h"
 780              		.file 17 "src/app/app.h"
 781              		.file 18 "src/ChibiOS_3.0.2/os/ext/CMSIS/include/core_cm4.h"
ARM GAS  C:\Users\IDONNO~1\AppData\Local\Temp\cch9h1hs.s 			page 15


 782              		.file 19 "src/core/eeprom.h"
 783              		.file 20 "src/mc/mc_interface.h"
 784              		.file 21 "src/core/utils.h"
 785              		.file 22 "src/ChibiOS_3.0.2/ext/stdperiph_stm32f4/inc/stm32f4xx_rcc.h"
 786              		.file 23 "src/core/mavlink_proc.h"