ARM GAS  C:\Users\USER\AppData\Local\Temp\ccQ8fdJD.s 			page 1


   1              		.cpu cortex-m4
   2              		.eabi_attribute 27, 1
   3              		.eabi_attribute 28, 1
   4              		.eabi_attribute 20, 1
   5              		.eabi_attribute 21, 1
   6              		.eabi_attribute 23, 3
   7              		.eabi_attribute 24, 1
   8              		.eabi_attribute 25, 1
   9              		.eabi_attribute 26, 1
  10              		.eabi_attribute 30, 2
  11              		.eabi_attribute 34, 1
  12              		.eabi_attribute 18, 4
  13              		.file	"flash_helper.c"
  14              		.text
  15              	.Ltext0:
  16              		.cfi_sections	.debug_frame
  17              		.section	.text.flash_helper_erase_new_app,"ax",%progbits
  18              		.align	1
  19              		.p2align 4,,15
  20              		.global	flash_helper_erase_new_app
  21              		.arch armv7e-m
  22              		.syntax unified
  23              		.thumb
  24              		.thumb_func
  25              		.fpu fpv4-sp-d16
  26              		.type	flash_helper_erase_new_app, %function
  27              	flash_helper_erase_new_app:
  28              	.LVL0:
  29              	.LFB256:
  30              		.file 1 "src/core/flash_helper.c"
  31              		.loc 1 87 60 view -0
  32              		.cfi_startproc
  33              		@ args = 0, pretend = 0, frame = 0
  34              		@ frame_needed = 0, uses_anonymous_args = 0
  35              		.loc 1 88 2 view .LVU1
  36              		.loc 1 87 60 is_stmt 0 view .LVU2
  37 0000 10B5     		push	{r4, lr}
  38              		.cfi_def_cfa_offset 8
  39              		.cfi_offset 4, -8
  40              		.cfi_offset 14, -4
  41              		.loc 1 87 60 view .LVU3
  42 0002 0446     		mov	r4, r0
  43              		.loc 1 88 2 view .LVU4
  44 0004 FFF7FEFF 		bl	FLASH_Unlock
  45              	.LVL1:
  46              		.loc 1 89 2 is_stmt 1 view .LVU5
  47 0008 F220     		movs	r0, #242
  48 000a FFF7FEFF 		bl	FLASH_ClearFlag
  49              	.LVL2:
  50              		.loc 1 92 2 view .LVU6
  51              		.loc 1 94 2 is_stmt 0 view .LVU7
  52 000e FFF7FEFF 		bl	mc_interface_unlock
  53              	.LVL3:
  54              		.loc 1 95 2 view .LVU8
  55 0012 FFF7FEFF 		bl	mc_interface_release_motor
  56              	.LVL4:
  57              		.loc 1 96 2 view .LVU9
ARM GAS  C:\Users\USER\AppData\Local\Temp\ccQ8fdJD.s 			page 2


  58 0016 FFF7FEFF 		bl	utils_sys_lock_cnt
  59              	.LVL5:
  60              		.loc 1 97 2 view .LVU10
  61 001a 0021     		movs	r1, #0
  62 001c 4FF40060 		mov	r0, #2048
  63 0020 FFF7FEFF 		bl	RCC_APB1PeriphClockCmd
  64              	.LVL6:
  65              		.loc 1 92 15 view .LVU11
  66 0024 04F10064 		add	r4, r4, #134217728
  67              	.LVL7:
  68              	.LBB19:
  69              		.loc 1 100 6 view .LVU12
  70 0028 144B     		ldr	r3, .L10
  71              	.LBE19:
  72              		.loc 1 92 15 view .LVU13
  73 002a 04F50024 		add	r4, r4, #524288
  74              	.LVL8:
  75              		.loc 1 94 2 is_stmt 1 view .LVU14
  76              		.loc 1 95 2 view .LVU15
  77              		.loc 1 96 2 view .LVU16
  78              		.loc 1 97 2 view .LVU17
  79              		.loc 1 99 2 view .LVU18
  80              	.LBB23:
  81              		.loc 1 99 7 view .LVU19
  82              		.loc 1 100 3 view .LVU20
  83              		.loc 1 100 6 is_stmt 0 view .LVU21
  84 002e 9C42     		cmp	r4, r3
  85 0030 1AD9     		bls	.L2
  86              	.LBB20:
  87              		.loc 1 101 4 is_stmt 1 view .LVU22
  88              		.loc 1 101 19 is_stmt 0 view .LVU23
  89 0032 0221     		movs	r1, #2
  90 0034 4020     		movs	r0, #64
  91 0036 FFF7FEFF 		bl	FLASH_EraseSector
  92              	.LVL9:
  93              		.loc 1 101 13 view .LVU24
  94 003a 80B2     		uxth	r0, r0
  95              	.LVL10:
  96              		.loc 1 102 4 is_stmt 1 view .LVU25
  97              		.loc 1 102 7 is_stmt 0 view .LVU26
  98 003c 0928     		cmp	r0, #9
  99 003e 1BD1     		bne	.L4
 100              	.LVL11:
 101              		.loc 1 102 7 view .LVU27
 102              	.LBE20:
 103              		.loc 1 100 3 is_stmt 1 view .LVU28
 104              		.loc 1 100 6 is_stmt 0 view .LVU29
 105 0040 0F4B     		ldr	r3, .L10+4
 106 0042 9C42     		cmp	r4, r3
 107 0044 10D9     		bls	.L2
 108              	.LBB21:
 109              		.loc 1 101 4 is_stmt 1 view .LVU30
 110              		.loc 1 101 19 is_stmt 0 view .LVU31
 111 0046 0221     		movs	r1, #2
 112 0048 4820     		movs	r0, #72
 113              	.LVL12:
 114              		.loc 1 101 19 view .LVU32
ARM GAS  C:\Users\USER\AppData\Local\Temp\ccQ8fdJD.s 			page 3


 115 004a FFF7FEFF 		bl	FLASH_EraseSector
 116              	.LVL13:
 117              		.loc 1 101 13 view .LVU33
 118 004e 80B2     		uxth	r0, r0
 119              	.LVL14:
 120              		.loc 1 102 4 is_stmt 1 view .LVU34
 121              		.loc 1 102 7 is_stmt 0 view .LVU35
 122 0050 0928     		cmp	r0, #9
 123 0052 11D1     		bne	.L4
 124              	.LVL15:
 125              		.loc 1 102 7 view .LVU36
 126              	.LBE21:
 127              		.loc 1 100 3 is_stmt 1 view .LVU37
 128              		.loc 1 100 6 is_stmt 0 view .LVU38
 129 0054 0B4B     		ldr	r3, .L10+8
 130 0056 9C42     		cmp	r4, r3
 131 0058 06D9     		bls	.L2
 132              	.LBB22:
 133              		.loc 1 101 4 is_stmt 1 view .LVU39
 134              		.loc 1 101 19 is_stmt 0 view .LVU40
 135 005a 0221     		movs	r1, #2
 136 005c 5020     		movs	r0, #80
 137              	.LVL16:
 138              		.loc 1 101 19 view .LVU41
 139 005e FFF7FEFF 		bl	FLASH_EraseSector
 140              	.LVL17:
 141              		.loc 1 101 13 view .LVU42
 142 0062 80B2     		uxth	r0, r0
 143              	.LVL18:
 144              		.loc 1 102 4 is_stmt 1 view .LVU43
 145              		.loc 1 102 7 is_stmt 0 view .LVU44
 146 0064 0928     		cmp	r0, #9
 147 0066 07D1     		bne	.L4
 148              	.LVL19:
 149              	.L2:
 150              		.loc 1 102 7 view .LVU45
 151              	.LBE22:
 152              	.LBE23:
 153              		.loc 1 110 2 is_stmt 1 view .LVU46
 154 0068 4FF40060 		mov	r0, #2048
 155 006c 0121     		movs	r1, #1
 156 006e FFF7FEFF 		bl	RCC_APB1PeriphClockCmd
 157              	.LVL20:
 158              		.loc 1 111 2 view .LVU47
 159 0072 FFF7FEFF 		bl	utils_sys_unlock_cnt
 160              	.LVL21:
 161              		.loc 1 113 2 view .LVU48
 162              		.loc 1 113 9 is_stmt 0 view .LVU49
 163 0076 0920     		movs	r0, #9
 164              	.L4:
 165              		.loc 1 114 1 view .LVU50
 166 0078 10BD     		pop	{r4, pc}
 167              	.LVL22:
 168              	.L11:
 169              		.loc 1 114 1 view .LVU51
 170 007a 00BF     		.align	2
 171              	.L10:
ARM GAS  C:\Users\USER\AppData\Local\Temp\ccQ8fdJD.s 			page 4


 172 007c 00000808 		.word	134742016
 173 0080 00000A08 		.word	134873088
 174 0084 00000C08 		.word	135004160
 175              		.cfi_endproc
 176              	.LFE256:
 177              		.size	flash_helper_erase_new_app, .-flash_helper_erase_new_app
 178              		.section	.text.flash_helper_write_new_app_data,"ax",%progbits
 179              		.align	1
 180              		.p2align 4,,15
 181              		.global	flash_helper_write_new_app_data
 182              		.syntax unified
 183              		.thumb
 184              		.thumb_func
 185              		.fpu fpv4-sp-d16
 186              		.type	flash_helper_write_new_app_data, %function
 187              	flash_helper_write_new_app_data:
 188              	.LVL23:
 189              	.LFB257:
 190              		.loc 1 116 88 is_stmt 1 view -0
 191              		.cfi_startproc
 192              		@ args = 0, pretend = 0, frame = 0
 193              		@ frame_needed = 0, uses_anonymous_args = 0
 194              		.loc 1 116 88 is_stmt 0 view .LVU53
 195 0000 F8B5     		push	{r3, r4, r5, r6, r7, lr}
 196              		.cfi_def_cfa_offset 24
 197              		.cfi_offset 3, -24
 198              		.cfi_offset 4, -20
 199              		.cfi_offset 5, -16
 200              		.cfi_offset 6, -12
 201              		.cfi_offset 7, -8
 202              		.cfi_offset 14, -4
 203              		.loc 1 116 88 view .LVU54
 204 0002 0546     		mov	r5, r0
 205              		.loc 1 117 2 is_stmt 1 view .LVU55
 206 0004 F220     		movs	r0, #242
 207              	.LVL24:
 208              		.loc 1 116 88 is_stmt 0 view .LVU56
 209 0006 0F46     		mov	r7, r1
 210 0008 1646     		mov	r6, r2
 211              		.loc 1 117 2 view .LVU57
 212 000a FFF7FEFF 		bl	FLASH_ClearFlag
 213              	.LVL25:
 214              		.loc 1 120 2 is_stmt 1 view .LVU58
 215 000e FFF7FEFF 		bl	mc_interface_unlock
 216              	.LVL26:
 217              		.loc 1 121 2 view .LVU59
 218 0012 FFF7FEFF 		bl	mc_interface_release_motor
 219              	.LVL27:
 220              		.loc 1 122 2 view .LVU60
 221 0016 FFF7FEFF 		bl	utils_sys_lock_cnt
 222              	.LVL28:
 223              		.loc 1 123 2 view .LVU61
 224 001a 0021     		movs	r1, #0
 225 001c 4FF40060 		mov	r0, #2048
 226 0020 FFF7FEFF 		bl	RCC_APB1PeriphClockCmd
 227              	.LVL29:
 228              		.loc 1 125 2 view .LVU62
ARM GAS  C:\Users\USER\AppData\Local\Temp\ccQ8fdJD.s 			page 5


 229              	.LBB24:
 230              		.loc 1 125 7 view .LVU63
 231              		.loc 1 125 2 is_stmt 0 view .LVU64
 232 0024 96B1     		cbz	r6, .L16
 233 0026 A5F1F735 		sub	r5, r5, #-134744073
 234              	.LVL30:
 235              		.loc 1 125 2 view .LVU65
 236 002a A5F60805 		subw	r5, r5, #2056
 237              	.LVL31:
 238              		.loc 1 125 2 view .LVU66
 239 002e 7C1E     		subs	r4, r7, #1
 240 0030 ED1B     		subs	r5, r5, r7
 241              	.LVL32:
 242              		.loc 1 125 2 view .LVU67
 243 0032 2644     		add	r6, r6, r4
 244              	.LVL33:
 245              		.loc 1 125 2 view .LVU68
 246 0034 01E0     		b	.L15
 247              	.LVL34:
 248              	.L19:
 249              		.loc 1 125 2 discriminator 2 view .LVU69
 250 0036 B442     		cmp	r4, r6
 251 0038 08D0     		beq	.L16
 252              	.LVL35:
 253              	.L15:
 254              	.LBB25:
 255              		.loc 1 126 3 is_stmt 1 view .LVU70
 256 003a 2819     		adds	r0, r5, r4
 257              		.loc 1 126 18 is_stmt 0 view .LVU71
 258 003c 14F8011F 		ldrb	r1, [r4, #1]!	@ zero_extendqisi2
 259              	.LVL36:
 260              		.loc 1 126 18 view .LVU72
 261 0040 FFF7FEFF 		bl	FLASH_ProgramByte
 262              	.LVL37:
 263              		.loc 1 126 12 view .LVU73
 264 0044 80B2     		uxth	r0, r0
 265              	.LVL38:
 266              		.loc 1 127 3 is_stmt 1 view .LVU74
 267              		.loc 1 127 6 is_stmt 0 view .LVU75
 268 0046 0928     		cmp	r0, #9
 269 0048 F5D0     		beq	.L19
 270              	.LBE25:
 271              	.LBE24:
 272              		.loc 1 136 1 view .LVU76
 273 004a F8BD     		pop	{r3, r4, r5, r6, r7, pc}
 274              	.LVL39:
 275              	.L16:
 276              		.loc 1 132 2 is_stmt 1 view .LVU77
 277 004c 0121     		movs	r1, #1
 278 004e 4FF40060 		mov	r0, #2048
 279 0052 FFF7FEFF 		bl	RCC_APB1PeriphClockCmd
 280              	.LVL40:
 281              		.loc 1 133 2 view .LVU78
 282 0056 FFF7FEFF 		bl	utils_sys_unlock_cnt
 283              	.LVL41:
 284              		.loc 1 135 2 view .LVU79
 285              		.loc 1 135 9 is_stmt 0 view .LVU80
ARM GAS  C:\Users\USER\AppData\Local\Temp\ccQ8fdJD.s 			page 6


 286 005a 0920     		movs	r0, #9
 287              		.loc 1 136 1 view .LVU81
 288 005c F8BD     		pop	{r3, r4, r5, r6, r7, pc}
 289              		.loc 1 136 1 view .LVU82
 290              		.cfi_endproc
 291              	.LFE257:
 292              		.size	flash_helper_write_new_app_data, .-flash_helper_write_new_app_data
 293 005e 00BF     		.section	.text.flash_helper_jump_to_bootloader,"ax",%progbits
 294              		.align	1
 295              		.p2align 4,,15
 296              		.global	flash_helper_jump_to_bootloader
 297              		.syntax unified
 298              		.thumb
 299              		.thumb_func
 300              		.fpu fpv4-sp-d16
 301              		.type	flash_helper_jump_to_bootloader, %function
 302              	flash_helper_jump_to_bootloader:
 303              	.LFB258:
 304              		.loc 1 141 44 is_stmt 1 view -0
 305              		.cfi_startproc
 306              		@ args = 0, pretend = 0, frame = 0
 307              		@ frame_needed = 1, uses_anonymous_args = 0
 308              		.loc 1 142 2 view .LVU84
 309              		.loc 1 144 2 view .LVU85
 310              		.loc 1 141 44 is_stmt 0 view .LVU86
 311 0000 80B5     		push	{r7, lr}
 312              		.cfi_def_cfa_offset 8
 313              		.cfi_offset 7, -8
 314              		.cfi_offset 14, -4
 315 0002 00AF     		add	r7, sp, #0
 316              		.cfi_def_cfa_register 7
 317              		.loc 1 144 2 view .LVU87
 318 0004 FFF7FEFF 		bl	mc_interface_unlock
 319              	.LVL42:
 320              		.loc 1 145 2 is_stmt 1 view .LVU88
 321 0008 FFF7FEFF 		bl	mc_interface_release_motor
 322              	.LVL43:
 323              		.loc 1 146 2 view .LVU89
 324 000c 1A48     		ldr	r0, .L24
 325 000e 026D     		ldr	r2, [r0, #80]
 326 0010 936B     		ldr	r3, [r2, #56]
 327 0012 23F40023 		bic	r3, r3, #524288
 328 0016 9363     		str	r3, [r2, #56]
 329              		.loc 1 147 2 view .LVU90
 330 0018 FFF7FEFF 		bl	usbStop
 331              	.LVL44:
 332              		.loc 1 149 2 view .LVU91
 333 001c 1748     		ldr	r0, .L24+4
 334 001e FFF7FEFF 		bl	uartStop
 335              	.LVL45:
 336              		.loc 1 150 2 view .LVU92
 337 0022 0022     		movs	r2, #0
 338 0024 4021     		movs	r1, #64
 339 0026 1648     		ldr	r0, .L24+8
 340 0028 FFF7FEFF 		bl	_pal_lld_setgroupmode
 341              	.LVL46:
 342              		.loc 1 151 2 view .LVU93
ARM GAS  C:\Users\USER\AppData\Local\Temp\ccQ8fdJD.s 			page 7


 343 002c 0022     		movs	r2, #0
 344 002e 8021     		movs	r1, #128
 345 0030 1348     		ldr	r0, .L24+8
 346 0032 FFF7FEFF 		bl	_pal_lld_setgroupmode
 347              	.LVL47:
 348              		.loc 1 154 2 view .LVU94
 349 0036 0021     		movs	r1, #0
 350 0038 4FF40060 		mov	r0, #2048
 351 003c FFF7FEFF 		bl	RCC_APB1PeriphClockCmd
 352              	.LVL48:
 353              		.loc 1 156 2 view .LVU95
 354              	.LBB26:
 355              	.LBI26:
 356              		.file 2 "src/ChibiOS_3.0.2/os/rt/include/chsys.h"
 357              		.loc 2 303 20 view .LVU96
 358              	.LBE26:
 359              		.loc 2 305 3 view .LVU97
 360              	.LBB31:
 361              	.LBB27:
 362              	.LBI27:
 363              		.file 3 "src/ChibiOS_3.0.2/os/rt/ports/ARMCMx/chcore_v7m.h"
 364              		.loc 3 494 20 view .LVU98
 365              	.LBE27:
 366              	.LBE31:
 367              		.loc 3 496 3 view .LVU99
 368              	.LBB32:
 369              	.LBB30:
 370              	.LBB28:
 371              	.LBI28:
 372              		.file 4 "src/ChibiOS_3.0.2/os/ext/CMSIS/include/core_cmFunc.h"
 373              		.loc 4 340 57 view .LVU100
 374              	.LBB29:
 375              		.loc 4 342 3 view .LVU101
 376              		.syntax unified
 377              	@ 342 "src/ChibiOS_3.0.2/os/ext/CMSIS/include/core_cmFunc.h" 1
 378 0040 72B6     		cpsid i
 379              	@ 0 "" 2
 380              		.thumb
 381              		.syntax unified
 382              	.LBE29:
 383              	.LBE28:
 384              	.LBE30:
 385              	.LBE32:
 386              		.loc 2 306 23 view .LVU102
 387              		.loc 1 158 2 view .LVU103
 388              		.loc 1 161 2 view .LVU104
 389              		.loc 1 162 2 view .LVU105
 390              	.LVL49:
 391              		.loc 1 165 2 view .LVU106
 392              		.loc 1 165 56 is_stmt 0 view .LVU107
 393 0042 104A     		ldr	r2, .L24+12
 394              		.loc 1 171 12 view .LVU108
 395 0044 104B     		ldr	r3, .L24+16
 396              		.loc 1 165 56 view .LVU109
 397 0046 1068     		ldr	r0, [r2]
 398              		.loc 1 168 2 is_stmt 1 view .LVU110
 399              	.LVL50:
ARM GAS  C:\Users\USER\AppData\Local\Temp\ccQ8fdJD.s 			page 8


 400              		.loc 1 171 2 view .LVU111
 401              		.loc 1 171 12 is_stmt 0 view .LVU112
 402 0048 4FF00062 		mov	r2, #134217728
 403 004c 5A60     		str	r2, [r3, #4]
 404              		.loc 1 174 2 is_stmt 1 view .LVU113
 405              	.LBB33:
 406              		.loc 1 174 6 view .LVU114
 407              	.LVL51:
 408              		.loc 1 174 10 is_stmt 0 view .LVU115
 409 004e 0022     		movs	r2, #0
 410              	.LVL52:
 411              	.L21:
 412              		.loc 1 175 3 is_stmt 1 discriminator 3 view .LVU116
 413 0050 9300     		lsls	r3, r2, #2
 414 0052 03F16043 		add	r3, r3, #-536870912
 415 0056 03F56143 		add	r3, r3, #57600
 416              		.loc 1 174 23 is_stmt 0 discriminator 3 view .LVU117
 417 005a 0132     		adds	r2, r2, #1
 418              	.LVL53:
 419              		.loc 1 175 29 discriminator 3 view .LVU118
 420 005c D3F80012 		ldr	r1, [r3, #512]
 421              		.loc 1 175 17 discriminator 3 view .LVU119
 422 0060 C3F88010 		str	r1, [r3, #128]
 423              		.loc 1 174 2 discriminator 3 view .LVU120
 424 0064 082A     		cmp	r2, #8
 425 0066 F3D1     		bne	.L21
 426              	.LBE33:
 427              		.loc 1 179 2 is_stmt 1 view .LVU121
 428 0068 084B     		ldr	r3, .L24+20
 429 006a 1B68     		ldr	r3, [r3]
 430              	.LVL54:
 431              	.LBB34:
 432              	.LBI34:
 433              		.loc 4 466 57 view .LVU122
 434              	.LBB35:
 435              		.loc 4 468 3 view .LVU123
 436              		.syntax unified
 437              	@ 468 "src/ChibiOS_3.0.2/os/ext/CMSIS/include/core_cmFunc.h" 1
 438 006c 83F30888 		MSR msp, r3
 439              	
 440              	@ 0 "" 2
 441              	.LVL55:
 442              		.loc 4 468 3 is_stmt 0 view .LVU124
 443              		.thumb
 444              		.syntax unified
 445              	.LBE35:
 446              	.LBE34:
 447              		.loc 1 182 2 is_stmt 1 view .LVU125
 448              		.loc 1 183 1 is_stmt 0 view .LVU126
 449 0070 BD46     		mov	sp, r7
 450              		.cfi_def_cfa_register 13
 451              		@ sp needed
 452 0072 BDE88040 		pop	{r7, lr}
 453              		.cfi_restore 14
 454              		.cfi_restore 7
 455              		.cfi_def_cfa_offset 0
 456              		.loc 1 182 2 view .LVU127
ARM GAS  C:\Users\USER\AppData\Local\Temp\ccQ8fdJD.s 			page 9


 457 0076 0047     		bx	r0	@ indirect register sibling call
 458              	.LVL56:
 459              	.L25:
 460              		.loc 1 182 2 view .LVU128
 461              		.align	2
 462              	.L24:
 463 0078 00000000 		.word	USBD1
 464 007c 00000000 		.word	UARTD6
 465 0080 00080240 		.word	1073874944
 466 0084 04000E08 		.word	135135236
 467 0088 00ED00E0 		.word	-536810240
 468 008c 00000E08 		.word	135135232
 469              		.cfi_endproc
 470              	.LFE258:
 471              		.size	flash_helper_jump_to_bootloader, .-flash_helper_jump_to_bootloader
 472              		.section	.text.flash_helper_get_sector_address,"ax",%progbits
 473              		.align	1
 474              		.p2align 4,,15
 475              		.global	flash_helper_get_sector_address
 476              		.syntax unified
 477              		.thumb
 478              		.thumb_func
 479              		.fpu fpv4-sp-d16
 480              		.type	flash_helper_get_sector_address, %function
 481              	flash_helper_get_sector_address:
 482              	.LVL57:
 483              	.LFB259:
 484              		.loc 1 185 60 is_stmt 1 view -0
 485              		.cfi_startproc
 486              		@ args = 0, pretend = 0, frame = 0
 487              		@ frame_needed = 0, uses_anonymous_args = 0
 488              		@ link register save eliminated.
 489              		.loc 1 186 2 view .LVU130
 490              		.loc 1 188 2 view .LVU131
 491              	.LBB36:
 492              		.loc 1 188 7 view .LVU132
 493              		.loc 1 188 7 is_stmt 0 view .LVU133
 494              	.LBE36:
 495              		.loc 1 185 60 view .LVU134
 496 0000 0022     		movs	r2, #0
 497 0002 0849     		ldr	r1, .L34
 498              	.LBB37:
 499              		.loc 1 188 11 view .LVU135
 500 0004 1346     		mov	r3, r2
 501 0006 01E0     		b	.L29
 502              	.LVL58:
 503              	.L33:
 504              		.loc 1 188 11 view .LVU136
 505 0008 31F8022F 		ldrh	r2, [r1, #2]!
 506              	.LVL59:
 507              	.L29:
 508              		.loc 1 189 3 is_stmt 1 view .LVU137
 509              		.loc 1 189 6 is_stmt 0 view .LVU138
 510 000c 8242     		cmp	r2, r0
 511 000e 04D0     		beq	.L32
 512              		.loc 1 188 36 discriminator 2 view .LVU139
 513 0010 0133     		adds	r3, r3, #1
ARM GAS  C:\Users\USER\AppData\Local\Temp\ccQ8fdJD.s 			page 10


 514              	.LVL60:
 515              		.loc 1 188 2 discriminator 2 view .LVU140
 516 0012 0C2B     		cmp	r3, #12
 517 0014 F8D1     		bne	.L33
 518              	.LBE37:
 519              		.loc 1 186 11 view .LVU141
 520 0016 0020     		movs	r0, #0
 521              	.LVL61:
 522              		.loc 1 195 2 is_stmt 1 view .LVU142
 523              		.loc 1 196 1 is_stmt 0 view .LVU143
 524 0018 7047     		bx	lr
 525              	.LVL62:
 526              	.L32:
 527              	.LBB38:
 528              		.loc 1 190 4 is_stmt 1 view .LVU144
 529              		.loc 1 190 31 is_stmt 0 view .LVU145
 530 001a 034A     		ldr	r2, .L34+4
 531              		.loc 1 190 8 view .LVU146
 532 001c 52F82300 		ldr	r0, [r2, r3, lsl #2]
 533              	.LVL63:
 534              		.loc 1 191 4 is_stmt 1 view .LVU147
 535 0020 7047     		bx	lr
 536              	.L35:
 537 0022 00BF     		.align	2
 538              	.L34:
 539 0024 00000000 		.word	.LANCHOR0
 540 0028 00000000 		.word	.LANCHOR1
 541              	.LBE38:
 542              		.cfi_endproc
 543              	.LFE259:
 544              		.size	flash_helper_get_sector_address, .-flash_helper_get_sector_address
 545              		.section	.rodata.flash_addr,"a"
 546              		.align	2
 547              		.set	.LANCHOR1,. + 0
 548              		.type	flash_addr, %object
 549              		.size	flash_addr, 48
 550              	flash_addr:
 551 0000 00000008 		.word	134217728
 552 0004 00400008 		.word	134234112
 553 0008 00800008 		.word	134250496
 554 000c 00C00008 		.word	134266880
 555 0010 00000108 		.word	134283264
 556 0014 00000208 		.word	134348800
 557 0018 00000408 		.word	134479872
 558 001c 00000608 		.word	134610944
 559 0020 00000808 		.word	134742016
 560 0024 00000A08 		.word	134873088
 561 0028 00000C08 		.word	135004160
 562 002c 00000E08 		.word	135135232
 563              		.section	.rodata.flash_sector,"a"
 564              		.align	2
 565              		.set	.LANCHOR0,. + 0
 566              		.type	flash_sector, %object
 567              		.size	flash_sector, 24
 568              	flash_sector:
 569 0000 0000     		.short	0
 570 0002 0800     		.short	8
ARM GAS  C:\Users\USER\AppData\Local\Temp\ccQ8fdJD.s 			page 11


 571 0004 1000     		.short	16
 572 0006 1800     		.short	24
 573 0008 2000     		.short	32
 574 000a 2800     		.short	40
 575 000c 3000     		.short	48
 576 000e 3800     		.short	56
 577 0010 4000     		.short	64
 578 0012 4800     		.short	72
 579 0014 5000     		.short	80
 580 0016 5800     		.short	88
 581              		.text
 582              	.Letext0:
 583              		.file 5 "c:\\program files (x86)\\gnu tools arm embedded\\8 2018-q4-major\\arm-none-eabi\\include\
 584              		.file 6 "c:\\program files (x86)\\gnu tools arm embedded\\8 2018-q4-major\\arm-none-eabi\\include\
 585              		.file 7 "c:\\program files (x86)\\gnu tools arm embedded\\8 2018-q4-major\\lib\\gcc\\arm-none-eabi
 586              		.file 8 "src/ChibiOS_3.0.2/os/rt/ports/ARMCMx/compilers/GCC/chtypes.h"
 587              		.file 9 "src/ChibiOS_3.0.2/os/rt/include/chsystypes.h"
 588              		.file 10 "src/ChibiOS_3.0.2/os/rt/include/chschd.h"
 589              		.file 11 "src/ChibiOS_3.0.2/os/ext/CMSIS/include/core_cm4.h"
 590              		.file 12 "src/ChibiOS_3.0.2/os/ext/CMSIS/ST/system_stm32f4xx.h"
 591              		.file 13 "src/ChibiOS_3.0.2/os/ext/CMSIS/ST/stm32f407xx.h"
 592              		.file 14 "src/ChibiOS_3.0.2/os/rt/ports/ARMCMx/chcore.h"
 593              		.file 15 "src/ChibiOS_3.0.2/os/rt/include/chtm.h"
 594              		.file 16 "src/ChibiOS_3.0.2/os/rt/include/chsem.h"
 595              		.file 17 "src/ChibiOS_3.0.2/os/rt/include/chmtx.h"
 596              		.file 18 "src/ChibiOS_3.0.2/os/rt/include/chregistry.h"
 597              		.file 19 "src/ChibiOS_3.0.2/os/rt/include/chevents.h"
 598              		.file 20 "src/ChibiOS_3.0.2/os/rt/include/chqueues.h"
 599              		.file 21 "src/ChibiOS_3.0.2/os/hal/ports/STM32/STM32F4xx/stm32_dma.h"
 600              		.file 22 "src/ChibiOS_3.0.2/os/hal/ports/STM32/LLD/GPIOv2/pal_lld.h"
 601              		.file 23 "src/ChibiOS_3.0.2/os/ext/CMSIS/ST/stm32f4xx.h"
 602              		.file 24 "src/ChibiOS_3.0.2/os/hal/include/can.h"
 603              		.file 25 "src/ChibiOS_3.0.2/os/hal/ports/STM32/LLD/can_lld.h"
 604              		.file 26 "src/ChibiOS_3.0.2/os/hal/include/i2c.h"
 605              		.file 27 "src/ChibiOS_3.0.2/os/hal/ports/STM32/LLD/I2Cv1/i2c_lld.h"
 606              		.file 28 "src/ChibiOS_3.0.2/os/hal/include/icu.h"
 607              		.file 29 "src/ChibiOS_3.0.2/os/hal/ports/STM32/LLD/TIMv1/icu_lld.h"
 608              		.file 30 "src/ChibiOS_3.0.2/os/hal/ports/STM32/LLD/TIMv1/stm32_tim.h"
 609              		.file 31 "src/ChibiOS_3.0.2/os/hal/include/serial.h"
 610              		.file 32 "src/ChibiOS_3.0.2/os/hal/ports/STM32/LLD/USARTv1/serial_lld.h"
 611              		.file 33 "src/ChibiOS_3.0.2/os/hal/include/spi.h"
 612              		.file 34 "src/ChibiOS_3.0.2/os/hal/ports/STM32/LLD/SPIv1/spi_lld.h"
 613              		.file 35 "src/ChibiOS_3.0.2/os/hal/include/uart.h"
 614              		.file 36 "src/ChibiOS_3.0.2/os/hal/ports/STM32/LLD/USARTv1/uart_lld.h"
 615              		.file 37 "src/ChibiOS_3.0.2/os/hal/include/usb.h"
 616              		.file 38 "src/ChibiOS_3.0.2/os/hal/ports/STM32/LLD/OTGv1/usb_lld.h"
 617              		.file 39 "src/ChibiOS_3.0.2/os/hal/ports/STM32/LLD/OTGv1/stm32_otg.h"
 618              		.file 40 "src/ChibiOS_3.0.2/ext/stdperiph_stm32f4/inc/stm32f4xx_flash.h"
 619              		.file 41 "src/hw_oroca.h"
 620              		.file 42 "c:\\program files (x86)\\gnu tools arm embedded\\8 2018-q4-major\\arm-none-eabi\\include
 621              		.file 43 "c:\\program files (x86)\\gnu tools arm embedded\\8 2018-q4-major\\arm-none-eabi\\include
 622              		.file 44 "c:\\program files (x86)\\gnu tools arm embedded\\8 2018-q4-major\\arm-none-eabi\\include
 623              		.file 45 "src/mc/mc_interface.h"
 624              		.file 46 "src/ChibiOS_3.0.2/ext/stdperiph_stm32f4/inc/stm32f4xx_rcc.h"
 625              		.file 47 "src/core/utils.h"