ARM GAS  C:\Users\USER\AppData\Local\Temp\ccb82pdV.s 			page 1


   1              		.cpu cortex-m4
   2              		.eabi_attribute 27, 1
   3              		.eabi_attribute 28, 1
   4              		.eabi_attribute 20, 1
   5              		.eabi_attribute 21, 1
   6              		.eabi_attribute 23, 3
   7              		.eabi_attribute 24, 1
   8              		.eabi_attribute 25, 1
   9              		.eabi_attribute 26, 1
  10              		.eabi_attribute 30, 2
  11              		.eabi_attribute 34, 1
  12              		.eabi_attribute 18, 4
  13              		.file	"hal.c"
  14              		.text
  15              	.Ltext0:
  16              		.cfi_sections	.debug_frame
  17              		.section	.text.halInit,"ax",%progbits
  18              		.align	1
  19              		.p2align 4,,15
  20              		.global	halInit
  21              		.arch armv7e-m
  22              		.syntax unified
  23              		.thumb
  24              		.thumb_func
  25              		.fpu fpv4-sp-d16
  26              		.type	halInit, %function
  27              	halInit:
  28              	.LFB256:
  29              		.file 1 "src/ChibiOS_3.0.2/os/hal/src/hal.c"
  30              		.loc 1 56 20 view -0
  31              		.cfi_startproc
  32              		@ args = 0, pretend = 0, frame = 0
  33              		@ frame_needed = 0, uses_anonymous_args = 0
  34              		.loc 1 59 3 view .LVU1
  35              		.file 2 "src/ChibiOS_3.0.2/os/hal/osal/rt/osal.h"
  36              		.loc 2 451 1 view .LVU2
  37              		.loc 1 62 3 view .LVU3
  38              		.loc 1 56 20 is_stmt 0 view .LVU4
  39 0000 08B5     		push	{r3, lr}
  40              		.cfi_def_cfa_offset 8
  41              		.cfi_offset 3, -8
  42              		.cfi_offset 14, -4
  43              		.loc 1 62 3 view .LVU5
  44 0002 FFF7FEFF 		bl	hal_lld_init
  45              	.LVL0:
  46              		.loc 1 65 3 is_stmt 1 view .LVU6
  47 0006 0C48     		ldr	r0, .L4
  48 0008 FFF7FEFF 		bl	_pal_lld_init
  49              	.LVL1:
  50              		.loc 1 71 3 view .LVU7
  51 000c FFF7FEFF 		bl	canInit
  52              	.LVL2:
  53              		.loc 1 83 3 view .LVU8
  54 0010 FFF7FEFF 		bl	i2cInit
  55              	.LVL3:
  56              		.loc 1 89 3 view .LVU9
  57 0014 FFF7FEFF 		bl	icuInit
ARM GAS  C:\Users\USER\AppData\Local\Temp\ccb82pdV.s 			page 2


  58              	.LVL4:
  59              		.loc 1 98 3 view .LVU10
  60 0018 FFF7FEFF 		bl	sdInit
  61              	.LVL5:
  62              		.loc 1 104 3 view .LVU11
  63 001c FFF7FEFF 		bl	spiInit
  64              	.LVL6:
  65              		.loc 1 107 3 view .LVU12
  66 0020 FFF7FEFF 		bl	uartInit
  67              	.LVL7:
  68              		.loc 1 110 3 view .LVU13
  69 0024 FFF7FEFF 		bl	usbInit
  70              	.LVL8:
  71              		.loc 1 116 3 view .LVU14
  72 0028 FFF7FEFF 		bl	sduInit
  73              	.LVL9:
  74              		.loc 1 130 3 view .LVU15
  75 002c FFF7FEFF 		bl	boardInit
  76              	.LVL10:
  77              		.loc 1 137 3 view .LVU16
  78              		.loc 1 139 1 is_stmt 0 view .LVU17
  79 0030 BDE80840 		pop	{r3, lr}
  80              		.cfi_restore 14
  81              		.cfi_restore 3
  82              		.cfi_def_cfa_offset 0
  83              		.loc 1 137 3 view .LVU18
  84 0034 FFF7FEBF 		b	stInit
  85              	.LVL11:
  86              	.L5:
  87              		.align	2
  88              	.L4:
  89 0038 00000000 		.word	pal_default_config
  90              		.cfi_endproc
  91              	.LFE256:
  92              		.size	halInit, .-halInit
  93              		.text
  94              	.Letext0:
  95              		.file 3 "c:\\program files (x86)\\gnu tools arm embedded\\8 2018-q4-major\\lib\\gcc\\arm-none-eabi
  96              		.file 4 "c:\\program files (x86)\\gnu tools arm embedded\\8 2018-q4-major\\arm-none-eabi\\include\
  97              		.file 5 "c:\\program files (x86)\\gnu tools arm embedded\\8 2018-q4-major\\arm-none-eabi\\include\
  98              		.file 6 "src/ChibiOS_3.0.2/os/rt/ports/ARMCMx/compilers/GCC/chtypes.h"
  99              		.file 7 "src/ChibiOS_3.0.2/os/rt/include/chsystypes.h"
 100              		.file 8 "src/ChibiOS_3.0.2/os/rt/include/chschd.h"
 101              		.file 9 "src/ChibiOS_3.0.2/os/ext/CMSIS/include/core_cm4.h"
 102              		.file 10 "src/ChibiOS_3.0.2/os/ext/CMSIS/ST/system_stm32f4xx.h"
 103              		.file 11 "src/ChibiOS_3.0.2/os/ext/CMSIS/ST/stm32f407xx.h"
 104              		.file 12 "src/ChibiOS_3.0.2/os/rt/ports/ARMCMx/chcore.h"
 105              		.file 13 "src/ChibiOS_3.0.2/os/rt/ports/ARMCMx/chcore_v7m.h"
 106              		.file 14 "src/ChibiOS_3.0.2/os/rt/include/chtm.h"
 107              		.file 15 "src/ChibiOS_3.0.2/os/rt/include/chsem.h"
 108              		.file 16 "src/ChibiOS_3.0.2/os/rt/include/chmtx.h"
 109              		.file 17 "src/ChibiOS_3.0.2/os/rt/include/chregistry.h"
 110              		.file 18 "src/ChibiOS_3.0.2/os/rt/include/chevents.h"
 111              		.file 19 "src/ChibiOS_3.0.2/os/rt/include/chqueues.h"
 112              		.file 20 "src/ChibiOS_3.0.2/os/hal/ports/STM32/STM32F4xx/stm32_dma.h"
 113              		.file 21 "src/ChibiOS_3.0.2/os/hal/ports/STM32/LLD/GPIOv2/pal_lld.h"
 114              		.file 22 "src/ChibiOS_3.0.2/os/hal/include/can.h"
ARM GAS  C:\Users\USER\AppData\Local\Temp\ccb82pdV.s 			page 3


 115              		.file 23 "src/ChibiOS_3.0.2/os/hal/ports/STM32/LLD/can_lld.h"
 116              		.file 24 "src/ChibiOS_3.0.2/os/hal/include/i2c.h"
 117              		.file 25 "src/ChibiOS_3.0.2/os/hal/ports/STM32/LLD/I2Cv1/i2c_lld.h"
 118              		.file 26 "src/ChibiOS_3.0.2/os/hal/include/icu.h"
 119              		.file 27 "src/ChibiOS_3.0.2/os/hal/ports/STM32/LLD/TIMv1/icu_lld.h"
 120              		.file 28 "src/ChibiOS_3.0.2/os/hal/ports/STM32/LLD/TIMv1/stm32_tim.h"
 121              		.file 29 "src/ChibiOS_3.0.2/os/hal/include/serial.h"
 122              		.file 30 "src/ChibiOS_3.0.2/os/hal/ports/STM32/LLD/USARTv1/serial_lld.h"
 123              		.file 31 "src/ChibiOS_3.0.2/os/hal/include/spi.h"
 124              		.file 32 "src/ChibiOS_3.0.2/os/hal/ports/STM32/LLD/SPIv1/spi_lld.h"
 125              		.file 33 "src/ChibiOS_3.0.2/os/hal/include/uart.h"
 126              		.file 34 "src/ChibiOS_3.0.2/os/hal/ports/STM32/LLD/USARTv1/uart_lld.h"
 127              		.file 35 "src/ChibiOS_3.0.2/os/hal/include/usb.h"
 128              		.file 36 "src/ChibiOS_3.0.2/os/hal/ports/STM32/LLD/OTGv1/usb_lld.h"
 129              		.file 37 "src/ChibiOS_3.0.2/os/hal/ports/STM32/LLD/OTGv1/stm32_otg.h"
 130              		.file 38 "src/ChibiOS_3.0.2/os/hal/ports/STM32/STM32F4xx/hal_lld.h"
 131              		.file 39 "src/ChibiOS_3.0.2/os/hal/include/serial_usb.h"
 132              		.file 40 "src/ChibiOS_3.0.2/os/hal/boards/ST_STM32F4_DISCOVERY/board.h"
 133              		.file 41 "src/ChibiOS_3.0.2/os/hal/include/st.h"