ARM GAS  C:\Users\IDONNO~1\AppData\Local\Temp\ccqkORGP.s 			page 1


   1              		.syntax unified
   2              		.cpu cortex-m4
   3              		.eabi_attribute 27, 1
   4              		.eabi_attribute 28, 1
   5              		.fpu fpv4-sp-d16
   6              		.eabi_attribute 20, 1
   7              		.eabi_attribute 21, 1
   8              		.eabi_attribute 23, 3
   9              		.eabi_attribute 24, 1
  10              		.eabi_attribute 25, 1
  11              		.eabi_attribute 26, 1
  12              		.eabi_attribute 30, 2
  13              		.eabi_attribute 34, 1
  14              		.eabi_attribute 18, 4
  15              		.thumb
  16              		.syntax unified
  17              		.file	"hw_oroca.c"
  18              		.text
  19              	.Ltext0:
  20              		.cfi_sections	.debug_frame
  21              		.section	.text.hw_init_gpio,"ax",%progbits
  22              		.align	2
  23              		.p2align 4,,15
  24              		.global	hw_init_gpio
  25              		.thumb
  26              		.thumb_func
  27              		.type	hw_init_gpio, %function
  28              	hw_init_gpio:
  29              	.LFB256:
  30              		.file 1 "src/hw_oroca.c"
  31              		.loc 1 48 0
  32              		.cfi_startproc
  33              		@ args = 0, pretend = 0, frame = 0
  34              		@ frame_needed = 0, uses_anonymous_args = 0
  35              		.loc 1 50 0
  36 0000 0121     		movs	r1, #1
  37              		.loc 1 48 0
  38 0002 2DE9F843 		push	{r3, r4, r5, r6, r7, r8, r9, lr}
  39              		.cfi_def_cfa_offset 32
  40              		.cfi_offset 3, -32
  41              		.cfi_offset 4, -28
  42              		.cfi_offset 5, -24
  43              		.cfi_offset 6, -20
  44              		.cfi_offset 7, -16
  45              		.cfi_offset 8, -12
  46              		.cfi_offset 9, -8
  47              		.cfi_offset 14, -4
  48              		.loc 1 50 0
  49 0006 0846     		mov	r0, r1
  50              		.loc 1 55 0
  51 0008 4B4C     		ldr	r4, .L3
  52              		.loc 1 67 0
  53 000a 4C4E     		ldr	r6, .L3+4
  54              		.loc 1 70 0
  55 000c 4C4D     		ldr	r5, .L3+8
  56              		.loc 1 50 0
  57 000e FFF7FEFF 		bl	RCC_AHB1PeriphClockCmd
ARM GAS  C:\Users\IDONNO~1\AppData\Local\Temp\ccqkORGP.s 			page 2


  58              	.LVL0:
  59              		.loc 1 51 0
  60 0012 0121     		movs	r1, #1
  61 0014 0220     		movs	r0, #2
  62 0016 FFF7FEFF 		bl	RCC_AHB1PeriphClockCmd
  63              	.LVL1:
  64              		.loc 1 52 0
  65 001a 0121     		movs	r1, #1
  66 001c 0420     		movs	r0, #4
  67 001e FFF7FEFF 		bl	RCC_AHB1PeriphClockCmd
  68              	.LVL2:
  69              		.loc 1 58 0
  70 0022 2027     		movs	r7, #32
  71              		.loc 1 55 0
  72 0024 2046     		mov	r0, r4
  73 0026 1922     		movs	r2, #25
  74 0028 1021     		movs	r1, #16
  75 002a FFF7FEFF 		bl	_pal_lld_setgroupmode
  76              	.LVL3:
  77              		.loc 1 64 0
  78 002e 4FF48069 		mov	r9, #1024
  79              		.loc 1 56 0
  80 0032 2046     		mov	r0, r4
  81 0034 3946     		mov	r1, r7
  82              		.loc 1 59 0
  83 0036 4FF01008 		mov	r8, #16
  84              		.loc 1 56 0
  85 003a 1922     		movs	r2, #25
  86 003c FFF7FEFF 		bl	_pal_lld_setgroupmode
  87              	.LVL4:
  88              		.loc 1 58 0
  89 0040 6783     		strh	r7, [r4, #26]	@ movhi
  90              		.loc 1 63 0
  91 0042 2046     		mov	r0, r4
  92 0044 4946     		mov	r1, r9
  93              		.loc 1 59 0
  94 0046 A4F81A80 		strh	r8, [r4, #26]	@ movhi
  95              		.loc 1 63 0
  96 004a 1922     		movs	r2, #25
  97 004c FFF7FEFF 		bl	_pal_lld_setgroupmode
  98              	.LVL5:
  99              		.loc 1 67 0
 100 0050 3046     		mov	r0, r6
 101              		.loc 1 64 0
 102 0052 A4F81A90 		strh	r9, [r4, #26]	@ movhi
 103              		.loc 1 67 0
 104 0056 1922     		movs	r2, #25
 105 0058 4FF48051 		mov	r1, #4096
 106 005c FFF7FEFF 		bl	_pal_lld_setgroupmode
 107              	.LVL6:
 108              		.loc 1 70 0
 109 0060 2846     		mov	r0, r5
 110 0062 9A22     		movs	r2, #154
 111 0064 4FF48071 		mov	r1, #256
 112 0068 FFF7FEFF 		bl	_pal_lld_setgroupmode
 113              	.LVL7:
 114              		.loc 1 71 0
ARM GAS  C:\Users\IDONNO~1\AppData\Local\Temp\ccqkORGP.s 			page 3


 115 006c 2846     		mov	r0, r5
 116 006e 9A22     		movs	r2, #154
 117 0070 4FF40071 		mov	r1, #512
 118 0074 FFF7FEFF 		bl	_pal_lld_setgroupmode
 119              	.LVL8:
 120              		.loc 1 72 0
 121 0078 4946     		mov	r1, r9
 122 007a 2846     		mov	r0, r5
 123 007c 9A22     		movs	r2, #154
 124 007e FFF7FEFF 		bl	_pal_lld_setgroupmode
 125              	.LVL9:
 126              		.loc 1 74 0
 127 0082 3046     		mov	r0, r6
 128 0084 9A22     		movs	r2, #154
 129 0086 4FF40051 		mov	r1, #8192
 130 008a FFF7FEFF 		bl	_pal_lld_setgroupmode
 131              	.LVL10:
 132              		.loc 1 75 0
 133 008e 3046     		mov	r0, r6
 134 0090 9A22     		movs	r2, #154
 135 0092 4FF48041 		mov	r1, #16384
 136 0096 FFF7FEFF 		bl	_pal_lld_setgroupmode
 137              	.LVL11:
 138              		.loc 1 76 0
 139 009a 3046     		mov	r0, r6
 140 009c 9A22     		movs	r2, #154
 141 009e 4FF40041 		mov	r1, #32768
 142 00a2 FFF7FEFF 		bl	_pal_lld_setgroupmode
 143              	.LVL12:
 144              		.loc 1 84 0
 145 00a6 3A46     		mov	r2, r7
 146 00a8 2046     		mov	r0, r4
 147 00aa 4FF48051 		mov	r1, #4096
 148 00ae FFF7FEFF 		bl	_pal_lld_setgroupmode
 149              	.LVL13:
 150              		.loc 1 87 0
 151 00b2 2846     		mov	r0, r5
 152 00b4 0322     		movs	r2, #3
 153 00b6 0121     		movs	r1, #1
 154 00b8 FFF7FEFF 		bl	_pal_lld_setgroupmode
 155              	.LVL14:
 156              		.loc 1 88 0
 157 00bc 2846     		mov	r0, r5
 158 00be 0322     		movs	r2, #3
 159 00c0 0221     		movs	r1, #2
 160 00c2 FFF7FEFF 		bl	_pal_lld_setgroupmode
 161              	.LVL15:
 162              		.loc 1 89 0
 163 00c6 2846     		mov	r0, r5
 164 00c8 0322     		movs	r2, #3
 165 00ca 0421     		movs	r1, #4
 166 00cc FFF7FEFF 		bl	_pal_lld_setgroupmode
 167              	.LVL16:
 168              		.loc 1 90 0
 169 00d0 2846     		mov	r0, r5
 170 00d2 0322     		movs	r2, #3
 171 00d4 0821     		movs	r1, #8
ARM GAS  C:\Users\IDONNO~1\AppData\Local\Temp\ccqkORGP.s 			page 4


 172 00d6 FFF7FEFF 		bl	_pal_lld_setgroupmode
 173              	.LVL17:
 174              		.loc 1 91 0
 175 00da 4146     		mov	r1, r8
 176 00dc 2846     		mov	r0, r5
 177 00de 0322     		movs	r2, #3
 178 00e0 FFF7FEFF 		bl	_pal_lld_setgroupmode
 179              	.LVL18:
 180              		.loc 1 92 0
 181 00e4 3946     		mov	r1, r7
 182 00e6 2846     		mov	r0, r5
 183 00e8 0322     		movs	r2, #3
 184 00ea FFF7FEFF 		bl	_pal_lld_setgroupmode
 185              	.LVL19:
 186              		.loc 1 93 0
 187 00ee 2846     		mov	r0, r5
 188 00f0 0322     		movs	r2, #3
 189 00f2 4021     		movs	r1, #64
 190 00f4 FFF7FEFF 		bl	_pal_lld_setgroupmode
 191              	.LVL20:
 192              		.loc 1 95 0
 193 00f8 3046     		mov	r0, r6
 194 00fa 0322     		movs	r2, #3
 195 00fc 0121     		movs	r1, #1
 196 00fe FFF7FEFF 		bl	_pal_lld_setgroupmode
 197              	.LVL21:
 198              		.loc 1 96 0
 199 0102 3046     		mov	r0, r6
 200 0104 0322     		movs	r2, #3
 201 0106 0221     		movs	r1, #2
 202 0108 FFF7FEFF 		bl	_pal_lld_setgroupmode
 203              	.LVL22:
 204              		.loc 1 98 0
 205 010c 2046     		mov	r0, r4
 206 010e 0322     		movs	r2, #3
 207 0110 0121     		movs	r1, #1
 208 0112 FFF7FEFF 		bl	_pal_lld_setgroupmode
 209              	.LVL23:
 210              		.loc 1 99 0
 211 0116 2046     		mov	r0, r4
 212 0118 0322     		movs	r2, #3
 213 011a 0221     		movs	r1, #2
 214 011c FFF7FEFF 		bl	_pal_lld_setgroupmode
 215              	.LVL24:
 216              		.loc 1 100 0
 217 0120 2046     		mov	r0, r4
 218 0122 0322     		movs	r2, #3
 219 0124 0421     		movs	r1, #4
 220 0126 FFF7FEFF 		bl	_pal_lld_setgroupmode
 221              	.LVL25:
 222              		.loc 1 101 0
 223 012a 2046     		mov	r0, r4
 224 012c 0322     		movs	r2, #3
 225 012e 0821     		movs	r1, #8
 226              		.loc 1 102 0
 227 0130 BDE8F843 		pop	{r3, r4, r5, r6, r7, r8, r9, lr}
 228              		.cfi_restore 14
ARM GAS  C:\Users\IDONNO~1\AppData\Local\Temp\ccqkORGP.s 			page 5


 229              		.cfi_restore 9
 230              		.cfi_restore 8
 231              		.cfi_restore 7
 232              		.cfi_restore 6
 233              		.cfi_restore 5
 234              		.cfi_restore 4
 235              		.cfi_restore 3
 236              		.cfi_def_cfa_offset 0
 237              		.loc 1 101 0
 238 0134 FFF7FEBF 		b	_pal_lld_setgroupmode
 239              	.LVL26:
 240              	.L4:
 241              		.align	2
 242              	.L3:
 243 0138 00080240 		.word	1073874944
 244 013c 00040240 		.word	1073873920
 245 0140 00000240 		.word	1073872896
 246              		.cfi_endproc
 247              	.LFE256:
 248              		.size	hw_init_gpio, .-hw_init_gpio
 249              		.section	.text.hw_setup_adc_channels,"ax",%progbits
 250              		.align	2
 251              		.p2align 4,,15
 252              		.global	hw_setup_adc_channels
 253              		.thumb
 254              		.thumb_func
 255              		.type	hw_setup_adc_channels, %function
 256              	hw_setup_adc_channels:
 257              	.LFB257:
 258              		.loc 1 104 0
 259              		.cfi_startproc
 260              		@ args = 0, pretend = 0, frame = 0
 261              		@ frame_needed = 0, uses_anonymous_args = 0
 262 0000 70B5     		push	{r4, r5, r6, lr}
 263              		.cfi_def_cfa_offset 16
 264              		.cfi_offset 4, -16
 265              		.cfi_offset 5, -12
 266              		.cfi_offset 6, -8
 267              		.cfi_offset 14, -4
 268              		.loc 1 106 0
 269 0002 264E     		ldr	r6, .L7
 270              		.loc 1 112 0
 271 0004 264D     		ldr	r5, .L7+4
 272              		.loc 1 118 0
 273 0006 274C     		ldr	r4, .L7+8
 274              		.loc 1 106 0
 275 0008 0123     		movs	r3, #1
 276 000a 3046     		mov	r0, r6
 277 000c 1A46     		mov	r2, r3
 278 000e 0021     		movs	r1, #0
 279 0010 FFF7FEFF 		bl	ADC_RegularChannelConfig
 280              	.LVL27:
 281              		.loc 1 107 0
 282 0014 3046     		mov	r0, r6
 283 0016 0123     		movs	r3, #1
 284 0018 0222     		movs	r2, #2
 285 001a 0821     		movs	r1, #8
ARM GAS  C:\Users\IDONNO~1\AppData\Local\Temp\ccqkORGP.s 			page 6


 286 001c FFF7FEFF 		bl	ADC_RegularChannelConfig
 287              	.LVL28:
 288              		.loc 1 108 0
 289 0020 3046     		mov	r0, r6
 290 0022 0123     		movs	r3, #1
 291 0024 0322     		movs	r2, #3
 292 0026 1121     		movs	r1, #17
 293 0028 FFF7FEFF 		bl	ADC_RegularChannelConfig
 294              	.LVL29:
 295              		.loc 1 109 0
 296 002c 0422     		movs	r2, #4
 297 002e 3046     		mov	r0, r6
 298 0030 1146     		mov	r1, r2
 299 0032 0123     		movs	r3, #1
 300 0034 FFF7FEFF 		bl	ADC_RegularChannelConfig
 301              	.LVL30:
 302              		.loc 1 112 0
 303 0038 0123     		movs	r3, #1
 304 003a 2846     		mov	r0, r5
 305 003c 1A46     		mov	r2, r3
 306 003e 1946     		mov	r1, r3
 307 0040 FFF7FEFF 		bl	ADC_RegularChannelConfig
 308              	.LVL31:
 309              		.loc 1 113 0
 310 0044 2846     		mov	r0, r5
 311 0046 0123     		movs	r3, #1
 312 0048 0222     		movs	r2, #2
 313 004a 0921     		movs	r1, #9
 314 004c FFF7FEFF 		bl	ADC_RegularChannelConfig
 315              	.LVL32:
 316              		.loc 1 114 0
 317 0050 2846     		mov	r0, r5
 318 0052 0123     		movs	r3, #1
 319 0054 0322     		movs	r2, #3
 320 0056 0621     		movs	r1, #6
 321 0058 FFF7FEFF 		bl	ADC_RegularChannelConfig
 322              	.LVL33:
 323              		.loc 1 115 0
 324 005c 2846     		mov	r0, r5
 325 005e 0123     		movs	r3, #1
 326 0060 0422     		movs	r2, #4
 327 0062 0521     		movs	r1, #5
 328 0064 FFF7FEFF 		bl	ADC_RegularChannelConfig
 329              	.LVL34:
 330              		.loc 1 118 0
 331 0068 0123     		movs	r3, #1
 332 006a 2046     		mov	r0, r4
 333 006c 1A46     		mov	r2, r3
 334 006e 0221     		movs	r1, #2
 335 0070 FFF7FEFF 		bl	ADC_RegularChannelConfig
 336              	.LVL35:
 337              		.loc 1 119 0
 338 0074 2046     		mov	r0, r4
 339 0076 0123     		movs	r3, #1
 340 0078 0222     		movs	r2, #2
 341 007a 0321     		movs	r1, #3
 342 007c FFF7FEFF 		bl	ADC_RegularChannelConfig
ARM GAS  C:\Users\IDONNO~1\AppData\Local\Temp\ccqkORGP.s 			page 7


 343              	.LVL36:
 344              		.loc 1 120 0
 345 0080 2046     		mov	r0, r4
 346 0082 0123     		movs	r3, #1
 347 0084 0322     		movs	r2, #3
 348 0086 0C21     		movs	r1, #12
 349 0088 FFF7FEFF 		bl	ADC_RegularChannelConfig
 350              	.LVL37:
 351              		.loc 1 121 0
 352 008c 2046     		mov	r0, r4
 353 008e 0123     		movs	r3, #1
 354 0090 0422     		movs	r2, #4
 355 0092 0321     		movs	r1, #3
 356              		.loc 1 128 0
 357 0094 BDE87040 		pop	{r4, r5, r6, lr}
 358              		.cfi_restore 14
 359              		.cfi_restore 6
 360              		.cfi_restore 5
 361              		.cfi_restore 4
 362              		.cfi_def_cfa_offset 0
 363              		.loc 1 121 0
 364 0098 FFF7FEBF 		b	ADC_RegularChannelConfig
 365              	.LVL38:
 366              	.L8:
 367              		.align	2
 368              	.L7:
 369 009c 00200140 		.word	1073815552
 370 00a0 00210140 		.word	1073815808
 371 00a4 00220140 		.word	1073816064
 372              		.cfi_endproc
 373              	.LFE257:
 374              		.size	hw_setup_adc_channels, .-hw_setup_adc_channels
 375              		.section	.text.hw_setup_servo_outputs,"ax",%progbits
 376              		.align	2
 377              		.p2align 4,,15
 378              		.global	hw_setup_servo_outputs
 379              		.thumb
 380              		.thumb_func
 381              		.type	hw_setup_servo_outputs, %function
 382              	hw_setup_servo_outputs:
 383              	.LFB258:
 384              		.loc 1 130 0
 385              		.cfi_startproc
 386              		@ args = 0, pretend = 0, frame = 0
 387              		@ frame_needed = 0, uses_anonymous_args = 0
 388 0000 38B5     		push	{r3, r4, r5, lr}
 389              		.cfi_def_cfa_offset 16
 390              		.cfi_offset 3, -16
 391              		.cfi_offset 4, -12
 392              		.cfi_offset 5, -8
 393              		.cfi_offset 14, -4
 394              		.loc 1 132 0
 395 0002 0121     		movs	r1, #1
 396 0004 0220     		movs	r0, #2
 397 0006 FFF7FEFF 		bl	RCC_AHB1PeriphClockCmd
 398              	.LVL39:
 399              		.loc 1 135 0
ARM GAS  C:\Users\IDONNO~1\AppData\Local\Temp\ccqkORGP.s 			page 8


 400 000a 074B     		ldr	r3, .L11
 401 000c 0749     		ldr	r1, .L11+4
 402 000e 5960     		str	r1, [r3, #4]
 403              		.loc 1 137 0
 404 0010 0022     		movs	r2, #0
 405              		.loc 1 136 0
 406 0012 0525     		movs	r5, #5
 407              		.loc 1 138 0
 408 0014 8024     		movs	r4, #128
 409              		.loc 1 141 0
 410 0016 0420     		movs	r0, #4
 411              		.loc 1 136 0
 412 0018 9D60     		str	r5, [r3, #8]
 413              		.loc 1 137 0
 414 001a 9A70     		strb	r2, [r3, #2]
 415              		.loc 1 138 0
 416 001c 1C80     		strh	r4, [r3]	@ movhi
 417              		.loc 1 140 0
 418 001e 1961     		str	r1, [r3, #16]
 419              		.loc 1 141 0
 420 0020 5861     		str	r0, [r3, #20]
 421              		.loc 1 142 0
 422 0022 9A73     		strb	r2, [r3, #14]
 423              		.loc 1 143 0
 424 0024 9A81     		strh	r2, [r3, #12]	@ movhi
 425 0026 38BD     		pop	{r3, r4, r5, pc}
 426              	.L12:
 427              		.align	2
 428              	.L11:
 429 0028 00000000 		.word	servos
 430 002c 00040240 		.word	1073873920
 431              		.cfi_endproc
 432              	.LFE258:
 433              		.size	hw_setup_servo_outputs, .-hw_setup_servo_outputs
 434              		.section	.text.hw_start_i2c,"ax",%progbits
 435              		.align	2
 436              		.p2align 4,,15
 437              		.global	hw_start_i2c
 438              		.thumb
 439              		.thumb_func
 440              		.type	hw_start_i2c, %function
 441              	hw_start_i2c:
 442              	.LFB259:
 443              		.loc 1 146 0
 444              		.cfi_startproc
 445              		@ args = 0, pretend = 0, frame = 0
 446              		@ frame_needed = 0, uses_anonymous_args = 0
 447 0000 10B5     		push	{r4, lr}
 448              		.cfi_def_cfa_offset 8
 449              		.cfi_offset 4, -8
 450              		.cfi_offset 14, -4
 451              		.loc 1 149 0
 452 0002 0F4C     		ldr	r4, .L17
 453              		.loc 1 147 0
 454 0004 0F48     		ldr	r0, .L17+4
 455 0006 FFF7FEFF 		bl	i2cAcquireBus
 456              	.LVL40:
ARM GAS  C:\Users\IDONNO~1\AppData\Local\Temp\ccqkORGP.s 			page 9


 457              		.loc 1 149 0
 458 000a 2378     		ldrb	r3, [r4]	@ zero_extendqisi2
 459 000c 9BB9     		cbnz	r3, .L14
 460              		.loc 1 150 0
 461 000e 40F22E22 		movw	r2, #558
 462 0012 4FF48061 		mov	r1, #1024
 463 0016 0C48     		ldr	r0, .L17+8
 464 0018 FFF7FEFF 		bl	_pal_lld_setgroupmode
 465              	.LVL41:
 466              		.loc 1 151 0
 467 001c 40F22E22 		movw	r2, #558
 468 0020 4FF40061 		mov	r1, #2048
 469 0024 0848     		ldr	r0, .L17+8
 470 0026 FFF7FEFF 		bl	_pal_lld_setgroupmode
 471              	.LVL42:
 472              		.loc 1 153 0
 473 002a 0849     		ldr	r1, .L17+12
 474 002c 0548     		ldr	r0, .L17+4
 475 002e FFF7FEFF 		bl	i2cStart
 476              	.LVL43:
 477              		.loc 1 154 0
 478 0032 0123     		movs	r3, #1
 479 0034 2370     		strb	r3, [r4]
 480              	.L14:
 481              		.loc 1 157 0
 482 0036 0348     		ldr	r0, .L17+4
 483              		.loc 1 158 0
 484 0038 BDE81040 		pop	{r4, lr}
 485              		.cfi_restore 14
 486              		.cfi_restore 4
 487              		.cfi_def_cfa_offset 0
 488              		.loc 1 157 0
 489 003c FFF7FEBF 		b	i2cReleaseBus
 490              	.LVL44:
 491              	.L18:
 492              		.align	2
 493              	.L17:
 494 0040 00000000 		.word	.LANCHOR0
 495 0044 00000000 		.word	I2CD2
 496 0048 00040240 		.word	1073873920
 497 004c 00000000 		.word	.LANCHOR1
 498              		.cfi_endproc
 499              	.LFE259:
 500              		.size	hw_start_i2c, .-hw_start_i2c
 501              		.section	.text.hw_stop_i2c,"ax",%progbits
 502              		.align	2
 503              		.p2align 4,,15
 504              		.global	hw_stop_i2c
 505              		.thumb
 506              		.thumb_func
 507              		.type	hw_stop_i2c, %function
 508              	hw_stop_i2c:
 509              	.LFB260:
 510              		.loc 1 160 0
 511              		.cfi_startproc
 512              		@ args = 0, pretend = 0, frame = 0
 513              		@ frame_needed = 0, uses_anonymous_args = 0
ARM GAS  C:\Users\IDONNO~1\AppData\Local\Temp\ccqkORGP.s 			page 10


 514 0000 10B5     		push	{r4, lr}
 515              		.cfi_def_cfa_offset 8
 516              		.cfi_offset 4, -8
 517              		.cfi_offset 14, -4
 518              		.loc 1 163 0
 519 0002 0E4C     		ldr	r4, .L25
 520              		.loc 1 161 0
 521 0004 0E48     		ldr	r0, .L25+4
 522 0006 FFF7FEFF 		bl	i2cAcquireBus
 523              	.LVL45:
 524              		.loc 1 163 0
 525 000a 2378     		ldrb	r3, [r4]	@ zero_extendqisi2
 526 000c 83B1     		cbz	r3, .L20
 527              		.loc 1 164 0
 528 000e 0022     		movs	r2, #0
 529 0010 4FF48061 		mov	r1, #1024
 530 0014 0B48     		ldr	r0, .L25+8
 531 0016 FFF7FEFF 		bl	_pal_lld_setgroupmode
 532              	.LVL46:
 533              		.loc 1 165 0
 534 001a 0022     		movs	r2, #0
 535 001c 4FF40061 		mov	r1, #2048
 536 0020 0848     		ldr	r0, .L25+8
 537 0022 FFF7FEFF 		bl	_pal_lld_setgroupmode
 538              	.LVL47:
 539              		.loc 1 167 0
 540 0026 0648     		ldr	r0, .L25+4
 541 0028 FFF7FEFF 		bl	i2cStop
 542              	.LVL48:
 543              		.loc 1 168 0
 544 002c 0023     		movs	r3, #0
 545 002e 2370     		strb	r3, [r4]
 546              	.L20:
 547              		.loc 1 172 0
 548 0030 0348     		ldr	r0, .L25+4
 549              		.loc 1 173 0
 550 0032 BDE81040 		pop	{r4, lr}
 551              		.cfi_restore 14
 552              		.cfi_restore 4
 553              		.cfi_def_cfa_offset 0
 554              		.loc 1 172 0
 555 0036 FFF7FEBF 		b	i2cReleaseBus
 556              	.LVL49:
 557              	.L26:
 558 003a 00BF     		.align	2
 559              	.L25:
 560 003c 00000000 		.word	.LANCHOR0
 561 0040 00000000 		.word	I2CD2
 562 0044 00040240 		.word	1073873920
 563              		.cfi_endproc
 564              	.LFE260:
 565              		.size	hw_stop_i2c, .-hw_stop_i2c
 566              		.section	.text.hw_try_restore_i2c,"ax",%progbits
 567              		.align	2
 568              		.p2align 4,,15
 569              		.global	hw_try_restore_i2c
 570              		.thumb
ARM GAS  C:\Users\IDONNO~1\AppData\Local\Temp\ccqkORGP.s 			page 11


 571              		.thumb_func
 572              		.type	hw_try_restore_i2c, %function
 573              	hw_try_restore_i2c:
 574              	.LFB261:
 575              		.loc 1 178 0
 576              		.cfi_startproc
 577              		@ args = 0, pretend = 0, frame = 0
 578              		@ frame_needed = 0, uses_anonymous_args = 0
 579 0000 2DE9F843 		push	{r3, r4, r5, r6, r7, r8, r9, lr}
 580              		.cfi_def_cfa_offset 32
 581              		.cfi_offset 3, -32
 582              		.cfi_offset 4, -28
 583              		.cfi_offset 5, -24
 584              		.cfi_offset 6, -20
 585              		.cfi_offset 7, -16
 586              		.cfi_offset 8, -12
 587              		.cfi_offset 9, -8
 588              		.cfi_offset 14, -4
 589              		.loc 1 179 0
 590 0004 2B4B     		ldr	r3, .L33
 591 0006 1B78     		ldrb	r3, [r3]	@ zero_extendqisi2
 592 0008 0BB9     		cbnz	r3, .L32
 593 000a BDE8F883 		pop	{r3, r4, r5, r6, r7, r8, r9, pc}
 594              	.L32:
 595              		.loc 1 182 0
 596 000e 2A4D     		ldr	r5, .L33+4
 597              		.loc 1 180 0
 598 0010 2A48     		ldr	r0, .L33+8
 599 0012 FFF7FEFF 		bl	i2cAcquireBus
 600              	.LVL50:
 601              		.loc 1 182 0
 602 0016 2846     		mov	r0, r5
 603 0018 2C22     		movs	r2, #44
 604 001a 4FF48061 		mov	r1, #1024
 605 001e FFF7FEFF 		bl	_pal_lld_setgroupmode
 606              	.LVL51:
 607              		.loc 1 183 0
 608 0022 2846     		mov	r0, r5
 609 0024 2C22     		movs	r2, #44
 610 0026 4FF40061 		mov	r1, #2048
 611 002a FFF7FEFF 		bl	_pal_lld_setgroupmode
 612              	.LVL52:
 613              		.loc 1 185 0
 614 002e 4FF48067 		mov	r7, #1024
 615              		.loc 1 186 0
 616 0032 4FF40063 		mov	r3, #2048
 617              		.loc 1 185 0
 618 0036 2F83     		strh	r7, [r5, #24]	@ movhi
 619              		.loc 1 188 0
 620 0038 0120     		movs	r0, #1
 621              		.loc 1 186 0
 622 003a 2B83     		strh	r3, [r5, #24]	@ movhi
 623              		.loc 1 188 0
 624 003c FFF7FEFF 		bl	chThdSleep
 625              	.LVL53:
 626              	.LBB2:
 627              		.loc 1 191 0
ARM GAS  C:\Users\IDONNO~1\AppData\Local\Temp\ccqkORGP.s 			page 12


 628 0040 B946     		mov	r9, r7	@ movhi
 629              	.LBE2:
 630              		.loc 1 188 0
 631 0042 1024     		movs	r4, #16
 632              	.LVL54:
 633              	.L29:
 634              	.LBB3:
 635              		.loc 1 192 0 discriminator 3
 636 0044 0120     		movs	r0, #1
 637              		.loc 1 191 0 discriminator 3
 638 0046 A5F81A90 		strh	r9, [r5, #26]	@ movhi
 639              		.loc 1 192 0 discriminator 3
 640 004a FFF7FEFF 		bl	chThdSleep
 641              	.LVL55:
 642              		.loc 1 193 0 discriminator 3
 643 004e 2F83     		strh	r7, [r5, #24]	@ movhi
 644              		.loc 1 194 0 discriminator 3
 645 0050 0120     		movs	r0, #1
 646 0052 FFF7FEFF 		bl	chThdSleep
 647              	.LVL56:
 648              		.loc 1 190 0 discriminator 3
 649 0056 013C     		subs	r4, r4, #1
 650              	.LVL57:
 651              		.loc 1 191 0 discriminator 3
 652 0058 174E     		ldr	r6, .L33+4
 653 005a 4FF48068 		mov	r8, #1024
 654              		.loc 1 190 0 discriminator 3
 655 005e F1D1     		bne	.L29
 656              	.LBE3:
 657              		.loc 1 198 0
 658 0060 4FF40065 		mov	r5, #2048
 659 0064 7583     		strh	r5, [r6, #26]	@ movhi
 660              		.loc 1 199 0
 661 0066 0120     		movs	r0, #1
 662 0068 FFF7FEFF 		bl	chThdSleep
 663              	.LVL58:
 664              		.loc 1 200 0
 665 006c A6F81A80 		strh	r8, [r6, #26]	@ movhi
 666              		.loc 1 201 0
 667 0070 0120     		movs	r0, #1
 668 0072 FFF7FEFF 		bl	chThdSleep
 669              	.LVL59:
 670              		.loc 1 202 0
 671 0076 A6F81880 		strh	r8, [r6, #24]	@ movhi
 672              		.loc 1 203 0
 673 007a 0120     		movs	r0, #1
 674 007c FFF7FEFF 		bl	chThdSleep
 675              	.LVL60:
 676              		.loc 1 209 0
 677 0080 0E4C     		ldr	r4, .L33+8
 678              	.LVL61:
 679              		.loc 1 204 0
 680 0082 3583     		strh	r5, [r6, #24]	@ movhi
 681              		.loc 1 206 0
 682 0084 4146     		mov	r1, r8
 683 0086 3046     		mov	r0, r6
 684 0088 40F22E22 		movw	r2, #558
ARM GAS  C:\Users\IDONNO~1\AppData\Local\Temp\ccqkORGP.s 			page 13


 685 008c FFF7FEFF 		bl	_pal_lld_setgroupmode
 686              	.LVL62:
 687              		.loc 1 207 0
 688 0090 2946     		mov	r1, r5
 689 0092 3046     		mov	r0, r6
 690 0094 40F22E22 		movw	r2, #558
 691 0098 FFF7FEFF 		bl	_pal_lld_setgroupmode
 692              	.LVL63:
 693              		.loc 1 209 0
 694 009c 0123     		movs	r3, #1
 695              		.loc 1 210 0
 696 009e 2046     		mov	r0, r4
 697 00a0 0749     		ldr	r1, .L33+12
 698              		.loc 1 209 0
 699 00a2 2370     		strb	r3, [r4]
 700              		.loc 1 210 0
 701 00a4 FFF7FEFF 		bl	i2cStart
 702              	.LVL64:
 703              		.loc 1 212 0
 704 00a8 2046     		mov	r0, r4
 705              		.loc 1 214 0
 706 00aa BDE8F843 		pop	{r3, r4, r5, r6, r7, r8, r9, lr}
 707              		.cfi_restore 14
 708              		.cfi_restore 9
 709              		.cfi_restore 8
 710              		.cfi_restore 7
 711              		.cfi_restore 6
 712              		.cfi_restore 5
 713              		.cfi_restore 4
 714              		.cfi_restore 3
 715              		.cfi_def_cfa_offset 0
 716              		.loc 1 212 0
 717 00ae FFF7FEBF 		b	i2cReleaseBus
 718              	.LVL65:
 719              	.L34:
 720 00b2 00BF     		.align	2
 721              	.L33:
 722 00b4 00000000 		.word	.LANCHOR0
 723 00b8 00040240 		.word	1073873920
 724 00bc 00000000 		.word	I2CD2
 725 00c0 00000000 		.word	.LANCHOR1
 726              		.cfi_endproc
 727              	.LFE261:
 728              		.size	hw_try_restore_i2c, .-hw_try_restore_i2c
 729              		.global	ADC_Value
 730              		.section	.bss.i2c_running,"aw",%nobits
 731              		.set	.LANCHOR0,. + 0
 732              		.type	i2c_running, %object
 733              		.size	i2c_running, 1
 734              	i2c_running:
 735 0000 00       		.space	1
 736              		.section	.bss.ADC_Value,"aw",%nobits
 737              		.align	2
 738              		.type	ADC_Value, %object
 739              		.size	ADC_Value, 24
 740              	ADC_Value:
 741 0000 00000000 		.space	24
ARM GAS  C:\Users\IDONNO~1\AppData\Local\Temp\ccqkORGP.s 			page 14


 741      00000000 
 741      00000000 
 741      00000000 
 741      00000000 
 742              		.section	.rodata.i2cfg,"a",%progbits
 743              		.align	2
 744              		.set	.LANCHOR1,. + 0
 745              		.type	i2cfg, %object
 746              		.size	i2cfg, 12
 747              	i2cfg:
 748 0000 01       		.byte	1
 749 0001 000000   		.space	3
 750 0004 A0860100 		.word	100000
 751 0008 01       		.byte	1
 752 0009 000000   		.space	3
 753              		.text
 754              	.Letext0:
 755              		.file 2 "c:\\program files (x86)\\gnu tools arm embedded\\5.4 2016q3\\arm-none-eabi\\include\\mach
 756              		.file 3 "c:\\program files (x86)\\gnu tools arm embedded\\5.4 2016q3\\arm-none-eabi\\include\\sys\
 757              		.file 4 "src/ChibiOS_3.0.2/os/ext/CMSIS/ST/stm32f407xx.h"
 758              		.file 5 "c:\\program files (x86)\\gnu tools arm embedded\\5.4 2016q3\\lib\\gcc\\arm-none-eabi\\5.4
 759              		.file 6 "src/ChibiOS_3.0.2/os/rt/ports/ARMCMx/compilers/GCC/chtypes.h"
 760              		.file 7 "src/ChibiOS_3.0.2/os/rt/include/chsystypes.h"
 761              		.file 8 "src/ChibiOS_3.0.2/os/rt/include/chschd.h"
 762              		.file 9 "src/ChibiOS_3.0.2/os/rt/ports/ARMCMx/chcore.h"
 763              		.file 10 "src/ChibiOS_3.0.2/os/rt/ports/ARMCMx/chcore_v7m.h"
 764              		.file 11 "src/ChibiOS_3.0.2/os/rt/include/chtm.h"
 765              		.file 12 "src/ChibiOS_3.0.2/os/rt/include/chsem.h"
 766              		.file 13 "src/ChibiOS_3.0.2/os/rt/include/chmtx.h"
 767              		.file 14 "src/ChibiOS_3.0.2/os/hal/ports/STM32/STM32F4xx/stm32_dma.h"
 768              		.file 15 "src/ChibiOS_3.0.2/os/hal/ports/STM32/LLD/GPIOv2/pal_lld.h"
 769              		.file 16 "src/ChibiOS_3.0.2/os/ext/CMSIS/ST/stm32f4xx.h"
 770              		.file 17 "src/ChibiOS_3.0.2/os/hal/include/i2c.h"
 771              		.file 18 "src/ChibiOS_3.0.2/os/hal/ports/STM32/LLD/I2Cv1/i2c_lld.h"
 772              		.file 19 "src/core/servo.h"
 773              		.file 20 "src/ChibiOS_3.0.2/os/ext/CMSIS/include/core_cm4.h"
 774              		.file 21 "src/ChibiOS_3.0.2/ext/stdperiph_stm32f4/inc/stm32f4xx_rcc.h"
 775              		.file 22 "src/ChibiOS_3.0.2/ext/stdperiph_stm32f4/inc/stm32f4xx_adc.h"
 776              		.file 23 "src/ChibiOS_3.0.2/os/rt/include/chthreads.h"
 777              		.section	.debug_info,"",%progbits
 778              	.Ldebug_info0:
 779 0000 FB140000 		.4byte	0x14fb
 780 0004 0400     		.2byte	0x4
 781 0006 00000000 		.4byte	.Ldebug_abbrev0
 782 000a 04       		.byte	0x4
 783 000b 01       		.uleb128 0x1
 784 000c 89020000 		.4byte	.LASF206
 785 0010 0C       		.byte	0xc
 786 0011 F5040000 		.4byte	.LASF207
 787 0015 B3030000 		.4byte	.LASF208
 788 0019 18000000 		.4byte	.Ldebug_ranges0+0x18
 789 001d 00000000 		.4byte	0
 790 0021 00000000 		.4byte	.Ldebug_line0
 791 0025 02       		.uleb128 0x2
 792 0026 01       		.byte	0x1
 793 0027 06       		.byte	0x6
 794 0028 BF080000 		.4byte	.LASF0
ARM GAS  C:\Users\IDONNO~1\AppData\Local\Temp\ccqkORGP.s 			page 15


 795 002c 03       		.uleb128 0x3
 796 002d 29070000 		.4byte	.LASF3
 797 0031 02       		.byte	0x2
 798 0032 1D       		.byte	0x1d
 799 0033 37000000 		.4byte	0x37
 800 0037 02       		.uleb128 0x2
 801 0038 01       		.byte	0x1
 802 0039 08       		.byte	0x8
 803 003a DB070000 		.4byte	.LASF1
 804 003e 02       		.uleb128 0x2
 805 003f 02       		.byte	0x2
 806 0040 05       		.byte	0x5
 807 0041 9A060000 		.4byte	.LASF2
 808 0045 03       		.uleb128 0x3
 809 0046 EE010000 		.4byte	.LASF4
 810 004a 02       		.byte	0x2
 811 004b 2B       		.byte	0x2b
 812 004c 50000000 		.4byte	0x50
 813 0050 02       		.uleb128 0x2
 814 0051 02       		.byte	0x2
 815 0052 07       		.byte	0x7
 816 0053 CB080000 		.4byte	.LASF5
 817 0057 03       		.uleb128 0x3
 818 0058 C8000000 		.4byte	.LASF6
 819 005c 02       		.byte	0x2
 820 005d 3F       		.byte	0x3f
 821 005e 62000000 		.4byte	0x62
 822 0062 02       		.uleb128 0x2
 823 0063 04       		.byte	0x4
 824 0064 05       		.byte	0x5
 825 0065 C1060000 		.4byte	.LASF7
 826 0069 03       		.uleb128 0x3
 827 006a F3070000 		.4byte	.LASF8
 828 006e 02       		.byte	0x2
 829 006f 41       		.byte	0x41
 830 0070 74000000 		.4byte	0x74
 831 0074 02       		.uleb128 0x2
 832 0075 04       		.byte	0x4
 833 0076 07       		.byte	0x7
 834 0077 6B070000 		.4byte	.LASF9
 835 007b 02       		.uleb128 0x2
 836 007c 08       		.byte	0x8
 837 007d 05       		.byte	0x5
 838 007e B4040000 		.4byte	.LASF10
 839 0082 03       		.uleb128 0x3
 840 0083 00040000 		.4byte	.LASF11
 841 0087 02       		.byte	0x2
 842 0088 5B       		.byte	0x5b
 843 0089 8D000000 		.4byte	0x8d
 844 008d 02       		.uleb128 0x2
 845 008e 08       		.byte	0x8
 846 008f 07       		.byte	0x7
 847 0090 C3010000 		.4byte	.LASF12
 848 0094 04       		.uleb128 0x4
 849 0095 04       		.byte	0x4
 850 0096 05       		.byte	0x5
 851 0097 696E7400 		.ascii	"int\000"
ARM GAS  C:\Users\IDONNO~1\AppData\Local\Temp\ccqkORGP.s 			page 16


 852 009b 02       		.uleb128 0x2
 853 009c 04       		.byte	0x4
 854 009d 07       		.byte	0x7
 855 009e 92000000 		.4byte	.LASF13
 856 00a2 03       		.uleb128 0x3
 857 00a3 DF040000 		.4byte	.LASF14
 858 00a7 03       		.byte	0x3
 859 00a8 18       		.byte	0x18
 860 00a9 2C000000 		.4byte	0x2c
 861 00ad 03       		.uleb128 0x3
 862 00ae 48060000 		.4byte	.LASF15
 863 00b2 03       		.byte	0x3
 864 00b3 24       		.byte	0x24
 865 00b4 45000000 		.4byte	0x45
 866 00b8 03       		.uleb128 0x3
 867 00b9 A0070000 		.4byte	.LASF16
 868 00bd 03       		.byte	0x3
 869 00be 2C       		.byte	0x2c
 870 00bf 57000000 		.4byte	0x57
 871 00c3 03       		.uleb128 0x3
 872 00c4 3B010000 		.4byte	.LASF17
 873 00c8 03       		.byte	0x3
 874 00c9 30       		.byte	0x30
 875 00ca 69000000 		.4byte	0x69
 876 00ce 03       		.uleb128 0x3
 877 00cf 14070000 		.4byte	.LASF18
 878 00d3 03       		.byte	0x3
 879 00d4 3C       		.byte	0x3c
 880 00d5 82000000 		.4byte	0x82
 881 00d9 02       		.uleb128 0x2
 882 00da 04       		.byte	0x4
 883 00db 07       		.byte	0x7
 884 00dc 5A070000 		.4byte	.LASF19
 885 00e0 05       		.uleb128 0x5
 886 00e1 C3000000 		.4byte	0xc3
 887 00e5 06       		.uleb128 0x6
 888 00e6 50       		.byte	0x50
 889 00e7 04       		.byte	0x4
 890 00e8 C4       		.byte	0xc4
 891 00e9 DC010000 		.4byte	0x1dc
 892 00ed 07       		.uleb128 0x7
 893 00ee 535200   		.ascii	"SR\000"
 894 00f1 04       		.byte	0x4
 895 00f2 C6       		.byte	0xc6
 896 00f3 E0000000 		.4byte	0xe0
 897 00f7 00       		.byte	0
 898 00f8 07       		.uleb128 0x7
 899 00f9 43523100 		.ascii	"CR1\000"
 900 00fd 04       		.byte	0x4
 901 00fe C7       		.byte	0xc7
 902 00ff E0000000 		.4byte	0xe0
 903 0103 04       		.byte	0x4
 904 0104 07       		.uleb128 0x7
 905 0105 43523200 		.ascii	"CR2\000"
 906 0109 04       		.byte	0x4
 907 010a C8       		.byte	0xc8
 908 010b E0000000 		.4byte	0xe0
ARM GAS  C:\Users\IDONNO~1\AppData\Local\Temp\ccqkORGP.s 			page 17


 909 010f 08       		.byte	0x8
 910 0110 08       		.uleb128 0x8
 911 0111 29060000 		.4byte	.LASF20
 912 0115 04       		.byte	0x4
 913 0116 C9       		.byte	0xc9
 914 0117 E0000000 		.4byte	0xe0
 915 011b 0C       		.byte	0xc
 916 011c 08       		.uleb128 0x8
 917 011d 2F060000 		.4byte	.LASF21
 918 0121 04       		.byte	0x4
 919 0122 CA       		.byte	0xca
 920 0123 E0000000 		.4byte	0xe0
 921 0127 10       		.byte	0x10
 922 0128 08       		.uleb128 0x8
 923 0129 FA080000 		.4byte	.LASF22
 924 012d 04       		.byte	0x4
 925 012e CB       		.byte	0xcb
 926 012f E0000000 		.4byte	0xe0
 927 0133 14       		.byte	0x14
 928 0134 08       		.uleb128 0x8
 929 0135 00090000 		.4byte	.LASF23
 930 0139 04       		.byte	0x4
 931 013a CC       		.byte	0xcc
 932 013b E0000000 		.4byte	0xe0
 933 013f 18       		.byte	0x18
 934 0140 08       		.uleb128 0x8
 935 0141 06090000 		.4byte	.LASF24
 936 0145 04       		.byte	0x4
 937 0146 CD       		.byte	0xcd
 938 0147 E0000000 		.4byte	0xe0
 939 014b 1C       		.byte	0x1c
 940 014c 08       		.uleb128 0x8
 941 014d 0C090000 		.4byte	.LASF25
 942 0151 04       		.byte	0x4
 943 0152 CE       		.byte	0xce
 944 0153 E0000000 		.4byte	0xe0
 945 0157 20       		.byte	0x20
 946 0158 07       		.uleb128 0x7
 947 0159 48545200 		.ascii	"HTR\000"
 948 015d 04       		.byte	0x4
 949 015e CF       		.byte	0xcf
 950 015f E0000000 		.4byte	0xe0
 951 0163 24       		.byte	0x24
 952 0164 07       		.uleb128 0x7
 953 0165 4C545200 		.ascii	"LTR\000"
 954 0169 04       		.byte	0x4
 955 016a D0       		.byte	0xd0
 956 016b E0000000 		.4byte	0xe0
 957 016f 28       		.byte	0x28
 958 0170 08       		.uleb128 0x8
 959 0171 42070000 		.4byte	.LASF26
 960 0175 04       		.byte	0x4
 961 0176 D1       		.byte	0xd1
 962 0177 E0000000 		.4byte	0xe0
 963 017b 2C       		.byte	0x2c
 964 017c 08       		.uleb128 0x8
 965 017d 47070000 		.4byte	.LASF27
ARM GAS  C:\Users\IDONNO~1\AppData\Local\Temp\ccqkORGP.s 			page 18


 966 0181 04       		.byte	0x4
 967 0182 D2       		.byte	0xd2
 968 0183 E0000000 		.4byte	0xe0
 969 0187 30       		.byte	0x30
 970 0188 08       		.uleb128 0x8
 971 0189 C3050000 		.4byte	.LASF28
 972 018d 04       		.byte	0x4
 973 018e D3       		.byte	0xd3
 974 018f E0000000 		.4byte	0xe0
 975 0193 34       		.byte	0x34
 976 0194 08       		.uleb128 0x8
 977 0195 F9050000 		.4byte	.LASF29
 978 0199 04       		.byte	0x4
 979 019a D4       		.byte	0xd4
 980 019b E0000000 		.4byte	0xe0
 981 019f 38       		.byte	0x38
 982 01a0 08       		.uleb128 0x8
 983 01a1 85060000 		.4byte	.LASF30
 984 01a5 04       		.byte	0x4
 985 01a6 D5       		.byte	0xd5
 986 01a7 E0000000 		.4byte	0xe0
 987 01ab 3C       		.byte	0x3c
 988 01ac 08       		.uleb128 0x8
 989 01ad 33070000 		.4byte	.LASF31
 990 01b1 04       		.byte	0x4
 991 01b2 D6       		.byte	0xd6
 992 01b3 E0000000 		.4byte	0xe0
 993 01b7 40       		.byte	0x40
 994 01b8 08       		.uleb128 0x8
 995 01b9 38070000 		.4byte	.LASF32
 996 01bd 04       		.byte	0x4
 997 01be D7       		.byte	0xd7
 998 01bf E0000000 		.4byte	0xe0
 999 01c3 44       		.byte	0x44
 1000 01c4 08       		.uleb128 0x8
 1001 01c5 8A060000 		.4byte	.LASF33
 1002 01c9 04       		.byte	0x4
 1003 01ca D8       		.byte	0xd8
 1004 01cb E0000000 		.4byte	0xe0
 1005 01cf 48       		.byte	0x48
 1006 01d0 07       		.uleb128 0x7
 1007 01d1 445200   		.ascii	"DR\000"
 1008 01d4 04       		.byte	0x4
 1009 01d5 D9       		.byte	0xd9
 1010 01d6 E0000000 		.4byte	0xe0
 1011 01da 4C       		.byte	0x4c
 1012 01db 00       		.byte	0
 1013 01dc 03       		.uleb128 0x3
 1014 01dd 38050000 		.4byte	.LASF34
 1015 01e1 04       		.byte	0x4
 1016 01e2 DA       		.byte	0xda
 1017 01e3 E5000000 		.4byte	0xe5
 1018 01e7 09       		.uleb128 0x9
 1019 01e8 18       		.byte	0x18
 1020 01e9 04       		.byte	0x4
 1021 01ea 6B01     		.2byte	0x16b
 1022 01ec 3E020000 		.4byte	0x23e
ARM GAS  C:\Users\IDONNO~1\AppData\Local\Temp\ccqkORGP.s 			page 19


 1023 01f0 0A       		.uleb128 0xa
 1024 01f1 435200   		.ascii	"CR\000"
 1025 01f4 04       		.byte	0x4
 1026 01f5 6D01     		.2byte	0x16d
 1027 01f7 E0000000 		.4byte	0xe0
 1028 01fb 00       		.byte	0
 1029 01fc 0B       		.uleb128 0xb
 1030 01fd FD000000 		.4byte	.LASF35
 1031 0201 04       		.byte	0x4
 1032 0202 6E01     		.2byte	0x16e
 1033 0204 E0000000 		.4byte	0xe0
 1034 0208 04       		.byte	0x4
 1035 0209 0A       		.uleb128 0xa
 1036 020a 50415200 		.ascii	"PAR\000"
 1037 020e 04       		.byte	0x4
 1038 020f 6F01     		.2byte	0x16f
 1039 0211 E0000000 		.4byte	0xe0
 1040 0215 08       		.byte	0x8
 1041 0216 0B       		.uleb128 0xb
 1042 0217 25040000 		.4byte	.LASF36
 1043 021b 04       		.byte	0x4
 1044 021c 7001     		.2byte	0x170
 1045 021e E0000000 		.4byte	0xe0
 1046 0222 0C       		.byte	0xc
 1047 0223 0B       		.uleb128 0xb
 1048 0224 3D070000 		.4byte	.LASF37
 1049 0228 04       		.byte	0x4
 1050 0229 7101     		.2byte	0x171
 1051 022b E0000000 		.4byte	0xe0
 1052 022f 10       		.byte	0x10
 1053 0230 0A       		.uleb128 0xa
 1054 0231 46435200 		.ascii	"FCR\000"
 1055 0235 04       		.byte	0x4
 1056 0236 7201     		.2byte	0x172
 1057 0238 E0000000 		.4byte	0xe0
 1058 023c 14       		.byte	0x14
 1059 023d 00       		.byte	0
 1060 023e 0C       		.uleb128 0xc
 1061 023f C8050000 		.4byte	.LASF38
 1062 0243 04       		.byte	0x4
 1063 0244 7301     		.2byte	0x173
 1064 0246 E7010000 		.4byte	0x1e7
 1065 024a 09       		.uleb128 0x9
 1066 024b 28       		.byte	0x28
 1067 024c 04       		.byte	0x4
 1068 024d 3F02     		.2byte	0x23f
 1069 024f D5020000 		.4byte	0x2d5
 1070 0253 0A       		.uleb128 0xa
 1071 0254 43523100 		.ascii	"CR1\000"
 1072 0258 04       		.byte	0x4
 1073 0259 4102     		.2byte	0x241
 1074 025b E0000000 		.4byte	0xe0
 1075 025f 00       		.byte	0
 1076 0260 0A       		.uleb128 0xa
 1077 0261 43523200 		.ascii	"CR2\000"
 1078 0265 04       		.byte	0x4
 1079 0266 4202     		.2byte	0x242
ARM GAS  C:\Users\IDONNO~1\AppData\Local\Temp\ccqkORGP.s 			page 20


 1080 0268 E0000000 		.4byte	0xe0
 1081 026c 04       		.byte	0x4
 1082 026d 0B       		.uleb128 0xb
 1083 026e 20000000 		.4byte	.LASF39
 1084 0272 04       		.byte	0x4
 1085 0273 4302     		.2byte	0x243
 1086 0275 E0000000 		.4byte	0xe0
 1087 0279 08       		.byte	0x8
 1088 027a 0B       		.uleb128 0xb
 1089 027b F2030000 		.4byte	.LASF40
 1090 027f 04       		.byte	0x4
 1091 0280 4402     		.2byte	0x244
 1092 0282 E0000000 		.4byte	0xe0
 1093 0286 0C       		.byte	0xc
 1094 0287 0A       		.uleb128 0xa
 1095 0288 445200   		.ascii	"DR\000"
 1096 028b 04       		.byte	0x4
 1097 028c 4502     		.2byte	0x245
 1098 028e E0000000 		.4byte	0xe0
 1099 0292 10       		.byte	0x10
 1100 0293 0A       		.uleb128 0xa
 1101 0294 53523100 		.ascii	"SR1\000"
 1102 0298 04       		.byte	0x4
 1103 0299 4602     		.2byte	0x246
 1104 029b E0000000 		.4byte	0xe0
 1105 029f 14       		.byte	0x14
 1106 02a0 0A       		.uleb128 0xa
 1107 02a1 53523200 		.ascii	"SR2\000"
 1108 02a5 04       		.byte	0x4
 1109 02a6 4702     		.2byte	0x247
 1110 02a8 E0000000 		.4byte	0xe0
 1111 02ac 18       		.byte	0x18
 1112 02ad 0A       		.uleb128 0xa
 1113 02ae 43435200 		.ascii	"CCR\000"
 1114 02b2 04       		.byte	0x4
 1115 02b3 4802     		.2byte	0x248
 1116 02b5 E0000000 		.4byte	0xe0
 1117 02b9 1C       		.byte	0x1c
 1118 02ba 0B       		.uleb128 0xb
 1119 02bb E7040000 		.4byte	.LASF41
 1120 02bf 04       		.byte	0x4
 1121 02c0 4902     		.2byte	0x249
 1122 02c2 E0000000 		.4byte	0xe0
 1123 02c6 20       		.byte	0x20
 1124 02c7 0B       		.uleb128 0xb
 1125 02c8 E0060000 		.4byte	.LASF42
 1126 02cc 04       		.byte	0x4
 1127 02cd 4A02     		.2byte	0x24a
 1128 02cf E0000000 		.4byte	0xe0
 1129 02d3 24       		.byte	0x24
 1130 02d4 00       		.byte	0
 1131 02d5 0C       		.uleb128 0xc
 1132 02d6 3D080000 		.4byte	.LASF43
 1133 02da 04       		.byte	0x4
 1134 02db 4B02     		.2byte	0x24b
 1135 02dd 4A020000 		.4byte	0x24a
 1136 02e1 0D       		.uleb128 0xd
ARM GAS  C:\Users\IDONNO~1\AppData\Local\Temp\ccqkORGP.s 			page 21


 1137 02e2 01       		.byte	0x1
 1138 02e3 37000000 		.4byte	0x37
 1139 02e7 10       		.byte	0x10
 1140 02e8 A8       		.byte	0xa8
 1141 02e9 FA020000 		.4byte	0x2fa
 1142 02ed 0E       		.uleb128 0xe
 1143 02ee 49040000 		.4byte	.LASF44
 1144 02f2 00       		.byte	0
 1145 02f3 0E       		.uleb128 0xe
 1146 02f4 53070000 		.4byte	.LASF45
 1147 02f8 01       		.byte	0x1
 1148 02f9 00       		.byte	0
 1149 02fa 03       		.uleb128 0x3
 1150 02fb 6E020000 		.4byte	.LASF46
 1151 02ff 05       		.byte	0x5
 1152 0300 D8       		.byte	0xd8
 1153 0301 9B000000 		.4byte	0x9b
 1154 0305 05       		.uleb128 0x5
 1155 0306 B8000000 		.4byte	0xb8
 1156 030a 03       		.uleb128 0x3
 1157 030b 64060000 		.4byte	.LASF47
 1158 030f 06       		.byte	0x6
 1159 0310 45       		.byte	0x45
 1160 0311 C3000000 		.4byte	0xc3
 1161 0315 03       		.uleb128 0x3
 1162 0316 21060000 		.4byte	.LASF48
 1163 031a 06       		.byte	0x6
 1164 031b 48       		.byte	0x48
 1165 031c A2000000 		.4byte	0xa2
 1166 0320 03       		.uleb128 0x3
 1167 0321 81040000 		.4byte	.LASF49
 1168 0325 06       		.byte	0x6
 1169 0326 49       		.byte	0x49
 1170 0327 A2000000 		.4byte	0xa2
 1171 032b 03       		.uleb128 0x3
 1172 032c 63070000 		.4byte	.LASF50
 1173 0330 06       		.byte	0x6
 1174 0331 4A       		.byte	0x4a
 1175 0332 A2000000 		.4byte	0xa2
 1176 0336 03       		.uleb128 0x3
 1177 0337 E7050000 		.4byte	.LASF51
 1178 033b 06       		.byte	0x6
 1179 033c 4B       		.byte	0x4b
 1180 033d A2000000 		.4byte	0xa2
 1181 0341 03       		.uleb128 0x3
 1182 0342 95010000 		.4byte	.LASF52
 1183 0346 06       		.byte	0x6
 1184 0347 4C       		.byte	0x4c
 1185 0348 C3000000 		.4byte	0xc3
 1186 034c 03       		.uleb128 0x3
 1187 034d 82050000 		.4byte	.LASF53
 1188 0351 06       		.byte	0x6
 1189 0352 4D       		.byte	0x4d
 1190 0353 B8000000 		.4byte	0xb8
 1191 0357 03       		.uleb128 0x3
 1192 0358 5D010000 		.4byte	.LASF54
 1193 035c 06       		.byte	0x6
ARM GAS  C:\Users\IDONNO~1\AppData\Local\Temp\ccqkORGP.s 			page 22


 1194 035d 4F       		.byte	0x4f
 1195 035e C3000000 		.4byte	0xc3
 1196 0362 03       		.uleb128 0x3
 1197 0363 F9010000 		.4byte	.LASF55
 1198 0367 06       		.byte	0x6
 1199 0368 51       		.byte	0x51
 1200 0369 B8000000 		.4byte	0xb8
 1201 036d 03       		.uleb128 0x3
 1202 036e 2A040000 		.4byte	.LASF56
 1203 0372 07       		.byte	0x7
 1204 0373 33       		.byte	0x33
 1205 0374 C3000000 		.4byte	0xc3
 1206 0378 03       		.uleb128 0x3
 1207 0379 65020000 		.4byte	.LASF57
 1208 037d 07       		.byte	0x7
 1209 037e 3F       		.byte	0x3f
 1210 037f 83030000 		.4byte	0x383
 1211 0383 0F       		.uleb128 0xf
 1212 0384 16050000 		.4byte	.LASF79
 1213 0388 48       		.byte	0x48
 1214 0389 08       		.byte	0x8
 1215 038a C2       		.byte	0xc2
 1216 038b 88040000 		.4byte	0x488
 1217 038f 08       		.uleb128 0x8
 1218 0390 0D070000 		.4byte	.LASF58
 1219 0394 08       		.byte	0x8
 1220 0395 C3       		.byte	0xc3
 1221 0396 93040000 		.4byte	0x493
 1222 039a 00       		.byte	0
 1223 039b 08       		.uleb128 0x8
 1224 039c 4C070000 		.4byte	.LASF59
 1225 03a0 08       		.byte	0x8
 1226 03a1 C5       		.byte	0xc5
 1227 03a2 93040000 		.4byte	0x493
 1228 03a6 04       		.byte	0x4
 1229 03a7 08       		.uleb128 0x8
 1230 03a8 64000000 		.4byte	.LASF60
 1231 03ac 08       		.byte	0x8
 1232 03ad C7       		.byte	0xc7
 1233 03ae 41030000 		.4byte	0x341
 1234 03b2 08       		.byte	0x8
 1235 03b3 08       		.uleb128 0x8
 1236 03b4 1D070000 		.4byte	.LASF61
 1237 03b8 08       		.byte	0x8
 1238 03b9 C8       		.byte	0xc8
 1239 03ba BC060000 		.4byte	0x6bc
 1240 03be 0C       		.byte	0xc
 1241 03bf 08       		.uleb128 0x8
 1242 03c0 26020000 		.4byte	.LASF62
 1243 03c4 08       		.byte	0x8
 1244 03c5 CA       		.byte	0xca
 1245 03c6 93040000 		.4byte	0x493
 1246 03ca 10       		.byte	0x10
 1247 03cb 08       		.uleb128 0x8
 1248 03cc C2040000 		.4byte	.LASF63
 1249 03d0 08       		.byte	0x8
 1250 03d1 CB       		.byte	0xcb
ARM GAS  C:\Users\IDONNO~1\AppData\Local\Temp\ccqkORGP.s 			page 23


 1251 03d2 93040000 		.4byte	0x493
 1252 03d6 14       		.byte	0x14
 1253 03d7 08       		.uleb128 0x8
 1254 03d8 34040000 		.4byte	.LASF64
 1255 03dc 08       		.byte	0x8
 1256 03dd D2       		.byte	0xd2
 1257 03de 01090000 		.4byte	0x901
 1258 03e2 18       		.byte	0x18
 1259 03e3 08       		.uleb128 0x8
 1260 03e4 0E050000 		.4byte	.LASF65
 1261 03e8 08       		.byte	0x8
 1262 03e9 DD       		.byte	0xdd
 1263 03ea 20030000 		.4byte	0x320
 1264 03ee 1C       		.byte	0x1c
 1265 03ef 08       		.uleb128 0x8
 1266 03f0 9D050000 		.4byte	.LASF66
 1267 03f4 08       		.byte	0x8
 1268 03f5 E1       		.byte	0xe1
 1269 03f6 15030000 		.4byte	0x315
 1270 03fa 1D       		.byte	0x1d
 1271 03fb 08       		.uleb128 0x8
 1272 03fc 22080000 		.4byte	.LASF67
 1273 0400 08       		.byte	0x8
 1274 0401 E6       		.byte	0xe6
 1275 0402 2B030000 		.4byte	0x32b
 1276 0406 1E       		.byte	0x1e
 1277 0407 08       		.uleb128 0x8
 1278 0408 54080000 		.4byte	.LASF68
 1279 040c 08       		.byte	0x8
 1280 040d EC       		.byte	0xec
 1281 040e 36030000 		.4byte	0x336
 1282 0412 1F       		.byte	0x1f
 1283 0413 08       		.uleb128 0x8
 1284 0414 4A000000 		.4byte	.LASF69
 1285 0418 08       		.byte	0x8
 1286 0419 F3       		.byte	0xf3
 1287 041a 13090000 		.4byte	0x913
 1288 041e 20       		.byte	0x20
 1289 041f 0A       		.uleb128 0xa
 1290 0420 705F7500 		.ascii	"p_u\000"
 1291 0424 08       		.byte	0x8
 1292 0425 3101     		.2byte	0x131
 1293 0427 3C080000 		.4byte	0x83c
 1294 042b 24       		.byte	0x24
 1295 042c 0B       		.uleb128 0xb
 1296 042d BE000000 		.4byte	.LASF70
 1297 0431 08       		.byte	0x8
 1298 0432 3601     		.2byte	0x136
 1299 0434 99040000 		.4byte	0x499
 1300 0438 28       		.byte	0x28
 1301 0439 0B       		.uleb128 0xb
 1302 043a EF080000 		.4byte	.LASF71
 1303 043e 08       		.byte	0x8
 1304 043f 3C01     		.2byte	0x13c
 1305 0441 BD040000 		.4byte	0x4bd
 1306 0445 2C       		.byte	0x2c
 1307 0446 0B       		.uleb128 0xb
ARM GAS  C:\Users\IDONNO~1\AppData\Local\Temp\ccqkORGP.s 			page 24


 1308 0447 1B060000 		.4byte	.LASF72
 1309 044b 08       		.byte	0x8
 1310 044c 4001     		.2byte	0x140
 1311 044e 4C030000 		.4byte	0x34c
 1312 0452 34       		.byte	0x34
 1313 0453 0B       		.uleb128 0xb
 1314 0454 AE060000 		.4byte	.LASF73
 1315 0458 08       		.byte	0x8
 1316 0459 4601     		.2byte	0x146
 1317 045b 57030000 		.4byte	0x357
 1318 045f 38       		.byte	0x38
 1319 0460 0B       		.uleb128 0xb
 1320 0461 04050000 		.4byte	.LASF74
 1321 0465 08       		.byte	0x8
 1322 0466 4D01     		.2byte	0x14d
 1323 0468 FB080000 		.4byte	0x8fb
 1324 046c 3C       		.byte	0x3c
 1325 046d 0B       		.uleb128 0xb
 1326 046e 8F060000 		.4byte	.LASF75
 1327 0472 08       		.byte	0x8
 1328 0473 5101     		.2byte	0x151
 1329 0475 41030000 		.4byte	0x341
 1330 0479 40       		.byte	0x40
 1331 047a 0B       		.uleb128 0xb
 1332 047b ED040000 		.4byte	.LASF76
 1333 047f 08       		.byte	0x8
 1334 0480 5801     		.2byte	0x158
 1335 0482 70050000 		.4byte	0x570
 1336 0486 44       		.byte	0x44
 1337 0487 00       		.byte	0
 1338 0488 03       		.uleb128 0x3
 1339 0489 51060000 		.4byte	.LASF77
 1340 048d 07       		.byte	0x7
 1341 048e 44       		.byte	0x44
 1342 048f 93040000 		.4byte	0x493
 1343 0493 10       		.uleb128 0x10
 1344 0494 04       		.byte	0x4
 1345 0495 78030000 		.4byte	0x378
 1346 0499 03       		.uleb128 0x3
 1347 049a AF000000 		.4byte	.LASF78
 1348 049e 07       		.byte	0x7
 1349 049f 49       		.byte	0x49
 1350 04a0 A4040000 		.4byte	0x4a4
 1351 04a4 0F       		.uleb128 0xf
 1352 04a5 00000000 		.4byte	.LASF80
 1353 04a9 04       		.byte	0x4
 1354 04aa 08       		.byte	0x8
 1355 04ab B0       		.byte	0xb0
 1356 04ac BD040000 		.4byte	0x4bd
 1357 04b0 08       		.uleb128 0x8
 1358 04b1 0D070000 		.4byte	.LASF58
 1359 04b5 08       		.byte	0x8
 1360 04b6 B1       		.byte	0xb1
 1361 04b7 93040000 		.4byte	0x493
 1362 04bb 00       		.byte	0
 1363 04bc 00       		.byte	0
 1364 04bd 03       		.uleb128 0x3
ARM GAS  C:\Users\IDONNO~1\AppData\Local\Temp\ccqkORGP.s 			page 25


 1365 04be 10000000 		.4byte	.LASF81
 1366 04c2 07       		.byte	0x7
 1367 04c3 50       		.byte	0x50
 1368 04c4 C8040000 		.4byte	0x4c8
 1369 04c8 0F       		.uleb128 0xf
 1370 04c9 44050000 		.4byte	.LASF82
 1371 04cd 08       		.byte	0x8
 1372 04ce 08       		.byte	0x8
 1373 04cf B7       		.byte	0xb7
 1374 04d0 ED040000 		.4byte	0x4ed
 1375 04d4 08       		.uleb128 0x8
 1376 04d5 0D070000 		.4byte	.LASF58
 1377 04d9 08       		.byte	0x8
 1378 04da B8       		.byte	0xb8
 1379 04db 93040000 		.4byte	0x493
 1380 04df 00       		.byte	0
 1381 04e0 08       		.uleb128 0x8
 1382 04e1 4C070000 		.4byte	.LASF59
 1383 04e5 08       		.byte	0x8
 1384 04e6 B9       		.byte	0xb9
 1385 04e7 93040000 		.4byte	0x493
 1386 04eb 04       		.byte	0x4
 1387 04ec 00       		.byte	0
 1388 04ed 03       		.uleb128 0x3
 1389 04ee 7D070000 		.4byte	.LASF83
 1390 04f2 07       		.byte	0x7
 1391 04f3 57       		.byte	0x57
 1392 04f4 F8040000 		.4byte	0x4f8
 1393 04f8 11       		.uleb128 0x11
 1394 04f9 E0000000 		.4byte	.LASF84
 1395 04fd 1C       		.byte	0x1c
 1396 04fe 08       		.byte	0x8
 1397 04ff 9001     		.2byte	0x190
 1398 0501 54050000 		.4byte	0x554
 1399 0505 0B       		.uleb128 0xb
 1400 0506 6F050000 		.4byte	.LASF85
 1401 050a 08       		.byte	0x8
 1402 050b 9101     		.2byte	0x191
 1403 050d BD040000 		.4byte	0x4bd
 1404 0511 00       		.byte	0
 1405 0512 0B       		.uleb128 0xb
 1406 0513 69010000 		.4byte	.LASF86
 1407 0517 08       		.byte	0x8
 1408 0518 9201     		.2byte	0x192
 1409 051a 41030000 		.4byte	0x341
 1410 051e 08       		.byte	0x8
 1411 051f 0B       		.uleb128 0xb
 1412 0520 DE080000 		.4byte	.LASF87
 1413 0524 08       		.byte	0x8
 1414 0525 9401     		.2byte	0x194
 1415 0527 BC060000 		.4byte	0x6bc
 1416 052b 0C       		.byte	0xc
 1417 052c 0B       		.uleb128 0xb
 1418 052d 68040000 		.4byte	.LASF88
 1419 0531 08       		.byte	0x8
 1420 0532 9701     		.2byte	0x197
 1421 0534 93040000 		.4byte	0x493
ARM GAS  C:\Users\IDONNO~1\AppData\Local\Temp\ccqkORGP.s 			page 26


 1422 0538 10       		.byte	0x10
 1423 0539 0B       		.uleb128 0xb
 1424 053a F1050000 		.4byte	.LASF89
 1425 053e 08       		.byte	0x8
 1426 053f 9801     		.2byte	0x198
 1427 0541 93040000 		.4byte	0x493
 1428 0545 14       		.byte	0x14
 1429 0546 0B       		.uleb128 0xb
 1430 0547 A4060000 		.4byte	.LASF90
 1431 054b 08       		.byte	0x8
 1432 054c 9B01     		.2byte	0x19b
 1433 054e 93040000 		.4byte	0x493
 1434 0552 18       		.byte	0x18
 1435 0553 00       		.byte	0
 1436 0554 03       		.uleb128 0x3
 1437 0555 16010000 		.4byte	.LASF91
 1438 0559 07       		.byte	0x7
 1439 055a 5C       		.byte	0x5c
 1440 055b 5F050000 		.4byte	0x55f
 1441 055f 10       		.uleb128 0x10
 1442 0560 04       		.byte	0x4
 1443 0561 65050000 		.4byte	0x565
 1444 0565 12       		.uleb128 0x12
 1445 0566 70050000 		.4byte	0x570
 1446 056a 13       		.uleb128 0x13
 1447 056b 70050000 		.4byte	0x570
 1448 056f 00       		.byte	0
 1449 0570 14       		.uleb128 0x14
 1450 0571 04       		.byte	0x4
 1451 0572 03       		.uleb128 0x3
 1452 0573 A5050000 		.4byte	.LASF92
 1453 0577 07       		.byte	0x7
 1454 0578 61       		.byte	0x61
 1455 0579 7D050000 		.4byte	0x57d
 1456 057d 11       		.uleb128 0x11
 1457 057e 9D010000 		.4byte	.LASF93
 1458 0582 14       		.byte	0x14
 1459 0583 08       		.byte	0x8
 1460 0584 6B01     		.2byte	0x16b
 1461 0586 CC050000 		.4byte	0x5cc
 1462 058a 0B       		.uleb128 0xb
 1463 058b 75080000 		.4byte	.LASF94
 1464 058f 08       		.byte	0x8
 1465 0590 6C01     		.2byte	0x16c
 1466 0592 18090000 		.4byte	0x918
 1467 0596 00       		.byte	0
 1468 0597 0B       		.uleb128 0xb
 1469 0598 12090000 		.4byte	.LASF95
 1470 059c 08       		.byte	0x8
 1471 059d 6D01     		.2byte	0x16d
 1472 059f 18090000 		.4byte	0x918
 1473 05a3 04       		.byte	0x4
 1474 05a4 0B       		.uleb128 0xb
 1475 05a5 3B040000 		.4byte	.LASF96
 1476 05a9 08       		.byte	0x8
 1477 05aa 6E01     		.2byte	0x16e
 1478 05ac 6D030000 		.4byte	0x36d
ARM GAS  C:\Users\IDONNO~1\AppData\Local\Temp\ccqkORGP.s 			page 27


 1479 05b0 08       		.byte	0x8
 1480 05b1 0B       		.uleb128 0xb
 1481 05b2 BB010000 		.4byte	.LASF97
 1482 05b6 08       		.byte	0x8
 1483 05b7 6F01     		.2byte	0x16f
 1484 05b9 54050000 		.4byte	0x554
 1485 05bd 0C       		.byte	0xc
 1486 05be 0B       		.uleb128 0xb
 1487 05bf 75010000 		.4byte	.LASF98
 1488 05c3 08       		.byte	0x8
 1489 05c4 7101     		.2byte	0x171
 1490 05c6 70050000 		.4byte	0x570
 1491 05ca 10       		.byte	0x10
 1492 05cb 00       		.byte	0
 1493 05cc 03       		.uleb128 0x3
 1494 05cd 0C080000 		.4byte	.LASF99
 1495 05d1 07       		.byte	0x7
 1496 05d2 66       		.byte	0x66
 1497 05d3 D7050000 		.4byte	0x5d7
 1498 05d7 11       		.uleb128 0x11
 1499 05d8 34020000 		.4byte	.LASF100
 1500 05dc 10       		.byte	0x10
 1501 05dd 08       		.byte	0x8
 1502 05de 7B01     		.2byte	0x17b
 1503 05e0 19060000 		.4byte	0x619
 1504 05e4 0B       		.uleb128 0xb
 1505 05e5 75080000 		.4byte	.LASF94
 1506 05e9 08       		.byte	0x8
 1507 05ea 7C01     		.2byte	0x17c
 1508 05ec 18090000 		.4byte	0x918
 1509 05f0 00       		.byte	0
 1510 05f1 0B       		.uleb128 0xb
 1511 05f2 12090000 		.4byte	.LASF95
 1512 05f6 08       		.byte	0x8
 1513 05f7 7E01     		.2byte	0x17e
 1514 05f9 18090000 		.4byte	0x918
 1515 05fd 04       		.byte	0x4
 1516 05fe 0B       		.uleb128 0xb
 1517 05ff 3B040000 		.4byte	.LASF96
 1518 0603 08       		.byte	0x8
 1519 0604 8001     		.2byte	0x180
 1520 0606 6D030000 		.4byte	0x36d
 1521 060a 08       		.byte	0x8
 1522 060b 0B       		.uleb128 0xb
 1523 060c 79000000 		.4byte	.LASF101
 1524 0610 08       		.byte	0x8
 1525 0611 8201     		.2byte	0x182
 1526 0613 13090000 		.4byte	0x913
 1527 0617 0C       		.byte	0xc
 1528 0618 00       		.byte	0
 1529 0619 03       		.uleb128 0x3
 1530 061a 20050000 		.4byte	.LASF102
 1531 061e 07       		.byte	0x7
 1532 061f 6B       		.byte	0x6b
 1533 0620 24060000 		.4byte	0x624
 1534 0624 11       		.uleb128 0x11
 1535 0625 25010000 		.4byte	.LASF103
ARM GAS  C:\Users\IDONNO~1\AppData\Local\Temp\ccqkORGP.s 			page 28


 1536 0629 04       		.byte	0x4
 1537 062a 08       		.byte	0x8
 1538 062b A201     		.2byte	0x1a2
 1539 062d 3F060000 		.4byte	0x63f
 1540 0631 0B       		.uleb128 0xb
 1541 0632 29080000 		.4byte	.LASF104
 1542 0636 08       		.byte	0x8
 1543 0637 AA01     		.2byte	0x1aa
 1544 0639 1E090000 		.4byte	0x91e
 1545 063d 00       		.byte	0
 1546 063e 00       		.byte	0
 1547 063f 03       		.uleb128 0x3
 1548 0640 9F080000 		.4byte	.LASF105
 1549 0644 07       		.byte	0x7
 1550 0645 70       		.byte	0x70
 1551 0646 4A060000 		.4byte	0x64a
 1552 064a 15       		.uleb128 0x15
 1553 064b FC060000 		.4byte	.LASF106
 1554 064f 5802     		.2byte	0x258
 1555 0651 08       		.byte	0x8
 1556 0652 C201     		.2byte	0x1c2
 1557 0654 A6060000 		.4byte	0x6a6
 1558 0658 0B       		.uleb128 0xb
 1559 0659 23070000 		.4byte	.LASF107
 1560 065d 08       		.byte	0x8
 1561 065e C601     		.2byte	0x1c6
 1562 0660 ED040000 		.4byte	0x4ed
 1563 0664 00       		.byte	0
 1564 0665 0B       		.uleb128 0xb
 1565 0666 D9000000 		.4byte	.LASF108
 1566 066a 08       		.byte	0x8
 1567 066b CA01     		.2byte	0x1ca
 1568 066d CC050000 		.4byte	0x5cc
 1569 0671 1C       		.byte	0x1c
 1570 0672 0A       		.uleb128 0xa
 1571 0673 64626700 		.ascii	"dbg\000"
 1572 0677 08       		.byte	0x8
 1573 0678 CE01     		.2byte	0x1ce
 1574 067a 19060000 		.4byte	0x619
 1575 067e 2C       		.byte	0x2c
 1576 067f 0B       		.uleb128 0xb
 1577 0680 35060000 		.4byte	.LASF109
 1578 0684 08       		.byte	0x8
 1579 0685 D201     		.2byte	0x1d2
 1580 0687 78030000 		.4byte	0x378
 1581 068b 30       		.byte	0x30
 1582 068c 0A       		.uleb128 0xa
 1583 068d 746D00   		.ascii	"tm\000"
 1584 0690 08       		.byte	0x8
 1585 0691 D701     		.2byte	0x1d7
 1586 0693 31080000 		.4byte	0x831
 1587 0697 78       		.byte	0x78
 1588 0698 0B       		.uleb128 0xb
 1589 0699 EE000000 		.4byte	.LASF110
 1590 069d 08       		.byte	0x8
 1591 069e E301     		.2byte	0x1e3
 1592 06a0 23090000 		.4byte	0x923
ARM GAS  C:\Users\IDONNO~1\AppData\Local\Temp\ccqkORGP.s 			page 29


 1593 06a4 80       		.byte	0x80
 1594 06a5 00       		.byte	0
 1595 06a6 03       		.uleb128 0x3
 1596 06a7 5B000000 		.4byte	.LASF111
 1597 06ab 09       		.byte	0x9
 1598 06ac 65       		.byte	0x65
 1599 06ad 70050000 		.4byte	0x570
 1600 06b1 03       		.uleb128 0x3
 1601 06b2 E4080000 		.4byte	.LASF112
 1602 06b6 09       		.byte	0x9
 1603 06b7 6D       		.byte	0x6d
 1604 06b8 CE000000 		.4byte	0xce
 1605 06bc 0F       		.uleb128 0xf
 1606 06bd 88050000 		.4byte	.LASF113
 1607 06c1 04       		.byte	0x4
 1608 06c2 09       		.byte	0x9
 1609 06c3 89       		.byte	0x89
 1610 06c4 D5060000 		.4byte	0x6d5
 1611 06c8 07       		.uleb128 0x7
 1612 06c9 72313300 		.ascii	"r13\000"
 1613 06cd 09       		.byte	0x9
 1614 06ce 8A       		.byte	0x8a
 1615 06cf 16080000 		.4byte	0x816
 1616 06d3 00       		.byte	0
 1617 06d4 00       		.byte	0
 1618 06d5 0F       		.uleb128 0xf
 1619 06d6 CA060000 		.4byte	.LASF114
 1620 06da 64       		.byte	0x64
 1621 06db 0A       		.byte	0xa
 1622 06dc F4       		.byte	0xf4
 1623 06dd 16080000 		.4byte	0x816
 1624 06e1 07       		.uleb128 0x7
 1625 06e2 73313600 		.ascii	"s16\000"
 1626 06e6 0A       		.byte	0xa
 1627 06e7 F6       		.byte	0xf6
 1628 06e8 A6060000 		.4byte	0x6a6
 1629 06ec 00       		.byte	0
 1630 06ed 07       		.uleb128 0x7
 1631 06ee 73313700 		.ascii	"s17\000"
 1632 06f2 0A       		.byte	0xa
 1633 06f3 F7       		.byte	0xf7
 1634 06f4 A6060000 		.4byte	0x6a6
 1635 06f8 04       		.byte	0x4
 1636 06f9 07       		.uleb128 0x7
 1637 06fa 73313800 		.ascii	"s18\000"
 1638 06fe 0A       		.byte	0xa
 1639 06ff F8       		.byte	0xf8
 1640 0700 A6060000 		.4byte	0x6a6
 1641 0704 08       		.byte	0x8
 1642 0705 07       		.uleb128 0x7
 1643 0706 73313900 		.ascii	"s19\000"
 1644 070a 0A       		.byte	0xa
 1645 070b F9       		.byte	0xf9
 1646 070c A6060000 		.4byte	0x6a6
 1647 0710 0C       		.byte	0xc
 1648 0711 07       		.uleb128 0x7
 1649 0712 73323000 		.ascii	"s20\000"
ARM GAS  C:\Users\IDONNO~1\AppData\Local\Temp\ccqkORGP.s 			page 30


 1650 0716 0A       		.byte	0xa
 1651 0717 FA       		.byte	0xfa
 1652 0718 A6060000 		.4byte	0x6a6
 1653 071c 10       		.byte	0x10
 1654 071d 07       		.uleb128 0x7
 1655 071e 73323100 		.ascii	"s21\000"
 1656 0722 0A       		.byte	0xa
 1657 0723 FB       		.byte	0xfb
 1658 0724 A6060000 		.4byte	0x6a6
 1659 0728 14       		.byte	0x14
 1660 0729 07       		.uleb128 0x7
 1661 072a 73323200 		.ascii	"s22\000"
 1662 072e 0A       		.byte	0xa
 1663 072f FC       		.byte	0xfc
 1664 0730 A6060000 		.4byte	0x6a6
 1665 0734 18       		.byte	0x18
 1666 0735 07       		.uleb128 0x7
 1667 0736 73323300 		.ascii	"s23\000"
 1668 073a 0A       		.byte	0xa
 1669 073b FD       		.byte	0xfd
 1670 073c A6060000 		.4byte	0x6a6
 1671 0740 1C       		.byte	0x1c
 1672 0741 07       		.uleb128 0x7
 1673 0742 73323400 		.ascii	"s24\000"
 1674 0746 0A       		.byte	0xa
 1675 0747 FE       		.byte	0xfe
 1676 0748 A6060000 		.4byte	0x6a6
 1677 074c 20       		.byte	0x20
 1678 074d 07       		.uleb128 0x7
 1679 074e 73323500 		.ascii	"s25\000"
 1680 0752 0A       		.byte	0xa
 1681 0753 FF       		.byte	0xff
 1682 0754 A6060000 		.4byte	0x6a6
 1683 0758 24       		.byte	0x24
 1684 0759 0A       		.uleb128 0xa
 1685 075a 73323600 		.ascii	"s26\000"
 1686 075e 0A       		.byte	0xa
 1687 075f 0001     		.2byte	0x100
 1688 0761 A6060000 		.4byte	0x6a6
 1689 0765 28       		.byte	0x28
 1690 0766 0A       		.uleb128 0xa
 1691 0767 73323700 		.ascii	"s27\000"
 1692 076b 0A       		.byte	0xa
 1693 076c 0101     		.2byte	0x101
 1694 076e A6060000 		.4byte	0x6a6
 1695 0772 2C       		.byte	0x2c
 1696 0773 0A       		.uleb128 0xa
 1697 0774 73323800 		.ascii	"s28\000"
 1698 0778 0A       		.byte	0xa
 1699 0779 0201     		.2byte	0x102
 1700 077b A6060000 		.4byte	0x6a6
 1701 077f 30       		.byte	0x30
 1702 0780 0A       		.uleb128 0xa
 1703 0781 73323900 		.ascii	"s29\000"
 1704 0785 0A       		.byte	0xa
 1705 0786 0301     		.2byte	0x103
 1706 0788 A6060000 		.4byte	0x6a6
ARM GAS  C:\Users\IDONNO~1\AppData\Local\Temp\ccqkORGP.s 			page 31


 1707 078c 34       		.byte	0x34
 1708 078d 0A       		.uleb128 0xa
 1709 078e 73333000 		.ascii	"s30\000"
 1710 0792 0A       		.byte	0xa
 1711 0793 0401     		.2byte	0x104
 1712 0795 A6060000 		.4byte	0x6a6
 1713 0799 38       		.byte	0x38
 1714 079a 0A       		.uleb128 0xa
 1715 079b 73333100 		.ascii	"s31\000"
 1716 079f 0A       		.byte	0xa
 1717 07a0 0501     		.2byte	0x105
 1718 07a2 A6060000 		.4byte	0x6a6
 1719 07a6 3C       		.byte	0x3c
 1720 07a7 0A       		.uleb128 0xa
 1721 07a8 723400   		.ascii	"r4\000"
 1722 07ab 0A       		.byte	0xa
 1723 07ac 0701     		.2byte	0x107
 1724 07ae A6060000 		.4byte	0x6a6
 1725 07b2 40       		.byte	0x40
 1726 07b3 0A       		.uleb128 0xa
 1727 07b4 723500   		.ascii	"r5\000"
 1728 07b7 0A       		.byte	0xa
 1729 07b8 0801     		.2byte	0x108
 1730 07ba A6060000 		.4byte	0x6a6
 1731 07be 44       		.byte	0x44
 1732 07bf 0A       		.uleb128 0xa
 1733 07c0 723600   		.ascii	"r6\000"
 1734 07c3 0A       		.byte	0xa
 1735 07c4 0901     		.2byte	0x109
 1736 07c6 A6060000 		.4byte	0x6a6
 1737 07ca 48       		.byte	0x48
 1738 07cb 0A       		.uleb128 0xa
 1739 07cc 723700   		.ascii	"r7\000"
 1740 07cf 0A       		.byte	0xa
 1741 07d0 0A01     		.2byte	0x10a
 1742 07d2 A6060000 		.4byte	0x6a6
 1743 07d6 4C       		.byte	0x4c
 1744 07d7 0A       		.uleb128 0xa
 1745 07d8 723800   		.ascii	"r8\000"
 1746 07db 0A       		.byte	0xa
 1747 07dc 0B01     		.2byte	0x10b
 1748 07de A6060000 		.4byte	0x6a6
 1749 07e2 50       		.byte	0x50
 1750 07e3 0A       		.uleb128 0xa
 1751 07e4 723900   		.ascii	"r9\000"
 1752 07e7 0A       		.byte	0xa
 1753 07e8 0C01     		.2byte	0x10c
 1754 07ea A6060000 		.4byte	0x6a6
 1755 07ee 54       		.byte	0x54
 1756 07ef 0A       		.uleb128 0xa
 1757 07f0 72313000 		.ascii	"r10\000"
 1758 07f4 0A       		.byte	0xa
 1759 07f5 0D01     		.2byte	0x10d
 1760 07f7 A6060000 		.4byte	0x6a6
 1761 07fb 58       		.byte	0x58
 1762 07fc 0A       		.uleb128 0xa
 1763 07fd 72313100 		.ascii	"r11\000"
ARM GAS  C:\Users\IDONNO~1\AppData\Local\Temp\ccqkORGP.s 			page 32


 1764 0801 0A       		.byte	0xa
 1765 0802 0E01     		.2byte	0x10e
 1766 0804 A6060000 		.4byte	0x6a6
 1767 0808 5C       		.byte	0x5c
 1768 0809 0A       		.uleb128 0xa
 1769 080a 6C7200   		.ascii	"lr\000"
 1770 080d 0A       		.byte	0xa
 1771 080e 0F01     		.2byte	0x10f
 1772 0810 A6060000 		.4byte	0x6a6
 1773 0814 60       		.byte	0x60
 1774 0815 00       		.byte	0
 1775 0816 10       		.uleb128 0x10
 1776 0817 04       		.byte	0x4
 1777 0818 D5060000 		.4byte	0x6d5
 1778 081c 06       		.uleb128 0x6
 1779 081d 04       		.byte	0x4
 1780 081e 0B       		.byte	0xb
 1781 081f 38       		.byte	0x38
 1782 0820 31080000 		.4byte	0x831
 1783 0824 08       		.uleb128 0x8
 1784 0825 7C020000 		.4byte	.LASF115
 1785 0829 0B       		.byte	0xb
 1786 082a 3C       		.byte	0x3c
 1787 082b 0A030000 		.4byte	0x30a
 1788 082f 00       		.byte	0
 1789 0830 00       		.byte	0
 1790 0831 03       		.uleb128 0x3
 1791 0832 39000000 		.4byte	.LASF116
 1792 0836 0B       		.byte	0xb
 1793 0837 3D       		.byte	0x3d
 1794 0838 1C080000 		.4byte	0x81c
 1795 083c 16       		.uleb128 0x16
 1796 083d 04       		.byte	0x4
 1797 083e 08       		.byte	0x8
 1798 083f FA       		.byte	0xfa
 1799 0840 99080000 		.4byte	0x899
 1800 0844 17       		.uleb128 0x17
 1801 0845 75020000 		.4byte	.LASF117
 1802 0849 08       		.byte	0x8
 1803 084a 0101     		.2byte	0x101
 1804 084c 4C030000 		.4byte	0x34c
 1805 0850 17       		.uleb128 0x17
 1806 0851 20090000 		.4byte	.LASF118
 1807 0855 08       		.byte	0x8
 1808 0856 0801     		.2byte	0x108
 1809 0858 4C030000 		.4byte	0x34c
 1810 085c 17       		.uleb128 0x17
 1811 085d D2000000 		.4byte	.LASF119
 1812 0861 08       		.byte	0x8
 1813 0862 0F01     		.2byte	0x10f
 1814 0864 70050000 		.4byte	0x570
 1815 0868 17       		.uleb128 0x17
 1816 0869 B2080000 		.4byte	.LASF120
 1817 086d 08       		.byte	0x8
 1818 086e 1601     		.2byte	0x116
 1819 0870 99080000 		.4byte	0x899
 1820 0874 17       		.uleb128 0x17
ARM GAS  C:\Users\IDONNO~1\AppData\Local\Temp\ccqkORGP.s 			page 33


 1821 0875 C3070000 		.4byte	.LASF121
 1822 0879 08       		.byte	0x8
 1823 087a 1E01     		.2byte	0x11e
 1824 087c C4080000 		.4byte	0x8c4
 1825 0880 17       		.uleb128 0x17
 1826 0881 32000000 		.4byte	.LASF122
 1827 0885 08       		.byte	0x8
 1828 0886 2701     		.2byte	0x127
 1829 0888 FB080000 		.4byte	0x8fb
 1830 088c 17       		.uleb128 0x17
 1831 088d 0F010000 		.4byte	.LASF123
 1832 0891 08       		.byte	0x8
 1833 0892 2F01     		.2byte	0x12f
 1834 0894 57030000 		.4byte	0x357
 1835 0898 00       		.byte	0
 1836 0899 10       		.uleb128 0x10
 1837 089a 04       		.byte	0x4
 1838 089b 88040000 		.4byte	0x488
 1839 089f 0F       		.uleb128 0xf
 1840 08a0 88010000 		.4byte	.LASF124
 1841 08a4 0C       		.byte	0xc
 1842 08a5 0C       		.byte	0xc
 1843 08a6 34       		.byte	0x34
 1844 08a7 C4080000 		.4byte	0x8c4
 1845 08ab 08       		.uleb128 0x8
 1846 08ac 71000000 		.4byte	.LASF125
 1847 08b0 0C       		.byte	0xc
 1848 08b1 35       		.byte	0x35
 1849 08b2 BD040000 		.4byte	0x4bd
 1850 08b6 00       		.byte	0
 1851 08b7 08       		.uleb128 0x8
 1852 08b8 1F010000 		.4byte	.LASF126
 1853 08bc 0C       		.byte	0xc
 1854 08bd 37       		.byte	0x37
 1855 08be 62030000 		.4byte	0x362
 1856 08c2 08       		.byte	0x8
 1857 08c3 00       		.byte	0
 1858 08c4 10       		.uleb128 0x10
 1859 08c5 04       		.byte	0x4
 1860 08c6 9F080000 		.4byte	0x89f
 1861 08ca 0F       		.uleb128 0xf
 1862 08cb F7030000 		.4byte	.LASF127
 1863 08cf 10       		.byte	0x10
 1864 08d0 0D       		.byte	0xd
 1865 08d1 39       		.byte	0x39
 1866 08d2 FB080000 		.4byte	0x8fb
 1867 08d6 08       		.uleb128 0x8
 1868 08d7 B9060000 		.4byte	.LASF128
 1869 08db 0D       		.byte	0xd
 1870 08dc 3A       		.byte	0x3a
 1871 08dd BD040000 		.4byte	0x4bd
 1872 08e1 00       		.byte	0
 1873 08e2 08       		.uleb128 0x8
 1874 08e3 EA030000 		.4byte	.LASF129
 1875 08e7 0D       		.byte	0xd
 1876 08e8 3C       		.byte	0x3c
 1877 08e9 93040000 		.4byte	0x493
ARM GAS  C:\Users\IDONNO~1\AppData\Local\Temp\ccqkORGP.s 			page 34


 1878 08ed 08       		.byte	0x8
 1879 08ee 08       		.uleb128 0x8
 1880 08ef B8080000 		.4byte	.LASF130
 1881 08f3 0D       		.byte	0xd
 1882 08f4 3E       		.byte	0x3e
 1883 08f5 3E090000 		.4byte	0x93e
 1884 08f9 0C       		.byte	0xc
 1885 08fa 00       		.byte	0
 1886 08fb 10       		.uleb128 0x10
 1887 08fc 04       		.byte	0x4
 1888 08fd CA080000 		.4byte	0x8ca
 1889 0901 10       		.uleb128 0x10
 1890 0902 04       		.byte	0x4
 1891 0903 0E090000 		.4byte	0x90e
 1892 0907 02       		.uleb128 0x2
 1893 0908 01       		.byte	0x1
 1894 0909 08       		.byte	0x8
 1895 090a 56000000 		.4byte	.LASF131
 1896 090e 18       		.uleb128 0x18
 1897 090f 07090000 		.4byte	0x907
 1898 0913 05       		.uleb128 0x5
 1899 0914 6D030000 		.4byte	0x36d
 1900 0918 10       		.uleb128 0x10
 1901 0919 04       		.byte	0x4
 1902 091a 72050000 		.4byte	0x572
 1903 091e 05       		.uleb128 0x5
 1904 091f 01090000 		.4byte	0x901
 1905 0923 19       		.uleb128 0x19
 1906 0924 B1060000 		.4byte	0x6b1
 1907 0928 33090000 		.4byte	0x933
 1908 092c 1A       		.uleb128 0x1a
 1909 092d D9000000 		.4byte	0xd9
 1910 0931 3A       		.byte	0x3a
 1911 0932 00       		.byte	0
 1912 0933 03       		.uleb128 0x3
 1913 0934 D3070000 		.4byte	.LASF132
 1914 0938 0D       		.byte	0xd
 1915 0939 34       		.byte	0x34
 1916 093a CA080000 		.4byte	0x8ca
 1917 093e 10       		.uleb128 0x10
 1918 093f 04       		.byte	0x4
 1919 0940 33090000 		.4byte	0x933
 1920 0944 02       		.uleb128 0x2
 1921 0945 01       		.byte	0x1
 1922 0946 02       		.byte	0x2
 1923 0947 83020000 		.4byte	.LASF133
 1924 094b 02       		.uleb128 0x2
 1925 094c 04       		.byte	0x4
 1926 094d 04       		.byte	0x4
 1927 094e 7C010000 		.4byte	.LASF134
 1928 0952 06       		.uleb128 0x6
 1929 0953 0C       		.byte	0xc
 1930 0954 0E       		.byte	0xe
 1931 0955 DA       		.byte	0xda
 1932 0956 97090000 		.4byte	0x997
 1933 095a 08       		.uleb128 0x8
 1934 095b 64090000 		.4byte	.LASF135
ARM GAS  C:\Users\IDONNO~1\AppData\Local\Temp\ccqkORGP.s 			page 35


 1935 095f 0E       		.byte	0xe
 1936 0960 DB       		.byte	0xdb
 1937 0961 97090000 		.4byte	0x997
 1938 0965 00       		.byte	0
 1939 0966 08       		.uleb128 0x8
 1940 0967 70010000 		.4byte	.LASF136
 1941 096b 0E       		.byte	0xe
 1942 096c DC       		.byte	0xdc
 1943 096d 9D090000 		.4byte	0x99d
 1944 0971 04       		.byte	0x4
 1945 0972 08       		.uleb128 0x8
 1946 0973 7A040000 		.4byte	.LASF137
 1947 0977 0E       		.byte	0xe
 1948 0978 DD       		.byte	0xdd
 1949 0979 A2000000 		.4byte	0xa2
 1950 097d 08       		.byte	0x8
 1951 097e 08       		.uleb128 0x8
 1952 097f 29090000 		.4byte	.LASF138
 1953 0983 0E       		.byte	0xe
 1954 0984 DF       		.byte	0xdf
 1955 0985 A2000000 		.4byte	0xa2
 1956 0989 09       		.byte	0x9
 1957 098a 08       		.uleb128 0x8
 1958 098b DA010000 		.4byte	.LASF139
 1959 098f 0E       		.byte	0xe
 1960 0990 E0       		.byte	0xe0
 1961 0991 A2000000 		.4byte	0xa2
 1962 0995 0A       		.byte	0xa
 1963 0996 00       		.byte	0
 1964 0997 10       		.uleb128 0x10
 1965 0998 04       		.byte	0x4
 1966 0999 3E020000 		.4byte	0x23e
 1967 099d 10       		.uleb128 0x10
 1968 099e 04       		.byte	0x4
 1969 099f E0000000 		.4byte	0xe0
 1970 09a3 03       		.uleb128 0x3
 1971 09a4 A1040000 		.4byte	.LASF140
 1972 09a8 0E       		.byte	0xe
 1973 09a9 E1       		.byte	0xe1
 1974 09aa 52090000 		.4byte	0x952
 1975 09ae 06       		.uleb128 0x6
 1976 09af 04       		.byte	0x4
 1977 09b0 0F       		.byte	0xf
 1978 09b1 B3       		.byte	0xb3
 1979 09b2 CF090000 		.4byte	0x9cf
 1980 09b6 07       		.uleb128 0x7
 1981 09b7 73657400 		.ascii	"set\000"
 1982 09bb 0F       		.byte	0xf
 1983 09bc B4       		.byte	0xb4
 1984 09bd AD000000 		.4byte	0xad
 1985 09c1 00       		.byte	0
 1986 09c2 08       		.uleb128 0x8
 1987 09c3 2E020000 		.4byte	.LASF141
 1988 09c7 0F       		.byte	0xf
 1989 09c8 B5       		.byte	0xb5
 1990 09c9 AD000000 		.4byte	0xad
 1991 09cd 02       		.byte	0x2
ARM GAS  C:\Users\IDONNO~1\AppData\Local\Temp\ccqkORGP.s 			page 36


 1992 09ce 00       		.byte	0
 1993 09cf 16       		.uleb128 0x16
 1994 09d0 04       		.byte	0x4
 1995 09d1 0F       		.byte	0xf
 1996 09d2 B1       		.byte	0xb1
 1997 09d3 EA090000 		.4byte	0x9ea
 1998 09d7 1B       		.uleb128 0x1b
 1999 09d8 5700     		.ascii	"W\000"
 2000 09da 0F       		.byte	0xf
 2001 09db B2       		.byte	0xb2
 2002 09dc C3000000 		.4byte	0xc3
 2003 09e0 1B       		.uleb128 0x1b
 2004 09e1 4800     		.ascii	"H\000"
 2005 09e3 0F       		.byte	0xf
 2006 09e4 B6       		.byte	0xb6
 2007 09e5 AE090000 		.4byte	0x9ae
 2008 09e9 00       		.byte	0
 2009 09ea 06       		.uleb128 0x6
 2010 09eb 2C       		.byte	0x2c
 2011 09ec 0F       		.byte	0xf
 2012 09ed A9       		.byte	0xa9
 2013 09ee 770A0000 		.4byte	0xa77
 2014 09f2 08       		.uleb128 0x8
 2015 09f3 09020000 		.4byte	.LASF142
 2016 09f7 0F       		.byte	0xf
 2017 09f8 AB       		.byte	0xab
 2018 09f9 E0000000 		.4byte	0xe0
 2019 09fd 00       		.byte	0
 2020 09fe 08       		.uleb128 0x8
 2021 09ff 06070000 		.4byte	.LASF143
 2022 0a03 0F       		.byte	0xf
 2023 0a04 AC       		.byte	0xac
 2024 0a05 E0000000 		.4byte	0xe0
 2025 0a09 04       		.byte	0x4
 2026 0a0a 08       		.uleb128 0x8
 2027 0a0b 40060000 		.4byte	.LASF144
 2028 0a0f 0F       		.byte	0xf
 2029 0a10 AD       		.byte	0xad
 2030 0a11 E0000000 		.4byte	0xe0
 2031 0a15 08       		.byte	0x8
 2032 0a16 08       		.uleb128 0x8
 2033 0a17 AD030000 		.4byte	.LASF145
 2034 0a1b 0F       		.byte	0xf
 2035 0a1c AE       		.byte	0xae
 2036 0a1d E0000000 		.4byte	0xe0
 2037 0a21 0C       		.byte	0xc
 2038 0a22 07       		.uleb128 0x7
 2039 0a23 49445200 		.ascii	"IDR\000"
 2040 0a27 0F       		.byte	0xf
 2041 0a28 AF       		.byte	0xaf
 2042 0a29 E0000000 		.4byte	0xe0
 2043 0a2d 10       		.byte	0x10
 2044 0a2e 07       		.uleb128 0x7
 2045 0a2f 4F445200 		.ascii	"ODR\000"
 2046 0a33 0F       		.byte	0xf
 2047 0a34 B0       		.byte	0xb0
 2048 0a35 E0000000 		.4byte	0xe0
ARM GAS  C:\Users\IDONNO~1\AppData\Local\Temp\ccqkORGP.s 			page 37


 2049 0a39 14       		.byte	0x14
 2050 0a3a 08       		.uleb128 0x8
 2051 0a3b 51000000 		.4byte	.LASF146
 2052 0a3f 0F       		.byte	0xf
 2053 0a40 B7       		.byte	0xb7
 2054 0a41 770A0000 		.4byte	0xa77
 2055 0a45 18       		.byte	0x18
 2056 0a46 08       		.uleb128 0x8
 2057 0a47 4C090000 		.4byte	.LASF147
 2058 0a4b 0F       		.byte	0xf
 2059 0a4c B8       		.byte	0xb8
 2060 0a4d E0000000 		.4byte	0xe0
 2061 0a51 1C       		.byte	0x1c
 2062 0a52 08       		.uleb128 0x8
 2063 0a53 21020000 		.4byte	.LASF148
 2064 0a57 0F       		.byte	0xf
 2065 0a58 B9       		.byte	0xb9
 2066 0a59 E0000000 		.4byte	0xe0
 2067 0a5d 20       		.byte	0x20
 2068 0a5e 08       		.uleb128 0x8
 2069 0a5f 0F020000 		.4byte	.LASF149
 2070 0a63 0F       		.byte	0xf
 2071 0a64 BA       		.byte	0xba
 2072 0a65 E0000000 		.4byte	0xe0
 2073 0a69 24       		.byte	0x24
 2074 0a6a 07       		.uleb128 0x7
 2075 0a6b 42525200 		.ascii	"BRR\000"
 2076 0a6f 0F       		.byte	0xf
 2077 0a70 BB       		.byte	0xbb
 2078 0a71 E0000000 		.4byte	0xe0
 2079 0a75 28       		.byte	0x28
 2080 0a76 00       		.byte	0
 2081 0a77 05       		.uleb128 0x5
 2082 0a78 CF090000 		.4byte	0x9cf
 2083 0a7c 03       		.uleb128 0x3
 2084 0a7d 14020000 		.4byte	.LASF150
 2085 0a81 0F       		.byte	0xf
 2086 0a82 BC       		.byte	0xbc
 2087 0a83 EA090000 		.4byte	0x9ea
 2088 0a87 0C       		.uleb128 0xc
 2089 0a88 90050000 		.4byte	.LASF151
 2090 0a8c 0F       		.byte	0xf
 2091 0a8d 0E01     		.2byte	0x10e
 2092 0a8f C3000000 		.4byte	0xc3
 2093 0a93 10       		.uleb128 0x10
 2094 0a94 04       		.byte	0x4
 2095 0a95 7C0A0000 		.4byte	0xa7c
 2096 0a99 0D       		.uleb128 0xd
 2097 0a9a 01       		.byte	0x1
 2098 0a9b 37000000 		.4byte	0x37
 2099 0a9f 11       		.byte	0x11
 2100 0aa0 4C       		.byte	0x4c
 2101 0aa1 CA0A0000 		.4byte	0xaca
 2102 0aa5 0E       		.uleb128 0xe
 2103 0aa6 77050000 		.4byte	.LASF152
 2104 0aaa 00       		.byte	0
 2105 0aab 0E       		.uleb128 0xe
ARM GAS  C:\Users\IDONNO~1\AppData\Local\Temp\ccqkORGP.s 			page 38


 2106 0aac CA070000 		.4byte	.LASF153
 2107 0ab0 01       		.byte	0x1
 2108 0ab1 0E       		.uleb128 0xe
 2109 0ab2 74060000 		.4byte	.LASF154
 2110 0ab6 02       		.byte	0x2
 2111 0ab7 0E       		.uleb128 0xe
 2112 0ab8 4F010000 		.4byte	.LASF155
 2113 0abc 03       		.byte	0x3
 2114 0abd 0E       		.uleb128 0xe
 2115 0abe 84000000 		.4byte	.LASF156
 2116 0ac2 04       		.byte	0x4
 2117 0ac3 0E       		.uleb128 0xe
 2118 0ac4 E5060000 		.4byte	.LASF157
 2119 0ac8 05       		.byte	0x5
 2120 0ac9 00       		.byte	0
 2121 0aca 03       		.uleb128 0x3
 2122 0acb FE050000 		.4byte	.LASF158
 2123 0acf 11       		.byte	0x11
 2124 0ad0 53       		.byte	0x53
 2125 0ad1 990A0000 		.4byte	0xa99
 2126 0ad5 0C       		.uleb128 0xc
 2127 0ad6 D6060000 		.4byte	.LASF159
 2128 0ada 12       		.byte	0x12
 2129 0adb 6A01     		.2byte	0x16a
 2130 0add AD000000 		.4byte	0xad
 2131 0ae1 0C       		.uleb128 0xc
 2132 0ae2 5A020000 		.4byte	.LASF160
 2133 0ae6 12       		.byte	0x12
 2134 0ae7 6F01     		.2byte	0x16f
 2135 0ae9 C3000000 		.4byte	0xc3
 2136 0aed 1C       		.uleb128 0x1c
 2137 0aee 01       		.byte	0x1
 2138 0aef 37000000 		.4byte	0x37
 2139 0af3 12       		.byte	0x12
 2140 0af4 7401     		.2byte	0x174
 2141 0af6 0D0B0000 		.4byte	0xb0d
 2142 0afa 0E       		.uleb128 0xe
 2143 0afb 44010000 		.4byte	.LASF161
 2144 0aff 01       		.byte	0x1
 2145 0b00 0E       		.uleb128 0xe
 2146 0b01 A8070000 		.4byte	.LASF162
 2147 0b05 02       		.byte	0x2
 2148 0b06 0E       		.uleb128 0xe
 2149 0b07 55050000 		.4byte	.LASF163
 2150 0b0b 03       		.byte	0x3
 2151 0b0c 00       		.byte	0
 2152 0b0d 0C       		.uleb128 0xc
 2153 0b0e 5E080000 		.4byte	.LASF164
 2154 0b12 12       		.byte	0x12
 2155 0b13 7801     		.2byte	0x178
 2156 0b15 ED0A0000 		.4byte	0xaed
 2157 0b19 1C       		.uleb128 0x1c
 2158 0b1a 01       		.byte	0x1
 2159 0b1b 37000000 		.4byte	0x37
 2160 0b1f 12       		.byte	0x12
 2161 0b20 7D01     		.2byte	0x17d
 2162 0b22 390B0000 		.4byte	0xb39
ARM GAS  C:\Users\IDONNO~1\AppData\Local\Temp\ccqkORGP.s 			page 39


 2163 0b26 0E       		.uleb128 0xe
 2164 0b27 0B040000 		.4byte	.LASF165
 2165 0b2b 01       		.byte	0x1
 2166 0b2c 0E       		.uleb128 0xe
 2167 0b2d 09060000 		.4byte	.LASF166
 2168 0b31 02       		.byte	0x2
 2169 0b32 0E       		.uleb128 0xe
 2170 0b33 CA040000 		.4byte	.LASF167
 2171 0b37 03       		.byte	0x3
 2172 0b38 00       		.byte	0
 2173 0b39 0C       		.uleb128 0xc
 2174 0b3a 4B020000 		.4byte	.LASF168
 2175 0b3e 12       		.byte	0x12
 2176 0b3f 8101     		.2byte	0x181
 2177 0b41 190B0000 		.4byte	0xb19
 2178 0b45 09       		.uleb128 0x9
 2179 0b46 0C       		.byte	0xc
 2180 0b47 12       		.byte	0x12
 2181 0b48 8601     		.2byte	0x186
 2182 0b4a 760B0000 		.4byte	0xb76
 2183 0b4e 0B       		.uleb128 0xb
 2184 0b4f 6C060000 		.4byte	.LASF169
 2185 0b53 12       		.byte	0x12
 2186 0b54 8801     		.2byte	0x188
 2187 0b56 0D0B0000 		.4byte	0xb0d
 2188 0b5a 00       		.byte	0
 2189 0b5b 0B       		.uleb128 0xb
 2190 0b5c DB050000 		.4byte	.LASF170
 2191 0b60 12       		.byte	0x12
 2192 0b61 8901     		.2byte	0x189
 2193 0b63 C3000000 		.4byte	0xc3
 2194 0b67 04       		.byte	0x4
 2195 0b68 0B       		.uleb128 0xb
 2196 0b69 1A040000 		.4byte	.LASF171
 2197 0b6d 12       		.byte	0x12
 2198 0b6e 8C01     		.2byte	0x18c
 2199 0b70 390B0000 		.4byte	0xb39
 2200 0b74 08       		.byte	0x8
 2201 0b75 00       		.byte	0
 2202 0b76 0C       		.uleb128 0xc
 2203 0b77 FF010000 		.4byte	.LASF172
 2204 0b7b 12       		.byte	0x12
 2205 0b7c 8E01     		.2byte	0x18e
 2206 0b7e 450B0000 		.4byte	0xb45
 2207 0b82 0C       		.uleb128 0xc
 2208 0b83 9F000000 		.4byte	.LASF173
 2209 0b87 12       		.byte	0x12
 2210 0b88 9301     		.2byte	0x193
 2211 0b8a 8E0B0000 		.4byte	0xb8e
 2212 0b8e 11       		.uleb128 0x11
 2213 0b8f 9F000000 		.4byte	.LASF173
 2214 0b93 38       		.byte	0x38
 2215 0b94 12       		.byte	0x12
 2216 0b95 9801     		.2byte	0x198
 2217 0b97 2B0C0000 		.4byte	0xc2b
 2218 0b9b 0B       		.uleb128 0xb
 2219 0b9c 6F080000 		.4byte	.LASF174
ARM GAS  C:\Users\IDONNO~1\AppData\Local\Temp\ccqkORGP.s 			page 40


 2220 0ba0 12       		.byte	0x12
 2221 0ba1 9C01     		.2byte	0x19c
 2222 0ba3 CA0A0000 		.4byte	0xaca
 2223 0ba7 00       		.byte	0
 2224 0ba8 0B       		.uleb128 0xb
 2225 0ba9 7E060000 		.4byte	.LASF175
 2226 0bad 12       		.byte	0x12
 2227 0bae A001     		.2byte	0x1a0
 2228 0bb0 2B0C0000 		.4byte	0xc2b
 2229 0bb4 04       		.byte	0x4
 2230 0bb5 0B       		.uleb128 0xb
 2231 0bb6 E1010000 		.4byte	.LASF176
 2232 0bba 12       		.byte	0x12
 2233 0bbb A401     		.2byte	0x1a4
 2234 0bbd E10A0000 		.4byte	0xae1
 2235 0bc1 08       		.byte	0x8
 2236 0bc2 0B       		.uleb128 0xb
 2237 0bc3 82010000 		.4byte	.LASF177
 2238 0bc7 12       		.byte	0x12
 2239 0bc8 A901     		.2byte	0x1a9
 2240 0bca 33090000 		.4byte	0x933
 2241 0bce 0C       		.byte	0xc
 2242 0bcf 0B       		.uleb128 0xb
 2243 0bd0 BC070000 		.4byte	.LASF178
 2244 0bd4 12       		.byte	0x12
 2245 0bd5 B201     		.2byte	0x1b2
 2246 0bd7 88040000 		.4byte	0x488
 2247 0bdb 1C       		.byte	0x1c
 2248 0bdc 0B       		.uleb128 0xb
 2249 0bdd 6A080000 		.4byte	.LASF179
 2250 0be1 12       		.byte	0x12
 2251 0be2 B601     		.2byte	0x1b6
 2252 0be4 D50A0000 		.4byte	0xad5
 2253 0be8 20       		.byte	0x20
 2254 0be9 0B       		.uleb128 0xb
 2255 0bea 33080000 		.4byte	.LASF180
 2256 0bee 12       		.byte	0x12
 2257 0bef BA01     		.2byte	0x1ba
 2258 0bf1 C3000000 		.4byte	0xc3
 2259 0bf5 24       		.byte	0x24
 2260 0bf6 0B       		.uleb128 0xb
 2261 0bf7 70040000 		.4byte	.LASF181
 2262 0bfb 12       		.byte	0x12
 2263 0bfc BE01     		.2byte	0x1be
 2264 0bfe C3000000 		.4byte	0xc3
 2265 0c02 28       		.byte	0x28
 2266 0c03 0B       		.uleb128 0xb
 2267 0c04 6B000000 		.4byte	.LASF182
 2268 0c08 12       		.byte	0x12
 2269 0c09 C201     		.2byte	0x1c2
 2270 0c0b 360C0000 		.4byte	0xc36
 2271 0c0f 2C       		.byte	0x2c
 2272 0c10 0B       		.uleb128 0xb
 2273 0c11 35010000 		.4byte	.LASF183
 2274 0c15 12       		.byte	0x12
 2275 0c16 C601     		.2byte	0x1c6
 2276 0c18 360C0000 		.4byte	0xc36
ARM GAS  C:\Users\IDONNO~1\AppData\Local\Temp\ccqkORGP.s 			page 41


 2277 0c1c 30       		.byte	0x30
 2278 0c1d 0A       		.uleb128 0xa
 2279 0c1e 69326300 		.ascii	"i2c\000"
 2280 0c22 12       		.byte	0x12
 2281 0c23 CA01     		.2byte	0x1ca
 2282 0c25 410C0000 		.4byte	0xc41
 2283 0c29 34       		.byte	0x34
 2284 0c2a 00       		.byte	0
 2285 0c2b 10       		.uleb128 0x10
 2286 0c2c 04       		.byte	0x4
 2287 0c2d 310C0000 		.4byte	0xc31
 2288 0c31 18       		.uleb128 0x18
 2289 0c32 760B0000 		.4byte	0xb76
 2290 0c36 10       		.uleb128 0x10
 2291 0c37 04       		.byte	0x4
 2292 0c38 3C0C0000 		.4byte	0xc3c
 2293 0c3c 18       		.uleb128 0x18
 2294 0c3d A3090000 		.4byte	0x9a3
 2295 0c41 10       		.uleb128 0x10
 2296 0c42 04       		.byte	0x4
 2297 0c43 D5020000 		.4byte	0x2d5
 2298 0c47 06       		.uleb128 0x6
 2299 0c48 0C       		.byte	0xc
 2300 0c49 13       		.byte	0x13
 2301 0c4a 88       		.byte	0x88
 2302 0c4b 800C0000 		.4byte	0xc80
 2303 0c4f 07       		.uleb128 0x7
 2304 0c50 706F7300 		.ascii	"pos\000"
 2305 0c54 13       		.byte	0x13
 2306 0c55 89       		.byte	0x89
 2307 0c56 800C0000 		.4byte	0xc80
 2308 0c5a 00       		.byte	0
 2309 0c5b 08       		.uleb128 0x8
 2310 0c5c 7C020000 		.4byte	.LASF115
 2311 0c60 13       		.byte	0x13
 2312 0c61 8A       		.byte	0x8a
 2313 0c62 850C0000 		.4byte	0xc85
 2314 0c66 02       		.byte	0x2
 2315 0c67 08       		.uleb128 0x8
 2316 0c68 44040000 		.4byte	.LASF184
 2317 0c6c 13       		.byte	0x13
 2318 0c6d 8B       		.byte	0x8b
 2319 0c6e 930A0000 		.4byte	0xa93
 2320 0c72 04       		.byte	0x4
 2321 0c73 07       		.uleb128 0x7
 2322 0c74 70696E00 		.ascii	"pin\000"
 2323 0c78 13       		.byte	0x13
 2324 0c79 8C       		.byte	0x8c
 2325 0c7a 8A0C0000 		.4byte	0xc8a
 2326 0c7e 08       		.byte	0x8
 2327 0c7f 00       		.byte	0
 2328 0c80 05       		.uleb128 0x5
 2329 0c81 3E000000 		.4byte	0x3e
 2330 0c85 05       		.uleb128 0x5
 2331 0c86 37000000 		.4byte	0x37
 2332 0c8a 05       		.uleb128 0x5
 2333 0c8b 9B000000 		.4byte	0x9b
ARM GAS  C:\Users\IDONNO~1\AppData\Local\Temp\ccqkORGP.s 			page 42


 2334 0c8f 03       		.uleb128 0x3
 2335 0c90 A9000000 		.4byte	.LASF185
 2336 0c94 13       		.byte	0x13
 2337 0c95 8D       		.byte	0x8d
 2338 0c96 470C0000 		.4byte	0xc47
 2339 0c9a 1D       		.uleb128 0x1d
 2340 0c9b 02010000 		.4byte	.LASF186
 2341 0c9f 01       		.byte	0x1
 2342 0ca0 30       		.byte	0x30
 2343 0ca1 00000000 		.4byte	.LFB256
 2344 0ca5 44010000 		.4byte	.LFE256-.LFB256
 2345 0ca9 01       		.uleb128 0x1
 2346 0caa 9C       		.byte	0x9c
 2347 0cab E20F0000 		.4byte	0xfe2
 2348 0caf 1E       		.uleb128 0x1e
 2349 0cb0 12000000 		.4byte	.LVL0
 2350 0cb4 A3140000 		.4byte	0x14a3
 2351 0cb8 C70C0000 		.4byte	0xcc7
 2352 0cbc 1F       		.uleb128 0x1f
 2353 0cbd 01       		.uleb128 0x1
 2354 0cbe 50       		.byte	0x50
 2355 0cbf 01       		.uleb128 0x1
 2356 0cc0 31       		.byte	0x31
 2357 0cc1 1F       		.uleb128 0x1f
 2358 0cc2 01       		.uleb128 0x1
 2359 0cc3 51       		.byte	0x51
 2360 0cc4 01       		.uleb128 0x1
 2361 0cc5 31       		.byte	0x31
 2362 0cc6 00       		.byte	0
 2363 0cc7 1E       		.uleb128 0x1e
 2364 0cc8 1A000000 		.4byte	.LVL1
 2365 0ccc A3140000 		.4byte	0x14a3
 2366 0cd0 DF0C0000 		.4byte	0xcdf
 2367 0cd4 1F       		.uleb128 0x1f
 2368 0cd5 01       		.uleb128 0x1
 2369 0cd6 50       		.byte	0x50
 2370 0cd7 01       		.uleb128 0x1
 2371 0cd8 32       		.byte	0x32
 2372 0cd9 1F       		.uleb128 0x1f
 2373 0cda 01       		.uleb128 0x1
 2374 0cdb 51       		.byte	0x51
 2375 0cdc 01       		.uleb128 0x1
 2376 0cdd 31       		.byte	0x31
 2377 0cde 00       		.byte	0
 2378 0cdf 1E       		.uleb128 0x1e
 2379 0ce0 22000000 		.4byte	.LVL2
 2380 0ce4 A3140000 		.4byte	0x14a3
 2381 0ce8 F70C0000 		.4byte	0xcf7
 2382 0cec 1F       		.uleb128 0x1f
 2383 0ced 01       		.uleb128 0x1
 2384 0cee 50       		.byte	0x50
 2385 0cef 01       		.uleb128 0x1
 2386 0cf0 34       		.byte	0x34
 2387 0cf1 1F       		.uleb128 0x1f
 2388 0cf2 01       		.uleb128 0x1
 2389 0cf3 51       		.byte	0x51
 2390 0cf4 01       		.uleb128 0x1
ARM GAS  C:\Users\IDONNO~1\AppData\Local\Temp\ccqkORGP.s 			page 43


 2391 0cf5 31       		.byte	0x31
 2392 0cf6 00       		.byte	0
 2393 0cf7 1E       		.uleb128 0x1e
 2394 0cf8 2E000000 		.4byte	.LVL3
 2395 0cfc AF140000 		.4byte	0x14af
 2396 0d00 150D0000 		.4byte	0xd15
 2397 0d04 1F       		.uleb128 0x1f
 2398 0d05 01       		.uleb128 0x1
 2399 0d06 50       		.byte	0x50
 2400 0d07 02       		.uleb128 0x2
 2401 0d08 74       		.byte	0x74
 2402 0d09 00       		.sleb128 0
 2403 0d0a 1F       		.uleb128 0x1f
 2404 0d0b 01       		.uleb128 0x1
 2405 0d0c 51       		.byte	0x51
 2406 0d0d 01       		.uleb128 0x1
 2407 0d0e 40       		.byte	0x40
 2408 0d0f 1F       		.uleb128 0x1f
 2409 0d10 01       		.uleb128 0x1
 2410 0d11 52       		.byte	0x52
 2411 0d12 01       		.uleb128 0x1
 2412 0d13 49       		.byte	0x49
 2413 0d14 00       		.byte	0
 2414 0d15 1E       		.uleb128 0x1e
 2415 0d16 40000000 		.4byte	.LVL4
 2416 0d1a AF140000 		.4byte	0x14af
 2417 0d1e 340D0000 		.4byte	0xd34
 2418 0d22 1F       		.uleb128 0x1f
 2419 0d23 01       		.uleb128 0x1
 2420 0d24 50       		.byte	0x50
 2421 0d25 02       		.uleb128 0x2
 2422 0d26 74       		.byte	0x74
 2423 0d27 00       		.sleb128 0
 2424 0d28 1F       		.uleb128 0x1f
 2425 0d29 01       		.uleb128 0x1
 2426 0d2a 51       		.byte	0x51
 2427 0d2b 02       		.uleb128 0x2
 2428 0d2c 77       		.byte	0x77
 2429 0d2d 00       		.sleb128 0
 2430 0d2e 1F       		.uleb128 0x1f
 2431 0d2f 01       		.uleb128 0x1
 2432 0d30 52       		.byte	0x52
 2433 0d31 01       		.uleb128 0x1
 2434 0d32 49       		.byte	0x49
 2435 0d33 00       		.byte	0
 2436 0d34 1E       		.uleb128 0x1e
 2437 0d35 50000000 		.4byte	.LVL5
 2438 0d39 AF140000 		.4byte	0x14af
 2439 0d3d 530D0000 		.4byte	0xd53
 2440 0d41 1F       		.uleb128 0x1f
 2441 0d42 01       		.uleb128 0x1
 2442 0d43 50       		.byte	0x50
 2443 0d44 02       		.uleb128 0x2
 2444 0d45 74       		.byte	0x74
 2445 0d46 00       		.sleb128 0
 2446 0d47 1F       		.uleb128 0x1f
 2447 0d48 01       		.uleb128 0x1
ARM GAS  C:\Users\IDONNO~1\AppData\Local\Temp\ccqkORGP.s 			page 44


 2448 0d49 51       		.byte	0x51
 2449 0d4a 02       		.uleb128 0x2
 2450 0d4b 79       		.byte	0x79
 2451 0d4c 00       		.sleb128 0
 2452 0d4d 1F       		.uleb128 0x1f
 2453 0d4e 01       		.uleb128 0x1
 2454 0d4f 52       		.byte	0x52
 2455 0d50 01       		.uleb128 0x1
 2456 0d51 49       		.byte	0x49
 2457 0d52 00       		.byte	0
 2458 0d53 1E       		.uleb128 0x1e
 2459 0d54 60000000 		.4byte	.LVL6
 2460 0d58 AF140000 		.4byte	0x14af
 2461 0d5c 730D0000 		.4byte	0xd73
 2462 0d60 1F       		.uleb128 0x1f
 2463 0d61 01       		.uleb128 0x1
 2464 0d62 50       		.byte	0x50
 2465 0d63 02       		.uleb128 0x2
 2466 0d64 76       		.byte	0x76
 2467 0d65 00       		.sleb128 0
 2468 0d66 1F       		.uleb128 0x1f
 2469 0d67 01       		.uleb128 0x1
 2470 0d68 51       		.byte	0x51
 2471 0d69 03       		.uleb128 0x3
 2472 0d6a 0A       		.byte	0xa
 2473 0d6b 0010     		.2byte	0x1000
 2474 0d6d 1F       		.uleb128 0x1f
 2475 0d6e 01       		.uleb128 0x1
 2476 0d6f 52       		.byte	0x52
 2477 0d70 01       		.uleb128 0x1
 2478 0d71 49       		.byte	0x49
 2479 0d72 00       		.byte	0
 2480 0d73 1E       		.uleb128 0x1e
 2481 0d74 6C000000 		.4byte	.LVL7
 2482 0d78 AF140000 		.4byte	0x14af
 2483 0d7c 940D0000 		.4byte	0xd94
 2484 0d80 1F       		.uleb128 0x1f
 2485 0d81 01       		.uleb128 0x1
 2486 0d82 50       		.byte	0x50
 2487 0d83 02       		.uleb128 0x2
 2488 0d84 75       		.byte	0x75
 2489 0d85 00       		.sleb128 0
 2490 0d86 1F       		.uleb128 0x1f
 2491 0d87 01       		.uleb128 0x1
 2492 0d88 51       		.byte	0x51
 2493 0d89 03       		.uleb128 0x3
 2494 0d8a 0A       		.byte	0xa
 2495 0d8b 0001     		.2byte	0x100
 2496 0d8d 1F       		.uleb128 0x1f
 2497 0d8e 01       		.uleb128 0x1
 2498 0d8f 52       		.byte	0x52
 2499 0d90 02       		.uleb128 0x2
 2500 0d91 08       		.byte	0x8
 2501 0d92 9A       		.byte	0x9a
 2502 0d93 00       		.byte	0
 2503 0d94 1E       		.uleb128 0x1e
 2504 0d95 78000000 		.4byte	.LVL8
ARM GAS  C:\Users\IDONNO~1\AppData\Local\Temp\ccqkORGP.s 			page 45


 2505 0d99 AF140000 		.4byte	0x14af
 2506 0d9d B50D0000 		.4byte	0xdb5
 2507 0da1 1F       		.uleb128 0x1f
 2508 0da2 01       		.uleb128 0x1
 2509 0da3 50       		.byte	0x50
 2510 0da4 02       		.uleb128 0x2
 2511 0da5 75       		.byte	0x75
 2512 0da6 00       		.sleb128 0
 2513 0da7 1F       		.uleb128 0x1f
 2514 0da8 01       		.uleb128 0x1
 2515 0da9 51       		.byte	0x51
 2516 0daa 03       		.uleb128 0x3
 2517 0dab 0A       		.byte	0xa
 2518 0dac 0002     		.2byte	0x200
 2519 0dae 1F       		.uleb128 0x1f
 2520 0daf 01       		.uleb128 0x1
 2521 0db0 52       		.byte	0x52
 2522 0db1 02       		.uleb128 0x2
 2523 0db2 08       		.byte	0x8
 2524 0db3 9A       		.byte	0x9a
 2525 0db4 00       		.byte	0
 2526 0db5 1E       		.uleb128 0x1e
 2527 0db6 82000000 		.4byte	.LVL9
 2528 0dba AF140000 		.4byte	0x14af
 2529 0dbe D50D0000 		.4byte	0xdd5
 2530 0dc2 1F       		.uleb128 0x1f
 2531 0dc3 01       		.uleb128 0x1
 2532 0dc4 50       		.byte	0x50
 2533 0dc5 02       		.uleb128 0x2
 2534 0dc6 75       		.byte	0x75
 2535 0dc7 00       		.sleb128 0
 2536 0dc8 1F       		.uleb128 0x1f
 2537 0dc9 01       		.uleb128 0x1
 2538 0dca 51       		.byte	0x51
 2539 0dcb 02       		.uleb128 0x2
 2540 0dcc 79       		.byte	0x79
 2541 0dcd 00       		.sleb128 0
 2542 0dce 1F       		.uleb128 0x1f
 2543 0dcf 01       		.uleb128 0x1
 2544 0dd0 52       		.byte	0x52
 2545 0dd1 02       		.uleb128 0x2
 2546 0dd2 08       		.byte	0x8
 2547 0dd3 9A       		.byte	0x9a
 2548 0dd4 00       		.byte	0
 2549 0dd5 1E       		.uleb128 0x1e
 2550 0dd6 8E000000 		.4byte	.LVL10
 2551 0dda AF140000 		.4byte	0x14af
 2552 0dde F60D0000 		.4byte	0xdf6
 2553 0de2 1F       		.uleb128 0x1f
 2554 0de3 01       		.uleb128 0x1
 2555 0de4 50       		.byte	0x50
 2556 0de5 02       		.uleb128 0x2
 2557 0de6 76       		.byte	0x76
 2558 0de7 00       		.sleb128 0
 2559 0de8 1F       		.uleb128 0x1f
 2560 0de9 01       		.uleb128 0x1
 2561 0dea 51       		.byte	0x51
ARM GAS  C:\Users\IDONNO~1\AppData\Local\Temp\ccqkORGP.s 			page 46


 2562 0deb 03       		.uleb128 0x3
 2563 0dec 0A       		.byte	0xa
 2564 0ded 0020     		.2byte	0x2000
 2565 0def 1F       		.uleb128 0x1f
 2566 0df0 01       		.uleb128 0x1
 2567 0df1 52       		.byte	0x52
 2568 0df2 02       		.uleb128 0x2
 2569 0df3 08       		.byte	0x8
 2570 0df4 9A       		.byte	0x9a
 2571 0df5 00       		.byte	0
 2572 0df6 1E       		.uleb128 0x1e
 2573 0df7 9A000000 		.4byte	.LVL11
 2574 0dfb AF140000 		.4byte	0x14af
 2575 0dff 170E0000 		.4byte	0xe17
 2576 0e03 1F       		.uleb128 0x1f
 2577 0e04 01       		.uleb128 0x1
 2578 0e05 50       		.byte	0x50
 2579 0e06 02       		.uleb128 0x2
 2580 0e07 76       		.byte	0x76
 2581 0e08 00       		.sleb128 0
 2582 0e09 1F       		.uleb128 0x1f
 2583 0e0a 01       		.uleb128 0x1
 2584 0e0b 51       		.byte	0x51
 2585 0e0c 03       		.uleb128 0x3
 2586 0e0d 0A       		.byte	0xa
 2587 0e0e 0040     		.2byte	0x4000
 2588 0e10 1F       		.uleb128 0x1f
 2589 0e11 01       		.uleb128 0x1
 2590 0e12 52       		.byte	0x52
 2591 0e13 02       		.uleb128 0x2
 2592 0e14 08       		.byte	0x8
 2593 0e15 9A       		.byte	0x9a
 2594 0e16 00       		.byte	0
 2595 0e17 1E       		.uleb128 0x1e
 2596 0e18 A6000000 		.4byte	.LVL12
 2597 0e1c AF140000 		.4byte	0x14af
 2598 0e20 380E0000 		.4byte	0xe38
 2599 0e24 1F       		.uleb128 0x1f
 2600 0e25 01       		.uleb128 0x1
 2601 0e26 50       		.byte	0x50
 2602 0e27 02       		.uleb128 0x2
 2603 0e28 76       		.byte	0x76
 2604 0e29 00       		.sleb128 0
 2605 0e2a 1F       		.uleb128 0x1f
 2606 0e2b 01       		.uleb128 0x1
 2607 0e2c 51       		.byte	0x51
 2608 0e2d 03       		.uleb128 0x3
 2609 0e2e 0A       		.byte	0xa
 2610 0e2f 0080     		.2byte	0x8000
 2611 0e31 1F       		.uleb128 0x1f
 2612 0e32 01       		.uleb128 0x1
 2613 0e33 52       		.byte	0x52
 2614 0e34 02       		.uleb128 0x2
 2615 0e35 08       		.byte	0x8
 2616 0e36 9A       		.byte	0x9a
 2617 0e37 00       		.byte	0
 2618 0e38 1E       		.uleb128 0x1e
ARM GAS  C:\Users\IDONNO~1\AppData\Local\Temp\ccqkORGP.s 			page 47


 2619 0e39 B2000000 		.4byte	.LVL13
 2620 0e3d AF140000 		.4byte	0x14af
 2621 0e41 590E0000 		.4byte	0xe59
 2622 0e45 1F       		.uleb128 0x1f
 2623 0e46 01       		.uleb128 0x1
 2624 0e47 50       		.byte	0x50
 2625 0e48 02       		.uleb128 0x2
 2626 0e49 74       		.byte	0x74
 2627 0e4a 00       		.sleb128 0
 2628 0e4b 1F       		.uleb128 0x1f
 2629 0e4c 01       		.uleb128 0x1
 2630 0e4d 51       		.byte	0x51
 2631 0e4e 03       		.uleb128 0x3
 2632 0e4f 0A       		.byte	0xa
 2633 0e50 0010     		.2byte	0x1000
 2634 0e52 1F       		.uleb128 0x1f
 2635 0e53 01       		.uleb128 0x1
 2636 0e54 52       		.byte	0x52
 2637 0e55 02       		.uleb128 0x2
 2638 0e56 77       		.byte	0x77
 2639 0e57 00       		.sleb128 0
 2640 0e58 00       		.byte	0
 2641 0e59 1E       		.uleb128 0x1e
 2642 0e5a BC000000 		.4byte	.LVL14
 2643 0e5e AF140000 		.4byte	0x14af
 2644 0e62 770E0000 		.4byte	0xe77
 2645 0e66 1F       		.uleb128 0x1f
 2646 0e67 01       		.uleb128 0x1
 2647 0e68 50       		.byte	0x50
 2648 0e69 02       		.uleb128 0x2
 2649 0e6a 75       		.byte	0x75
 2650 0e6b 00       		.sleb128 0
 2651 0e6c 1F       		.uleb128 0x1f
 2652 0e6d 01       		.uleb128 0x1
 2653 0e6e 51       		.byte	0x51
 2654 0e6f 01       		.uleb128 0x1
 2655 0e70 31       		.byte	0x31
 2656 0e71 1F       		.uleb128 0x1f
 2657 0e72 01       		.uleb128 0x1
 2658 0e73 52       		.byte	0x52
 2659 0e74 01       		.uleb128 0x1
 2660 0e75 33       		.byte	0x33
 2661 0e76 00       		.byte	0
 2662 0e77 1E       		.uleb128 0x1e
 2663 0e78 C6000000 		.4byte	.LVL15
 2664 0e7c AF140000 		.4byte	0x14af
 2665 0e80 950E0000 		.4byte	0xe95
 2666 0e84 1F       		.uleb128 0x1f
 2667 0e85 01       		.uleb128 0x1
 2668 0e86 50       		.byte	0x50
 2669 0e87 02       		.uleb128 0x2
 2670 0e88 75       		.byte	0x75
 2671 0e89 00       		.sleb128 0
 2672 0e8a 1F       		.uleb128 0x1f
 2673 0e8b 01       		.uleb128 0x1
 2674 0e8c 51       		.byte	0x51
 2675 0e8d 01       		.uleb128 0x1
ARM GAS  C:\Users\IDONNO~1\AppData\Local\Temp\ccqkORGP.s 			page 48


 2676 0e8e 32       		.byte	0x32
 2677 0e8f 1F       		.uleb128 0x1f
 2678 0e90 01       		.uleb128 0x1
 2679 0e91 52       		.byte	0x52
 2680 0e92 01       		.uleb128 0x1
 2681 0e93 33       		.byte	0x33
 2682 0e94 00       		.byte	0
 2683 0e95 1E       		.uleb128 0x1e
 2684 0e96 D0000000 		.4byte	.LVL16
 2685 0e9a AF140000 		.4byte	0x14af
 2686 0e9e B30E0000 		.4byte	0xeb3
 2687 0ea2 1F       		.uleb128 0x1f
 2688 0ea3 01       		.uleb128 0x1
 2689 0ea4 50       		.byte	0x50
 2690 0ea5 02       		.uleb128 0x2
 2691 0ea6 75       		.byte	0x75
 2692 0ea7 00       		.sleb128 0
 2693 0ea8 1F       		.uleb128 0x1f
 2694 0ea9 01       		.uleb128 0x1
 2695 0eaa 51       		.byte	0x51
 2696 0eab 01       		.uleb128 0x1
 2697 0eac 34       		.byte	0x34
 2698 0ead 1F       		.uleb128 0x1f
 2699 0eae 01       		.uleb128 0x1
 2700 0eaf 52       		.byte	0x52
 2701 0eb0 01       		.uleb128 0x1
 2702 0eb1 33       		.byte	0x33
 2703 0eb2 00       		.byte	0
 2704 0eb3 1E       		.uleb128 0x1e
 2705 0eb4 DA000000 		.4byte	.LVL17
 2706 0eb8 AF140000 		.4byte	0x14af
 2707 0ebc D10E0000 		.4byte	0xed1
 2708 0ec0 1F       		.uleb128 0x1f
 2709 0ec1 01       		.uleb128 0x1
 2710 0ec2 50       		.byte	0x50
 2711 0ec3 02       		.uleb128 0x2
 2712 0ec4 75       		.byte	0x75
 2713 0ec5 00       		.sleb128 0
 2714 0ec6 1F       		.uleb128 0x1f
 2715 0ec7 01       		.uleb128 0x1
 2716 0ec8 51       		.byte	0x51
 2717 0ec9 01       		.uleb128 0x1
 2718 0eca 38       		.byte	0x38
 2719 0ecb 1F       		.uleb128 0x1f
 2720 0ecc 01       		.uleb128 0x1
 2721 0ecd 52       		.byte	0x52
 2722 0ece 01       		.uleb128 0x1
 2723 0ecf 33       		.byte	0x33
 2724 0ed0 00       		.byte	0
 2725 0ed1 1E       		.uleb128 0x1e
 2726 0ed2 E4000000 		.4byte	.LVL18
 2727 0ed6 AF140000 		.4byte	0x14af
 2728 0eda F00E0000 		.4byte	0xef0
 2729 0ede 1F       		.uleb128 0x1f
 2730 0edf 01       		.uleb128 0x1
 2731 0ee0 50       		.byte	0x50
 2732 0ee1 02       		.uleb128 0x2
ARM GAS  C:\Users\IDONNO~1\AppData\Local\Temp\ccqkORGP.s 			page 49


 2733 0ee2 75       		.byte	0x75
 2734 0ee3 00       		.sleb128 0
 2735 0ee4 1F       		.uleb128 0x1f
 2736 0ee5 01       		.uleb128 0x1
 2737 0ee6 51       		.byte	0x51
 2738 0ee7 02       		.uleb128 0x2
 2739 0ee8 78       		.byte	0x78
 2740 0ee9 00       		.sleb128 0
 2741 0eea 1F       		.uleb128 0x1f
 2742 0eeb 01       		.uleb128 0x1
 2743 0eec 52       		.byte	0x52
 2744 0eed 01       		.uleb128 0x1
 2745 0eee 33       		.byte	0x33
 2746 0eef 00       		.byte	0
 2747 0ef0 1E       		.uleb128 0x1e
 2748 0ef1 EE000000 		.4byte	.LVL19
 2749 0ef5 AF140000 		.4byte	0x14af
 2750 0ef9 0F0F0000 		.4byte	0xf0f
 2751 0efd 1F       		.uleb128 0x1f
 2752 0efe 01       		.uleb128 0x1
 2753 0eff 50       		.byte	0x50
 2754 0f00 02       		.uleb128 0x2
 2755 0f01 75       		.byte	0x75
 2756 0f02 00       		.sleb128 0
 2757 0f03 1F       		.uleb128 0x1f
 2758 0f04 01       		.uleb128 0x1
 2759 0f05 51       		.byte	0x51
 2760 0f06 02       		.uleb128 0x2
 2761 0f07 77       		.byte	0x77
 2762 0f08 00       		.sleb128 0
 2763 0f09 1F       		.uleb128 0x1f
 2764 0f0a 01       		.uleb128 0x1
 2765 0f0b 52       		.byte	0x52
 2766 0f0c 01       		.uleb128 0x1
 2767 0f0d 33       		.byte	0x33
 2768 0f0e 00       		.byte	0
 2769 0f0f 1E       		.uleb128 0x1e
 2770 0f10 F8000000 		.4byte	.LVL20
 2771 0f14 AF140000 		.4byte	0x14af
 2772 0f18 2E0F0000 		.4byte	0xf2e
 2773 0f1c 1F       		.uleb128 0x1f
 2774 0f1d 01       		.uleb128 0x1
 2775 0f1e 50       		.byte	0x50
 2776 0f1f 02       		.uleb128 0x2
 2777 0f20 75       		.byte	0x75
 2778 0f21 00       		.sleb128 0
 2779 0f22 1F       		.uleb128 0x1f
 2780 0f23 01       		.uleb128 0x1
 2781 0f24 51       		.byte	0x51
 2782 0f25 02       		.uleb128 0x2
 2783 0f26 08       		.byte	0x8
 2784 0f27 40       		.byte	0x40
 2785 0f28 1F       		.uleb128 0x1f
 2786 0f29 01       		.uleb128 0x1
 2787 0f2a 52       		.byte	0x52
 2788 0f2b 01       		.uleb128 0x1
 2789 0f2c 33       		.byte	0x33
ARM GAS  C:\Users\IDONNO~1\AppData\Local\Temp\ccqkORGP.s 			page 50


 2790 0f2d 00       		.byte	0
 2791 0f2e 1E       		.uleb128 0x1e
 2792 0f2f 02010000 		.4byte	.LVL21
 2793 0f33 AF140000 		.4byte	0x14af
 2794 0f37 4C0F0000 		.4byte	0xf4c
 2795 0f3b 1F       		.uleb128 0x1f
 2796 0f3c 01       		.uleb128 0x1
 2797 0f3d 50       		.byte	0x50
 2798 0f3e 02       		.uleb128 0x2
 2799 0f3f 76       		.byte	0x76
 2800 0f40 00       		.sleb128 0
 2801 0f41 1F       		.uleb128 0x1f
 2802 0f42 01       		.uleb128 0x1
 2803 0f43 51       		.byte	0x51
 2804 0f44 01       		.uleb128 0x1
 2805 0f45 31       		.byte	0x31
 2806 0f46 1F       		.uleb128 0x1f
 2807 0f47 01       		.uleb128 0x1
 2808 0f48 52       		.byte	0x52
 2809 0f49 01       		.uleb128 0x1
 2810 0f4a 33       		.byte	0x33
 2811 0f4b 00       		.byte	0
 2812 0f4c 1E       		.uleb128 0x1e
 2813 0f4d 0C010000 		.4byte	.LVL22
 2814 0f51 AF140000 		.4byte	0x14af
 2815 0f55 6A0F0000 		.4byte	0xf6a
 2816 0f59 1F       		.uleb128 0x1f
 2817 0f5a 01       		.uleb128 0x1
 2818 0f5b 50       		.byte	0x50
 2819 0f5c 02       		.uleb128 0x2
 2820 0f5d 76       		.byte	0x76
 2821 0f5e 00       		.sleb128 0
 2822 0f5f 1F       		.uleb128 0x1f
 2823 0f60 01       		.uleb128 0x1
 2824 0f61 51       		.byte	0x51
 2825 0f62 01       		.uleb128 0x1
 2826 0f63 32       		.byte	0x32
 2827 0f64 1F       		.uleb128 0x1f
 2828 0f65 01       		.uleb128 0x1
 2829 0f66 52       		.byte	0x52
 2830 0f67 01       		.uleb128 0x1
 2831 0f68 33       		.byte	0x33
 2832 0f69 00       		.byte	0
 2833 0f6a 1E       		.uleb128 0x1e
 2834 0f6b 16010000 		.4byte	.LVL23
 2835 0f6f AF140000 		.4byte	0x14af
 2836 0f73 880F0000 		.4byte	0xf88
 2837 0f77 1F       		.uleb128 0x1f
 2838 0f78 01       		.uleb128 0x1
 2839 0f79 50       		.byte	0x50
 2840 0f7a 02       		.uleb128 0x2
 2841 0f7b 74       		.byte	0x74
 2842 0f7c 00       		.sleb128 0
 2843 0f7d 1F       		.uleb128 0x1f
 2844 0f7e 01       		.uleb128 0x1
 2845 0f7f 51       		.byte	0x51
 2846 0f80 01       		.uleb128 0x1
ARM GAS  C:\Users\IDONNO~1\AppData\Local\Temp\ccqkORGP.s 			page 51


 2847 0f81 31       		.byte	0x31
 2848 0f82 1F       		.uleb128 0x1f
 2849 0f83 01       		.uleb128 0x1
 2850 0f84 52       		.byte	0x52
 2851 0f85 01       		.uleb128 0x1
 2852 0f86 33       		.byte	0x33
 2853 0f87 00       		.byte	0
 2854 0f88 1E       		.uleb128 0x1e
 2855 0f89 20010000 		.4byte	.LVL24
 2856 0f8d AF140000 		.4byte	0x14af
 2857 0f91 A60F0000 		.4byte	0xfa6
 2858 0f95 1F       		.uleb128 0x1f
 2859 0f96 01       		.uleb128 0x1
 2860 0f97 50       		.byte	0x50
 2861 0f98 02       		.uleb128 0x2
 2862 0f99 74       		.byte	0x74
 2863 0f9a 00       		.sleb128 0
 2864 0f9b 1F       		.uleb128 0x1f
 2865 0f9c 01       		.uleb128 0x1
 2866 0f9d 51       		.byte	0x51
 2867 0f9e 01       		.uleb128 0x1
 2868 0f9f 32       		.byte	0x32
 2869 0fa0 1F       		.uleb128 0x1f
 2870 0fa1 01       		.uleb128 0x1
 2871 0fa2 52       		.byte	0x52
 2872 0fa3 01       		.uleb128 0x1
 2873 0fa4 33       		.byte	0x33
 2874 0fa5 00       		.byte	0
 2875 0fa6 1E       		.uleb128 0x1e
 2876 0fa7 2A010000 		.4byte	.LVL25
 2877 0fab AF140000 		.4byte	0x14af
 2878 0faf C40F0000 		.4byte	0xfc4
 2879 0fb3 1F       		.uleb128 0x1f
 2880 0fb4 01       		.uleb128 0x1
 2881 0fb5 50       		.byte	0x50
 2882 0fb6 02       		.uleb128 0x2
 2883 0fb7 74       		.byte	0x74
 2884 0fb8 00       		.sleb128 0
 2885 0fb9 1F       		.uleb128 0x1f
 2886 0fba 01       		.uleb128 0x1
 2887 0fbb 51       		.byte	0x51
 2888 0fbc 01       		.uleb128 0x1
 2889 0fbd 34       		.byte	0x34
 2890 0fbe 1F       		.uleb128 0x1f
 2891 0fbf 01       		.uleb128 0x1
 2892 0fc0 52       		.byte	0x52
 2893 0fc1 01       		.uleb128 0x1
 2894 0fc2 33       		.byte	0x33
 2895 0fc3 00       		.byte	0
 2896 0fc4 20       		.uleb128 0x20
 2897 0fc5 38010000 		.4byte	.LVL26
 2898 0fc9 AF140000 		.4byte	0x14af
 2899 0fcd 1F       		.uleb128 0x1f
 2900 0fce 01       		.uleb128 0x1
 2901 0fcf 50       		.byte	0x50
 2902 0fd0 05       		.uleb128 0x5
 2903 0fd1 0C       		.byte	0xc
ARM GAS  C:\Users\IDONNO~1\AppData\Local\Temp\ccqkORGP.s 			page 52


 2904 0fd2 00080240 		.4byte	0x40020800
 2905 0fd6 1F       		.uleb128 0x1f
 2906 0fd7 01       		.uleb128 0x1
 2907 0fd8 51       		.byte	0x51
 2908 0fd9 01       		.uleb128 0x1
 2909 0fda 38       		.byte	0x38
 2910 0fdb 1F       		.uleb128 0x1f
 2911 0fdc 01       		.uleb128 0x1
 2912 0fdd 52       		.byte	0x52
 2913 0fde 01       		.uleb128 0x1
 2914 0fdf 33       		.byte	0x33
 2915 0fe0 00       		.byte	0
 2916 0fe1 00       		.byte	0
 2917 0fe2 1D       		.uleb128 0x1d
 2918 0fe3 8A070000 		.4byte	.LASF187
 2919 0fe7 01       		.byte	0x1
 2920 0fe8 68       		.byte	0x68
 2921 0fe9 00000000 		.4byte	.LFB257
 2922 0fed A8000000 		.4byte	.LFE257-.LFB257
 2923 0ff1 01       		.uleb128 0x1
 2924 0ff2 9C       		.byte	0x9c
 2925 0ff3 9B110000 		.4byte	0x119b
 2926 0ff7 1E       		.uleb128 0x1e
 2927 0ff8 14000000 		.4byte	.LVL27
 2928 0ffc BB140000 		.4byte	0x14bb
 2929 1000 1A100000 		.4byte	0x101a
 2930 1004 1F       		.uleb128 0x1f
 2931 1005 01       		.uleb128 0x1
 2932 1006 50       		.byte	0x50
 2933 1007 02       		.uleb128 0x2
 2934 1008 76       		.byte	0x76
 2935 1009 00       		.sleb128 0
 2936 100a 1F       		.uleb128 0x1f
 2937 100b 01       		.uleb128 0x1
 2938 100c 51       		.byte	0x51
 2939 100d 01       		.uleb128 0x1
 2940 100e 30       		.byte	0x30
 2941 100f 1F       		.uleb128 0x1f
 2942 1010 01       		.uleb128 0x1
 2943 1011 52       		.byte	0x52
 2944 1012 01       		.uleb128 0x1
 2945 1013 31       		.byte	0x31
 2946 1014 1F       		.uleb128 0x1f
 2947 1015 01       		.uleb128 0x1
 2948 1016 53       		.byte	0x53
 2949 1017 01       		.uleb128 0x1
 2950 1018 31       		.byte	0x31
 2951 1019 00       		.byte	0
 2952 101a 1E       		.uleb128 0x1e
 2953 101b 20000000 		.4byte	.LVL28
 2954 101f BB140000 		.4byte	0x14bb
 2955 1023 3D100000 		.4byte	0x103d
 2956 1027 1F       		.uleb128 0x1f
 2957 1028 01       		.uleb128 0x1
 2958 1029 50       		.byte	0x50
 2959 102a 02       		.uleb128 0x2
 2960 102b 76       		.byte	0x76
ARM GAS  C:\Users\IDONNO~1\AppData\Local\Temp\ccqkORGP.s 			page 53


 2961 102c 00       		.sleb128 0
 2962 102d 1F       		.uleb128 0x1f
 2963 102e 01       		.uleb128 0x1
 2964 102f 51       		.byte	0x51
 2965 1030 01       		.uleb128 0x1
 2966 1031 38       		.byte	0x38
 2967 1032 1F       		.uleb128 0x1f
 2968 1033 01       		.uleb128 0x1
 2969 1034 52       		.byte	0x52
 2970 1035 01       		.uleb128 0x1
 2971 1036 32       		.byte	0x32
 2972 1037 1F       		.uleb128 0x1f
 2973 1038 01       		.uleb128 0x1
 2974 1039 53       		.byte	0x53
 2975 103a 01       		.uleb128 0x1
 2976 103b 31       		.byte	0x31
 2977 103c 00       		.byte	0
 2978 103d 1E       		.uleb128 0x1e
 2979 103e 2C000000 		.4byte	.LVL29
 2980 1042 BB140000 		.4byte	0x14bb
 2981 1046 60100000 		.4byte	0x1060
 2982 104a 1F       		.uleb128 0x1f
 2983 104b 01       		.uleb128 0x1
 2984 104c 50       		.byte	0x50
 2985 104d 02       		.uleb128 0x2
 2986 104e 76       		.byte	0x76
 2987 104f 00       		.sleb128 0
 2988 1050 1F       		.uleb128 0x1f
 2989 1051 01       		.uleb128 0x1
 2990 1052 51       		.byte	0x51
 2991 1053 01       		.uleb128 0x1
 2992 1054 41       		.byte	0x41
 2993 1055 1F       		.uleb128 0x1f
 2994 1056 01       		.uleb128 0x1
 2995 1057 52       		.byte	0x52
 2996 1058 01       		.uleb128 0x1
 2997 1059 33       		.byte	0x33
 2998 105a 1F       		.uleb128 0x1f
 2999 105b 01       		.uleb128 0x1
 3000 105c 53       		.byte	0x53
 3001 105d 01       		.uleb128 0x1
 3002 105e 31       		.byte	0x31
 3003 105f 00       		.byte	0
 3004 1060 1E       		.uleb128 0x1e
 3005 1061 38000000 		.4byte	.LVL30
 3006 1065 BB140000 		.4byte	0x14bb
 3007 1069 83100000 		.4byte	0x1083
 3008 106d 1F       		.uleb128 0x1f
 3009 106e 01       		.uleb128 0x1
 3010 106f 50       		.byte	0x50
 3011 1070 02       		.uleb128 0x2
 3012 1071 76       		.byte	0x76
 3013 1072 00       		.sleb128 0
 3014 1073 1F       		.uleb128 0x1f
 3015 1074 01       		.uleb128 0x1
 3016 1075 51       		.byte	0x51
 3017 1076 01       		.uleb128 0x1
ARM GAS  C:\Users\IDONNO~1\AppData\Local\Temp\ccqkORGP.s 			page 54


 3018 1077 34       		.byte	0x34
 3019 1078 1F       		.uleb128 0x1f
 3020 1079 01       		.uleb128 0x1
 3021 107a 52       		.byte	0x52
 3022 107b 01       		.uleb128 0x1
 3023 107c 34       		.byte	0x34
 3024 107d 1F       		.uleb128 0x1f
 3025 107e 01       		.uleb128 0x1
 3026 107f 53       		.byte	0x53
 3027 1080 01       		.uleb128 0x1
 3028 1081 31       		.byte	0x31
 3029 1082 00       		.byte	0
 3030 1083 1E       		.uleb128 0x1e
 3031 1084 44000000 		.4byte	.LVL31
 3032 1088 BB140000 		.4byte	0x14bb
 3033 108c A6100000 		.4byte	0x10a6
 3034 1090 1F       		.uleb128 0x1f
 3035 1091 01       		.uleb128 0x1
 3036 1092 50       		.byte	0x50
 3037 1093 02       		.uleb128 0x2
 3038 1094 75       		.byte	0x75
 3039 1095 00       		.sleb128 0
 3040 1096 1F       		.uleb128 0x1f
 3041 1097 01       		.uleb128 0x1
 3042 1098 51       		.byte	0x51
 3043 1099 01       		.uleb128 0x1
 3044 109a 31       		.byte	0x31
 3045 109b 1F       		.uleb128 0x1f
 3046 109c 01       		.uleb128 0x1
 3047 109d 52       		.byte	0x52
 3048 109e 01       		.uleb128 0x1
 3049 109f 31       		.byte	0x31
 3050 10a0 1F       		.uleb128 0x1f
 3051 10a1 01       		.uleb128 0x1
 3052 10a2 53       		.byte	0x53
 3053 10a3 01       		.uleb128 0x1
 3054 10a4 31       		.byte	0x31
 3055 10a5 00       		.byte	0
 3056 10a6 1E       		.uleb128 0x1e
 3057 10a7 50000000 		.4byte	.LVL32
 3058 10ab BB140000 		.4byte	0x14bb
 3059 10af C9100000 		.4byte	0x10c9
 3060 10b3 1F       		.uleb128 0x1f
 3061 10b4 01       		.uleb128 0x1
 3062 10b5 50       		.byte	0x50
 3063 10b6 02       		.uleb128 0x2
 3064 10b7 75       		.byte	0x75
 3065 10b8 00       		.sleb128 0
 3066 10b9 1F       		.uleb128 0x1f
 3067 10ba 01       		.uleb128 0x1
 3068 10bb 51       		.byte	0x51
 3069 10bc 01       		.uleb128 0x1
 3070 10bd 39       		.byte	0x39
 3071 10be 1F       		.uleb128 0x1f
 3072 10bf 01       		.uleb128 0x1
 3073 10c0 52       		.byte	0x52
 3074 10c1 01       		.uleb128 0x1
ARM GAS  C:\Users\IDONNO~1\AppData\Local\Temp\ccqkORGP.s 			page 55


 3075 10c2 32       		.byte	0x32
 3076 10c3 1F       		.uleb128 0x1f
 3077 10c4 01       		.uleb128 0x1
 3078 10c5 53       		.byte	0x53
 3079 10c6 01       		.uleb128 0x1
 3080 10c7 31       		.byte	0x31
 3081 10c8 00       		.byte	0
 3082 10c9 1E       		.uleb128 0x1e
 3083 10ca 5C000000 		.4byte	.LVL33
 3084 10ce BB140000 		.4byte	0x14bb
 3085 10d2 EC100000 		.4byte	0x10ec
 3086 10d6 1F       		.uleb128 0x1f
 3087 10d7 01       		.uleb128 0x1
 3088 10d8 50       		.byte	0x50
 3089 10d9 02       		.uleb128 0x2
 3090 10da 75       		.byte	0x75
 3091 10db 00       		.sleb128 0
 3092 10dc 1F       		.uleb128 0x1f
 3093 10dd 01       		.uleb128 0x1
 3094 10de 51       		.byte	0x51
 3095 10df 01       		.uleb128 0x1
 3096 10e0 36       		.byte	0x36
 3097 10e1 1F       		.uleb128 0x1f
 3098 10e2 01       		.uleb128 0x1
 3099 10e3 52       		.byte	0x52
 3100 10e4 01       		.uleb128 0x1
 3101 10e5 33       		.byte	0x33
 3102 10e6 1F       		.uleb128 0x1f
 3103 10e7 01       		.uleb128 0x1
 3104 10e8 53       		.byte	0x53
 3105 10e9 01       		.uleb128 0x1
 3106 10ea 31       		.byte	0x31
 3107 10eb 00       		.byte	0
 3108 10ec 1E       		.uleb128 0x1e
 3109 10ed 68000000 		.4byte	.LVL34
 3110 10f1 BB140000 		.4byte	0x14bb
 3111 10f5 0F110000 		.4byte	0x110f
 3112 10f9 1F       		.uleb128 0x1f
 3113 10fa 01       		.uleb128 0x1
 3114 10fb 50       		.byte	0x50
 3115 10fc 02       		.uleb128 0x2
 3116 10fd 75       		.byte	0x75
 3117 10fe 00       		.sleb128 0
 3118 10ff 1F       		.uleb128 0x1f
 3119 1100 01       		.uleb128 0x1
 3120 1101 51       		.byte	0x51
 3121 1102 01       		.uleb128 0x1
 3122 1103 35       		.byte	0x35
 3123 1104 1F       		.uleb128 0x1f
 3124 1105 01       		.uleb128 0x1
 3125 1106 52       		.byte	0x52
 3126 1107 01       		.uleb128 0x1
 3127 1108 34       		.byte	0x34
 3128 1109 1F       		.uleb128 0x1f
 3129 110a 01       		.uleb128 0x1
 3130 110b 53       		.byte	0x53
 3131 110c 01       		.uleb128 0x1
ARM GAS  C:\Users\IDONNO~1\AppData\Local\Temp\ccqkORGP.s 			page 56


 3132 110d 31       		.byte	0x31
 3133 110e 00       		.byte	0
 3134 110f 1E       		.uleb128 0x1e
 3135 1110 74000000 		.4byte	.LVL35
 3136 1114 BB140000 		.4byte	0x14bb
 3137 1118 32110000 		.4byte	0x1132
 3138 111c 1F       		.uleb128 0x1f
 3139 111d 01       		.uleb128 0x1
 3140 111e 50       		.byte	0x50
 3141 111f 02       		.uleb128 0x2
 3142 1120 74       		.byte	0x74
 3143 1121 00       		.sleb128 0
 3144 1122 1F       		.uleb128 0x1f
 3145 1123 01       		.uleb128 0x1
 3146 1124 51       		.byte	0x51
 3147 1125 01       		.uleb128 0x1
 3148 1126 32       		.byte	0x32
 3149 1127 1F       		.uleb128 0x1f
 3150 1128 01       		.uleb128 0x1
 3151 1129 52       		.byte	0x52
 3152 112a 01       		.uleb128 0x1
 3153 112b 31       		.byte	0x31
 3154 112c 1F       		.uleb128 0x1f
 3155 112d 01       		.uleb128 0x1
 3156 112e 53       		.byte	0x53
 3157 112f 01       		.uleb128 0x1
 3158 1130 31       		.byte	0x31
 3159 1131 00       		.byte	0
 3160 1132 1E       		.uleb128 0x1e
 3161 1133 80000000 		.4byte	.LVL36
 3162 1137 BB140000 		.4byte	0x14bb
 3163 113b 55110000 		.4byte	0x1155
 3164 113f 1F       		.uleb128 0x1f
 3165 1140 01       		.uleb128 0x1
 3166 1141 50       		.byte	0x50
 3167 1142 02       		.uleb128 0x2
 3168 1143 74       		.byte	0x74
 3169 1144 00       		.sleb128 0
 3170 1145 1F       		.uleb128 0x1f
 3171 1146 01       		.uleb128 0x1
 3172 1147 51       		.byte	0x51
 3173 1148 01       		.uleb128 0x1
 3174 1149 33       		.byte	0x33
 3175 114a 1F       		.uleb128 0x1f
 3176 114b 01       		.uleb128 0x1
 3177 114c 52       		.byte	0x52
 3178 114d 01       		.uleb128 0x1
 3179 114e 32       		.byte	0x32
 3180 114f 1F       		.uleb128 0x1f
 3181 1150 01       		.uleb128 0x1
 3182 1151 53       		.byte	0x53
 3183 1152 01       		.uleb128 0x1
 3184 1153 31       		.byte	0x31
 3185 1154 00       		.byte	0
 3186 1155 1E       		.uleb128 0x1e
 3187 1156 8C000000 		.4byte	.LVL37
 3188 115a BB140000 		.4byte	0x14bb
ARM GAS  C:\Users\IDONNO~1\AppData\Local\Temp\ccqkORGP.s 			page 57


 3189 115e 78110000 		.4byte	0x1178
 3190 1162 1F       		.uleb128 0x1f
 3191 1163 01       		.uleb128 0x1
 3192 1164 50       		.byte	0x50
 3193 1165 02       		.uleb128 0x2
 3194 1166 74       		.byte	0x74
 3195 1167 00       		.sleb128 0
 3196 1168 1F       		.uleb128 0x1f
 3197 1169 01       		.uleb128 0x1
 3198 116a 51       		.byte	0x51
 3199 116b 01       		.uleb128 0x1
 3200 116c 3C       		.byte	0x3c
 3201 116d 1F       		.uleb128 0x1f
 3202 116e 01       		.uleb128 0x1
 3203 116f 52       		.byte	0x52
 3204 1170 01       		.uleb128 0x1
 3205 1171 33       		.byte	0x33
 3206 1172 1F       		.uleb128 0x1f
 3207 1173 01       		.uleb128 0x1
 3208 1174 53       		.byte	0x53
 3209 1175 01       		.uleb128 0x1
 3210 1176 31       		.byte	0x31
 3211 1177 00       		.byte	0
 3212 1178 20       		.uleb128 0x20
 3213 1179 9C000000 		.4byte	.LVL38
 3214 117d BB140000 		.4byte	0x14bb
 3215 1181 1F       		.uleb128 0x1f
 3216 1182 01       		.uleb128 0x1
 3217 1183 50       		.byte	0x50
 3218 1184 05       		.uleb128 0x5
 3219 1185 0C       		.byte	0xc
 3220 1186 00220140 		.4byte	0x40012200
 3221 118a 1F       		.uleb128 0x1f
 3222 118b 01       		.uleb128 0x1
 3223 118c 51       		.byte	0x51
 3224 118d 01       		.uleb128 0x1
 3225 118e 33       		.byte	0x33
 3226 118f 1F       		.uleb128 0x1f
 3227 1190 01       		.uleb128 0x1
 3228 1191 52       		.byte	0x52
 3229 1192 01       		.uleb128 0x1
 3230 1193 34       		.byte	0x34
 3231 1194 1F       		.uleb128 0x1f
 3232 1195 01       		.uleb128 0x1
 3233 1196 53       		.byte	0x53
 3234 1197 01       		.uleb128 0x1
 3235 1198 31       		.byte	0x31
 3236 1199 00       		.byte	0
 3237 119a 00       		.byte	0
 3238 119b 1D       		.uleb128 0x1d
 3239 119c 8A040000 		.4byte	.LASF188
 3240 11a0 01       		.byte	0x1
 3241 11a1 82       		.byte	0x82
 3242 11a2 00000000 		.4byte	.LFB258
 3243 11a6 30000000 		.4byte	.LFE258-.LFB258
 3244 11aa 01       		.uleb128 0x1
 3245 11ab 9C       		.byte	0x9c
ARM GAS  C:\Users\IDONNO~1\AppData\Local\Temp\ccqkORGP.s 			page 58


 3246 11ac C5110000 		.4byte	0x11c5
 3247 11b0 21       		.uleb128 0x21
 3248 11b1 0A000000 		.4byte	.LVL39
 3249 11b5 A3140000 		.4byte	0x14a3
 3250 11b9 1F       		.uleb128 0x1f
 3251 11ba 01       		.uleb128 0x1
 3252 11bb 50       		.byte	0x50
 3253 11bc 01       		.uleb128 0x1
 3254 11bd 32       		.byte	0x32
 3255 11be 1F       		.uleb128 0x1f
 3256 11bf 01       		.uleb128 0x1
 3257 11c0 51       		.byte	0x51
 3258 11c1 01       		.uleb128 0x1
 3259 11c2 31       		.byte	0x31
 3260 11c3 00       		.byte	0
 3261 11c4 00       		.byte	0
 3262 11c5 1D       		.uleb128 0x1d
 3263 11c6 AE010000 		.4byte	.LASF189
 3264 11ca 01       		.byte	0x1
 3265 11cb 92       		.byte	0x92
 3266 11cc 00000000 		.4byte	.LFB259
 3267 11d0 50000000 		.4byte	.LFE259-.LFB259
 3268 11d4 01       		.uleb128 0x1
 3269 11d5 9C       		.byte	0x9c
 3270 11d6 4E120000 		.4byte	0x124e
 3271 11da 22       		.uleb128 0x22
 3272 11db 0A000000 		.4byte	.LVL40
 3273 11df C7140000 		.4byte	0x14c7
 3274 11e3 1E       		.uleb128 0x1e
 3275 11e4 1C000000 		.4byte	.LVL41
 3276 11e8 AF140000 		.4byte	0x14af
 3277 11ec 08120000 		.4byte	0x1208
 3278 11f0 1F       		.uleb128 0x1f
 3279 11f1 01       		.uleb128 0x1
 3280 11f2 50       		.byte	0x50
 3281 11f3 05       		.uleb128 0x5
 3282 11f4 0C       		.byte	0xc
 3283 11f5 00040240 		.4byte	0x40020400
 3284 11f9 1F       		.uleb128 0x1f
 3285 11fa 01       		.uleb128 0x1
 3286 11fb 51       		.byte	0x51
 3287 11fc 03       		.uleb128 0x3
 3288 11fd 0A       		.byte	0xa
 3289 11fe 0004     		.2byte	0x400
 3290 1200 1F       		.uleb128 0x1f
 3291 1201 01       		.uleb128 0x1
 3292 1202 52       		.byte	0x52
 3293 1203 03       		.uleb128 0x3
 3294 1204 0A       		.byte	0xa
 3295 1205 2E02     		.2byte	0x22e
 3296 1207 00       		.byte	0
 3297 1208 1E       		.uleb128 0x1e
 3298 1209 2A000000 		.4byte	.LVL42
 3299 120d AF140000 		.4byte	0x14af
 3300 1211 2D120000 		.4byte	0x122d
 3301 1215 1F       		.uleb128 0x1f
 3302 1216 01       		.uleb128 0x1
ARM GAS  C:\Users\IDONNO~1\AppData\Local\Temp\ccqkORGP.s 			page 59


 3303 1217 50       		.byte	0x50
 3304 1218 05       		.uleb128 0x5
 3305 1219 0C       		.byte	0xc
 3306 121a 00040240 		.4byte	0x40020400
 3307 121e 1F       		.uleb128 0x1f
 3308 121f 01       		.uleb128 0x1
 3309 1220 51       		.byte	0x51
 3310 1221 03       		.uleb128 0x3
 3311 1222 0A       		.byte	0xa
 3312 1223 0008     		.2byte	0x800
 3313 1225 1F       		.uleb128 0x1f
 3314 1226 01       		.uleb128 0x1
 3315 1227 52       		.byte	0x52
 3316 1228 03       		.uleb128 0x3
 3317 1229 0A       		.byte	0xa
 3318 122a 2E02     		.2byte	0x22e
 3319 122c 00       		.byte	0
 3320 122d 1E       		.uleb128 0x1e
 3321 122e 32000000 		.4byte	.LVL43
 3322 1232 D2140000 		.4byte	0x14d2
 3323 1236 44120000 		.4byte	0x1244
 3324 123a 1F       		.uleb128 0x1f
 3325 123b 01       		.uleb128 0x1
 3326 123c 51       		.byte	0x51
 3327 123d 05       		.uleb128 0x5
 3328 123e 03       		.byte	0x3
 3329 123f 00000000 		.4byte	.LANCHOR1
 3330 1243 00       		.byte	0
 3331 1244 23       		.uleb128 0x23
 3332 1245 40000000 		.4byte	.LVL44
 3333 1249 DD140000 		.4byte	0x14dd
 3334 124d 00       		.byte	0
 3335 124e 1D       		.uleb128 0x1d
 3336 124f F0060000 		.4byte	.LASF190
 3337 1253 01       		.byte	0x1
 3338 1254 A0       		.byte	0xa0
 3339 1255 00000000 		.4byte	.LFB260
 3340 1259 48000000 		.4byte	.LFE260-.LFB260
 3341 125d 01       		.uleb128 0x1
 3342 125e 9C       		.byte	0x9c
 3343 125f C5120000 		.4byte	0x12c5
 3344 1263 22       		.uleb128 0x22
 3345 1264 0A000000 		.4byte	.LVL45
 3346 1268 C7140000 		.4byte	0x14c7
 3347 126c 1E       		.uleb128 0x1e
 3348 126d 1A000000 		.4byte	.LVL46
 3349 1271 AF140000 		.4byte	0x14af
 3350 1275 8F120000 		.4byte	0x128f
 3351 1279 1F       		.uleb128 0x1f
 3352 127a 01       		.uleb128 0x1
 3353 127b 50       		.byte	0x50
 3354 127c 05       		.uleb128 0x5
 3355 127d 0C       		.byte	0xc
 3356 127e 00040240 		.4byte	0x40020400
 3357 1282 1F       		.uleb128 0x1f
 3358 1283 01       		.uleb128 0x1
 3359 1284 51       		.byte	0x51
ARM GAS  C:\Users\IDONNO~1\AppData\Local\Temp\ccqkORGP.s 			page 60


 3360 1285 03       		.uleb128 0x3
 3361 1286 0A       		.byte	0xa
 3362 1287 0004     		.2byte	0x400
 3363 1289 1F       		.uleb128 0x1f
 3364 128a 01       		.uleb128 0x1
 3365 128b 52       		.byte	0x52
 3366 128c 01       		.uleb128 0x1
 3367 128d 30       		.byte	0x30
 3368 128e 00       		.byte	0
 3369 128f 1E       		.uleb128 0x1e
 3370 1290 26000000 		.4byte	.LVL47
 3371 1294 AF140000 		.4byte	0x14af
 3372 1298 B2120000 		.4byte	0x12b2
 3373 129c 1F       		.uleb128 0x1f
 3374 129d 01       		.uleb128 0x1
 3375 129e 50       		.byte	0x50
 3376 129f 05       		.uleb128 0x5
 3377 12a0 0C       		.byte	0xc
 3378 12a1 00040240 		.4byte	0x40020400
 3379 12a5 1F       		.uleb128 0x1f
 3380 12a6 01       		.uleb128 0x1
 3381 12a7 51       		.byte	0x51
 3382 12a8 03       		.uleb128 0x3
 3383 12a9 0A       		.byte	0xa
 3384 12aa 0008     		.2byte	0x800
 3385 12ac 1F       		.uleb128 0x1f
 3386 12ad 01       		.uleb128 0x1
 3387 12ae 52       		.byte	0x52
 3388 12af 01       		.uleb128 0x1
 3389 12b0 30       		.byte	0x30
 3390 12b1 00       		.byte	0
 3391 12b2 22       		.uleb128 0x22
 3392 12b3 2C000000 		.4byte	.LVL48
 3393 12b7 E8140000 		.4byte	0x14e8
 3394 12bb 23       		.uleb128 0x23
 3395 12bc 3A000000 		.4byte	.LVL49
 3396 12c0 DD140000 		.4byte	0x14dd
 3397 12c4 00       		.byte	0
 3398 12c5 1D       		.uleb128 0x1d
 3399 12c6 51090000 		.4byte	.LASF191
 3400 12ca 01       		.byte	0x1
 3401 12cb B2       		.byte	0xb2
 3402 12cc 00000000 		.4byte	.LFB261
 3403 12d0 C4000000 		.4byte	.LFE261-.LFB261
 3404 12d4 01       		.uleb128 0x1
 3405 12d5 9C       		.byte	0x9c
 3406 12d6 13140000 		.4byte	0x1413
 3407 12da 24       		.uleb128 0x24
 3408 12db 00000000 		.4byte	.Ldebug_ranges0+0
 3409 12df 13130000 		.4byte	0x1313
 3410 12e3 25       		.uleb128 0x25
 3411 12e4 6900     		.ascii	"i\000"
 3412 12e6 01       		.byte	0x1
 3413 12e7 BE       		.byte	0xbe
 3414 12e8 94000000 		.4byte	0x94
 3415 12ec 00000000 		.4byte	.LLST0
 3416 12f0 1E       		.uleb128 0x1e
ARM GAS  C:\Users\IDONNO~1\AppData\Local\Temp\ccqkORGP.s 			page 61


 3417 12f1 4E000000 		.4byte	.LVL55
 3418 12f5 F3140000 		.4byte	0x14f3
 3419 12f9 03130000 		.4byte	0x1303
 3420 12fd 1F       		.uleb128 0x1f
 3421 12fe 01       		.uleb128 0x1
 3422 12ff 50       		.byte	0x50
 3423 1300 01       		.uleb128 0x1
 3424 1301 31       		.byte	0x31
 3425 1302 00       		.byte	0
 3426 1303 21       		.uleb128 0x21
 3427 1304 56000000 		.4byte	.LVL56
 3428 1308 F3140000 		.4byte	0x14f3
 3429 130c 1F       		.uleb128 0x1f
 3430 130d 01       		.uleb128 0x1
 3431 130e 50       		.byte	0x50
 3432 130f 01       		.uleb128 0x1
 3433 1310 31       		.byte	0x31
 3434 1311 00       		.byte	0
 3435 1312 00       		.byte	0
 3436 1313 22       		.uleb128 0x22
 3437 1314 16000000 		.4byte	.LVL50
 3438 1318 C7140000 		.4byte	0x14c7
 3439 131c 1E       		.uleb128 0x1e
 3440 131d 22000000 		.4byte	.LVL51
 3441 1321 AF140000 		.4byte	0x14af
 3442 1325 3D130000 		.4byte	0x133d
 3443 1329 1F       		.uleb128 0x1f
 3444 132a 01       		.uleb128 0x1
 3445 132b 50       		.byte	0x50
 3446 132c 02       		.uleb128 0x2
 3447 132d 75       		.byte	0x75
 3448 132e 00       		.sleb128 0
 3449 132f 1F       		.uleb128 0x1f
 3450 1330 01       		.uleb128 0x1
 3451 1331 51       		.byte	0x51
 3452 1332 03       		.uleb128 0x3
 3453 1333 0A       		.byte	0xa
 3454 1334 0004     		.2byte	0x400
 3455 1336 1F       		.uleb128 0x1f
 3456 1337 01       		.uleb128 0x1
 3457 1338 52       		.byte	0x52
 3458 1339 02       		.uleb128 0x2
 3459 133a 08       		.byte	0x8
 3460 133b 2C       		.byte	0x2c
 3461 133c 00       		.byte	0
 3462 133d 1E       		.uleb128 0x1e
 3463 133e 2E000000 		.4byte	.LVL52
 3464 1342 AF140000 		.4byte	0x14af
 3465 1346 5E130000 		.4byte	0x135e
 3466 134a 1F       		.uleb128 0x1f
 3467 134b 01       		.uleb128 0x1
 3468 134c 50       		.byte	0x50
 3469 134d 02       		.uleb128 0x2
 3470 134e 75       		.byte	0x75
 3471 134f 00       		.sleb128 0
 3472 1350 1F       		.uleb128 0x1f
 3473 1351 01       		.uleb128 0x1
ARM GAS  C:\Users\IDONNO~1\AppData\Local\Temp\ccqkORGP.s 			page 62


 3474 1352 51       		.byte	0x51
 3475 1353 03       		.uleb128 0x3
 3476 1354 0A       		.byte	0xa
 3477 1355 0008     		.2byte	0x800
 3478 1357 1F       		.uleb128 0x1f
 3479 1358 01       		.uleb128 0x1
 3480 1359 52       		.byte	0x52
 3481 135a 02       		.uleb128 0x2
 3482 135b 08       		.byte	0x8
 3483 135c 2C       		.byte	0x2c
 3484 135d 00       		.byte	0
 3485 135e 1E       		.uleb128 0x1e
 3486 135f 40000000 		.4byte	.LVL53
 3487 1363 F3140000 		.4byte	0x14f3
 3488 1367 71130000 		.4byte	0x1371
 3489 136b 1F       		.uleb128 0x1f
 3490 136c 01       		.uleb128 0x1
 3491 136d 50       		.byte	0x50
 3492 136e 01       		.uleb128 0x1
 3493 136f 31       		.byte	0x31
 3494 1370 00       		.byte	0
 3495 1371 1E       		.uleb128 0x1e
 3496 1372 6C000000 		.4byte	.LVL58
 3497 1376 F3140000 		.4byte	0x14f3
 3498 137a 84130000 		.4byte	0x1384
 3499 137e 1F       		.uleb128 0x1f
 3500 137f 01       		.uleb128 0x1
 3501 1380 50       		.byte	0x50
 3502 1381 01       		.uleb128 0x1
 3503 1382 31       		.byte	0x31
 3504 1383 00       		.byte	0
 3505 1384 1E       		.uleb128 0x1e
 3506 1385 76000000 		.4byte	.LVL59
 3507 1389 F3140000 		.4byte	0x14f3
 3508 138d 97130000 		.4byte	0x1397
 3509 1391 1F       		.uleb128 0x1f
 3510 1392 01       		.uleb128 0x1
 3511 1393 50       		.byte	0x50
 3512 1394 01       		.uleb128 0x1
 3513 1395 31       		.byte	0x31
 3514 1396 00       		.byte	0
 3515 1397 1E       		.uleb128 0x1e
 3516 1398 80000000 		.4byte	.LVL60
 3517 139c F3140000 		.4byte	0x14f3
 3518 13a0 AA130000 		.4byte	0x13aa
 3519 13a4 1F       		.uleb128 0x1f
 3520 13a5 01       		.uleb128 0x1
 3521 13a6 50       		.byte	0x50
 3522 13a7 01       		.uleb128 0x1
 3523 13a8 31       		.byte	0x31
 3524 13a9 00       		.byte	0
 3525 13aa 1E       		.uleb128 0x1e
 3526 13ab 90000000 		.4byte	.LVL62
 3527 13af AF140000 		.4byte	0x14af
 3528 13b3 CB130000 		.4byte	0x13cb
 3529 13b7 1F       		.uleb128 0x1f
 3530 13b8 01       		.uleb128 0x1
ARM GAS  C:\Users\IDONNO~1\AppData\Local\Temp\ccqkORGP.s 			page 63


 3531 13b9 50       		.byte	0x50
 3532 13ba 02       		.uleb128 0x2
 3533 13bb 76       		.byte	0x76
 3534 13bc 00       		.sleb128 0
 3535 13bd 1F       		.uleb128 0x1f
 3536 13be 01       		.uleb128 0x1
 3537 13bf 51       		.byte	0x51
 3538 13c0 02       		.uleb128 0x2
 3539 13c1 77       		.byte	0x77
 3540 13c2 00       		.sleb128 0
 3541 13c3 1F       		.uleb128 0x1f
 3542 13c4 01       		.uleb128 0x1
 3543 13c5 52       		.byte	0x52
 3544 13c6 03       		.uleb128 0x3
 3545 13c7 0A       		.byte	0xa
 3546 13c8 2E02     		.2byte	0x22e
 3547 13ca 00       		.byte	0
 3548 13cb 1E       		.uleb128 0x1e
 3549 13cc 9C000000 		.4byte	.LVL63
 3550 13d0 AF140000 		.4byte	0x14af
 3551 13d4 EC130000 		.4byte	0x13ec
 3552 13d8 1F       		.uleb128 0x1f
 3553 13d9 01       		.uleb128 0x1
 3554 13da 50       		.byte	0x50
 3555 13db 02       		.uleb128 0x2
 3556 13dc 76       		.byte	0x76
 3557 13dd 00       		.sleb128 0
 3558 13de 1F       		.uleb128 0x1f
 3559 13df 01       		.uleb128 0x1
 3560 13e0 51       		.byte	0x51
 3561 13e1 02       		.uleb128 0x2
 3562 13e2 75       		.byte	0x75
 3563 13e3 00       		.sleb128 0
 3564 13e4 1F       		.uleb128 0x1f
 3565 13e5 01       		.uleb128 0x1
 3566 13e6 52       		.byte	0x52
 3567 13e7 03       		.uleb128 0x3
 3568 13e8 0A       		.byte	0xa
 3569 13e9 2E02     		.2byte	0x22e
 3570 13eb 00       		.byte	0
 3571 13ec 1E       		.uleb128 0x1e
 3572 13ed A8000000 		.4byte	.LVL64
 3573 13f1 D2140000 		.4byte	0x14d2
 3574 13f5 09140000 		.4byte	0x1409
 3575 13f9 1F       		.uleb128 0x1f
 3576 13fa 01       		.uleb128 0x1
 3577 13fb 50       		.byte	0x50
 3578 13fc 02       		.uleb128 0x2
 3579 13fd 74       		.byte	0x74
 3580 13fe 00       		.sleb128 0
 3581 13ff 1F       		.uleb128 0x1f
 3582 1400 01       		.uleb128 0x1
 3583 1401 51       		.byte	0x51
 3584 1402 05       		.uleb128 0x5
 3585 1403 03       		.byte	0x3
 3586 1404 00000000 		.4byte	.LANCHOR1
 3587 1408 00       		.byte	0
ARM GAS  C:\Users\IDONNO~1\AppData\Local\Temp\ccqkORGP.s 			page 64


 3588 1409 23       		.uleb128 0x23
 3589 140a B2000000 		.4byte	.LVL65
 3590 140e DD140000 		.4byte	0x14dd
 3591 1412 00       		.byte	0
 3592 1413 26       		.uleb128 0x26
 3593 1414 7D080000 		.4byte	.LASF192
 3594 1418 01       		.byte	0x1
 3595 1419 27       		.byte	0x27
 3596 141a 24140000 		.4byte	0x1424
 3597 141e 05       		.uleb128 0x5
 3598 141f 03       		.byte	0x3
 3599 1420 00000000 		.4byte	i2c_running
 3600 1424 05       		.uleb128 0x5
 3601 1425 44090000 		.4byte	0x944
 3602 1429 26       		.uleb128 0x26
 3603 142a E8010000 		.4byte	.LASF193
 3604 142e 01       		.byte	0x1
 3605 142f 2A       		.byte	0x2a
 3606 1430 310C0000 		.4byte	0xc31
 3607 1434 05       		.uleb128 0x5
 3608 1435 03       		.byte	0x3
 3609 1436 00000000 		.4byte	i2cfg
 3610 143a 27       		.uleb128 0x27
 3611 143b 25000000 		.4byte	.LASF194
 3612 143f 14       		.byte	0x14
 3613 1440 A706     		.2byte	0x6a7
 3614 1442 05030000 		.4byte	0x305
 3615 1446 28       		.uleb128 0x28
 3616 1447 636800   		.ascii	"ch\000"
 3617 144a 08       		.byte	0x8
 3618 144b 0902     		.2byte	0x209
 3619 144d 3F060000 		.4byte	0x63f
 3620 1451 19       		.uleb128 0x19
 3621 1452 AD000000 		.4byte	0xad
 3622 1456 61140000 		.4byte	0x1461
 3623 145a 1A       		.uleb128 0x1a
 3624 145b D9000000 		.4byte	0xd9
 3625 145f 0B       		.byte	0xb
 3626 1460 00       		.byte	0
 3627 1461 29       		.uleb128 0x29
 3628 1462 E9070000 		.4byte	.LASF195
 3629 1466 01       		.byte	0x1
 3630 1467 24       		.byte	0x24
 3631 1468 51140000 		.4byte	0x1451
 3632 146c 05       		.uleb128 0x5
 3633 146d 03       		.byte	0x3
 3634 146e 00000000 		.4byte	ADC_Value
 3635 1472 27       		.uleb128 0x27
 3636 1473 1A090000 		.4byte	.LASF196
 3637 1477 12       		.byte	0x12
 3638 1478 E401     		.2byte	0x1e4
 3639 147a 820B0000 		.4byte	0xb82
 3640 147e 19       		.uleb128 0x19
 3641 147f 8E140000 		.4byte	0x148e
 3642 1483 8E140000 		.4byte	0x148e
 3643 1487 1A       		.uleb128 0x1a
 3644 1488 D9000000 		.4byte	0xd9
ARM GAS  C:\Users\IDONNO~1\AppData\Local\Temp\ccqkORGP.s 			page 65


 3645 148c 01       		.byte	0x1
 3646 148d 00       		.byte	0
 3647 148e 05       		.uleb128 0x5
 3648 148f 8F0C0000 		.4byte	0xc8f
 3649 1493 2A       		.uleb128 0x2a
 3650 1494 AB080000 		.4byte	.LASF197
 3651 1498 13       		.byte	0x13
 3652 1499 F8       		.byte	0xf8
 3653 149a 9E140000 		.4byte	0x149e
 3654 149e 05       		.uleb128 0x5
 3655 149f 7E140000 		.4byte	0x147e
 3656 14a3 2B       		.uleb128 0x2b
 3657 14a4 51040000 		.4byte	.LASF198
 3658 14a8 51040000 		.4byte	.LASF198
 3659 14ac 15       		.byte	0x15
 3660 14ad 5803     		.2byte	0x358
 3661 14af 2B       		.uleb128 0x2b
 3662 14b0 89080000 		.4byte	.LASF199
 3663 14b4 89080000 		.4byte	.LASF199
 3664 14b8 0F       		.byte	0xf
 3665 14b9 E001     		.2byte	0x1e0
 3666 14bb 2B       		.uleb128 0x2b
 3667 14bc 33090000 		.4byte	.LASF200
 3668 14c0 33090000 		.4byte	.LASF200
 3669 14c4 16       		.byte	0x16
 3670 14c5 6002     		.2byte	0x260
 3671 14c7 2C       		.uleb128 0x2c
 3672 14c8 FE070000 		.4byte	.LASF201
 3673 14cc FE070000 		.4byte	.LASF201
 3674 14d0 11       		.byte	0x11
 3675 14d1 9A       		.byte	0x9a
 3676 14d2 2C       		.uleb128 0x2c
 3677 14d3 2F050000 		.4byte	.LASF202
 3678 14d7 2F050000 		.4byte	.LASF202
 3679 14db 11       		.byte	0x11
 3680 14dc 8D       		.byte	0x8d
 3681 14dd 2C       		.uleb128 0x2c
 3682 14de B5050000 		.4byte	.LASF203
 3683 14e2 B5050000 		.4byte	.LASF203
 3684 14e6 11       		.byte	0x11
 3685 14e7 9B       		.byte	0x9b
 3686 14e8 2C       		.uleb128 0x2c
 3687 14e9 67050000 		.4byte	.LASF204
 3688 14ed 67050000 		.4byte	.LASF204
 3689 14f1 11       		.byte	0x11
 3690 14f2 8E       		.byte	0x8e
 3691 14f3 2C       		.uleb128 0x2c
 3692 14f4 49080000 		.4byte	.LASF205
 3693 14f8 49080000 		.4byte	.LASF205
 3694 14fc 17       		.byte	0x17
 3695 14fd 96       		.byte	0x96
 3696 14fe 00       		.byte	0
 3697              		.section	.debug_abbrev,"",%progbits
 3698              	.Ldebug_abbrev0:
 3699 0000 01       		.uleb128 0x1
 3700 0001 11       		.uleb128 0x11
 3701 0002 01       		.byte	0x1
ARM GAS  C:\Users\IDONNO~1\AppData\Local\Temp\ccqkORGP.s 			page 66


 3702 0003 25       		.uleb128 0x25
 3703 0004 0E       		.uleb128 0xe
 3704 0005 13       		.uleb128 0x13
 3705 0006 0B       		.uleb128 0xb
 3706 0007 03       		.uleb128 0x3
 3707 0008 0E       		.uleb128 0xe
 3708 0009 1B       		.uleb128 0x1b
 3709 000a 0E       		.uleb128 0xe
 3710 000b 55       		.uleb128 0x55
 3711 000c 17       		.uleb128 0x17
 3712 000d 11       		.uleb128 0x11
 3713 000e 01       		.uleb128 0x1
 3714 000f 10       		.uleb128 0x10
 3715 0010 17       		.uleb128 0x17
 3716 0011 00       		.byte	0
 3717 0012 00       		.byte	0
 3718 0013 02       		.uleb128 0x2
 3719 0014 24       		.uleb128 0x24
 3720 0015 00       		.byte	0
 3721 0016 0B       		.uleb128 0xb
 3722 0017 0B       		.uleb128 0xb
 3723 0018 3E       		.uleb128 0x3e
 3724 0019 0B       		.uleb128 0xb
 3725 001a 03       		.uleb128 0x3
 3726 001b 0E       		.uleb128 0xe
 3727 001c 00       		.byte	0
 3728 001d 00       		.byte	0
 3729 001e 03       		.uleb128 0x3
 3730 001f 16       		.uleb128 0x16
 3731 0020 00       		.byte	0
 3732 0021 03       		.uleb128 0x3
 3733 0022 0E       		.uleb128 0xe
 3734 0023 3A       		.uleb128 0x3a
 3735 0024 0B       		.uleb128 0xb
 3736 0025 3B       		.uleb128 0x3b
 3737 0026 0B       		.uleb128 0xb
 3738 0027 49       		.uleb128 0x49
 3739 0028 13       		.uleb128 0x13
 3740 0029 00       		.byte	0
 3741 002a 00       		.byte	0
 3742 002b 04       		.uleb128 0x4
 3743 002c 24       		.uleb128 0x24
 3744 002d 00       		.byte	0
 3745 002e 0B       		.uleb128 0xb
 3746 002f 0B       		.uleb128 0xb
 3747 0030 3E       		.uleb128 0x3e
 3748 0031 0B       		.uleb128 0xb
 3749 0032 03       		.uleb128 0x3
 3750 0033 08       		.uleb128 0x8
 3751 0034 00       		.byte	0
 3752 0035 00       		.byte	0
 3753 0036 05       		.uleb128 0x5
 3754 0037 35       		.uleb128 0x35
 3755 0038 00       		.byte	0
 3756 0039 49       		.uleb128 0x49
 3757 003a 13       		.uleb128 0x13
 3758 003b 00       		.byte	0
ARM GAS  C:\Users\IDONNO~1\AppData\Local\Temp\ccqkORGP.s 			page 67


 3759 003c 00       		.byte	0
 3760 003d 06       		.uleb128 0x6
 3761 003e 13       		.uleb128 0x13
 3762 003f 01       		.byte	0x1
 3763 0040 0B       		.uleb128 0xb
 3764 0041 0B       		.uleb128 0xb
 3765 0042 3A       		.uleb128 0x3a
 3766 0043 0B       		.uleb128 0xb
 3767 0044 3B       		.uleb128 0x3b
 3768 0045 0B       		.uleb128 0xb
 3769 0046 01       		.uleb128 0x1
 3770 0047 13       		.uleb128 0x13
 3771 0048 00       		.byte	0
 3772 0049 00       		.byte	0
 3773 004a 07       		.uleb128 0x7
 3774 004b 0D       		.uleb128 0xd
 3775 004c 00       		.byte	0
 3776 004d 03       		.uleb128 0x3
 3777 004e 08       		.uleb128 0x8
 3778 004f 3A       		.uleb128 0x3a
 3779 0050 0B       		.uleb128 0xb
 3780 0051 3B       		.uleb128 0x3b
 3781 0052 0B       		.uleb128 0xb
 3782 0053 49       		.uleb128 0x49
 3783 0054 13       		.uleb128 0x13
 3784 0055 38       		.uleb128 0x38
 3785 0056 0B       		.uleb128 0xb
 3786 0057 00       		.byte	0
 3787 0058 00       		.byte	0
 3788 0059 08       		.uleb128 0x8
 3789 005a 0D       		.uleb128 0xd
 3790 005b 00       		.byte	0
 3791 005c 03       		.uleb128 0x3
 3792 005d 0E       		.uleb128 0xe
 3793 005e 3A       		.uleb128 0x3a
 3794 005f 0B       		.uleb128 0xb
 3795 0060 3B       		.uleb128 0x3b
 3796 0061 0B       		.uleb128 0xb
 3797 0062 49       		.uleb128 0x49
 3798 0063 13       		.uleb128 0x13
 3799 0064 38       		.uleb128 0x38
 3800 0065 0B       		.uleb128 0xb
 3801 0066 00       		.byte	0
 3802 0067 00       		.byte	0
 3803 0068 09       		.uleb128 0x9
 3804 0069 13       		.uleb128 0x13
 3805 006a 01       		.byte	0x1
 3806 006b 0B       		.uleb128 0xb
 3807 006c 0B       		.uleb128 0xb
 3808 006d 3A       		.uleb128 0x3a
 3809 006e 0B       		.uleb128 0xb
 3810 006f 3B       		.uleb128 0x3b
 3811 0070 05       		.uleb128 0x5
 3812 0071 01       		.uleb128 0x1
 3813 0072 13       		.uleb128 0x13
 3814 0073 00       		.byte	0
 3815 0074 00       		.byte	0
ARM GAS  C:\Users\IDONNO~1\AppData\Local\Temp\ccqkORGP.s 			page 68


 3816 0075 0A       		.uleb128 0xa
 3817 0076 0D       		.uleb128 0xd
 3818 0077 00       		.byte	0
 3819 0078 03       		.uleb128 0x3
 3820 0079 08       		.uleb128 0x8
 3821 007a 3A       		.uleb128 0x3a
 3822 007b 0B       		.uleb128 0xb
 3823 007c 3B       		.uleb128 0x3b
 3824 007d 05       		.uleb128 0x5
 3825 007e 49       		.uleb128 0x49
 3826 007f 13       		.uleb128 0x13
 3827 0080 38       		.uleb128 0x38
 3828 0081 0B       		.uleb128 0xb
 3829 0082 00       		.byte	0
 3830 0083 00       		.byte	0
 3831 0084 0B       		.uleb128 0xb
 3832 0085 0D       		.uleb128 0xd
 3833 0086 00       		.byte	0
 3834 0087 03       		.uleb128 0x3
 3835 0088 0E       		.uleb128 0xe
 3836 0089 3A       		.uleb128 0x3a
 3837 008a 0B       		.uleb128 0xb
 3838 008b 3B       		.uleb128 0x3b
 3839 008c 05       		.uleb128 0x5
 3840 008d 49       		.uleb128 0x49
 3841 008e 13       		.uleb128 0x13
 3842 008f 38       		.uleb128 0x38
 3843 0090 0B       		.uleb128 0xb
 3844 0091 00       		.byte	0
 3845 0092 00       		.byte	0
 3846 0093 0C       		.uleb128 0xc
 3847 0094 16       		.uleb128 0x16
 3848 0095 00       		.byte	0
 3849 0096 03       		.uleb128 0x3
 3850 0097 0E       		.uleb128 0xe
 3851 0098 3A       		.uleb128 0x3a
 3852 0099 0B       		.uleb128 0xb
 3853 009a 3B       		.uleb128 0x3b
 3854 009b 05       		.uleb128 0x5
 3855 009c 49       		.uleb128 0x49
 3856 009d 13       		.uleb128 0x13
 3857 009e 00       		.byte	0
 3858 009f 00       		.byte	0
 3859 00a0 0D       		.uleb128 0xd
 3860 00a1 04       		.uleb128 0x4
 3861 00a2 01       		.byte	0x1
 3862 00a3 0B       		.uleb128 0xb
 3863 00a4 0B       		.uleb128 0xb
 3864 00a5 49       		.uleb128 0x49
 3865 00a6 13       		.uleb128 0x13
 3866 00a7 3A       		.uleb128 0x3a
 3867 00a8 0B       		.uleb128 0xb
 3868 00a9 3B       		.uleb128 0x3b
 3869 00aa 0B       		.uleb128 0xb
 3870 00ab 01       		.uleb128 0x1
 3871 00ac 13       		.uleb128 0x13
 3872 00ad 00       		.byte	0
ARM GAS  C:\Users\IDONNO~1\AppData\Local\Temp\ccqkORGP.s 			page 69


 3873 00ae 00       		.byte	0
 3874 00af 0E       		.uleb128 0xe
 3875 00b0 28       		.uleb128 0x28
 3876 00b1 00       		.byte	0
 3877 00b2 03       		.uleb128 0x3
 3878 00b3 0E       		.uleb128 0xe
 3879 00b4 1C       		.uleb128 0x1c
 3880 00b5 0B       		.uleb128 0xb
 3881 00b6 00       		.byte	0
 3882 00b7 00       		.byte	0
 3883 00b8 0F       		.uleb128 0xf
 3884 00b9 13       		.uleb128 0x13
 3885 00ba 01       		.byte	0x1
 3886 00bb 03       		.uleb128 0x3
 3887 00bc 0E       		.uleb128 0xe
 3888 00bd 0B       		.uleb128 0xb
 3889 00be 0B       		.uleb128 0xb
 3890 00bf 3A       		.uleb128 0x3a
 3891 00c0 0B       		.uleb128 0xb
 3892 00c1 3B       		.uleb128 0x3b
 3893 00c2 0B       		.uleb128 0xb
 3894 00c3 01       		.uleb128 0x1
 3895 00c4 13       		.uleb128 0x13
 3896 00c5 00       		.byte	0
 3897 00c6 00       		.byte	0
 3898 00c7 10       		.uleb128 0x10
 3899 00c8 0F       		.uleb128 0xf
 3900 00c9 00       		.byte	0
 3901 00ca 0B       		.uleb128 0xb
 3902 00cb 0B       		.uleb128 0xb
 3903 00cc 49       		.uleb128 0x49
 3904 00cd 13       		.uleb128 0x13
 3905 00ce 00       		.byte	0
 3906 00cf 00       		.byte	0
 3907 00d0 11       		.uleb128 0x11
 3908 00d1 13       		.uleb128 0x13
 3909 00d2 01       		.byte	0x1
 3910 00d3 03       		.uleb128 0x3
 3911 00d4 0E       		.uleb128 0xe
 3912 00d5 0B       		.uleb128 0xb
 3913 00d6 0B       		.uleb128 0xb
 3914 00d7 3A       		.uleb128 0x3a
 3915 00d8 0B       		.uleb128 0xb
 3916 00d9 3B       		.uleb128 0x3b
 3917 00da 05       		.uleb128 0x5
 3918 00db 01       		.uleb128 0x1
 3919 00dc 13       		.uleb128 0x13
 3920 00dd 00       		.byte	0
 3921 00de 00       		.byte	0
 3922 00df 12       		.uleb128 0x12
 3923 00e0 15       		.uleb128 0x15
 3924 00e1 01       		.byte	0x1
 3925 00e2 27       		.uleb128 0x27
 3926 00e3 19       		.uleb128 0x19
 3927 00e4 01       		.uleb128 0x1
 3928 00e5 13       		.uleb128 0x13
 3929 00e6 00       		.byte	0
ARM GAS  C:\Users\IDONNO~1\AppData\Local\Temp\ccqkORGP.s 			page 70


 3930 00e7 00       		.byte	0
 3931 00e8 13       		.uleb128 0x13
 3932 00e9 05       		.uleb128 0x5
 3933 00ea 00       		.byte	0
 3934 00eb 49       		.uleb128 0x49
 3935 00ec 13       		.uleb128 0x13
 3936 00ed 00       		.byte	0
 3937 00ee 00       		.byte	0
 3938 00ef 14       		.uleb128 0x14
 3939 00f0 0F       		.uleb128 0xf
 3940 00f1 00       		.byte	0
 3941 00f2 0B       		.uleb128 0xb
 3942 00f3 0B       		.uleb128 0xb
 3943 00f4 00       		.byte	0
 3944 00f5 00       		.byte	0
 3945 00f6 15       		.uleb128 0x15
 3946 00f7 13       		.uleb128 0x13
 3947 00f8 01       		.byte	0x1
 3948 00f9 03       		.uleb128 0x3
 3949 00fa 0E       		.uleb128 0xe
 3950 00fb 0B       		.uleb128 0xb
 3951 00fc 05       		.uleb128 0x5
 3952 00fd 3A       		.uleb128 0x3a
 3953 00fe 0B       		.uleb128 0xb
 3954 00ff 3B       		.uleb128 0x3b
 3955 0100 05       		.uleb128 0x5
 3956 0101 01       		.uleb128 0x1
 3957 0102 13       		.uleb128 0x13
 3958 0103 00       		.byte	0
 3959 0104 00       		.byte	0
 3960 0105 16       		.uleb128 0x16
 3961 0106 17       		.uleb128 0x17
 3962 0107 01       		.byte	0x1
 3963 0108 0B       		.uleb128 0xb
 3964 0109 0B       		.uleb128 0xb
 3965 010a 3A       		.uleb128 0x3a
 3966 010b 0B       		.uleb128 0xb
 3967 010c 3B       		.uleb128 0x3b
 3968 010d 0B       		.uleb128 0xb
 3969 010e 01       		.uleb128 0x1
 3970 010f 13       		.uleb128 0x13
 3971 0110 00       		.byte	0
 3972 0111 00       		.byte	0
 3973 0112 17       		.uleb128 0x17
 3974 0113 0D       		.uleb128 0xd
 3975 0114 00       		.byte	0
 3976 0115 03       		.uleb128 0x3
 3977 0116 0E       		.uleb128 0xe
 3978 0117 3A       		.uleb128 0x3a
 3979 0118 0B       		.uleb128 0xb
 3980 0119 3B       		.uleb128 0x3b
 3981 011a 05       		.uleb128 0x5
 3982 011b 49       		.uleb128 0x49
 3983 011c 13       		.uleb128 0x13
 3984 011d 00       		.byte	0
 3985 011e 00       		.byte	0
 3986 011f 18       		.uleb128 0x18
ARM GAS  C:\Users\IDONNO~1\AppData\Local\Temp\ccqkORGP.s 			page 71


 3987 0120 26       		.uleb128 0x26
 3988 0121 00       		.byte	0
 3989 0122 49       		.uleb128 0x49
 3990 0123 13       		.uleb128 0x13
 3991 0124 00       		.byte	0
 3992 0125 00       		.byte	0
 3993 0126 19       		.uleb128 0x19
 3994 0127 01       		.uleb128 0x1
 3995 0128 01       		.byte	0x1
 3996 0129 49       		.uleb128 0x49
 3997 012a 13       		.uleb128 0x13
 3998 012b 01       		.uleb128 0x1
 3999 012c 13       		.uleb128 0x13
 4000 012d 00       		.byte	0
 4001 012e 00       		.byte	0
 4002 012f 1A       		.uleb128 0x1a
 4003 0130 21       		.uleb128 0x21
 4004 0131 00       		.byte	0
 4005 0132 49       		.uleb128 0x49
 4006 0133 13       		.uleb128 0x13
 4007 0134 2F       		.uleb128 0x2f
 4008 0135 0B       		.uleb128 0xb
 4009 0136 00       		.byte	0
 4010 0137 00       		.byte	0
 4011 0138 1B       		.uleb128 0x1b
 4012 0139 0D       		.uleb128 0xd
 4013 013a 00       		.byte	0
 4014 013b 03       		.uleb128 0x3
 4015 013c 08       		.uleb128 0x8
 4016 013d 3A       		.uleb128 0x3a
 4017 013e 0B       		.uleb128 0xb
 4018 013f 3B       		.uleb128 0x3b
 4019 0140 0B       		.uleb128 0xb
 4020 0141 49       		.uleb128 0x49
 4021 0142 13       		.uleb128 0x13
 4022 0143 00       		.byte	0
 4023 0144 00       		.byte	0
 4024 0145 1C       		.uleb128 0x1c
 4025 0146 04       		.uleb128 0x4
 4026 0147 01       		.byte	0x1
 4027 0148 0B       		.uleb128 0xb
 4028 0149 0B       		.uleb128 0xb
 4029 014a 49       		.uleb128 0x49
 4030 014b 13       		.uleb128 0x13
 4031 014c 3A       		.uleb128 0x3a
 4032 014d 0B       		.uleb128 0xb
 4033 014e 3B       		.uleb128 0x3b
 4034 014f 05       		.uleb128 0x5
 4035 0150 01       		.uleb128 0x1
 4036 0151 13       		.uleb128 0x13
 4037 0152 00       		.byte	0
 4038 0153 00       		.byte	0
 4039 0154 1D       		.uleb128 0x1d
 4040 0155 2E       		.uleb128 0x2e
 4041 0156 01       		.byte	0x1
 4042 0157 3F       		.uleb128 0x3f
 4043 0158 19       		.uleb128 0x19
ARM GAS  C:\Users\IDONNO~1\AppData\Local\Temp\ccqkORGP.s 			page 72


 4044 0159 03       		.uleb128 0x3
 4045 015a 0E       		.uleb128 0xe
 4046 015b 3A       		.uleb128 0x3a
 4047 015c 0B       		.uleb128 0xb
 4048 015d 3B       		.uleb128 0x3b
 4049 015e 0B       		.uleb128 0xb
 4050 015f 27       		.uleb128 0x27
 4051 0160 19       		.uleb128 0x19
 4052 0161 11       		.uleb128 0x11
 4053 0162 01       		.uleb128 0x1
 4054 0163 12       		.uleb128 0x12
 4055 0164 06       		.uleb128 0x6
 4056 0165 40       		.uleb128 0x40
 4057 0166 18       		.uleb128 0x18
 4058 0167 9742     		.uleb128 0x2117
 4059 0169 19       		.uleb128 0x19
 4060 016a 01       		.uleb128 0x1
 4061 016b 13       		.uleb128 0x13
 4062 016c 00       		.byte	0
 4063 016d 00       		.byte	0
 4064 016e 1E       		.uleb128 0x1e
 4065 016f 898201   		.uleb128 0x4109
 4066 0172 01       		.byte	0x1
 4067 0173 11       		.uleb128 0x11
 4068 0174 01       		.uleb128 0x1
 4069 0175 31       		.uleb128 0x31
 4070 0176 13       		.uleb128 0x13
 4071 0177 01       		.uleb128 0x1
 4072 0178 13       		.uleb128 0x13
 4073 0179 00       		.byte	0
 4074 017a 00       		.byte	0
 4075 017b 1F       		.uleb128 0x1f
 4076 017c 8A8201   		.uleb128 0x410a
 4077 017f 00       		.byte	0
 4078 0180 02       		.uleb128 0x2
 4079 0181 18       		.uleb128 0x18
 4080 0182 9142     		.uleb128 0x2111
 4081 0184 18       		.uleb128 0x18
 4082 0185 00       		.byte	0
 4083 0186 00       		.byte	0
 4084 0187 20       		.uleb128 0x20
 4085 0188 898201   		.uleb128 0x4109
 4086 018b 01       		.byte	0x1
 4087 018c 11       		.uleb128 0x11
 4088 018d 01       		.uleb128 0x1
 4089 018e 9542     		.uleb128 0x2115
 4090 0190 19       		.uleb128 0x19
 4091 0191 31       		.uleb128 0x31
 4092 0192 13       		.uleb128 0x13
 4093 0193 00       		.byte	0
 4094 0194 00       		.byte	0
 4095 0195 21       		.uleb128 0x21
 4096 0196 898201   		.uleb128 0x4109
 4097 0199 01       		.byte	0x1
 4098 019a 11       		.uleb128 0x11
 4099 019b 01       		.uleb128 0x1
 4100 019c 31       		.uleb128 0x31
ARM GAS  C:\Users\IDONNO~1\AppData\Local\Temp\ccqkORGP.s 			page 73


 4101 019d 13       		.uleb128 0x13
 4102 019e 00       		.byte	0
 4103 019f 00       		.byte	0
 4104 01a0 22       		.uleb128 0x22
 4105 01a1 898201   		.uleb128 0x4109
 4106 01a4 00       		.byte	0
 4107 01a5 11       		.uleb128 0x11
 4108 01a6 01       		.uleb128 0x1
 4109 01a7 31       		.uleb128 0x31
 4110 01a8 13       		.uleb128 0x13
 4111 01a9 00       		.byte	0
 4112 01aa 00       		.byte	0
 4113 01ab 23       		.uleb128 0x23
 4114 01ac 898201   		.uleb128 0x4109
 4115 01af 00       		.byte	0
 4116 01b0 11       		.uleb128 0x11
 4117 01b1 01       		.uleb128 0x1
 4118 01b2 9542     		.uleb128 0x2115
 4119 01b4 19       		.uleb128 0x19
 4120 01b5 31       		.uleb128 0x31
 4121 01b6 13       		.uleb128 0x13
 4122 01b7 00       		.byte	0
 4123 01b8 00       		.byte	0
 4124 01b9 24       		.uleb128 0x24
 4125 01ba 0B       		.uleb128 0xb
 4126 01bb 01       		.byte	0x1
 4127 01bc 55       		.uleb128 0x55
 4128 01bd 17       		.uleb128 0x17
 4129 01be 01       		.uleb128 0x1
 4130 01bf 13       		.uleb128 0x13
 4131 01c0 00       		.byte	0
 4132 01c1 00       		.byte	0
 4133 01c2 25       		.uleb128 0x25
 4134 01c3 34       		.uleb128 0x34
 4135 01c4 00       		.byte	0
 4136 01c5 03       		.uleb128 0x3
 4137 01c6 08       		.uleb128 0x8
 4138 01c7 3A       		.uleb128 0x3a
 4139 01c8 0B       		.uleb128 0xb
 4140 01c9 3B       		.uleb128 0x3b
 4141 01ca 0B       		.uleb128 0xb
 4142 01cb 49       		.uleb128 0x49
 4143 01cc 13       		.uleb128 0x13
 4144 01cd 02       		.uleb128 0x2
 4145 01ce 17       		.uleb128 0x17
 4146 01cf 00       		.byte	0
 4147 01d0 00       		.byte	0
 4148 01d1 26       		.uleb128 0x26
 4149 01d2 34       		.uleb128 0x34
 4150 01d3 00       		.byte	0
 4151 01d4 03       		.uleb128 0x3
 4152 01d5 0E       		.uleb128 0xe
 4153 01d6 3A       		.uleb128 0x3a
 4154 01d7 0B       		.uleb128 0xb
 4155 01d8 3B       		.uleb128 0x3b
 4156 01d9 0B       		.uleb128 0xb
 4157 01da 49       		.uleb128 0x49
ARM GAS  C:\Users\IDONNO~1\AppData\Local\Temp\ccqkORGP.s 			page 74


 4158 01db 13       		.uleb128 0x13
 4159 01dc 02       		.uleb128 0x2
 4160 01dd 18       		.uleb128 0x18
 4161 01de 00       		.byte	0
 4162 01df 00       		.byte	0
 4163 01e0 27       		.uleb128 0x27
 4164 01e1 34       		.uleb128 0x34
 4165 01e2 00       		.byte	0
 4166 01e3 03       		.uleb128 0x3
 4167 01e4 0E       		.uleb128 0xe
 4168 01e5 3A       		.uleb128 0x3a
 4169 01e6 0B       		.uleb128 0xb
 4170 01e7 3B       		.uleb128 0x3b
 4171 01e8 05       		.uleb128 0x5
 4172 01e9 49       		.uleb128 0x49
 4173 01ea 13       		.uleb128 0x13
 4174 01eb 3F       		.uleb128 0x3f
 4175 01ec 19       		.uleb128 0x19
 4176 01ed 3C       		.uleb128 0x3c
 4177 01ee 19       		.uleb128 0x19
 4178 01ef 00       		.byte	0
 4179 01f0 00       		.byte	0
 4180 01f1 28       		.uleb128 0x28
 4181 01f2 34       		.uleb128 0x34
 4182 01f3 00       		.byte	0
 4183 01f4 03       		.uleb128 0x3
 4184 01f5 08       		.uleb128 0x8
 4185 01f6 3A       		.uleb128 0x3a
 4186 01f7 0B       		.uleb128 0xb
 4187 01f8 3B       		.uleb128 0x3b
 4188 01f9 05       		.uleb128 0x5
 4189 01fa 49       		.uleb128 0x49
 4190 01fb 13       		.uleb128 0x13
 4191 01fc 3F       		.uleb128 0x3f
 4192 01fd 19       		.uleb128 0x19
 4193 01fe 3C       		.uleb128 0x3c
 4194 01ff 19       		.uleb128 0x19
 4195 0200 00       		.byte	0
 4196 0201 00       		.byte	0
 4197 0202 29       		.uleb128 0x29
 4198 0203 34       		.uleb128 0x34
 4199 0204 00       		.byte	0
 4200 0205 03       		.uleb128 0x3
 4201 0206 0E       		.uleb128 0xe
 4202 0207 3A       		.uleb128 0x3a
 4203 0208 0B       		.uleb128 0xb
 4204 0209 3B       		.uleb128 0x3b
 4205 020a 0B       		.uleb128 0xb
 4206 020b 49       		.uleb128 0x49
 4207 020c 13       		.uleb128 0x13
 4208 020d 3F       		.uleb128 0x3f
 4209 020e 19       		.uleb128 0x19
 4210 020f 02       		.uleb128 0x2
 4211 0210 18       		.uleb128 0x18
 4212 0211 00       		.byte	0
 4213 0212 00       		.byte	0
 4214 0213 2A       		.uleb128 0x2a
ARM GAS  C:\Users\IDONNO~1\AppData\Local\Temp\ccqkORGP.s 			page 75


 4215 0214 34       		.uleb128 0x34
 4216 0215 00       		.byte	0
 4217 0216 03       		.uleb128 0x3
 4218 0217 0E       		.uleb128 0xe
 4219 0218 3A       		.uleb128 0x3a
 4220 0219 0B       		.uleb128 0xb
 4221 021a 3B       		.uleb128 0x3b
 4222 021b 0B       		.uleb128 0xb
 4223 021c 49       		.uleb128 0x49
 4224 021d 13       		.uleb128 0x13
 4225 021e 3F       		.uleb128 0x3f
 4226 021f 19       		.uleb128 0x19
 4227 0220 3C       		.uleb128 0x3c
 4228 0221 19       		.uleb128 0x19
 4229 0222 00       		.byte	0
 4230 0223 00       		.byte	0
 4231 0224 2B       		.uleb128 0x2b
 4232 0225 2E       		.uleb128 0x2e
 4233 0226 00       		.byte	0
 4234 0227 3F       		.uleb128 0x3f
 4235 0228 19       		.uleb128 0x19
 4236 0229 3C       		.uleb128 0x3c
 4237 022a 19       		.uleb128 0x19
 4238 022b 6E       		.uleb128 0x6e
 4239 022c 0E       		.uleb128 0xe
 4240 022d 03       		.uleb128 0x3
 4241 022e 0E       		.uleb128 0xe
 4242 022f 3A       		.uleb128 0x3a
 4243 0230 0B       		.uleb128 0xb
 4244 0231 3B       		.uleb128 0x3b
 4245 0232 05       		.uleb128 0x5
 4246 0233 00       		.byte	0
 4247 0234 00       		.byte	0
 4248 0235 2C       		.uleb128 0x2c
 4249 0236 2E       		.uleb128 0x2e
 4250 0237 00       		.byte	0
 4251 0238 3F       		.uleb128 0x3f
 4252 0239 19       		.uleb128 0x19
 4253 023a 3C       		.uleb128 0x3c
 4254 023b 19       		.uleb128 0x19
 4255 023c 6E       		.uleb128 0x6e
 4256 023d 0E       		.uleb128 0xe
 4257 023e 03       		.uleb128 0x3
 4258 023f 0E       		.uleb128 0xe
 4259 0240 3A       		.uleb128 0x3a
 4260 0241 0B       		.uleb128 0xb
 4261 0242 3B       		.uleb128 0x3b
 4262 0243 0B       		.uleb128 0xb
 4263 0244 00       		.byte	0
 4264 0245 00       		.byte	0
 4265 0246 00       		.byte	0
 4266              		.section	.debug_loc,"",%progbits
 4267              	.Ldebug_loc0:
 4268              	.LLST0:
 4269 0000 40000000 		.4byte	.LVL53
 4270 0004 44000000 		.4byte	.LVL54
 4271 0008 0200     		.2byte	0x2
ARM GAS  C:\Users\IDONNO~1\AppData\Local\Temp\ccqkORGP.s 			page 76


 4272 000a 30       		.byte	0x30
 4273 000b 9F       		.byte	0x9f
 4274 000c 44000000 		.4byte	.LVL54
 4275 0010 56000000 		.4byte	.LVL56
 4276 0014 0500     		.2byte	0x5
 4277 0016 40       		.byte	0x40
 4278 0017 74       		.byte	0x74
 4279 0018 00       		.sleb128 0
 4280 0019 1C       		.byte	0x1c
 4281 001a 9F       		.byte	0x9f
 4282 001b 56000000 		.4byte	.LVL56
 4283 001f 58000000 		.4byte	.LVL57
 4284 0023 0500     		.2byte	0x5
 4285 0025 41       		.byte	0x41
 4286 0026 74       		.byte	0x74
 4287 0027 00       		.sleb128 0
 4288 0028 1C       		.byte	0x1c
 4289 0029 9F       		.byte	0x9f
 4290 002a 58000000 		.4byte	.LVL57
 4291 002e 82000000 		.4byte	.LVL61
 4292 0032 0500     		.2byte	0x5
 4293 0034 40       		.byte	0x40
 4294 0035 74       		.byte	0x74
 4295 0036 00       		.sleb128 0
 4296 0037 1C       		.byte	0x1c
 4297 0038 9F       		.byte	0x9f
 4298 0039 00000000 		.4byte	0
 4299 003d 00000000 		.4byte	0
 4300              		.section	.debug_aranges,"",%progbits
 4301 0000 44000000 		.4byte	0x44
 4302 0004 0200     		.2byte	0x2
 4303 0006 00000000 		.4byte	.Ldebug_info0
 4304 000a 04       		.byte	0x4
 4305 000b 00       		.byte	0
 4306 000c 0000     		.2byte	0
 4307 000e 0000     		.2byte	0
 4308 0010 00000000 		.4byte	.LFB256
 4309 0014 44010000 		.4byte	.LFE256-.LFB256
 4310 0018 00000000 		.4byte	.LFB257
 4311 001c A8000000 		.4byte	.LFE257-.LFB257
 4312 0020 00000000 		.4byte	.LFB258
 4313 0024 30000000 		.4byte	.LFE258-.LFB258
 4314 0028 00000000 		.4byte	.LFB259
 4315 002c 50000000 		.4byte	.LFE259-.LFB259
 4316 0030 00000000 		.4byte	.LFB260
 4317 0034 48000000 		.4byte	.LFE260-.LFB260
 4318 0038 00000000 		.4byte	.LFB261
 4319 003c C4000000 		.4byte	.LFE261-.LFB261
 4320 0040 00000000 		.4byte	0
 4321 0044 00000000 		.4byte	0
 4322              		.section	.debug_ranges,"",%progbits
 4323              	.Ldebug_ranges0:
 4324 0000 40000000 		.4byte	.LBB2
 4325 0004 42000000 		.4byte	.LBE2
 4326 0008 44000000 		.4byte	.LBB3
 4327 000c 60000000 		.4byte	.LBE3
 4328 0010 00000000 		.4byte	0
ARM GAS  C:\Users\IDONNO~1\AppData\Local\Temp\ccqkORGP.s 			page 77


 4329 0014 00000000 		.4byte	0
 4330 0018 00000000 		.4byte	.LFB256
 4331 001c 44010000 		.4byte	.LFE256
 4332 0020 00000000 		.4byte	.LFB257
 4333 0024 A8000000 		.4byte	.LFE257
 4334 0028 00000000 		.4byte	.LFB258
 4335 002c 30000000 		.4byte	.LFE258
 4336 0030 00000000 		.4byte	.LFB259
 4337 0034 50000000 		.4byte	.LFE259
 4338 0038 00000000 		.4byte	.LFB260
 4339 003c 48000000 		.4byte	.LFE260
 4340 0040 00000000 		.4byte	.LFB261
 4341 0044 C4000000 		.4byte	.LFE261
 4342 0048 00000000 		.4byte	0
 4343 004c 00000000 		.4byte	0
 4344              		.section	.debug_line,"",%progbits
 4345              	.Ldebug_line0:
 4346 0000 18050000 		.section	.debug_str,"MS",%progbits,1
 4346      02000304 
 4346      00000201 
 4346      FB0E0D00 
 4346      01010101 
 4347              	.LASF80:
 4348 0000 63685F74 		.ascii	"ch_threads_list\000"
 4348      68726561 
 4348      64735F6C 
 4348      69737400 
 4349              	.LASF81:
 4350 0010 74687265 		.ascii	"threads_queue_t\000"
 4350      6164735F 
 4350      71756575 
 4350      655F7400 
 4351              	.LASF39:
 4352 0020 4F415231 		.ascii	"OAR1\000"
 4352      00
 4353              	.LASF194:
 4354 0025 49544D5F 		.ascii	"ITM_RxBuffer\000"
 4354      52784275 
 4354      66666572 
 4354      00
 4355              	.LASF122:
 4356 0032 77746D74 		.ascii	"wtmtxp\000"
 4356      787000
 4357              	.LASF116:
 4358 0039 746D5F63 		.ascii	"tm_calibration_t\000"
 4358      616C6962 
 4358      72617469 
 4358      6F6E5F74 
 4358      00
 4359              	.LASF69:
 4360 004a 705F7469 		.ascii	"p_time\000"
 4360      6D6500
 4361              	.LASF146:
 4362 0051 42535252 		.ascii	"BSRR\000"
 4362      00
 4363              	.LASF131:
 4364 0056 63686172 		.ascii	"char\000"
ARM GAS  C:\Users\IDONNO~1\AppData\Local\Temp\ccqkORGP.s 			page 78


 4364      00
 4365              	.LASF111:
 4366 005b 72656761 		.ascii	"regarm_t\000"
 4366      726D5F74 
 4366      00
 4367              	.LASF60:
 4368 0064 705F7072 		.ascii	"p_prio\000"
 4368      696F00
 4369              	.LASF182:
 4370 006b 646D6172 		.ascii	"dmarx\000"
 4370      7800
 4371              	.LASF125:
 4372 0071 735F7175 		.ascii	"s_queue\000"
 4372      65756500 
 4373              	.LASF101:
 4374 0079 76745F73 		.ascii	"vt_systime\000"
 4374      79737469 
 4374      6D6500
 4375              	.LASF156:
 4376 0084 4932435F 		.ascii	"I2C_ACTIVE_RX\000"
 4376      41435449 
 4376      56455F52 
 4376      5800
 4377              	.LASF13:
 4378 0092 756E7369 		.ascii	"unsigned int\000"
 4378      676E6564 
 4378      20696E74 
 4378      00
 4379              	.LASF173:
 4380 009f 49324344 		.ascii	"I2CDriver\000"
 4380      72697665 
 4380      7200
 4381              	.LASF185:
 4382 00a9 53455256 		.ascii	"SERVO\000"
 4382      4F00
 4383              	.LASF78:
 4384 00af 74687265 		.ascii	"threads_list_t\000"
 4384      6164735F 
 4384      6C697374 
 4384      5F7400
 4385              	.LASF70:
 4386 00be 705F7761 		.ascii	"p_waiting\000"
 4386      6974696E 
 4386      6700
 4387              	.LASF6:
 4388 00c8 5F5F696E 		.ascii	"__int32_t\000"
 4388      7433325F 
 4388      7400
 4389              	.LASF119:
 4390 00d2 77746F62 		.ascii	"wtobjp\000"
 4390      6A7000
 4391              	.LASF108:
 4392 00d9 76746C69 		.ascii	"vtlist\000"
 4392      737400
 4393              	.LASF84:
 4394 00e0 63685F72 		.ascii	"ch_ready_list\000"
 4394      65616479 
ARM GAS  C:\Users\IDONNO~1\AppData\Local\Temp\ccqkORGP.s 			page 79


 4394      5F6C6973 
 4394      7400
 4395              	.LASF110:
 4396 00ee 69646C65 		.ascii	"idle_thread_wa\000"
 4396      5F746872 
 4396      6561645F 
 4396      776100
 4397              	.LASF35:
 4398 00fd 4E445452 		.ascii	"NDTR\000"
 4398      00
 4399              	.LASF186:
 4400 0102 68775F69 		.ascii	"hw_init_gpio\000"
 4400      6E69745F 
 4400      6770696F 
 4400      00
 4401              	.LASF123:
 4402 010f 65776D61 		.ascii	"ewmask\000"
 4402      736B00
 4403              	.LASF91:
 4404 0116 76746675 		.ascii	"vtfunc_t\000"
 4404      6E635F74 
 4404      00
 4405              	.LASF126:
 4406 011f 735F636E 		.ascii	"s_cnt\000"
 4406      7400
 4407              	.LASF103:
 4408 0125 63685F73 		.ascii	"ch_system_debug\000"
 4408      79737465 
 4408      6D5F6465 
 4408      62756700 
 4409              	.LASF183:
 4410 0135 646D6174 		.ascii	"dmatx\000"
 4410      7800
 4411              	.LASF17:
 4412 013b 75696E74 		.ascii	"uint32_t\000"
 4412      33325F74 
 4412      00
 4413              	.LASF161:
 4414 0144 4F504D4F 		.ascii	"OPMODE_I2C\000"
 4414      44455F49 
 4414      324300
 4415              	.LASF155:
 4416 014f 4932435F 		.ascii	"I2C_ACTIVE_TX\000"
 4416      41435449 
 4416      56455F54 
 4416      5800
 4417              	.LASF54:
 4418 015d 6576656E 		.ascii	"eventmask_t\000"
 4418      746D6173 
 4418      6B5F7400 
 4419              	.LASF86:
 4420 0169 725F7072 		.ascii	"r_prio\000"
 4420      696F00
 4421              	.LASF136:
 4422 0170 69666372 		.ascii	"ifcr\000"
 4422      00
 4423              	.LASF98:
ARM GAS  C:\Users\IDONNO~1\AppData\Local\Temp\ccqkORGP.s 			page 80


 4424 0175 76745F70 		.ascii	"vt_par\000"
 4424      617200
 4425              	.LASF134:
 4426 017c 666C6F61 		.ascii	"float\000"
 4426      7400
 4427              	.LASF177:
 4428 0182 6D757465 		.ascii	"mutex\000"
 4428      7800
 4429              	.LASF124:
 4430 0188 63685F73 		.ascii	"ch_semaphore\000"
 4430      656D6170 
 4430      686F7265 
 4430      00
 4431              	.LASF52:
 4432 0195 74707269 		.ascii	"tprio_t\000"
 4432      6F5F7400 
 4433              	.LASF93:
 4434 019d 63685F76 		.ascii	"ch_virtual_timer\000"
 4434      69727475 
 4434      616C5F74 
 4434      696D6572 
 4434      00
 4435              	.LASF189:
 4436 01ae 68775F73 		.ascii	"hw_start_i2c\000"
 4436      74617274 
 4436      5F693263 
 4436      00
 4437              	.LASF97:
 4438 01bb 76745F66 		.ascii	"vt_func\000"
 4438      756E6300 
 4439              	.LASF12:
 4440 01c3 6C6F6E67 		.ascii	"long long unsigned int\000"
 4440      206C6F6E 
 4440      6720756E 
 4440      7369676E 
 4440      65642069 
 4441              	.LASF139:
 4442 01da 76656374 		.ascii	"vector\000"
 4442      6F7200
 4443              	.LASF176:
 4444 01e1 6572726F 		.ascii	"errors\000"
 4444      727300
 4445              	.LASF193:
 4446 01e8 69326366 		.ascii	"i2cfg\000"
 4446      6700
 4447              	.LASF4:
 4448 01ee 5F5F7569 		.ascii	"__uint16_t\000"
 4448      6E743136 
 4448      5F7400
 4449              	.LASF55:
 4450 01f9 636E745F 		.ascii	"cnt_t\000"
 4450      7400
 4451              	.LASF172:
 4452 01ff 49324343 		.ascii	"I2CConfig\000"
 4452      6F6E6669 
 4452      6700
 4453              	.LASF142:
ARM GAS  C:\Users\IDONNO~1\AppData\Local\Temp\ccqkORGP.s 			page 81


 4454 0209 4D4F4445 		.ascii	"MODER\000"
 4454      5200
 4455              	.LASF149:
 4456 020f 41465248 		.ascii	"AFRH\000"
 4456      00
 4457              	.LASF150:
 4458 0214 73746D33 		.ascii	"stm32_gpio_t\000"
 4458      325F6770 
 4458      696F5F74 
 4458      00
 4459              	.LASF148:
 4460 0221 4146524C 		.ascii	"AFRL\000"
 4460      00
 4461              	.LASF62:
 4462 0226 705F6E65 		.ascii	"p_newer\000"
 4462      77657200 
 4463              	.LASF141:
 4464 022e 636C6561 		.ascii	"clear\000"
 4464      7200
 4465              	.LASF100:
 4466 0234 63685F76 		.ascii	"ch_virtual_timers_list\000"
 4466      69727475 
 4466      616C5F74 
 4466      696D6572 
 4466      735F6C69 
 4467              	.LASF168:
 4468 024b 69326364 		.ascii	"i2cdutycycle_t\000"
 4468      75747963 
 4468      79636C65 
 4468      5F7400
 4469              	.LASF160:
 4470 025a 69326366 		.ascii	"i2cflags_t\000"
 4470      6C616773 
 4470      5F7400
 4471              	.LASF57:
 4472 0265 74687265 		.ascii	"thread_t\000"
 4472      61645F74 
 4472      00
 4473              	.LASF46:
 4474 026e 73697A65 		.ascii	"size_t\000"
 4474      5F7400
 4475              	.LASF117:
 4476 0275 7264796D 		.ascii	"rdymsg\000"
 4476      736700
 4477              	.LASF115:
 4478 027c 6F666673 		.ascii	"offset\000"
 4478      657400
 4479              	.LASF133:
 4480 0283 5F426F6F 		.ascii	"_Bool\000"
 4480      6C00
 4481              	.LASF206:
 4482 0289 474E5520 		.ascii	"GNU C99 5.4.1 20160919 (release) [ARM/embedded-5-br"
 4482      43393920 
 4482      352E342E 
 4482      31203230 
 4482      31363039 
 4483 02bc 616E6368 		.ascii	"anch revision 240496] -mcpu=cortex-m4 -mfloat-abi=h"
ARM GAS  C:\Users\IDONNO~1\AppData\Local\Temp\ccqkORGP.s 			page 82


 4483      20726576 
 4483      6973696F 
 4483      6E203234 
 4483      30343936 
 4484 02ef 61726420 		.ascii	"ard -mfpu=fpv4-sp-d16 -mno-thumb-interwork -mthumb "
 4484      2D6D6670 
 4484      753D6670 
 4484      76342D73 
 4484      702D6431 
 4485 0322 2D676764 		.ascii	"-ggdb -O2 -std=gnu99 -fomit-frame-pointer -falign-f"
 4485      62202D4F 
 4485      32202D73 
 4485      74643D67 
 4485      6E753939 
 4486 0355 756E6374 		.ascii	"unctions=16 -ffunction-sections -fdata-sections -fn"
 4486      696F6E73 
 4486      3D313620 
 4486      2D666675 
 4486      6E637469 
 4487 0388 6F2D636F 		.ascii	"o-common -fsingle-precision-constant\000"
 4487      6D6D6F6E 
 4487      202D6673 
 4487      696E676C 
 4487      652D7072 
 4488              	.LASF145:
 4489 03ad 50555044 		.ascii	"PUPDR\000"
 4489      5200
 4490              	.LASF208:
 4491 03b3 443A5C67 		.ascii	"D:\\git\\oroca_bldc_dev\\oroca_bldc_fw\\oroca_bldc_"
 4491      69745C6F 
 4491      726F6361 
 4491      5F626C64 
 4491      635F6465 
 4492 03e2 63686962 		.ascii	"chibios\000"
 4492      696F7300 
 4493              	.LASF129:
 4494 03ea 6D5F6F77 		.ascii	"m_owner\000"
 4494      6E657200 
 4495              	.LASF40:
 4496 03f2 4F415232 		.ascii	"OAR2\000"
 4496      00
 4497              	.LASF127:
 4498 03f7 63685F6D 		.ascii	"ch_mutex\000"
 4498      75746578 
 4498      00
 4499              	.LASF11:
 4500 0400 5F5F7569 		.ascii	"__uint64_t\000"
 4500      6E743634 
 4500      5F7400
 4501              	.LASF165:
 4502 040b 5354445F 		.ascii	"STD_DUTY_CYCLE\000"
 4502      44555459 
 4502      5F435943 
 4502      4C4500
 4503              	.LASF171:
 4504 041a 64757479 		.ascii	"duty_cycle\000"
 4504      5F637963 
ARM GAS  C:\Users\IDONNO~1\AppData\Local\Temp\ccqkORGP.s 			page 83


 4504      6C6500
 4505              	.LASF36:
 4506 0425 4D304152 		.ascii	"M0AR\000"
 4506      00
 4507              	.LASF56:
 4508 042a 73797374 		.ascii	"systime_t\000"
 4508      696D655F 
 4508      7400
 4509              	.LASF64:
 4510 0434 705F6E61 		.ascii	"p_name\000"
 4510      6D6500
 4511              	.LASF96:
 4512 043b 76745F64 		.ascii	"vt_delta\000"
 4512      656C7461 
 4512      00
 4513              	.LASF184:
 4514 0444 6770696F 		.ascii	"gpio\000"
 4514      00
 4515              	.LASF44:
 4516 0449 44495341 		.ascii	"DISABLE\000"
 4516      424C4500 
 4517              	.LASF198:
 4518 0451 5243435F 		.ascii	"RCC_AHB1PeriphClockCmd\000"
 4518      41484231 
 4518      50657269 
 4518      7068436C 
 4518      6F636B43 
 4519              	.LASF88:
 4520 0468 725F6E65 		.ascii	"r_newer\000"
 4520      77657200 
 4521              	.LASF181:
 4522 0470 7478646D 		.ascii	"txdmamode\000"
 4522      616D6F64 
 4522      6500
 4523              	.LASF137:
 4524 047a 69736869 		.ascii	"ishift\000"
 4524      667400
 4525              	.LASF49:
 4526 0481 74737461 		.ascii	"tstate_t\000"
 4526      74655F74 
 4526      00
 4527              	.LASF188:
 4528 048a 68775F73 		.ascii	"hw_setup_servo_outputs\000"
 4528      65747570 
 4528      5F736572 
 4528      766F5F6F 
 4528      75747075 
 4529              	.LASF140:
 4530 04a1 73746D33 		.ascii	"stm32_dma_stream_t\000"
 4530      325F646D 
 4530      615F7374 
 4530      7265616D 
 4530      5F7400
 4531              	.LASF10:
 4532 04b4 6C6F6E67 		.ascii	"long long int\000"
 4532      206C6F6E 
 4532      6720696E 
ARM GAS  C:\Users\IDONNO~1\AppData\Local\Temp\ccqkORGP.s 			page 84


 4532      7400
 4533              	.LASF63:
 4534 04c2 705F6F6C 		.ascii	"p_older\000"
 4534      64657200 
 4535              	.LASF167:
 4536 04ca 46415354 		.ascii	"FAST_DUTY_CYCLE_16_9\000"
 4536      5F445554 
 4536      595F4359 
 4536      434C455F 
 4536      31365F39 
 4537              	.LASF14:
 4538 04df 75696E74 		.ascii	"uint8_t\000"
 4538      385F7400 
 4539              	.LASF41:
 4540 04e7 54524953 		.ascii	"TRISE\000"
 4540      4500
 4541              	.LASF76:
 4542 04ed 705F6D70 		.ascii	"p_mpool\000"
 4542      6F6F6C00 
 4543              	.LASF207:
 4544 04f5 7372632F 		.ascii	"src/hw_oroca.c\000"
 4544      68775F6F 
 4544      726F6361 
 4544      2E6300
 4545              	.LASF74:
 4546 0504 705F6D74 		.ascii	"p_mtxlist\000"
 4546      786C6973 
 4546      7400
 4547              	.LASF65:
 4548 050e 705F7374 		.ascii	"p_state\000"
 4548      61746500 
 4549              	.LASF79:
 4550 0516 63685F74 		.ascii	"ch_thread\000"
 4550      68726561 
 4550      6400
 4551              	.LASF102:
 4552 0520 73797374 		.ascii	"system_debug_t\000"
 4552      656D5F64 
 4552      65627567 
 4552      5F7400
 4553              	.LASF202:
 4554 052f 69326353 		.ascii	"i2cStart\000"
 4554      74617274 
 4554      00
 4555              	.LASF34:
 4556 0538 4144435F 		.ascii	"ADC_TypeDef\000"
 4556      54797065 
 4556      44656600 
 4557              	.LASF82:
 4558 0544 63685F74 		.ascii	"ch_threads_queue\000"
 4558      68726561 
 4558      64735F71 
 4558      75657565 
 4558      00
 4559              	.LASF163:
 4560 0555 4F504D4F 		.ascii	"OPMODE_SMBUS_HOST\000"
 4560      44455F53 
ARM GAS  C:\Users\IDONNO~1\AppData\Local\Temp\ccqkORGP.s 			page 85


 4560      4D425553 
 4560      5F484F53 
 4560      5400
 4561              	.LASF204:
 4562 0567 69326353 		.ascii	"i2cStop\000"
 4562      746F7000 
 4563              	.LASF85:
 4564 056f 725F7175 		.ascii	"r_queue\000"
 4564      65756500 
 4565              	.LASF152:
 4566 0577 4932435F 		.ascii	"I2C_UNINIT\000"
 4566      554E494E 
 4566      495400
 4567              	.LASF53:
 4568 0582 6D73675F 		.ascii	"msg_t\000"
 4568      7400
 4569              	.LASF113:
 4570 0588 636F6E74 		.ascii	"context\000"
 4570      65787400 
 4571              	.LASF151:
 4572 0590 696F706F 		.ascii	"ioportmask_t\000"
 4572      72746D61 
 4572      736B5F74 
 4572      00
 4573              	.LASF66:
 4574 059d 705F666C 		.ascii	"p_flags\000"
 4574      61677300 
 4575              	.LASF92:
 4576 05a5 76697274 		.ascii	"virtual_timer_t\000"
 4576      75616C5F 
 4576      74696D65 
 4576      725F7400 
 4577              	.LASF203:
 4578 05b5 69326352 		.ascii	"i2cReleaseBus\000"
 4578      656C6561 
 4578      73654275 
 4578      7300
 4579              	.LASF28:
 4580 05c3 53515233 		.ascii	"SQR3\000"
 4580      00
 4581              	.LASF38:
 4582 05c8 444D415F 		.ascii	"DMA_Stream_TypeDef\000"
 4582      53747265 
 4582      616D5F54 
 4582      79706544 
 4582      656600
 4583              	.LASF170:
 4584 05db 636C6F63 		.ascii	"clock_speed\000"
 4584      6B5F7370 
 4584      65656400 
 4585              	.LASF51:
 4586 05e7 74736C69 		.ascii	"tslices_t\000"
 4586      6365735F 
 4586      7400
 4587              	.LASF89:
 4588 05f1 725F6F6C 		.ascii	"r_older\000"
 4588      64657200 
ARM GAS  C:\Users\IDONNO~1\AppData\Local\Temp\ccqkORGP.s 			page 86


 4589              	.LASF29:
 4590 05f9 4A535152 		.ascii	"JSQR\000"
 4590      00
 4591              	.LASF158:
 4592 05fe 69326373 		.ascii	"i2cstate_t\000"
 4592      74617465 
 4592      5F7400
 4593              	.LASF166:
 4594 0609 46415354 		.ascii	"FAST_DUTY_CYCLE_2\000"
 4594      5F445554 
 4594      595F4359 
 4594      434C455F 
 4594      3200
 4595              	.LASF72:
 4596 061b 705F6D73 		.ascii	"p_msg\000"
 4596      6700
 4597              	.LASF48:
 4598 0621 746D6F64 		.ascii	"tmode_t\000"
 4598      655F7400 
 4599              	.LASF20:
 4600 0629 534D5052 		.ascii	"SMPR1\000"
 4600      3100
 4601              	.LASF21:
 4602 062f 534D5052 		.ascii	"SMPR2\000"
 4602      3200
 4603              	.LASF109:
 4604 0635 6D61696E 		.ascii	"mainthread\000"
 4604      74687265 
 4604      616400
 4605              	.LASF144:
 4606 0640 4F535045 		.ascii	"OSPEEDR\000"
 4606      45445200 
 4607              	.LASF15:
 4608 0648 75696E74 		.ascii	"uint16_t\000"
 4608      31365F74 
 4608      00
 4609              	.LASF77:
 4610 0651 74687265 		.ascii	"thread_reference_t\000"
 4610      61645F72 
 4610      65666572 
 4610      656E6365 
 4610      5F7400
 4611              	.LASF47:
 4612 0664 7274636E 		.ascii	"rtcnt_t\000"
 4612      745F7400 
 4613              	.LASF169:
 4614 066c 6F705F6D 		.ascii	"op_mode\000"
 4614      6F646500 
 4615              	.LASF154:
 4616 0674 4932435F 		.ascii	"I2C_READY\000"
 4616      52454144 
 4616      5900
 4617              	.LASF175:
 4618 067e 636F6E66 		.ascii	"config\000"
 4618      696700
 4619              	.LASF30:
 4620 0685 4A445231 		.ascii	"JDR1\000"
ARM GAS  C:\Users\IDONNO~1\AppData\Local\Temp\ccqkORGP.s 			page 87


 4620      00
 4621              	.LASF33:
 4622 068a 4A445234 		.ascii	"JDR4\000"
 4622      00
 4623              	.LASF75:
 4624 068f 705F7265 		.ascii	"p_realprio\000"
 4624      616C7072 
 4624      696F00
 4625              	.LASF2:
 4626 069a 73686F72 		.ascii	"short int\000"
 4626      7420696E 
 4626      7400
 4627              	.LASF90:
 4628 06a4 725F6375 		.ascii	"r_current\000"
 4628      7272656E 
 4628      7400
 4629              	.LASF73:
 4630 06ae 705F6570 		.ascii	"p_epending\000"
 4630      656E6469 
 4630      6E6700
 4631              	.LASF128:
 4632 06b9 6D5F7175 		.ascii	"m_queue\000"
 4632      65756500 
 4633              	.LASF7:
 4634 06c1 6C6F6E67 		.ascii	"long int\000"
 4634      20696E74 
 4634      00
 4635              	.LASF114:
 4636 06ca 706F7274 		.ascii	"port_intctx\000"
 4636      5F696E74 
 4636      63747800 
 4637              	.LASF159:
 4638 06d6 69326361 		.ascii	"i2caddr_t\000"
 4638      6464725F 
 4638      7400
 4639              	.LASF42:
 4640 06e0 464C5452 		.ascii	"FLTR\000"
 4640      00
 4641              	.LASF157:
 4642 06e5 4932435F 		.ascii	"I2C_LOCKED\000"
 4642      4C4F434B 
 4642      454400
 4643              	.LASF190:
 4644 06f0 68775F73 		.ascii	"hw_stop_i2c\000"
 4644      746F705F 
 4644      69326300 
 4645              	.LASF106:
 4646 06fc 63685F73 		.ascii	"ch_system\000"
 4646      79737465 
 4646      6D00
 4647              	.LASF143:
 4648 0706 4F545950 		.ascii	"OTYPER\000"
 4648      455200
 4649              	.LASF58:
 4650 070d 705F6E65 		.ascii	"p_next\000"
 4650      787400
 4651              	.LASF18:
ARM GAS  C:\Users\IDONNO~1\AppData\Local\Temp\ccqkORGP.s 			page 88


 4652 0714 75696E74 		.ascii	"uint64_t\000"
 4652      36345F74 
 4652      00
 4653              	.LASF61:
 4654 071d 705F6374 		.ascii	"p_ctx\000"
 4654      7800
 4655              	.LASF107:
 4656 0723 726C6973 		.ascii	"rlist\000"
 4656      7400
 4657              	.LASF3:
 4658 0729 5F5F7569 		.ascii	"__uint8_t\000"
 4658      6E74385F 
 4658      7400
 4659              	.LASF31:
 4660 0733 4A445232 		.ascii	"JDR2\000"
 4660      00
 4661              	.LASF32:
 4662 0738 4A445233 		.ascii	"JDR3\000"
 4662      00
 4663              	.LASF37:
 4664 073d 4D314152 		.ascii	"M1AR\000"
 4664      00
 4665              	.LASF26:
 4666 0742 53515231 		.ascii	"SQR1\000"
 4666      00
 4667              	.LASF27:
 4668 0747 53515232 		.ascii	"SQR2\000"
 4668      00
 4669              	.LASF59:
 4670 074c 705F7072 		.ascii	"p_prev\000"
 4670      657600
 4671              	.LASF45:
 4672 0753 454E4142 		.ascii	"ENABLE\000"
 4672      4C4500
 4673              	.LASF19:
 4674 075a 73697A65 		.ascii	"sizetype\000"
 4674      74797065 
 4674      00
 4675              	.LASF50:
 4676 0763 74726566 		.ascii	"trefs_t\000"
 4676      735F7400 
 4677              	.LASF9:
 4678 076b 6C6F6E67 		.ascii	"long unsigned int\000"
 4678      20756E73 
 4678      69676E65 
 4678      6420696E 
 4678      7400
 4679              	.LASF83:
 4680 077d 72656164 		.ascii	"ready_list_t\000"
 4680      795F6C69 
 4680      73745F74 
 4680      00
 4681              	.LASF187:
 4682 078a 68775F73 		.ascii	"hw_setup_adc_channels\000"
 4682      65747570 
 4682      5F616463 
 4682      5F636861 
ARM GAS  C:\Users\IDONNO~1\AppData\Local\Temp\ccqkORGP.s 			page 89


 4682      6E6E656C 
 4683              	.LASF16:
 4684 07a0 696E7433 		.ascii	"int32_t\000"
 4684      325F7400 
 4685              	.LASF162:
 4686 07a8 4F504D4F 		.ascii	"OPMODE_SMBUS_DEVICE\000"
 4686      44455F53 
 4686      4D425553 
 4686      5F444556 
 4686      49434500 
 4687              	.LASF178:
 4688 07bc 74687265 		.ascii	"thread\000"
 4688      616400
 4689              	.LASF121:
 4690 07c3 77747365 		.ascii	"wtsemp\000"
 4690      6D7000
 4691              	.LASF153:
 4692 07ca 4932435F 		.ascii	"I2C_STOP\000"
 4692      53544F50 
 4692      00
 4693              	.LASF132:
 4694 07d3 6D757465 		.ascii	"mutex_t\000"
 4694      785F7400 
 4695              	.LASF1:
 4696 07db 756E7369 		.ascii	"unsigned char\000"
 4696      676E6564 
 4696      20636861 
 4696      7200
 4697              	.LASF195:
 4698 07e9 4144435F 		.ascii	"ADC_Value\000"
 4698      56616C75 
 4698      6500
 4699              	.LASF8:
 4700 07f3 5F5F7569 		.ascii	"__uint32_t\000"
 4700      6E743332 
 4700      5F7400
 4701              	.LASF201:
 4702 07fe 69326341 		.ascii	"i2cAcquireBus\000"
 4702      63717569 
 4702      72654275 
 4702      7300
 4703              	.LASF99:
 4704 080c 76697274 		.ascii	"virtual_timers_list_t\000"
 4704      75616C5F 
 4704      74696D65 
 4704      72735F6C 
 4704      6973745F 
 4705              	.LASF67:
 4706 0822 705F7265 		.ascii	"p_refs\000"
 4706      667300
 4707              	.LASF104:
 4708 0829 70616E69 		.ascii	"panic_msg\000"
 4708      635F6D73 
 4708      6700
 4709              	.LASF180:
 4710 0833 7278646D 		.ascii	"rxdmamode\000"
 4710      616D6F64 
ARM GAS  C:\Users\IDONNO~1\AppData\Local\Temp\ccqkORGP.s 			page 90


 4710      6500
 4711              	.LASF43:
 4712 083d 4932435F 		.ascii	"I2C_TypeDef\000"
 4712      54797065 
 4712      44656600 
 4713              	.LASF205:
 4714 0849 63685468 		.ascii	"chThdSleep\000"
 4714      64536C65 
 4714      657000
 4715              	.LASF68:
 4716 0854 705F7072 		.ascii	"p_preempt\000"
 4716      65656D70 
 4716      7400
 4717              	.LASF164:
 4718 085e 6932636F 		.ascii	"i2copmode_t\000"
 4718      706D6F64 
 4718      655F7400 
 4719              	.LASF179:
 4720 086a 61646472 		.ascii	"addr\000"
 4720      00
 4721              	.LASF174:
 4722 086f 73746174 		.ascii	"state\000"
 4722      6500
 4723              	.LASF94:
 4724 0875 76745F6E 		.ascii	"vt_next\000"
 4724      65787400 
 4725              	.LASF192:
 4726 087d 6932635F 		.ascii	"i2c_running\000"
 4726      72756E6E 
 4726      696E6700 
 4727              	.LASF199:
 4728 0889 5F70616C 		.ascii	"_pal_lld_setgroupmode\000"
 4728      5F6C6C64 
 4728      5F736574 
 4728      67726F75 
 4728      706D6F64 
 4729              	.LASF105:
 4730 089f 63685F73 		.ascii	"ch_system_t\000"
 4730      79737465 
 4730      6D5F7400 
 4731              	.LASF197:
 4732 08ab 73657276 		.ascii	"servos\000"
 4732      6F7300
 4733              	.LASF120:
 4734 08b2 77747472 		.ascii	"wttrp\000"
 4734      7000
 4735              	.LASF130:
 4736 08b8 6D5F6E65 		.ascii	"m_next\000"
 4736      787400
 4737              	.LASF0:
 4738 08bf 7369676E 		.ascii	"signed char\000"
 4738      65642063 
 4738      68617200 
 4739              	.LASF5:
 4740 08cb 73686F72 		.ascii	"short unsigned int\000"
 4740      7420756E 
 4740      7369676E 
ARM GAS  C:\Users\IDONNO~1\AppData\Local\Temp\ccqkORGP.s 			page 91


 4740      65642069 
 4740      6E7400
 4741              	.LASF87:
 4742 08de 725F6374 		.ascii	"r_ctx\000"
 4742      7800
 4743              	.LASF112:
 4744 08e4 73746B61 		.ascii	"stkalign_t\000"
 4744      6C69676E 
 4744      5F7400
 4745              	.LASF71:
 4746 08ef 705F6D73 		.ascii	"p_msgqueue\000"
 4746      67717565 
 4746      756500
 4747              	.LASF22:
 4748 08fa 4A4F4652 		.ascii	"JOFR1\000"
 4748      3100
 4749              	.LASF23:
 4750 0900 4A4F4652 		.ascii	"JOFR2\000"
 4750      3200
 4751              	.LASF24:
 4752 0906 4A4F4652 		.ascii	"JOFR3\000"
 4752      3300
 4753              	.LASF25:
 4754 090c 4A4F4652 		.ascii	"JOFR4\000"
 4754      3400
 4755              	.LASF95:
 4756 0912 76745F70 		.ascii	"vt_prev\000"
 4756      72657600 
 4757              	.LASF196:
 4758 091a 49324344 		.ascii	"I2CD2\000"
 4758      3200
 4759              	.LASF118:
 4760 0920 65786974 		.ascii	"exitcode\000"
 4760      636F6465 
 4760      00
 4761              	.LASF138:
 4762 0929 73656C66 		.ascii	"selfindex\000"
 4762      696E6465 
 4762      7800
 4763              	.LASF200:
 4764 0933 4144435F 		.ascii	"ADC_RegularChannelConfig\000"
 4764      52656775 
 4764      6C617243 
 4764      68616E6E 
 4764      656C436F 
 4765              	.LASF147:
 4766 094c 4C434B52 		.ascii	"LCKR\000"
 4766      00
 4767              	.LASF191:
 4768 0951 68775F74 		.ascii	"hw_try_restore_i2c\000"
 4768      72795F72 
 4768      6573746F 
 4768      72655F69 
 4768      326300
 4769              	.LASF135:
 4770 0964 73747265 		.ascii	"stream\000"
 4770      616D00
ARM GAS  C:\Users\IDONNO~1\AppData\Local\Temp\ccqkORGP.s 			page 92


 4771              		.ident	"GCC: (GNU Tools for ARM Embedded Processors) 5.4.1 20160919 (release) [ARM/embedded-5-bran
ARM GAS  C:\Users\IDONNO~1\AppData\Local\Temp\ccqkORGP.s 			page 93


DEFINED SYMBOLS
                            *ABS*:00000000 hw_oroca.c
C:\Users\IDONNO~1\AppData\Local\Temp\ccqkORGP.s:22     .text.hw_init_gpio:00000000 $t
C:\Users\IDONNO~1\AppData\Local\Temp\ccqkORGP.s:28     .text.hw_init_gpio:00000000 hw_init_gpio
C:\Users\IDONNO~1\AppData\Local\Temp\ccqkORGP.s:243    .text.hw_init_gpio:00000138 $d
C:\Users\IDONNO~1\AppData\Local\Temp\ccqkORGP.s:250    .text.hw_setup_adc_channels:00000000 $t
C:\Users\IDONNO~1\AppData\Local\Temp\ccqkORGP.s:256    .text.hw_setup_adc_channels:00000000 hw_setup_adc_channels
C:\Users\IDONNO~1\AppData\Local\Temp\ccqkORGP.s:369    .text.hw_setup_adc_channels:0000009c $d
C:\Users\IDONNO~1\AppData\Local\Temp\ccqkORGP.s:376    .text.hw_setup_servo_outputs:00000000 $t
C:\Users\IDONNO~1\AppData\Local\Temp\ccqkORGP.s:382    .text.hw_setup_servo_outputs:00000000 hw_setup_servo_outputs
C:\Users\IDONNO~1\AppData\Local\Temp\ccqkORGP.s:429    .text.hw_setup_servo_outputs:00000028 $d
C:\Users\IDONNO~1\AppData\Local\Temp\ccqkORGP.s:435    .text.hw_start_i2c:00000000 $t
C:\Users\IDONNO~1\AppData\Local\Temp\ccqkORGP.s:441    .text.hw_start_i2c:00000000 hw_start_i2c
C:\Users\IDONNO~1\AppData\Local\Temp\ccqkORGP.s:494    .text.hw_start_i2c:00000040 $d
C:\Users\IDONNO~1\AppData\Local\Temp\ccqkORGP.s:502    .text.hw_stop_i2c:00000000 $t
C:\Users\IDONNO~1\AppData\Local\Temp\ccqkORGP.s:508    .text.hw_stop_i2c:00000000 hw_stop_i2c
C:\Users\IDONNO~1\AppData\Local\Temp\ccqkORGP.s:560    .text.hw_stop_i2c:0000003c $d
C:\Users\IDONNO~1\AppData\Local\Temp\ccqkORGP.s:567    .text.hw_try_restore_i2c:00000000 $t
C:\Users\IDONNO~1\AppData\Local\Temp\ccqkORGP.s:573    .text.hw_try_restore_i2c:00000000 hw_try_restore_i2c
C:\Users\IDONNO~1\AppData\Local\Temp\ccqkORGP.s:722    .text.hw_try_restore_i2c:000000b4 $d
C:\Users\IDONNO~1\AppData\Local\Temp\ccqkORGP.s:740    .bss.ADC_Value:00000000 ADC_Value
C:\Users\IDONNO~1\AppData\Local\Temp\ccqkORGP.s:734    .bss.i2c_running:00000000 i2c_running
C:\Users\IDONNO~1\AppData\Local\Temp\ccqkORGP.s:735    .bss.i2c_running:00000000 $d
C:\Users\IDONNO~1\AppData\Local\Temp\ccqkORGP.s:737    .bss.ADC_Value:00000000 $d
C:\Users\IDONNO~1\AppData\Local\Temp\ccqkORGP.s:743    .rodata.i2cfg:00000000 $d
C:\Users\IDONNO~1\AppData\Local\Temp\ccqkORGP.s:747    .rodata.i2cfg:00000000 i2cfg
                     .debug_frame:00000010 $d

UNDEFINED SYMBOLS
RCC_AHB1PeriphClockCmd
_pal_lld_setgroupmode
ADC_RegularChannelConfig
servos
i2cAcquireBus
i2cStart
i2cReleaseBus
I2CD2
i2cStop
chThdSleep
