ARM GAS  C:\Users\IDONNO~1\AppData\Local\Temp\ccqkORGP.s 			page 1


   1              		.syntax unified
   2              		.cpu cortex-m4
   3              		.eabi_attribute 27, 1
   4              		.eabi_attribute 28, 1
   5              		.fpu fpv4-sp-d16
   6              		.eabi_attribute 20, 1
   7              		.eabi_attribute 21, 1
   8              		.eabi_attribute 23, 3
   9              		.eabi_attribute 24, 1
  10              		.eabi_attribute 25, 1
  11              		.eabi_attribute 26, 1
  12              		.eabi_attribute 30, 2
  13              		.eabi_attribute 34, 1
  14              		.eabi_attribute 18, 4
  15              		.thumb
  16              		.syntax unified
  17              		.file	"hw_oroca.c"
  18              		.text
  19              	.Ltext0:
  20              		.cfi_sections	.debug_frame
  21              		.section	.text.hw_init_gpio,"ax",%progbits
  22              		.align	2
  23              		.p2align 4,,15
  24              		.global	hw_init_gpio
  25              		.thumb
  26              		.thumb_func
  27              		.type	hw_init_gpio, %function
  28              	hw_init_gpio:
  29              	.LFB256:
  30              		.file 1 "src/hw_oroca.c"
  31              		.loc 1 48 0
  32              		.cfi_startproc
  33              		@ args = 0, pretend = 0, frame = 0
  34              		@ frame_needed = 0, uses_anonymous_args = 0
  35              		.loc 1 50 0
  36 0000 0121     		movs	r1, #1
  37              		.loc 1 48 0
  38 0002 2DE9F843 		push	{r3, r4, r5, r6, r7, r8, r9, lr}
  39              		.cfi_def_cfa_offset 32
  40              		.cfi_offset 3, -32
  41              		.cfi_offset 4, -28
  42              		.cfi_offset 5, -24
  43              		.cfi_offset 6, -20
  44              		.cfi_offset 7, -16
  45              		.cfi_offset 8, -12
  46              		.cfi_offset 9, -8
  47              		.cfi_offset 14, -4
  48              		.loc 1 50 0
  49 0006 0846     		mov	r0, r1
  50              		.loc 1 55 0
  51 0008 4B4C     		ldr	r4, .L3
  52              		.loc 1 67 0
  53 000a 4C4E     		ldr	r6, .L3+4
  54              		.loc 1 70 0
  55 000c 4C4D     		ldr	r5, .L3+8
  56              		.loc 1 50 0
  57 000e FFF7FEFF 		bl	RCC_AHB1PeriphClockCmd
ARM GAS  C:\Users\IDONNO~1\AppData\Local\Temp\ccqkORGP.s 			page 2


  58              	.LVL0:
  59              		.loc 1 51 0
  60 0012 0121     		movs	r1, #1
  61 0014 0220     		movs	r0, #2
  62 0016 FFF7FEFF 		bl	RCC_AHB1PeriphClockCmd
  63              	.LVL1:
  64              		.loc 1 52 0
  65 001a 0121     		movs	r1, #1
  66 001c 0420     		movs	r0, #4
  67 001e FFF7FEFF 		bl	RCC_AHB1PeriphClockCmd
  68              	.LVL2:
  69              		.loc 1 58 0
  70 0022 2027     		movs	r7, #32
  71              		.loc 1 55 0
  72 0024 2046     		mov	r0, r4
  73 0026 1922     		movs	r2, #25
  74 0028 1021     		movs	r1, #16
  75 002a FFF7FEFF 		bl	_pal_lld_setgroupmode
  76              	.LVL3:
  77              		.loc 1 64 0
  78 002e 4FF48069 		mov	r9, #1024
  79              		.loc 1 56 0
  80 0032 2046     		mov	r0, r4
  81 0034 3946     		mov	r1, r7
  82              		.loc 1 59 0
  83 0036 4FF01008 		mov	r8, #16
  84              		.loc 1 56 0
  85 003a 1922     		movs	r2, #25
  86 003c FFF7FEFF 		bl	_pal_lld_setgroupmode
  87              	.LVL4:
  88              		.loc 1 58 0
  89 0040 6783     		strh	r7, [r4, #26]	@ movhi
  90              		.loc 1 63 0
  91 0042 2046     		mov	r0, r4
  92 0044 4946     		mov	r1, r9
  93              		.loc 1 59 0
  94 0046 A4F81A80 		strh	r8, [r4, #26]	@ movhi
  95              		.loc 1 63 0
  96 004a 1922     		movs	r2, #25
  97 004c FFF7FEFF 		bl	_pal_lld_setgroupmode
  98              	.LVL5:
  99              		.loc 1 67 0
 100 0050 3046     		mov	r0, r6
 101              		.loc 1 64 0
 102 0052 A4F81A90 		strh	r9, [r4, #26]	@ movhi
 103              		.loc 1 67 0
 104 0056 1922     		movs	r2, #25
 105 0058 4FF48051 		mov	r1, #4096
 106 005c FFF7FEFF 		bl	_pal_lld_setgroupmode
 107              	.LVL6:
 108              		.loc 1 70 0
 109 0060 2846     		mov	r0, r5
 110 0062 9A22     		movs	r2, #154
 111 0064 4FF48071 		mov	r1, #256
 112 0068 FFF7FEFF 		bl	_pal_lld_setgroupmode
 113              	.LVL7:
 114              		.loc 1 71 0
ARM GAS  C:\Users\IDONNO~1\AppData\Local\Temp\ccqkORGP.s 			page 3


 115 006c 2846     		mov	r0, r5
 116 006e 9A22     		movs	r2, #154
 117 0070 4FF40071 		mov	r1, #512
 118 0074 FFF7FEFF 		bl	_pal_lld_setgroupmode
 119              	.LVL8:
 120              		.loc 1 72 0
 121 0078 4946     		mov	r1, r9
 122 007a 2846     		mov	r0, r5
 123 007c 9A22     		movs	r2, #154
 124 007e FFF7FEFF 		bl	_pal_lld_setgroupmode
 125              	.LVL9:
 126              		.loc 1 74 0
 127 0082 3046     		mov	r0, r6
 128 0084 9A22     		movs	r2, #154
 129 0086 4FF40051 		mov	r1, #8192
 130 008a FFF7FEFF 		bl	_pal_lld_setgroupmode
 131              	.LVL10:
 132              		.loc 1 75 0
 133 008e 3046     		mov	r0, r6
 134 0090 9A22     		movs	r2, #154
 135 0092 4FF48041 		mov	r1, #16384
 136 0096 FFF7FEFF 		bl	_pal_lld_setgroupmode
 137              	.LVL11:
 138              		.loc 1 76 0
 139 009a 3046     		mov	r0, r6
 140 009c 9A22     		movs	r2, #154
 141 009e 4FF40041 		mov	r1, #32768
 142 00a2 FFF7FEFF 		bl	_pal_lld_setgroupmode
 143              	.LVL12:
 144              		.loc 1 84 0
 145 00a6 3A46     		mov	r2, r7
 146 00a8 2046     		mov	r0, r4
 147 00aa 4FF48051 		mov	r1, #4096
 148 00ae FFF7FEFF 		bl	_pal_lld_setgroupmode
 149              	.LVL13:
 150              		.loc 1 87 0
 151 00b2 2846     		mov	r0, r5
 152 00b4 0322     		movs	r2, #3
 153 00b6 0121     		movs	r1, #1
 154 00b8 FFF7FEFF 		bl	_pal_lld_setgroupmode
 155              	.LVL14:
 156              		.loc 1 88 0
 157 00bc 2846     		mov	r0, r5
 158 00be 0322     		movs	r2, #3
 159 00c0 0221     		movs	r1, #2
 160 00c2 FFF7FEFF 		bl	_pal_lld_setgroupmode
 161              	.LVL15:
 162              		.loc 1 89 0
 163 00c6 2846     		mov	r0, r5
 164 00c8 0322     		movs	r2, #3
 165 00ca 0421     		movs	r1, #4
 166 00cc FFF7FEFF 		bl	_pal_lld_setgroupmode
 167              	.LVL16:
 168              		.loc 1 90 0
 169 00d0 2846     		mov	r0, r5
 170 00d2 0322     		movs	r2, #3
 171 00d4 0821     		movs	r1, #8
ARM GAS  C:\Users\IDONNO~1\AppData\Local\Temp\ccqkORGP.s 			page 4


 172 00d6 FFF7FEFF 		bl	_pal_lld_setgroupmode
 173              	.LVL17:
 174              		.loc 1 91 0
 175 00da 4146     		mov	r1, r8
 176 00dc 2846     		mov	r0, r5
 177 00de 0322     		movs	r2, #3
 178 00e0 FFF7FEFF 		bl	_pal_lld_setgroupmode
 179              	.LVL18:
 180              		.loc 1 92 0
 181 00e4 3946     		mov	r1, r7
 182 00e6 2846     		mov	r0, r5
 183 00e8 0322     		movs	r2, #3
 184 00ea FFF7FEFF 		bl	_pal_lld_setgroupmode
 185              	.LVL19:
 186              		.loc 1 93 0
 187 00ee 2846     		mov	r0, r5
 188 00f0 0322     		movs	r2, #3
 189 00f2 4021     		movs	r1, #64
 190 00f4 FFF7FEFF 		bl	_pal_lld_setgroupmode
 191              	.LVL20:
 192              		.loc 1 95 0
 193 00f8 3046     		mov	r0, r6
 194 00fa 0322     		movs	r2, #3
 195 00fc 0121     		movs	r1, #1
 196 00fe FFF7FEFF 		bl	_pal_lld_setgroupmode
 197              	.LVL21:
 198              		.loc 1 96 0
 199 0102 3046     		mov	r0, r6
 200 0104 0322     		movs	r2, #3
 201 0106 0221     		movs	r1, #2
 202 0108 FFF7FEFF 		bl	_pal_lld_setgroupmode
 203              	.LVL22:
 204              		.loc 1 98 0
 205 010c 2046     		mov	r0, r4
 206 010e 0322     		movs	r2, #3
 207 0110 0121     		movs	r1, #1
 208 0112 FFF7FEFF 		bl	_pal_lld_setgroupmode
 209              	.LVL23:
 210              		.loc 1 99 0
 211 0116 2046     		mov	r0, r4
 212 0118 0322     		movs	r2, #3
 213 011a 0221     		movs	r1, #2
 214 011c FFF7FEFF 		bl	_pal_lld_setgroupmode
 215              	.LVL24:
 216              		.loc 1 100 0
 217 0120 2046     		mov	r0, r4
 218 0122 0322     		movs	r2, #3
 219 0124 0421     		movs	r1, #4
 220 0126 FFF7FEFF 		bl	_pal_lld_setgroupmode
 221              	.LVL25:
 222              		.loc 1 101 0
 223 012a 2046     		mov	r0, r4
 224 012c 0322     		movs	r2, #3
 225 012e 0821     		movs	r1, #8
 226              		.loc 1 102 0
 227 0130 BDE8F843 		pop	{r3, r4, r5, r6, r7, r8, r9, lr}
 228              		.cfi_restore 14
ARM GAS  C:\Users\IDONNO~1\AppData\Local\Temp\ccqkORGP.s 			page 5


 229              		.cfi_restore 9
 230              		.cfi_restore 8
 231              		.cfi_restore 7
 232              		.cfi_restore 6
 233              		.cfi_restore 5
 234              		.cfi_restore 4
 235              		.cfi_restore 3
 236              		.cfi_def_cfa_offset 0
 237              		.loc 1 101 0
 238 0134 FFF7FEBF 		b	_pal_lld_setgroupmode
 239              	.LVL26:
 240              	.L4:
 241              		.align	2
 242              	.L3:
 243 0138 00080240 		.word	1073874944
 244 013c 00040240 		.word	1073873920
 245 0140 00000240 		.word	1073872896
 246              		.cfi_endproc
 247              	.LFE256:
 248              		.size	hw_init_gpio, .-hw_init_gpio
 249              		.section	.text.hw_setup_adc_channels,"ax",%progbits
 250              		.align	2
 251              		.p2align 4,,15
 252              		.global	hw_setup_adc_channels
 253              		.thumb
 254              		.thumb_func
 255              		.type	hw_setup_adc_channels, %function
 256              	hw_setup_adc_channels:
 257              	.LFB257:
 258              		.loc 1 104 0
 259              		.cfi_startproc
 260              		@ args = 0, pretend = 0, frame = 0
 261              		@ frame_needed = 0, uses_anonymous_args = 0
 262 0000 70B5     		push	{r4, r5, r6, lr}
 263              		.cfi_def_cfa_offset 16
 264              		.cfi_offset 4, -16
 265              		.cfi_offset 5, -12
 266              		.cfi_offset 6, -8
 267              		.cfi_offset 14, -4
 268              		.loc 1 106 0
 269 0002 264E     		ldr	r6, .L7
 270              		.loc 1 112 0
 271 0004 264D     		ldr	r5, .L7+4
 272              		.loc 1 118 0
 273 0006 274C     		ldr	r4, .L7+8
 274              		.loc 1 106 0
 275 0008 0123     		movs	r3, #1
 276 000a 3046     		mov	r0, r6
 277 000c 1A46     		mov	r2, r3
 278 000e 0021     		movs	r1, #0
 279 0010 FFF7FEFF 		bl	ADC_RegularChannelConfig
 280              	.LVL27:
 281              		.loc 1 107 0
 282 0014 3046     		mov	r0, r6
 283 0016 0123     		movs	r3, #1
 284 0018 0222     		movs	r2, #2
 285 001a 0821     		movs	r1, #8
ARM GAS  C:\Users\IDONNO~1\AppData\Local\Temp\ccqkORGP.s 			page 6


 286 001c FFF7FEFF 		bl	ADC_RegularChannelConfig
 287              	.LVL28:
 288              		.loc 1 108 0
 289 0020 3046     		mov	r0, r6
 290 0022 0123     		movs	r3, #1
 291 0024 0322     		movs	r2, #3
 292 0026 1121     		movs	r1, #17
 293 0028 FFF7FEFF 		bl	ADC_RegularChannelConfig
 294              	.LVL29:
 295              		.loc 1 109 0
 296 002c 0422     		movs	r2, #4
 297 002e 3046     		mov	r0, r6
 298 0030 1146     		mov	r1, r2
 299 0032 0123     		movs	r3, #1
 300 0034 FFF7FEFF 		bl	ADC_RegularChannelConfig
 301              	.LVL30:
 302              		.loc 1 112 0
 303 0038 0123     		movs	r3, #1
 304 003a 2846     		mov	r0, r5
 305 003c 1A46     		mov	r2, r3
 306 003e 1946     		mov	r1, r3
 307 0040 FFF7FEFF 		bl	ADC_RegularChannelConfig
 308              	.LVL31:
 309              		.loc 1 113 0
 310 0044 2846     		mov	r0, r5
 311 0046 0123     		movs	r3, #1
 312 0048 0222     		movs	r2, #2
 313 004a 0921     		movs	r1, #9
 314 004c FFF7FEFF 		bl	ADC_RegularChannelConfig
 315              	.LVL32:
 316              		.loc 1 114 0
 317 0050 2846     		mov	r0, r5
 318 0052 0123     		movs	r3, #1
 319 0054 0322     		movs	r2, #3
 320 0056 0621     		movs	r1, #6
 321 0058 FFF7FEFF 		bl	ADC_RegularChannelConfig
 322              	.LVL33:
 323              		.loc 1 115 0
 324 005c 2846     		mov	r0, r5
 325 005e 0123     		movs	r3, #1
 326 0060 0422     		movs	r2, #4
 327 0062 0521     		movs	r1, #5
 328 0064 FFF7FEFF 		bl	ADC_RegularChannelConfig
 329              	.LVL34:
 330              		.loc 1 118 0
 331 0068 0123     		movs	r3, #1
 332 006a 2046     		mov	r0, r4
 333 006c 1A46     		mov	r2, r3
 334 006e 0221     		movs	r1, #2
 335 0070 FFF7FEFF 		bl	ADC_RegularChannelConfig
 336              	.LVL35:
 337              		.loc 1 119 0
 338 0074 2046     		mov	r0, r4
 339 0076 0123     		movs	r3, #1
 340 0078 0222     		movs	r2, #2
 341 007a 0321     		movs	r1, #3
 342 007c FFF7FEFF 		bl	ADC_RegularChannelConfig
ARM GAS  C:\Users\IDONNO~1\AppData\Local\Temp\ccqkORGP.s 			page 7


 343              	.LVL36:
 344              		.loc 1 120 0
 345 0080 2046     		mov	r0, r4
 346 0082 0123     		movs	r3, #1
 347 0084 0322     		movs	r2, #3
 348 0086 0C21     		movs	r1, #12
 349 0088 FFF7FEFF 		bl	ADC_RegularChannelConfig
 350              	.LVL37:
 351              		.loc 1 121 0
 352 008c 2046     		mov	r0, r4
 353 008e 0123     		movs	r3, #1
 354 0090 0422     		movs	r2, #4
 355 0092 0321     		movs	r1, #3
 356              		.loc 1 128 0
 357 0094 BDE87040 		pop	{r4, r5, r6, lr}
 358              		.cfi_restore 14
 359              		.cfi_restore 6
 360              		.cfi_restore 5
 361              		.cfi_restore 4
 362              		.cfi_def_cfa_offset 0
 363              		.loc 1 121 0
 364 0098 FFF7FEBF 		b	ADC_RegularChannelConfig
 365              	.LVL38:
 366              	.L8:
 367              		.align	2
 368              	.L7:
 369 009c 00200140 		.word	1073815552
 370 00a0 00210140 		.word	1073815808
 371 00a4 00220140 		.word	1073816064
 372              		.cfi_endproc
 373              	.LFE257:
 374              		.size	hw_setup_adc_channels, .-hw_setup_adc_channels
 375              		.section	.text.hw_setup_servo_outputs,"ax",%progbits
 376              		.align	2
 377              		.p2align 4,,15
 378              		.global	hw_setup_servo_outputs
 379              		.thumb
 380              		.thumb_func
 381              		.type	hw_setup_servo_outputs, %function
 382              	hw_setup_servo_outputs:
 383              	.LFB258:
 384              		.loc 1 130 0
 385              		.cfi_startproc
 386              		@ args = 0, pretend = 0, frame = 0
 387              		@ frame_needed = 0, uses_anonymous_args = 0
 388 0000 38B5     		push	{r3, r4, r5, lr}
 389              		.cfi_def_cfa_offset 16
 390              		.cfi_offset 3, -16
 391              		.cfi_offset 4, -12
 392              		.cfi_offset 5, -8
 393              		.cfi_offset 14, -4
 394              		.loc 1 132 0
 395 0002 0121     		movs	r1, #1
 396 0004 0220     		movs	r0, #2
 397 0006 FFF7FEFF 		bl	RCC_AHB1PeriphClockCmd
 398              	.LVL39:
 399              		.loc 1 135 0
ARM GAS  C:\Users\IDONNO~1\AppData\Local\Temp\ccqkORGP.s 			page 8


 400 000a 074B     		ldr	r3, .L11
 401 000c 0749     		ldr	r1, .L11+4
 402 000e 5960     		str	r1, [r3, #4]
 403              		.loc 1 137 0
 404 0010 0022     		movs	r2, #0
 405              		.loc 1 136 0
 406 0012 0525     		movs	r5, #5
 407              		.loc 1 138 0
 408 0014 8024     		movs	r4, #128
 409              		.loc 1 141 0
 410 0016 0420     		movs	r0, #4
 411              		.loc 1 136 0
 412 0018 9D60     		str	r5, [r3, #8]
 413              		.loc 1 137 0
 414 001a 9A70     		strb	r2, [r3, #2]
 415              		.loc 1 138 0
 416 001c 1C80     		strh	r4, [r3]	@ movhi
 417              		.loc 1 140 0
 418 001e 1961     		str	r1, [r3, #16]
 419              		.loc 1 141 0
 420 0020 5861     		str	r0, [r3, #20]
 421              		.loc 1 142 0
 422 0022 9A73     		strb	r2, [r3, #14]
 423              		.loc 1 143 0
 424 0024 9A81     		strh	r2, [r3, #12]	@ movhi
 425 0026 38BD     		pop	{r3, r4, r5, pc}
 426              	.L12:
 427              		.align	2
 428              	.L11:
 429 0028 00000000 		.word	servos
 430 002c 00040240 		.word	1073873920
 431              		.cfi_endproc
 432              	.LFE258:
 433              		.size	hw_setup_servo_outputs, .-hw_setup_servo_outputs
 434              		.section	.text.hw_start_i2c,"ax",%progbits
 435              		.align	2
 436              		.p2align 4,,15
 437              		.global	hw_start_i2c
 438              		.thumb
 439              		.thumb_func
 440              		.type	hw_start_i2c, %function
 441              	hw_start_i2c:
 442              	.LFB259:
 443              		.loc 1 146 0
 444              		.cfi_startproc
 445              		@ args = 0, pretend = 0, frame = 0
 446              		@ frame_needed = 0, uses_anonymous_args = 0
 447 0000 10B5     		push	{r4, lr}
 448              		.cfi_def_cfa_offset 8
 449              		.cfi_offset 4, -8
 450              		.cfi_offset 14, -4
 451              		.loc 1 149 0
 452 0002 0F4C     		ldr	r4, .L17
 453              		.loc 1 147 0
 454 0004 0F48     		ldr	r0, .L17+4
 455 0006 FFF7FEFF 		bl	i2cAcquireBus
 456              	.LVL40:
ARM GAS  C:\Users\IDONNO~1\AppData\Local\Temp\ccqkORGP.s 			page 9


 457              		.loc 1 149 0
 458 000a 2378     		ldrb	r3, [r4]	@ zero_extendqisi2
 459 000c 9BB9     		cbnz	r3, .L14
 460              		.loc 1 150 0
 461 000e 40F22E22 		movw	r2, #558
 462 0012 4FF48061 		mov	r1, #1024
 463 0016 0C48     		ldr	r0, .L17+8
 464 0018 FFF7FEFF 		bl	_pal_lld_setgroupmode
 465              	.LVL41:
 466              		.loc 1 151 0
 467 001c 40F22E22 		movw	r2, #558
 468 0020 4FF40061 		mov	r1, #2048
 469 0024 0848     		ldr	r0, .L17+8
 470 0026 FFF7FEFF 		bl	_pal_lld_setgroupmode
 471              	.LVL42:
 472              		.loc 1 153 0
 473 002a 0849     		ldr	r1, .L17+12
 474 002c 0548     		ldr	r0, .L17+4
 475 002e FFF7FEFF 		bl	i2cStart
 476              	.LVL43:
 477              		.loc 1 154 0
 478 0032 0123     		movs	r3, #1
 479 0034 2370     		strb	r3, [r4]
 480              	.L14:
 481              		.loc 1 157 0
 482 0036 0348     		ldr	r0, .L17+4
 483              		.loc 1 158 0
 484 0038 BDE81040 		pop	{r4, lr}
 485              		.cfi_restore 14
 486              		.cfi_restore 4
 487              		.cfi_def_cfa_offset 0
 488              		.loc 1 157 0
 489 003c FFF7FEBF 		b	i2cReleaseBus
 490              	.LVL44:
 491              	.L18:
 492              		.align	2
 493              	.L17:
 494 0040 00000000 		.word	.LANCHOR0
 495 0044 00000000 		.word	I2CD2
 496 0048 00040240 		.word	1073873920
 497 004c 00000000 		.word	.LANCHOR1
 498              		.cfi_endproc
 499              	.LFE259:
 500              		.size	hw_start_i2c, .-hw_start_i2c
 501              		.section	.text.hw_stop_i2c,"ax",%progbits
 502              		.align	2
 503              		.p2align 4,,15
 504              		.global	hw_stop_i2c
 505              		.thumb
 506              		.thumb_func
 507              		.type	hw_stop_i2c, %function
 508              	hw_stop_i2c:
 509              	.LFB260:
 510              		.loc 1 160 0
 511              		.cfi_startproc
 512              		@ args = 0, pretend = 0, frame = 0
 513              		@ frame_needed = 0, uses_anonymous_args = 0
ARM GAS  C:\Users\IDONNO~1\AppData\Local\Temp\ccqkORGP.s 			page 10


 514 0000 10B5     		push	{r4, lr}
 515              		.cfi_def_cfa_offset 8
 516              		.cfi_offset 4, -8
 517              		.cfi_offset 14, -4
 518              		.loc 1 163 0
 519 0002 0E4C     		ldr	r4, .L25
 520              		.loc 1 161 0
 521 0004 0E48     		ldr	r0, .L25+4
 522 0006 FFF7FEFF 		bl	i2cAcquireBus
 523              	.LVL45:
 524              		.loc 1 163 0
 525 000a 2378     		ldrb	r3, [r4]	@ zero_extendqisi2
 526 000c 83B1     		cbz	r3, .L20
 527              		.loc 1 164 0
 528 000e 0022     		movs	r2, #0
 529 0010 4FF48061 		mov	r1, #1024
 530 0014 0B48     		ldr	r0, .L25+8
 531 0016 FFF7FEFF 		bl	_pal_lld_setgroupmode
 532              	.LVL46:
 533              		.loc 1 165 0
 534 001a 0022     		movs	r2, #0
 535 001c 4FF40061 		mov	r1, #2048
 536 0020 0848     		ldr	r0, .L25+8
 537 0022 FFF7FEFF 		bl	_pal_lld_setgroupmode
 538              	.LVL47:
 539              		.loc 1 167 0
 540 0026 0648     		ldr	r0, .L25+4
 541 0028 FFF7FEFF 		bl	i2cStop
 542              	.LVL48:
 543              		.loc 1 168 0
 544 002c 0023     		movs	r3, #0
 545 002e 2370     		strb	r3, [r4]
 546              	.L20:
 547              		.loc 1 172 0
 548 0030 0348     		ldr	r0, .L25+4
 549              		.loc 1 173 0
 550 0032 BDE81040 		pop	{r4, lr}
 551              		.cfi_restore 14
 552              		.cfi_restore 4
 553              		.cfi_def_cfa_offset 0
 554              		.loc 1 172 0
 555 0036 FFF7FEBF 		b	i2cReleaseBus
 556              	.LVL49:
 557              	.L26:
 558 003a 00BF     		.align	2
 559              	.L25:
 560 003c 00000000 		.word	.LANCHOR0
 561 0040 00000000 		.word	I2CD2
 562 0044 00040240 		.word	1073873920
 563              		.cfi_endproc
 564              	.LFE260:
 565              		.size	hw_stop_i2c, .-hw_stop_i2c
 566              		.section	.text.hw_try_restore_i2c,"ax",%progbits
 567              		.align	2
 568              		.p2align 4,,15
 569              		.global	hw_try_restore_i2c
 570              		.thumb
ARM GAS  C:\Users\IDONNO~1\AppData\Local\Temp\ccqkORGP.s 			page 11


 571              		.thumb_func
 572              		.type	hw_try_restore_i2c, %function
 573              	hw_try_restore_i2c:
 574              	.LFB261:
 575              		.loc 1 178 0
 576              		.cfi_startproc
 577              		@ args = 0, pretend = 0, frame = 0
 578              		@ frame_needed = 0, uses_anonymous_args = 0
 579 0000 2DE9F843 		push	{r3, r4, r5, r6, r7, r8, r9, lr}
 580              		.cfi_def_cfa_offset 32
 581              		.cfi_offset 3, -32
 582              		.cfi_offset 4, -28
 583              		.cfi_offset 5, -24
 584              		.cfi_offset 6, -20
 585              		.cfi_offset 7, -16
 586              		.cfi_offset 8, -12
 587              		.cfi_offset 9, -8
 588              		.cfi_offset 14, -4
 589              		.loc 1 179 0
 590 0004 2B4B     		ldr	r3, .L33
 591 0006 1B78     		ldrb	r3, [r3]	@ zero_extendqisi2
 592 0008 0BB9     		cbnz	r3, .L32
 593 000a BDE8F883 		pop	{r3, r4, r5, r6, r7, r8, r9, pc}
 594              	.L32:
 595              		.loc 1 182 0
 596 000e 2A4D     		ldr	r5, .L33+4
 597              		.loc 1 180 0
 598 0010 2A48     		ldr	r0, .L33+8
 599 0012 FFF7FEFF 		bl	i2cAcquireBus
 600              	.LVL50:
 601              		.loc 1 182 0
 602 0016 2846     		mov	r0, r5
 603 0018 2C22     		movs	r2, #44
 604 001a 4FF48061 		mov	r1, #1024
 605 001e FFF7FEFF 		bl	_pal_lld_setgroupmode
 606              	.LVL51:
 607              		.loc 1 183 0
 608 0022 2846     		mov	r0, r5
 609 0024 2C22     		movs	r2, #44
 610 0026 4FF40061 		mov	r1, #2048
 611 002a FFF7FEFF 		bl	_pal_lld_setgroupmode
 612              	.LVL52:
 613              		.loc 1 185 0
 614 002e 4FF48067 		mov	r7, #1024
 615              		.loc 1 186 0
 616 0032 4FF40063 		mov	r3, #2048
 617              		.loc 1 185 0
 618 0036 2F83     		strh	r7, [r5, #24]	@ movhi
 619              		.loc 1 188 0
 620 0038 0120     		movs	r0, #1
 621              		.loc 1 186 0
 622 003a 2B83     		strh	r3, [r5, #24]	@ movhi
 623              		.loc 1 188 0
 624 003c FFF7FEFF 		bl	chThdSleep
 625              	.LVL53:
 626              	.LBB2:
 627              		.loc 1 191 0
ARM GAS  C:\Users\IDONNO~1\AppData\Local\Temp\ccqkORGP.s 			page 12


 628 0040 B946     		mov	r9, r7	@ movhi
 629              	.LBE2:
 630              		.loc 1 188 0
 631 0042 1024     		movs	r4, #16
 632              	.LVL54:
 633              	.L29:
 634              	.LBB3:
 635              		.loc 1 192 0 discriminator 3
 636 0044 0120     		movs	r0, #1
 637              		.loc 1 191 0 discriminator 3
 638 0046 A5F81A90 		strh	r9, [r5, #26]	@ movhi
 639              		.loc 1 192 0 discriminator 3
 640 004a FFF7FEFF 		bl	chThdSleep
 641              	.LVL55:
 642              		.loc 1 193 0 discriminator 3
 643 004e 2F83     		strh	r7, [r5, #24]	@ movhi
 644              		.loc 1 194 0 discriminator 3
 645 0050 0120     		movs	r0, #1
 646 0052 FFF7FEFF 		bl	chThdSleep
 647              	.LVL56:
 648              		.loc 1 190 0 discriminator 3
 649 0056 013C     		subs	r4, r4, #1
 650              	.LVL57:
 651              		.loc 1 191 0 discriminator 3
 652 0058 174E     		ldr	r6, .L33+4
 653 005a 4FF48068 		mov	r8, #1024
 654              		.loc 1 190 0 discriminator 3
 655 005e F1D1     		bne	.L29
 656              	.LBE3:
 657              		.loc 1 198 0
 658 0060 4FF40065 		mov	r5, #2048
 659 0064 7583     		strh	r5, [r6, #26]	@ movhi
 660              		.loc 1 199 0
 661 0066 0120     		movs	r0, #1
 662 0068 FFF7FEFF 		bl	chThdSleep
 663              	.LVL58:
 664              		.loc 1 200 0
 665 006c A6F81A80 		strh	r8, [r6, #26]	@ movhi
 666              		.loc 1 201 0
 667 0070 0120     		movs	r0, #1
 668 0072 FFF7FEFF 		bl	chThdSleep
 669              	.LVL59:
 670              		.loc 1 202 0
 671 0076 A6F81880 		strh	r8, [r6, #24]	@ movhi
 672              		.loc 1 203 0
 673 007a 0120     		movs	r0, #1
 674 007c FFF7FEFF 		bl	chThdSleep
 675              	.LVL60:
 676              		.loc 1 209 0
 677 0080 0E4C     		ldr	r4, .L33+8
 678              	.LVL61:
 679              		.loc 1 204 0
 680 0082 3583     		strh	r5, [r6, #24]	@ movhi
 681              		.loc 1 206 0
 682 0084 4146     		mov	r1, r8
 683 0086 3046     		mov	r0, r6
 684 0088 40F22E22 		movw	r2, #558
ARM GAS  C:\Users\IDONNO~1\AppData\Local\Temp\ccqkORGP.s 			page 13


 685 008c FFF7FEFF 		bl	_pal_lld_setgroupmode
 686              	.LVL62:
 687              		.loc 1 207 0
 688 0090 2946     		mov	r1, r5
 689 0092 3046     		mov	r0, r6
 690 0094 40F22E22 		movw	r2, #558
 691 0098 FFF7FEFF 		bl	_pal_lld_setgroupmode
 692              	.LVL63:
 693              		.loc 1 209 0
 694 009c 0123     		movs	r3, #1
 695              		.loc 1 210 0
 696 009e 2046     		mov	r0, r4
 697 00a0 0749     		ldr	r1, .L33+12
 698              		.loc 1 209 0
 699 00a2 2370     		strb	r3, [r4]
 700              		.loc 1 210 0
 701 00a4 FFF7FEFF 		bl	i2cStart
 702              	.LVL64:
 703              		.loc 1 212 0
 704 00a8 2046     		mov	r0, r4
 705              		.loc 1 214 0
 706 00aa BDE8F843 		pop	{r3, r4, r5, r6, r7, r8, r9, lr}
 707              		.cfi_restore 14
 708              		.cfi_restore 9
 709              		.cfi_restore 8
 710              		.cfi_restore 7
 711              		.cfi_restore 6
 712              		.cfi_restore 5
 713              		.cfi_restore 4
 714              		.cfi_restore 3
 715              		.cfi_def_cfa_offset 0
 716              		.loc 1 212 0
 717 00ae FFF7FEBF 		b	i2cReleaseBus
 718              	.LVL65:
 719              	.L34:
 720 00b2 00BF     		.align	2
 721              	.L33:
 722 00b4 00000000 		.word	.LANCHOR0
 723 00b8 00040240 		.word	1073873920
 724 00bc 00000000 		.word	I2CD2
 725 00c0 00000000 		.word	.LANCHOR1
 726              		.cfi_endproc
 727              	.LFE261:
 728              		.size	hw_try_restore_i2c, .-hw_try_restore_i2c
 729              		.global	ADC_Value
 730              		.section	.bss.i2c_running,"aw",%nobits
 731              		.set	.LANCHOR0,. + 0
 732              		.type	i2c_running, %object
 733              		.size	i2c_running, 1
 734              	i2c_running:
 735 0000 00       		.space	1
 736              		.section	.bss.ADC_Value,"aw",%nobits
 737              		.align	2
 738              		.type	ADC_Value, %object
 739              		.size	ADC_Value, 24
 740              	ADC_Value:
 741 0000 00000000 		.space	24
ARM GAS  C:\Users\IDONNO~1\AppData\Local\Temp\ccqkORGP.s 			page 14


 741      00000000 
 741      00000000 
 741      00000000 
 741      00000000 
 742              		.section	.rodata.i2cfg,"a",%progbits
 743              		.align	2
 744              		.set	.LANCHOR1,. + 0
 745              		.type	i2cfg, %object
 746              		.size	i2cfg, 12
 747              	i2cfg:
 748 0000 01       		.byte	1
 749 0001 000000   		.space	3
 750 0004 A0860100 		.word	100000
 751 0008 01       		.byte	1
 752 0009 000000   		.space	3
 753              		.text
 754              	.Letext0:
 755              		.file 2 "c:\\program files (x86)\\gnu tools arm embedded\\5.4 2016q3\\arm-none-eabi\\include\\mach
 756              		.file 3 "c:\\program files (x86)\\gnu tools arm embedded\\5.4 2016q3\\arm-none-eabi\\include\\sys\
 757              		.file 4 "src/ChibiOS_3.0.2/os/ext/CMSIS/ST/stm32f407xx.h"
 758              		.file 5 "c:\\program files (x86)\\gnu tools arm embedded\\5.4 2016q3\\lib\\gcc\\arm-none-eabi\\5.4
 759              		.file 6 "src/ChibiOS_3.0.2/os/rt/ports/ARMCMx/compilers/GCC/chtypes.h"
 760              		.file 7 "src/ChibiOS_3.0.2/os/rt/include/chsystypes.h"
 761              		.file 8 "src/ChibiOS_3.0.2/os/rt/include/chschd.h"
 762              		.file 9 "src/ChibiOS_3.0.2/os/rt/ports/ARMCMx/chcore.h"
 763              		.file 10 "src/ChibiOS_3.0.2/os/rt/ports/ARMCMx/chcore_v7m.h"
 764              		.file 11 "src/ChibiOS_3.0.2/os/rt/include/chtm.h"
 765              		.file 12 "src/ChibiOS_3.0.2/os/rt/include/chsem.h"
 766              		.file 13 "src/ChibiOS_3.0.2/os/rt/include/chmtx.h"
 767              		.file 14 "src/ChibiOS_3.0.2/os/hal/ports/STM32/STM32F4xx/stm32_dma.h"
 768              		.file 15 "src/ChibiOS_3.0.2/os/hal/ports/STM32/LLD/GPIOv2/pal_lld.h"
 769              		.file 16 "src/ChibiOS_3.0.2/os/ext/CMSIS/ST/stm32f4xx.h"
 770              		.file 17 "src/ChibiOS_3.0.2/os/hal/include/i2c.h"
 771              		.file 18 "src/ChibiOS_3.0.2/os/hal/ports/STM32/LLD/I2Cv1/i2c_lld.h"
 772              		.file 19 "src/core/servo.h"
 773              		.file 20 "src/ChibiOS_3.0.2/os/ext/CMSIS/include/core_cm4.h"
 774              		.file 21 "src/ChibiOS_3.0.2/ext/stdperiph_stm32f4/inc/stm32f4xx_rcc.h"
 775              		.file 22 "src/ChibiOS_3.0.2/ext/stdperiph_stm32f4/inc/stm32f4xx_adc.h"
 776              		.file 23 "src/ChibiOS_3.0.2/os/rt/include/chthreads.h"