ARM GAS  C:\Users\USER\AppData\Local\Temp\cc2BFfXK.s 			page 1


   1              		.cpu cortex-m4
   2              		.eabi_attribute 27, 1
   3              		.eabi_attribute 28, 1
   4              		.eabi_attribute 20, 1
   5              		.eabi_attribute 21, 1
   6              		.eabi_attribute 23, 3
   7              		.eabi_attribute 24, 1
   8              		.eabi_attribute 25, 1
   9              		.eabi_attribute 26, 1
  10              		.eabi_attribute 30, 2
  11              		.eabi_attribute 34, 1
  12              		.eabi_attribute 18, 4
  13              		.file	"i2c.c"
  14              		.text
  15              	.Ltext0:
  16              		.cfi_sections	.debug_frame
  17              		.section	.text.i2cInit,"ax",%progbits
  18              		.align	1
  19              		.p2align 4,,15
  20              		.global	i2cInit
  21              		.arch armv7e-m
  22              		.syntax unified
  23              		.thumb
  24              		.thumb_func
  25              		.fpu fpv4-sp-d16
  26              		.type	i2cInit, %function
  27              	i2cInit:
  28              	.LFB256:
  29              		.file 1 "src/ChibiOS_3.0.2/os/hal/src/i2c.c"
  30              		.loc 1 59 20 view -0
  31              		.cfi_startproc
  32              		@ args = 0, pretend = 0, frame = 0
  33              		@ frame_needed = 0, uses_anonymous_args = 0
  34              		@ link register save eliminated.
  35              		.loc 1 61 3 view .LVU1
  36 0000 FFF7FEBF 		b	i2c_lld_init
  37              	.LVL0:
  38              		.cfi_endproc
  39              	.LFE256:
  40              		.size	i2cInit, .-i2cInit
  41              		.section	.text.i2cObjectInit,"ax",%progbits
  42              		.align	1
  43              		.p2align 4,,15
  44              		.global	i2cObjectInit
  45              		.syntax unified
  46              		.thumb
  47              		.thumb_func
  48              		.fpu fpv4-sp-d16
  49              		.type	i2cObjectInit, %function
  50              	i2cObjectInit:
  51              	.LVL1:
  52              	.LFB257:
  53              		.loc 1 71 37 view -0
  54              		.cfi_startproc
  55              		@ args = 0, pretend = 0, frame = 0
  56              		@ frame_needed = 0, uses_anonymous_args = 0
  57              		@ link register save eliminated.
ARM GAS  C:\Users\USER\AppData\Local\Temp\cc2BFfXK.s 			page 2


  58              		.loc 1 73 3 view .LVU3
  59              		.loc 1 73 16 is_stmt 0 view .LVU4
  60 0000 0122     		movs	r2, #1
  61              		.loc 1 74 16 view .LVU5
  62 0002 0023     		movs	r3, #0
  63              		.loc 1 73 16 view .LVU6
  64 0004 0270     		strb	r2, [r0]
  65              		.loc 1 74 3 is_stmt 1 view .LVU7
  66              		.loc 1 74 16 is_stmt 0 view .LVU8
  67 0006 4360     		str	r3, [r0, #4]
  68              		.loc 1 77 3 is_stmt 1 view .LVU9
  69              	.LVL2:
  70              	.LBB82:
  71              	.LBI82:
  72              		.file 2 "src/ChibiOS_3.0.2/os/hal/osal/rt/osal.h"
  73              		.loc 2 884 20 view .LVU10
  74              	.LBB83:
  75              		.loc 2 887 3 view .LVU11
  76 0008 0C30     		adds	r0, r0, #12
  77              	.LVL3:
  78              		.loc 2 887 3 is_stmt 0 view .LVU12
  79 000a FFF7FEBF 		b	chMtxObjectInit
  80              	.LVL4:
  81              		.loc 2 887 3 view .LVU13
  82              	.LBE83:
  83              	.LBE82:
  84              		.cfi_endproc
  85              	.LFE257:
  86              		.size	i2cObjectInit, .-i2cObjectInit
  87 000e 00BF     		.section	.text.i2cStart,"ax",%progbits
  88              		.align	1
  89              		.p2align 4,,15
  90              		.global	i2cStart
  91              		.syntax unified
  92              		.thumb
  93              		.thumb_func
  94              		.fpu fpv4-sp-d16
  95              		.type	i2cStart, %function
  96              	i2cStart:
  97              	.LVL5:
  98              	.LFB258:
  99              		.loc 1 93 57 is_stmt 1 view -0
 100              		.cfi_startproc
 101              		@ args = 0, pretend = 0, frame = 0
 102              		@ frame_needed = 0, uses_anonymous_args = 0
 103              		.loc 1 95 3 view .LVU15
 104              		.loc 1 95 3 view .LVU16
 105              		.loc 1 96 3 view .LVU17
 106              		.loc 1 96 3 view .LVU18
 107              		.loc 1 99 3 view .LVU19
 108              	.LBB84:
 109              	.LBI84:
 110              		.loc 2 491 20 view .LVU20
 111              	.LBE84:
 112              		.loc 2 493 3 view .LVU21
 113              	.LBB100:
 114              	.LBB85:
ARM GAS  C:\Users\USER\AppData\Local\Temp\cc2BFfXK.s 			page 3


 115              	.LBI85:
 116              		.file 3 "src/ChibiOS_3.0.2/os/rt/include/chsys.h"
 117              		.loc 3 346 20 view .LVU22
 118              	.LBE85:
 119              	.LBE100:
 120              		.loc 3 348 3 view .LVU23
 121              	.LBB101:
 122              	.LBB96:
 123              	.LBB86:
 124              	.LBI86:
 125              		.file 4 "src/ChibiOS_3.0.2/os/rt/ports/ARMCMx/chcore_v7m.h"
 126              		.loc 4 444 20 view .LVU24
 127              	.LBE86:
 128              	.LBE96:
 129              	.LBE101:
 130              		.loc 4 447 3 view .LVU25
 131              	.LBB102:
 132              	.LBB97:
 133              	.LBB93:
 134              	.LBB87:
 135              	.LBI87:
 136              		.file 5 "src/ChibiOS_3.0.2/os/ext/CMSIS/include/core_cmFunc.h"
 137              		.loc 5 544 57 view .LVU26
 138              	.LBB88:
 139              		.loc 5 546 3 view .LVU27
 140              	.LBE88:
 141              	.LBE87:
 142              	.LBE93:
 143              	.LBE97:
 144              	.LBE102:
 145              		.loc 1 93 57 is_stmt 0 view .LVU28
 146 0000 10B5     		push	{r4, lr}
 147              		.cfi_def_cfa_offset 8
 148              		.cfi_offset 4, -8
 149              		.cfi_offset 14, -4
 150              	.LBB103:
 151              	.LBB98:
 152              	.LBB94:
 153              	.LBB91:
 154              	.LBB89:
 155              		.loc 5 546 3 view .LVU29
 156 0002 2023     		movs	r3, #32
 157              	.LBE89:
 158              	.LBE91:
 159              	.LBE94:
 160              	.LBE98:
 161              	.LBE103:
 162              		.loc 1 93 57 view .LVU30
 163 0004 0446     		mov	r4, r0
 164              	.LBB104:
 165              	.LBB99:
 166              	.LBB95:
 167              	.LBB92:
 168              	.LBB90:
 169              		.loc 5 546 3 view .LVU31
 170              		.syntax unified
 171              	@ 546 "src/ChibiOS_3.0.2/os/ext/CMSIS/include/core_cmFunc.h" 1
ARM GAS  C:\Users\USER\AppData\Local\Temp\cc2BFfXK.s 			page 4


 172 0006 83F31188 		MSR basepri, r3
 173              	@ 0 "" 2
 174              	.LVL6:
 175              		.loc 5 546 3 view .LVU32
 176              		.thumb
 177              		.syntax unified
 178              	.LBE90:
 179              	.LBE92:
 180              	.LBE95:
 181              	.LBE99:
 182              	.LBE104:
 183              		.loc 3 349 34 is_stmt 1 view .LVU33
 184              		.loc 3 350 20 view .LVU34
 185              		.loc 1 100 3 view .LVU35
 186              		.loc 1 100 16 is_stmt 0 view .LVU36
 187 000a 4160     		str	r1, [r0, #4]
 188              		.loc 1 101 3 is_stmt 1 view .LVU37
 189 000c FFF7FEFF 		bl	i2c_lld_start
 190              	.LVL7:
 191              		.loc 1 102 3 view .LVU38
 192              		.loc 1 102 15 is_stmt 0 view .LVU39
 193 0010 0223     		movs	r3, #2
 194 0012 2370     		strb	r3, [r4]
 195              		.loc 1 103 3 is_stmt 1 view .LVU40
 196              	.LBB105:
 197              	.LBI105:
 198              		.loc 2 502 20 view .LVU41
 199              	.LBE105:
 200              		.loc 2 504 3 view .LVU42
 201              	.LBB114:
 202              	.LBB106:
 203              	.LBI106:
 204              		.loc 3 358 20 view .LVU43
 205              	.LBB107:
 206              		.loc 3 360 22 view .LVU44
 207              		.loc 3 361 33 view .LVU45
 208              		.loc 3 367 3 view .LVU46
 209              		.loc 3 367 3 view .LVU47
 210              		.loc 3 371 3 view .LVU48
 211              	.LBB108:
 212              	.LBI108:
 213              		.loc 4 458 20 view .LVU49
 214              	.LBE108:
 215              	.LBE107:
 216              	.LBE106:
 217              	.LBE114:
 218              		.loc 4 461 3 view .LVU50
 219              	.LVL8:
 220              	.LBB115:
 221              	.LBB113:
 222              	.LBB112:
 223              	.LBB111:
 224              	.LBB109:
 225              	.LBI109:
 226              		.loc 5 544 57 view .LVU51
 227              	.LBB110:
 228              		.loc 5 546 3 view .LVU52
ARM GAS  C:\Users\USER\AppData\Local\Temp\cc2BFfXK.s 			page 5


 229 0014 0023     		movs	r3, #0
 230              		.syntax unified
 231              	@ 546 "src/ChibiOS_3.0.2/os/ext/CMSIS/include/core_cmFunc.h" 1
 232 0016 83F31188 		MSR basepri, r3
 233              	@ 0 "" 2
 234              	.LVL9:
 235              		.loc 5 546 3 is_stmt 0 view .LVU53
 236              		.thumb
 237              		.syntax unified
 238              	.LBE110:
 239              	.LBE109:
 240              	.LBE111:
 241              	.LBE112:
 242              	.LBE113:
 243              	.LBE115:
 244              		.loc 1 104 1 view .LVU54
 245 001a 10BD     		pop	{r4, pc}
 246              		.loc 1 104 1 view .LVU55
 247              		.cfi_endproc
 248              	.LFE258:
 249              		.size	i2cStart, .-i2cStart
 250              		.section	.text.i2cStop,"ax",%progbits
 251              		.align	1
 252              		.p2align 4,,15
 253              		.global	i2cStop
 254              		.syntax unified
 255              		.thumb
 256              		.thumb_func
 257              		.fpu fpv4-sp-d16
 258              		.type	i2cStop, %function
 259              	i2cStop:
 260              	.LVL10:
 261              	.LFB259:
 262              		.loc 1 113 31 is_stmt 1 view -0
 263              		.cfi_startproc
 264              		@ args = 0, pretend = 0, frame = 0
 265              		@ frame_needed = 0, uses_anonymous_args = 0
 266              		.loc 1 115 3 view .LVU57
 267              		.loc 1 115 3 view .LVU58
 268              		.loc 1 116 3 view .LVU59
 269              		.loc 1 116 3 view .LVU60
 270              		.loc 1 119 3 view .LVU61
 271              	.LBB116:
 272              	.LBI116:
 273              		.loc 2 491 20 view .LVU62
 274              	.LBE116:
 275              		.loc 2 493 3 view .LVU63
 276              	.LBB132:
 277              	.LBB117:
 278              	.LBI117:
 279              		.loc 3 346 20 view .LVU64
 280              	.LBE117:
 281              	.LBE132:
 282              		.loc 3 348 3 view .LVU65
 283              	.LBB133:
 284              	.LBB128:
 285              	.LBB118:
ARM GAS  C:\Users\USER\AppData\Local\Temp\cc2BFfXK.s 			page 6


 286              	.LBI118:
 287              		.loc 4 444 20 view .LVU66
 288              	.LBE118:
 289              	.LBE128:
 290              	.LBE133:
 291              		.loc 4 447 3 view .LVU67
 292              	.LBB134:
 293              	.LBB129:
 294              	.LBB125:
 295              	.LBB119:
 296              	.LBI119:
 297              		.loc 5 544 57 view .LVU68
 298              	.LBB120:
 299              		.loc 5 546 3 view .LVU69
 300              	.LBE120:
 301              	.LBE119:
 302              	.LBE125:
 303              	.LBE129:
 304              	.LBE134:
 305              		.loc 1 113 31 is_stmt 0 view .LVU70
 306 0000 10B5     		push	{r4, lr}
 307              		.cfi_def_cfa_offset 8
 308              		.cfi_offset 4, -8
 309              		.cfi_offset 14, -4
 310              	.LBB135:
 311              	.LBB130:
 312              	.LBB126:
 313              	.LBB123:
 314              	.LBB121:
 315              		.loc 5 546 3 view .LVU71
 316 0002 2023     		movs	r3, #32
 317              	.LBE121:
 318              	.LBE123:
 319              	.LBE126:
 320              	.LBE130:
 321              	.LBE135:
 322              		.loc 1 113 31 view .LVU72
 323 0004 0446     		mov	r4, r0
 324              	.LBB136:
 325              	.LBB131:
 326              	.LBB127:
 327              	.LBB124:
 328              	.LBB122:
 329              		.loc 5 546 3 view .LVU73
 330              		.syntax unified
 331              	@ 546 "src/ChibiOS_3.0.2/os/ext/CMSIS/include/core_cmFunc.h" 1
 332 0006 83F31188 		MSR basepri, r3
 333              	@ 0 "" 2
 334              	.LVL11:
 335              		.loc 5 546 3 view .LVU74
 336              		.thumb
 337              		.syntax unified
 338              	.LBE122:
 339              	.LBE124:
 340              	.LBE127:
 341              	.LBE131:
 342              	.LBE136:
ARM GAS  C:\Users\USER\AppData\Local\Temp\cc2BFfXK.s 			page 7


 343              		.loc 3 349 34 is_stmt 1 view .LVU75
 344              		.loc 3 350 20 view .LVU76
 345              		.loc 1 120 3 view .LVU77
 346 000a FFF7FEFF 		bl	i2c_lld_stop
 347              	.LVL12:
 348              		.loc 1 121 3 view .LVU78
 349              		.loc 1 121 15 is_stmt 0 view .LVU79
 350 000e 0123     		movs	r3, #1
 351 0010 2370     		strb	r3, [r4]
 352              		.loc 1 122 3 is_stmt 1 view .LVU80
 353              	.LBB137:
 354              	.LBI137:
 355              		.loc 2 502 20 view .LVU81
 356              	.LBE137:
 357              		.loc 2 504 3 view .LVU82
 358              	.LBB146:
 359              	.LBB138:
 360              	.LBI138:
 361              		.loc 3 358 20 view .LVU83
 362              	.LBB139:
 363              		.loc 3 360 22 view .LVU84
 364              		.loc 3 361 33 view .LVU85
 365              		.loc 3 367 3 view .LVU86
 366              		.loc 3 367 3 view .LVU87
 367              		.loc 3 371 3 view .LVU88
 368              	.LBB140:
 369              	.LBI140:
 370              		.loc 4 458 20 view .LVU89
 371              	.LBE140:
 372              	.LBE139:
 373              	.LBE138:
 374              	.LBE146:
 375              		.loc 4 461 3 view .LVU90
 376              	.LVL13:
 377              	.LBB147:
 378              	.LBB145:
 379              	.LBB144:
 380              	.LBB143:
 381              	.LBB141:
 382              	.LBI141:
 383              		.loc 5 544 57 view .LVU91
 384              	.LBB142:
 385              		.loc 5 546 3 view .LVU92
 386 0012 0023     		movs	r3, #0
 387              		.syntax unified
 388              	@ 546 "src/ChibiOS_3.0.2/os/ext/CMSIS/include/core_cmFunc.h" 1
 389 0014 83F31188 		MSR basepri, r3
 390              	@ 0 "" 2
 391              	.LVL14:
 392              		.loc 5 546 3 is_stmt 0 view .LVU93
 393              		.thumb
 394              		.syntax unified
 395              	.LBE142:
 396              	.LBE141:
 397              	.LBE143:
 398              	.LBE144:
 399              	.LBE145:
ARM GAS  C:\Users\USER\AppData\Local\Temp\cc2BFfXK.s 			page 8


 400              	.LBE147:
 401              		.loc 1 123 1 view .LVU94
 402 0018 10BD     		pop	{r4, pc}
 403              		.loc 1 123 1 view .LVU95
 404              		.cfi_endproc
 405              	.LFE259:
 406              		.size	i2cStop, .-i2cStop
 407 001a 00BF     		.section	.text.i2cGetErrors,"ax",%progbits
 408              		.align	1
 409              		.p2align 4,,15
 410              		.global	i2cGetErrors
 411              		.syntax unified
 412              		.thumb
 413              		.thumb_func
 414              		.fpu fpv4-sp-d16
 415              		.type	i2cGetErrors, %function
 416              	i2cGetErrors:
 417              	.LVL15:
 418              	.LFB260:
 419              		.loc 1 133 42 is_stmt 1 view -0
 420              		.cfi_startproc
 421              		@ args = 0, pretend = 0, frame = 0
 422              		@ frame_needed = 0, uses_anonymous_args = 0
 423              		@ link register save eliminated.
 424              		.loc 1 135 3 view .LVU97
 425              		.loc 1 135 3 view .LVU98
 426              		.loc 1 137 3 view .LVU99
 427              		.loc 1 138 1 is_stmt 0 view .LVU100
 428 0000 8068     		ldr	r0, [r0, #8]
 429              	.LVL16:
 430              		.loc 1 138 1 view .LVU101
 431 0002 7047     		bx	lr
 432              		.cfi_endproc
 433              	.LFE260:
 434              		.size	i2cGetErrors, .-i2cGetErrors
 435              		.section	.text.i2cMasterTransmitTimeout,"ax",%progbits
 436              		.align	1
 437              		.p2align 4,,15
 438              		.global	i2cMasterTransmitTimeout
 439              		.syntax unified
 440              		.thumb
 441              		.thumb_func
 442              		.fpu fpv4-sp-d16
 443              		.type	i2cMasterTransmitTimeout, %function
 444              	i2cMasterTransmitTimeout:
 445              	.LVL17:
 446              	.LFB261:
 447              		.loc 1 172 51 is_stmt 1 view -0
 448              		.cfi_startproc
 449              		@ args = 12, pretend = 0, frame = 0
 450              		@ frame_needed = 0, uses_anonymous_args = 0
 451              		.loc 1 173 3 view .LVU103
 452              		.loc 1 175 3 view .LVU104
 453              		.loc 1 175 3 view .LVU105
 454              		.loc 1 180 3 view .LVU106
 455              		.loc 1 180 3 view .LVU107
 456              		.loc 1 182 3 view .LVU108
ARM GAS  C:\Users\USER\AppData\Local\Temp\cc2BFfXK.s 			page 9


 457              	.LBB148:
 458              	.LBI148:
 459              		.loc 2 491 20 view .LVU109
 460              	.LBE148:
 461              		.loc 2 493 3 view .LVU110
 462              	.LBB160:
 463              	.LBB149:
 464              	.LBI149:
 465              		.loc 3 346 20 view .LVU111
 466              	.LBE149:
 467              	.LBE160:
 468              		.loc 3 348 3 view .LVU112
 469              	.LBB161:
 470              	.LBB157:
 471              	.LBB150:
 472              	.LBI150:
 473              		.loc 4 444 20 view .LVU113
 474              	.LBE150:
 475              	.LBE157:
 476              	.LBE161:
 477              		.loc 4 447 3 view .LVU114
 478              	.LBB162:
 479              	.LBB158:
 480              	.LBB155:
 481              	.LBB151:
 482              	.LBI151:
 483              		.loc 5 544 57 view .LVU115
 484              	.LBB152:
 485              		.loc 5 546 3 view .LVU116
 486              	.LBE152:
 487              	.LBE151:
 488              	.LBE155:
 489              	.LBE158:
 490              	.LBE162:
 491              		.loc 1 172 51 is_stmt 0 view .LVU117
 492 0000 F0B5     		push	{r4, r5, r6, r7, lr}
 493              		.cfi_def_cfa_offset 20
 494              		.cfi_offset 4, -20
 495              		.cfi_offset 5, -16
 496              		.cfi_offset 6, -12
 497              		.cfi_offset 7, -8
 498              		.cfi_offset 14, -4
 499 0002 85B0     		sub	sp, sp, #20
 500              		.cfi_def_cfa_offset 40
 501              		.loc 1 172 51 view .LVU118
 502 0004 0446     		mov	r4, r0
 503 0006 DDE90B67 		ldrd	r6, r7, [sp, #44]
 504              	.LBB163:
 505              	.LBB159:
 506              	.LBB156:
 507              	.LBB154:
 508              	.LBB153:
 509              		.loc 5 546 3 view .LVU119
 510 000a 4FF0200C 		mov	ip, #32
 511              		.syntax unified
 512              	@ 546 "src/ChibiOS_3.0.2/os/ext/CMSIS/include/core_cmFunc.h" 1
 513 000e 8CF31188 		MSR basepri, ip
ARM GAS  C:\Users\USER\AppData\Local\Temp\cc2BFfXK.s 			page 10


 514              	@ 0 "" 2
 515              	.LVL18:
 516              		.loc 5 546 3 view .LVU120
 517              		.thumb
 518              		.syntax unified
 519              	.LBE153:
 520              	.LBE154:
 521              	.LBE156:
 522              	.LBE159:
 523              	.LBE163:
 524              		.loc 3 349 34 is_stmt 1 view .LVU121
 525              		.loc 3 350 20 view .LVU122
 526              		.loc 1 183 3 view .LVU123
 527              		.loc 1 184 15 is_stmt 0 view .LVU124
 528 0012 4FF0030C 		mov	ip, #3
 529              		.loc 1 185 12 view .LVU125
 530 0016 CDE90167 		strd	r6, r7, [sp, #4]
 531              		.loc 1 183 16 view .LVU126
 532 001a 0025     		movs	r5, #0
 533              		.loc 1 185 12 view .LVU127
 534 001c 0A9E     		ldr	r6, [sp, #40]
 535 001e 0096     		str	r6, [sp]
 536              		.loc 1 184 15 view .LVU128
 537 0020 80F800C0 		strb	ip, [r0]
 538              		.loc 1 183 16 view .LVU129
 539 0024 8560     		str	r5, [r0, #8]
 540              		.loc 1 184 3 is_stmt 1 view .LVU130
 541              		.loc 1 185 3 view .LVU131
 542              		.loc 1 185 12 is_stmt 0 view .LVU132
 543 0026 FFF7FEFF 		bl	i2c_lld_master_transmit_timeout
 544              	.LVL19:
 545              		.loc 1 187 3 is_stmt 1 view .LVU133
 546              		.loc 1 187 6 is_stmt 0 view .LVU134
 547 002a 431C     		adds	r3, r0, #1
 548              		.loc 1 188 17 view .LVU135
 549 002c 14BF     		ite	ne
 550 002e 0223     		movne	r3, #2
 551 0030 0523     		moveq	r3, #5
 552 0032 2370     		strb	r3, [r4]
 553              		.loc 1 193 3 is_stmt 1 view .LVU136
 554              	.LBB164:
 555              	.LBI164:
 556              		.loc 2 502 20 view .LVU137
 557              	.LBE164:
 558              		.loc 2 504 3 view .LVU138
 559              	.LBB173:
 560              	.LBB165:
 561              	.LBI165:
 562              		.loc 3 358 20 view .LVU139
 563              	.LBB166:
 564              		.loc 3 360 22 view .LVU140
 565              		.loc 3 361 33 view .LVU141
 566              		.loc 3 367 3 view .LVU142
 567              		.loc 3 367 3 view .LVU143
 568              		.loc 3 371 3 view .LVU144
 569              	.LBB167:
 570              	.LBI167:
ARM GAS  C:\Users\USER\AppData\Local\Temp\cc2BFfXK.s 			page 11


 571              		.loc 4 458 20 view .LVU145
 572              	.LBE167:
 573              	.LBE166:
 574              	.LBE165:
 575              	.LBE173:
 576              		.loc 4 461 3 view .LVU146
 577              	.LVL20:
 578              	.LBB174:
 579              	.LBB172:
 580              	.LBB171:
 581              	.LBB170:
 582              	.LBB168:
 583              	.LBI168:
 584              		.loc 5 544 57 view .LVU147
 585              	.LBB169:
 586              		.loc 5 546 3 view .LVU148
 587              		.syntax unified
 588              	@ 546 "src/ChibiOS_3.0.2/os/ext/CMSIS/include/core_cmFunc.h" 1
 589 0034 85F31188 		MSR basepri, r5
 590              	@ 0 "" 2
 591              	.LVL21:
 592              		.loc 5 546 3 is_stmt 0 view .LVU149
 593              		.thumb
 594              		.syntax unified
 595              	.LBE169:
 596              	.LBE168:
 597              	.LBE170:
 598              	.LBE171:
 599              	.LBE172:
 600              	.LBE174:
 601              		.loc 1 194 3 is_stmt 1 view .LVU150
 602              		.loc 1 195 1 is_stmt 0 view .LVU151
 603 0038 05B0     		add	sp, sp, #20
 604              		.cfi_def_cfa_offset 20
 605              		@ sp needed
 606 003a F0BD     		pop	{r4, r5, r6, r7, pc}
 607              		.loc 1 195 1 view .LVU152
 608              		.cfi_endproc
 609              	.LFE261:
 610              		.size	i2cMasterTransmitTimeout, .-i2cMasterTransmitTimeout
 611              		.section	.text.i2cMasterReceiveTimeout,"ax",%progbits
 612              		.align	1
 613              		.p2align 4,,15
 614              		.global	i2cMasterReceiveTimeout
 615              		.syntax unified
 616              		.thumb
 617              		.thumb_func
 618              		.fpu fpv4-sp-d16
 619              		.type	i2cMasterReceiveTimeout, %function
 620              	i2cMasterReceiveTimeout:
 621              	.LVL22:
 622              	.LFB262:
 623              		.loc 1 221 49 is_stmt 1 view -0
 624              		.cfi_startproc
 625              		@ args = 4, pretend = 0, frame = 0
 626              		@ frame_needed = 0, uses_anonymous_args = 0
 627              		.loc 1 223 3 view .LVU154
ARM GAS  C:\Users\USER\AppData\Local\Temp\cc2BFfXK.s 			page 12


 628              		.loc 1 225 3 view .LVU155
 629              		.loc 1 225 3 view .LVU156
 630              		.loc 1 229 3 view .LVU157
 631              		.loc 1 229 3 view .LVU158
 632              		.loc 1 231 3 view .LVU159
 633              	.LBB175:
 634              	.LBI175:
 635              		.loc 2 491 20 view .LVU160
 636              	.LBE175:
 637              		.loc 2 493 3 view .LVU161
 638              	.LBB187:
 639              	.LBB176:
 640              	.LBI176:
 641              		.loc 3 346 20 view .LVU162
 642              	.LBE176:
 643              	.LBE187:
 644              		.loc 3 348 3 view .LVU163
 645              	.LBB188:
 646              	.LBB184:
 647              	.LBB177:
 648              	.LBI177:
 649              		.loc 4 444 20 view .LVU164
 650              	.LBE177:
 651              	.LBE184:
 652              	.LBE188:
 653              		.loc 4 447 3 view .LVU165
 654              	.LBB189:
 655              	.LBB185:
 656              	.LBB182:
 657              	.LBB178:
 658              	.LBI178:
 659              		.loc 5 544 57 view .LVU166
 660              	.LBB179:
 661              		.loc 5 546 3 view .LVU167
 662              	.LBE179:
 663              	.LBE178:
 664              	.LBE182:
 665              	.LBE185:
 666              	.LBE189:
 667              		.loc 1 221 49 is_stmt 0 view .LVU168
 668 0000 F0B5     		push	{r4, r5, r6, r7, lr}
 669              		.cfi_def_cfa_offset 20
 670              		.cfi_offset 4, -20
 671              		.cfi_offset 5, -16
 672              		.cfi_offset 6, -12
 673              		.cfi_offset 7, -8
 674              		.cfi_offset 14, -4
 675 0002 83B0     		sub	sp, sp, #12
 676              		.cfi_def_cfa_offset 32
 677              		.loc 1 221 49 view .LVU169
 678 0004 0446     		mov	r4, r0
 679 0006 089F     		ldr	r7, [sp, #32]
 680              	.LBB190:
 681              	.LBB186:
 682              	.LBB183:
 683              	.LBB181:
 684              	.LBB180:
ARM GAS  C:\Users\USER\AppData\Local\Temp\cc2BFfXK.s 			page 13


 685              		.loc 5 546 3 view .LVU170
 686 0008 2025     		movs	r5, #32
 687              		.syntax unified
 688              	@ 546 "src/ChibiOS_3.0.2/os/ext/CMSIS/include/core_cmFunc.h" 1
 689 000a 85F31188 		MSR basepri, r5
 690              	@ 0 "" 2
 691              	.LVL23:
 692              		.loc 5 546 3 view .LVU171
 693              		.thumb
 694              		.syntax unified
 695              	.LBE180:
 696              	.LBE181:
 697              	.LBE183:
 698              	.LBE186:
 699              	.LBE190:
 700              		.loc 3 349 34 is_stmt 1 view .LVU172
 701              		.loc 3 350 20 view .LVU173
 702              		.loc 1 232 3 view .LVU174
 703              		.loc 1 233 15 is_stmt 0 view .LVU175
 704 000e 0426     		movs	r6, #4
 705              		.loc 1 232 16 view .LVU176
 706 0010 0025     		movs	r5, #0
 707              		.loc 1 234 12 view .LVU177
 708 0012 0097     		str	r7, [sp]
 709              		.loc 1 233 15 view .LVU178
 710 0014 0670     		strb	r6, [r0]
 711              		.loc 1 232 16 view .LVU179
 712 0016 8560     		str	r5, [r0, #8]
 713              		.loc 1 233 3 is_stmt 1 view .LVU180
 714              		.loc 1 234 3 view .LVU181
 715              		.loc 1 234 12 is_stmt 0 view .LVU182
 716 0018 FFF7FEFF 		bl	i2c_lld_master_receive_timeout
 717              	.LVL24:
 718              		.loc 1 235 3 is_stmt 1 view .LVU183
 719              		.loc 1 235 6 is_stmt 0 view .LVU184
 720 001c 431C     		adds	r3, r0, #1
 721              		.loc 1 236 17 view .LVU185
 722 001e 14BF     		ite	ne
 723 0020 0223     		movne	r3, #2
 724 0022 0523     		moveq	r3, #5
 725 0024 2370     		strb	r3, [r4]
 726              		.loc 1 241 3 is_stmt 1 view .LVU186
 727              	.LBB191:
 728              	.LBI191:
 729              		.loc 2 502 20 view .LVU187
 730              	.LBE191:
 731              		.loc 2 504 3 view .LVU188
 732              	.LBB200:
 733              	.LBB192:
 734              	.LBI192:
 735              		.loc 3 358 20 view .LVU189
 736              	.LBB193:
 737              		.loc 3 360 22 view .LVU190
 738              		.loc 3 361 33 view .LVU191
 739              		.loc 3 367 3 view .LVU192
 740              		.loc 3 367 3 view .LVU193
 741              		.loc 3 371 3 view .LVU194
ARM GAS  C:\Users\USER\AppData\Local\Temp\cc2BFfXK.s 			page 14


 742              	.LBB194:
 743              	.LBI194:
 744              		.loc 4 458 20 view .LVU195
 745              	.LBE194:
 746              	.LBE193:
 747              	.LBE192:
 748              	.LBE200:
 749              		.loc 4 461 3 view .LVU196
 750              	.LVL25:
 751              	.LBB201:
 752              	.LBB199:
 753              	.LBB198:
 754              	.LBB197:
 755              	.LBB195:
 756              	.LBI195:
 757              		.loc 5 544 57 view .LVU197
 758              	.LBB196:
 759              		.loc 5 546 3 view .LVU198
 760              		.syntax unified
 761              	@ 546 "src/ChibiOS_3.0.2/os/ext/CMSIS/include/core_cmFunc.h" 1
 762 0026 85F31188 		MSR basepri, r5
 763              	@ 0 "" 2
 764              	.LVL26:
 765              		.loc 5 546 3 is_stmt 0 view .LVU199
 766              		.thumb
 767              		.syntax unified
 768              	.LBE196:
 769              	.LBE195:
 770              	.LBE197:
 771              	.LBE198:
 772              	.LBE199:
 773              	.LBE201:
 774              		.loc 1 242 3 is_stmt 1 view .LVU200
 775              		.loc 1 243 1 is_stmt 0 view .LVU201
 776 002a 03B0     		add	sp, sp, #12
 777              		.cfi_def_cfa_offset 20
 778              		@ sp needed
 779 002c F0BD     		pop	{r4, r5, r6, r7, pc}
 780              		.loc 1 243 1 view .LVU202
 781              		.cfi_endproc
 782              	.LFE262:
 783              		.size	i2cMasterReceiveTimeout, .-i2cMasterReceiveTimeout
 784 002e 00BF     		.section	.text.i2cAcquireBus,"ax",%progbits
 785              		.align	1
 786              		.p2align 4,,15
 787              		.global	i2cAcquireBus
 788              		.syntax unified
 789              		.thumb
 790              		.thumb_func
 791              		.fpu fpv4-sp-d16
 792              		.type	i2cAcquireBus, %function
 793              	i2cAcquireBus:
 794              	.LVL27:
 795              	.LFB263:
 796              		.loc 1 257 37 is_stmt 1 view -0
 797              		.cfi_startproc
 798              		@ args = 0, pretend = 0, frame = 0
ARM GAS  C:\Users\USER\AppData\Local\Temp\cc2BFfXK.s 			page 15


 799              		@ frame_needed = 0, uses_anonymous_args = 0
 800              		@ link register save eliminated.
 801              		.loc 1 259 3 view .LVU204
 802              		.loc 1 259 3 view .LVU205
 803              		.loc 1 261 3 view .LVU206
 804              	.LBB202:
 805              	.LBI202:
 806              		.loc 2 904 20 view .LVU207
 807              	.LBB203:
 808              		.loc 2 907 3 view .LVU208
 809 0000 0C30     		adds	r0, r0, #12
 810              	.LVL28:
 811              		.loc 2 907 3 is_stmt 0 view .LVU209
 812 0002 FFF7FEBF 		b	chMtxLock
 813              	.LVL29:
 814              		.loc 2 907 3 view .LVU210
 815              	.LBE203:
 816              	.LBE202:
 817              		.cfi_endproc
 818              	.LFE263:
 819              		.size	i2cAcquireBus, .-i2cAcquireBus
 820 0006 00BF     		.section	.text.i2cReleaseBus,"ax",%progbits
 821              		.align	1
 822              		.p2align 4,,15
 823              		.global	i2cReleaseBus
 824              		.syntax unified
 825              		.thumb
 826              		.thumb_func
 827              		.fpu fpv4-sp-d16
 828              		.type	i2cReleaseBus, %function
 829              	i2cReleaseBus:
 830              	.LVL30:
 831              	.LFB264:
 832              		.loc 1 273 37 is_stmt 1 view -0
 833              		.cfi_startproc
 834              		@ args = 0, pretend = 0, frame = 0
 835              		@ frame_needed = 0, uses_anonymous_args = 0
 836              		@ link register save eliminated.
 837              		.loc 1 275 3 view .LVU212
 838              		.loc 1 275 3 view .LVU213
 839              		.loc 1 277 3 view .LVU214
 840              	.LBB204:
 841              	.LBI204:
 842              		.loc 2 928 20 view .LVU215
 843              	.LBB205:
 844              		.loc 2 931 3 view .LVU216
 845 0000 0C30     		adds	r0, r0, #12
 846              	.LVL31:
 847              		.loc 2 931 3 is_stmt 0 view .LVU217
 848 0002 FFF7FEBF 		b	chMtxUnlock
 849              	.LVL32:
 850              		.loc 2 931 3 view .LVU218
 851              	.LBE205:
 852              	.LBE204:
 853              		.cfi_endproc
 854              	.LFE264:
 855              		.size	i2cReleaseBus, .-i2cReleaseBus
ARM GAS  C:\Users\USER\AppData\Local\Temp\cc2BFfXK.s 			page 16


 856 0006 00BF     		.text
 857              	.Letext0:
 858              		.file 6 "c:\\program files (x86)\\gnu tools arm embedded\\8 2018-q4-major\\lib\\gcc\\arm-none-eabi
 859              		.file 7 "c:\\program files (x86)\\gnu tools arm embedded\\8 2018-q4-major\\arm-none-eabi\\include\
 860              		.file 8 "c:\\program files (x86)\\gnu tools arm embedded\\8 2018-q4-major\\arm-none-eabi\\include\
 861              		.file 9 "src/ChibiOS_3.0.2/os/rt/ports/ARMCMx/compilers/GCC/chtypes.h"
 862              		.file 10 "src/ChibiOS_3.0.2/os/rt/include/chsystypes.h"
 863              		.file 11 "src/ChibiOS_3.0.2/os/rt/include/chschd.h"
 864              		.file 12 "src/ChibiOS_3.0.2/os/ext/CMSIS/include/core_cm4.h"
 865              		.file 13 "src/ChibiOS_3.0.2/os/ext/CMSIS/ST/system_stm32f4xx.h"
 866              		.file 14 "src/ChibiOS_3.0.2/os/ext/CMSIS/ST/stm32f407xx.h"
 867              		.file 15 "src/ChibiOS_3.0.2/os/rt/ports/ARMCMx/chcore.h"
 868              		.file 16 "src/ChibiOS_3.0.2/os/rt/include/chtm.h"
 869              		.file 17 "src/ChibiOS_3.0.2/os/rt/include/chsem.h"
 870              		.file 18 "src/ChibiOS_3.0.2/os/rt/include/chmtx.h"
 871              		.file 19 "src/ChibiOS_3.0.2/os/rt/include/chregistry.h"
 872              		.file 20 "src/ChibiOS_3.0.2/os/rt/include/chevents.h"
 873              		.file 21 "src/ChibiOS_3.0.2/os/rt/include/chqueues.h"
 874              		.file 22 "src/ChibiOS_3.0.2/os/hal/ports/STM32/STM32F4xx/stm32_dma.h"
 875              		.file 23 "src/ChibiOS_3.0.2/os/hal/ports/STM32/LLD/GPIOv2/pal_lld.h"
 876              		.file 24 "src/ChibiOS_3.0.2/os/hal/include/can.h"
 877              		.file 25 "src/ChibiOS_3.0.2/os/hal/ports/STM32/LLD/can_lld.h"
 878              		.file 26 "src/ChibiOS_3.0.2/os/hal/include/i2c.h"
 879              		.file 27 "src/ChibiOS_3.0.2/os/hal/ports/STM32/LLD/I2Cv1/i2c_lld.h"
 880              		.file 28 "src/ChibiOS_3.0.2/os/hal/include/icu.h"
 881              		.file 29 "src/ChibiOS_3.0.2/os/hal/ports/STM32/LLD/TIMv1/icu_lld.h"
 882              		.file 30 "src/ChibiOS_3.0.2/os/hal/ports/STM32/LLD/TIMv1/stm32_tim.h"
 883              		.file 31 "src/ChibiOS_3.0.2/os/hal/include/serial.h"
 884              		.file 32 "src/ChibiOS_3.0.2/os/hal/ports/STM32/LLD/USARTv1/serial_lld.h"
 885              		.file 33 "src/ChibiOS_3.0.2/os/hal/include/spi.h"
 886              		.file 34 "src/ChibiOS_3.0.2/os/hal/ports/STM32/LLD/SPIv1/spi_lld.h"
 887              		.file 35 "src/ChibiOS_3.0.2/os/hal/include/uart.h"
 888              		.file 36 "src/ChibiOS_3.0.2/os/hal/ports/STM32/LLD/USARTv1/uart_lld.h"
 889              		.file 37 "src/ChibiOS_3.0.2/os/hal/include/usb.h"
 890              		.file 38 "src/ChibiOS_3.0.2/os/hal/ports/STM32/LLD/OTGv1/usb_lld.h"
 891              		.file 39 "src/ChibiOS_3.0.2/os/hal/ports/STM32/LLD/OTGv1/stm32_otg.h"