ARM GAS  C:\Users\USER\AppData\Local\Temp\cca3YqUN.s 			page 1


   1              		.cpu cortex-m4
   2              		.eabi_attribute 27, 1
   3              		.eabi_attribute 28, 1
   4              		.eabi_attribute 20, 1
   5              		.eabi_attribute 21, 1
   6              		.eabi_attribute 23, 3
   7              		.eabi_attribute 24, 1
   8              		.eabi_attribute 25, 1
   9              		.eabi_attribute 26, 1
  10              		.eabi_attribute 30, 2
  11              		.eabi_attribute 34, 1
  12              		.eabi_attribute 18, 4
  13              		.file	"i2c_lld.c"
  14              		.text
  15              	.Ltext0:
  16              		.cfi_sections	.debug_frame
  17              		.section	.text.i2c_lld_serve_tx_end_irq,"ax",%progbits
  18              		.align	1
  19              		.p2align 4,,15
  20              		.arch armv7e-m
  21              		.syntax unified
  22              		.thumb
  23              		.thumb_func
  24              		.fpu fpv4-sp-d16
  25              		.type	i2c_lld_serve_tx_end_irq, %function
  26              	i2c_lld_serve_tx_end_irq:
  27              	.LVL0:
  28              	.LFB261:
  29              		.file 1 "src/ChibiOS_3.0.2/os/hal/ports/STM32/LLD/I2Cv1/i2c_lld.c"
  30              		.loc 1 332 71 view -0
  31              		.cfi_startproc
  32              		@ args = 0, pretend = 0, frame = 0
  33              		@ frame_needed = 0, uses_anonymous_args = 0
  34              		.loc 1 333 3 view .LVU1
  35              		.loc 1 337 6 is_stmt 0 view .LVU2
  36 0000 11F00C0F 		tst	r1, #12
  37              		.loc 1 332 71 view .LVU3
  38 0004 38B5     		push	{r3, r4, r5, lr}
  39              		.cfi_def_cfa_offset 16
  40              		.cfi_offset 3, -16
  41              		.cfi_offset 4, -12
  42              		.cfi_offset 5, -8
  43              		.cfi_offset 14, -4
  44              		.loc 1 332 71 view .LVU4
  45 0006 0546     		mov	r5, r0
  46              		.loc 1 333 16 view .LVU5
  47 0008 446B     		ldr	r4, [r0, #52]
  48              	.LVL1:
  49              		.loc 1 337 3 is_stmt 1 view .LVU6
  50              		.loc 1 337 6 is_stmt 0 view .LVU7
  51 000a 12D1     		bne	.L10
  52              	.LVL2:
  53              	.L2:
  54              		.loc 1 344 3 is_stmt 1 view .LVU8
  55 000c 296B     		ldr	r1, [r5, #48]
  56 000e 0A68     		ldr	r2, [r1]
  57 0010 1368     		ldr	r3, [r2]
ARM GAS  C:\Users\USER\AppData\Local\Temp\cca3YqUN.s 			page 2


  58 0012 23F01F03 		bic	r3, r3, #31
  59 0016 1360     		str	r3, [r2]
  60              		.loc 1 344 3 view .LVU9
  61              	.L3:
  62              		.loc 1 344 3 discriminator 2 view .LVU10
  63 0018 1368     		ldr	r3, [r2]
  64 001a DB07     		lsls	r3, r3, #31
  65 001c FCD4     		bmi	.L3
  66              		.loc 1 344 3 discriminator 3 view .LVU11
  67 001e 087A     		ldrb	r0, [r1, #8]	@ zero_extendqisi2
  68 0020 4A68     		ldr	r2, [r1, #4]
  69 0022 3D23     		movs	r3, #61
  70 0024 8340     		lsls	r3, r3, r0
  71 0026 1360     		str	r3, [r2]
  72              		.loc 1 344 3 discriminator 3 view .LVU12
  73              		.loc 1 344 32 discriminator 3 view .LVU13
  74              		.loc 1 348 3 discriminator 3 view .LVU14
  75              		.loc 1 348 11 is_stmt 0 discriminator 3 view .LVU15
  76 0028 6368     		ldr	r3, [r4, #4]
  77 002a 43F40073 		orr	r3, r3, #512
  78 002e 6360     		str	r3, [r4, #4]
  79              		.loc 1 349 1 discriminator 3 view .LVU16
  80 0030 38BD     		pop	{r3, r4, r5, pc}
  81              	.LVL3:
  82              	.L10:
  83              		.loc 1 338 5 is_stmt 1 view .LVU17
  84              	.LBB209:
  85              	.LBI209:
  86              		.file 2 "src/ChibiOS_3.0.2/os/hal/osal/rt/osal.h"
  87              		.loc 2 460 20 view .LVU18
  88              	.LBB210:
  89              		.loc 2 462 3 view .LVU19
  90 0032 0248     		ldr	r0, .L11
  91              	.LVL4:
  92              		.loc 2 462 3 is_stmt 0 view .LVU20
  93 0034 FFF7FEFF 		bl	chSysHalt
  94              	.LVL5:
  95              		.loc 2 462 3 view .LVU21
  96 0038 E8E7     		b	.L2
  97              	.L12:
  98 003a 00BF     		.align	2
  99              	.L11:
 100 003c 00000000 		.word	.LC0
 101              	.LBE210:
 102              	.LBE209:
 103              		.cfi_endproc
 104              	.LFE261:
 105              		.size	i2c_lld_serve_tx_end_irq, .-i2c_lld_serve_tx_end_irq
 106              		.section	.text.i2c_lld_serve_rx_end_irq,"ax",%progbits
 107              		.align	1
 108              		.p2align 4,,15
 109              		.syntax unified
 110              		.thumb
 111              		.thumb_func
 112              		.fpu fpv4-sp-d16
 113              		.type	i2c_lld_serve_rx_end_irq, %function
 114              	i2c_lld_serve_rx_end_irq:
ARM GAS  C:\Users\USER\AppData\Local\Temp\cca3YqUN.s 			page 3


 115              	.LVL6:
 116              	.LFB260:
 117              		.loc 1 305 71 is_stmt 1 view -0
 118              		.cfi_startproc
 119              		@ args = 0, pretend = 0, frame = 0
 120              		@ frame_needed = 0, uses_anonymous_args = 0
 121              		.loc 1 306 3 view .LVU23
 122              		.loc 1 310 6 is_stmt 0 view .LVU24
 123 0000 11F00C0F 		tst	r1, #12
 124              		.loc 1 305 71 view .LVU25
 125 0004 70B5     		push	{r4, r5, r6, lr}
 126              		.cfi_def_cfa_offset 16
 127              		.cfi_offset 4, -16
 128              		.cfi_offset 5, -12
 129              		.cfi_offset 6, -8
 130              		.cfi_offset 14, -4
 131              		.loc 1 305 71 view .LVU26
 132 0006 0646     		mov	r6, r0
 133              		.loc 1 306 16 view .LVU27
 134 0008 456B     		ldr	r5, [r0, #52]
 135              	.LVL7:
 136              		.loc 1 310 3 is_stmt 1 view .LVU28
 137              		.loc 1 310 6 is_stmt 0 view .LVU29
 138 000a 25D1     		bne	.L21
 139              	.LVL8:
 140              	.L14:
 141              		.loc 1 317 3 is_stmt 1 view .LVU30
 142 000c F26A     		ldr	r2, [r6, #44]
 143 000e 1368     		ldr	r3, [r2]
 144 0010 1968     		ldr	r1, [r3]
 145 0012 21F01F01 		bic	r1, r1, #31
 146 0016 1960     		str	r1, [r3]
 147              		.loc 1 317 3 view .LVU31
 148              	.L15:
 149              		.loc 1 317 3 discriminator 2 view .LVU32
 150 0018 1C68     		ldr	r4, [r3]
 151 001a 14F00104 		ands	r4, r4, #1
 152 001e FBD1     		bne	.L15
 153              		.loc 1 317 3 discriminator 3 view .LVU33
 154 0020 117A     		ldrb	r1, [r2, #8]	@ zero_extendqisi2
 155 0022 5268     		ldr	r2, [r2, #4]
 156 0024 3D23     		movs	r3, #61
 157 0026 8B40     		lsls	r3, r3, r1
 158 0028 1360     		str	r3, [r2]
 159              		.loc 1 317 3 discriminator 3 view .LVU34
 160              		.loc 1 317 32 discriminator 3 view .LVU35
 161              		.loc 1 319 3 discriminator 3 view .LVU36
 162              		.loc 1 319 11 is_stmt 0 discriminator 3 view .LVU37
 163 002a 6B68     		ldr	r3, [r5, #4]
 164 002c 23F48053 		bic	r3, r3, #4096
 165 0030 6B60     		str	r3, [r5, #4]
 166              		.loc 1 320 3 is_stmt 1 discriminator 3 view .LVU38
 167              		.loc 1 320 11 is_stmt 0 discriminator 3 view .LVU39
 168 0032 2B68     		ldr	r3, [r5]
 169 0034 23F48063 		bic	r3, r3, #1024
 170 0038 2B60     		str	r3, [r5]
 171              		.loc 1 321 3 is_stmt 1 discriminator 3 view .LVU40
ARM GAS  C:\Users\USER\AppData\Local\Temp\cca3YqUN.s 			page 4


 172              		.loc 1 321 11 is_stmt 0 discriminator 3 view .LVU41
 173 003a 2B68     		ldr	r3, [r5]
 174 003c 43F40073 		orr	r3, r3, #512
 175 0040 2B60     		str	r3, [r5]
 176              		.loc 1 322 3 is_stmt 1 discriminator 3 view .LVU42
 177              		.loc 1 322 3 discriminator 3 view .LVU43
 178              	.LBB211:
 179              	.LBI211:
 180              		.loc 2 513 20 discriminator 3 view .LVU44
 181              	.LBE211:
 182              		.loc 2 515 3 discriminator 3 view .LVU45
 183              	.LBB223:
 184              	.LBB212:
 185              	.LBI212:
 186              		.file 3 "src/ChibiOS_3.0.2/os/rt/include/chsys.h"
 187              		.loc 3 386 20 discriminator 3 view .LVU46
 188              	.LBE212:
 189              	.LBE223:
 190              		.loc 3 388 3 discriminator 3 view .LVU47
 191              	.LBB224:
 192              	.LBB220:
 193              	.LBB213:
 194              	.LBI213:
 195              		.file 4 "src/ChibiOS_3.0.2/os/rt/ports/ARMCMx/chcore_v7m.h"
 196              		.loc 4 473 20 discriminator 3 view .LVU48
 197              	.LBE213:
 198              	.LBE220:
 199              	.LBE224:
 200              		.loc 4 475 3 discriminator 3 view .LVU49
 201              	.LBB225:
 202              	.LBB221:
 203              	.LBB218:
 204              	.LBB214:
 205              	.LBI214:
 206              		.loc 4 444 20 discriminator 3 view .LVU50
 207              	.LBE214:
 208              	.LBE218:
 209              	.LBE221:
 210              	.LBE225:
 211              		.loc 4 447 3 discriminator 3 view .LVU51
 212              	.LVL9:
 213              	.LBB226:
 214              	.LBB222:
 215              	.LBB219:
 216              	.LBB217:
 217              	.LBB215:
 218              	.LBI215:
 219              		.file 5 "src/ChibiOS_3.0.2/os/ext/CMSIS/include/core_cmFunc.h"
 220              		.loc 5 544 57 discriminator 3 view .LVU52
 221              	.LBB216:
 222              		.loc 5 546 3 discriminator 3 view .LVU53
 223 0042 2023     		movs	r3, #32
 224              		.syntax unified
 225              	@ 546 "src/ChibiOS_3.0.2/os/ext/CMSIS/include/core_cmFunc.h" 1
 226 0044 83F31188 		MSR basepri, r3
 227              	@ 0 "" 2
 228              	.LVL10:
ARM GAS  C:\Users\USER\AppData\Local\Temp\cca3YqUN.s 			page 5


 229              		.loc 5 546 3 is_stmt 0 discriminator 3 view .LVU54
 230              		.thumb
 231              		.syntax unified
 232              	.LBE216:
 233              	.LBE215:
 234              	.LBE217:
 235              	.LBE219:
 236              	.LBE222:
 237              	.LBE226:
 238              		.loc 3 389 34 is_stmt 1 discriminator 3 view .LVU55
 239              		.loc 3 390 29 discriminator 3 view .LVU56
 240              		.loc 1 322 3 discriminator 3 view .LVU57
 241              	.LBB227:
 242              	.LBI227:
 243              		.loc 2 726 20 discriminator 3 view .LVU58
 244              	.LBB228:
 245              		.loc 2 728 3 discriminator 3 view .LVU59
 246 0048 06F11C00 		add	r0, r6, #28
 247              	.LVL11:
 248              		.loc 2 728 3 is_stmt 0 discriminator 3 view .LVU60
 249 004c 2146     		mov	r1, r4
 250 004e FFF7FEFF 		bl	chThdResumeI
 251              	.LVL12:
 252              		.loc 2 728 3 discriminator 3 view .LVU61
 253              	.LBE228:
 254              	.LBE227:
 255              		.loc 1 322 3 is_stmt 1 discriminator 3 view .LVU62
 256              	.LBB229:
 257              	.LBI229:
 258              		.loc 2 524 20 discriminator 3 view .LVU63
 259              	.LBE229:
 260              		.loc 2 526 3 discriminator 3 view .LVU64
 261              	.LBB241:
 262              	.LBB230:
 263              	.LBI230:
 264              		.loc 3 406 20 discriminator 3 view .LVU65
 265              	.LBE230:
 266              	.LBE241:
 267              		.loc 3 408 31 discriminator 3 view .LVU66
 268              		.loc 3 409 33 discriminator 3 view .LVU67
 269              		.loc 3 410 3 discriminator 3 view .LVU68
 270              	.LBB242:
 271              	.LBB238:
 272              	.LBB231:
 273              	.LBI231:
 274              		.loc 4 484 20 discriminator 3 view .LVU69
 275              	.LBE231:
 276              	.LBE238:
 277              	.LBE242:
 278              		.loc 4 486 3 discriminator 3 view .LVU70
 279              	.LBB243:
 280              	.LBB239:
 281              	.LBB236:
 282              	.LBB232:
 283              	.LBI232:
 284              		.loc 4 458 20 discriminator 3 view .LVU71
 285              	.LBE232:
ARM GAS  C:\Users\USER\AppData\Local\Temp\cca3YqUN.s 			page 6


 286              	.LBE236:
 287              	.LBE239:
 288              	.LBE243:
 289              		.loc 4 461 3 discriminator 3 view .LVU72
 290              	.LBB244:
 291              	.LBB240:
 292              	.LBB237:
 293              	.LBB235:
 294              	.LBB233:
 295              	.LBI233:
 296              		.loc 5 544 57 discriminator 3 view .LVU73
 297              	.LBB234:
 298              		.loc 5 546 3 discriminator 3 view .LVU74
 299              		.syntax unified
 300              	@ 546 "src/ChibiOS_3.0.2/os/ext/CMSIS/include/core_cmFunc.h" 1
 301 0052 84F31188 		MSR basepri, r4
 302              	@ 0 "" 2
 303              	.LVL13:
 304              		.loc 5 546 3 is_stmt 0 discriminator 3 view .LVU75
 305              		.thumb
 306              		.syntax unified
 307              	.LBE234:
 308              	.LBE233:
 309              	.LBE235:
 310              	.LBE237:
 311              	.LBE240:
 312              	.LBE244:
 313              		.loc 1 323 1 discriminator 3 view .LVU76
 314 0056 70BD     		pop	{r4, r5, r6, pc}
 315              	.LVL14:
 316              	.L21:
 317              		.loc 1 311 5 is_stmt 1 view .LVU77
 318              	.LBB245:
 319              	.LBI245:
 320              		.loc 2 460 20 view .LVU78
 321              	.LBB246:
 322              		.loc 2 462 3 view .LVU79
 323 0058 0148     		ldr	r0, .L22
 324              	.LVL15:
 325              		.loc 2 462 3 is_stmt 0 view .LVU80
 326 005a FFF7FEFF 		bl	chSysHalt
 327              	.LVL16:
 328              		.loc 2 462 3 view .LVU81
 329 005e D5E7     		b	.L14
 330              	.L23:
 331              		.align	2
 332              	.L22:
 333 0060 00000000 		.word	.LC0
 334              	.LBE246:
 335              	.LBE245:
 336              		.cfi_endproc
 337              	.LFE260:
 338              		.size	i2c_lld_serve_rx_end_irq, .-i2c_lld_serve_rx_end_irq
 339              		.section	.text.VectorC4,"ax",%progbits
 340              		.align	1
 341              		.p2align 4,,15
 342              		.global	VectorC4
ARM GAS  C:\Users\USER\AppData\Local\Temp\cca3YqUN.s 			page 7


 343              		.syntax unified
 344              		.thumb
 345              		.thumb_func
 346              		.fpu fpv4-sp-d16
 347              		.type	VectorC4, %function
 348              	VectorC4:
 349              	.LFB263:
 350              		.loc 1 436 44 is_stmt 1 view -0
 351              		.cfi_startproc
 352              		@ args = 0, pretend = 0, frame = 0
 353              		@ frame_needed = 0, uses_anonymous_args = 0
 354              		.loc 1 438 3 view .LVU83
 355              		.loc 1 438 3 view .LVU84
 356              		.loc 1 438 22 view .LVU85
 357              		.loc 1 440 3 view .LVU86
 358              	.LBB263:
 359              	.LBI263:
 360              		.loc 1 245 13 view .LVU87
 361              	.LVL17:
 362              	.LBB264:
 363              		.loc 1 246 3 view .LVU88
 364              		.loc 1 246 16 is_stmt 0 view .LVU89
 365 0000 3848     		ldr	r0, .L42
 366              		.loc 1 253 3 view .LVU90
 367 0002 394A     		ldr	r2, .L42+4
 368              	.LBE264:
 369              	.LBE263:
 370              		.loc 1 436 44 view .LVU91
 371 0004 70B5     		push	{r4, r5, r6, lr}
 372              		.cfi_def_cfa_offset 16
 373              		.cfi_offset 4, -16
 374              		.cfi_offset 5, -12
 375              		.cfi_offset 6, -8
 376              		.cfi_offset 14, -4
 377              	.LBB310:
 378              	.LBB299:
 379              		.loc 1 246 16 view .LVU92
 380 0006 446B     		ldr	r4, [r0, #52]
 381              	.LVL18:
 382              		.loc 1 247 3 is_stmt 1 view .LVU93
 383              		.loc 1 247 12 is_stmt 0 view .LVU94
 384 0008 A369     		ldr	r3, [r4, #24]
 385              	.LVL19:
 386              		.loc 1 248 3 is_stmt 1 view .LVU95
 387              		.loc 1 248 12 is_stmt 0 view .LVU96
 388 000a 6569     		ldr	r5, [r4, #20]
 389              	.LVL20:
 390              		.loc 1 253 3 is_stmt 1 view .LVU97
 391              		.loc 1 253 32 is_stmt 0 view .LVU98
 392 000c 45EA0343 		orr	r3, r5, r3, lsl #16
 393              	.LVL21:
 394              		.loc 1 253 23 view .LVU99
 395 0010 23F07F43 		bic	r3, r3, #-16777216
 396              		.loc 1 253 3 view .LVU100
 397 0014 9342     		cmp	r3, r2
 398 0016 55D0     		beq	.L25
 399 0018 12D9     		bls	.L40
ARM GAS  C:\Users\USER\AppData\Local\Temp\cca3YqUN.s 			page 8


 400 001a 344A     		ldr	r2, .L42+8
 401 001c 9342     		cmp	r3, r2
 402 001e 56D0     		beq	.L30
 403 0020 0232     		adds	r2, r2, #2
 404 0022 9342     		cmp	r3, r2
 405 0024 23D1     		bne	.L29
 406              		.loc 1 279 5 is_stmt 1 view .LVU101
 407              		.loc 1 279 9 is_stmt 0 view .LVU102
 408 0026 C36A     		ldr	r3, [r0, #44]
 409 0028 1B68     		ldr	r3, [r3]
 410 002a 5E68     		ldr	r6, [r3, #4]
 411              		.loc 1 279 8 view .LVU103
 412 002c 3EB3     		cbz	r6, .L33
 413              		.loc 1 281 7 is_stmt 1 view .LVU104
 414              		.loc 1 281 18 is_stmt 0 view .LVU105
 415 002e 028C     		ldrh	r2, [r0, #32]
 416              		.loc 1 282 15 view .LVU106
 417 0030 2368     		ldr	r3, [r4]
 418              		.loc 1 281 18 view .LVU107
 419 0032 42F00102 		orr	r2, r2, #1
 420              		.loc 1 282 15 view .LVU108
 421 0036 43F4A063 		orr	r3, r3, #1280
 422              		.loc 1 281 18 view .LVU109
 423 003a 0284     		strh	r2, [r0, #32]	@ movhi
 424              		.loc 1 282 7 is_stmt 1 view .LVU110
 425              		.loc 1 282 15 is_stmt 0 view .LVU111
 426 003c 2360     		str	r3, [r4]
 427              		.loc 1 283 7 is_stmt 1 view .LVU112
 428 003e 1AE0     		b	.L34
 429              	.L40:
 430              		.loc 1 253 3 is_stmt 0 view .LVU113
 431 0040 073A     		subs	r2, r2, #7
 432 0042 9342     		cmp	r3, r2
 433 0044 32D0     		beq	.L27
 434 0046 0132     		adds	r2, r2, #1
 435 0048 9342     		cmp	r3, r2
 436 004a 10D1     		bne	.L29
 437              		.loc 1 267 5 is_stmt 1 view .LVU114
 438              		.loc 1 267 13 is_stmt 0 view .LVU115
 439 004c 6268     		ldr	r2, [r4, #4]
 440              		.loc 1 268 5 view .LVU116
 441 004e C36A     		ldr	r3, [r0, #44]
 442              		.loc 1 267 13 view .LVU117
 443 0050 22F40072 		bic	r2, r2, #512
 444              		.loc 1 268 5 view .LVU118
 445 0054 1B68     		ldr	r3, [r3]
 446              		.loc 1 267 13 view .LVU119
 447 0056 6260     		str	r2, [r4, #4]
 448              		.loc 1 268 5 is_stmt 1 view .LVU120
 449 0058 1A68     		ldr	r2, [r3]
 450 005a 42F00102 		orr	r2, r2, #1
 451 005e 1A60     		str	r2, [r3]
 452              		.loc 1 268 33 view .LVU121
 453              		.loc 1 269 5 view .LVU122
 454              		.loc 1 269 13 is_stmt 0 view .LVU123
 455 0060 6268     		ldr	r2, [r4, #4]
 456 0062 42F48052 		orr	r2, r2, #4096
ARM GAS  C:\Users\USER\AppData\Local\Temp\cca3YqUN.s 			page 9


 457 0066 6260     		str	r2, [r4, #4]
 458              		.loc 1 270 5 is_stmt 1 view .LVU124
 459              		.loc 1 270 9 is_stmt 0 view .LVU125
 460 0068 5B68     		ldr	r3, [r3, #4]
 461              		.loc 1 270 8 view .LVU126
 462 006a 012B     		cmp	r3, #1
 463 006c 19D9     		bls	.L41
 464              	.L29:
 465              		.loc 1 293 3 is_stmt 1 view .LVU127
 466              		.loc 1 293 6 is_stmt 0 view .LVU128
 467 006e 15F00A0F 		tst	r5, #10
 468              		.loc 1 294 5 is_stmt 1 view .LVU129
 469 0072 18BF     		it	ne
 470 0074 A369     		ldrne	r3, [r4, #24]
 471              	.L34:
 472              	.LVL22:
 473              		.loc 1 294 5 is_stmt 0 view .LVU130
 474              	.LBE299:
 475              	.LBE310:
 476              		.loc 1 442 3 is_stmt 1 view .LVU131
 477              		.loc 1 442 3 view .LVU132
 478              		.loc 1 443 1 is_stmt 0 view .LVU133
 479 0076 BDE87040 		pop	{r4, r5, r6, lr}
 480              		.cfi_remember_state
 481              		.cfi_restore 14
 482              		.cfi_restore 6
 483              		.cfi_restore 5
 484              		.cfi_restore 4
 485              		.cfi_def_cfa_offset 0
 486              		.loc 1 442 3 view .LVU134
 487 007a FFF7FEBF 		b	_port_irq_epilogue
 488              	.LVL23:
 489              	.L33:
 490              		.cfi_restore_state
 491              	.LBB311:
 492              	.LBB300:
 493              		.loc 1 285 5 is_stmt 1 view .LVU135
 494              		.loc 1 285 13 is_stmt 0 view .LVU136
 495 007e 6368     		ldr	r3, [r4, #4]
 496 0080 23F40073 		bic	r3, r3, #512
 497 0084 6360     		str	r3, [r4, #4]
 498              		.loc 1 286 5 is_stmt 1 view .LVU137
 499              		.loc 1 286 13 is_stmt 0 view .LVU138
 500 0086 2368     		ldr	r3, [r4]
 501 0088 43F40073 		orr	r3, r3, #512
 502 008c 2360     		str	r3, [r4]
 503              		.loc 1 287 5 is_stmt 1 view .LVU139
 504              		.loc 1 287 5 view .LVU140
 505              	.LBB265:
 506              	.LBI265:
 507              		.loc 2 513 20 view .LVU141
 508              	.LBE265:
 509              	.LBE300:
 510              	.LBE311:
 511              		.loc 2 515 3 view .LVU142
 512              	.LBB312:
 513              	.LBB301:
ARM GAS  C:\Users\USER\AppData\Local\Temp\cca3YqUN.s 			page 10


 514              	.LBB277:
 515              	.LBB266:
 516              	.LBI266:
 517              		.loc 3 386 20 view .LVU143
 518              	.LBE266:
 519              	.LBE277:
 520              	.LBE301:
 521              	.LBE312:
 522              		.loc 3 388 3 view .LVU144
 523              	.LBB313:
 524              	.LBB302:
 525              	.LBB278:
 526              	.LBB274:
 527              	.LBB267:
 528              	.LBI267:
 529              		.loc 4 473 20 view .LVU145
 530              	.LBE267:
 531              	.LBE274:
 532              	.LBE278:
 533              	.LBE302:
 534              	.LBE313:
 535              		.loc 4 475 3 view .LVU146
 536              	.LBB314:
 537              	.LBB303:
 538              	.LBB279:
 539              	.LBB275:
 540              	.LBB272:
 541              	.LBB268:
 542              	.LBI268:
 543              		.loc 4 444 20 view .LVU147
 544              	.LBE268:
 545              	.LBE272:
 546              	.LBE275:
 547              	.LBE279:
 548              	.LBE303:
 549              	.LBE314:
 550              		.loc 4 447 3 view .LVU148
 551              	.LVL24:
 552              	.LBB315:
 553              	.LBB304:
 554              	.LBB280:
 555              	.LBB276:
 556              	.LBB273:
 557              	.LBB271:
 558              	.LBB269:
 559              	.LBI269:
 560              		.loc 5 544 57 view .LVU149
 561              	.LBB270:
 562              		.loc 5 546 3 view .LVU150
 563 008e 2023     		movs	r3, #32
 564              		.syntax unified
 565              	@ 546 "src/ChibiOS_3.0.2/os/ext/CMSIS/include/core_cmFunc.h" 1
 566 0090 83F31188 		MSR basepri, r3
 567              	@ 0 "" 2
 568              	.LVL25:
 569              		.loc 5 546 3 is_stmt 0 view .LVU151
 570              		.thumb
ARM GAS  C:\Users\USER\AppData\Local\Temp\cca3YqUN.s 			page 11


 571              		.syntax unified
 572              	.LBE270:
 573              	.LBE269:
 574              	.LBE271:
 575              	.LBE273:
 576              	.LBE276:
 577              	.LBE280:
 578              	.LBE304:
 579              	.LBE315:
 580              		.loc 3 389 34 is_stmt 1 view .LVU152
 581              		.loc 3 390 29 view .LVU153
 582              	.LBB316:
 583              	.LBB305:
 584              		.loc 1 287 5 view .LVU154
 585              	.LBB281:
 586              	.LBI281:
 587              		.loc 2 726 20 view .LVU155
 588              	.LBB282:
 589              		.loc 2 728 3 view .LVU156
 590 0094 1C30     		adds	r0, r0, #28
 591 0096 3146     		mov	r1, r6
 592 0098 FFF7FEFF 		bl	chThdResumeI
 593              	.LVL26:
 594              		.loc 2 728 3 is_stmt 0 view .LVU157
 595              	.LBE282:
 596              	.LBE281:
 597              		.loc 1 287 5 is_stmt 1 view .LVU158
 598              	.LBB283:
 599              	.LBI283:
 600              		.loc 2 524 20 view .LVU159
 601              	.LBE283:
 602              	.LBE305:
 603              	.LBE316:
 604              		.loc 2 526 3 view .LVU160
 605              	.LBB317:
 606              	.LBB306:
 607              	.LBB295:
 608              	.LBB284:
 609              	.LBI284:
 610              		.loc 3 406 20 view .LVU161
 611              	.LBE284:
 612              	.LBE295:
 613              	.LBE306:
 614              	.LBE317:
 615              		.loc 3 408 31 view .LVU162
 616              		.loc 3 409 33 view .LVU163
 617              		.loc 3 410 3 view .LVU164
 618              	.LBB318:
 619              	.LBB307:
 620              	.LBB296:
 621              	.LBB292:
 622              	.LBB285:
 623              	.LBI285:
 624              		.loc 4 484 20 view .LVU165
 625              	.LBE285:
 626              	.LBE292:
 627              	.LBE296:
ARM GAS  C:\Users\USER\AppData\Local\Temp\cca3YqUN.s 			page 12


 628              	.LBE307:
 629              	.LBE318:
 630              		.loc 4 486 3 view .LVU166
 631              	.LBB319:
 632              	.LBB308:
 633              	.LBB297:
 634              	.LBB293:
 635              	.LBB290:
 636              	.LBB286:
 637              	.LBI286:
 638              		.loc 4 458 20 view .LVU167
 639              	.LBE286:
 640              	.LBE290:
 641              	.LBE293:
 642              	.LBE297:
 643              	.LBE308:
 644              	.LBE319:
 645              		.loc 4 461 3 view .LVU168
 646              	.LBB320:
 647              	.LBB309:
 648              	.LBB298:
 649              	.LBB294:
 650              	.LBB291:
 651              	.LBB289:
 652              	.LBB287:
 653              	.LBI287:
 654              		.loc 5 544 57 view .LVU169
 655              	.LBB288:
 656              		.loc 5 546 3 view .LVU170
 657              		.syntax unified
 658              	@ 546 "src/ChibiOS_3.0.2/os/ext/CMSIS/include/core_cmFunc.h" 1
 659 009c 86F31188 		MSR basepri, r6
 660              	@ 0 "" 2
 661              	.LVL27:
 662              		.loc 5 546 3 is_stmt 0 view .LVU171
 663              		.thumb
 664              		.syntax unified
 665 00a0 E5E7     		b	.L29
 666              	.L41:
 667              		.loc 5 546 3 view .LVU172
 668              	.LBE288:
 669              	.LBE287:
 670              	.LBE289:
 671              	.LBE291:
 672              	.LBE294:
 673              	.LBE298:
 674              		.loc 1 271 7 is_stmt 1 view .LVU173
 675              		.loc 1 271 15 is_stmt 0 view .LVU174
 676 00a2 2368     		ldr	r3, [r4]
 677 00a4 23F48063 		bic	r3, r3, #1024
 678 00a8 2360     		str	r3, [r4]
 679 00aa E0E7     		b	.L29
 680              	.L27:
 681              		.loc 1 255 5 is_stmt 1 view .LVU175
 682              		.loc 1 255 14 is_stmt 0 view .LVU176
 683 00ac 038C     		ldrh	r3, [r0, #32]
 684              		.loc 1 255 8 view .LVU177
ARM GAS  C:\Users\USER\AppData\Local\Temp\cca3YqUN.s 			page 13


 685 00ae 1A0A     		lsrs	r2, r3, #8
 686 00b0 0BD0     		beq	.L39
 687              		.loc 1 257 7 is_stmt 1 view .LVU178
 688              		.loc 1 257 49 is_stmt 0 view .LVU179
 689 00b2 02F00602 		and	r2, r2, #6
 690 00b6 03F00103 		and	r3, r3, #1
 691 00ba 1343     		orrs	r3, r3, r2
 692 00bc 43F0F003 		orr	r3, r3, #240
 693              		.loc 1 257 14 view .LVU180
 694 00c0 2361     		str	r3, [r4, #16]
 695 00c2 D4E7     		b	.L29
 696              	.L25:
 697              		.loc 1 264 5 is_stmt 1 view .LVU181
 698              		.loc 1 264 20 is_stmt 0 view .LVU182
 699 00c4 038C     		ldrh	r3, [r0, #32]
 700 00c6 C3F34703 		ubfx	r3, r3, #1, #8
 701              	.L39:
 702              		.loc 1 264 12 view .LVU183
 703 00ca 2361     		str	r3, [r4, #16]
 704              		.loc 1 265 5 is_stmt 1 view .LVU184
 705 00cc CFE7     		b	.L29
 706              	.L30:
 707              		.loc 1 274 5 view .LVU185
 708              		.loc 1 274 13 is_stmt 0 view .LVU186
 709 00ce 6368     		ldr	r3, [r4, #4]
 710              		.loc 1 275 5 view .LVU187
 711 00d0 026B     		ldr	r2, [r0, #48]
 712              		.loc 1 274 13 view .LVU188
 713 00d2 23F40073 		bic	r3, r3, #512
 714              		.loc 1 275 5 view .LVU189
 715 00d6 1268     		ldr	r2, [r2]
 716              		.loc 1 274 13 view .LVU190
 717 00d8 6360     		str	r3, [r4, #4]
 718              		.loc 1 275 5 is_stmt 1 view .LVU191
 719 00da 1368     		ldr	r3, [r2]
 720 00dc 43F00103 		orr	r3, r3, #1
 721 00e0 1360     		str	r3, [r2]
 722              		.loc 1 275 33 view .LVU192
 723              		.loc 1 276 5 view .LVU193
 724 00e2 C4E7     		b	.L29
 725              	.L43:
 726              		.align	2
 727              	.L42:
 728 00e4 00000000 		.word	.LANCHOR0
 729 00e8 08000300 		.word	196616
 730 00ec 82000700 		.word	458882
 731              	.LBE309:
 732              	.LBE320:
 733              		.cfi_endproc
 734              	.LFE263:
 735              		.size	VectorC4, .-VectorC4
 736              		.section	.text.VectorC8,"ax",%progbits
 737              		.align	1
 738              		.p2align 4,,15
 739              		.global	VectorC8
 740              		.syntax unified
 741              		.thumb
ARM GAS  C:\Users\USER\AppData\Local\Temp\cca3YqUN.s 			page 14


 742              		.thumb_func
 743              		.fpu fpv4-sp-d16
 744              		.type	VectorC8, %function
 745              	VectorC8:
 746              	.LFB264:
 747              		.loc 1 450 44 view -0
 748              		.cfi_startproc
 749              		@ args = 0, pretend = 0, frame = 0
 750              		@ frame_needed = 0, uses_anonymous_args = 0
 751              		.loc 1 451 3 view .LVU195
 752              		.loc 1 451 22 is_stmt 0 view .LVU196
 753 0000 3449     		ldr	r1, .L75
 754              		.loc 1 450 44 view .LVU197
 755 0002 F8B5     		push	{r3, r4, r5, r6, r7, lr}
 756              		.cfi_def_cfa_offset 24
 757              		.cfi_offset 3, -24
 758              		.cfi_offset 4, -20
 759              		.cfi_offset 5, -16
 760              		.cfi_offset 6, -12
 761              		.cfi_offset 7, -8
 762              		.cfi_offset 14, -4
 763              	.LBB337:
 764              	.LBB338:
 765              		.loc 1 362 3 view .LVU198
 766 0004 D1E90C34 		ldrd	r3, r4, [r1, #48]
 767              	.LBE338:
 768              	.LBE337:
 769              		.loc 1 451 26 view .LVU199
 770 0008 6069     		ldr	r0, [r4, #20]
 771              	.LBB386:
 772              	.LBB373:
 773              		.loc 1 362 3 view .LVU200
 774 000a 1D68     		ldr	r5, [r3]
 775              	.LBE373:
 776              	.LBE386:
 777              		.loc 1 455 25 view .LVU201
 778 000c 00F45F42 		and	r2, r0, #57088
 779              		.loc 1 455 20 view .LVU202
 780 0010 D243     		mvns	r2, r2
 781              		.loc 1 455 18 view .LVU203
 782 0012 6261     		str	r2, [r4, #20]
 783              	.LBB387:
 784              	.LBB374:
 785              		.loc 1 362 3 view .LVU204
 786 0014 2A68     		ldr	r2, [r5]
 787 0016 22F01F02 		bic	r2, r2, #31
 788 001a 2A60     		str	r2, [r5]
 789              	.LBE374:
 790              	.LBE387:
 791              		.loc 1 451 12 view .LVU205
 792 001c 82B2     		uxth	r2, r0
 793              	.LVL28:
 794              		.loc 1 453 3 is_stmt 1 view .LVU206
 795              		.loc 1 453 3 view .LVU207
 796              		.loc 1 453 22 view .LVU208
 797              		.loc 1 455 3 view .LVU209
 798              		.loc 1 456 3 view .LVU210
ARM GAS  C:\Users\USER\AppData\Local\Temp\cca3YqUN.s 			page 15


 799              	.LBB388:
 800              	.LBI337:
 801              		.loc 1 359 13 view .LVU211
 802              	.LBB375:
 803              		.loc 1 362 3 view .LVU212
 804              		.loc 1 362 3 view .LVU213
 805              	.L45:
 806              		.loc 1 362 3 view .LVU214
 807 001e 2E68     		ldr	r6, [r5]
 808 0020 F707     		lsls	r7, r6, #31
 809 0022 FCD4     		bmi	.L45
 810              		.loc 1 362 3 view .LVU215
 811 0024 93F808C0 		ldrb	ip, [r3, #8]	@ zero_extendqisi2
 812              		.loc 1 363 3 is_stmt 0 view .LVU216
 813 0028 CD6A     		ldr	r5, [r1, #44]
 814              		.loc 1 362 3 view .LVU217
 815 002a 5F68     		ldr	r7, [r3, #4]
 816              		.loc 1 363 3 view .LVU218
 817 002c 2B68     		ldr	r3, [r5]
 818              		.loc 1 362 3 view .LVU219
 819 002e 3D26     		movs	r6, #61
 820 0030 06FA0CF6 		lsl	r6, r6, ip
 821 0034 3E60     		str	r6, [r7]
 822              		.loc 1 362 3 is_stmt 1 view .LVU220
 823              		.loc 1 362 32 view .LVU221
 824              		.loc 1 363 3 view .LVU222
 825 0036 1E68     		ldr	r6, [r3]
 826 0038 26F01F06 		bic	r6, r6, #31
 827 003c 1E60     		str	r6, [r3]
 828              		.loc 1 363 3 view .LVU223
 829              	.L46:
 830              		.loc 1 363 3 view .LVU224
 831 003e 1E68     		ldr	r6, [r3]
 832 0040 F607     		lsls	r6, r6, #31
 833 0042 FCD4     		bmi	.L46
 834              		.loc 1 363 3 view .LVU225
 835 0044 2E7A     		ldrb	r6, [r5, #8]	@ zero_extendqisi2
 836 0046 6D68     		ldr	r5, [r5, #4]
 837 0048 3D23     		movs	r3, #61
 838 004a B340     		lsls	r3, r3, r6
 839 004c 2B60     		str	r3, [r5]
 840              		.loc 1 363 3 view .LVU226
 841              		.loc 1 363 32 view .LVU227
 842              		.loc 1 365 3 view .LVU228
 843              		.loc 1 367 3 view .LVU229
 844              		.loc 1 367 6 is_stmt 0 view .LVU230
 845 004e 12F48073 		ands	r3, r2, #256
 846              		.loc 1 368 5 is_stmt 1 view .LVU231
 847              		.loc 1 370 3 view .LVU232
 848              		.loc 1 368 18 is_stmt 0 view .LVU233
 849 0052 18BF     		it	ne
 850 0054 0123     		movne	r3, #1
 851              		.loc 1 370 6 view .LVU234
 852 0056 9705     		lsls	r7, r2, #22
 853              		.loc 1 371 5 is_stmt 1 view .LVU235
 854              		.loc 1 373 3 view .LVU236
 855              		.loc 1 368 18 is_stmt 0 view .LVU237
ARM GAS  C:\Users\USER\AppData\Local\Temp\cca3YqUN.s 			page 16


 856 0058 8B60     		str	r3, [r1, #8]
 857              		.loc 1 371 18 view .LVU238
 858 005a 44BF     		itt	mi
 859 005c 43F00203 		orrmi	r3, r3, #2
 860 0060 8B60     		strmi	r3, [r1, #8]
 861              		.loc 1 373 6 view .LVU239
 862 0062 5605     		lsls	r6, r2, #21
 863 0064 0AD5     		bpl	.L50
 864              		.loc 1 374 5 is_stmt 1 view .LVU240
 865              		.loc 1 374 20 is_stmt 0 view .LVU241
 866 0066 6568     		ldr	r5, [r4, #4]
 867 0068 25F40075 		bic	r5, r5, #512
 868 006c 6560     		str	r5, [r4, #4]
 869              		.loc 1 375 5 is_stmt 1 view .LVU242
 870              		.loc 1 375 20 is_stmt 0 view .LVU243
 871 006e 2568     		ldr	r5, [r4]
 872              		.loc 1 376 18 view .LVU244
 873 0070 43F00403 		orr	r3, r3, #4
 874              		.loc 1 375 20 view .LVU245
 875 0074 45F40075 		orr	r5, r5, #512
 876 0078 2560     		str	r5, [r4]
 877              		.loc 1 376 5 is_stmt 1 view .LVU246
 878              		.loc 1 376 18 is_stmt 0 view .LVU247
 879 007a 8B60     		str	r3, [r1, #8]
 880              	.L50:
 881              		.loc 1 379 3 is_stmt 1 view .LVU248
 882              		.loc 1 379 6 is_stmt 0 view .LVU249
 883 007c 1505     		lsls	r5, r2, #20
 884              		.loc 1 380 5 is_stmt 1 view .LVU250
 885              		.loc 1 382 3 view .LVU251
 886              		.loc 1 380 18 is_stmt 0 view .LVU252
 887 007e 44BF     		itt	mi
 888 0080 43F00803 		orrmi	r3, r3, #8
 889 0084 8B60     		strmi	r3, [r1, #8]
 890              		.loc 1 382 6 view .LVU253
 891 0086 5404     		lsls	r4, r2, #17
 892              		.loc 1 383 5 is_stmt 1 view .LVU254
 893              		.loc 1 385 3 view .LVU255
 894              		.loc 1 383 18 is_stmt 0 view .LVU256
 895 0088 44BF     		itt	mi
 896 008a 43F02003 		orrmi	r3, r3, #32
 897 008e 8B60     		strmi	r3, [r1, #8]
 898              		.loc 1 385 6 view .LVU257
 899 0090 D204     		lsls	r2, r2, #19
 900              	.LVL29:
 901              		.loc 1 385 6 view .LVU258
 902 0092 00B2     		sxth	r0, r0
 903              		.loc 1 385 6 view .LVU259
 904 0094 16D5     		bpl	.L53
 905              		.loc 1 386 5 is_stmt 1 view .LVU260
 906              		.loc 1 386 18 is_stmt 0 view .LVU261
 907 0096 43F01003 		orr	r3, r3, #16
 908              		.loc 1 388 6 view .LVU262
 909 009a 0028     		cmp	r0, #0
 910              		.loc 1 386 18 view .LVU263
 911 009c 8B60     		str	r3, [r1, #8]
 912              		.loc 1 388 3 is_stmt 1 view .LVU264
ARM GAS  C:\Users\USER\AppData\Local\Temp\cca3YqUN.s 			page 17


 913              		.loc 1 388 6 is_stmt 0 view .LVU265
 914 009e 02DA     		bge	.L55
 915              	.L54:
 916              		.loc 1 389 5 is_stmt 1 view .LVU266
 917              		.loc 1 389 18 is_stmt 0 view .LVU267
 918 00a0 43F04003 		orr	r3, r3, #64
 919 00a4 8B60     		str	r3, [r1, #8]
 920              		.loc 1 392 3 is_stmt 1 view .LVU268
 921              	.L55:
 922              		.loc 1 393 5 view .LVU269
 923              		.loc 1 393 5 view .LVU270
 924              	.LBB339:
 925              	.LBI339:
 926              		.loc 2 513 20 view .LVU271
 927              	.LBE339:
 928              	.LBE375:
 929              	.LBE388:
 930              		.loc 2 515 3 view .LVU272
 931              	.LBB389:
 932              	.LBB376:
 933              	.LBB351:
 934              	.LBB340:
 935              	.LBI340:
 936              		.loc 3 386 20 view .LVU273
 937              	.LBE340:
 938              	.LBE351:
 939              	.LBE376:
 940              	.LBE389:
 941              		.loc 3 388 3 view .LVU274
 942              	.LBB390:
 943              	.LBB377:
 944              	.LBB352:
 945              	.LBB348:
 946              	.LBB341:
 947              	.LBI341:
 948              		.loc 4 473 20 view .LVU275
 949              	.LBE341:
 950              	.LBE348:
 951              	.LBE352:
 952              	.LBE377:
 953              	.LBE390:
 954              		.loc 4 475 3 view .LVU276
 955              	.LBB391:
 956              	.LBB378:
 957              	.LBB353:
 958              	.LBB349:
 959              	.LBB346:
 960              	.LBB342:
 961              	.LBI342:
 962              		.loc 4 444 20 view .LVU277
 963              	.LBE342:
 964              	.LBE346:
 965              	.LBE349:
 966              	.LBE353:
 967              	.LBE378:
 968              	.LBE391:
 969              		.loc 4 447 3 view .LVU278
ARM GAS  C:\Users\USER\AppData\Local\Temp\cca3YqUN.s 			page 18


 970              	.LVL30:
 971              	.LBB392:
 972              	.LBB379:
 973              	.LBB354:
 974              	.LBB350:
 975              	.LBB347:
 976              	.LBB345:
 977              	.LBB343:
 978              	.LBI343:
 979              		.loc 5 544 57 view .LVU279
 980              	.LBB344:
 981              		.loc 5 546 3 view .LVU280
 982 00a6 2023     		movs	r3, #32
 983              		.syntax unified
 984              	@ 546 "src/ChibiOS_3.0.2/os/ext/CMSIS/include/core_cmFunc.h" 1
 985 00a8 83F31188 		MSR basepri, r3
 986              	@ 0 "" 2
 987              	.LVL31:
 988              		.loc 5 546 3 is_stmt 0 view .LVU281
 989              		.thumb
 990              		.syntax unified
 991              	.LBE344:
 992              	.LBE343:
 993              	.LBE345:
 994              	.LBE347:
 995              	.LBE350:
 996              	.LBE354:
 997              	.LBE379:
 998              	.LBE392:
 999              		.loc 3 389 34 is_stmt 1 view .LVU282
 1000              		.loc 3 390 29 view .LVU283
 1001              	.LBB393:
 1002              	.LBB380:
 1003              		.loc 1 393 5 view .LVU284
 1004              	.LBB355:
 1005              	.LBI355:
 1006              		.loc 2 726 20 view .LVU285
 1007              	.LBB356:
 1008              		.loc 2 728 3 view .LVU286
 1009 00ac 6FF00101 		mvn	r1, #1
 1010 00b0 0948     		ldr	r0, .L75+4
 1011              	.LVL32:
 1012              		.loc 2 728 3 is_stmt 0 view .LVU287
 1013 00b2 FFF7FEFF 		bl	chThdResumeI
 1014              	.LVL33:
 1015              		.loc 2 728 3 view .LVU288
 1016              	.LBE356:
 1017              	.LBE355:
 1018              		.loc 1 393 5 is_stmt 1 view .LVU289
 1019              	.LBB357:
 1020              	.LBI357:
 1021              		.loc 2 524 20 view .LVU290
 1022              	.LBE357:
 1023              	.LBE380:
 1024              	.LBE393:
 1025              		.loc 2 526 3 view .LVU291
 1026              	.LBB394:
ARM GAS  C:\Users\USER\AppData\Local\Temp\cca3YqUN.s 			page 19


 1027              	.LBB381:
 1028              	.LBB369:
 1029              	.LBB358:
 1030              	.LBI358:
 1031              		.loc 3 406 20 view .LVU292
 1032              	.LBE358:
 1033              	.LBE369:
 1034              	.LBE381:
 1035              	.LBE394:
 1036              		.loc 3 408 31 view .LVU293
 1037              		.loc 3 409 33 view .LVU294
 1038              		.loc 3 410 3 view .LVU295
 1039              	.LBB395:
 1040              	.LBB382:
 1041              	.LBB370:
 1042              	.LBB366:
 1043              	.LBB359:
 1044              	.LBI359:
 1045              		.loc 4 484 20 view .LVU296
 1046              	.LBE359:
 1047              	.LBE366:
 1048              	.LBE370:
 1049              	.LBE382:
 1050              	.LBE395:
 1051              		.loc 4 486 3 view .LVU297
 1052              	.LBB396:
 1053              	.LBB383:
 1054              	.LBB371:
 1055              	.LBB367:
 1056              	.LBB364:
 1057              	.LBB360:
 1058              	.LBI360:
 1059              		.loc 4 458 20 view .LVU298
 1060              	.LBE360:
 1061              	.LBE364:
 1062              	.LBE367:
 1063              	.LBE371:
 1064              	.LBE383:
 1065              	.LBE396:
 1066              		.loc 4 461 3 view .LVU299
 1067              	.LBB397:
 1068              	.LBB384:
 1069              	.LBB372:
 1070              	.LBB368:
 1071              	.LBB365:
 1072              	.LBB363:
 1073              	.LBB361:
 1074              	.LBI361:
 1075              		.loc 5 544 57 view .LVU300
 1076              	.LBB362:
 1077              		.loc 5 546 3 view .LVU301
 1078 00b6 0023     		movs	r3, #0
 1079              		.syntax unified
 1080              	@ 546 "src/ChibiOS_3.0.2/os/ext/CMSIS/include/core_cmFunc.h" 1
 1081 00b8 83F31188 		MSR basepri, r3
 1082              	@ 0 "" 2
 1083              	.LVL34:
ARM GAS  C:\Users\USER\AppData\Local\Temp\cca3YqUN.s 			page 20


 1084              		.loc 5 546 3 is_stmt 0 view .LVU302
 1085              		.thumb
 1086              		.syntax unified
 1087              	.LBE362:
 1088              	.LBE361:
 1089              	.LBE363:
 1090              	.LBE365:
 1091              	.LBE368:
 1092              	.LBE372:
 1093              	.LBE384:
 1094              	.LBE397:
 1095              		.loc 1 458 3 is_stmt 1 view .LVU303
 1096              		.loc 1 458 3 view .LVU304
 1097              		.loc 1 459 1 is_stmt 0 view .LVU305
 1098 00bc BDE8F840 		pop	{r3, r4, r5, r6, r7, lr}
 1099              		.cfi_remember_state
 1100              		.cfi_restore 14
 1101              		.cfi_restore 7
 1102              		.cfi_restore 6
 1103              		.cfi_restore 5
 1104              		.cfi_restore 4
 1105              		.cfi_restore 3
 1106              		.cfi_def_cfa_offset 0
 1107              		.loc 1 458 3 view .LVU306
 1108 00c0 FFF7FEBF 		b	_port_irq_epilogue
 1109              	.LVL35:
 1110              	.L53:
 1111              		.cfi_restore_state
 1112              	.LBB398:
 1113              	.LBB385:
 1114              		.loc 1 388 3 is_stmt 1 view .LVU307
 1115              		.loc 1 388 6 is_stmt 0 view .LVU308
 1116 00c4 0028     		cmp	r0, #0
 1117 00c6 EBDB     		blt	.L54
 1118              		.loc 1 392 3 is_stmt 1 view .LVU309
 1119              		.loc 1 392 6 is_stmt 0 view .LVU310
 1120 00c8 002B     		cmp	r3, #0
 1121 00ca ECD1     		bne	.L55
 1122              	.LVL36:
 1123              		.loc 1 392 6 view .LVU311
 1124              	.LBE385:
 1125              	.LBE398:
 1126              		.loc 1 458 3 is_stmt 1 view .LVU312
 1127              		.loc 1 458 3 view .LVU313
 1128              		.loc 1 459 1 is_stmt 0 view .LVU314
 1129 00cc BDE8F840 		pop	{r3, r4, r5, r6, r7, lr}
 1130              		.cfi_restore 14
 1131              		.cfi_restore 7
 1132              		.cfi_restore 6
 1133              		.cfi_restore 5
 1134              		.cfi_restore 4
 1135              		.cfi_restore 3
 1136              		.cfi_def_cfa_offset 0
 1137              		.loc 1 458 3 view .LVU315
 1138 00d0 FFF7FEBF 		b	_port_irq_epilogue
 1139              	.LVL37:
 1140              	.L76:
ARM GAS  C:\Users\USER\AppData\Local\Temp\cca3YqUN.s 			page 21


 1141              		.loc 1 458 3 view .LVU316
 1142              		.align	2
 1143              	.L75:
 1144 00d4 00000000 		.word	.LANCHOR0
 1145 00d8 1C000000 		.word	.LANCHOR0+28
 1146              		.cfi_endproc
 1147              	.LFE264:
 1148              		.size	VectorC8, .-VectorC8
 1149              		.section	.text.i2c_lld_init,"ax",%progbits
 1150              		.align	1
 1151              		.p2align 4,,15
 1152              		.global	i2c_lld_init
 1153              		.syntax unified
 1154              		.thumb
 1155              		.thumb_func
 1156              		.fpu fpv4-sp-d16
 1157              		.type	i2c_lld_init, %function
 1158              	i2c_lld_init:
 1159              	.LFB265:
 1160              		.loc 1 503 25 is_stmt 1 view -0
 1161              		.cfi_startproc
 1162              		@ args = 0, pretend = 0, frame = 0
 1163              		@ frame_needed = 0, uses_anonymous_args = 0
 1164              		.loc 1 514 3 view .LVU318
 1165              		.loc 1 503 25 is_stmt 0 view .LVU319
 1166 0000 10B5     		push	{r4, lr}
 1167              		.cfi_def_cfa_offset 8
 1168              		.cfi_offset 4, -8
 1169              		.cfi_offset 14, -4
 1170              		.loc 1 514 3 view .LVU320
 1171 0002 074C     		ldr	r4, .L79
 1172 0004 2046     		mov	r0, r4
 1173 0006 FFF7FEFF 		bl	i2cObjectInit
 1174              	.LVL38:
 1175              		.loc 1 515 3 is_stmt 1 view .LVU321
 1176              		.loc 1 517 16 is_stmt 0 view .LVU322
 1177 000a 064B     		ldr	r3, .L79+4
 1178              		.loc 1 516 16 view .LVU323
 1179 000c 064A     		ldr	r2, .L79+8
 1180 000e 6263     		str	r2, [r4, #52]
 1181              		.loc 1 515 16 view .LVU324
 1182 0010 0021     		movs	r1, #0
 1183              		.loc 1 518 16 view .LVU325
 1184 0012 03F13C02 		add	r2, r3, #60
 1185              		.loc 1 515 16 view .LVU326
 1186 0016 E161     		str	r1, [r4, #28]
 1187              		.loc 1 516 3 is_stmt 1 view .LVU327
 1188              		.loc 1 517 3 view .LVU328
 1189              		.loc 1 518 16 is_stmt 0 view .LVU329
 1190 0018 C4E90B32 		strd	r3, r2, [r4, #44]
 1191              		.loc 1 528 1 view .LVU330
 1192 001c 10BD     		pop	{r4, pc}
 1193              	.L80:
 1194 001e 00BF     		.align	2
 1195              	.L79:
 1196 0020 00000000 		.word	.LANCHOR0
 1197 0024 18000000 		.word	_stm32_dma_streams+24
ARM GAS  C:\Users\USER\AppData\Local\Temp\cca3YqUN.s 			page 22


 1198 0028 00580040 		.word	1073764352
 1199              		.cfi_endproc
 1200              	.LFE265:
 1201              		.size	i2c_lld_init, .-i2c_lld_init
 1202              		.section	.text.i2c_lld_start,"ax",%progbits
 1203              		.align	1
 1204              		.p2align 4,,15
 1205              		.global	i2c_lld_start
 1206              		.syntax unified
 1207              		.thumb
 1208              		.thumb_func
 1209              		.fpu fpv4-sp-d16
 1210              		.type	i2c_lld_start, %function
 1211              	i2c_lld_start:
 1212              	.LVL39:
 1213              	.LFB266:
 1214              		.loc 1 537 37 is_stmt 1 view -0
 1215              		.cfi_startproc
 1216              		@ args = 0, pretend = 0, frame = 0
 1217              		@ frame_needed = 0, uses_anonymous_args = 0
 1218              		.loc 1 538 3 view .LVU332
 1219              		.loc 1 537 37 is_stmt 0 view .LVU333
 1220 0000 F8B5     		push	{r3, r4, r5, r6, r7, lr}
 1221              		.cfi_def_cfa_offset 24
 1222              		.cfi_offset 3, -24
 1223              		.cfi_offset 4, -20
 1224              		.cfi_offset 5, -16
 1225              		.cfi_offset 6, -12
 1226              		.cfi_offset 7, -8
 1227              		.cfi_offset 14, -4
 1228              		.loc 1 550 6 view .LVU334
 1229 0002 0378     		ldrb	r3, [r0]	@ zero_extendqisi2
 1230              		.loc 1 538 16 view .LVU335
 1231 0004 456B     		ldr	r5, [r0, #52]
 1232              	.LVL40:
 1233              		.loc 1 540 3 is_stmt 1 view .LVU336
 1234              		.loc 1 544 3 view .LVU337
 1235              		.loc 1 550 3 view .LVU338
 1236              		.loc 1 540 19 is_stmt 0 view .LVU339
 1237 0006 40F25642 		movw	r2, #1110
 1238 000a 8262     		str	r2, [r0, #40]
 1239              		.loc 1 550 6 view .LVU340
 1240 000c 012B     		cmp	r3, #1
 1241              		.loc 1 544 19 view .LVU341
 1242 000e 40F21642 		movw	r2, #1046
 1243              		.loc 1 537 37 view .LVU342
 1244 0012 0446     		mov	r4, r0
 1245              		.loc 1 544 19 view .LVU343
 1246 0014 4262     		str	r2, [r0, #36]
 1247              		.loc 1 550 6 view .LVU344
 1248 0016 39D0     		beq	.L95
 1249              	.L91:
 1250              		.loc 1 538 16 view .LVU345
 1251 0018 2B46     		mov	r3, r5
 1252              	.LVL41:
 1253              	.L82:
 1254              		.loc 1 632 3 is_stmt 1 view .LVU346
ARM GAS  C:\Users\USER\AppData\Local\Temp\cca3YqUN.s 			page 23


 1255              		.loc 1 633 3 is_stmt 0 view .LVU347
 1256 001a D4E90B12 		ldrd	r1, r2, [r4, #44]
 1257              		.loc 1 641 3 view .LVU348
 1258 001e 6068     		ldr	r0, [r4, #4]
 1259              		.loc 1 632 3 view .LVU349
 1260 0020 0F68     		ldr	r7, [r1]
 1261              		.loc 1 633 3 view .LVU350
 1262 0022 D2F800C0 		ldr	ip, [r2]
 1263              	.LBB404:
 1264              	.LBB405:
 1265              		.loc 1 146 11 view .LVU351
 1266 0026 4168     		ldr	r1, [r0, #4]
 1267              		.loc 1 161 6 view .LVU352
 1268 0028 464E     		ldr	r6, .L99
 1269              	.LBE405:
 1270              	.LBE404:
 1271              		.loc 1 632 3 view .LVU353
 1272 002a 05F11002 		add	r2, r5, #16
 1273 002e BA60     		str	r2, [r7, #8]
 1274              		.loc 1 632 47 is_stmt 1 view .LVU354
 1275              		.loc 1 633 3 view .LVU355
 1276              		.loc 1 638 11 is_stmt 0 view .LVU356
 1277 0030 4FF41064 		mov	r4, #2304
 1278              	.LVL42:
 1279              		.loc 1 633 3 view .LVU357
 1280 0034 CCF80820 		str	r2, [ip, #8]
 1281              		.loc 1 633 47 is_stmt 1 view .LVU358
 1282              		.loc 1 636 3 view .LVU359
 1283              		.loc 1 636 11 is_stmt 0 view .LVU360
 1284 0038 4FF40047 		mov	r7, #32768
 1285              		.loc 1 637 11 view .LVU361
 1286 003c 0022     		movs	r2, #0
 1287              		.loc 1 636 11 view .LVU362
 1288 003e 2F60     		str	r7, [r5]
 1289              		.loc 1 637 3 is_stmt 1 view .LVU363
 1290              		.loc 1 637 11 is_stmt 0 view .LVU364
 1291 0040 2A60     		str	r2, [r5]
 1292              		.loc 1 638 3 is_stmt 1 view .LVU365
 1293              		.loc 1 638 11 is_stmt 0 view .LVU366
 1294 0042 6C60     		str	r4, [r5, #4]
 1295              		.loc 1 641 3 is_stmt 1 view .LVU367
 1296              	.LBB409:
 1297              	.LBI404:
 1298              		.loc 1 143 13 view .LVU368
 1299              	.LVL43:
 1300              	.LBB406:
 1301              		.loc 1 144 3 view .LVU369
 1302              		.loc 1 145 3 view .LVU370
 1303              		.loc 1 146 3 view .LVU371
 1304              		.loc 1 147 3 view .LVU372
 1305              		.loc 1 154 11 is_stmt 0 view .LVU373
 1306 0044 5C68     		ldr	r4, [r3, #4]
 1307 0046 4FF6C077 		movw	r7, #65472
 1308 004a 3C40     		ands	r4, r4, r7
 1309              		.loc 1 147 18 view .LVU374
 1310 004c 077A     		ldrb	r7, [r0, #8]	@ zero_extendqisi2
 1311              	.LVL44:
ARM GAS  C:\Users\USER\AppData\Local\Temp\cca3YqUN.s 			page 24


 1312              		.loc 1 149 3 is_stmt 1 view .LVU375
 1313              		.loc 1 149 3 view .LVU376
 1314              		.loc 1 154 3 view .LVU377
 1315              		.loc 1 154 11 is_stmt 0 view .LVU378
 1316 004e 5C60     		str	r4, [r3, #4]
 1317              		.loc 1 155 3 is_stmt 1 view .LVU379
 1318              		.loc 1 155 11 is_stmt 0 view .LVU380
 1319 0050 5C68     		ldr	r4, [r3, #4]
 1320              		.loc 1 161 6 view .LVU381
 1321 0052 B142     		cmp	r1, r6
 1322              		.loc 1 155 11 view .LVU382
 1323 0054 44F02A04 		orr	r4, r4, #42
 1324 0058 5C60     		str	r4, [r3, #4]
 1325              		.loc 1 158 3 is_stmt 1 view .LVU383
 1326              	.LVL45:
 1327              		.loc 1 159 3 view .LVU384
 1328              		.loc 1 161 3 view .LVU385
 1329              		.loc 1 161 6 is_stmt 0 view .LVU386
 1330 005a 42DC     		bgt	.L83
 1331              		.loc 1 163 5 is_stmt 1 view .LVU387
 1332              		.loc 1 163 5 view .LVU388
 1333              		.loc 1 166 5 view .LVU389
 1334              		.loc 1 166 5 view .LVU390
 1335              		.loc 1 168 5 view .LVU391
 1336              	.LVL46:
 1337              		.loc 1 170 5 view .LVU392
 1338              		.loc 1 170 5 view .LVU393
 1339              		.loc 1 172 5 view .LVU394
 1340              		.loc 1 175 5 view .LVU395
 1341              		.loc 1 175 15 is_stmt 0 view .LVU396
 1342 005c 2B24     		movs	r4, #43
 1343              		.loc 1 168 55 view .LVU397
 1344 005e 4900     		lsls	r1, r1, #1
 1345              	.LVL47:
 1346              		.loc 1 168 40 view .LVU398
 1347 0060 394A     		ldr	r2, .L99+4
 1348              		.loc 1 175 15 view .LVU399
 1349 0062 1C62     		str	r4, [r3, #32]
 1350              		.loc 1 168 40 view .LVU400
 1351 0064 B2FBF1F2 		udiv	r2, r2, r1
 1352 0068 C2F30B02 		ubfx	r2, r2, #0, #12
 1353              	.LVL48:
 1354              	.L84:
 1355              		.loc 1 205 3 is_stmt 1 view .LVU401
 1356              		.loc 1 205 3 view .LVU402
 1357              		.loc 1 207 3 view .LVU403
 1358              		.loc 1 207 11 is_stmt 0 view .LVU404
 1359 006c DA61     		str	r2, [r3, #28]
 1360              	.LVL49:
 1361              		.loc 1 207 11 view .LVU405
 1362              	.LBE406:
 1363              	.LBE409:
 1364              		.loc 1 642 3 is_stmt 1 view .LVU406
 1365              	.LBB410:
 1366              	.LBI410:
 1367              		.loc 1 217 13 view .LVU407
 1368              	.LBB411:
ARM GAS  C:\Users\USER\AppData\Local\Temp\cca3YqUN.s 			page 25


 1369              		.loc 1 218 3 view .LVU408
 1370              		.loc 1 219 3 view .LVU409
 1371              		.loc 1 219 15 is_stmt 0 view .LVU410
 1372 006e 0178     		ldrb	r1, [r0]	@ zero_extendqisi2
 1373              	.LVL50:
 1374              		.loc 1 220 3 is_stmt 1 view .LVU411
 1375              		.loc 1 222 3 view .LVU412
 1376              		.loc 1 222 14 is_stmt 0 view .LVU413
 1377 0070 1A68     		ldr	r2, [r3]
 1378              		.loc 1 223 3 view .LVU414
 1379 0072 0229     		cmp	r1, #2
 1380              		.loc 1 222 10 view .LVU415
 1381 0074 92B2     		uxth	r2, r2
 1382              	.LVL51:
 1383              		.loc 1 223 3 is_stmt 1 view .LVU416
 1384 0076 47D0     		beq	.L87
 1385 0078 0329     		cmp	r1, #3
 1386 007a 42D0     		beq	.L88
 1387 007c 0129     		cmp	r1, #1
 1388 007e 3CD0     		beq	.L96
 1389              	.L89:
 1390              		.loc 1 235 3 view .LVU417
 1391              		.loc 1 235 11 is_stmt 0 view .LVU418
 1392 0080 1A60     		str	r2, [r3]
 1393              	.LVL52:
 1394              		.loc 1 235 11 view .LVU419
 1395              	.LBE411:
 1396              	.LBE410:
 1397              		.loc 1 645 3 is_stmt 1 view .LVU420
 1398              		.loc 1 645 11 is_stmt 0 view .LVU421
 1399 0082 2B68     		ldr	r3, [r5]
 1400 0084 43F00103 		orr	r3, r3, #1
 1401 0088 2B60     		str	r3, [r5]
 1402              		.loc 1 646 1 view .LVU422
 1403 008a F8BD     		pop	{r3, r4, r5, r6, r7, pc}
 1404              	.LVL53:
 1405              	.L95:
 1406              		.loc 1 579 5 is_stmt 1 view .LVU423
 1407              		.loc 1 579 8 is_stmt 0 view .LVU424
 1408 008c 2F4B     		ldr	r3, .L99+8
 1409 008e 9842     		cmp	r0, r3
 1410 0090 C2D1     		bne	.L91
 1411              	.LBB413:
 1412              		.loc 1 580 7 is_stmt 1 view .LVU425
 1413              		.loc 1 582 7 view .LVU426
 1414 0092 2F4E     		ldr	r6, .L99+12
 1415              		.loc 1 583 11 is_stmt 0 view .LVU427
 1416 0094 C06A     		ldr	r0, [r0, #44]
 1417              	.LVL54:
 1418              		.loc 1 582 7 view .LVU428
 1419 0096 336A     		ldr	r3, [r6, #32]
 1420              		.loc 1 583 11 view .LVU429
 1421 0098 2E4A     		ldr	r2, .L99+16
 1422              		.loc 1 582 7 view .LVU430
 1423 009a 43F48003 		orr	r3, r3, #4194304
 1424 009e 0021     		movs	r1, #0
 1425 00a0 3362     		str	r3, [r6, #32]
ARM GAS  C:\Users\USER\AppData\Local\Temp\cca3YqUN.s 			page 26


 1426              		.loc 1 582 7 is_stmt 1 view .LVU431
 1427              		.loc 1 583 11 is_stmt 0 view .LVU432
 1428 00a2 2346     		mov	r3, r4
 1429              		.loc 1 582 7 view .LVU433
 1430 00a4 3162     		str	r1, [r6, #32]
 1431              		.loc 1 582 21 is_stmt 1 view .LVU434
 1432              		.loc 1 583 7 view .LVU435
 1433              		.loc 1 583 11 is_stmt 0 view .LVU436
 1434 00a6 0521     		movs	r1, #5
 1435 00a8 FFF7FEFF 		bl	dmaStreamAllocate
 1436              	.LVL55:
 1437              		.loc 1 587 7 is_stmt 1 view .LVU437
 1438              		.loc 1 587 7 view .LVU438
 1439              		.loc 1 588 7 view .LVU439
 1440              		.loc 1 588 11 is_stmt 0 view .LVU440
 1441 00ac 2A4A     		ldr	r2, .L99+20
 1442 00ae 206B     		ldr	r0, [r4, #48]
 1443 00b0 2346     		mov	r3, r4
 1444 00b2 0521     		movs	r1, #5
 1445 00b4 FFF7FEFF 		bl	dmaStreamAllocate
 1446              	.LVL56:
 1447              		.loc 1 592 7 is_stmt 1 view .LVU441
 1448              		.loc 1 592 7 view .LVU442
 1449              		.loc 1 593 7 view .LVU443
 1450 00b8 336C     		ldr	r3, [r6, #64]
 1451 00ba 43F48003 		orr	r3, r3, #4194304
 1452 00be 3364     		str	r3, [r6, #64]
 1453              		.loc 1 593 7 view .LVU444
 1454              		.loc 1 593 27 view .LVU445
 1455              		.loc 1 594 7 view .LVU446
 1456 00c0 0521     		movs	r1, #5
 1457 00c2 2120     		movs	r0, #33
 1458 00c4 FFF7FEFF 		bl	nvicEnableVector
 1459              	.LVL57:
 1460              		.loc 1 595 7 view .LVU447
 1461 00c8 0521     		movs	r1, #5
 1462 00ca 2220     		movs	r0, #34
 1463 00cc FFF7FEFF 		bl	nvicEnableVector
 1464              	.LVL58:
 1465              		.loc 1 597 7 view .LVU448
 1466              		.loc 1 597 23 is_stmt 0 view .LVU449
 1467 00d0 616A     		ldr	r1, [r4, #36]
 1468 00d2 2248     		ldr	r0, .L99+24
 1469              		.loc 1 599 23 view .LVU450
 1470 00d4 A26A     		ldr	r2, [r4, #40]
 1471 00d6 636B     		ldr	r3, [r4, #52]
 1472              		.loc 1 597 23 view .LVU451
 1473 00d8 0143     		orrs	r1, r1, r0
 1474              		.loc 1 599 23 view .LVU452
 1475 00da 0243     		orrs	r2, r2, r0
 1476 00dc C4E90912 		strd	r1, r2, [r4, #36]
 1477 00e0 9BE7     		b	.L82
 1478              	.LVL59:
 1479              	.L83:
 1480              		.loc 1 599 23 view .LVU453
 1481              	.LBE413:
 1482              	.LBB414:
ARM GAS  C:\Users\USER\AppData\Local\Temp\cca3YqUN.s 			page 27


 1483              	.LBB407:
 1484              		.loc 1 177 8 is_stmt 1 view .LVU454
 1485              		.loc 1 177 11 is_stmt 0 view .LVU455
 1486 00e2 1F4C     		ldr	r4, .L99+28
 1487 00e4 A142     		cmp	r1, r4
 1488 00e6 C1DC     		bgt	.L84
 1489              		.loc 1 179 5 is_stmt 1 view .LVU456
 1490              		.loc 1 179 5 view .LVU457
 1491              		.loc 1 183 5 view .LVU458
 1492              		.loc 1 183 8 is_stmt 0 view .LVU459
 1493 00e8 022F     		cmp	r7, #2
 1494 00ea 13D0     		beq	.L97
 1495              		.loc 1 189 10 is_stmt 1 view .LVU460
 1496              		.loc 1 189 13 is_stmt 0 view .LVU461
 1497 00ec 032F     		cmp	r7, #3
 1498 00ee 1CD0     		beq	.L98
 1499 00f0 48F6FF72 		movw	r2, #36863
 1500              	.LVL60:
 1501              	.L86:
 1502              		.loc 1 197 5 is_stmt 1 view .LVU462
 1503              		.loc 1 197 5 view .LVU463
 1504              		.loc 1 199 5 view .LVU464
 1505              		.loc 1 202 5 view .LVU465
 1506              		.loc 1 202 15 is_stmt 0 view .LVU466
 1507 00f4 0D21     		movs	r1, #13
 1508 00f6 1962     		str	r1, [r3, #32]
 1509 00f8 B8E7     		b	.L84
 1510              	.LVL61:
 1511              	.L96:
 1512              		.loc 1 202 15 view .LVU467
 1513              	.LBE407:
 1514              	.LBE414:
 1515              	.LBB415:
 1516              	.LBB412:
 1517              		.loc 1 225 5 is_stmt 1 view .LVU468
 1518              		.loc 1 225 12 is_stmt 0 view .LVU469
 1519 00fa 22F00A02 		bic	r2, r2, #10
 1520              	.LVL62:
 1521              		.loc 1 225 12 view .LVU470
 1522 00fe 92B2     		uxth	r2, r2
 1523              	.LVL63:
 1524              		.loc 1 226 5 is_stmt 1 view .LVU471
 1525 0100 BEE7     		b	.L89
 1526              	.L88:
 1527              		.loc 1 232 5 view .LVU472
 1528              		.loc 1 232 12 is_stmt 0 view .LVU473
 1529 0102 42F00A02 		orr	r2, r2, #10
 1530              	.LVL64:
 1531              		.loc 1 233 5 is_stmt 1 view .LVU474
 1532 0106 BBE7     		b	.L89
 1533              	.L87:
 1534              		.loc 1 228 5 view .LVU475
 1535              	.LVL65:
 1536              		.loc 1 229 5 view .LVU476
 1537 0108 22F00802 		bic	r2, r2, #8
 1538              	.LVL66:
 1539              		.loc 1 229 5 is_stmt 0 view .LVU477
ARM GAS  C:\Users\USER\AppData\Local\Temp\cca3YqUN.s 			page 28


 1540 010c 92B2     		uxth	r2, r2
 1541              		.loc 1 229 12 view .LVU478
 1542 010e 42F00202 		orr	r2, r2, #2
 1543              	.LVL67:
 1544              		.loc 1 230 5 is_stmt 1 view .LVU479
 1545 0112 B5E7     		b	.L89
 1546              	.LVL68:
 1547              	.L97:
 1548              		.loc 1 230 5 is_stmt 0 view .LVU480
 1549              	.LBE412:
 1550              	.LBE415:
 1551              	.LBB416:
 1552              	.LBB408:
 1553              		.loc 1 185 7 is_stmt 1 view .LVU481
 1554              		.loc 1 185 7 view .LVU482
 1555              		.loc 1 187 7 view .LVU483
 1556              		.loc 1 187 57 is_stmt 0 view .LVU484
 1557 0114 01EB4101 		add	r1, r1, r1, lsl #1
 1558              	.LVL69:
 1559              		.loc 1 187 42 view .LVU485
 1560 0118 0B4A     		ldr	r2, .L99+4
 1561 011a B2FBF1F2 		udiv	r2, r2, r1
 1562 011e 6FEA4242 		mvn	r2, r2, lsl #17
 1563 0122 6FEA5242 		mvn	r2, r2, lsr #17
 1564 0126 92B2     		uxth	r2, r2
 1565 0128 E4E7     		b	.L86
 1566              	.LVL70:
 1567              	.L98:
 1568              		.loc 1 191 7 is_stmt 1 view .LVU486
 1569              		.loc 1 191 7 view .LVU487
 1570              		.loc 1 193 7 view .LVU488
 1571              		.loc 1 194 7 view .LVU489
 1572              		.loc 1 193 57 is_stmt 0 view .LVU490
 1573 012a 01EB8102 		add	r2, r1, r1, lsl #2
 1574 012e 02EB8201 		add	r1, r2, r2, lsl #2
 1575              	.LVL71:
 1576              		.loc 1 193 42 view .LVU491
 1577 0132 054A     		ldr	r2, .L99+4
 1578 0134 B2FBF1F2 		udiv	r2, r2, r1
 1579 0138 6FEA8242 		mvn	r2, r2, lsl #18
 1580 013c 6FEA9242 		mvn	r2, r2, lsr #18
 1581 0140 92B2     		uxth	r2, r2
 1582 0142 D7E7     		b	.L86
 1583              	.L100:
 1584              		.align	2
 1585              	.L99:
 1586 0144 A0860100 		.word	100000
 1587 0148 80DE8002 		.word	42000000
 1588 014c 00000000 		.word	.LANCHOR0
 1589 0150 00380240 		.word	1073887232
 1590 0154 00000000 		.word	i2c_lld_serve_rx_end_irq
 1591 0158 00000000 		.word	i2c_lld_serve_tx_end_irq
 1592 015c 0000030E 		.word	235077632
 1593 0160 801A0600 		.word	400000
 1594              	.LBE408:
 1595              	.LBE416:
 1596              		.cfi_endproc
ARM GAS  C:\Users\USER\AppData\Local\Temp\cca3YqUN.s 			page 29


 1597              	.LFE266:
 1598              		.size	i2c_lld_start, .-i2c_lld_start
 1599              		.section	.text.i2c_lld_stop,"ax",%progbits
 1600              		.align	1
 1601              		.p2align 4,,15
 1602              		.global	i2c_lld_stop
 1603              		.syntax unified
 1604              		.thumb
 1605              		.thumb_func
 1606              		.fpu fpv4-sp-d16
 1607              		.type	i2c_lld_stop, %function
 1608              	i2c_lld_stop:
 1609              	.LVL72:
 1610              	.LFB267:
 1611              		.loc 1 655 36 is_stmt 1 view -0
 1612              		.cfi_startproc
 1613              		@ args = 0, pretend = 0, frame = 0
 1614              		@ frame_needed = 0, uses_anonymous_args = 0
 1615              		.loc 1 658 3 view .LVU493
 1616              		.loc 1 655 36 is_stmt 0 view .LVU494
 1617 0000 38B5     		push	{r3, r4, r5, lr}
 1618              		.cfi_def_cfa_offset 16
 1619              		.cfi_offset 3, -16
 1620              		.cfi_offset 4, -12
 1621              		.cfi_offset 5, -8
 1622              		.cfi_offset 14, -4
 1623              		.loc 1 658 6 view .LVU495
 1624 0002 0378     		ldrb	r3, [r0]	@ zero_extendqisi2
 1625 0004 012B     		cmp	r3, #1
 1626 0006 00D1     		bne	.L110
 1627              	.LVL73:
 1628              	.L101:
 1629              		.loc 1 689 1 view .LVU496
 1630 0008 38BD     		pop	{r3, r4, r5, pc}
 1631              	.LVL74:
 1632              	.L110:
 1633              		.loc 1 661 5 is_stmt 1 view .LVU497
 1634              	.LBB419:
 1635              	.LBI419:
 1636              		.loc 1 122 13 view .LVU498
 1637              	.LBB420:
 1638              		.loc 1 123 3 view .LVU499
 1639              		.loc 1 123 16 is_stmt 0 view .LVU500
 1640 000a D0E90C21 		ldrd	r2, r1, [r0, #48]
 1641              	.LVL75:
 1642              		.loc 1 126 3 is_stmt 1 view .LVU501
 1643              		.loc 1 127 11 is_stmt 0 view .LVU502
 1644 000e 0024     		movs	r4, #0
 1645              		.loc 1 132 3 view .LVU503
 1646 0010 1368     		ldr	r3, [r2]
 1647              		.loc 1 126 11 view .LVU504
 1648 0012 4FF40045 		mov	r5, #32768
 1649 0016 0D60     		str	r5, [r1]
 1650              		.loc 1 127 3 is_stmt 1 view .LVU505
 1651              		.loc 1 127 11 is_stmt 0 view .LVU506
 1652 0018 0C60     		str	r4, [r1]
 1653              		.loc 1 128 3 is_stmt 1 view .LVU507
ARM GAS  C:\Users\USER\AppData\Local\Temp\cca3YqUN.s 			page 30


 1654              		.loc 1 128 11 is_stmt 0 view .LVU508
 1655 001a 4C60     		str	r4, [r1, #4]
 1656              		.loc 1 129 3 is_stmt 1 view .LVU509
 1657              		.loc 1 129 11 is_stmt 0 view .LVU510
 1658 001c 4C61     		str	r4, [r1, #20]
 1659              		.loc 1 132 3 is_stmt 1 view .LVU511
 1660 001e 1968     		ldr	r1, [r3]
 1661              	.LVL76:
 1662              		.loc 1 132 3 is_stmt 0 view .LVU512
 1663 0020 21F01F01 		bic	r1, r1, #31
 1664 0024 1960     		str	r1, [r3]
 1665              		.loc 1 132 3 is_stmt 1 view .LVU513
 1666              	.L104:
 1667              		.loc 1 132 3 view .LVU514
 1668 0026 1968     		ldr	r1, [r3]
 1669 0028 CC07     		lsls	r4, r1, #31
 1670 002a FCD4     		bmi	.L104
 1671              		.loc 1 132 3 view .LVU515
 1672 002c 137A     		ldrb	r3, [r2, #8]	@ zero_extendqisi2
 1673              		.loc 1 133 3 is_stmt 0 view .LVU516
 1674 002e C56A     		ldr	r5, [r0, #44]
 1675              		.loc 1 132 3 view .LVU517
 1676 0030 5468     		ldr	r4, [r2, #4]
 1677 0032 3D21     		movs	r1, #61
 1678 0034 9940     		lsls	r1, r1, r3
 1679              		.loc 1 133 3 view .LVU518
 1680 0036 2B68     		ldr	r3, [r5]
 1681              		.loc 1 132 3 view .LVU519
 1682 0038 2160     		str	r1, [r4]
 1683              		.loc 1 132 3 is_stmt 1 view .LVU520
 1684              		.loc 1 132 32 view .LVU521
 1685              		.loc 1 133 3 view .LVU522
 1686 003a 1968     		ldr	r1, [r3]
 1687 003c 21F01F01 		bic	r1, r1, #31
 1688 0040 1960     		str	r1, [r3]
 1689              		.loc 1 133 3 view .LVU523
 1690              	.L105:
 1691              		.loc 1 133 3 view .LVU524
 1692 0042 1968     		ldr	r1, [r3]
 1693 0044 C907     		lsls	r1, r1, #31
 1694 0046 FCD4     		bmi	.L105
 1695              		.loc 1 133 3 view .LVU525
 1696 0048 0446     		mov	r4, r0
 1697 004a 287A     		ldrb	r0, [r5, #8]	@ zero_extendqisi2
 1698              	.LVL77:
 1699              		.loc 1 133 3 is_stmt 0 view .LVU526
 1700 004c 6968     		ldr	r1, [r5, #4]
 1701 004e 3D23     		movs	r3, #61
 1702 0050 8340     		lsls	r3, r3, r0
 1703 0052 0B60     		str	r3, [r1]
 1704              		.loc 1 133 3 is_stmt 1 view .LVU527
 1705              		.loc 1 133 32 view .LVU528
 1706              	.LVL78:
 1707              		.loc 1 133 32 is_stmt 0 view .LVU529
 1708              	.LBE420:
 1709              	.LBE419:
 1710              		.loc 1 662 5 is_stmt 1 view .LVU530
ARM GAS  C:\Users\USER\AppData\Local\Temp\cca3YqUN.s 			page 31


 1711 0054 1046     		mov	r0, r2
 1712 0056 FFF7FEFF 		bl	dmaStreamRelease
 1713              	.LVL79:
 1714              		.loc 1 663 5 view .LVU531
 1715 005a E06A     		ldr	r0, [r4, #44]
 1716 005c FFF7FEFF 		bl	dmaStreamRelease
 1717              	.LVL80:
 1718              		.loc 1 674 5 view .LVU532
 1719              		.loc 1 674 8 is_stmt 0 view .LVU533
 1720 0060 074B     		ldr	r3, .L111
 1721 0062 9C42     		cmp	r4, r3
 1722 0064 D0D1     		bne	.L101
 1723              		.loc 1 675 7 is_stmt 1 view .LVU534
 1724 0066 2120     		movs	r0, #33
 1725 0068 FFF7FEFF 		bl	nvicDisableVector
 1726              	.LVL81:
 1727              		.loc 1 676 7 view .LVU535
 1728 006c 2220     		movs	r0, #34
 1729 006e FFF7FEFF 		bl	nvicDisableVector
 1730              	.LVL82:
 1731              		.loc 1 677 7 view .LVU536
 1732 0072 044A     		ldr	r2, .L111+4
 1733 0074 136C     		ldr	r3, [r2, #64]
 1734 0076 23F48003 		bic	r3, r3, #4194304
 1735 007a 1364     		str	r3, [r2, #64]
 1736              		.loc 1 677 7 view .LVU537
 1737              		.loc 1 677 28 view .LVU538
 1738              		.loc 1 689 1 is_stmt 0 view .LVU539
 1739 007c 38BD     		pop	{r3, r4, r5, pc}
 1740              	.LVL83:
 1741              	.L112:
 1742              		.loc 1 689 1 view .LVU540
 1743 007e 00BF     		.align	2
 1744              	.L111:
 1745 0080 00000000 		.word	.LANCHOR0
 1746 0084 00380240 		.word	1073887232
 1747              		.cfi_endproc
 1748              	.LFE267:
 1749              		.size	i2c_lld_stop, .-i2c_lld_stop
 1750              		.section	.text.i2c_lld_master_receive_timeout,"ax",%progbits
 1751              		.align	1
 1752              		.p2align 4,,15
 1753              		.global	i2c_lld_master_receive_timeout
 1754              		.syntax unified
 1755              		.thumb
 1756              		.thumb_func
 1757              		.fpu fpv4-sp-d16
 1758              		.type	i2c_lld_master_receive_timeout, %function
 1759              	i2c_lld_master_receive_timeout:
 1760              	.LVL84:
 1761              	.LFB268:
 1762              		.loc 1 716 57 is_stmt 1 view -0
 1763              		.cfi_startproc
 1764              		@ args = 4, pretend = 0, frame = 0
 1765              		@ frame_needed = 0, uses_anonymous_args = 0
 1766              		@ link register save eliminated.
 1767              		.loc 1 717 3 view .LVU542
ARM GAS  C:\Users\USER\AppData\Local\Temp\cca3YqUN.s 			page 32


 1768              		.loc 1 728 22 is_stmt 0 view .LVU543
 1769 0000 4900     		lsls	r1, r1, #1
 1770              	.LVL85:
 1771              		.loc 1 716 57 view .LVU544
 1772 0002 F0B4     		push	{r4, r5, r6, r7}
 1773              		.cfi_def_cfa_offset 16
 1774              		.cfi_offset 4, -16
 1775              		.cfi_offset 5, -12
 1776              		.cfi_offset 6, -8
 1777              		.cfi_offset 7, -4
 1778              		.loc 1 728 28 view .LVU545
 1779 0004 41F00101 		orr	r1, r1, #1
 1780              		.loc 1 725 16 view .LVU546
 1781 0008 0025     		movs	r5, #0
 1782              		.loc 1 728 14 view .LVU547
 1783 000a 0184     		strh	r1, [r0, #32]	@ movhi
 1784              		.loc 1 717 16 view .LVU548
 1785 000c 446B     		ldr	r4, [r0, #52]
 1786              	.LVL86:
 1787              		.loc 1 718 3 is_stmt 1 view .LVU549
 1788              		.loc 1 725 3 view .LVU550
 1789              		.loc 1 725 16 is_stmt 0 view .LVU551
 1790 000e 8560     		str	r5, [r0, #8]
 1791              		.loc 1 728 3 is_stmt 1 view .LVU552
 1792              		.loc 1 731 3 view .LVU553
 1793              	.LBB421:
 1794              	.LBI421:
 1795              		.loc 2 502 20 view .LVU554
 1796              	.LBE421:
 1797              		.loc 2 504 3 view .LVU555
 1798              	.LBB435:
 1799              	.LBB422:
 1800              	.LBI422:
 1801              		.loc 3 358 20 view .LVU556
 1802              	.LBB423:
 1803              		.loc 3 360 22 view .LVU557
 1804              		.loc 3 361 33 view .LVU558
 1805              		.loc 3 367 3 view .LVU559
 1806              		.loc 3 367 3 view .LVU560
 1807              		.loc 3 371 3 view .LVU561
 1808              	.LBB424:
 1809              	.LBI424:
 1810              		.loc 4 458 20 view .LVU562
 1811              	.LBE424:
 1812              	.LBE423:
 1813              	.LBE422:
 1814              	.LBE435:
 1815              		.loc 4 461 3 view .LVU563
 1816              	.LVL87:
 1817              	.LBB436:
 1818              	.LBB433:
 1819              	.LBB431:
 1820              	.LBB429:
 1821              	.LBB425:
 1822              	.LBI425:
 1823              		.loc 5 544 57 view .LVU564
 1824              	.LBB426:
ARM GAS  C:\Users\USER\AppData\Local\Temp\cca3YqUN.s 			page 33


 1825              		.loc 5 546 3 view .LVU565
 1826              	.LBE426:
 1827              	.LBE425:
 1828              	.LBE429:
 1829              	.LBE431:
 1830              	.LBE433:
 1831              	.LBE436:
 1832              		.loc 1 716 57 is_stmt 0 view .LVU566
 1833 0010 DDF810C0 		ldr	ip, [sp, #16]
 1834              	.LBB437:
 1835              	.LBB434:
 1836              	.LBB432:
 1837              	.LBB430:
 1838              	.LBB428:
 1839              	.LBB427:
 1840              		.loc 5 546 3 view .LVU567
 1841              		.syntax unified
 1842              	@ 546 "src/ChibiOS_3.0.2/os/ext/CMSIS/include/core_cmFunc.h" 1
 1843 0014 85F31188 		MSR basepri, r5
 1844              	@ 0 "" 2
 1845              	.LVL88:
 1846              		.loc 5 546 3 view .LVU568
 1847              		.thumb
 1848              		.syntax unified
 1849              	.LBE427:
 1850              	.LBE428:
 1851              	.LBE430:
 1852              	.LBE432:
 1853              	.LBE434:
 1854              	.LBE437:
 1855              		.loc 1 734 3 is_stmt 1 view .LVU569
 1856 0018 C66A     		ldr	r6, [r0, #44]
 1857 001a 416A     		ldr	r1, [r0, #36]
 1858 001c 3768     		ldr	r7, [r6]
 1859              	.LBB438:
 1860              	.LBB439:
 1861              	.LBB440:
 1862              		.file 6 "src/ChibiOS_3.0.2/os/rt/include/chvt.h"
 1863              		.loc 6 231 19 is_stmt 0 view .LVU570
 1864 001e 144E     		ldr	r6, .L120
 1865              	.LBE440:
 1866              	.LBE439:
 1867              	.LBE438:
 1868              		.loc 1 734 3 view .LVU571
 1869 0020 3960     		str	r1, [r7]
 1870              		.loc 1 734 49 is_stmt 1 view .LVU572
 1871              		.loc 1 735 3 view .LVU573
 1872 0022 FA60     		str	r2, [r7, #12]
 1873              		.loc 1 735 42 view .LVU574
 1874              		.loc 1 736 3 view .LVU575
 1875 0024 7B60     		str	r3, [r7, #4]
 1876              		.loc 1 736 52 view .LVU576
 1877              		.loc 1 739 3 view .LVU577
 1878              	.LBB445:
 1879              	.LBI438:
 1880              		.loc 2 616 25 view .LVU578
 1881              	.LBE445:
ARM GAS  C:\Users\USER\AppData\Local\Temp\cca3YqUN.s 			page 34


 1882              		.loc 2 618 3 view .LVU579
 1883              	.LBB446:
 1884              	.LBB443:
 1885              	.LBI439:
 1886              		.loc 6 228 25 view .LVU580
 1887              	.LBB441:
 1888              		.loc 6 231 3 view .LVU581
 1889              	.LBE441:
 1890              	.LBE443:
 1891              	.LBE446:
 1892              	.LBB447:
 1893              	.LBB448:
 1894              	.LBB449:
 1895              	.LBB450:
 1896              	.LBB451:
 1897              	.LBB452:
 1898              		.loc 5 546 3 is_stmt 0 view .LVU582
 1899 0026 2A46     		mov	r2, r5
 1900              	.LVL89:
 1901              		.loc 5 546 3 view .LVU583
 1902              	.LBE452:
 1903              	.LBE451:
 1904              	.LBE450:
 1905              	.LBE449:
 1906              	.LBE448:
 1907              	.LBE447:
 1908              	.LBB466:
 1909              	.LBB444:
 1910              	.LBB442:
 1911              		.loc 6 231 19 view .LVU584
 1912 0028 B76A     		ldr	r7, [r6, #40]
 1913              	.LVL90:
 1914              		.loc 6 231 19 view .LVU585
 1915              	.LBE442:
 1916              	.LBE444:
 1917              	.LBE466:
 1918              		.loc 1 740 3 is_stmt 1 view .LVU586
 1919              	.LBB467:
 1920              	.LBB468:
 1921              	.LBB469:
 1922              	.LBB470:
 1923              	.LBB471:
 1924              		.loc 5 546 3 is_stmt 0 view .LVU587
 1925 002a 2025     		movs	r5, #32
 1926 002c 01E0     		b	.L117
 1927              	.LVL91:
 1928              	.L119:
 1929              		.loc 5 546 3 view .LVU588
 1930              	.LBE471:
 1931              	.LBE470:
 1932              	.LBE469:
 1933              	.LBE468:
 1934              	.LBE467:
 1935              	.LBB479:
 1936              	.LBB463:
 1937              	.LBB460:
 1938              	.LBB457:
ARM GAS  C:\Users\USER\AppData\Local\Temp\cca3YqUN.s 			page 35


 1939              	.LBB455:
 1940              	.LBB453:
 1941              		.syntax unified
 1942              	@ 546 "src/ChibiOS_3.0.2/os/ext/CMSIS/include/core_cmFunc.h" 1
 1943 002e 82F31188 		MSR basepri, r2
 1944              	@ 0 "" 2
 1945              	.LVL92:
 1946              		.thumb
 1947              		.syntax unified
 1948              	.L117:
 1949              		.loc 5 546 3 view .LVU589
 1950              	.LBE453:
 1951              	.LBE455:
 1952              	.LBE457:
 1953              	.LBE460:
 1954              	.LBE463:
 1955              	.LBE479:
 1956              		.loc 1 744 3 is_stmt 1 view .LVU590
 1957              		.loc 1 745 5 view .LVU591
 1958              	.LBB480:
 1959              	.LBI467:
 1960              		.loc 2 491 20 view .LVU592
 1961              	.LBE480:
 1962              		.loc 2 493 3 view .LVU593
 1963              	.LBB481:
 1964              	.LBB476:
 1965              	.LBI468:
 1966              		.loc 3 346 20 view .LVU594
 1967              	.LBE476:
 1968              	.LBE481:
 1969              		.loc 3 348 3 view .LVU595
 1970              	.LBB482:
 1971              	.LBB477:
 1972              	.LBB474:
 1973              	.LBI469:
 1974              		.loc 4 444 20 view .LVU596
 1975              	.LBE474:
 1976              	.LBE477:
 1977              	.LBE482:
 1978              		.loc 4 447 3 view .LVU597
 1979              	.LBB483:
 1980              	.LBB478:
 1981              	.LBB475:
 1982              	.LBB473:
 1983              	.LBI470:
 1984              		.loc 5 544 57 view .LVU598
 1985              	.LBB472:
 1986              		.loc 5 546 3 view .LVU599
 1987              		.syntax unified
 1988              	@ 546 "src/ChibiOS_3.0.2/os/ext/CMSIS/include/core_cmFunc.h" 1
 1989 0032 85F31188 		MSR basepri, r5
 1990              	@ 0 "" 2
 1991              	.LVL93:
 1992              		.loc 5 546 3 is_stmt 0 view .LVU600
 1993              		.thumb
 1994              		.syntax unified
 1995              	.LBE472:
ARM GAS  C:\Users\USER\AppData\Local\Temp\cca3YqUN.s 			page 36


 1996              	.LBE473:
 1997              	.LBE475:
 1998              	.LBE478:
 1999              	.LBE483:
 2000              		.loc 3 349 34 is_stmt 1 view .LVU601
 2001              		.loc 3 350 20 view .LVU602
 2002              		.loc 1 749 5 view .LVU603
 2003              		.loc 1 754 5 view .LVU604
 2004              	.LBB484:
 2005              	.LBI484:
 2006              		.loc 2 616 25 view .LVU605
 2007              	.LBE484:
 2008              		.loc 2 618 3 view .LVU606
 2009              	.LBB489:
 2010              	.LBB485:
 2011              	.LBI485:
 2012              		.loc 6 228 25 view .LVU607
 2013              	.LBB486:
 2014              		.loc 6 231 3 view .LVU608
 2015              	.LBE486:
 2016              	.LBE485:
 2017              	.LBE489:
 2018              		.loc 1 757 5 view .LVU609
 2019              	.LBB490:
 2020              	.LBI447:
 2021              		.loc 2 502 20 view .LVU610
 2022              	.LBE490:
 2023              		.loc 2 504 3 view .LVU611
 2024              	.LBB491:
 2025              	.LBB464:
 2026              	.LBI448:
 2027              		.loc 3 358 20 view .LVU612
 2028              	.LBB461:
 2029              		.loc 3 360 22 view .LVU613
 2030              		.loc 3 361 33 view .LVU614
 2031              		.loc 3 367 3 view .LVU615
 2032              		.loc 3 367 3 view .LVU616
 2033              		.loc 3 371 3 view .LVU617
 2034              	.LBB458:
 2035              	.LBI450:
 2036              		.loc 4 458 20 view .LVU618
 2037              	.LBE458:
 2038              	.LBE461:
 2039              	.LBE464:
 2040              	.LBE491:
 2041              		.loc 4 461 3 view .LVU619
 2042              	.LBB492:
 2043              	.LBB465:
 2044              	.LBB462:
 2045              	.LBB459:
 2046              	.LBB456:
 2047              	.LBI451:
 2048              		.loc 5 544 57 view .LVU620
 2049              	.LBB454:
 2050              		.loc 5 546 3 view .LVU621
 2051              	.LBE454:
 2052              	.LBE456:
ARM GAS  C:\Users\USER\AppData\Local\Temp\cca3YqUN.s 			page 37


 2053              	.LBE459:
 2054              	.LBE462:
 2055              	.LBE465:
 2056              	.LBE492:
 2057              		.loc 1 749 13 is_stmt 0 view .LVU622
 2058 0036 A369     		ldr	r3, [r4, #24]
 2059              		.loc 1 749 8 view .LVU623
 2060 0038 9907     		lsls	r1, r3, #30
 2061 003a 02D4     		bmi	.L114
 2062              		.loc 1 749 42 discriminator 1 view .LVU624
 2063 003c 2368     		ldr	r3, [r4]
 2064              		.loc 1 749 35 discriminator 1 view .LVU625
 2065 003e 9B05     		lsls	r3, r3, #22
 2066 0040 08D5     		bpl	.L115
 2067              	.L114:
 2068              	.LBB493:
 2069              	.LBB488:
 2070              	.LBB487:
 2071              		.loc 6 231 19 view .LVU626
 2072 0042 B36A     		ldr	r3, [r6, #40]
 2073              	.LVL94:
 2074              		.loc 6 231 19 view .LVU627
 2075              	.LBE487:
 2076              	.LBE488:
 2077              	.LBE493:
 2078              	.LBB494:
 2079              	.LBI494:
 2080              		.loc 2 635 20 is_stmt 1 view .LVU628
 2081              	.LBE494:
 2082              		.loc 2 639 3 view .LVU629
 2083              	.LBB497:
 2084              	.LBB495:
 2085              	.LBI495:
 2086              		.loc 6 284 20 view .LVU630
 2087              	.LBB496:
 2088              		.loc 6 288 3 view .LVU631
 2089              		.loc 6 288 23 is_stmt 0 view .LVU632
 2090 0044 DB1B     		subs	r3, r3, r7
 2091              	.LBE496:
 2092              	.LBE495:
 2093              	.LBE497:
 2094              		.loc 1 754 8 view .LVU633
 2095 0046 B3F5FA7F 		cmp	r3, #500
 2096 004a F0D3     		bcc	.L119
 2097              		.loc 1 766 1 view .LVU634
 2098 004c 4FF0FF30 		mov	r0, #-1
 2099              	.LVL95:
 2100              		.loc 1 766 1 view .LVU635
 2101 0050 F0BC     		pop	{r4, r5, r6, r7}
 2102              		.cfi_remember_state
 2103              		.cfi_restore 7
 2104              		.cfi_restore 6
 2105              		.cfi_restore 5
 2106              		.cfi_restore 4
 2107              		.cfi_def_cfa_offset 0
 2108              	.LVL96:
 2109              		.loc 1 766 1 view .LVU636
ARM GAS  C:\Users\USER\AppData\Local\Temp\cca3YqUN.s 			page 38


 2110 0052 7047     		bx	lr
 2111              	.LVL97:
 2112              	.L115:
 2113              		.cfi_restore_state
 2114              		.loc 1 761 3 is_stmt 1 view .LVU637
 2115              		.loc 1 761 11 is_stmt 0 view .LVU638
 2116 0054 6368     		ldr	r3, [r4, #4]
 2117 0056 43F40073 		orr	r3, r3, #512
 2118 005a 6360     		str	r3, [r4, #4]
 2119              	.LVL98:
 2120              		.loc 1 762 3 is_stmt 1 view .LVU639
 2121              		.loc 1 762 11 is_stmt 0 view .LVU640
 2122 005c 2368     		ldr	r3, [r4]
 2123 005e 43F4A063 		orr	r3, r3, #1280
 2124 0062 2360     		str	r3, [r4]
 2125              	.LBB498:
 2126              	.LBB499:
 2127              		.loc 2 713 10 view .LVU641
 2128 0064 6146     		mov	r1, ip
 2129              	.LBE499:
 2130              	.LBE498:
 2131              		.loc 1 765 3 is_stmt 1 view .LVU642
 2132              	.LVL99:
 2133              	.LBB502:
 2134              	.LBI498:
 2135              		.loc 2 710 21 view .LVU643
 2136              	.LBB500:
 2137              		.loc 2 713 3 view .LVU644
 2138              		.loc 2 713 10 is_stmt 0 view .LVU645
 2139 0066 1C30     		adds	r0, r0, #28
 2140              	.LVL100:
 2141              		.loc 2 713 10 view .LVU646
 2142              	.LBE500:
 2143              	.LBE502:
 2144              		.loc 1 766 1 view .LVU647
 2145 0068 F0BC     		pop	{r4, r5, r6, r7}
 2146              		.cfi_restore 7
 2147              		.cfi_restore 6
 2148              		.cfi_restore 5
 2149              		.cfi_restore 4
 2150              		.cfi_def_cfa_offset 0
 2151              	.LVL101:
 2152              	.LBB503:
 2153              	.LBB501:
 2154              		.loc 2 713 10 view .LVU648
 2155 006a FFF7FEBF 		b	chThdSuspendTimeoutS
 2156              	.LVL102:
 2157              	.L121:
 2158              		.loc 2 713 10 view .LVU649
 2159 006e 00BF     		.align	2
 2160              	.L120:
 2161 0070 00000000 		.word	ch
 2162              	.LBE501:
 2163              	.LBE503:
 2164              		.cfi_endproc
 2165              	.LFE268:
 2166              		.size	i2c_lld_master_receive_timeout, .-i2c_lld_master_receive_timeout
ARM GAS  C:\Users\USER\AppData\Local\Temp\cca3YqUN.s 			page 39


 2167              		.section	.text.i2c_lld_master_transmit_timeout,"ax",%progbits
 2168              		.align	1
 2169              		.p2align 4,,15
 2170              		.global	i2c_lld_master_transmit_timeout
 2171              		.syntax unified
 2172              		.thumb
 2173              		.thumb_func
 2174              		.fpu fpv4-sp-d16
 2175              		.type	i2c_lld_master_transmit_timeout, %function
 2176              	i2c_lld_master_transmit_timeout:
 2177              	.LVL103:
 2178              	.LFB269:
 2179              		.loc 1 796 58 is_stmt 1 view -0
 2180              		.cfi_startproc
 2181              		@ args = 12, pretend = 0, frame = 0
 2182              		@ frame_needed = 0, uses_anonymous_args = 0
 2183              		.loc 1 797 3 view .LVU651
 2184              		.loc 1 796 58 is_stmt 0 view .LVU652
 2185 0000 2DE9F043 		push	{r4, r5, r6, r7, r8, r9, lr}
 2186              		.cfi_def_cfa_offset 28
 2187              		.cfi_offset 4, -28
 2188              		.cfi_offset 5, -24
 2189              		.cfi_offset 6, -20
 2190              		.cfi_offset 7, -16
 2191              		.cfi_offset 8, -12
 2192              		.cfi_offset 9, -8
 2193              		.cfi_offset 14, -4
 2194              		.loc 1 808 22 view .LVU653
 2195 0004 4900     		lsls	r1, r1, #1
 2196              	.LVL104:
 2197              		.loc 1 805 16 view .LVU654
 2198 0006 0025     		movs	r5, #0
 2199              		.loc 1 796 58 view .LVU655
 2200 0008 1646     		mov	r6, r2
 2201              		.loc 1 808 14 view .LVU656
 2202 000a 0184     		strh	r1, [r0, #32]	@ movhi
 2203              		.loc 1 796 58 view .LVU657
 2204 000c 9E46     		mov	lr, r3
 2205              		.loc 1 797 16 view .LVU658
 2206 000e 446B     		ldr	r4, [r0, #52]
 2207              	.LVL105:
 2208              		.loc 1 798 3 is_stmt 1 view .LVU659
 2209              		.loc 1 805 3 view .LVU660
 2210              		.loc 1 805 16 is_stmt 0 view .LVU661
 2211 0010 8560     		str	r5, [r0, #8]
 2212              		.loc 1 808 3 is_stmt 1 view .LVU662
 2213              		.loc 1 811 3 view .LVU663
 2214              	.LBB504:
 2215              	.LBI504:
 2216              		.loc 2 502 20 view .LVU664
 2217              	.LBE504:
 2218              		.loc 2 504 3 view .LVU665
 2219              	.LBB518:
 2220              	.LBB505:
 2221              	.LBI505:
 2222              		.loc 3 358 20 view .LVU666
 2223              	.LBB506:
ARM GAS  C:\Users\USER\AppData\Local\Temp\cca3YqUN.s 			page 40


 2224              		.loc 3 360 22 view .LVU667
 2225              		.loc 3 361 33 view .LVU668
 2226              		.loc 3 367 3 view .LVU669
 2227              		.loc 3 367 3 view .LVU670
 2228              		.loc 3 371 3 view .LVU671
 2229              	.LBB507:
 2230              	.LBI507:
 2231              		.loc 4 458 20 view .LVU672
 2232              	.LBE507:
 2233              	.LBE506:
 2234              	.LBE505:
 2235              	.LBE518:
 2236              		.loc 4 461 3 view .LVU673
 2237              	.LVL106:
 2238              	.LBB519:
 2239              	.LBB516:
 2240              	.LBB514:
 2241              	.LBB512:
 2242              	.LBB508:
 2243              	.LBI508:
 2244              		.loc 5 544 57 view .LVU674
 2245              	.LBB509:
 2246              		.loc 5 546 3 view .LVU675
 2247              	.LBE509:
 2248              	.LBE508:
 2249              	.LBE512:
 2250              	.LBE514:
 2251              	.LBE516:
 2252              	.LBE519:
 2253              		.loc 1 796 58 is_stmt 0 view .LVU676
 2254 0012 DDE90728 		ldrd	r2, r8, [sp, #28]
 2255              	.LVL107:
 2256              		.loc 1 796 58 view .LVU677
 2257 0016 DDF824C0 		ldr	ip, [sp, #36]
 2258              	.LBB520:
 2259              	.LBB517:
 2260              	.LBB515:
 2261              	.LBB513:
 2262              	.LBB511:
 2263              	.LBB510:
 2264              		.loc 5 546 3 view .LVU678
 2265              		.syntax unified
 2266              	@ 546 "src/ChibiOS_3.0.2/os/ext/CMSIS/include/core_cmFunc.h" 1
 2267 001a 85F31188 		MSR basepri, r5
 2268              	@ 0 "" 2
 2269              	.LVL108:
 2270              		.loc 5 546 3 view .LVU679
 2271              		.thumb
 2272              		.syntax unified
 2273              	.LBE510:
 2274              	.LBE511:
 2275              	.LBE513:
 2276              	.LBE515:
 2277              	.LBE517:
 2278              	.LBE520:
 2279              		.loc 1 814 3 is_stmt 1 view .LVU680
 2280              		.loc 1 819 3 is_stmt 0 view .LVU681
ARM GAS  C:\Users\USER\AppData\Local\Temp\cca3YqUN.s 			page 41


 2281 001e D0E90B71 		ldrd	r7, r1, [r0, #44]
 2282              		.loc 1 814 3 view .LVU682
 2283 0022 0968     		ldr	r1, [r1]
 2284              		.loc 1 819 3 view .LVU683
 2285 0024 3F68     		ldr	r7, [r7]
 2286              		.loc 1 814 3 view .LVU684
 2287 0026 836A     		ldr	r3, [r0, #40]
 2288              	.LVL109:
 2289              		.loc 1 814 3 view .LVU685
 2290 0028 0B60     		str	r3, [r1]
 2291              		.loc 1 814 49 is_stmt 1 view .LVU686
 2292              		.loc 1 815 3 view .LVU687
 2293              		.loc 1 819 3 is_stmt 0 view .LVU688
 2294 002a D0F82490 		ldr	r9, [r0, #36]
 2295              		.loc 1 815 3 view .LVU689
 2296 002e CE60     		str	r6, [r1, #12]
 2297              		.loc 1 815 42 is_stmt 1 view .LVU690
 2298              		.loc 1 816 3 view .LVU691
 2299              	.LBB521:
 2300              	.LBB522:
 2301              	.LBB523:
 2302              		.loc 6 231 19 is_stmt 0 view .LVU692
 2303 0030 164E     		ldr	r6, .L129
 2304              	.LVL110:
 2305              		.loc 6 231 19 view .LVU693
 2306              	.LBE523:
 2307              	.LBE522:
 2308              	.LBE521:
 2309              		.loc 1 816 3 view .LVU694
 2310 0032 C1F804E0 		str	lr, [r1, #4]
 2311              	.LVL111:
 2312              		.loc 1 816 52 is_stmt 1 view .LVU695
 2313              		.loc 1 819 3 view .LVU696
 2314 0036 C7F80090 		str	r9, [r7]
 2315              		.loc 1 819 49 view .LVU697
 2316              		.loc 1 820 3 view .LVU698
 2317 003a FA60     		str	r2, [r7, #12]
 2318              		.loc 1 820 42 view .LVU699
 2319              		.loc 1 821 3 view .LVU700
 2320 003c C7F80480 		str	r8, [r7, #4]
 2321              		.loc 1 821 52 view .LVU701
 2322              		.loc 1 824 3 view .LVU702
 2323              	.LBB528:
 2324              	.LBI521:
 2325              		.loc 2 616 25 view .LVU703
 2326              	.LBE528:
 2327              		.loc 2 618 3 view .LVU704
 2328              	.LBB529:
 2329              	.LBB526:
 2330              	.LBI522:
 2331              		.loc 6 228 25 view .LVU705
 2332              	.LBB524:
 2333              		.loc 6 231 3 view .LVU706
 2334              	.LBE524:
 2335              	.LBE526:
 2336              	.LBE529:
 2337              	.LBB530:
ARM GAS  C:\Users\USER\AppData\Local\Temp\cca3YqUN.s 			page 42


 2338              	.LBB531:
 2339              	.LBB532:
 2340              	.LBB533:
 2341              	.LBB534:
 2342              	.LBB535:
 2343              		.loc 5 546 3 is_stmt 0 view .LVU707
 2344 0040 2A46     		mov	r2, r5
 2345              	.LBE535:
 2346              	.LBE534:
 2347              	.LBE533:
 2348              	.LBE532:
 2349              	.LBE531:
 2350              	.LBE530:
 2351              	.LBB549:
 2352              	.LBB527:
 2353              	.LBB525:
 2354              		.loc 6 231 19 view .LVU708
 2355 0042 B76A     		ldr	r7, [r6, #40]
 2356              	.LVL112:
 2357              		.loc 6 231 19 view .LVU709
 2358              	.LBE525:
 2359              	.LBE527:
 2360              	.LBE549:
 2361              		.loc 1 825 3 is_stmt 1 view .LVU710
 2362              	.LBB550:
 2363              	.LBB551:
 2364              	.LBB552:
 2365              	.LBB553:
 2366              	.LBB554:
 2367              		.loc 5 546 3 is_stmt 0 view .LVU711
 2368 0044 2025     		movs	r5, #32
 2369 0046 01E0     		b	.L126
 2370              	.LVL113:
 2371              	.L128:
 2372              		.loc 5 546 3 view .LVU712
 2373              	.LBE554:
 2374              	.LBE553:
 2375              	.LBE552:
 2376              	.LBE551:
 2377              	.LBE550:
 2378              	.LBB562:
 2379              	.LBB546:
 2380              	.LBB543:
 2381              	.LBB540:
 2382              	.LBB538:
 2383              	.LBB536:
 2384              		.syntax unified
 2385              	@ 546 "src/ChibiOS_3.0.2/os/ext/CMSIS/include/core_cmFunc.h" 1
 2386 0048 82F31188 		MSR basepri, r2
 2387              	@ 0 "" 2
 2388              	.LVL114:
 2389              		.thumb
 2390              		.syntax unified
 2391              	.L126:
 2392              		.loc 5 546 3 view .LVU713
 2393              	.LBE536:
 2394              	.LBE538:
ARM GAS  C:\Users\USER\AppData\Local\Temp\cca3YqUN.s 			page 43


 2395              	.LBE540:
 2396              	.LBE543:
 2397              	.LBE546:
 2398              	.LBE562:
 2399              		.loc 1 829 3 is_stmt 1 view .LVU714
 2400              		.loc 1 830 5 view .LVU715
 2401              	.LBB563:
 2402              	.LBI550:
 2403              		.loc 2 491 20 view .LVU716
 2404              	.LBE563:
 2405              		.loc 2 493 3 view .LVU717
 2406              	.LBB564:
 2407              	.LBB559:
 2408              	.LBI551:
 2409              		.loc 3 346 20 view .LVU718
 2410              	.LBE559:
 2411              	.LBE564:
 2412              		.loc 3 348 3 view .LVU719
 2413              	.LBB565:
 2414              	.LBB560:
 2415              	.LBB557:
 2416              	.LBI552:
 2417              		.loc 4 444 20 view .LVU720
 2418              	.LBE557:
 2419              	.LBE560:
 2420              	.LBE565:
 2421              		.loc 4 447 3 view .LVU721
 2422              	.LBB566:
 2423              	.LBB561:
 2424              	.LBB558:
 2425              	.LBB556:
 2426              	.LBI553:
 2427              		.loc 5 544 57 view .LVU722
 2428              	.LBB555:
 2429              		.loc 5 546 3 view .LVU723
 2430              		.syntax unified
 2431              	@ 546 "src/ChibiOS_3.0.2/os/ext/CMSIS/include/core_cmFunc.h" 1
 2432 004c 85F31188 		MSR basepri, r5
 2433              	@ 0 "" 2
 2434              	.LVL115:
 2435              		.loc 5 546 3 is_stmt 0 view .LVU724
 2436              		.thumb
 2437              		.syntax unified
 2438              	.LBE555:
 2439              	.LBE556:
 2440              	.LBE558:
 2441              	.LBE561:
 2442              	.LBE566:
 2443              		.loc 3 349 34 is_stmt 1 view .LVU725
 2444              		.loc 3 350 20 view .LVU726
 2445              		.loc 1 834 5 view .LVU727
 2446              		.loc 1 839 5 view .LVU728
 2447              	.LBB567:
 2448              	.LBI567:
 2449              		.loc 2 616 25 view .LVU729
 2450              	.LBE567:
 2451              		.loc 2 618 3 view .LVU730
ARM GAS  C:\Users\USER\AppData\Local\Temp\cca3YqUN.s 			page 44


 2452              	.LBB572:
 2453              	.LBB568:
 2454              	.LBI568:
 2455              		.loc 6 228 25 view .LVU731
 2456              	.LBB569:
 2457              		.loc 6 231 3 view .LVU732
 2458              	.LBE569:
 2459              	.LBE568:
 2460              	.LBE572:
 2461              		.loc 1 842 5 view .LVU733
 2462              	.LBB573:
 2463              	.LBI530:
 2464              		.loc 2 502 20 view .LVU734
 2465              	.LBE573:
 2466              		.loc 2 504 3 view .LVU735
 2467              	.LBB574:
 2468              	.LBB547:
 2469              	.LBI531:
 2470              		.loc 3 358 20 view .LVU736
 2471              	.LBB544:
 2472              		.loc 3 360 22 view .LVU737
 2473              		.loc 3 361 33 view .LVU738
 2474              		.loc 3 367 3 view .LVU739
 2475              		.loc 3 367 3 view .LVU740
 2476              		.loc 3 371 3 view .LVU741
 2477              	.LBB541:
 2478              	.LBI533:
 2479              		.loc 4 458 20 view .LVU742
 2480              	.LBE541:
 2481              	.LBE544:
 2482              	.LBE547:
 2483              	.LBE574:
 2484              		.loc 4 461 3 view .LVU743
 2485              	.LBB575:
 2486              	.LBB548:
 2487              	.LBB545:
 2488              	.LBB542:
 2489              	.LBB539:
 2490              	.LBI534:
 2491              		.loc 5 544 57 view .LVU744
 2492              	.LBB537:
 2493              		.loc 5 546 3 view .LVU745
 2494              	.LBE537:
 2495              	.LBE539:
 2496              	.LBE542:
 2497              	.LBE545:
 2498              	.LBE548:
 2499              	.LBE575:
 2500              		.loc 1 834 13 is_stmt 0 view .LVU746
 2501 0050 A369     		ldr	r3, [r4, #24]
 2502              		.loc 1 834 8 view .LVU747
 2503 0052 9907     		lsls	r1, r3, #30
 2504 0054 02D4     		bmi	.L123
 2505              		.loc 1 834 42 discriminator 1 view .LVU748
 2506 0056 2368     		ldr	r3, [r4]
 2507              		.loc 1 834 35 discriminator 1 view .LVU749
 2508 0058 9B05     		lsls	r3, r3, #22
ARM GAS  C:\Users\USER\AppData\Local\Temp\cca3YqUN.s 			page 45


 2509 005a 08D5     		bpl	.L124
 2510              	.L123:
 2511              	.LBB576:
 2512              	.LBB571:
 2513              	.LBB570:
 2514              		.loc 6 231 19 view .LVU750
 2515 005c B36A     		ldr	r3, [r6, #40]
 2516              	.LVL116:
 2517              		.loc 6 231 19 view .LVU751
 2518              	.LBE570:
 2519              	.LBE571:
 2520              	.LBE576:
 2521              	.LBB577:
 2522              	.LBI577:
 2523              		.loc 2 635 20 is_stmt 1 view .LVU752
 2524              	.LBE577:
 2525              		.loc 2 639 3 view .LVU753
 2526              	.LBB580:
 2527              	.LBB578:
 2528              	.LBI578:
 2529              		.loc 6 284 20 view .LVU754
 2530              	.LBB579:
 2531              		.loc 6 288 3 view .LVU755
 2532              		.loc 6 288 23 is_stmt 0 view .LVU756
 2533 005e DB1B     		subs	r3, r3, r7
 2534              	.LBE579:
 2535              	.LBE578:
 2536              	.LBE580:
 2537              		.loc 1 839 8 view .LVU757
 2538 0060 B3F5FA7F 		cmp	r3, #500
 2539 0064 F0D3     		bcc	.L128
 2540              		.loc 1 851 1 view .LVU758
 2541 0066 4FF0FF30 		mov	r0, #-1
 2542              	.LVL117:
 2543              		.loc 1 851 1 view .LVU759
 2544 006a BDE8F083 		pop	{r4, r5, r6, r7, r8, r9, pc}
 2545              	.LVL118:
 2546              	.L124:
 2547              		.loc 1 846 3 is_stmt 1 view .LVU760
 2548              		.loc 1 846 11 is_stmt 0 view .LVU761
 2549 006e 6368     		ldr	r3, [r4, #4]
 2550 0070 43F40073 		orr	r3, r3, #512
 2551 0074 6360     		str	r3, [r4, #4]
 2552              		.loc 1 847 3 is_stmt 1 view .LVU762
 2553              		.loc 1 847 11 is_stmt 0 view .LVU763
 2554 0076 2368     		ldr	r3, [r4]
 2555 0078 43F48073 		orr	r3, r3, #256
 2556 007c 2360     		str	r3, [r4]
 2557              	.LBB581:
 2558              	.LBB582:
 2559              		.loc 2 713 10 view .LVU764
 2560 007e 6146     		mov	r1, ip
 2561              	.LBE582:
 2562              	.LBE581:
 2563              		.loc 1 850 3 is_stmt 1 view .LVU765
 2564              	.LVL119:
 2565              	.LBB585:
ARM GAS  C:\Users\USER\AppData\Local\Temp\cca3YqUN.s 			page 46


 2566              	.LBI581:
 2567              		.loc 2 710 21 view .LVU766
 2568              	.LBB583:
 2569              		.loc 2 713 3 view .LVU767
 2570              		.loc 2 713 10 is_stmt 0 view .LVU768
 2571 0080 1C30     		adds	r0, r0, #28
 2572              	.LVL120:
 2573              		.loc 2 713 10 view .LVU769
 2574              	.LBE583:
 2575              	.LBE585:
 2576              		.loc 1 851 1 view .LVU770
 2577 0082 BDE8F043 		pop	{r4, r5, r6, r7, r8, r9, lr}
 2578              		.cfi_restore 14
 2579              		.cfi_restore 9
 2580              		.cfi_restore 8
 2581              		.cfi_restore 7
 2582              		.cfi_restore 6
 2583              		.cfi_restore 5
 2584              		.cfi_restore 4
 2585              		.cfi_def_cfa_offset 0
 2586              	.LVL121:
 2587              	.LBB586:
 2588              	.LBB584:
 2589              		.loc 2 713 10 view .LVU771
 2590 0086 FFF7FEBF 		b	chThdSuspendTimeoutS
 2591              	.LVL122:
 2592              	.L130:
 2593              		.loc 2 713 10 view .LVU772
 2594 008a 00BF     		.align	2
 2595              	.L129:
 2596 008c 00000000 		.word	ch
 2597              	.LBE584:
 2598              	.LBE586:
 2599              		.cfi_endproc
 2600              	.LFE269:
 2601              		.size	i2c_lld_master_transmit_timeout, .-i2c_lld_master_transmit_timeout
 2602              		.global	I2CD2
 2603              		.section	.bss.I2CD2,"aw",%nobits
 2604              		.align	2
 2605              		.set	.LANCHOR0,. + 0
 2606              		.type	I2CD2, %object
 2607              		.size	I2CD2, 56
 2608              	I2CD2:
 2609 0000 00000000 		.space	56
 2609      00000000 
 2609      00000000 
 2609      00000000 
 2609      00000000 
 2610              		.section	.rodata.i2c_lld_serve_tx_end_irq.str1.4,"aMS",%progbits,1
 2611              		.align	2
 2612              	.LC0:
 2613 0000 444D4120 		.ascii	"DMA failure\000"
 2613      6661696C 
 2613      75726500 
 2614              		.text
 2615              	.Letext0:
 2616              		.file 7 "c:\\program files (x86)\\gnu tools arm embedded\\8 2018-q4-major\\lib\\gcc\\arm-none-eabi
ARM GAS  C:\Users\USER\AppData\Local\Temp\cca3YqUN.s 			page 47


 2617              		.file 8 "c:\\program files (x86)\\gnu tools arm embedded\\8 2018-q4-major\\arm-none-eabi\\include\
 2618              		.file 9 "c:\\program files (x86)\\gnu tools arm embedded\\8 2018-q4-major\\arm-none-eabi\\include\
 2619              		.file 10 "src/ChibiOS_3.0.2/os/rt/ports/ARMCMx/compilers/GCC/chtypes.h"
 2620              		.file 11 "src/ChibiOS_3.0.2/os/rt/include/chsystypes.h"
 2621              		.file 12 "src/ChibiOS_3.0.2/os/rt/include/chschd.h"
 2622              		.file 13 "src/ChibiOS_3.0.2/os/ext/CMSIS/include/core_cm4.h"
 2623              		.file 14 "src/ChibiOS_3.0.2/os/ext/CMSIS/ST/system_stm32f4xx.h"
 2624              		.file 15 "src/ChibiOS_3.0.2/os/ext/CMSIS/ST/stm32f407xx.h"
 2625              		.file 16 "src/ChibiOS_3.0.2/os/rt/ports/ARMCMx/chcore.h"
 2626              		.file 17 "src/ChibiOS_3.0.2/os/rt/include/chtm.h"
 2627              		.file 18 "src/ChibiOS_3.0.2/os/rt/include/chsem.h"
 2628              		.file 19 "src/ChibiOS_3.0.2/os/rt/include/chmtx.h"
 2629              		.file 20 "src/ChibiOS_3.0.2/os/rt/include/chregistry.h"
 2630              		.file 21 "src/ChibiOS_3.0.2/os/rt/include/chevents.h"
 2631              		.file 22 "src/ChibiOS_3.0.2/os/rt/include/chqueues.h"
 2632              		.file 23 "src/ChibiOS_3.0.2/os/hal/ports/STM32/STM32F4xx/stm32_dma.h"
 2633              		.file 24 "src/ChibiOS_3.0.2/os/hal/ports/STM32/LLD/GPIOv2/pal_lld.h"
 2634              		.file 25 "src/ChibiOS_3.0.2/os/hal/include/can.h"
 2635              		.file 26 "src/ChibiOS_3.0.2/os/hal/ports/STM32/LLD/can_lld.h"
 2636              		.file 27 "src/ChibiOS_3.0.2/os/hal/include/i2c.h"
 2637              		.file 28 "src/ChibiOS_3.0.2/os/hal/ports/STM32/LLD/I2Cv1/i2c_lld.h"
 2638              		.file 29 "src/ChibiOS_3.0.2/os/hal/include/icu.h"
 2639              		.file 30 "src/ChibiOS_3.0.2/os/hal/ports/STM32/LLD/TIMv1/icu_lld.h"
 2640              		.file 31 "src/ChibiOS_3.0.2/os/hal/ports/STM32/LLD/TIMv1/stm32_tim.h"
 2641              		.file 32 "src/ChibiOS_3.0.2/os/hal/include/serial.h"
 2642              		.file 33 "src/ChibiOS_3.0.2/os/hal/ports/STM32/LLD/USARTv1/serial_lld.h"
 2643              		.file 34 "src/ChibiOS_3.0.2/os/hal/include/spi.h"
 2644              		.file 35 "src/ChibiOS_3.0.2/os/hal/ports/STM32/LLD/SPIv1/spi_lld.h"
 2645              		.file 36 "src/ChibiOS_3.0.2/os/hal/include/uart.h"
 2646              		.file 37 "src/ChibiOS_3.0.2/os/hal/ports/STM32/LLD/USARTv1/uart_lld.h"
 2647              		.file 38 "src/ChibiOS_3.0.2/os/hal/include/usb.h"
 2648              		.file 39 "src/ChibiOS_3.0.2/os/hal/ports/STM32/LLD/OTGv1/usb_lld.h"
 2649              		.file 40 "src/ChibiOS_3.0.2/os/hal/ports/STM32/LLD/OTGv1/stm32_otg.h"
 2650              		.file 41 "src/ChibiOS_3.0.2/os/rt/include/chthreads.h"
 2651              		.file 42 "src/ChibiOS_3.0.2/os/hal/ports/common/ARMCMx/nvic.h"