ARM GAS  C:\Users\USER\AppData\Local\Temp\ccTMvNGk.s 			page 1


   1              		.cpu cortex-m4
   2              		.eabi_attribute 27, 1
   3              		.eabi_attribute 28, 1
   4              		.eabi_attribute 20, 1
   5              		.eabi_attribute 21, 1
   6              		.eabi_attribute 23, 3
   7              		.eabi_attribute 24, 1
   8              		.eabi_attribute 25, 1
   9              		.eabi_attribute 26, 1
  10              		.eabi_attribute 30, 2
  11              		.eabi_attribute 34, 1
  12              		.eabi_attribute 18, 4
  13              		.file	"icu_lld.c"
  14              		.text
  15              	.Ltext0:
  16              		.cfi_sections	.debug_frame
  17              		.section	.text.icu_lld_wait_edge.isra.0,"ax",%progbits
  18              		.align	1
  19              		.p2align 4,,15
  20              		.arch armv7e-m
  21              		.syntax unified
  22              		.thumb
  23              		.thumb_func
  24              		.fpu fpv4-sp-d16
  25              		.type	icu_lld_wait_edge.isra.0, %function
  26              	icu_lld_wait_edge.isra.0:
  27              	.LFB267:
  28              		.file 1 "src/ChibiOS_3.0.2/os/hal/ports/STM32/LLD/TIMv1/icu_lld.c"
  29              		.loc 1 105 13 view -0
  30              		.cfi_startproc
  31              		@ args = 0, pretend = 0, frame = 0
  32              		@ frame_needed = 0, uses_anonymous_args = 0
  33              		@ link register save eliminated.
  34              		.loc 1 106 3 view .LVU1
  35              		.loc 1 107 3 view .LVU2
  36              		.loc 1 111 3 view .LVU3
  37              	.LBB33:
  38              	.LBI33:
  39              		.file 2 "src/ChibiOS_3.0.2/os/rt/include/chsys.h"
  40              		.loc 2 358 20 view .LVU4
  41              	.LBB34:
  42              		.loc 2 360 22 view .LVU5
  43              		.loc 2 361 33 view .LVU6
  44              		.loc 2 367 3 view .LVU7
  45              		.loc 2 367 3 view .LVU8
  46              		.loc 2 371 3 view .LVU9
  47              	.LBB35:
  48              	.LBI35:
  49              		.file 3 "src/ChibiOS_3.0.2/os/rt/ports/ARMCMx/chcore_v7m.h"
  50              		.loc 3 458 20 view .LVU10
  51              	.LBE35:
  52              	.LBE34:
  53              	.LBE33:
  54              		.loc 3 461 3 view .LVU11
  55              	.LVL0:
  56              	.LBB40:
  57              	.LBB39:
ARM GAS  C:\Users\USER\AppData\Local\Temp\ccTMvNGk.s 			page 2


  58              	.LBB38:
  59              	.LBB36:
  60              	.LBI36:
  61              		.file 4 "src/ChibiOS_3.0.2/os/ext/CMSIS/include/core_cmFunc.h"
  62              		.loc 4 544 57 view .LVU12
  63              	.LBB37:
  64              		.loc 4 546 3 view .LVU13
  65 0000 0023     		movs	r3, #0
  66              		.syntax unified
  67              	@ 546 "src/ChibiOS_3.0.2/os/ext/CMSIS/include/core_cmFunc.h" 1
  68 0002 83F31188 		MSR basepri, r3
  69              	@ 0 "" 2
  70              	.LVL1:
  71              		.loc 4 546 3 is_stmt 0 view .LVU14
  72              		.thumb
  73              		.syntax unified
  74              	.LBE37:
  75              	.LBE36:
  76              	.LBE38:
  77              	.LBE39:
  78              	.LBE40:
  79              		.loc 1 114 3 is_stmt 1 view .LVU15
  80              		.loc 1 114 19 is_stmt 0 view .LVU16
  81 0006 0368     		ldr	r3, [r0]
  82              		.loc 1 114 6 view .LVU17
  83 0008 1B7D     		ldrb	r3, [r3, #20]	@ zero_extendqisi2
  84 000a 73B9     		cbnz	r3, .L2
  85              		.loc 1 116 23 view .LVU18
  86 000c 0B68     		ldr	r3, [r1]
  87              	.L3:
  88              		.loc 1 118 7 is_stmt 1 view .LVU19
  89              		.loc 1 116 17 is_stmt 0 view .LVU20
  90 000e 1869     		ldr	r0, [r3, #16]
  91              	.LVL2:
  92              		.loc 1 116 11 view .LVU21
  93 0010 8207     		lsls	r2, r0, #30
  94 0012 FCD0     		beq	.L3
  95              	.L4:
  96              		.loc 1 128 3 is_stmt 1 view .LVU22
  97              	.LVL3:
  98              		.loc 1 131 3 view .LVU23
  99              	.LBB41:
 100              	.LBI41:
 101              		.loc 2 346 20 view .LVU24
 102              	.LBE41:
 103              		.loc 2 348 3 view .LVU25
 104              	.LBB46:
 105              	.LBB42:
 106              	.LBI42:
 107              		.loc 3 444 20 view .LVU26
 108              	.LBE42:
 109              	.LBE46:
 110              		.loc 3 447 3 view .LVU27
 111              	.LBB47:
 112              	.LBB45:
 113              	.LBB43:
 114              	.LBI43:
ARM GAS  C:\Users\USER\AppData\Local\Temp\ccTMvNGk.s 			page 3


 115              		.loc 4 544 57 view .LVU28
 116              	.LBB44:
 117              		.loc 4 546 3 view .LVU29
 118 0014 2023     		movs	r3, #32
 119              		.syntax unified
 120              	@ 546 "src/ChibiOS_3.0.2/os/ext/CMSIS/include/core_cmFunc.h" 1
 121 0016 83F31188 		MSR basepri, r3
 122              	@ 0 "" 2
 123              	.LVL4:
 124              		.loc 4 546 3 is_stmt 0 view .LVU30
 125              		.thumb
 126              		.syntax unified
 127              	.LBE44:
 128              	.LBE43:
 129              	.LBE45:
 130              	.LBE47:
 131              		.loc 2 349 34 is_stmt 1 view .LVU31
 132              		.loc 2 350 20 view .LVU32
 133              		.loc 1 134 3 view .LVU33
 134              		.loc 1 134 7 is_stmt 0 view .LVU34
 135 001a 0A68     		ldr	r2, [r1]
 136              		.loc 1 134 17 view .LVU35
 137 001c 1369     		ldr	r3, [r2, #16]
 138 001e 23F00703 		bic	r3, r3, #7
 139              		.loc 1 139 1 view .LVU36
 140 0022 00F00100 		and	r0, r0, #1
 141              	.LVL5:
 142              		.loc 1 134 17 view .LVU37
 143 0026 1361     		str	r3, [r2, #16]
 144              		.loc 1 138 3 is_stmt 1 view .LVU38
 145              		.loc 1 139 1 is_stmt 0 view .LVU39
 146 0028 7047     		bx	lr
 147              	.L2:
 148              		.loc 1 122 23 view .LVU40
 149 002a 0B68     		ldr	r3, [r1]
 150              	.L5:
 151              		.loc 1 124 7 is_stmt 1 view .LVU41
 152              		.loc 1 122 17 is_stmt 0 view .LVU42
 153 002c 1869     		ldr	r0, [r3, #16]
 154              	.LVL6:
 155              		.loc 1 122 11 view .LVU43
 156 002e 10F0050F 		tst	r0, #5
 157 0032 FBD0     		beq	.L5
 158 0034 EEE7     		b	.L4
 159              		.cfi_endproc
 160              	.LFE267:
 161              		.size	icu_lld_wait_edge.isra.0, .-icu_lld_wait_edge.isra.0
 162 0036 00BF     		.section	.text.VectorB4,"ax",%progbits
 163              		.align	1
 164              		.p2align 4,,15
 165              		.global	VectorB4
 166              		.syntax unified
 167              		.thumb
 168              		.thumb_func
 169              		.fpu fpv4-sp-d16
 170              		.type	VectorB4, %function
 171              	VectorB4:
ARM GAS  C:\Users\USER\AppData\Local\Temp\ccTMvNGk.s 			page 4


 172              	.LFB258:
 173              		.loc 1 248 38 is_stmt 1 view -0
 174              		.cfi_startproc
 175              		@ args = 0, pretend = 0, frame = 0
 176              		@ frame_needed = 0, uses_anonymous_args = 0
 177              		.loc 1 250 3 view .LVU45
 178              		.loc 1 250 3 view .LVU46
 179              		.loc 1 250 22 view .LVU47
 180              		.loc 1 252 3 view .LVU48
 181              	.LBB50:
 182              	.LBI50:
 183              		.loc 1 146 13 view .LVU49
 184              	.LVL7:
 185              	.LBB51:
 186              		.loc 1 147 3 view .LVU50
 187              		.loc 1 149 3 view .LVU51
 188              	.LBE51:
 189              	.LBE50:
 190              		.loc 1 248 38 is_stmt 0 view .LVU52
 191 0000 F8B5     		push	{r3, r4, r5, r6, r7, lr}
 192              		.cfi_def_cfa_offset 24
 193              		.cfi_offset 3, -24
 194              		.cfi_offset 4, -20
 195              		.cfi_offset 5, -16
 196              		.cfi_offset 6, -12
 197              		.cfi_offset 7, -8
 198              		.cfi_offset 14, -4
 199              	.LBB54:
 200              	.LBB52:
 201              		.loc 1 149 13 view .LVU53
 202 0002 264D     		ldr	r5, .L55
 203 0004 EB68     		ldr	r3, [r5, #12]
 204              		.loc 1 152 11 view .LVU54
 205 0006 6968     		ldr	r1, [r5, #4]
 206              		.loc 1 149 7 view .LVU55
 207 0008 1C69     		ldr	r4, [r3, #16]
 208              	.LVL8:
 209              		.loc 1 150 3 is_stmt 1 view .LVU56
 210              		.loc 1 150 18 is_stmt 0 view .LVU57
 211 000a DA68     		ldr	r2, [r3, #12]
 212              		.loc 1 152 6 view .LVU58
 213 000c 087D     		ldrb	r0, [r1, #20]	@ zero_extendqisi2
 214 000e 1440     		ands	r4, r4, r2
 215              	.LVL9:
 216              		.loc 1 151 3 is_stmt 1 view .LVU59
 217              		.loc 1 150 6 is_stmt 0 view .LVU60
 218 0010 E2B2     		uxtb	r2, r4
 219              		.loc 1 151 19 view .LVU61
 220 0012 D243     		mvns	r2, r2
 221              		.loc 1 151 17 view .LVU62
 222 0014 1A61     		str	r2, [r3, #16]
 223              		.loc 1 152 3 is_stmt 1 view .LVU63
 224 0016 04F00206 		and	r6, r4, #2
 225              		.loc 1 152 6 is_stmt 0 view .LVU64
 226 001a E8B9     		cbnz	r0, .L12
 227              		.loc 1 153 5 is_stmt 1 view .LVU65
 228              		.loc 1 153 8 is_stmt 0 view .LVU66
ARM GAS  C:\Users\USER\AppData\Local\Temp\ccTMvNGk.s 			page 5


 229 001c 6207     		lsls	r2, r4, #29
 230 001e 13D5     		bpl	.L13
 231              		.loc 1 154 7 is_stmt 1 view .LVU67
 232              		.loc 1 154 7 view .LVU68
 233 0020 2B78     		ldrb	r3, [r5]	@ zero_extendqisi2
 234 0022 042B     		cmp	r3, #4
 235 0024 0CD0     		beq	.L52
 236              		.loc 1 155 5 view .LVU69
 237              		.loc 1 155 8 is_stmt 0 view .LVU70
 238 0026 A6B9     		cbnz	r6, .L19
 239              	.L17:
 240              		.loc 1 164 3 is_stmt 1 view .LVU71
 241              		.loc 1 164 6 is_stmt 0 view .LVU72
 242 0028 E307     		lsls	r3, r4, #31
 243 002a 05D5     		bpl	.L25
 244              		.loc 1 165 5 is_stmt 1 view .LVU73
 245              		.loc 1 165 5 view .LVU74
 246 002c 6B68     		ldr	r3, [r5, #4]
 247 002e 1B48     		ldr	r0, .L55
 248 0030 1B69     		ldr	r3, [r3, #16]
 249 0032 9847     		blx	r3
 250              	.LVL10:
 251              		.loc 1 165 5 view .LVU75
 252 0034 0323     		movs	r3, #3
 253 0036 2B70     		strb	r3, [r5]
 254              	.L25:
 255              	.LVL11:
 256              		.loc 1 165 5 is_stmt 0 view .LVU76
 257              	.LBE52:
 258              	.LBE54:
 259              		.loc 1 254 3 is_stmt 1 view .LVU77
 260              		.loc 1 254 3 view .LVU78
 261              		.loc 1 255 1 is_stmt 0 view .LVU79
 262 0038 BDE8F840 		pop	{r3, r4, r5, r6, r7, lr}
 263              		.cfi_remember_state
 264              		.cfi_restore 14
 265              		.cfi_restore 7
 266              		.cfi_restore 6
 267              		.cfi_restore 5
 268              		.cfi_restore 4
 269              		.cfi_restore 3
 270              		.cfi_def_cfa_offset 0
 271              		.loc 1 254 3 view .LVU80
 272 003c FFF7FEBF 		b	_port_irq_epilogue
 273              	.LVL12:
 274              	.L52:
 275              		.cfi_restore_state
 276              	.LBB55:
 277              	.LBB53:
 278              		.loc 1 154 7 view .LVU81
 279 0040 8B68     		ldr	r3, [r1, #8]
 280 0042 23B3     		cbz	r3, .L15
 281              		.loc 1 154 7 is_stmt 1 view .LVU82
 282 0044 2846     		mov	r0, r5
 283 0046 9847     		blx	r3
 284              	.LVL13:
 285              	.L13:
ARM GAS  C:\Users\USER\AppData\Local\Temp\ccTMvNGk.s 			page 6


 286              		.loc 1 155 5 view .LVU83
 287              		.loc 1 155 8 is_stmt 0 view .LVU84
 288 0048 002E     		cmp	r6, #0
 289 004a EDD0     		beq	.L17
 290              		.loc 1 156 7 is_stmt 1 view .LVU85
 291              		.loc 1 156 7 view .LVU86
 292 004c 2B78     		ldrb	r3, [r5]	@ zero_extendqisi2
 293 004e 042B     		cmp	r3, #4
 294 0050 14D0     		beq	.L53
 295              	.L19:
 296              		.loc 1 156 7 view .LVU87
 297 0052 0423     		movs	r3, #4
 298 0054 2B70     		strb	r3, [r5]
 299 0056 E7E7     		b	.L17
 300              	.L12:
 301              		.loc 1 159 5 view .LVU88
 302 0058 04F00407 		and	r7, r4, #4
 303              		.loc 1 159 8 is_stmt 0 view .LVU89
 304 005c 4EB1     		cbz	r6, .L21
 305              		.loc 1 160 7 is_stmt 1 view .LVU90
 306              		.loc 1 160 7 view .LVU91
 307 005e 2B78     		ldrb	r3, [r5]	@ zero_extendqisi2
 308 0060 042B     		cmp	r3, #4
 309 0062 02D0     		beq	.L54
 310              		.loc 1 161 5 view .LVU92
 311              		.loc 1 161 8 is_stmt 0 view .LVU93
 312 0064 002F     		cmp	r7, #0
 313 0066 F4D1     		bne	.L19
 314 0068 DEE7     		b	.L17
 315              	.L54:
 316              		.loc 1 160 7 view .LVU94
 317 006a 8B68     		ldr	r3, [r1, #8]
 318 006c 93B1     		cbz	r3, .L23
 319              		.loc 1 160 7 is_stmt 1 view .LVU95
 320 006e 2846     		mov	r0, r5
 321 0070 9847     		blx	r3
 322              	.LVL14:
 323              	.L21:
 324              		.loc 1 161 5 view .LVU96
 325              		.loc 1 161 8 is_stmt 0 view .LVU97
 326 0072 002F     		cmp	r7, #0
 327 0074 D8D0     		beq	.L17
 328              		.loc 1 156 7 is_stmt 1 view .LVU98
 329              		.loc 1 156 7 view .LVU99
 330 0076 2B78     		ldrb	r3, [r5]	@ zero_extendqisi2
 331 0078 042B     		cmp	r3, #4
 332 007a EAD1     		bne	.L19
 333              	.L53:
 334              		.loc 1 156 7 is_stmt 0 view .LVU100
 335 007c 6968     		ldr	r1, [r5, #4]
 336              	.L26:
 337 007e CB68     		ldr	r3, [r1, #12]
 338 0080 002B     		cmp	r3, #0
 339 0082 E6D0     		beq	.L19
 340              		.loc 1 156 7 is_stmt 1 view .LVU101
 341 0084 0548     		ldr	r0, .L55
 342 0086 9847     		blx	r3
ARM GAS  C:\Users\USER\AppData\Local\Temp\ccTMvNGk.s 			page 7


 343              	.LVL15:
 344              		.loc 1 156 7 view .LVU102
 345 0088 0423     		movs	r3, #4
 346 008a 2B70     		strb	r3, [r5]
 347 008c CCE7     		b	.L17
 348              	.L15:
 349              		.loc 1 155 5 view .LVU103
 350              		.loc 1 155 8 is_stmt 0 view .LVU104
 351 008e 002E     		cmp	r6, #0
 352 0090 F5D1     		bne	.L26
 353 0092 C9E7     		b	.L17
 354              	.L23:
 355              		.loc 1 161 5 is_stmt 1 view .LVU105
 356              		.loc 1 161 8 is_stmt 0 view .LVU106
 357 0094 002F     		cmp	r7, #0
 358 0096 F2D1     		bne	.L26
 359 0098 C6E7     		b	.L17
 360              	.L56:
 361 009a 00BF     		.align	2
 362              	.L55:
 363 009c 00000000 		.word	.LANCHOR0
 364              	.LBE53:
 365              	.LBE55:
 366              		.cfi_endproc
 367              	.LFE258:
 368              		.size	VectorB4, .-VectorB4
 369              		.section	.text.icu_lld_init,"ax",%progbits
 370              		.align	1
 371              		.p2align 4,,15
 372              		.global	icu_lld_init
 373              		.syntax unified
 374              		.thumb
 375              		.thumb_func
 376              		.fpu fpv4-sp-d16
 377              		.type	icu_lld_init, %function
 378              	icu_lld_init:
 379              	.LFB259:
 380              		.loc 1 375 25 is_stmt 1 view -0
 381              		.cfi_startproc
 382              		@ args = 0, pretend = 0, frame = 0
 383              		@ frame_needed = 0, uses_anonymous_args = 0
 384              		.loc 1 391 3 view .LVU108
 385              		.loc 1 375 25 is_stmt 0 view .LVU109
 386 0000 10B5     		push	{r4, lr}
 387              		.cfi_def_cfa_offset 8
 388              		.cfi_offset 4, -8
 389              		.cfi_offset 14, -4
 390              		.loc 1 391 3 view .LVU110
 391 0002 034C     		ldr	r4, .L59
 392 0004 2046     		mov	r0, r4
 393 0006 FFF7FEFF 		bl	icuObjectInit
 394              	.LVL16:
 395              		.loc 1 392 3 is_stmt 1 view .LVU111
 396              		.loc 1 392 13 is_stmt 0 view .LVU112
 397 000a 024B     		ldr	r3, .L59+4
 398 000c E360     		str	r3, [r4, #12]
 399              		.loc 1 418 1 view .LVU113
ARM GAS  C:\Users\USER\AppData\Local\Temp\ccTMvNGk.s 			page 8


 400 000e 10BD     		pop	{r4, pc}
 401              	.L60:
 402              		.align	2
 403              	.L59:
 404 0010 00000000 		.word	.LANCHOR0
 405 0014 00040040 		.word	1073742848
 406              		.cfi_endproc
 407              	.LFE259:
 408              		.size	icu_lld_init, .-icu_lld_init
 409              		.section	.text.icu_lld_start,"ax",%progbits
 410              		.align	1
 411              		.p2align 4,,15
 412              		.global	icu_lld_start
 413              		.syntax unified
 414              		.thumb
 415              		.thumb_func
 416              		.fpu fpv4-sp-d16
 417              		.type	icu_lld_start, %function
 418              	icu_lld_start:
 419              	.LVL17:
 420              	.LFB260:
 421              		.loc 1 427 37 is_stmt 1 view -0
 422              		.cfi_startproc
 423              		@ args = 0, pretend = 0, frame = 0
 424              		@ frame_needed = 0, uses_anonymous_args = 0
 425              		.loc 1 428 3 view .LVU115
 426              		.loc 1 430 3 view .LVU116
 427              		.loc 1 430 3 view .LVU117
 428              		.loc 1 434 3 view .LVU118
 429              		.loc 1 434 6 is_stmt 0 view .LVU119
 430 0000 0378     		ldrb	r3, [r0]	@ zero_extendqisi2
 431 0002 012B     		cmp	r3, #1
 432              		.loc 1 427 37 view .LVU120
 433 0004 70B5     		push	{r4, r5, r6, lr}
 434              		.cfi_def_cfa_offset 16
 435              		.cfi_offset 4, -16
 436              		.cfi_offset 5, -12
 437              		.cfi_offset 6, -8
 438              		.cfi_offset 14, -4
 439              		.loc 1 427 37 view .LVU121
 440 0006 0446     		mov	r4, r0
 441              		.loc 1 434 6 view .LVU122
 442 0008 37D0     		beq	.L73
 443              		.loc 1 505 5 is_stmt 1 view .LVU123
 444              		.loc 1 505 9 is_stmt 0 view .LVU124
 445 000a C368     		ldr	r3, [r0, #12]
 446              		.loc 1 505 23 view .LVU125
 447 000c 0022     		movs	r2, #0
 448 000e 1A60     		str	r2, [r3]
 449              		.loc 1 506 5 is_stmt 1 view .LVU126
 450              		.loc 1 506 23 is_stmt 0 view .LVU127
 451 0010 5A63     		str	r2, [r3, #52]
 452              		.loc 1 507 5 is_stmt 1 view .LVU128
 453              		.loc 1 507 23 is_stmt 0 view .LVU129
 454 0012 9A63     		str	r2, [r3, #56]
 455              		.loc 1 508 5 is_stmt 1 view .LVU130
 456              		.loc 1 508 23 is_stmt 0 view .LVU131
ARM GAS  C:\Users\USER\AppData\Local\Temp\ccTMvNGk.s 			page 9


 457 0014 5A62     		str	r2, [r3, #36]
 458              	.LVL18:
 459              	.L64:
 460              		.loc 1 512 3 is_stmt 1 view .LVU132
 461              		.loc 1 515 22 is_stmt 0 view .LVU133
 462 0016 D4E90112 		ldrd	r1, r2, [r4, #4]
 463              		.loc 1 513 40 view .LVU134
 464 001a 8869     		ldr	r0, [r1, #24]
 465              		.loc 1 522 6 view .LVU135
 466 001c 0D7D     		ldrb	r5, [r1, #20]	@ zero_extendqisi2
 467              		.loc 1 513 40 view .LVU136
 468 001e 20F0FF00 		bic	r0, r0, #255
 469              		.loc 1 512 19 view .LVU137
 470 0022 0026     		movs	r6, #0
 471 0024 1E61     		str	r6, [r3, #16]
 472              		.loc 1 513 3 is_stmt 1 view .LVU138
 473              		.loc 1 513 19 is_stmt 0 view .LVU139
 474 0026 D860     		str	r0, [r3, #12]
 475              		.loc 1 515 3 is_stmt 1 view .LVU140
 476              		.loc 1 515 22 is_stmt 0 view .LVU141
 477 0028 4868     		ldr	r0, [r1, #4]
 478 002a B2FBF0F2 		udiv	r2, r2, r0
 479              		.loc 1 520 19 view .LVU142
 480 002e 4FF6FF70 		movw	r0, #65535
 481              		.loc 1 515 7 view .LVU143
 482 0032 013A     		subs	r2, r2, #1
 483              	.LVL19:
 484              		.loc 1 516 3 is_stmt 1 view .LVU144
 485              		.loc 1 516 3 view .LVU145
 486              		.loc 1 519 3 view .LVU146
 487              		.loc 1 519 19 is_stmt 0 view .LVU147
 488 0034 9A62     		str	r2, [r3, #40]
 489              		.loc 1 520 3 is_stmt 1 view .LVU148
 490 0036 0A78     		ldrb	r2, [r1]	@ zero_extendqisi2
 491              	.LVL20:
 492              		.loc 1 520 19 is_stmt 0 view .LVU149
 493 0038 D862     		str	r0, [r3, #44]
 494              	.LVL21:
 495              		.loc 1 522 3 is_stmt 1 view .LVU150
 496              		.loc 1 522 6 is_stmt 0 view .LVU151
 497 003a 85B9     		cbnz	r5, .L65
 498              		.loc 1 526 5 is_stmt 1 view .LVU152
 499              		.loc 1 526 22 is_stmt 0 view .LVU153
 500 003c 40F20120 		movw	r0, #513
 501              		.loc 1 530 22 view .LVU154
 502 0040 5421     		movs	r1, #84
 503              	.LVL22:
 504              		.loc 1 526 22 view .LVU155
 505 0042 9861     		str	r0, [r3, #24]
 506              		.loc 1 530 5 is_stmt 1 view .LVU156
 507              		.loc 1 530 22 is_stmt 0 view .LVU157
 508 0044 9960     		str	r1, [r3, #8]
 509              		.loc 1 535 5 is_stmt 1 view .LVU158
 510              		.loc 1 535 8 is_stmt 0 view .LVU159
 511 0046 3AB1     		cbz	r2, .L74
 512              		.loc 1 539 7 is_stmt 1 view .LVU160
 513              		.loc 1 539 23 is_stmt 0 view .LVU161
ARM GAS  C:\Users\USER\AppData\Local\Temp\ccTMvNGk.s 			page 10


 514 0048 1322     		movs	r2, #19
 515 004a 1A62     		str	r2, [r3, #32]
 516              	.LVL23:
 517              	.L67:
 518              		.loc 1 544 5 is_stmt 1 view .LVU162
 519              		.loc 1 544 19 is_stmt 0 view .LVU163
 520 004c 03F13802 		add	r2, r3, #56
 521              		.loc 1 545 19 view .LVU164
 522 0050 3433     		adds	r3, r3, #52
 523              		.loc 1 545 17 view .LVU165
 524 0052 C4E90423 		strd	r2, r3, [r4, #16]
 525              		.loc 1 572 1 view .LVU166
 526 0056 70BD     		pop	{r4, r5, r6, pc}
 527              	.LVL24:
 528              	.L74:
 529              		.loc 1 536 7 is_stmt 1 view .LVU167
 530              		.loc 1 536 23 is_stmt 0 view .LVU168
 531 0058 3122     		movs	r2, #49
 532 005a 1A62     		str	r2, [r3, #32]
 533              	.LVL25:
 534              		.loc 1 536 23 view .LVU169
 535 005c F6E7     		b	.L67
 536              	.LVL26:
 537              	.L65:
 538              		.loc 1 551 5 is_stmt 1 view .LVU170
 539              		.loc 1 551 22 is_stmt 0 view .LVU171
 540 005e 4FF48170 		mov	r0, #258
 541              		.loc 1 555 22 view .LVU172
 542 0062 6421     		movs	r1, #100
 543              	.LVL27:
 544              		.loc 1 551 22 view .LVU173
 545 0064 9861     		str	r0, [r3, #24]
 546              		.loc 1 555 5 is_stmt 1 view .LVU174
 547              		.loc 1 555 22 is_stmt 0 view .LVU175
 548 0066 9960     		str	r1, [r3, #8]
 549              		.loc 1 560 5 is_stmt 1 view .LVU176
 550              		.loc 1 560 8 is_stmt 0 view .LVU177
 551 0068 62B9     		cbnz	r2, .L69
 552              		.loc 1 561 7 is_stmt 1 view .LVU178
 553              		.loc 1 561 23 is_stmt 0 view .LVU179
 554 006a 1322     		movs	r2, #19
 555 006c 1A62     		str	r2, [r3, #32]
 556              	.LVL28:
 557              	.L70:
 558              		.loc 1 569 5 is_stmt 1 view .LVU180
 559              		.loc 1 569 19 is_stmt 0 view .LVU181
 560 006e 03F13402 		add	r2, r3, #52
 561              		.loc 1 570 19 view .LVU182
 562 0072 3833     		adds	r3, r3, #56
 563              		.loc 1 570 17 view .LVU183
 564 0074 C4E90423 		strd	r2, r3, [r4, #16]
 565              		.loc 1 572 1 view .LVU184
 566 0078 70BD     		pop	{r4, r5, r6, pc}
 567              	.LVL29:
 568              	.L73:
 569              		.loc 1 458 5 is_stmt 1 view .LVU185
 570              		.loc 1 458 8 is_stmt 0 view .LVU186
ARM GAS  C:\Users\USER\AppData\Local\Temp\ccTMvNGk.s 			page 11


 571 007a 0D4B     		ldr	r3, .L75
 572 007c 9842     		cmp	r0, r3
 573 007e 04D0     		beq	.L63
 574              	.LVL30:
 575              	.L72:
 576              		.loc 1 458 8 view .LVU187
 577 0080 E368     		ldr	r3, [r4, #12]
 578 0082 C8E7     		b	.L64
 579              	.LVL31:
 580              	.L69:
 581              		.loc 1 564 7 is_stmt 1 view .LVU188
 582              		.loc 1 564 23 is_stmt 0 view .LVU189
 583 0084 3122     		movs	r2, #49
 584 0086 1A62     		str	r2, [r3, #32]
 585              	.LVL32:
 586              		.loc 1 564 23 view .LVU190
 587 0088 F1E7     		b	.L70
 588              	.LVL33:
 589              	.L63:
 590              		.loc 1 459 7 is_stmt 1 view .LVU191
 591 008a 0A4B     		ldr	r3, .L75+4
 592 008c 1A6C     		ldr	r2, [r3, #64]
 593 008e 42F00202 		orr	r2, r2, #2
 594 0092 1A64     		str	r2, [r3, #64]
 595              		.loc 1 459 7 view .LVU192
 596              		.loc 1 459 27 view .LVU193
 597              		.loc 1 460 7 view .LVU194
 598 0094 1A6A     		ldr	r2, [r3, #32]
 599 0096 0020     		movs	r0, #0
 600              	.LVL34:
 601              		.loc 1 460 7 is_stmt 0 view .LVU195
 602 0098 42F00202 		orr	r2, r2, #2
 603 009c 1A62     		str	r2, [r3, #32]
 604              		.loc 1 460 7 is_stmt 1 view .LVU196
 605              		.loc 1 461 7 is_stmt 0 view .LVU197
 606 009e 0721     		movs	r1, #7
 607              		.loc 1 460 7 view .LVU198
 608 00a0 1862     		str	r0, [r3, #32]
 609              		.loc 1 460 21 is_stmt 1 view .LVU199
 610              		.loc 1 461 7 view .LVU200
 611 00a2 1D20     		movs	r0, #29
 612 00a4 FFF7FEFF 		bl	nvicEnableVector
 613              	.LVL35:
 614              		.loc 1 462 7 view .LVU201
 615              		.loc 1 462 19 is_stmt 0 view .LVU202
 616 00a8 034B     		ldr	r3, .L75+8
 617 00aa A360     		str	r3, [r4, #8]
 618 00ac E8E7     		b	.L72
 619              	.L76:
 620 00ae 00BF     		.align	2
 621              	.L75:
 622 00b0 00000000 		.word	.LANCHOR0
 623 00b4 00380240 		.word	1073887232
 624 00b8 00BD0105 		.word	84000000
 625              		.cfi_endproc
 626              	.LFE260:
 627              		.size	icu_lld_start, .-icu_lld_start
ARM GAS  C:\Users\USER\AppData\Local\Temp\ccTMvNGk.s 			page 12


 628              		.section	.text.icu_lld_stop,"ax",%progbits
 629              		.align	1
 630              		.p2align 4,,15
 631              		.global	icu_lld_stop
 632              		.syntax unified
 633              		.thumb
 634              		.thumb_func
 635              		.fpu fpv4-sp-d16
 636              		.type	icu_lld_stop, %function
 637              	icu_lld_stop:
 638              	.LVL36:
 639              	.LFB261:
 640              		.loc 1 581 36 is_stmt 1 view -0
 641              		.cfi_startproc
 642              		@ args = 0, pretend = 0, frame = 0
 643              		@ frame_needed = 0, uses_anonymous_args = 0
 644              		.loc 1 583 3 view .LVU204
 645              		.loc 1 581 36 is_stmt 0 view .LVU205
 646 0000 08B5     		push	{r3, lr}
 647              		.cfi_def_cfa_offset 8
 648              		.cfi_offset 3, -8
 649              		.cfi_offset 14, -4
 650              		.loc 1 583 6 view .LVU206
 651 0002 0378     		ldrb	r3, [r0]	@ zero_extendqisi2
 652 0004 022B     		cmp	r3, #2
 653 0006 00D0     		beq	.L82
 654              	.L77:
 655              		.loc 1 634 1 view .LVU207
 656 0008 08BD     		pop	{r3, pc}
 657              	.L82:
 658              		.loc 1 585 5 is_stmt 1 view .LVU208
 659              		.loc 1 603 8 is_stmt 0 view .LVU209
 660 000a 0849     		ldr	r1, .L83
 661              		.loc 1 585 9 view .LVU210
 662 000c C368     		ldr	r3, [r0, #12]
 663              		.loc 1 585 21 view .LVU211
 664 000e 0022     		movs	r2, #0
 665              		.loc 1 603 8 view .LVU212
 666 0010 8842     		cmp	r0, r1
 667              		.loc 1 585 21 view .LVU213
 668 0012 1A60     		str	r2, [r3]
 669              		.loc 1 586 5 is_stmt 1 view .LVU214
 670              		.loc 1 586 21 is_stmt 0 view .LVU215
 671 0014 DA60     		str	r2, [r3, #12]
 672              		.loc 1 587 5 is_stmt 1 view .LVU216
 673              		.loc 1 587 21 is_stmt 0 view .LVU217
 674 0016 1A61     		str	r2, [r3, #16]
 675              		.loc 1 603 5 is_stmt 1 view .LVU218
 676              		.loc 1 603 8 is_stmt 0 view .LVU219
 677 0018 F6D1     		bne	.L77
 678              		.loc 1 604 7 is_stmt 1 view .LVU220
 679 001a 1D20     		movs	r0, #29
 680              	.LVL37:
 681              		.loc 1 604 7 is_stmt 0 view .LVU221
 682 001c FFF7FEFF 		bl	nvicDisableVector
 683              	.LVL38:
 684              		.loc 1 605 7 is_stmt 1 view .LVU222
ARM GAS  C:\Users\USER\AppData\Local\Temp\ccTMvNGk.s 			page 13


 685 0020 034A     		ldr	r2, .L83+4
 686 0022 136C     		ldr	r3, [r2, #64]
 687 0024 23F00203 		bic	r3, r3, #2
 688 0028 1364     		str	r3, [r2, #64]
 689              		.loc 1 605 7 view .LVU223
 690              		.loc 1 605 28 view .LVU224
 691              		.loc 1 634 1 is_stmt 0 view .LVU225
 692 002a 08BD     		pop	{r3, pc}
 693              	.L84:
 694              		.align	2
 695              	.L83:
 696 002c 00000000 		.word	.LANCHOR0
 697 0030 00380240 		.word	1073887232
 698              		.cfi_endproc
 699              	.LFE261:
 700              		.size	icu_lld_stop, .-icu_lld_stop
 701              		.section	.text.icu_lld_start_capture,"ax",%progbits
 702              		.align	1
 703              		.p2align 4,,15
 704              		.global	icu_lld_start_capture
 705              		.syntax unified
 706              		.thumb
 707              		.thumb_func
 708              		.fpu fpv4-sp-d16
 709              		.type	icu_lld_start_capture, %function
 710              	icu_lld_start_capture:
 711              	.LVL39:
 712              	.LFB262:
 713              		.loc 1 643 45 is_stmt 1 view -0
 714              		.cfi_startproc
 715              		@ args = 0, pretend = 0, frame = 0
 716              		@ frame_needed = 0, uses_anonymous_args = 0
 717              		@ link register save eliminated.
 718              		.loc 1 646 3 view .LVU227
 719              		.loc 1 646 7 is_stmt 0 view .LVU228
 720 0000 C368     		ldr	r3, [r0, #12]
 721              		.loc 1 646 18 view .LVU229
 722 0002 5A69     		ldr	r2, [r3, #20]
 723              		.loc 1 647 17 view .LVU230
 724 0004 0020     		movs	r0, #0
 725              	.LVL40:
 726              		.loc 1 646 18 view .LVU231
 727 0006 42F00102 		orr	r2, r2, #1
 728              		.loc 1 650 18 view .LVU232
 729 000a 0521     		movs	r1, #5
 730              		.loc 1 646 18 view .LVU233
 731 000c 5A61     		str	r2, [r3, #20]
 732              		.loc 1 647 3 is_stmt 1 view .LVU234
 733              		.loc 1 647 17 is_stmt 0 view .LVU235
 734 000e 1861     		str	r0, [r3, #16]
 735              		.loc 1 650 3 is_stmt 1 view .LVU236
 736              		.loc 1 650 18 is_stmt 0 view .LVU237
 737 0010 1960     		str	r1, [r3]
 738              		.loc 1 651 1 view .LVU238
 739 0012 7047     		bx	lr
 740              		.cfi_endproc
 741              	.LFE262:
ARM GAS  C:\Users\USER\AppData\Local\Temp\ccTMvNGk.s 			page 14


 742              		.size	icu_lld_start_capture, .-icu_lld_start_capture
 743              		.section	.text.icu_lld_wait_capture,"ax",%progbits
 744              		.align	1
 745              		.p2align 4,,15
 746              		.global	icu_lld_wait_capture
 747              		.syntax unified
 748              		.thumb
 749              		.thumb_func
 750              		.fpu fpv4-sp-d16
 751              		.type	icu_lld_wait_capture, %function
 752              	icu_lld_wait_capture:
 753              	.LVL41:
 754              	.LFB263:
 755              		.loc 1 665 44 is_stmt 1 view -0
 756              		.cfi_startproc
 757              		@ args = 0, pretend = 0, frame = 0
 758              		@ frame_needed = 0, uses_anonymous_args = 0
 759              		.loc 1 669 3 view .LVU240
 760              		.loc 1 665 44 is_stmt 0 view .LVU241
 761 0000 38B5     		push	{r3, r4, r5, lr}
 762              		.cfi_def_cfa_offset 16
 763              		.cfi_offset 3, -16
 764              		.cfi_offset 4, -12
 765              		.cfi_offset 5, -8
 766              		.cfi_offset 14, -4
 767 0002 0546     		mov	r5, r0
 768 0004 041D     		adds	r4, r0, #4
 769              		.loc 1 669 6 view .LVU242
 770 0006 15F80C3B 		ldrb	r3, [r5], #12	@ zero_extendqisi2
 771 000a 032B     		cmp	r3, #3
 772 000c 05D0     		beq	.L87
 773              	.LVL42:
 774              	.L88:
 775              		.loc 1 674 3 is_stmt 1 view .LVU243
 776              		.loc 1 674 10 is_stmt 0 view .LVU244
 777 000e 2946     		mov	r1, r5
 778 0010 2046     		mov	r0, r4
 779              		.loc 1 675 1 view .LVU245
 780 0012 BDE83840 		pop	{r3, r4, r5, lr}
 781              		.cfi_remember_state
 782              		.cfi_restore 14
 783              		.cfi_restore 5
 784              		.cfi_restore 4
 785              		.cfi_restore 3
 786              		.cfi_def_cfa_offset 0
 787              	.LVL43:
 788              		.loc 1 674 10 view .LVU246
 789 0016 FFF7FEBF 		b	icu_lld_wait_edge.isra.0
 790              	.LVL44:
 791              	.L87:
 792              		.cfi_restore_state
 793              		.loc 1 670 5 is_stmt 1 view .LVU247
 794              		.loc 1 670 9 is_stmt 0 view .LVU248
 795 001a 2946     		mov	r1, r5
 796 001c 2046     		mov	r0, r4
 797              	.LVL45:
 798              		.loc 1 670 9 view .LVU249
ARM GAS  C:\Users\USER\AppData\Local\Temp\ccTMvNGk.s 			page 15


 799 001e FFF7FEFF 		bl	icu_lld_wait_edge.isra.0
 800              	.LVL46:
 801              		.loc 1 670 8 view .LVU250
 802 0022 0028     		cmp	r0, #0
 803 0024 F3D0     		beq	.L88
 804              	.LVL47:
 805              		.loc 1 675 1 view .LVU251
 806 0026 38BD     		pop	{r3, r4, r5, pc}
 807              		.cfi_endproc
 808              	.LFE263:
 809              		.size	icu_lld_wait_capture, .-icu_lld_wait_capture
 810              		.section	.text.icu_lld_stop_capture,"ax",%progbits
 811              		.align	1
 812              		.p2align 4,,15
 813              		.global	icu_lld_stop_capture
 814              		.syntax unified
 815              		.thumb
 816              		.thumb_func
 817              		.fpu fpv4-sp-d16
 818              		.type	icu_lld_stop_capture, %function
 819              	icu_lld_stop_capture:
 820              	.LVL48:
 821              	.LFB264:
 822              		.loc 1 684 44 is_stmt 1 view -0
 823              		.cfi_startproc
 824              		@ args = 0, pretend = 0, frame = 0
 825              		@ frame_needed = 0, uses_anonymous_args = 0
 826              		@ link register save eliminated.
 827              		.loc 1 687 3 view .LVU253
 828              		.loc 1 687 7 is_stmt 0 view .LVU254
 829 0000 C368     		ldr	r3, [r0, #12]
 830              		.loc 1 687 20 view .LVU255
 831 0002 0022     		movs	r2, #0
 832 0004 1A60     		str	r2, [r3]
 833              		.loc 1 690 3 is_stmt 1 view .LVU256
 834              		.loc 1 690 19 is_stmt 0 view .LVU257
 835 0006 DA68     		ldr	r2, [r3, #12]
 836 0008 22F0FF02 		bic	r2, r2, #255
 837 000c DA60     		str	r2, [r3, #12]
 838              		.loc 1 691 1 view .LVU258
 839 000e 7047     		bx	lr
 840              		.cfi_endproc
 841              	.LFE264:
 842              		.size	icu_lld_stop_capture, .-icu_lld_stop_capture
 843              		.section	.text.icu_lld_enable_notifications,"ax",%progbits
 844              		.align	1
 845              		.p2align 4,,15
 846              		.global	icu_lld_enable_notifications
 847              		.syntax unified
 848              		.thumb
 849              		.thumb_func
 850              		.fpu fpv4-sp-d16
 851              		.type	icu_lld_enable_notifications, %function
 852              	icu_lld_enable_notifications:
 853              	.LVL49:
 854              	.LFB265:
 855              		.loc 1 702 52 is_stmt 1 view -0
ARM GAS  C:\Users\USER\AppData\Local\Temp\ccTMvNGk.s 			page 16


 856              		.cfi_startproc
 857              		@ args = 0, pretend = 0, frame = 0
 858              		@ frame_needed = 0, uses_anonymous_args = 0
 859              		@ link register save eliminated.
 860              		.loc 1 703 3 view .LVU260
 861              		.loc 1 703 23 is_stmt 0 view .LVU261
 862 0000 C268     		ldr	r2, [r0, #12]
 863              		.loc 1 703 12 view .LVU262
 864 0002 D368     		ldr	r3, [r2, #12]
 865              	.LVL50:
 866              		.loc 1 708 3 is_stmt 1 view .LVU263
 867              		.loc 1 702 52 is_stmt 0 view .LVU264
 868 0004 10B4     		push	{r4}
 869              		.cfi_def_cfa_offset 4
 870              		.cfi_offset 4, -4
 871              		.loc 1 708 6 view .LVU265
 872 0006 13F0FF04 		ands	r4, r3, #255
 873 000a 0CD1     		bne	.L94
 874              		.loc 1 710 5 is_stmt 1 view .LVU266
 875              		.loc 1 712 13 is_stmt 0 view .LVU267
 876 000c 4168     		ldr	r1, [r0, #4]
 877              		.loc 1 710 19 view .LVU268
 878 000e 1461     		str	r4, [r2, #16]
 879              		.loc 1 712 5 is_stmt 1 view .LVU269
 880              		.loc 1 712 8 is_stmt 0 view .LVU270
 881 0010 0C7D     		ldrb	r4, [r1, #20]	@ zero_extendqisi2
 882 0012 8868     		ldr	r0, [r1, #8]
 883              	.LVL51:
 884              		.loc 1 712 8 view .LVU271
 885 0014 54B9     		cbnz	r4, .L96
 886              		.loc 1 714 7 is_stmt 1 view .LVU272
 887              	.LVL52:
 888              		.loc 1 717 7 view .LVU273
 889              		.loc 1 717 10 is_stmt 0 view .LVU274
 890 0016 70B1     		cbz	r0, .L105
 891              	.LVL53:
 892              	.L99:
 893              		.loc 1 726 9 is_stmt 1 view .LVU275
 894              		.loc 1 726 14 is_stmt 0 view .LVU276
 895 0018 43F00603 		orr	r3, r3, #6
 896              	.LVL54:
 897              	.L98:
 898              		.loc 1 731 5 is_stmt 1 view .LVU277
 899              		.loc 1 731 8 is_stmt 0 view .LVU278
 900 001c 0969     		ldr	r1, [r1, #16]
 901 001e 09B1     		cbz	r1, .L100
 902              		.loc 1 732 7 is_stmt 1 view .LVU279
 903              		.loc 1 732 12 is_stmt 0 view .LVU280
 904 0020 43F00103 		orr	r3, r3, #1
 905              	.LVL55:
 906              	.L100:
 907              		.loc 1 735 5 is_stmt 1 view .LVU281
 908              		.loc 1 735 21 is_stmt 0 view .LVU282
 909 0024 D360     		str	r3, [r2, #12]
 910              	.L94:
 911              		.loc 1 737 1 view .LVU283
 912 0026 5DF8044B 		ldr	r4, [sp], #4
ARM GAS  C:\Users\USER\AppData\Local\Temp\ccTMvNGk.s 			page 17


 913              		.cfi_remember_state
 914              		.cfi_restore 4
 915              		.cfi_def_cfa_offset 0
 916 002a 7047     		bx	lr
 917              	.L96:
 918              		.cfi_restore_state
 919              		.loc 1 722 7 is_stmt 1 view .LVU284
 920              	.LVL56:
 921              		.loc 1 725 7 view .LVU285
 922              		.loc 1 725 10 is_stmt 0 view .LVU286
 923 002c 0028     		cmp	r0, #0
 924 002e F3D1     		bne	.L99
 925              		.loc 1 722 12 view .LVU287
 926 0030 43F00403 		orr	r3, r3, #4
 927              	.LVL57:
 928              		.loc 1 722 12 view .LVU288
 929 0034 F2E7     		b	.L98
 930              	.LVL58:
 931              	.L105:
 932              		.loc 1 714 12 view .LVU289
 933 0036 43F00203 		orr	r3, r3, #2
 934              	.LVL59:
 935              		.loc 1 714 12 view .LVU290
 936 003a EFE7     		b	.L98
 937              		.cfi_endproc
 938              	.LFE265:
 939              		.size	icu_lld_enable_notifications, .-icu_lld_enable_notifications
 940              		.section	.text.icu_lld_disable_notifications,"ax",%progbits
 941              		.align	1
 942              		.p2align 4,,15
 943              		.global	icu_lld_disable_notifications
 944              		.syntax unified
 945              		.thumb
 946              		.thumb_func
 947              		.fpu fpv4-sp-d16
 948              		.type	icu_lld_disable_notifications, %function
 949              	icu_lld_disable_notifications:
 950              	.LVL60:
 951              	.LFB266:
 952              		.loc 1 748 53 is_stmt 1 view -0
 953              		.cfi_startproc
 954              		@ args = 0, pretend = 0, frame = 0
 955              		@ frame_needed = 0, uses_anonymous_args = 0
 956              		@ link register save eliminated.
 957              		.loc 1 751 3 view .LVU292
 958              		.loc 1 751 7 is_stmt 0 view .LVU293
 959 0000 C268     		ldr	r2, [r0, #12]
 960              		.loc 1 751 19 view .LVU294
 961 0002 D368     		ldr	r3, [r2, #12]
 962 0004 23F0FF03 		bic	r3, r3, #255
 963 0008 D360     		str	r3, [r2, #12]
 964              		.loc 1 752 1 view .LVU295
 965 000a 7047     		bx	lr
 966              		.cfi_endproc
 967              	.LFE266:
 968              		.size	icu_lld_disable_notifications, .-icu_lld_disable_notifications
 969              		.global	ICUD3
ARM GAS  C:\Users\USER\AppData\Local\Temp\ccTMvNGk.s 			page 18


 970              		.section	.bss.ICUD3,"aw",%nobits
 971              		.align	2
 972              		.set	.LANCHOR0,. + 0
 973              		.type	ICUD3, %object
 974              		.size	ICUD3, 24
 975              	ICUD3:
 976 0000 00000000 		.space	24
 976      00000000 
 976      00000000 
 976      00000000 
 976      00000000 
 977              		.text
 978              	.Letext0:
 979              		.file 5 "c:\\program files (x86)\\gnu tools arm embedded\\8 2018-q4-major\\lib\\gcc\\arm-none-eabi
 980              		.file 6 "c:\\program files (x86)\\gnu tools arm embedded\\8 2018-q4-major\\arm-none-eabi\\include\
 981              		.file 7 "c:\\program files (x86)\\gnu tools arm embedded\\8 2018-q4-major\\arm-none-eabi\\include\
 982              		.file 8 "src/ChibiOS_3.0.2/os/rt/ports/ARMCMx/compilers/GCC/chtypes.h"
 983              		.file 9 "src/ChibiOS_3.0.2/os/rt/include/chsystypes.h"
 984              		.file 10 "src/ChibiOS_3.0.2/os/rt/include/chschd.h"
 985              		.file 11 "src/ChibiOS_3.0.2/os/ext/CMSIS/include/core_cm4.h"
 986              		.file 12 "src/ChibiOS_3.0.2/os/ext/CMSIS/ST/system_stm32f4xx.h"
 987              		.file 13 "src/ChibiOS_3.0.2/os/ext/CMSIS/ST/stm32f407xx.h"
 988              		.file 14 "src/ChibiOS_3.0.2/os/rt/ports/ARMCMx/chcore.h"
 989              		.file 15 "src/ChibiOS_3.0.2/os/rt/include/chtm.h"
 990              		.file 16 "src/ChibiOS_3.0.2/os/rt/include/chsem.h"
 991              		.file 17 "src/ChibiOS_3.0.2/os/rt/include/chmtx.h"
 992              		.file 18 "src/ChibiOS_3.0.2/os/rt/include/chregistry.h"
 993              		.file 19 "src/ChibiOS_3.0.2/os/rt/include/chevents.h"
 994              		.file 20 "src/ChibiOS_3.0.2/os/rt/include/chqueues.h"
 995              		.file 21 "src/ChibiOS_3.0.2/os/hal/ports/STM32/STM32F4xx/stm32_dma.h"
 996              		.file 22 "src/ChibiOS_3.0.2/os/hal/ports/STM32/LLD/GPIOv2/pal_lld.h"
 997              		.file 23 "src/ChibiOS_3.0.2/os/hal/include/can.h"
 998              		.file 24 "src/ChibiOS_3.0.2/os/hal/ports/STM32/LLD/can_lld.h"
 999              		.file 25 "src/ChibiOS_3.0.2/os/hal/include/i2c.h"
 1000              		.file 26 "src/ChibiOS_3.0.2/os/hal/ports/STM32/LLD/I2Cv1/i2c_lld.h"
 1001              		.file 27 "src/ChibiOS_3.0.2/os/hal/include/icu.h"
 1002              		.file 28 "src/ChibiOS_3.0.2/os/hal/ports/STM32/LLD/TIMv1/icu_lld.h"
 1003              		.file 29 "src/ChibiOS_3.0.2/os/hal/ports/STM32/LLD/TIMv1/stm32_tim.h"
 1004              		.file 30 "src/ChibiOS_3.0.2/os/hal/include/serial.h"
 1005              		.file 31 "src/ChibiOS_3.0.2/os/hal/ports/STM32/LLD/USARTv1/serial_lld.h"
 1006              		.file 32 "src/ChibiOS_3.0.2/os/hal/include/spi.h"
 1007              		.file 33 "src/ChibiOS_3.0.2/os/hal/ports/STM32/LLD/SPIv1/spi_lld.h"
 1008              		.file 34 "src/ChibiOS_3.0.2/os/hal/include/uart.h"
 1009              		.file 35 "src/ChibiOS_3.0.2/os/hal/ports/STM32/LLD/USARTv1/uart_lld.h"
 1010              		.file 36 "src/ChibiOS_3.0.2/os/hal/include/usb.h"
 1011              		.file 37 "src/ChibiOS_3.0.2/os/hal/ports/STM32/LLD/OTGv1/usb_lld.h"
 1012              		.file 38 "src/ChibiOS_3.0.2/os/hal/ports/STM32/LLD/OTGv1/stm32_otg.h"
 1013              		.file 39 "src/ChibiOS_3.0.2/os/hal/ports/common/ARMCMx/nvic.h"