ARM GAS  C:\Users\IDONNO~1\AppData\Local\Temp\ccXcEo5u.s 			page 1


   1              		.syntax unified
   2              		.cpu cortex-m4
   3              		.eabi_attribute 27, 1
   4              		.eabi_attribute 28, 1
   5              		.fpu fpv4-sp-d16
   6              		.eabi_attribute 20, 1
   7              		.eabi_attribute 21, 1
   8              		.eabi_attribute 23, 3
   9              		.eabi_attribute 24, 1
  10              		.eabi_attribute 25, 1
  11              		.eabi_attribute 26, 1
  12              		.eabi_attribute 30, 2
  13              		.eabi_attribute 34, 1
  14              		.eabi_attribute 18, 4
  15              		.thumb
  16              		.syntax unified
  17              		.file	"irq_handlers.c"
  18              		.text
  19              	.Ltext0:
  20              		.cfi_sections	.debug_frame
  21              		.section	.text.Vector88,"ax",%progbits
  22              		.align	2
  23              		.p2align 4,,15
  24              		.global	Vector88
  25              		.thumb
  26              		.thumb_func
  27              		.type	Vector88, %function
  28              	Vector88:
  29              	.LFB256:
  30              		.file 1 "src/core/irq_handlers.c"
  31              		.loc 1 39 0
  32              		.cfi_startproc
  33              		@ args = 0, pretend = 0, frame = 0
  34              		@ frame_needed = 0, uses_anonymous_args = 0
  35 0000 08B5     		push	{r3, lr}
  36              		.cfi_def_cfa_offset 8
  37              		.cfi_offset 3, -8
  38              		.cfi_offset 14, -4
  39              		.loc 1 41 0
  40 0002 40F20521 		movw	r1, #517
  41 0006 0348     		ldr	r0, .L3
  42 0008 FFF7FEFF 		bl	ADC_ClearITPendingBit
  43              	.LVL0:
  44              		.loc 1 44 0
  45 000c BDE80840 		pop	{r3, lr}
  46              		.cfi_restore 14
  47              		.cfi_restore 3
  48              		.cfi_def_cfa_offset 0
  49              		.loc 1 43 0
  50 0010 FFF7FEBF 		b	_port_irq_epilogue
  51              	.LVL1:
  52              	.L4:
  53              		.align	2
  54              	.L3:
  55 0014 00200140 		.word	1073815552
  56              		.cfi_endproc
  57              	.LFE256:
ARM GAS  C:\Users\IDONNO~1\AppData\Local\Temp\ccXcEo5u.s 			page 2


  58              		.size	Vector88, .-Vector88
  59              		.section	.text.VectorE0,"ax",%progbits
  60              		.align	2
  61              		.p2align 4,,15
  62              		.global	VectorE0
  63              		.thumb
  64              		.thumb_func
  65              		.type	VectorE0, %function
  66              	VectorE0:
  67              	.LFB257:
  68              		.loc 1 46 0
  69              		.cfi_startproc
  70              		@ args = 0, pretend = 0, frame = 0
  71              		@ frame_needed = 0, uses_anonymous_args = 0
  72 0000 08B5     		push	{r3, lr}
  73              		.cfi_def_cfa_offset 8
  74              		.cfi_offset 3, -8
  75              		.cfi_offset 14, -4
  76              		.loc 1 47 0
  77 0002 4FF40060 		mov	r0, #2048
  78 0006 FFF7FEFF 		bl	EXTI_GetITStatus
  79              	.LVL2:
  80 000a 00B9     		cbnz	r0, .L9
  81 000c 08BD     		pop	{r3, pc}
  82              	.L9:
  83              		.loc 1 48 0
  84 000e FFF7FEFF 		bl	encoder_reset
  85              	.LVL3:
  86              		.loc 1 51 0
  87 0012 4FF40060 		mov	r0, #2048
  88              		.loc 1 53 0
  89 0016 BDE80840 		pop	{r3, lr}
  90              		.cfi_restore 14
  91              		.cfi_restore 3
  92              		.cfi_def_cfa_offset 0
  93              		.loc 1 51 0
  94 001a FFF7FEBF 		b	EXTI_ClearITPendingBit
  95              	.LVL4:
  96              		.cfi_endproc
  97              	.LFE257:
  98              		.size	VectorE0, .-VectorE0
  99 001e 00BF     		.section	.text.VectorB8,"ax",%progbits
 100              		.align	2
 101              		.p2align 4,,15
 102              		.global	VectorB8
 103              		.thumb
 104              		.thumb_func
 105              		.type	VectorB8, %function
 106              	VectorB8:
 107              	.LFB258:
 108              		.loc 1 55 0
 109              		.cfi_startproc
 110              		@ args = 0, pretend = 0, frame = 0
 111              		@ frame_needed = 0, uses_anonymous_args = 0
 112 0000 08B5     		push	{r3, lr}
 113              		.cfi_def_cfa_offset 8
 114              		.cfi_offset 3, -8
ARM GAS  C:\Users\IDONNO~1\AppData\Local\Temp\ccXcEo5u.s 			page 3


 115              		.cfi_offset 14, -4
 116              		.loc 1 56 0
 117 0002 0121     		movs	r1, #1
 118 0004 0648     		ldr	r0, .L14
 119 0006 FFF7FEFF 		bl	TIM_GetITStatus
 120              	.LVL5:
 121 000a 00B9     		cbnz	r0, .L13
 122 000c 08BD     		pop	{r3, pc}
 123              	.L13:
 124              		.loc 1 57 0
 125 000e FFF7FEFF 		bl	encoder_tim_isr
 126              	.LVL6:
 127              		.loc 1 60 0
 128 0012 0121     		movs	r1, #1
 129 0014 0248     		ldr	r0, .L14
 130              		.loc 1 62 0
 131 0016 BDE80840 		pop	{r3, lr}
 132              		.cfi_restore 14
 133              		.cfi_restore 3
 134              		.cfi_def_cfa_offset 0
 135              		.loc 1 60 0
 136 001a FFF7FEBF 		b	TIM_ClearITPendingBit
 137              	.LVL7:
 138              	.L15:
 139 001e 00BF     		.align	2
 140              	.L14:
 141 0020 00080040 		.word	1073743872
 142              		.cfi_endproc
 143              	.LFE258:
 144              		.size	VectorB8, .-VectorB8
 145              		.section	.text.VectorF8,"ax",%progbits
 146              		.align	2
 147              		.p2align 4,,15
 148              		.global	VectorF8
 149              		.thumb
 150              		.thumb_func
 151              		.type	VectorF8, %function
 152              	VectorF8:
 153              	.LFB259:
 154              		.loc 1 64 0
 155              		.cfi_startproc
 156              		@ args = 0, pretend = 0, frame = 0
 157              		@ frame_needed = 0, uses_anonymous_args = 0
 158 0000 08B5     		push	{r3, lr}
 159              		.cfi_def_cfa_offset 8
 160              		.cfi_offset 3, -8
 161              		.cfi_offset 14, -4
 162              		.loc 1 65 0
 163 0002 0221     		movs	r1, #2
 164 0004 0548     		ldr	r0, .L20
 165 0006 FFF7FEFF 		bl	TIM_GetITStatus
 166              	.LVL8:
 167 000a 00B9     		cbnz	r0, .L19
 168 000c 08BD     		pop	{r3, pc}
 169              	.L19:
 170              		.loc 1 69 0
 171 000e 0221     		movs	r1, #2
ARM GAS  C:\Users\IDONNO~1\AppData\Local\Temp\ccXcEo5u.s 			page 4


 172 0010 0248     		ldr	r0, .L20
 173              		.loc 1 71 0
 174 0012 BDE80840 		pop	{r3, lr}
 175              		.cfi_restore 14
 176              		.cfi_restore 3
 177              		.cfi_def_cfa_offset 0
 178              		.loc 1 69 0
 179 0016 FFF7FEBF 		b	TIM_ClearITPendingBit
 180              	.LVL9:
 181              	.L21:
 182 001a 00BF     		.align	2
 183              	.L20:
 184 001c 00040140 		.word	1073808384
 185              		.cfi_endproc
 186              	.LFE259:
 187              		.size	VectorF8, .-VectorF8
 188              		.text
 189              	.Letext0:
 190              		.file 2 "c:\\program files (x86)\\gnu tools arm embedded\\5.4 2016q3\\arm-none-eabi\\include\\mach
 191              		.file 3 "c:\\program files (x86)\\gnu tools arm embedded\\5.4 2016q3\\arm-none-eabi\\include\\sys\
 192              		.file 4 "src/ChibiOS_3.0.2/os/rt/ports/ARMCMx/compilers/GCC/chtypes.h"
 193              		.file 5 "src/ChibiOS_3.0.2/os/rt/include/chsystypes.h"
 194              		.file 6 "src/ChibiOS_3.0.2/os/rt/include/chschd.h"
 195              		.file 7 "src/ChibiOS_3.0.2/os/ext/CMSIS/ST/stm32f407xx.h"
 196              		.file 8 "src/ChibiOS_3.0.2/os/rt/ports/ARMCMx/chcore.h"
 197              		.file 9 "src/ChibiOS_3.0.2/os/rt/ports/ARMCMx/chcore_v7m.h"
 198              		.file 10 "src/ChibiOS_3.0.2/os/rt/include/chtm.h"
 199              		.file 11 "src/ChibiOS_3.0.2/os/rt/include/chsem.h"
 200              		.file 12 "src/ChibiOS_3.0.2/os/rt/include/chmtx.h"
 201              		.file 13 "src/ChibiOS_3.0.2/ext/stdperiph_stm32f4/inc/stm32f4xx_adc.h"
 202              		.file 14 "src/ChibiOS_3.0.2/ext/stdperiph_stm32f4/inc/stm32f4xx_exti.h"
 203              		.file 15 "src/mc/mc_encoder.h"
 204              		.file 16 "src/ChibiOS_3.0.2/ext/stdperiph_stm32f4/inc/stm32f4xx_tim.h"
 205              		.file 17 "src/ChibiOS_3.0.2/os/ext/CMSIS/ST/stm32f4xx.h"
 206              		.file 18 "src/ChibiOS_3.0.2/os/ext/CMSIS/include/core_cm4.h"