ARM GAS  C:\Users\IDONNO~1\AppData\Local\Temp\ccrHXc7a.s 			page 1


   1              		.syntax unified
   2              		.cpu cortex-m4
   3              		.eabi_attribute 27, 1
   4              		.eabi_attribute 28, 1
   5              		.fpu fpv4-sp-d16
   6              		.eabi_attribute 20, 1
   7              		.eabi_attribute 21, 1
   8              		.eabi_attribute 23, 3
   9              		.eabi_attribute 24, 1
  10              		.eabi_attribute 25, 1
  11              		.eabi_attribute 26, 1
  12              		.eabi_attribute 30, 2
  13              		.eabi_attribute 34, 1
  14              		.eabi_attribute 18, 4
  15              		.thumb
  16              		.syntax unified
  17              		.file	"led_external.c"
  18              		.text
  19              	.Ltext0:
  20              		.cfi_sections	.debug_frame
  21              		.section	.text.wait_for_state_change,"ax",%progbits
  22              		.align	2
  23              		.p2align 4,,15
  24              		.thumb
  25              		.thumb_func
  26              		.type	wait_for_state_change, %function
  27              	wait_for_state_change:
  28              	.LFB261:
  29              		.file 1 "src/core/led_external.c"
  30              		.loc 1 206 0
  31              		.cfi_startproc
  32              		@ args = 0, pretend = 0, frame = 0
  33              		@ frame_needed = 0, uses_anonymous_args = 0
  34 0000 F8B5     		push	{r3, r4, r5, r6, r7, lr}
  35              		.cfi_def_cfa_offset 24
  36              		.cfi_offset 3, -24
  37              		.cfi_offset 4, -20
  38              		.cfi_offset 5, -16
  39              		.cfi_offset 6, -12
  40              		.cfi_offset 7, -8
  41              		.cfi_offset 14, -4
  42              		.loc 1 207 0
  43 0002 0E4E     		ldr	r6, .L10
  44              		.loc 1 208 0
  45 0004 0E4F     		ldr	r7, .L10+4
  46              		.loc 1 207 0
  47 0006 3478     		ldrb	r4, [r6]	@ zero_extendqisi2
  48              		.loc 1 208 0
  49 0008 3D78     		ldrb	r5, [r7]	@ zero_extendqisi2
  50              	.LBB70:
  51              		.loc 1 209 0
  52 000a 3378     		ldrb	r3, [r6]	@ zero_extendqisi2
  53              	.LBE70:
  54              		.loc 1 207 0
  55 000c E4B2     		uxtb	r4, r4
  56              	.LVL0:
  57              	.LBB71:
ARM GAS  C:\Users\IDONNO~1\AppData\Local\Temp\ccrHXc7a.s 			page 2


  58              		.loc 1 209 0
  59 000e 9C42     		cmp	r4, r3
  60 0010 11D1     		bne	.L1
  61 0012 3B78     		ldrb	r3, [r7]	@ zero_extendqisi2
  62 0014 EDB2     		uxtb	r5, r5
  63 0016 9D42     		cmp	r5, r3
  64 0018 09D0     		beq	.L6
  65 001a 0DE0     		b	.L9
  66              	.L5:
  67              		.loc 1 210 0
  68 001c 6420     		movs	r0, #100
  69 001e FFF7FEFF 		bl	chThdSleep
  70              	.LVL1:
  71              		.loc 1 209 0
  72 0022 3378     		ldrb	r3, [r6]	@ zero_extendqisi2
  73 0024 9C42     		cmp	r4, r3
  74 0026 06D1     		bne	.L1
  75              		.loc 1 209 0 is_stmt 0 discriminator 1
  76 0028 3B78     		ldrb	r3, [r7]	@ zero_extendqisi2
  77 002a 9D42     		cmp	r5, r3
  78 002c 03D1     		bne	.L1
  79              	.L6:
  80              		.loc 1 209 0 discriminator 2
  81 002e FFF7FEFF 		bl	mc_interface_get_fault
  82              	.LVL2:
  83 0032 0028     		cmp	r0, #0
  84 0034 F2D0     		beq	.L5
  85              	.LVL3:
  86              	.L1:
  87 0036 F8BD     		pop	{r3, r4, r5, r6, r7, pc}
  88              	.LVL4:
  89              	.L9:
  90 0038 F8BD     		pop	{r3, r4, r5, r6, r7, pc}
  91              	.LVL5:
  92              	.L11:
  93 003a 00BF     		.align	2
  94              	.L10:
  95 003c 00000000 		.word	.LANCHOR0
  96 0040 00000000 		.word	.LANCHOR1
  97              	.LBE71:
  98              		.cfi_endproc
  99              	.LFE261:
 100              		.size	wait_for_state_change, .-wait_for_state_change
 101              		.section	.text.set_led_wrapper,"ax",%progbits
 102              		.align	2
 103              		.p2align 4,,15
 104              		.thumb
 105              		.thumb_func
 106              		.type	set_led_wrapper, %function
 107              	set_led_wrapper:
 108              	.LFB262:
 109              		.loc 1 214 0 is_stmt 1
 110              		.cfi_startproc
 111              		@ args = 0, pretend = 0, frame = 0
 112              		@ frame_needed = 0, uses_anonymous_args = 0
 113              		@ link register save eliminated.
 114              	.LVL6:
ARM GAS  C:\Users\IDONNO~1\AppData\Local\Temp\ccrHXc7a.s 			page 3


 115              		.loc 1 215 0
 116 0000 064B     		ldr	r3, .L15
 117 0002 1A78     		ldrb	r2, [r3]	@ zero_extendqisi2
 118 0004 3AB1     		cbz	r2, .L13
 119              		.loc 1 216 0
 120 0006 0D28     		cmp	r0, #13
 121 0008 02DC     		bgt	.L14
 122              		.loc 1 217 0
 123 000a 0E30     		adds	r0, r0, #14
 124              	.LVL7:
 125 000c FFF7FEBF 		b	ws2811_set_led_color
 126              	.LVL8:
 127              	.L14:
 128              		.loc 1 219 0
 129 0010 0E38     		subs	r0, r0, #14
 130              	.LVL9:
 131 0012 FFF7FEBF 		b	ws2811_set_led_color
 132              	.LVL10:
 133              	.L13:
 134              		.loc 1 222 0
 135 0016 FFF7FEBF 		b	ws2811_set_led_color
 136              	.LVL11:
 137              	.L16:
 138 001a 00BF     		.align	2
 139              	.L15:
 140 001c 00000000 		.word	.LANCHOR1
 141              		.cfi_endproc
 142              	.LFE262:
 143              		.size	set_led_wrapper, .-set_led_wrapper
 144              		.section	.text.led_thread,"ax",%progbits
 145              		.align	2
 146              		.p2align 4,,15
 147              		.thumb
 148              		.thumb_func
 149              		.type	led_thread, %function
 150              	led_thread:
 151              	.LFB259:
 152              		.loc 1 61 0
 153              		.cfi_startproc
 154              		@ args = 0, pretend = 0, frame = 0
 155              		@ frame_needed = 0, uses_anonymous_args = 0
 156              	.LVL12:
 157 0000 2DE9F84F 		push	{r3, r4, r5, r6, r7, r8, r9, r10, fp, lr}
 158              		.cfi_def_cfa_offset 40
 159              		.cfi_offset 3, -40
 160              		.cfi_offset 4, -36
 161              		.cfi_offset 5, -32
 162              		.cfi_offset 6, -28
 163              		.cfi_offset 7, -24
 164              		.cfi_offset 8, -20
 165              		.cfi_offset 9, -16
 166              		.cfi_offset 10, -12
 167              		.cfi_offset 11, -8
 168              		.cfi_offset 14, -4
 169              	.LBB72:
 170              	.LBB73:
 171              		.file 2 "src/ChibiOS_3.0.2/os/rt/include/chregistry.h"
ARM GAS  C:\Users\IDONNO~1\AppData\Local\Temp\ccrHXc7a.s 			page 4


 172              		.loc 2 135 0
 173 0004 DFF87093 		ldr	r9, .L88+44
 174 0008 D04A     		ldr	r2, .L88
 175 000a D9F81830 		ldr	r3, [r9, #24]
 176 000e D04F     		ldr	r7, .L88+4
 177 0010 DFF86883 		ldr	r8, .L88+48
 178              	.LBE73:
 179              	.LBE72:
 180              	.LBB75:
 181              	.LBB76:
 182              		.loc 1 149 0
 183 0014 DFF868A3 		ldr	r10, .L88+52
 184              	.LBE76:
 185              	.LBE75:
 186              		.loc 1 61 0
 187 0018 2DED068B 		vpush.64	{d8, d9, d10}
 188              		.cfi_def_cfa_offset 64
 189              		.cfi_offset 80, -64
 190              		.cfi_offset 81, -60
 191              		.cfi_offset 82, -56
 192              		.cfi_offset 83, -52
 193              		.cfi_offset 84, -48
 194              		.cfi_offset 85, -44
 195              	.LBB139:
 196              	.LBB74:
 197              		.loc 2 135 0
 198 001c 9A61     		str	r2, [r3, #24]
 199              	.LVL13:
 200              	.LBE74:
 201              	.LBE139:
 202              	.LBB140:
 203              		.loc 1 68 0
 204 001e FFF7FEFF 		bl	mc_interface_get_fault
 205              	.LVL14:
 206              		.loc 1 69 0
 207 0022 C5B2     		uxtb	r5, r0
 208              	.LBB122:
 209              		.loc 1 162 0
 210 0024 DFEDCBAA 		vldr.32	s21, .L88+8
 211 0028 9FEDCBAA 		vldr.32	s20, .L88+12
 212 002c DFEDCB8A 		vldr.32	s17, .L88+16
 213              	.LBE122:
 214              		.loc 1 69 0
 215 0030 002D     		cmp	r5, #0
 216 0032 44D0     		beq	.L18
 217              	.LVL15:
 218              	.L80:
 219              	.LBB123:
 220              		.loc 1 70 0
 221 0034 0020     		movs	r0, #0
 222              	.LVL16:
 223 0036 FFF7FEFF 		bl	ws2811_set_all
 224              	.LVL17:
 225              	.LBB124:
 226              		.loc 1 71 0
 227 003a 0024     		movs	r4, #0
 228              	.LVL18:
ARM GAS  C:\Users\IDONNO~1\AppData\Local\Temp\ccrHXc7a.s 			page 5


 229              	.L21:
 230              		.loc 1 72 0 discriminator 3
 231 003c 2046     		mov	r0, r4
 232 003e 4FF47F01 		mov	r1, #16711680
 233 0042 FFF7FEFF 		bl	set_led_wrapper
 234              	.LVL19:
 235              		.loc 1 71 0 discriminator 3
 236 0046 0134     		adds	r4, r4, #1
 237              	.LVL20:
 238              		.loc 1 73 0 discriminator 3
 239 0048 4FF4FA60 		mov	r0, #2000
 240 004c FFF7FEFF 		bl	chThdSleep
 241              	.LVL21:
 242              		.loc 1 71 0 discriminator 3
 243 0050 AC42     		cmp	r4, r5
 244 0052 F3D1     		bne	.L21
 245              	.LBE124:
 246              		.loc 1 76 0
 247 0054 42F21070 		movw	r0, #10000
 248 0058 FFF7FEFF 		bl	chThdSleep
 249              	.LVL22:
 250              	.LBB125:
 251              	.LBB126:
 252              		.loc 1 80 0
 253 005c DFEDC09A 		vldr.32	s19, .L88+20
 254              	.LBB127:
 255              	.LBB128:
 256              		.loc 1 203 0
 257 0060 9FEDC09A 		vldr.32	s18, .L88+24
 258              	.LBE128:
 259              	.LBE127:
 260              	.LBE126:
 261              	.LBE125:
 262              		.loc 1 76 0
 263 0064 3226     		movs	r6, #50
 264              		.loc 1 78 0
 265 0066 B7EE008A 		vmov.f32	s16, #1.0e+0
 266              	.LVL23:
 267              	.L20:
 268              	.LBB134:
 269              	.LBB133:
 270              		.loc 1 80 0
 271 006a 38EE698A 		vsub.f32	s16, s16, s19
 272              	.LVL24:
 273              	.LBB130:
 274              		.loc 1 82 0
 275 006e 4FF0000B 		mov	fp, #0
 276              	.LBE130:
 277              	.LBB131:
 278              	.LBB129:
 279              		.loc 1 200 0
 280 0072 68EE287A 		vmul.f32	s15, s16, s17
 281              		.loc 1 203 0
 282 0076 28EE097A 		vmul.f32	s14, s16, s18
 283              		.loc 1 200 0
 284 007a FCEEE77A 		vcvt.u32.f32	s15, s15
 285 007e 17EE904A 		vmov	r4, s15	@ int
ARM GAS  C:\Users\IDONNO~1\AppData\Local\Temp\ccrHXc7a.s 			page 6


 286              	.LVL25:
 287              		.loc 1 203 0
 288 0082 FCEEC77A 		vcvt.u32.f32	s15, s14
 289 0086 2202     		lsls	r2, r4, #8
 290 0088 17EE903A 		vmov	r3, s15	@ int
 291 008c 42EA0343 		orr	r3, r2, r3, lsl #16
 292 0090 1C43     		orrs	r4, r4, r3
 293              	.LVL26:
 294              	.LBE129:
 295              	.LBE131:
 296              	.LBB132:
 297              		.loc 1 82 0
 298 0092 3DB1     		cbz	r5, .L26
 299              	.LVL27:
 300              	.L25:
 301              		.loc 1 83 0 discriminator 3
 302 0094 5846     		mov	r0, fp
 303 0096 2146     		mov	r1, r4
 304              		.loc 1 82 0 discriminator 3
 305 0098 0BF1010B 		add	fp, fp, #1
 306              	.LVL28:
 307              		.loc 1 83 0 discriminator 3
 308 009c FFF7FEFF 		bl	set_led_wrapper
 309              	.LVL29:
 310              		.loc 1 82 0 discriminator 3
 311 00a0 AB45     		cmp	fp, r5
 312 00a2 F7D1     		bne	.L25
 313              	.LVL30:
 314              	.L26:
 315              	.LBE132:
 316              		.loc 1 85 0
 317 00a4 6420     		movs	r0, #100
 318 00a6 FFF7FEFF 		bl	chThdSleep
 319              	.LVL31:
 320              	.LBE133:
 321              		.loc 1 79 0
 322 00aa 013E     		subs	r6, r6, #1
 323              	.LVL32:
 324 00ac DDD1     		bne	.L20
 325              	.LVL33:
 326              	.L27:
 327              	.LBE134:
 328              	.LBE123:
 329              		.loc 1 190 0
 330 00ae 0A20     		movs	r0, #10
 331 00b0 FFF7FEFF 		bl	chThdSleep
 332              	.LVL34:
 333              	.L84:
 334              		.loc 1 68 0
 335 00b4 FFF7FEFF 		bl	mc_interface_get_fault
 336              	.LVL35:
 337              		.loc 1 69 0
 338 00b8 C5B2     		uxtb	r5, r0
 339 00ba 002D     		cmp	r5, #0
 340 00bc BAD1     		bne	.L80
 341              	.L18:
 342              	.LBB135:
ARM GAS  C:\Users\IDONNO~1\AppData\Local\Temp\ccrHXc7a.s 			page 7


 343              		.loc 1 89 0
 344 00be 3C78     		ldrb	r4, [r7]	@ zero_extendqisi2
 345              		.loc 1 90 0
 346 00c0 98F80050 		ldrb	r5, [r8]	@ zero_extendqisi2
 347              		.loc 1 92 0
 348 00c4 3B78     		ldrb	r3, [r7]	@ zero_extendqisi2
 349              		.loc 1 89 0
 350 00c6 E4B2     		uxtb	r4, r4
 351              	.LVL36:
 352              		.loc 1 90 0
 353 00c8 EDB2     		uxtb	r5, r5
 354              	.LVL37:
 355              		.loc 1 92 0
 356 00ca 072B     		cmp	r3, #7
 357 00cc 00F26481 		bhi	.L28
 358 00d0 DFE803F0 		tbb	[pc, r3]
 359              	.L30:
 360 00d4 8C       		.byte	(.L29-.L30)/2
 361 00d5 7A       		.byte	(.L31-.L30)/2
 362 00d6 65       		.byte	(.L32-.L30)/2
 363 00d7 E3       		.byte	(.L33-.L30)/2
 364 00d8 95       		.byte	(.L34-.L30)/2
 365 00d9 E3       		.byte	(.L33-.L30)/2
 366 00da 95       		.byte	(.L34-.L30)/2
 367 00db 04       		.byte	(.L35-.L30)/2
 368              		.p2align 1
 369              	.L35:
 370              		.loc 1 161 0
 371 00dc 3E78     		ldrb	r6, [r7]	@ zero_extendqisi2
 372 00de F6B2     		uxtb	r6, r6
 373 00e0 A642     		cmp	r6, r4
 374 00e2 E4D1     		bne	.L27
 375              	.LVL38:
 376              	.L77:
 377              		.loc 1 161 0 is_stmt 0 discriminator 1
 378 00e4 98F80030 		ldrb	r3, [r8]	@ zero_extendqisi2
 379 00e8 9D42     		cmp	r5, r3
 380 00ea E0D1     		bne	.L27
 381              		.loc 1 161 0 discriminator 2
 382 00ec FFF7FEFF 		bl	mc_interface_get_fault
 383              	.LVL39:
 384 00f0 0446     		mov	r4, r0
 385 00f2 0028     		cmp	r0, #0
 386 00f4 DBD1     		bne	.L27
 387              		.loc 1 162 0 is_stmt 1
 388 00f6 9C4B     		ldr	r3, .L88+28
 389 00f8 DFED981A 		vldr.32	s3, .L88+16
 390 00fc 1B8A     		ldrh	r3, [r3, #16]
 391 00fe 9FED9B1A 		vldr.32	s2, .L88+32
 392 0102 00EE103A 		vmov	s0, r3	@ int
 393 0106 B8EE400A 		vcvt.f32.u32	s0, s0
 394 010a B7EE002A 		vmov.f32	s4, #1.0e+0
 395 010e 20EE2A0A 		vmul.f32	s0, s0, s21
 396 0112 F3EE0C0A 		vmov.f32	s1, #2.8e+1
 397 0116 20EE0A0A 		vmul.f32	s0, s0, s20
 398 011a FFF7FEFF 		bl	utils_map
 399              	.LVL40:
ARM GAS  C:\Users\IDONNO~1\AppData\Local\Temp\ccrHXc7a.s 			page 8


 400 011e B2EE0C8A 		vmov.f32	s16, #1.4e+1
 401              	.LBB77:
 402              		.loc 1 163 0
 403 0122 A346     		mov	fp, r4
 404 0124 20EE088A 		vmul.f32	s16, s0, s16
 405              	.LBE77:
 406              		.loc 1 162 0
 407 0128 1B24     		movs	r4, #27
 408 012a 16E0     		b	.L59
 409              	.LVL41:
 410              	.L83:
 411              	.LBB78:
 412              		.loc 1 165 0
 413 012c BBF1030F 		cmp	fp, #3
 414              		.loc 1 169 0
 415 0130 5846     		mov	r0, fp
 416 0132 8F49     		ldr	r1, .L88+36
 417              		.loc 1 165 0
 418 0134 40F32681 		ble	.L81
 419              	.LVL42:
 420              		.loc 1 168 0
 421 0138 BBF1080F 		cmp	fp, #8
 422 013c 00F3FB80 		bgt	.L58
 423              		.loc 1 169 0
 424 0140 FFF7FEFF 		bl	set_led_wrapper
 425              	.LVL43:
 426              		.loc 1 170 0
 427 0144 8A49     		ldr	r1, .L88+36
 428 0146 2046     		mov	r0, r4
 429 0148 FFF7FEFF 		bl	set_led_wrapper
 430              	.LVL44:
 431              	.L57:
 432              		.loc 1 163 0 discriminator 2
 433 014c 0BF1010B 		add	fp, fp, #1
 434              	.LVL45:
 435 0150 BBF10E0F 		cmp	fp, #14
 436 0154 04F1FF34 		add	r4, r4, #-1
 437 0158 17D0     		beq	.L82
 438              	.LVL46:
 439              	.L59:
 440              		.loc 1 164 0
 441 015a 07EE90BA 		vmov	s15, fp	@ int
 442 015e F8EEE77A 		vcvt.f32.s32	s15, s15
 443 0162 F4EEC87A 		vcmpe.f32	s15, s16
 444 0166 F1EE10FA 		vmrs	APSR_nzcv, FPSCR
 445 016a DFD4     		bmi	.L83
 446              		.loc 1 176 0
 447 016c 5846     		mov	r0, fp
 448 016e 0021     		movs	r1, #0
 449 0170 FFF7FEFF 		bl	set_led_wrapper
 450              	.LVL47:
 451              		.loc 1 163 0
 452 0174 0BF1010B 		add	fp, fp, #1
 453              	.LVL48:
 454              		.loc 1 177 0
 455 0178 2046     		mov	r0, r4
 456 017a 0021     		movs	r1, #0
ARM GAS  C:\Users\IDONNO~1\AppData\Local\Temp\ccrHXc7a.s 			page 9


 457 017c FFF7FEFF 		bl	set_led_wrapper
 458              	.LVL49:
 459              		.loc 1 163 0
 460 0180 BBF10E0F 		cmp	fp, #14
 461 0184 04F1FF34 		add	r4, r4, #-1
 462 0188 E7D1     		bne	.L59
 463              	.L82:
 464              	.LBE78:
 465              		.loc 1 180 0
 466 018a 6420     		movs	r0, #100
 467 018c FFF7FEFF 		bl	chThdSleep
 468              	.LVL50:
 469              		.loc 1 161 0
 470 0190 3B78     		ldrb	r3, [r7]	@ zero_extendqisi2
 471 0192 9E42     		cmp	r6, r3
 472 0194 A6D0     		beq	.L77
 473              	.LBE135:
 474              		.loc 1 190 0
 475 0196 0A20     		movs	r0, #10
 476 0198 FFF7FEFF 		bl	chThdSleep
 477              	.LVL51:
 478 019c 8AE7     		b	.L84
 479              	.LVL52:
 480              	.L32:
 481              	.LBB136:
 482              		.loc 1 92 0 discriminator 3
 483 019e 0024     		movs	r4, #0
 484              	.LVL53:
 485              	.L38:
 486              	.LBB79:
 487              		.loc 1 108 0 discriminator 3
 488 01a0 2046     		mov	r0, r4
 489 01a2 4FF47F01 		mov	r1, #16711680
 490 01a6 FFF7FEFF 		bl	set_led_wrapper
 491              	.LVL54:
 492              		.loc 1 109 0 discriminator 3
 493 01aa 04F10E00 		add	r0, r4, #14
 494 01ae 6FF07F41 		mvn	r1, #-16777216
 495              		.loc 1 107 0 discriminator 3
 496 01b2 0134     		adds	r4, r4, #1
 497              	.LVL55:
 498              		.loc 1 109 0 discriminator 3
 499 01b4 FFF7FEFF 		bl	set_led_wrapper
 500              	.LVL56:
 501              		.loc 1 107 0 discriminator 3
 502 01b8 0E2C     		cmp	r4, #14
 503 01ba F1D1     		bne	.L38
 504              	.LBE79:
 505              		.loc 1 103 0
 506 01bc FFF7FEFF 		bl	wait_for_state_change
 507              	.LVL57:
 508              	.L85:
 509              	.LBE136:
 510              		.loc 1 190 0
 511 01c0 0A20     		movs	r0, #10
 512 01c2 FFF7FEFF 		bl	chThdSleep
 513              	.LVL58:
ARM GAS  C:\Users\IDONNO~1\AppData\Local\Temp\ccrHXc7a.s 			page 10


 514 01c6 75E7     		b	.L84
 515              	.LVL59:
 516              	.L31:
 517              	.LBB137:
 518              		.loc 1 92 0 discriminator 3
 519 01c8 0024     		movs	r4, #0
 520              	.LVL60:
 521              	.L37:
 522              	.LBB80:
 523              		.loc 1 100 0 discriminator 3
 524 01ca 2046     		mov	r0, r4
 525 01cc 4FF4FE01 		mov	r1, #8323072
 526 01d0 FFF7FEFF 		bl	set_led_wrapper
 527              	.LVL61:
 528              		.loc 1 101 0 discriminator 3
 529 01d4 04F10E00 		add	r0, r4, #14
 530 01d8 6FF07F41 		mvn	r1, #-16777216
 531              		.loc 1 99 0 discriminator 3
 532 01dc 0134     		adds	r4, r4, #1
 533              	.LVL62:
 534              		.loc 1 101 0 discriminator 3
 535 01de FFF7FEFF 		bl	set_led_wrapper
 536              	.LVL63:
 537              		.loc 1 99 0 discriminator 3
 538 01e2 0E2C     		cmp	r4, #14
 539 01e4 F1D1     		bne	.L37
 540              	.LBE80:
 541              		.loc 1 103 0
 542 01e6 FFF7FEFF 		bl	wait_for_state_change
 543              	.LVL64:
 544 01ea E9E7     		b	.L85
 545              	.LVL65:
 546              	.L29:
 547              		.loc 1 94 0
 548 01ec 0020     		movs	r0, #0
 549              	.LVL66:
 550 01ee FFF7FEFF 		bl	ws2811_set_all
 551              	.LVL67:
 552              		.loc 1 95 0
 553 01f2 FFF7FEFF 		bl	wait_for_state_change
 554              	.LVL68:
 555              	.LBE137:
 556              		.loc 1 190 0
 557 01f6 0A20     		movs	r0, #10
 558 01f8 FFF7FEFF 		bl	chThdSleep
 559              	.LVL69:
 560 01fc 5AE7     		b	.L84
 561              	.LVL70:
 562              	.L34:
 563              	.LBB138:
 564              		.loc 1 92 0
 565 01fe 0026     		movs	r6, #0
 566              	.LVL71:
 567              	.L49:
 568              	.LBB81:
 569              		.loc 1 140 0
 570 0200 3B78     		ldrb	r3, [r7]	@ zero_extendqisi2
ARM GAS  C:\Users\IDONNO~1\AppData\Local\Temp\ccrHXc7a.s 			page 11


 571 0202 042B     		cmp	r3, #4
 572              		.loc 1 143 0
 573 0204 3046     		mov	r0, r6
 574 0206 4FF47F01 		mov	r1, #16711680
 575              		.loc 1 141 0
 576 020a 08BF     		it	eq
 577 020c 4FF4FE01 		moveq	r1, #8323072
 578              		.loc 1 143 0
 579 0210 FFF7FEFF 		bl	set_led_wrapper
 580              	.LVL72:
 581              		.loc 1 145 0
 582 0214 06F10E00 		add	r0, r6, #14
 583 0218 6FF07F41 		mvn	r1, #-16777216
 584              		.loc 1 139 0
 585 021c 0136     		adds	r6, r6, #1
 586              	.LVL73:
 587              		.loc 1 145 0
 588 021e FFF7FEFF 		bl	set_led_wrapper
 589              	.LVL74:
 590              		.loc 1 139 0
 591 0222 0E2E     		cmp	r6, #14
 592 0224 ECD1     		bne	.L49
 593              	.LBE81:
 594              		.loc 1 148 0
 595 0226 3B78     		ldrb	r3, [r7]	@ zero_extendqisi2
 596 0228 9C42     		cmp	r4, r3
 597 022a 7FF440AF 		bne	.L27
 598 022e 98F80060 		ldrb	r6, [r8]	@ zero_extendqisi2
 599              	.LVL75:
 600 0232 F6B2     		uxtb	r6, r6
 601 0234 AE42     		cmp	r6, r5
 602              	.LBB82:
 603              	.LBB83:
 604              	.LBB84:
 605              	.LBB85:
 606              	.LBB86:
 607              	.LBB87:
 608              		.file 3 "src/ChibiOS_3.0.2/os/ext/CMSIS/include/core_cmFunc.h"
 609              		.loc 3 546 0
 610 0236 08BF     		it	eq
 611 0238 2025     		moveq	r5, #32
 612              	.LVL76:
 613              	.LBE87:
 614              	.LBE86:
 615              	.LBE85:
 616              	.LBE84:
 617              	.LBE83:
 618              	.LBE82:
 619              		.loc 1 148 0
 620 023a 12D0     		beq	.L74
 621 023c 37E7     		b	.L27
 622              	.L86:
 623              		.loc 1 150 0
 624 023e FFF7FEFF 		bl	set_led_wrapper
 625              	.LVL77:
 626              		.loc 1 151 0
 627 0242 4C49     		ldr	r1, .L88+40
ARM GAS  C:\Users\IDONNO~1\AppData\Local\Temp\ccrHXc7a.s 			page 12


 628 0244 1B20     		movs	r0, #27
 629 0246 FFF7FEFF 		bl	set_led_wrapper
 630              	.LVL78:
 631              	.L52:
 632              		.loc 1 156 0
 633 024a 6420     		movs	r0, #100
 634 024c FFF7FEFF 		bl	chThdSleep
 635              	.LVL79:
 636              		.loc 1 148 0
 637 0250 3B78     		ldrb	r3, [r7]	@ zero_extendqisi2
 638 0252 9C42     		cmp	r4, r3
 639 0254 7FF42BAF 		bne	.L27
 640              		.loc 1 148 0 is_stmt 0 discriminator 1
 641 0258 98F80030 		ldrb	r3, [r8]	@ zero_extendqisi2
 642 025c 9E42     		cmp	r6, r3
 643 025e 7FF426AF 		bne	.L27
 644              	.L74:
 645              		.loc 1 148 0 discriminator 2
 646 0262 FFF7FEFF 		bl	mc_interface_get_fault
 647              	.LVL80:
 648 0266 0246     		mov	r2, r0
 649 0268 0028     		cmp	r0, #0
 650 026a 7FF420AF 		bne	.L27
 651              	.LBB100:
 652              	.LBB99:
 653              	.LBB91:
 654              	.LBB90:
 655              	.LBB89:
 656              	.LBB88:
 657              		.loc 3 546 0 is_stmt 1
 658              		.syntax unified
 659              	@ 546 "src/ChibiOS_3.0.2/os/ext/CMSIS/include/core_cmFunc.h" 1
 660 026e 85F31188 		MSR basepri, r5
 661              	@ 0 "" 2
 662              	.LVL81:
 663              		.thumb
 664              		.syntax unified
 665              	.LBE88:
 666              	.LBE89:
 667              	.LBE90:
 668              	.LBE91:
 669              	.LBB92:
 670              	.LBB93:
 671              		.file 4 "src/ChibiOS_3.0.2/os/rt/include/chvt.h"
 672              		.loc 4 231 0
 673 0272 D9F82830 		ldr	r3, [r9, #40]
 674              	.LVL82:
 675              	.LBE93:
 676              	.LBE92:
 677              	.LBB94:
 678              	.LBB95:
 679              	.LBB96:
 680              	.LBB97:
 681              	.LBB98:
 682              		.loc 3 546 0
 683              		.syntax unified
 684              	@ 546 "src/ChibiOS_3.0.2/os/ext/CMSIS/include/core_cmFunc.h" 1
ARM GAS  C:\Users\IDONNO~1\AppData\Local\Temp\ccrHXc7a.s 			page 13


 685 0276 82F31188 		MSR basepri, r2
 686              	@ 0 "" 2
 687              	.LVL83:
 688              		.thumb
 689              		.syntax unified
 690              	.LBE98:
 691              	.LBE97:
 692              	.LBE96:
 693              	.LBE95:
 694              	.LBE94:
 695              	.LBE99:
 696              	.LBE100:
 697              		.loc 1 149 0
 698 027a AAFB0323 		umull	r2, r3, r10, r3
 699 027e C3F3003B 		ubfx	fp, r3, #12, #1
 700              		.loc 1 150 0
 701 0282 3C49     		ldr	r1, .L88+40
 702              		.loc 1 149 0
 703 0284 BBF1000F 		cmp	fp, #0
 704 0288 D9D1     		bne	.L86
 705              		.loc 1 153 0
 706 028a 5946     		mov	r1, fp
 707 028c FFF7FEFF 		bl	set_led_wrapper
 708              	.LVL84:
 709              		.loc 1 154 0
 710 0290 5946     		mov	r1, fp
 711 0292 1B20     		movs	r0, #27
 712 0294 FFF7FEFF 		bl	set_led_wrapper
 713              	.LVL85:
 714 0298 D7E7     		b	.L52
 715              	.LVL86:
 716              	.L33:
 717              		.loc 1 92 0
 718 029a 0026     		movs	r6, #0
 719              	.LVL87:
 720              	.L42:
 721              	.LBB101:
 722              		.loc 1 117 0
 723 029c 3B78     		ldrb	r3, [r7]	@ zero_extendqisi2
 724 029e 032B     		cmp	r3, #3
 725              		.loc 1 120 0
 726 02a0 3046     		mov	r0, r6
 727 02a2 4FF47F01 		mov	r1, #16711680
 728              		.loc 1 118 0
 729 02a6 08BF     		it	eq
 730 02a8 4FF4FE01 		moveq	r1, #8323072
 731              		.loc 1 120 0
 732 02ac FFF7FEFF 		bl	set_led_wrapper
 733              	.LVL88:
 734              		.loc 1 122 0
 735 02b0 06F10E00 		add	r0, r6, #14
 736 02b4 6FF07F41 		mvn	r1, #-16777216
 737              		.loc 1 116 0
 738 02b8 0136     		adds	r6, r6, #1
 739              	.LVL89:
 740              		.loc 1 122 0
 741 02ba FFF7FEFF 		bl	set_led_wrapper
ARM GAS  C:\Users\IDONNO~1\AppData\Local\Temp\ccrHXc7a.s 			page 14


 742              	.LVL90:
 743              		.loc 1 116 0
 744 02be 0E2E     		cmp	r6, #14
 745 02c0 ECD1     		bne	.L42
 746              	.LBE101:
 747              		.loc 1 125 0
 748 02c2 3B78     		ldrb	r3, [r7]	@ zero_extendqisi2
 749 02c4 9C42     		cmp	r4, r3
 750 02c6 7FF4F2AE 		bne	.L27
 751 02ca 98F80030 		ldrb	r3, [r8]	@ zero_extendqisi2
 752 02ce 9D42     		cmp	r5, r3
 753              	.LBB102:
 754              	.LBB103:
 755              	.LBB104:
 756              	.LBB105:
 757              	.LBB106:
 758              	.LBB107:
 759              		.loc 3 546 0
 760 02d0 08BF     		it	eq
 761 02d2 2026     		moveq	r6, #32
 762              	.LVL91:
 763              	.LBE107:
 764              	.LBE106:
 765              	.LBE105:
 766              	.LBE104:
 767              	.LBE103:
 768              	.LBE102:
 769              		.loc 1 125 0
 770 02d4 12D0     		beq	.L73
 771 02d6 EAE6     		b	.L27
 772              	.L87:
 773              		.loc 1 127 0
 774 02d8 FFF7FEFF 		bl	set_led_wrapper
 775              	.LVL92:
 776              		.loc 1 128 0
 777 02dc 2549     		ldr	r1, .L88+40
 778 02de 0E20     		movs	r0, #14
 779 02e0 FFF7FEFF 		bl	set_led_wrapper
 780              	.LVL93:
 781              	.L45:
 782              		.loc 1 133 0
 783 02e4 6420     		movs	r0, #100
 784 02e6 FFF7FEFF 		bl	chThdSleep
 785              	.LVL94:
 786              		.loc 1 125 0
 787 02ea 3B78     		ldrb	r3, [r7]	@ zero_extendqisi2
 788 02ec 9C42     		cmp	r4, r3
 789 02ee 7FF4DEAE 		bne	.L27
 790              		.loc 1 125 0 is_stmt 0 discriminator 1
 791 02f2 98F80030 		ldrb	r3, [r8]	@ zero_extendqisi2
 792 02f6 9D42     		cmp	r5, r3
 793 02f8 7FF4D9AE 		bne	.L27
 794              	.L73:
 795              		.loc 1 125 0 discriminator 2
 796 02fc FFF7FEFF 		bl	mc_interface_get_fault
 797              	.LVL95:
 798 0300 0028     		cmp	r0, #0
ARM GAS  C:\Users\IDONNO~1\AppData\Local\Temp\ccrHXc7a.s 			page 15


 799 0302 7FF4D4AE 		bne	.L27
 800              	.LBB120:
 801              	.LBB119:
 802              	.LBB111:
 803              	.LBB110:
 804              	.LBB109:
 805              	.LBB108:
 806              		.loc 3 546 0 is_stmt 1
 807              		.syntax unified
 808              	@ 546 "src/ChibiOS_3.0.2/os/ext/CMSIS/include/core_cmFunc.h" 1
 809 0306 86F31188 		MSR basepri, r6
 810              	@ 0 "" 2
 811              	.LVL96:
 812              		.thumb
 813              		.syntax unified
 814              	.LBE108:
 815              	.LBE109:
 816              	.LBE110:
 817              	.LBE111:
 818              	.LBB112:
 819              	.LBB113:
 820              		.loc 4 231 0
 821 030a D9F82830 		ldr	r3, [r9, #40]
 822              	.LVL97:
 823              	.LBE113:
 824              	.LBE112:
 825              	.LBB114:
 826              	.LBB115:
 827              	.LBB116:
 828              	.LBB117:
 829              	.LBB118:
 830              		.loc 3 546 0
 831              		.syntax unified
 832              	@ 546 "src/ChibiOS_3.0.2/os/ext/CMSIS/include/core_cmFunc.h" 1
 833 030e 80F31188 		MSR basepri, r0
 834              	@ 0 "" 2
 835              	.LVL98:
 836              		.thumb
 837              		.syntax unified
 838              	.LBE118:
 839              	.LBE117:
 840              	.LBE116:
 841              	.LBE115:
 842              	.LBE114:
 843              	.LBE119:
 844              	.LBE120:
 845              		.loc 1 126 0
 846 0312 AAFB0323 		umull	r2, r3, r10, r3
 847 0316 C3F3003B 		ubfx	fp, r3, #12, #1
 848              		.loc 1 127 0
 849 031a 1649     		ldr	r1, .L88+40
 850 031c 0D20     		movs	r0, #13
 851              		.loc 1 126 0
 852 031e BBF1000F 		cmp	fp, #0
 853 0322 D9D1     		bne	.L87
 854              		.loc 1 130 0
 855 0324 5946     		mov	r1, fp
ARM GAS  C:\Users\IDONNO~1\AppData\Local\Temp\ccrHXc7a.s 			page 16


 856 0326 0D20     		movs	r0, #13
 857 0328 FFF7FEFF 		bl	set_led_wrapper
 858              	.LVL99:
 859              		.loc 1 131 0
 860 032c 5946     		mov	r1, fp
 861 032e 0E20     		movs	r0, #14
 862 0330 FFF7FEFF 		bl	set_led_wrapper
 863              	.LVL100:
 864 0334 D6E7     		b	.L45
 865              	.LVL101:
 866              	.L58:
 867              	.LBB121:
 868              		.loc 1 172 0
 869 0336 5846     		mov	r0, fp
 870              	.LVL102:
 871 0338 4FF47F41 		mov	r1, #65280
 872 033c FFF7FEFF 		bl	set_led_wrapper
 873              	.LVL103:
 874              		.loc 1 173 0
 875 0340 4FF47F41 		mov	r1, #65280
 876 0344 2046     		mov	r0, r4
 877 0346 FFF7FEFF 		bl	set_led_wrapper
 878              	.LVL104:
 879 034a FFE6     		b	.L57
 880              	.L89:
 881              		.align	2
 882              	.L88:
 883 034c 00000000 		.word	.LC0
 884 0350 00000000 		.word	.LANCHOR0
 885 0354 6740533A 		.word	978534503
 886 0358 0000CA42 		.word	1120534528
 887 035c 00000000 		.word	0
 888 0360 0AD7A33C 		.word	1017370378
 889 0364 00007F43 		.word	1132396544
 890 0368 00000000 		.word	ADC_Value
 891 036c 00000442 		.word	1107558400
 892 0370 00FFFF00 		.word	16776960
 893 0374 00A5FF00 		.word	16753920
 894 0378 00000000 		.word	ch
 895 037c 00000000 		.word	.LANCHOR1
 896 0380 5917B7D1 		.word	-776530087
 897              	.LVL105:
 898              	.L81:
 899              		.loc 1 166 0
 900 0384 4FF47F01 		mov	r1, #16711680
 901 0388 FFF7FEFF 		bl	set_led_wrapper
 902              	.LVL106:
 903              		.loc 1 167 0
 904 038c 4FF47F01 		mov	r1, #16711680
 905 0390 2046     		mov	r0, r4
 906 0392 FFF7FEFF 		bl	set_led_wrapper
 907              	.LVL107:
 908 0396 D9E6     		b	.L57
 909              	.LVL108:
 910              	.L28:
 911              	.LBE121:
 912              		.loc 1 185 0
ARM GAS  C:\Users\IDONNO~1\AppData\Local\Temp\ccrHXc7a.s 			page 17


 913 0398 6420     		movs	r0, #100
 914              	.LVL109:
 915 039a FFF7FEFF 		bl	chThdSleep
 916              	.LVL110:
 917              	.LBE138:
 918              		.loc 1 190 0
 919 039e 0A20     		movs	r0, #10
 920 03a0 FFF7FEFF 		bl	chThdSleep
 921              	.LVL111:
 922 03a4 86E6     		b	.L84
 923              	.LBE140:
 924              		.cfi_endproc
 925              	.LFE259:
 926              		.size	led_thread, .-led_thread
 927 03a6 00BF     		.section	.text.led_external_init,"ax",%progbits
 928              		.align	2
 929              		.p2align 4,,15
 930              		.global	led_external_init
 931              		.thumb
 932              		.thumb_func
 933              		.type	led_external_init, %function
 934              	led_external_init:
 935              	.LFB256:
 936              		.loc 1 47 0
 937              		.cfi_startproc
 938              		@ args = 0, pretend = 0, frame = 0
 939              		@ frame_needed = 0, uses_anonymous_args = 0
 940 0000 70B5     		push	{r4, r5, r6, lr}
 941              		.cfi_def_cfa_offset 16
 942              		.cfi_offset 4, -16
 943              		.cfi_offset 5, -12
 944              		.cfi_offset 6, -8
 945              		.cfi_offset 14, -4
 946 0002 82B0     		sub	sp, sp, #8
 947              		.cfi_def_cfa_offset 24
 948              		.loc 1 48 0
 949 0004 0024     		movs	r4, #0
 950 0006 074E     		ldr	r6, .L92
 951              		.loc 1 49 0
 952 0008 074D     		ldr	r5, .L92+4
 953              		.loc 1 50 0
 954 000a 084B     		ldr	r3, .L92+8
 955 000c 0094     		str	r4, [sp]
 956 000e 0222     		movs	r2, #2
 957 0010 4FF4B361 		mov	r1, #1432
 958 0014 0648     		ldr	r0, .L92+12
 959              		.loc 1 48 0
 960 0016 3470     		strb	r4, [r6]
 961              		.loc 1 49 0
 962 0018 2C70     		strb	r4, [r5]
 963              		.loc 1 50 0
 964 001a FFF7FEFF 		bl	chThdCreateStatic
 965              	.LVL112:
 966              		.loc 1 51 0
 967 001e 02B0     		add	sp, sp, #8
 968              		.cfi_def_cfa_offset 16
 969              		@ sp needed
ARM GAS  C:\Users\IDONNO~1\AppData\Local\Temp\ccrHXc7a.s 			page 18


 970 0020 70BD     		pop	{r4, r5, r6, pc}
 971              	.L93:
 972 0022 00BF     		.align	2
 973              	.L92:
 974 0024 00000000 		.word	.LANCHOR1
 975 0028 00000000 		.word	.LANCHOR0
 976 002c 00000000 		.word	led_thread
 977 0030 00000000 		.word	.LANCHOR2
 978              		.cfi_endproc
 979              	.LFE256:
 980              		.size	led_external_init, .-led_external_init
 981              		.section	.text.led_external_set_state,"ax",%progbits
 982              		.align	2
 983              		.p2align 4,,15
 984              		.global	led_external_set_state
 985              		.thumb
 986              		.thumb_func
 987              		.type	led_external_set_state, %function
 988              	led_external_set_state:
 989              	.LFB257:
 990              		.loc 1 53 0
 991              		.cfi_startproc
 992              		@ args = 0, pretend = 0, frame = 0
 993              		@ frame_needed = 0, uses_anonymous_args = 0
 994              		@ link register save eliminated.
 995              	.LVL113:
 996              		.loc 1 54 0
 997 0000 014B     		ldr	r3, .L95
 998 0002 1870     		strb	r0, [r3]
 999 0004 7047     		bx	lr
 1000              	.L96:
 1001 0006 00BF     		.align	2
 1002              	.L95:
 1003 0008 00000000 		.word	.LANCHOR0
 1004              		.cfi_endproc
 1005              	.LFE257:
 1006              		.size	led_external_set_state, .-led_external_set_state
 1007              		.section	.text.led_external_set_reversed,"ax",%progbits
 1008              		.align	2
 1009              		.p2align 4,,15
 1010              		.global	led_external_set_reversed
 1011              		.thumb
 1012              		.thumb_func
 1013              		.type	led_external_set_reversed, %function
 1014              	led_external_set_reversed:
 1015              	.LFB258:
 1016              		.loc 1 57 0
 1017              		.cfi_startproc
 1018              		@ args = 0, pretend = 0, frame = 0
 1019              		@ frame_needed = 0, uses_anonymous_args = 0
 1020              		@ link register save eliminated.
 1021              	.LVL114:
 1022              		.loc 1 58 0
 1023 0000 014B     		ldr	r3, .L98
 1024 0002 1870     		strb	r0, [r3]
 1025 0004 7047     		bx	lr
 1026              	.L99:
ARM GAS  C:\Users\IDONNO~1\AppData\Local\Temp\ccrHXc7a.s 			page 19


 1027 0006 00BF     		.align	2
 1028              	.L98:
 1029 0008 00000000 		.word	.LANCHOR1
 1030              		.cfi_endproc
 1031              	.LFE258:
 1032              		.size	led_external_set_reversed, .-led_external_set_reversed
 1033              		.section	.bss.reverse_leds,"aw",%nobits
 1034              		.set	.LANCHOR1,. + 0
 1035              		.type	reverse_leds, %object
 1036              		.size	reverse_leds, 1
 1037              	reverse_leds:
 1038 0000 00       		.space	1
 1039              		.section	.bss.state,"aw",%nobits
 1040              		.set	.LANCHOR0,. + 0
 1041              		.type	state, %object
 1042              		.size	state, 1
 1043              	state:
 1044 0000 00       		.space	1
 1045              		.section	.rodata.str1.4,"aMS",%progbits,1
 1046              		.align	2
 1047              	.LC0:
 1048 0000 4C454473 		.ascii	"LEDs External\000"
 1048      20457874 
 1048      65726E61 
 1048      6C00
 1049              		.section	.bss.led_thread_wa,"aw",%nobits
 1050              		.align	3
 1051              		.set	.LANCHOR2,. + 0
 1052              		.type	led_thread_wa, %object
 1053              		.size	led_thread_wa, 1432
 1054              	led_thread_wa:
 1055 0000 00000000 		.space	1432
 1055      00000000 
 1055      00000000 
 1055      00000000 
 1055      00000000 
 1056              		.text
 1057              	.Letext0:
 1058              		.file 5 "c:\\program files (x86)\\gnu tools arm embedded\\5.4 2016q3\\arm-none-eabi\\include\\mach
 1059              		.file 6 "c:\\program files (x86)\\gnu tools arm embedded\\5.4 2016q3\\arm-none-eabi\\include\\sys\
 1060              		.file 7 "c:\\program files (x86)\\gnu tools arm embedded\\5.4 2016q3\\lib\\gcc\\arm-none-eabi\\5.4
 1061              		.file 8 "src/ChibiOS_3.0.2/os/rt/ports/ARMCMx/compilers/GCC/chtypes.h"
 1062              		.file 9 "src/ChibiOS_3.0.2/os/rt/include/chsystypes.h"
 1063              		.file 10 "src/ChibiOS_3.0.2/os/rt/include/chschd.h"
 1064              		.file 11 "src/ChibiOS_3.0.2/os/rt/ports/ARMCMx/chcore.h"
 1065              		.file 12 "src/ChibiOS_3.0.2/os/rt/ports/ARMCMx/chcore_v7m.h"
 1066              		.file 13 "src/ChibiOS_3.0.2/os/rt/include/chtm.h"
 1067              		.file 14 "src/ChibiOS_3.0.2/os/rt/include/chsem.h"
 1068              		.file 15 "src/ChibiOS_3.0.2/os/rt/include/chmtx.h"
 1069              		.file 16 "src/core/led_external.h"
 1070              		.file 17 "src/mc/mc_typedef.h"
 1071              		.file 18 "src/ChibiOS_3.0.2/os/rt/include/chsys.h"
 1072              		.file 19 "src/ChibiOS_3.0.2/os/ext/CMSIS/include/core_cm4.h"
 1073              		.file 20 "src/hw_oroca.h"
 1074              		.file 21 "src/ChibiOS_3.0.2/os/rt/include/chthreads.h"
 1075              		.file 22 "src/core/ws2811.h"
 1076              		.file 23 "src/core/utils.h"
ARM GAS  C:\Users\IDONNO~1\AppData\Local\Temp\ccrHXc7a.s 			page 20

