ARM GAS  C:\Users\IDONNO~1\AppData\Local\Temp\ccrHXc7a.s 			page 1


   1              		.syntax unified
   2              		.cpu cortex-m4
   3              		.eabi_attribute 27, 1
   4              		.eabi_attribute 28, 1
   5              		.fpu fpv4-sp-d16
   6              		.eabi_attribute 20, 1
   7              		.eabi_attribute 21, 1
   8              		.eabi_attribute 23, 3
   9              		.eabi_attribute 24, 1
  10              		.eabi_attribute 25, 1
  11              		.eabi_attribute 26, 1
  12              		.eabi_attribute 30, 2
  13              		.eabi_attribute 34, 1
  14              		.eabi_attribute 18, 4
  15              		.thumb
  16              		.syntax unified
  17              		.file	"led_external.c"
  18              		.text
  19              	.Ltext0:
  20              		.cfi_sections	.debug_frame
  21              		.section	.text.wait_for_state_change,"ax",%progbits
  22              		.align	2
  23              		.p2align 4,,15
  24              		.thumb
  25              		.thumb_func
  26              		.type	wait_for_state_change, %function
  27              	wait_for_state_change:
  28              	.LFB261:
  29              		.file 1 "src/core/led_external.c"
  30              		.loc 1 206 0
  31              		.cfi_startproc
  32              		@ args = 0, pretend = 0, frame = 0
  33              		@ frame_needed = 0, uses_anonymous_args = 0
  34 0000 F8B5     		push	{r3, r4, r5, r6, r7, lr}
  35              		.cfi_def_cfa_offset 24
  36              		.cfi_offset 3, -24
  37              		.cfi_offset 4, -20
  38              		.cfi_offset 5, -16
  39              		.cfi_offset 6, -12
  40              		.cfi_offset 7, -8
  41              		.cfi_offset 14, -4
  42              		.loc 1 207 0
  43 0002 0E4E     		ldr	r6, .L10
  44              		.loc 1 208 0
  45 0004 0E4F     		ldr	r7, .L10+4
  46              		.loc 1 207 0
  47 0006 3478     		ldrb	r4, [r6]	@ zero_extendqisi2
  48              		.loc 1 208 0
  49 0008 3D78     		ldrb	r5, [r7]	@ zero_extendqisi2
  50              	.LBB70:
  51              		.loc 1 209 0
  52 000a 3378     		ldrb	r3, [r6]	@ zero_extendqisi2
  53              	.LBE70:
  54              		.loc 1 207 0
  55 000c E4B2     		uxtb	r4, r4
  56              	.LVL0:
  57              	.LBB71:
ARM GAS  C:\Users\IDONNO~1\AppData\Local\Temp\ccrHXc7a.s 			page 2


  58              		.loc 1 209 0
  59 000e 9C42     		cmp	r4, r3
  60 0010 11D1     		bne	.L1
  61 0012 3B78     		ldrb	r3, [r7]	@ zero_extendqisi2
  62 0014 EDB2     		uxtb	r5, r5
  63 0016 9D42     		cmp	r5, r3
  64 0018 09D0     		beq	.L6
  65 001a 0DE0     		b	.L9
  66              	.L5:
  67              		.loc 1 210 0
  68 001c 6420     		movs	r0, #100
  69 001e FFF7FEFF 		bl	chThdSleep
  70              	.LVL1:
  71              		.loc 1 209 0
  72 0022 3378     		ldrb	r3, [r6]	@ zero_extendqisi2
  73 0024 9C42     		cmp	r4, r3
  74 0026 06D1     		bne	.L1
  75              		.loc 1 209 0 is_stmt 0 discriminator 1
  76 0028 3B78     		ldrb	r3, [r7]	@ zero_extendqisi2
  77 002a 9D42     		cmp	r5, r3
  78 002c 03D1     		bne	.L1
  79              	.L6:
  80              		.loc 1 209 0 discriminator 2
  81 002e FFF7FEFF 		bl	mc_interface_get_fault
  82              	.LVL2:
  83 0032 0028     		cmp	r0, #0
  84 0034 F2D0     		beq	.L5
  85              	.LVL3:
  86              	.L1:
  87 0036 F8BD     		pop	{r3, r4, r5, r6, r7, pc}
  88              	.LVL4:
  89              	.L9:
  90 0038 F8BD     		pop	{r3, r4, r5, r6, r7, pc}
  91              	.LVL5:
  92              	.L11:
  93 003a 00BF     		.align	2
  94              	.L10:
  95 003c 00000000 		.word	.LANCHOR0
  96 0040 00000000 		.word	.LANCHOR1
  97              	.LBE71:
  98              		.cfi_endproc
  99              	.LFE261:
 100              		.size	wait_for_state_change, .-wait_for_state_change
 101              		.section	.text.set_led_wrapper,"ax",%progbits
 102              		.align	2
 103              		.p2align 4,,15
 104              		.thumb
 105              		.thumb_func
 106              		.type	set_led_wrapper, %function
 107              	set_led_wrapper:
 108              	.LFB262:
 109              		.loc 1 214 0 is_stmt 1
 110              		.cfi_startproc
 111              		@ args = 0, pretend = 0, frame = 0
 112              		@ frame_needed = 0, uses_anonymous_args = 0
 113              		@ link register save eliminated.
 114              	.LVL6:
ARM GAS  C:\Users\IDONNO~1\AppData\Local\Temp\ccrHXc7a.s 			page 3


 115              		.loc 1 215 0
 116 0000 064B     		ldr	r3, .L15
 117 0002 1A78     		ldrb	r2, [r3]	@ zero_extendqisi2
 118 0004 3AB1     		cbz	r2, .L13
 119              		.loc 1 216 0
 120 0006 0D28     		cmp	r0, #13
 121 0008 02DC     		bgt	.L14
 122              		.loc 1 217 0
 123 000a 0E30     		adds	r0, r0, #14
 124              	.LVL7:
 125 000c FFF7FEBF 		b	ws2811_set_led_color
 126              	.LVL8:
 127              	.L14:
 128              		.loc 1 219 0
 129 0010 0E38     		subs	r0, r0, #14
 130              	.LVL9:
 131 0012 FFF7FEBF 		b	ws2811_set_led_color
 132              	.LVL10:
 133              	.L13:
 134              		.loc 1 222 0
 135 0016 FFF7FEBF 		b	ws2811_set_led_color
 136              	.LVL11:
 137              	.L16:
 138 001a 00BF     		.align	2
 139              	.L15:
 140 001c 00000000 		.word	.LANCHOR1
 141              		.cfi_endproc
 142              	.LFE262:
 143              		.size	set_led_wrapper, .-set_led_wrapper
 144              		.section	.text.led_thread,"ax",%progbits
 145              		.align	2
 146              		.p2align 4,,15
 147              		.thumb
 148              		.thumb_func
 149              		.type	led_thread, %function
 150              	led_thread:
 151              	.LFB259:
 152              		.loc 1 61 0
 153              		.cfi_startproc
 154              		@ args = 0, pretend = 0, frame = 0
 155              		@ frame_needed = 0, uses_anonymous_args = 0
 156              	.LVL12:
 157 0000 2DE9F84F 		push	{r3, r4, r5, r6, r7, r8, r9, r10, fp, lr}
 158              		.cfi_def_cfa_offset 40
 159              		.cfi_offset 3, -40
 160              		.cfi_offset 4, -36
 161              		.cfi_offset 5, -32
 162              		.cfi_offset 6, -28
 163              		.cfi_offset 7, -24
 164              		.cfi_offset 8, -20
 165              		.cfi_offset 9, -16
 166              		.cfi_offset 10, -12
 167              		.cfi_offset 11, -8
 168              		.cfi_offset 14, -4
 169              	.LBB72:
 170              	.LBB73:
 171              		.file 2 "src/ChibiOS_3.0.2/os/rt/include/chregistry.h"
ARM GAS  C:\Users\IDONNO~1\AppData\Local\Temp\ccrHXc7a.s 			page 4


 172              		.loc 2 135 0
 173 0004 DFF87093 		ldr	r9, .L88+44
 174 0008 D04A     		ldr	r2, .L88
 175 000a D9F81830 		ldr	r3, [r9, #24]
 176 000e D04F     		ldr	r7, .L88+4
 177 0010 DFF86883 		ldr	r8, .L88+48
 178              	.LBE73:
 179              	.LBE72:
 180              	.LBB75:
 181              	.LBB76:
 182              		.loc 1 149 0
 183 0014 DFF868A3 		ldr	r10, .L88+52
 184              	.LBE76:
 185              	.LBE75:
 186              		.loc 1 61 0
 187 0018 2DED068B 		vpush.64	{d8, d9, d10}
 188              		.cfi_def_cfa_offset 64
 189              		.cfi_offset 80, -64
 190              		.cfi_offset 81, -60
 191              		.cfi_offset 82, -56
 192              		.cfi_offset 83, -52
 193              		.cfi_offset 84, -48
 194              		.cfi_offset 85, -44
 195              	.LBB139:
 196              	.LBB74:
 197              		.loc 2 135 0
 198 001c 9A61     		str	r2, [r3, #24]
 199              	.LVL13:
 200              	.LBE74:
 201              	.LBE139:
 202              	.LBB140:
 203              		.loc 1 68 0
 204 001e FFF7FEFF 		bl	mc_interface_get_fault
 205              	.LVL14:
 206              		.loc 1 69 0
 207 0022 C5B2     		uxtb	r5, r0
 208              	.LBB122:
 209              		.loc 1 162 0
 210 0024 DFEDCBAA 		vldr.32	s21, .L88+8
 211 0028 9FEDCBAA 		vldr.32	s20, .L88+12
 212 002c DFEDCB8A 		vldr.32	s17, .L88+16
 213              	.LBE122:
 214              		.loc 1 69 0
 215 0030 002D     		cmp	r5, #0
 216 0032 44D0     		beq	.L18
 217              	.LVL15:
 218              	.L80:
 219              	.LBB123:
 220              		.loc 1 70 0
 221 0034 0020     		movs	r0, #0
 222              	.LVL16:
 223 0036 FFF7FEFF 		bl	ws2811_set_all
 224              	.LVL17:
 225              	.LBB124:
 226              		.loc 1 71 0
 227 003a 0024     		movs	r4, #0
 228              	.LVL18:
ARM GAS  C:\Users\IDONNO~1\AppData\Local\Temp\ccrHXc7a.s 			page 5


 229              	.L21:
 230              		.loc 1 72 0 discriminator 3
 231 003c 2046     		mov	r0, r4
 232 003e 4FF47F01 		mov	r1, #16711680
 233 0042 FFF7FEFF 		bl	set_led_wrapper
 234              	.LVL19:
 235              		.loc 1 71 0 discriminator 3
 236 0046 0134     		adds	r4, r4, #1
 237              	.LVL20:
 238              		.loc 1 73 0 discriminator 3
 239 0048 4FF4FA60 		mov	r0, #2000
 240 004c FFF7FEFF 		bl	chThdSleep
 241              	.LVL21:
 242              		.loc 1 71 0 discriminator 3
 243 0050 AC42     		cmp	r4, r5
 244 0052 F3D1     		bne	.L21
 245              	.LBE124:
 246              		.loc 1 76 0
 247 0054 42F21070 		movw	r0, #10000
 248 0058 FFF7FEFF 		bl	chThdSleep
 249              	.LVL22:
 250              	.LBB125:
 251              	.LBB126:
 252              		.loc 1 80 0
 253 005c DFEDC09A 		vldr.32	s19, .L88+20
 254              	.LBB127:
 255              	.LBB128:
 256              		.loc 1 203 0
 257 0060 9FEDC09A 		vldr.32	s18, .L88+24
 258              	.LBE128:
 259              	.LBE127:
 260              	.LBE126:
 261              	.LBE125:
 262              		.loc 1 76 0
 263 0064 3226     		movs	r6, #50
 264              		.loc 1 78 0
 265 0066 B7EE008A 		vmov.f32	s16, #1.0e+0
 266              	.LVL23:
 267              	.L20:
 268              	.LBB134:
 269              	.LBB133:
 270              		.loc 1 80 0
 271 006a 38EE698A 		vsub.f32	s16, s16, s19
 272              	.LVL24:
 273              	.LBB130:
 274              		.loc 1 82 0
 275 006e 4FF0000B 		mov	fp, #0
 276              	.LBE130:
 277              	.LBB131:
 278              	.LBB129:
 279              		.loc 1 200 0
 280 0072 68EE287A 		vmul.f32	s15, s16, s17
 281              		.loc 1 203 0
 282 0076 28EE097A 		vmul.f32	s14, s16, s18
 283              		.loc 1 200 0
 284 007a FCEEE77A 		vcvt.u32.f32	s15, s15
 285 007e 17EE904A 		vmov	r4, s15	@ int
ARM GAS  C:\Users\IDONNO~1\AppData\Local\Temp\ccrHXc7a.s 			page 6


 286              	.LVL25:
 287              		.loc 1 203 0
 288 0082 FCEEC77A 		vcvt.u32.f32	s15, s14
 289 0086 2202     		lsls	r2, r4, #8
 290 0088 17EE903A 		vmov	r3, s15	@ int
 291 008c 42EA0343 		orr	r3, r2, r3, lsl #16
 292 0090 1C43     		orrs	r4, r4, r3
 293              	.LVL26:
 294              	.LBE129:
 295              	.LBE131:
 296              	.LBB132:
 297              		.loc 1 82 0
 298 0092 3DB1     		cbz	r5, .L26
 299              	.LVL27:
 300              	.L25:
 301              		.loc 1 83 0 discriminator 3
 302 0094 5846     		mov	r0, fp
 303 0096 2146     		mov	r1, r4
 304              		.loc 1 82 0 discriminator 3
 305 0098 0BF1010B 		add	fp, fp, #1
 306              	.LVL28:
 307              		.loc 1 83 0 discriminator 3
 308 009c FFF7FEFF 		bl	set_led_wrapper
 309              	.LVL29:
 310              		.loc 1 82 0 discriminator 3
 311 00a0 AB45     		cmp	fp, r5
 312 00a2 F7D1     		bne	.L25
 313              	.LVL30:
 314              	.L26:
 315              	.LBE132:
 316              		.loc 1 85 0
 317 00a4 6420     		movs	r0, #100
 318 00a6 FFF7FEFF 		bl	chThdSleep
 319              	.LVL31:
 320              	.LBE133:
 321              		.loc 1 79 0
 322 00aa 013E     		subs	r6, r6, #1
 323              	.LVL32:
 324 00ac DDD1     		bne	.L20
 325              	.LVL33:
 326              	.L27:
 327              	.LBE134:
 328              	.LBE123:
 329              		.loc 1 190 0
 330 00ae 0A20     		movs	r0, #10
 331 00b0 FFF7FEFF 		bl	chThdSleep
 332              	.LVL34:
 333              	.L84:
 334              		.loc 1 68 0
 335 00b4 FFF7FEFF 		bl	mc_interface_get_fault
 336              	.LVL35:
 337              		.loc 1 69 0
 338 00b8 C5B2     		uxtb	r5, r0
 339 00ba 002D     		cmp	r5, #0
 340 00bc BAD1     		bne	.L80
 341              	.L18:
 342              	.LBB135:
ARM GAS  C:\Users\IDONNO~1\AppData\Local\Temp\ccrHXc7a.s 			page 7


 343              		.loc 1 89 0
 344 00be 3C78     		ldrb	r4, [r7]	@ zero_extendqisi2
 345              		.loc 1 90 0
 346 00c0 98F80050 		ldrb	r5, [r8]	@ zero_extendqisi2
 347              		.loc 1 92 0
 348 00c4 3B78     		ldrb	r3, [r7]	@ zero_extendqisi2
 349              		.loc 1 89 0
 350 00c6 E4B2     		uxtb	r4, r4
 351              	.LVL36:
 352              		.loc 1 90 0
 353 00c8 EDB2     		uxtb	r5, r5
 354              	.LVL37:
 355              		.loc 1 92 0
 356 00ca 072B     		cmp	r3, #7
 357 00cc 00F26481 		bhi	.L28
 358 00d0 DFE803F0 		tbb	[pc, r3]
 359              	.L30:
 360 00d4 8C       		.byte	(.L29-.L30)/2
 361 00d5 7A       		.byte	(.L31-.L30)/2
 362 00d6 65       		.byte	(.L32-.L30)/2
 363 00d7 E3       		.byte	(.L33-.L30)/2
 364 00d8 95       		.byte	(.L34-.L30)/2
 365 00d9 E3       		.byte	(.L33-.L30)/2
 366 00da 95       		.byte	(.L34-.L30)/2
 367 00db 04       		.byte	(.L35-.L30)/2
 368              		.p2align 1
 369              	.L35:
 370              		.loc 1 161 0
 371 00dc 3E78     		ldrb	r6, [r7]	@ zero_extendqisi2
 372 00de F6B2     		uxtb	r6, r6
 373 00e0 A642     		cmp	r6, r4
 374 00e2 E4D1     		bne	.L27
 375              	.LVL38:
 376              	.L77:
 377              		.loc 1 161 0 is_stmt 0 discriminator 1
 378 00e4 98F80030 		ldrb	r3, [r8]	@ zero_extendqisi2
 379 00e8 9D42     		cmp	r5, r3
 380 00ea E0D1     		bne	.L27
 381              		.loc 1 161 0 discriminator 2
 382 00ec FFF7FEFF 		bl	mc_interface_get_fault
 383              	.LVL39:
 384 00f0 0446     		mov	r4, r0
 385 00f2 0028     		cmp	r0, #0
 386 00f4 DBD1     		bne	.L27
 387              		.loc 1 162 0 is_stmt 1
 388 00f6 9C4B     		ldr	r3, .L88+28
 389 00f8 DFED981A 		vldr.32	s3, .L88+16
 390 00fc 1B8A     		ldrh	r3, [r3, #16]
 391 00fe 9FED9B1A 		vldr.32	s2, .L88+32
 392 0102 00EE103A 		vmov	s0, r3	@ int
 393 0106 B8EE400A 		vcvt.f32.u32	s0, s0
 394 010a B7EE002A 		vmov.f32	s4, #1.0e+0
 395 010e 20EE2A0A 		vmul.f32	s0, s0, s21
 396 0112 F3EE0C0A 		vmov.f32	s1, #2.8e+1
 397 0116 20EE0A0A 		vmul.f32	s0, s0, s20
 398 011a FFF7FEFF 		bl	utils_map
 399              	.LVL40:
ARM GAS  C:\Users\IDONNO~1\AppData\Local\Temp\ccrHXc7a.s 			page 8


 400 011e B2EE0C8A 		vmov.f32	s16, #1.4e+1
 401              	.LBB77:
 402              		.loc 1 163 0
 403 0122 A346     		mov	fp, r4
 404 0124 20EE088A 		vmul.f32	s16, s0, s16
 405              	.LBE77:
 406              		.loc 1 162 0
 407 0128 1B24     		movs	r4, #27
 408 012a 16E0     		b	.L59
 409              	.LVL41:
 410              	.L83:
 411              	.LBB78:
 412              		.loc 1 165 0
 413 012c BBF1030F 		cmp	fp, #3
 414              		.loc 1 169 0
 415 0130 5846     		mov	r0, fp
 416 0132 8F49     		ldr	r1, .L88+36
 417              		.loc 1 165 0
 418 0134 40F32681 		ble	.L81
 419              	.LVL42:
 420              		.loc 1 168 0
 421 0138 BBF1080F 		cmp	fp, #8
 422 013c 00F3FB80 		bgt	.L58
 423              		.loc 1 169 0
 424 0140 FFF7FEFF 		bl	set_led_wrapper
 425              	.LVL43:
 426              		.loc 1 170 0
 427 0144 8A49     		ldr	r1, .L88+36
 428 0146 2046     		mov	r0, r4
 429 0148 FFF7FEFF 		bl	set_led_wrapper
 430              	.LVL44:
 431              	.L57:
 432              		.loc 1 163 0 discriminator 2
 433 014c 0BF1010B 		add	fp, fp, #1
 434              	.LVL45:
 435 0150 BBF10E0F 		cmp	fp, #14
 436 0154 04F1FF34 		add	r4, r4, #-1
 437 0158 17D0     		beq	.L82
 438              	.LVL46:
 439              	.L59:
 440              		.loc 1 164 0
 441 015a 07EE90BA 		vmov	s15, fp	@ int
 442 015e F8EEE77A 		vcvt.f32.s32	s15, s15
 443 0162 F4EEC87A 		vcmpe.f32	s15, s16
 444 0166 F1EE10FA 		vmrs	APSR_nzcv, FPSCR
 445 016a DFD4     		bmi	.L83
 446              		.loc 1 176 0
 447 016c 5846     		mov	r0, fp
 448 016e 0021     		movs	r1, #0
 449 0170 FFF7FEFF 		bl	set_led_wrapper
 450              	.LVL47:
 451              		.loc 1 163 0
 452 0174 0BF1010B 		add	fp, fp, #1
 453              	.LVL48:
 454              		.loc 1 177 0
 455 0178 2046     		mov	r0, r4
 456 017a 0021     		movs	r1, #0
ARM GAS  C:\Users\IDONNO~1\AppData\Local\Temp\ccrHXc7a.s 			page 9


 457 017c FFF7FEFF 		bl	set_led_wrapper
 458              	.LVL49:
 459              		.loc 1 163 0
 460 0180 BBF10E0F 		cmp	fp, #14
 461 0184 04F1FF34 		add	r4, r4, #-1
 462 0188 E7D1     		bne	.L59
 463              	.L82:
 464              	.LBE78:
 465              		.loc 1 180 0
 466 018a 6420     		movs	r0, #100
 467 018c FFF7FEFF 		bl	chThdSleep
 468              	.LVL50:
 469              		.loc 1 161 0
 470 0190 3B78     		ldrb	r3, [r7]	@ zero_extendqisi2
 471 0192 9E42     		cmp	r6, r3
 472 0194 A6D0     		beq	.L77
 473              	.LBE135:
 474              		.loc 1 190 0
 475 0196 0A20     		movs	r0, #10
 476 0198 FFF7FEFF 		bl	chThdSleep
 477              	.LVL51:
 478 019c 8AE7     		b	.L84
 479              	.LVL52:
 480              	.L32:
 481              	.LBB136:
 482              		.loc 1 92 0 discriminator 3
 483 019e 0024     		movs	r4, #0
 484              	.LVL53:
 485              	.L38:
 486              	.LBB79:
 487              		.loc 1 108 0 discriminator 3
 488 01a0 2046     		mov	r0, r4
 489 01a2 4FF47F01 		mov	r1, #16711680
 490 01a6 FFF7FEFF 		bl	set_led_wrapper
 491              	.LVL54:
 492              		.loc 1 109 0 discriminator 3
 493 01aa 04F10E00 		add	r0, r4, #14
 494 01ae 6FF07F41 		mvn	r1, #-16777216
 495              		.loc 1 107 0 discriminator 3
 496 01b2 0134     		adds	r4, r4, #1
 497              	.LVL55:
 498              		.loc 1 109 0 discriminator 3
 499 01b4 FFF7FEFF 		bl	set_led_wrapper
 500              	.LVL56:
 501              		.loc 1 107 0 discriminator 3
 502 01b8 0E2C     		cmp	r4, #14
 503 01ba F1D1     		bne	.L38
 504              	.LBE79:
 505              		.loc 1 103 0
 506 01bc FFF7FEFF 		bl	wait_for_state_change
 507              	.LVL57:
 508              	.L85:
 509              	.LBE136:
 510              		.loc 1 190 0
 511 01c0 0A20     		movs	r0, #10
 512 01c2 FFF7FEFF 		bl	chThdSleep
 513              	.LVL58:
ARM GAS  C:\Users\IDONNO~1\AppData\Local\Temp\ccrHXc7a.s 			page 10


 514 01c6 75E7     		b	.L84
 515              	.LVL59:
 516              	.L31:
 517              	.LBB137:
 518              		.loc 1 92 0 discriminator 3
 519 01c8 0024     		movs	r4, #0
 520              	.LVL60:
 521              	.L37:
 522              	.LBB80:
 523              		.loc 1 100 0 discriminator 3
 524 01ca 2046     		mov	r0, r4
 525 01cc 4FF4FE01 		mov	r1, #8323072
 526 01d0 FFF7FEFF 		bl	set_led_wrapper
 527              	.LVL61:
 528              		.loc 1 101 0 discriminator 3
 529 01d4 04F10E00 		add	r0, r4, #14
 530 01d8 6FF07F41 		mvn	r1, #-16777216
 531              		.loc 1 99 0 discriminator 3
 532 01dc 0134     		adds	r4, r4, #1
 533              	.LVL62:
 534              		.loc 1 101 0 discriminator 3
 535 01de FFF7FEFF 		bl	set_led_wrapper
 536              	.LVL63:
 537              		.loc 1 99 0 discriminator 3
 538 01e2 0E2C     		cmp	r4, #14
 539 01e4 F1D1     		bne	.L37
 540              	.LBE80:
 541              		.loc 1 103 0
 542 01e6 FFF7FEFF 		bl	wait_for_state_change
 543              	.LVL64:
 544 01ea E9E7     		b	.L85
 545              	.LVL65:
 546              	.L29:
 547              		.loc 1 94 0
 548 01ec 0020     		movs	r0, #0
 549              	.LVL66:
 550 01ee FFF7FEFF 		bl	ws2811_set_all
 551              	.LVL67:
 552              		.loc 1 95 0
 553 01f2 FFF7FEFF 		bl	wait_for_state_change
 554              	.LVL68:
 555              	.LBE137:
 556              		.loc 1 190 0
 557 01f6 0A20     		movs	r0, #10
 558 01f8 FFF7FEFF 		bl	chThdSleep
 559              	.LVL69:
 560 01fc 5AE7     		b	.L84
 561              	.LVL70:
 562              	.L34:
 563              	.LBB138:
 564              		.loc 1 92 0
 565 01fe 0026     		movs	r6, #0
 566              	.LVL71:
 567              	.L49:
 568              	.LBB81:
 569              		.loc 1 140 0
 570 0200 3B78     		ldrb	r3, [r7]	@ zero_extendqisi2
ARM GAS  C:\Users\IDONNO~1\AppData\Local\Temp\ccrHXc7a.s 			page 11


 571 0202 042B     		cmp	r3, #4
 572              		.loc 1 143 0
 573 0204 3046     		mov	r0, r6
 574 0206 4FF47F01 		mov	r1, #16711680
 575              		.loc 1 141 0
 576 020a 08BF     		it	eq
 577 020c 4FF4FE01 		moveq	r1, #8323072
 578              		.loc 1 143 0
 579 0210 FFF7FEFF 		bl	set_led_wrapper
 580              	.LVL72:
 581              		.loc 1 145 0
 582 0214 06F10E00 		add	r0, r6, #14
 583 0218 6FF07F41 		mvn	r1, #-16777216
 584              		.loc 1 139 0
 585 021c 0136     		adds	r6, r6, #1
 586              	.LVL73:
 587              		.loc 1 145 0
 588 021e FFF7FEFF 		bl	set_led_wrapper
 589              	.LVL74:
 590              		.loc 1 139 0
 591 0222 0E2E     		cmp	r6, #14
 592 0224 ECD1     		bne	.L49
 593              	.LBE81:
 594              		.loc 1 148 0
 595 0226 3B78     		ldrb	r3, [r7]	@ zero_extendqisi2
 596 0228 9C42     		cmp	r4, r3
 597 022a 7FF440AF 		bne	.L27
 598 022e 98F80060 		ldrb	r6, [r8]	@ zero_extendqisi2
 599              	.LVL75:
 600 0232 F6B2     		uxtb	r6, r6
 601 0234 AE42     		cmp	r6, r5
 602              	.LBB82:
 603              	.LBB83:
 604              	.LBB84:
 605              	.LBB85:
 606              	.LBB86:
 607              	.LBB87:
 608              		.file 3 "src/ChibiOS_3.0.2/os/ext/CMSIS/include/core_cmFunc.h"
 609              		.loc 3 546 0
 610 0236 08BF     		it	eq
 611 0238 2025     		moveq	r5, #32
 612              	.LVL76:
 613              	.LBE87:
 614              	.LBE86:
 615              	.LBE85:
 616              	.LBE84:
 617              	.LBE83:
 618              	.LBE82:
 619              		.loc 1 148 0
 620 023a 12D0     		beq	.L74
 621 023c 37E7     		b	.L27
 622              	.L86:
 623              		.loc 1 150 0
 624 023e FFF7FEFF 		bl	set_led_wrapper
 625              	.LVL77:
 626              		.loc 1 151 0
 627 0242 4C49     		ldr	r1, .L88+40
ARM GAS  C:\Users\IDONNO~1\AppData\Local\Temp\ccrHXc7a.s 			page 12


 628 0244 1B20     		movs	r0, #27
 629 0246 FFF7FEFF 		bl	set_led_wrapper
 630              	.LVL78:
 631              	.L52:
 632              		.loc 1 156 0
 633 024a 6420     		movs	r0, #100
 634 024c FFF7FEFF 		bl	chThdSleep
 635              	.LVL79:
 636              		.loc 1 148 0
 637 0250 3B78     		ldrb	r3, [r7]	@ zero_extendqisi2
 638 0252 9C42     		cmp	r4, r3
 639 0254 7FF42BAF 		bne	.L27
 640              		.loc 1 148 0 is_stmt 0 discriminator 1
 641 0258 98F80030 		ldrb	r3, [r8]	@ zero_extendqisi2
 642 025c 9E42     		cmp	r6, r3
 643 025e 7FF426AF 		bne	.L27
 644              	.L74:
 645              		.loc 1 148 0 discriminator 2
 646 0262 FFF7FEFF 		bl	mc_interface_get_fault
 647              	.LVL80:
 648 0266 0246     		mov	r2, r0
 649 0268 0028     		cmp	r0, #0
 650 026a 7FF420AF 		bne	.L27
 651              	.LBB100:
 652              	.LBB99:
 653              	.LBB91:
 654              	.LBB90:
 655              	.LBB89:
 656              	.LBB88:
 657              		.loc 3 546 0 is_stmt 1
 658              		.syntax unified
 659              	@ 546 "src/ChibiOS_3.0.2/os/ext/CMSIS/include/core_cmFunc.h" 1
 660 026e 85F31188 		MSR basepri, r5
 661              	@ 0 "" 2
 662              	.LVL81:
 663              		.thumb
 664              		.syntax unified
 665              	.LBE88:
 666              	.LBE89:
 667              	.LBE90:
 668              	.LBE91:
 669              	.LBB92:
 670              	.LBB93:
 671              		.file 4 "src/ChibiOS_3.0.2/os/rt/include/chvt.h"
 672              		.loc 4 231 0
 673 0272 D9F82830 		ldr	r3, [r9, #40]
 674              	.LVL82:
 675              	.LBE93:
 676              	.LBE92:
 677              	.LBB94:
 678              	.LBB95:
 679              	.LBB96:
 680              	.LBB97:
 681              	.LBB98:
 682              		.loc 3 546 0
 683              		.syntax unified
 684              	@ 546 "src/ChibiOS_3.0.2/os/ext/CMSIS/include/core_cmFunc.h" 1
ARM GAS  C:\Users\IDONNO~1\AppData\Local\Temp\ccrHXc7a.s 			page 13


 685 0276 82F31188 		MSR basepri, r2
 686              	@ 0 "" 2
 687              	.LVL83:
 688              		.thumb
 689              		.syntax unified
 690              	.LBE98:
 691              	.LBE97:
 692              	.LBE96:
 693              	.LBE95:
 694              	.LBE94:
 695              	.LBE99:
 696              	.LBE100:
 697              		.loc 1 149 0
 698 027a AAFB0323 		umull	r2, r3, r10, r3
 699 027e C3F3003B 		ubfx	fp, r3, #12, #1
 700              		.loc 1 150 0
 701 0282 3C49     		ldr	r1, .L88+40
 702              		.loc 1 149 0
 703 0284 BBF1000F 		cmp	fp, #0
 704 0288 D9D1     		bne	.L86
 705              		.loc 1 153 0
 706 028a 5946     		mov	r1, fp
 707 028c FFF7FEFF 		bl	set_led_wrapper
 708              	.LVL84:
 709              		.loc 1 154 0
 710 0290 5946     		mov	r1, fp
 711 0292 1B20     		movs	r0, #27
 712 0294 FFF7FEFF 		bl	set_led_wrapper
 713              	.LVL85:
 714 0298 D7E7     		b	.L52
 715              	.LVL86:
 716              	.L33:
 717              		.loc 1 92 0
 718 029a 0026     		movs	r6, #0
 719              	.LVL87:
 720              	.L42:
 721              	.LBB101:
 722              		.loc 1 117 0
 723 029c 3B78     		ldrb	r3, [r7]	@ zero_extendqisi2
 724 029e 032B     		cmp	r3, #3
 725              		.loc 1 120 0
 726 02a0 3046     		mov	r0, r6
 727 02a2 4FF47F01 		mov	r1, #16711680
 728              		.loc 1 118 0
 729 02a6 08BF     		it	eq
 730 02a8 4FF4FE01 		moveq	r1, #8323072
 731              		.loc 1 120 0
 732 02ac FFF7FEFF 		bl	set_led_wrapper
 733              	.LVL88:
 734              		.loc 1 122 0
 735 02b0 06F10E00 		add	r0, r6, #14
 736 02b4 6FF07F41 		mvn	r1, #-16777216
 737              		.loc 1 116 0
 738 02b8 0136     		adds	r6, r6, #1
 739              	.LVL89:
 740              		.loc 1 122 0
 741 02ba FFF7FEFF 		bl	set_led_wrapper
ARM GAS  C:\Users\IDONNO~1\AppData\Local\Temp\ccrHXc7a.s 			page 14


 742              	.LVL90:
 743              		.loc 1 116 0
 744 02be 0E2E     		cmp	r6, #14
 745 02c0 ECD1     		bne	.L42
 746              	.LBE101:
 747              		.loc 1 125 0
 748 02c2 3B78     		ldrb	r3, [r7]	@ zero_extendqisi2
 749 02c4 9C42     		cmp	r4, r3
 750 02c6 7FF4F2AE 		bne	.L27
 751 02ca 98F80030 		ldrb	r3, [r8]	@ zero_extendqisi2
 752 02ce 9D42     		cmp	r5, r3
 753              	.LBB102:
 754              	.LBB103:
 755              	.LBB104:
 756              	.LBB105:
 757              	.LBB106:
 758              	.LBB107:
 759              		.loc 3 546 0
 760 02d0 08BF     		it	eq
 761 02d2 2026     		moveq	r6, #32
 762              	.LVL91:
 763              	.LBE107:
 764              	.LBE106:
 765              	.LBE105:
 766              	.LBE104:
 767              	.LBE103:
 768              	.LBE102:
 769              		.loc 1 125 0
 770 02d4 12D0     		beq	.L73
 771 02d6 EAE6     		b	.L27
 772              	.L87:
 773              		.loc 1 127 0
 774 02d8 FFF7FEFF 		bl	set_led_wrapper
 775              	.LVL92:
 776              		.loc 1 128 0
 777 02dc 2549     		ldr	r1, .L88+40
 778 02de 0E20     		movs	r0, #14
 779 02e0 FFF7FEFF 		bl	set_led_wrapper
 780              	.LVL93:
 781              	.L45:
 782              		.loc 1 133 0
 783 02e4 6420     		movs	r0, #100
 784 02e6 FFF7FEFF 		bl	chThdSleep
 785              	.LVL94:
 786              		.loc 1 125 0
 787 02ea 3B78     		ldrb	r3, [r7]	@ zero_extendqisi2
 788 02ec 9C42     		cmp	r4, r3
 789 02ee 7FF4DEAE 		bne	.L27
 790              		.loc 1 125 0 is_stmt 0 discriminator 1
 791 02f2 98F80030 		ldrb	r3, [r8]	@ zero_extendqisi2
 792 02f6 9D42     		cmp	r5, r3
 793 02f8 7FF4D9AE 		bne	.L27
 794              	.L73:
 795              		.loc 1 125 0 discriminator 2
 796 02fc FFF7FEFF 		bl	mc_interface_get_fault
 797              	.LVL95:
 798 0300 0028     		cmp	r0, #0
ARM GAS  C:\Users\IDONNO~1\AppData\Local\Temp\ccrHXc7a.s 			page 15


 799 0302 7FF4D4AE 		bne	.L27
 800              	.LBB120:
 801              	.LBB119:
 802              	.LBB111:
 803              	.LBB110:
 804              	.LBB109:
 805              	.LBB108:
 806              		.loc 3 546 0 is_stmt 1
 807              		.syntax unified
 808              	@ 546 "src/ChibiOS_3.0.2/os/ext/CMSIS/include/core_cmFunc.h" 1
 809 0306 86F31188 		MSR basepri, r6
 810              	@ 0 "" 2
 811              	.LVL96:
 812              		.thumb
 813              		.syntax unified
 814              	.LBE108:
 815              	.LBE109:
 816              	.LBE110:
 817              	.LBE111:
 818              	.LBB112:
 819              	.LBB113:
 820              		.loc 4 231 0
 821 030a D9F82830 		ldr	r3, [r9, #40]
 822              	.LVL97:
 823              	.LBE113:
 824              	.LBE112:
 825              	.LBB114:
 826              	.LBB115:
 827              	.LBB116:
 828              	.LBB117:
 829              	.LBB118:
 830              		.loc 3 546 0
 831              		.syntax unified
 832              	@ 546 "src/ChibiOS_3.0.2/os/ext/CMSIS/include/core_cmFunc.h" 1
 833 030e 80F31188 		MSR basepri, r0
 834              	@ 0 "" 2
 835              	.LVL98:
 836              		.thumb
 837              		.syntax unified
 838              	.LBE118:
 839              	.LBE117:
 840              	.LBE116:
 841              	.LBE115:
 842              	.LBE114:
 843              	.LBE119:
 844              	.LBE120:
 845              		.loc 1 126 0
 846 0312 AAFB0323 		umull	r2, r3, r10, r3
 847 0316 C3F3003B 		ubfx	fp, r3, #12, #1
 848              		.loc 1 127 0
 849 031a 1649     		ldr	r1, .L88+40
 850 031c 0D20     		movs	r0, #13
 851              		.loc 1 126 0
 852 031e BBF1000F 		cmp	fp, #0
 853 0322 D9D1     		bne	.L87
 854              		.loc 1 130 0
 855 0324 5946     		mov	r1, fp
ARM GAS  C:\Users\IDONNO~1\AppData\Local\Temp\ccrHXc7a.s 			page 16


 856 0326 0D20     		movs	r0, #13
 857 0328 FFF7FEFF 		bl	set_led_wrapper
 858              	.LVL99:
 859              		.loc 1 131 0
 860 032c 5946     		mov	r1, fp
 861 032e 0E20     		movs	r0, #14
 862 0330 FFF7FEFF 		bl	set_led_wrapper
 863              	.LVL100:
 864 0334 D6E7     		b	.L45
 865              	.LVL101:
 866              	.L58:
 867              	.LBB121:
 868              		.loc 1 172 0
 869 0336 5846     		mov	r0, fp
 870              	.LVL102:
 871 0338 4FF47F41 		mov	r1, #65280
 872 033c FFF7FEFF 		bl	set_led_wrapper
 873              	.LVL103:
 874              		.loc 1 173 0
 875 0340 4FF47F41 		mov	r1, #65280
 876 0344 2046     		mov	r0, r4
 877 0346 FFF7FEFF 		bl	set_led_wrapper
 878              	.LVL104:
 879 034a FFE6     		b	.L57
 880              	.L89:
 881              		.align	2
 882              	.L88:
 883 034c 00000000 		.word	.LC0
 884 0350 00000000 		.word	.LANCHOR0
 885 0354 6740533A 		.word	978534503
 886 0358 0000CA42 		.word	1120534528
 887 035c 00000000 		.word	0
 888 0360 0AD7A33C 		.word	1017370378
 889 0364 00007F43 		.word	1132396544
 890 0368 00000000 		.word	ADC_Value
 891 036c 00000442 		.word	1107558400
 892 0370 00FFFF00 		.word	16776960
 893 0374 00A5FF00 		.word	16753920
 894 0378 00000000 		.word	ch
 895 037c 00000000 		.word	.LANCHOR1
 896 0380 5917B7D1 		.word	-776530087
 897              	.LVL105:
 898              	.L81:
 899              		.loc 1 166 0
 900 0384 4FF47F01 		mov	r1, #16711680
 901 0388 FFF7FEFF 		bl	set_led_wrapper
 902              	.LVL106:
 903              		.loc 1 167 0
 904 038c 4FF47F01 		mov	r1, #16711680
 905 0390 2046     		mov	r0, r4
 906 0392 FFF7FEFF 		bl	set_led_wrapper
 907              	.LVL107:
 908 0396 D9E6     		b	.L57
 909              	.LVL108:
 910              	.L28:
 911              	.LBE121:
 912              		.loc 1 185 0
ARM GAS  C:\Users\IDONNO~1\AppData\Local\Temp\ccrHXc7a.s 			page 17


 913 0398 6420     		movs	r0, #100
 914              	.LVL109:
 915 039a FFF7FEFF 		bl	chThdSleep
 916              	.LVL110:
 917              	.LBE138:
 918              		.loc 1 190 0
 919 039e 0A20     		movs	r0, #10
 920 03a0 FFF7FEFF 		bl	chThdSleep
 921              	.LVL111:
 922 03a4 86E6     		b	.L84
 923              	.LBE140:
 924              		.cfi_endproc
 925              	.LFE259:
 926              		.size	led_thread, .-led_thread
 927 03a6 00BF     		.section	.text.led_external_init,"ax",%progbits
 928              		.align	2
 929              		.p2align 4,,15
 930              		.global	led_external_init
 931              		.thumb
 932              		.thumb_func
 933              		.type	led_external_init, %function
 934              	led_external_init:
 935              	.LFB256:
 936              		.loc 1 47 0
 937              		.cfi_startproc
 938              		@ args = 0, pretend = 0, frame = 0
 939              		@ frame_needed = 0, uses_anonymous_args = 0
 940 0000 70B5     		push	{r4, r5, r6, lr}
 941              		.cfi_def_cfa_offset 16
 942              		.cfi_offset 4, -16
 943              		.cfi_offset 5, -12
 944              		.cfi_offset 6, -8
 945              		.cfi_offset 14, -4
 946 0002 82B0     		sub	sp, sp, #8
 947              		.cfi_def_cfa_offset 24
 948              		.loc 1 48 0
 949 0004 0024     		movs	r4, #0
 950 0006 074E     		ldr	r6, .L92
 951              		.loc 1 49 0
 952 0008 074D     		ldr	r5, .L92+4
 953              		.loc 1 50 0
 954 000a 084B     		ldr	r3, .L92+8
 955 000c 0094     		str	r4, [sp]
 956 000e 0222     		movs	r2, #2
 957 0010 4FF4B361 		mov	r1, #1432
 958 0014 0648     		ldr	r0, .L92+12
 959              		.loc 1 48 0
 960 0016 3470     		strb	r4, [r6]
 961              		.loc 1 49 0
 962 0018 2C70     		strb	r4, [r5]
 963              		.loc 1 50 0
 964 001a FFF7FEFF 		bl	chThdCreateStatic
 965              	.LVL112:
 966              		.loc 1 51 0
 967 001e 02B0     		add	sp, sp, #8
 968              		.cfi_def_cfa_offset 16
 969              		@ sp needed
ARM GAS  C:\Users\IDONNO~1\AppData\Local\Temp\ccrHXc7a.s 			page 18


 970 0020 70BD     		pop	{r4, r5, r6, pc}
 971              	.L93:
 972 0022 00BF     		.align	2
 973              	.L92:
 974 0024 00000000 		.word	.LANCHOR1
 975 0028 00000000 		.word	.LANCHOR0
 976 002c 00000000 		.word	led_thread
 977 0030 00000000 		.word	.LANCHOR2
 978              		.cfi_endproc
 979              	.LFE256:
 980              		.size	led_external_init, .-led_external_init
 981              		.section	.text.led_external_set_state,"ax",%progbits
 982              		.align	2
 983              		.p2align 4,,15
 984              		.global	led_external_set_state
 985              		.thumb
 986              		.thumb_func
 987              		.type	led_external_set_state, %function
 988              	led_external_set_state:
 989              	.LFB257:
 990              		.loc 1 53 0
 991              		.cfi_startproc
 992              		@ args = 0, pretend = 0, frame = 0
 993              		@ frame_needed = 0, uses_anonymous_args = 0
 994              		@ link register save eliminated.
 995              	.LVL113:
 996              		.loc 1 54 0
 997 0000 014B     		ldr	r3, .L95
 998 0002 1870     		strb	r0, [r3]
 999 0004 7047     		bx	lr
 1000              	.L96:
 1001 0006 00BF     		.align	2
 1002              	.L95:
 1003 0008 00000000 		.word	.LANCHOR0
 1004              		.cfi_endproc
 1005              	.LFE257:
 1006              		.size	led_external_set_state, .-led_external_set_state
 1007              		.section	.text.led_external_set_reversed,"ax",%progbits
 1008              		.align	2
 1009              		.p2align 4,,15
 1010              		.global	led_external_set_reversed
 1011              		.thumb
 1012              		.thumb_func
 1013              		.type	led_external_set_reversed, %function
 1014              	led_external_set_reversed:
 1015              	.LFB258:
 1016              		.loc 1 57 0
 1017              		.cfi_startproc
 1018              		@ args = 0, pretend = 0, frame = 0
 1019              		@ frame_needed = 0, uses_anonymous_args = 0
 1020              		@ link register save eliminated.
 1021              	.LVL114:
 1022              		.loc 1 58 0
 1023 0000 014B     		ldr	r3, .L98
 1024 0002 1870     		strb	r0, [r3]
 1025 0004 7047     		bx	lr
 1026              	.L99:
ARM GAS  C:\Users\IDONNO~1\AppData\Local\Temp\ccrHXc7a.s 			page 19


 1027 0006 00BF     		.align	2
 1028              	.L98:
 1029 0008 00000000 		.word	.LANCHOR1
 1030              		.cfi_endproc
 1031              	.LFE258:
 1032              		.size	led_external_set_reversed, .-led_external_set_reversed
 1033              		.section	.bss.reverse_leds,"aw",%nobits
 1034              		.set	.LANCHOR1,. + 0
 1035              		.type	reverse_leds, %object
 1036              		.size	reverse_leds, 1
 1037              	reverse_leds:
 1038 0000 00       		.space	1
 1039              		.section	.bss.state,"aw",%nobits
 1040              		.set	.LANCHOR0,. + 0
 1041              		.type	state, %object
 1042              		.size	state, 1
 1043              	state:
 1044 0000 00       		.space	1
 1045              		.section	.rodata.str1.4,"aMS",%progbits,1
 1046              		.align	2
 1047              	.LC0:
 1048 0000 4C454473 		.ascii	"LEDs External\000"
 1048      20457874 
 1048      65726E61 
 1048      6C00
 1049              		.section	.bss.led_thread_wa,"aw",%nobits
 1050              		.align	3
 1051              		.set	.LANCHOR2,. + 0
 1052              		.type	led_thread_wa, %object
 1053              		.size	led_thread_wa, 1432
 1054              	led_thread_wa:
 1055 0000 00000000 		.space	1432
 1055      00000000 
 1055      00000000 
 1055      00000000 
 1055      00000000 
 1056              		.text
 1057              	.Letext0:
 1058              		.file 5 "c:\\program files (x86)\\gnu tools arm embedded\\5.4 2016q3\\arm-none-eabi\\include\\mach
 1059              		.file 6 "c:\\program files (x86)\\gnu tools arm embedded\\5.4 2016q3\\arm-none-eabi\\include\\sys\
 1060              		.file 7 "c:\\program files (x86)\\gnu tools arm embedded\\5.4 2016q3\\lib\\gcc\\arm-none-eabi\\5.4
 1061              		.file 8 "src/ChibiOS_3.0.2/os/rt/ports/ARMCMx/compilers/GCC/chtypes.h"
 1062              		.file 9 "src/ChibiOS_3.0.2/os/rt/include/chsystypes.h"
 1063              		.file 10 "src/ChibiOS_3.0.2/os/rt/include/chschd.h"
 1064              		.file 11 "src/ChibiOS_3.0.2/os/rt/ports/ARMCMx/chcore.h"
 1065              		.file 12 "src/ChibiOS_3.0.2/os/rt/ports/ARMCMx/chcore_v7m.h"
 1066              		.file 13 "src/ChibiOS_3.0.2/os/rt/include/chtm.h"
 1067              		.file 14 "src/ChibiOS_3.0.2/os/rt/include/chsem.h"
 1068              		.file 15 "src/ChibiOS_3.0.2/os/rt/include/chmtx.h"
 1069              		.file 16 "src/core/led_external.h"
 1070              		.file 17 "src/mc/mc_typedef.h"
 1071              		.file 18 "src/ChibiOS_3.0.2/os/rt/include/chsys.h"
 1072              		.file 19 "src/ChibiOS_3.0.2/os/ext/CMSIS/include/core_cm4.h"
 1073              		.file 20 "src/hw_oroca.h"
 1074              		.file 21 "src/ChibiOS_3.0.2/os/rt/include/chthreads.h"
 1075              		.file 22 "src/core/ws2811.h"
 1076              		.file 23 "src/core/utils.h"
ARM GAS  C:\Users\IDONNO~1\AppData\Local\Temp\ccrHXc7a.s 			page 20


 1077              		.section	.debug_info,"",%progbits
 1078              	.Ldebug_info0:
 1079 0000 0F120000 		.4byte	0x120f
 1080 0004 0400     		.2byte	0x4
 1081 0006 00000000 		.4byte	.Ldebug_abbrev0
 1082 000a 04       		.byte	0x4
 1083 000b 01       		.uleb128 0x1
 1084 000c E4060000 		.4byte	.LASF164
 1085 0010 0C       		.byte	0xc
 1086 0011 AB020000 		.4byte	.LASF165
 1087 0015 EA020000 		.4byte	.LASF166
 1088 0019 60010000 		.4byte	.Ldebug_ranges0+0x160
 1089 001d 00000000 		.4byte	0
 1090 0021 00000000 		.4byte	.Ldebug_line0
 1091 0025 02       		.uleb128 0x2
 1092 0026 04       		.byte	0x4
 1093 0027 04       		.byte	0x4
 1094 0028 9D040000 		.4byte	.LASF0
 1095 002c 02       		.uleb128 0x2
 1096 002d 04       		.byte	0x4
 1097 002e 07       		.byte	0x7
 1098 002f 39020000 		.4byte	.LASF1
 1099 0033 02       		.uleb128 0x2
 1100 0034 01       		.byte	0x1
 1101 0035 06       		.byte	0x6
 1102 0036 07010000 		.4byte	.LASF2
 1103 003a 03       		.uleb128 0x3
 1104 003b 50000000 		.4byte	.LASF5
 1105 003f 05       		.byte	0x5
 1106 0040 1D       		.byte	0x1d
 1107 0041 45000000 		.4byte	0x45
 1108 0045 02       		.uleb128 0x2
 1109 0046 01       		.byte	0x1
 1110 0047 08       		.byte	0x8
 1111 0048 1A050000 		.4byte	.LASF3
 1112 004c 02       		.uleb128 0x2
 1113 004d 02       		.byte	0x2
 1114 004e 05       		.byte	0x5
 1115 004f 43050000 		.4byte	.LASF4
 1116 0053 03       		.uleb128 0x3
 1117 0054 2B060000 		.4byte	.LASF6
 1118 0058 05       		.byte	0x5
 1119 0059 2B       		.byte	0x2b
 1120 005a 5E000000 		.4byte	0x5e
 1121 005e 02       		.uleb128 0x2
 1122 005f 02       		.byte	0x2
 1123 0060 07       		.byte	0x7
 1124 0061 8E060000 		.4byte	.LASF7
 1125 0065 03       		.uleb128 0x3
 1126 0066 82030000 		.4byte	.LASF8
 1127 006a 05       		.byte	0x5
 1128 006b 3F       		.byte	0x3f
 1129 006c 70000000 		.4byte	0x70
 1130 0070 02       		.uleb128 0x2
 1131 0071 04       		.byte	0x4
 1132 0072 05       		.byte	0x5
 1133 0073 60010000 		.4byte	.LASF9
ARM GAS  C:\Users\IDONNO~1\AppData\Local\Temp\ccrHXc7a.s 			page 21


 1134 0077 03       		.uleb128 0x3
 1135 0078 64060000 		.4byte	.LASF10
 1136 007c 05       		.byte	0x5
 1137 007d 41       		.byte	0x41
 1138 007e 82000000 		.4byte	0x82
 1139 0082 02       		.uleb128 0x2
 1140 0083 04       		.byte	0x4
 1141 0084 07       		.byte	0x7
 1142 0085 07060000 		.4byte	.LASF11
 1143 0089 02       		.uleb128 0x2
 1144 008a 08       		.byte	0x8
 1145 008b 05       		.byte	0x5
 1146 008c F9000000 		.4byte	.LASF12
 1147 0090 03       		.uleb128 0x3
 1148 0091 92040000 		.4byte	.LASF13
 1149 0095 05       		.byte	0x5
 1150 0096 5B       		.byte	0x5b
 1151 0097 9B000000 		.4byte	0x9b
 1152 009b 02       		.uleb128 0x2
 1153 009c 08       		.byte	0x8
 1154 009d 07       		.byte	0x7
 1155 009e 83000000 		.4byte	.LASF14
 1156 00a2 04       		.uleb128 0x4
 1157 00a3 04       		.byte	0x4
 1158 00a4 05       		.byte	0x5
 1159 00a5 696E7400 		.ascii	"int\000"
 1160 00a9 03       		.uleb128 0x3
 1161 00aa 21080000 		.4byte	.LASF15
 1162 00ae 06       		.byte	0x6
 1163 00af 18       		.byte	0x18
 1164 00b0 3A000000 		.4byte	0x3a
 1165 00b4 03       		.uleb128 0x3
 1166 00b5 A8010000 		.4byte	.LASF16
 1167 00b9 06       		.byte	0x6
 1168 00ba 24       		.byte	0x24
 1169 00bb 53000000 		.4byte	0x53
 1170 00bf 03       		.uleb128 0x3
 1171 00c0 12050000 		.4byte	.LASF17
 1172 00c4 06       		.byte	0x6
 1173 00c5 2C       		.byte	0x2c
 1174 00c6 65000000 		.4byte	0x65
 1175 00ca 03       		.uleb128 0x3
 1176 00cb D4050000 		.4byte	.LASF18
 1177 00cf 06       		.byte	0x6
 1178 00d0 30       		.byte	0x30
 1179 00d1 77000000 		.4byte	0x77
 1180 00d5 03       		.uleb128 0x3
 1181 00d6 2F000000 		.4byte	.LASF19
 1182 00da 06       		.byte	0x6
 1183 00db 3C       		.byte	0x3c
 1184 00dc 90000000 		.4byte	0x90
 1185 00e0 03       		.uleb128 0x3
 1186 00e1 13000000 		.4byte	.LASF20
 1187 00e5 07       		.byte	0x7
 1188 00e6 D8       		.byte	0xd8
 1189 00e7 2C000000 		.4byte	0x2c
 1190 00eb 05       		.uleb128 0x5
ARM GAS  C:\Users\IDONNO~1\AppData\Local\Temp\ccrHXc7a.s 			page 22


 1191 00ec BF000000 		.4byte	0xbf
 1192 00f0 03       		.uleb128 0x3
 1193 00f1 A1060000 		.4byte	.LASF21
 1194 00f5 08       		.byte	0x8
 1195 00f6 45       		.byte	0x45
 1196 00f7 CA000000 		.4byte	0xca
 1197 00fb 03       		.uleb128 0x3
 1198 00fc 58030000 		.4byte	.LASF22
 1199 0100 08       		.byte	0x8
 1200 0101 48       		.byte	0x48
 1201 0102 A9000000 		.4byte	0xa9
 1202 0106 03       		.uleb128 0x3
 1203 0107 B1010000 		.4byte	.LASF23
 1204 010b 08       		.byte	0x8
 1205 010c 49       		.byte	0x49
 1206 010d A9000000 		.4byte	0xa9
 1207 0111 03       		.uleb128 0x3
 1208 0112 A3040000 		.4byte	.LASF24
 1209 0116 08       		.byte	0x8
 1210 0117 4A       		.byte	0x4a
 1211 0118 A9000000 		.4byte	0xa9
 1212 011c 03       		.uleb128 0x3
 1213 011d 3F010000 		.4byte	.LASF25
 1214 0121 08       		.byte	0x8
 1215 0122 4B       		.byte	0x4b
 1216 0123 A9000000 		.4byte	0xa9
 1217 0127 03       		.uleb128 0x3
 1218 0128 DC040000 		.4byte	.LASF26
 1219 012c 08       		.byte	0x8
 1220 012d 4C       		.byte	0x4c
 1221 012e CA000000 		.4byte	0xca
 1222 0132 03       		.uleb128 0x3
 1223 0133 CD020000 		.4byte	.LASF27
 1224 0137 08       		.byte	0x8
 1225 0138 4D       		.byte	0x4d
 1226 0139 BF000000 		.4byte	0xbf
 1227 013d 03       		.uleb128 0x3
 1228 013e 76030000 		.4byte	.LASF28
 1229 0142 08       		.byte	0x8
 1230 0143 4F       		.byte	0x4f
 1231 0144 CA000000 		.4byte	0xca
 1232 0148 03       		.uleb128 0x3
 1233 0149 20020000 		.4byte	.LASF29
 1234 014d 08       		.byte	0x8
 1235 014e 51       		.byte	0x51
 1236 014f BF000000 		.4byte	0xbf
 1237 0153 03       		.uleb128 0x3
 1238 0154 46060000 		.4byte	.LASF30
 1239 0158 09       		.byte	0x9
 1240 0159 33       		.byte	0x33
 1241 015a CA000000 		.4byte	0xca
 1242 015e 03       		.uleb128 0x3
 1243 015f 36060000 		.4byte	.LASF31
 1244 0163 09       		.byte	0x9
 1245 0164 3F       		.byte	0x3f
 1246 0165 69010000 		.4byte	0x169
 1247 0169 06       		.uleb128 0x6
ARM GAS  C:\Users\IDONNO~1\AppData\Local\Temp\ccrHXc7a.s 			page 23


 1248 016a C3020000 		.4byte	.LASF53
 1249 016e 48       		.byte	0x48
 1250 016f 0A       		.byte	0xa
 1251 0170 C2       		.byte	0xc2
 1252 0171 6E020000 		.4byte	0x26e
 1253 0175 07       		.uleb128 0x7
 1254 0176 5E050000 		.4byte	.LASF32
 1255 017a 0A       		.byte	0xa
 1256 017b C3       		.byte	0xc3
 1257 017c 79020000 		.4byte	0x279
 1258 0180 00       		.byte	0
 1259 0181 07       		.uleb128 0x7
 1260 0182 C8030000 		.4byte	.LASF33
 1261 0186 0A       		.byte	0xa
 1262 0187 C5       		.byte	0xc5
 1263 0188 79020000 		.4byte	0x279
 1264 018c 04       		.byte	0x4
 1265 018d 07       		.uleb128 0x7
 1266 018e F2000000 		.4byte	.LASF34
 1267 0192 0A       		.byte	0xa
 1268 0193 C7       		.byte	0xc7
 1269 0194 27010000 		.4byte	0x127
 1270 0198 08       		.byte	0x8
 1271 0199 07       		.uleb128 0x7
 1272 019a F9080000 		.4byte	.LASF35
 1273 019e 0A       		.byte	0xa
 1274 019f C8       		.byte	0xc8
 1275 01a0 A9040000 		.4byte	0x4a9
 1276 01a4 0C       		.byte	0xc
 1277 01a5 07       		.uleb128 0x7
 1278 01a6 BA010000 		.4byte	.LASF36
 1279 01aa 0A       		.byte	0xa
 1280 01ab CA       		.byte	0xca
 1281 01ac 79020000 		.4byte	0x279
 1282 01b0 10       		.byte	0x10
 1283 01b1 07       		.uleb128 0x7
 1284 01b2 2D040000 		.4byte	.LASF37
 1285 01b6 0A       		.byte	0xa
 1286 01b7 CB       		.byte	0xcb
 1287 01b8 79020000 		.4byte	0x279
 1288 01bc 14       		.byte	0x14
 1289 01bd 07       		.uleb128 0x7
 1290 01be 49080000 		.4byte	.LASF38
 1291 01c2 0A       		.byte	0xa
 1292 01c3 D2       		.byte	0xd2
 1293 01c4 EE060000 		.4byte	0x6ee
 1294 01c8 18       		.byte	0x18
 1295 01c9 07       		.uleb128 0x7
 1296 01ca 31050000 		.4byte	.LASF39
 1297 01ce 0A       		.byte	0xa
 1298 01cf DD       		.byte	0xdd
 1299 01d0 06010000 		.4byte	0x106
 1300 01d4 1C       		.byte	0x1c
 1301 01d5 07       		.uleb128 0x7
 1302 01d6 65050000 		.4byte	.LASF40
 1303 01da 0A       		.byte	0xa
 1304 01db E1       		.byte	0xe1
ARM GAS  C:\Users\IDONNO~1\AppData\Local\Temp\ccrHXc7a.s 			page 24


 1305 01dc FB000000 		.4byte	0xfb
 1306 01e0 1D       		.byte	0x1d
 1307 01e1 07       		.uleb128 0x7
 1308 01e2 D2060000 		.4byte	.LASF41
 1309 01e6 0A       		.byte	0xa
 1310 01e7 E6       		.byte	0xe6
 1311 01e8 11010000 		.4byte	0x111
 1312 01ec 1E       		.byte	0x1e
 1313 01ed 07       		.uleb128 0x7
 1314 01ee 4D050000 		.4byte	.LASF42
 1315 01f2 0A       		.byte	0xa
 1316 01f3 EC       		.byte	0xec
 1317 01f4 1C010000 		.4byte	0x11c
 1318 01f8 1F       		.byte	0x1f
 1319 01f9 07       		.uleb128 0x7
 1320 01fa 4E020000 		.4byte	.LASF43
 1321 01fe 0A       		.byte	0xa
 1322 01ff F3       		.byte	0xf3
 1323 0200 00070000 		.4byte	0x700
 1324 0204 20       		.byte	0x20
 1325 0205 08       		.uleb128 0x8
 1326 0206 705F7500 		.ascii	"p_u\000"
 1327 020a 0A       		.byte	0xa
 1328 020b 3101     		.2byte	0x131
 1329 020d 29060000 		.4byte	0x629
 1330 0211 24       		.byte	0x24
 1331 0212 09       		.uleb128 0x9
 1332 0213 FF080000 		.4byte	.LASF44
 1333 0217 0A       		.byte	0xa
 1334 0218 3601     		.2byte	0x136
 1335 021a 7F020000 		.4byte	0x27f
 1336 021e 28       		.byte	0x28
 1337 021f 09       		.uleb128 0x9
 1338 0220 B5060000 		.4byte	.LASF45
 1339 0224 0A       		.byte	0xa
 1340 0225 3C01     		.2byte	0x13c
 1341 0227 A3020000 		.4byte	0x2a3
 1342 022b 2C       		.byte	0x2c
 1343 022c 09       		.uleb128 0x9
 1344 022d 82080000 		.4byte	.LASF46
 1345 0231 0A       		.byte	0xa
 1346 0232 4001     		.2byte	0x140
 1347 0234 32010000 		.4byte	0x132
 1348 0238 34       		.byte	0x34
 1349 0239 09       		.uleb128 0x9
 1350 023a BC050000 		.4byte	.LASF47
 1351 023e 0A       		.byte	0xa
 1352 023f 4601     		.2byte	0x146
 1353 0241 3D010000 		.4byte	0x13d
 1354 0245 38       		.byte	0x38
 1355 0246 09       		.uleb128 0x9
 1356 0247 39050000 		.4byte	.LASF48
 1357 024b 0A       		.byte	0xa
 1358 024c 4D01     		.2byte	0x14d
 1359 024e E8060000 		.4byte	0x6e8
 1360 0252 3C       		.byte	0x3c
 1361 0253 09       		.uleb128 0x9
ARM GAS  C:\Users\IDONNO~1\AppData\Local\Temp\ccrHXc7a.s 			page 25


 1362 0254 50060000 		.4byte	.LASF49
 1363 0258 0A       		.byte	0xa
 1364 0259 5101     		.2byte	0x151
 1365 025b 27010000 		.4byte	0x127
 1366 025f 40       		.byte	0x40
 1367 0260 09       		.uleb128 0x9
 1368 0261 1D010000 		.4byte	.LASF50
 1369 0265 0A       		.byte	0xa
 1370 0266 5801     		.2byte	0x158
 1371 0268 56030000 		.4byte	0x356
 1372 026c 44       		.byte	0x44
 1373 026d 00       		.byte	0
 1374 026e 03       		.uleb128 0x3
 1375 026f E7030000 		.4byte	.LASF51
 1376 0273 09       		.byte	0x9
 1377 0274 44       		.byte	0x44
 1378 0275 79020000 		.4byte	0x279
 1379 0279 0A       		.uleb128 0xa
 1380 027a 04       		.byte	0x4
 1381 027b 5E010000 		.4byte	0x15e
 1382 027f 03       		.uleb128 0x3
 1383 0280 67080000 		.4byte	.LASF52
 1384 0284 09       		.byte	0x9
 1385 0285 49       		.byte	0x49
 1386 0286 8A020000 		.4byte	0x28a
 1387 028a 06       		.uleb128 0x6
 1388 028b F7050000 		.4byte	.LASF54
 1389 028f 04       		.byte	0x4
 1390 0290 0A       		.byte	0xa
 1391 0291 B0       		.byte	0xb0
 1392 0292 A3020000 		.4byte	0x2a3
 1393 0296 07       		.uleb128 0x7
 1394 0297 5E050000 		.4byte	.LASF32
 1395 029b 0A       		.byte	0xa
 1396 029c B1       		.byte	0xb1
 1397 029d 79020000 		.4byte	0x279
 1398 02a1 00       		.byte	0
 1399 02a2 00       		.byte	0
 1400 02a3 03       		.uleb128 0x3
 1401 02a4 8E050000 		.4byte	.LASF55
 1402 02a8 09       		.byte	0x9
 1403 02a9 50       		.byte	0x50
 1404 02aa AE020000 		.4byte	0x2ae
 1405 02ae 06       		.uleb128 0x6
 1406 02af C8000000 		.4byte	.LASF56
 1407 02b3 08       		.byte	0x8
 1408 02b4 0A       		.byte	0xa
 1409 02b5 B7       		.byte	0xb7
 1410 02b6 D3020000 		.4byte	0x2d3
 1411 02ba 07       		.uleb128 0x7
 1412 02bb 5E050000 		.4byte	.LASF32
 1413 02bf 0A       		.byte	0xa
 1414 02c0 B8       		.byte	0xb8
 1415 02c1 79020000 		.4byte	0x279
 1416 02c5 00       		.byte	0
 1417 02c6 07       		.uleb128 0x7
 1418 02c7 C8030000 		.4byte	.LASF33
ARM GAS  C:\Users\IDONNO~1\AppData\Local\Temp\ccrHXc7a.s 			page 26


 1419 02cb 0A       		.byte	0xa
 1420 02cc B9       		.byte	0xb9
 1421 02cd 79020000 		.4byte	0x279
 1422 02d1 04       		.byte	0x4
 1423 02d2 00       		.byte	0
 1424 02d3 03       		.uleb128 0x3
 1425 02d4 06000000 		.4byte	.LASF57
 1426 02d8 09       		.byte	0x9
 1427 02d9 57       		.byte	0x57
 1428 02da DE020000 		.4byte	0x2de
 1429 02de 0B       		.uleb128 0xb
 1430 02df 68030000 		.4byte	.LASF58
 1431 02e3 1C       		.byte	0x1c
 1432 02e4 0A       		.byte	0xa
 1433 02e5 9001     		.2byte	0x190
 1434 02e7 3A030000 		.4byte	0x33a
 1435 02eb 09       		.uleb128 0x9
 1436 02ec E4050000 		.4byte	.LASF59
 1437 02f0 0A       		.byte	0xa
 1438 02f1 9101     		.2byte	0x191
 1439 02f3 A3020000 		.4byte	0x2a3
 1440 02f7 00       		.byte	0
 1441 02f8 09       		.uleb128 0x9
 1442 02f9 AF030000 		.4byte	.LASF60
 1443 02fd 0A       		.byte	0xa
 1444 02fe 9201     		.2byte	0x192
 1445 0300 27010000 		.4byte	0x127
 1446 0304 08       		.byte	0x8
 1447 0305 09       		.uleb128 0x9
 1448 0306 35040000 		.4byte	.LASF61
 1449 030a 0A       		.byte	0xa
 1450 030b 9401     		.2byte	0x194
 1451 030d A9040000 		.4byte	0x4a9
 1452 0311 0C       		.byte	0xc
 1453 0312 09       		.uleb128 0x9
 1454 0313 D3010000 		.4byte	.LASF62
 1455 0317 0A       		.byte	0xa
 1456 0318 9701     		.2byte	0x197
 1457 031a 79020000 		.4byte	0x279
 1458 031e 10       		.byte	0x10
 1459 031f 09       		.uleb128 0x9
 1460 0320 6F040000 		.4byte	.LASF63
 1461 0324 0A       		.byte	0xa
 1462 0325 9801     		.2byte	0x198
 1463 0327 79020000 		.4byte	0x279
 1464 032b 14       		.byte	0x14
 1465 032c 09       		.uleb128 0x9
 1466 032d 65040000 		.4byte	.LASF64
 1467 0331 0A       		.byte	0xa
 1468 0332 9B01     		.2byte	0x19b
 1469 0334 79020000 		.4byte	0x279
 1470 0338 18       		.byte	0x18
 1471 0339 00       		.byte	0
 1472 033a 03       		.uleb128 0x3
 1473 033b 5B060000 		.4byte	.LASF65
 1474 033f 09       		.byte	0x9
 1475 0340 5C       		.byte	0x5c
ARM GAS  C:\Users\IDONNO~1\AppData\Local\Temp\ccrHXc7a.s 			page 27


 1476 0341 45030000 		.4byte	0x345
 1477 0345 0A       		.uleb128 0xa
 1478 0346 04       		.byte	0x4
 1479 0347 4B030000 		.4byte	0x34b
 1480 034b 0C       		.uleb128 0xc
 1481 034c 56030000 		.4byte	0x356
 1482 0350 0D       		.uleb128 0xd
 1483 0351 56030000 		.4byte	0x356
 1484 0355 00       		.byte	0
 1485 0356 0E       		.uleb128 0xe
 1486 0357 04       		.byte	0x4
 1487 0358 03       		.uleb128 0x3
 1488 0359 BD040000 		.4byte	.LASF66
 1489 035d 09       		.byte	0x9
 1490 035e 61       		.byte	0x61
 1491 035f 63030000 		.4byte	0x363
 1492 0363 0B       		.uleb128 0xb
 1493 0364 9E050000 		.4byte	.LASF67
 1494 0368 14       		.byte	0x14
 1495 0369 0A       		.byte	0xa
 1496 036a 6B01     		.2byte	0x16b
 1497 036c B2030000 		.4byte	0x3b2
 1498 0370 09       		.uleb128 0x9
 1499 0371 46020000 		.4byte	.LASF68
 1500 0375 0A       		.byte	0xa
 1501 0376 6C01     		.2byte	0x16c
 1502 0378 05070000 		.4byte	0x705
 1503 037c 00       		.byte	0
 1504 037d 09       		.uleb128 0x9
 1505 037e E4010000 		.4byte	.LASF69
 1506 0382 0A       		.byte	0xa
 1507 0383 6D01     		.2byte	0x16d
 1508 0385 05070000 		.4byte	0x705
 1509 0389 04       		.byte	0x4
 1510 038a 09       		.uleb128 0x9
 1511 038b 5C020000 		.4byte	.LASF70
 1512 038f 0A       		.byte	0xa
 1513 0390 6E01     		.2byte	0x16e
 1514 0392 53010000 		.4byte	0x153
 1515 0396 08       		.byte	0x8
 1516 0397 09       		.uleb128 0x9
 1517 0398 4B040000 		.4byte	.LASF71
 1518 039c 0A       		.byte	0xa
 1519 039d 6F01     		.2byte	0x16f
 1520 039f 3A030000 		.4byte	0x33a
 1521 03a3 0C       		.byte	0xc
 1522 03a4 09       		.uleb128 0x9
 1523 03a5 C0060000 		.4byte	.LASF72
 1524 03a9 0A       		.byte	0xa
 1525 03aa 7101     		.2byte	0x171
 1526 03ac 56030000 		.4byte	0x356
 1527 03b0 10       		.byte	0x10
 1528 03b1 00       		.byte	0
 1529 03b2 03       		.uleb128 0x3
 1530 03b3 A5000000 		.4byte	.LASF73
 1531 03b7 09       		.byte	0x9
 1532 03b8 66       		.byte	0x66
ARM GAS  C:\Users\IDONNO~1\AppData\Local\Temp\ccrHXc7a.s 			page 28


 1533 03b9 BD030000 		.4byte	0x3bd
 1534 03bd 0B       		.uleb128 0xb
 1535 03be 09020000 		.4byte	.LASF74
 1536 03c2 10       		.byte	0x10
 1537 03c3 0A       		.byte	0xa
 1538 03c4 7B01     		.2byte	0x17b
 1539 03c6 FF030000 		.4byte	0x3ff
 1540 03ca 09       		.uleb128 0x9
 1541 03cb 46020000 		.4byte	.LASF68
 1542 03cf 0A       		.byte	0xa
 1543 03d0 7C01     		.2byte	0x17c
 1544 03d2 05070000 		.4byte	0x705
 1545 03d6 00       		.byte	0
 1546 03d7 09       		.uleb128 0x9
 1547 03d8 E4010000 		.4byte	.LASF69
 1548 03dc 0A       		.byte	0xa
 1549 03dd 7E01     		.2byte	0x17e
 1550 03df 05070000 		.4byte	0x705
 1551 03e3 04       		.byte	0x4
 1552 03e4 09       		.uleb128 0x9
 1553 03e5 5C020000 		.4byte	.LASF70
 1554 03e9 0A       		.byte	0xa
 1555 03ea 8001     		.2byte	0x180
 1556 03ec 53010000 		.4byte	0x153
 1557 03f0 08       		.byte	0x8
 1558 03f1 09       		.uleb128 0x9
 1559 03f2 EC050000 		.4byte	.LASF75
 1560 03f6 0A       		.byte	0xa
 1561 03f7 8201     		.2byte	0x182
 1562 03f9 00070000 		.4byte	0x700
 1563 03fd 0C       		.byte	0xc
 1564 03fe 00       		.byte	0
 1565 03ff 03       		.uleb128 0x3
 1566 0400 65020000 		.4byte	.LASF76
 1567 0404 09       		.byte	0x9
 1568 0405 6B       		.byte	0x6b
 1569 0406 0A040000 		.4byte	0x40a
 1570 040a 0B       		.uleb128 0xb
 1571 040b FC040000 		.4byte	.LASF77
 1572 040f 04       		.byte	0x4
 1573 0410 0A       		.byte	0xa
 1574 0411 A201     		.2byte	0x1a2
 1575 0413 25040000 		.4byte	0x425
 1576 0417 09       		.uleb128 0x9
 1577 0418 7D060000 		.4byte	.LASF78
 1578 041c 0A       		.byte	0xa
 1579 041d AA01     		.2byte	0x1aa
 1580 041f 0B070000 		.4byte	0x70b
 1581 0423 00       		.byte	0
 1582 0424 00       		.byte	0
 1583 0425 03       		.uleb128 0x3
 1584 0426 36030000 		.4byte	.LASF79
 1585 042a 09       		.byte	0x9
 1586 042b 70       		.byte	0x70
 1587 042c 30040000 		.4byte	0x430
 1588 0430 0F       		.uleb128 0xf
 1589 0431 56010000 		.4byte	.LASF80
ARM GAS  C:\Users\IDONNO~1\AppData\Local\Temp\ccrHXc7a.s 			page 29


 1590 0435 5802     		.2byte	0x258
 1591 0437 0A       		.byte	0xa
 1592 0438 C201     		.2byte	0x1c2
 1593 043a 8C040000 		.4byte	0x48c
 1594 043e 09       		.uleb128 0x9
 1595 043f 08080000 		.4byte	.LASF81
 1596 0443 0A       		.byte	0xa
 1597 0444 C601     		.2byte	0x1c6
 1598 0446 D3020000 		.4byte	0x2d3
 1599 044a 00       		.byte	0
 1600 044b 09       		.uleb128 0x9
 1601 044c 66000000 		.4byte	.LASF82
 1602 0450 0A       		.byte	0xa
 1603 0451 CA01     		.2byte	0x1ca
 1604 0453 B2030000 		.4byte	0x3b2
 1605 0457 1C       		.byte	0x1c
 1606 0458 08       		.uleb128 0x8
 1607 0459 64626700 		.ascii	"dbg\000"
 1608 045d 0A       		.byte	0xa
 1609 045e CE01     		.2byte	0x1ce
 1610 0460 FF030000 		.4byte	0x3ff
 1611 0464 2C       		.byte	0x2c
 1612 0465 09       		.uleb128 0x9
 1613 0466 9A000000 		.4byte	.LASF83
 1614 046a 0A       		.byte	0xa
 1615 046b D201     		.2byte	0x1d2
 1616 046d 5E010000 		.4byte	0x15e
 1617 0471 30       		.byte	0x30
 1618 0472 08       		.uleb128 0x8
 1619 0473 746D00   		.ascii	"tm\000"
 1620 0476 0A       		.byte	0xa
 1621 0477 D701     		.2byte	0x1d7
 1622 0479 1E060000 		.4byte	0x61e
 1623 047d 78       		.byte	0x78
 1624 047e 09       		.uleb128 0x9
 1625 047f FA010000 		.4byte	.LASF84
 1626 0483 0A       		.byte	0xa
 1627 0484 E301     		.2byte	0x1e3
 1628 0486 10070000 		.4byte	0x710
 1629 048a 80       		.byte	0x80
 1630 048b 00       		.byte	0
 1631 048c 02       		.uleb128 0x2
 1632 048d 04       		.byte	0x4
 1633 048e 07       		.byte	0x7
 1634 048f 29080000 		.4byte	.LASF85
 1635 0493 03       		.uleb128 0x3
 1636 0494 DB010000 		.4byte	.LASF86
 1637 0498 0B       		.byte	0xb
 1638 0499 65       		.byte	0x65
 1639 049a 56030000 		.4byte	0x356
 1640 049e 03       		.uleb128 0x3
 1641 049f 92030000 		.4byte	.LASF87
 1642 04a3 0B       		.byte	0xb
 1643 04a4 6D       		.byte	0x6d
 1644 04a5 D5000000 		.4byte	0xd5
 1645 04a9 06       		.uleb128 0x6
 1646 04aa 8A020000 		.4byte	.LASF88
ARM GAS  C:\Users\IDONNO~1\AppData\Local\Temp\ccrHXc7a.s 			page 30


 1647 04ae 04       		.byte	0x4
 1648 04af 0B       		.byte	0xb
 1649 04b0 89       		.byte	0x89
 1650 04b1 C2040000 		.4byte	0x4c2
 1651 04b5 10       		.uleb128 0x10
 1652 04b6 72313300 		.ascii	"r13\000"
 1653 04ba 0B       		.byte	0xb
 1654 04bb 8A       		.byte	0x8a
 1655 04bc 03060000 		.4byte	0x603
 1656 04c0 00       		.byte	0
 1657 04c1 00       		.byte	0
 1658 04c2 06       		.uleb128 0x6
 1659 04c3 5A000000 		.4byte	.LASF89
 1660 04c7 64       		.byte	0x64
 1661 04c8 0C       		.byte	0xc
 1662 04c9 F4       		.byte	0xf4
 1663 04ca 03060000 		.4byte	0x603
 1664 04ce 10       		.uleb128 0x10
 1665 04cf 73313600 		.ascii	"s16\000"
 1666 04d3 0C       		.byte	0xc
 1667 04d4 F6       		.byte	0xf6
 1668 04d5 93040000 		.4byte	0x493
 1669 04d9 00       		.byte	0
 1670 04da 10       		.uleb128 0x10
 1671 04db 73313700 		.ascii	"s17\000"
 1672 04df 0C       		.byte	0xc
 1673 04e0 F7       		.byte	0xf7
 1674 04e1 93040000 		.4byte	0x493
 1675 04e5 04       		.byte	0x4
 1676 04e6 10       		.uleb128 0x10
 1677 04e7 73313800 		.ascii	"s18\000"
 1678 04eb 0C       		.byte	0xc
 1679 04ec F8       		.byte	0xf8
 1680 04ed 93040000 		.4byte	0x493
 1681 04f1 08       		.byte	0x8
 1682 04f2 10       		.uleb128 0x10
 1683 04f3 73313900 		.ascii	"s19\000"
 1684 04f7 0C       		.byte	0xc
 1685 04f8 F9       		.byte	0xf9
 1686 04f9 93040000 		.4byte	0x493
 1687 04fd 0C       		.byte	0xc
 1688 04fe 10       		.uleb128 0x10
 1689 04ff 73323000 		.ascii	"s20\000"
 1690 0503 0C       		.byte	0xc
 1691 0504 FA       		.byte	0xfa
 1692 0505 93040000 		.4byte	0x493
 1693 0509 10       		.byte	0x10
 1694 050a 10       		.uleb128 0x10
 1695 050b 73323100 		.ascii	"s21\000"
 1696 050f 0C       		.byte	0xc
 1697 0510 FB       		.byte	0xfb
 1698 0511 93040000 		.4byte	0x493
 1699 0515 14       		.byte	0x14
 1700 0516 10       		.uleb128 0x10
 1701 0517 73323200 		.ascii	"s22\000"
 1702 051b 0C       		.byte	0xc
 1703 051c FC       		.byte	0xfc
ARM GAS  C:\Users\IDONNO~1\AppData\Local\Temp\ccrHXc7a.s 			page 31


 1704 051d 93040000 		.4byte	0x493
 1705 0521 18       		.byte	0x18
 1706 0522 10       		.uleb128 0x10
 1707 0523 73323300 		.ascii	"s23\000"
 1708 0527 0C       		.byte	0xc
 1709 0528 FD       		.byte	0xfd
 1710 0529 93040000 		.4byte	0x493
 1711 052d 1C       		.byte	0x1c
 1712 052e 10       		.uleb128 0x10
 1713 052f 73323400 		.ascii	"s24\000"
 1714 0533 0C       		.byte	0xc
 1715 0534 FE       		.byte	0xfe
 1716 0535 93040000 		.4byte	0x493
 1717 0539 20       		.byte	0x20
 1718 053a 10       		.uleb128 0x10
 1719 053b 73323500 		.ascii	"s25\000"
 1720 053f 0C       		.byte	0xc
 1721 0540 FF       		.byte	0xff
 1722 0541 93040000 		.4byte	0x493
 1723 0545 24       		.byte	0x24
 1724 0546 08       		.uleb128 0x8
 1725 0547 73323600 		.ascii	"s26\000"
 1726 054b 0C       		.byte	0xc
 1727 054c 0001     		.2byte	0x100
 1728 054e 93040000 		.4byte	0x493
 1729 0552 28       		.byte	0x28
 1730 0553 08       		.uleb128 0x8
 1731 0554 73323700 		.ascii	"s27\000"
 1732 0558 0C       		.byte	0xc
 1733 0559 0101     		.2byte	0x101
 1734 055b 93040000 		.4byte	0x493
 1735 055f 2C       		.byte	0x2c
 1736 0560 08       		.uleb128 0x8
 1737 0561 73323800 		.ascii	"s28\000"
 1738 0565 0C       		.byte	0xc
 1739 0566 0201     		.2byte	0x102
 1740 0568 93040000 		.4byte	0x493
 1741 056c 30       		.byte	0x30
 1742 056d 08       		.uleb128 0x8
 1743 056e 73323900 		.ascii	"s29\000"
 1744 0572 0C       		.byte	0xc
 1745 0573 0301     		.2byte	0x103
 1746 0575 93040000 		.4byte	0x493
 1747 0579 34       		.byte	0x34
 1748 057a 08       		.uleb128 0x8
 1749 057b 73333000 		.ascii	"s30\000"
 1750 057f 0C       		.byte	0xc
 1751 0580 0401     		.2byte	0x104
 1752 0582 93040000 		.4byte	0x493
 1753 0586 38       		.byte	0x38
 1754 0587 08       		.uleb128 0x8
 1755 0588 73333100 		.ascii	"s31\000"
 1756 058c 0C       		.byte	0xc
 1757 058d 0501     		.2byte	0x105
 1758 058f 93040000 		.4byte	0x493
 1759 0593 3C       		.byte	0x3c
 1760 0594 08       		.uleb128 0x8
ARM GAS  C:\Users\IDONNO~1\AppData\Local\Temp\ccrHXc7a.s 			page 32


 1761 0595 723400   		.ascii	"r4\000"
 1762 0598 0C       		.byte	0xc
 1763 0599 0701     		.2byte	0x107
 1764 059b 93040000 		.4byte	0x493
 1765 059f 40       		.byte	0x40
 1766 05a0 08       		.uleb128 0x8
 1767 05a1 723500   		.ascii	"r5\000"
 1768 05a4 0C       		.byte	0xc
 1769 05a5 0801     		.2byte	0x108
 1770 05a7 93040000 		.4byte	0x493
 1771 05ab 44       		.byte	0x44
 1772 05ac 08       		.uleb128 0x8
 1773 05ad 723600   		.ascii	"r6\000"
 1774 05b0 0C       		.byte	0xc
 1775 05b1 0901     		.2byte	0x109
 1776 05b3 93040000 		.4byte	0x493
 1777 05b7 48       		.byte	0x48
 1778 05b8 08       		.uleb128 0x8
 1779 05b9 723700   		.ascii	"r7\000"
 1780 05bc 0C       		.byte	0xc
 1781 05bd 0A01     		.2byte	0x10a
 1782 05bf 93040000 		.4byte	0x493
 1783 05c3 4C       		.byte	0x4c
 1784 05c4 08       		.uleb128 0x8
 1785 05c5 723800   		.ascii	"r8\000"
 1786 05c8 0C       		.byte	0xc
 1787 05c9 0B01     		.2byte	0x10b
 1788 05cb 93040000 		.4byte	0x493
 1789 05cf 50       		.byte	0x50
 1790 05d0 08       		.uleb128 0x8
 1791 05d1 723900   		.ascii	"r9\000"
 1792 05d4 0C       		.byte	0xc
 1793 05d5 0C01     		.2byte	0x10c
 1794 05d7 93040000 		.4byte	0x493
 1795 05db 54       		.byte	0x54
 1796 05dc 08       		.uleb128 0x8
 1797 05dd 72313000 		.ascii	"r10\000"
 1798 05e1 0C       		.byte	0xc
 1799 05e2 0D01     		.2byte	0x10d
 1800 05e4 93040000 		.4byte	0x493
 1801 05e8 58       		.byte	0x58
 1802 05e9 08       		.uleb128 0x8
 1803 05ea 72313100 		.ascii	"r11\000"
 1804 05ee 0C       		.byte	0xc
 1805 05ef 0E01     		.2byte	0x10e
 1806 05f1 93040000 		.4byte	0x493
 1807 05f5 5C       		.byte	0x5c
 1808 05f6 08       		.uleb128 0x8
 1809 05f7 6C7200   		.ascii	"lr\000"
 1810 05fa 0C       		.byte	0xc
 1811 05fb 0F01     		.2byte	0x10f
 1812 05fd 93040000 		.4byte	0x493
 1813 0601 60       		.byte	0x60
 1814 0602 00       		.byte	0
 1815 0603 0A       		.uleb128 0xa
 1816 0604 04       		.byte	0x4
 1817 0605 C2040000 		.4byte	0x4c2
ARM GAS  C:\Users\IDONNO~1\AppData\Local\Temp\ccrHXc7a.s 			page 33


 1818 0609 11       		.uleb128 0x11
 1819 060a 04       		.byte	0x4
 1820 060b 0D       		.byte	0xd
 1821 060c 38       		.byte	0x38
 1822 060d 1E060000 		.4byte	0x61e
 1823 0611 07       		.uleb128 0x7
 1824 0612 87060000 		.4byte	.LASF90
 1825 0616 0D       		.byte	0xd
 1826 0617 3C       		.byte	0x3c
 1827 0618 F0000000 		.4byte	0xf0
 1828 061c 00       		.byte	0
 1829 061d 00       		.byte	0
 1830 061e 03       		.uleb128 0x3
 1831 061f 12040000 		.4byte	.LASF91
 1832 0623 0D       		.byte	0xd
 1833 0624 3D       		.byte	0x3d
 1834 0625 09060000 		.4byte	0x609
 1835 0629 12       		.uleb128 0x12
 1836 062a 04       		.byte	0x4
 1837 062b 0A       		.byte	0xa
 1838 062c FA       		.byte	0xfa
 1839 062d 86060000 		.4byte	0x686
 1840 0631 13       		.uleb128 0x13
 1841 0632 1A000000 		.4byte	.LASF92
 1842 0636 0A       		.byte	0xa
 1843 0637 0101     		.2byte	0x101
 1844 0639 32010000 		.4byte	0x132
 1845 063d 13       		.uleb128 0x13
 1846 063e CA010000 		.4byte	.LASF93
 1847 0642 0A       		.byte	0xa
 1848 0643 0801     		.2byte	0x108
 1849 0645 32010000 		.4byte	0x132
 1850 0649 13       		.uleb128 0x13
 1851 064a 49010000 		.4byte	.LASF94
 1852 064e 0A       		.byte	0xa
 1853 064f 0F01     		.2byte	0x10f
 1854 0651 56030000 		.4byte	0x356
 1855 0655 13       		.uleb128 0x13
 1856 0656 03040000 		.4byte	.LASF95
 1857 065a 0A       		.byte	0xa
 1858 065b 1601     		.2byte	0x116
 1859 065d 86060000 		.4byte	0x686
 1860 0661 13       		.uleb128 0x13
 1861 0662 55020000 		.4byte	.LASF96
 1862 0666 0A       		.byte	0xa
 1863 0667 1E01     		.2byte	0x11e
 1864 0669 B1060000 		.4byte	0x6b1
 1865 066d 13       		.uleb128 0x13
 1866 066e DD050000 		.4byte	.LASF97
 1867 0672 0A       		.byte	0xa
 1868 0673 2701     		.2byte	0x127
 1869 0675 E8060000 		.4byte	0x6e8
 1870 0679 13       		.uleb128 0x13
 1871 067a 57050000 		.4byte	.LASF98
 1872 067e 0A       		.byte	0xa
 1873 067f 2F01     		.2byte	0x12f
 1874 0681 3D010000 		.4byte	0x13d
ARM GAS  C:\Users\IDONNO~1\AppData\Local\Temp\ccrHXc7a.s 			page 34


 1875 0685 00       		.byte	0
 1876 0686 0A       		.uleb128 0xa
 1877 0687 04       		.byte	0x4
 1878 0688 6E020000 		.4byte	0x26e
 1879 068c 06       		.uleb128 0x6
 1880 068d AF050000 		.4byte	.LASF99
 1881 0691 0C       		.byte	0xc
 1882 0692 0E       		.byte	0xe
 1883 0693 34       		.byte	0x34
 1884 0694 B1060000 		.4byte	0x6b1
 1885 0698 07       		.uleb128 0x7
 1886 0699 C2010000 		.4byte	.LASF100
 1887 069d 0E       		.byte	0xe
 1888 069e 35       		.byte	0x35
 1889 069f A3020000 		.4byte	0x2a3
 1890 06a3 00       		.byte	0
 1891 06a4 07       		.uleb128 0x7
 1892 06a5 7F020000 		.4byte	.LASF101
 1893 06a9 0E       		.byte	0xe
 1894 06aa 37       		.byte	0x37
 1895 06ab 48010000 		.4byte	0x148
 1896 06af 08       		.byte	0x8
 1897 06b0 00       		.byte	0
 1898 06b1 0A       		.uleb128 0xa
 1899 06b2 04       		.byte	0x4
 1900 06b3 8C060000 		.4byte	0x68c
 1901 06b7 06       		.uleb128 0x6
 1902 06b8 40080000 		.4byte	.LASF102
 1903 06bc 10       		.byte	0x10
 1904 06bd 0F       		.byte	0xf
 1905 06be 39       		.byte	0x39
 1906 06bf E8060000 		.4byte	0x6e8
 1907 06c3 07       		.uleb128 0x7
 1908 06c4 25010000 		.4byte	.LASF103
 1909 06c8 0F       		.byte	0xf
 1910 06c9 3A       		.byte	0x3a
 1911 06ca A3020000 		.4byte	0x2a3
 1912 06ce 00       		.byte	0
 1913 06cf 07       		.uleb128 0x7
 1914 06d0 E3080000 		.4byte	.LASF104
 1915 06d4 0F       		.byte	0xf
 1916 06d5 3C       		.byte	0x3c
 1917 06d6 79020000 		.4byte	0x279
 1918 06da 08       		.byte	0x8
 1919 06db 07       		.uleb128 0x7
 1920 06dc 3F060000 		.4byte	.LASF105
 1921 06e0 0F       		.byte	0xf
 1922 06e1 3E       		.byte	0x3e
 1923 06e2 2B070000 		.4byte	0x72b
 1924 06e6 0C       		.byte	0xc
 1925 06e7 00       		.byte	0
 1926 06e8 0A       		.uleb128 0xa
 1927 06e9 04       		.byte	0x4
 1928 06ea B7060000 		.4byte	0x6b7
 1929 06ee 0A       		.uleb128 0xa
 1930 06ef 04       		.byte	0x4
 1931 06f0 FB060000 		.4byte	0x6fb
ARM GAS  C:\Users\IDONNO~1\AppData\Local\Temp\ccrHXc7a.s 			page 35


 1932 06f4 02       		.uleb128 0x2
 1933 06f5 01       		.byte	0x1
 1934 06f6 08       		.byte	0x8
 1935 06f7 26060000 		.4byte	.LASF106
 1936 06fb 14       		.uleb128 0x14
 1937 06fc F4060000 		.4byte	0x6f4
 1938 0700 05       		.uleb128 0x5
 1939 0701 53010000 		.4byte	0x153
 1940 0705 0A       		.uleb128 0xa
 1941 0706 04       		.byte	0x4
 1942 0707 58030000 		.4byte	0x358
 1943 070b 05       		.uleb128 0x5
 1944 070c EE060000 		.4byte	0x6ee
 1945 0710 15       		.uleb128 0x15
 1946 0711 9E040000 		.4byte	0x49e
 1947 0715 20070000 		.4byte	0x720
 1948 0719 16       		.uleb128 0x16
 1949 071a 8C040000 		.4byte	0x48c
 1950 071e 3A       		.byte	0x3a
 1951 071f 00       		.byte	0
 1952 0720 03       		.uleb128 0x3
 1953 0721 EC010000 		.4byte	.LASF107
 1954 0725 0F       		.byte	0xf
 1955 0726 34       		.byte	0x34
 1956 0727 B7060000 		.4byte	0x6b7
 1957 072b 0A       		.uleb128 0xa
 1958 072c 04       		.byte	0x4
 1959 072d 20070000 		.4byte	0x720
 1960 0731 17       		.uleb128 0x17
 1961 0732 01       		.byte	0x1
 1962 0733 45000000 		.4byte	0x45
 1963 0737 10       		.byte	0x10
 1964 0738 22       		.byte	0x22
 1965 0739 6E070000 		.4byte	0x76e
 1966 073d 18       		.uleb128 0x18
 1967 073e 77000000 		.4byte	.LASF108
 1968 0742 00       		.byte	0
 1969 0743 18       		.uleb128 0x18
 1970 0744 CD040000 		.4byte	.LASF109
 1971 0748 01       		.byte	0x1
 1972 0749 18       		.uleb128 0x18
 1973 074a 76050000 		.4byte	.LASF110
 1974 074e 02       		.byte	0x2
 1975 074f 18       		.uleb128 0x18
 1976 0750 AB040000 		.4byte	.LASF111
 1977 0754 03       		.byte	0x3
 1978 0755 18       		.uleb128 0x18
 1979 0756 AD080000 		.4byte	.LASF112
 1980 075a 04       		.byte	0x4
 1981 075b 18       		.uleb128 0x18
 1982 075c E4040000 		.4byte	.LASF113
 1983 0760 05       		.byte	0x5
 1984 0761 18       		.uleb128 0x18
 1985 0762 8F010000 		.4byte	.LASF114
 1986 0766 06       		.byte	0x6
 1987 0767 18       		.uleb128 0x18
 1988 0768 C7050000 		.4byte	.LASF115
ARM GAS  C:\Users\IDONNO~1\AppData\Local\Temp\ccrHXc7a.s 			page 36


 1989 076c 07       		.byte	0x7
 1990 076d 00       		.byte	0
 1991 076e 03       		.uleb128 0x3
 1992 076f 21000000 		.4byte	.LASF116
 1993 0773 10       		.byte	0x10
 1994 0774 2B       		.byte	0x2b
 1995 0775 31070000 		.4byte	0x731
 1996 0779 02       		.uleb128 0x2
 1997 077a 01       		.byte	0x1
 1998 077b 02       		.byte	0x2
 1999 077c 0C050000 		.4byte	.LASF117
 2000 0780 17       		.uleb128 0x17
 2001 0781 01       		.byte	0x1
 2002 0782 45000000 		.4byte	0x45
 2003 0786 11       		.byte	0x11
 2004 0787 40       		.byte	0x40
 2005 0788 B7070000 		.4byte	0x7b7
 2006 078c 18       		.uleb128 0x18
 2007 078d 3B040000 		.4byte	.LASF118
 2008 0791 00       		.byte	0
 2009 0792 18       		.uleb128 0x18
 2010 0793 38000000 		.4byte	.LASF119
 2011 0797 01       		.byte	0x1
 2012 0798 18       		.uleb128 0x18
 2013 0799 D9000000 		.4byte	.LASF120
 2014 079d 02       		.byte	0x2
 2015 079e 18       		.uleb128 0x18
 2016 079f 0E080000 		.4byte	.LASF121
 2017 07a3 03       		.byte	0x3
 2018 07a4 18       		.uleb128 0x18
 2019 07a5 69010000 		.4byte	.LASF122
 2020 07a9 04       		.byte	0x4
 2021 07aa 18       		.uleb128 0x18
 2022 07ab 92020000 		.4byte	.LASF123
 2023 07af 05       		.byte	0x5
 2024 07b0 18       		.uleb128 0x18
 2025 07b1 77040000 		.4byte	.LASF124
 2026 07b5 06       		.byte	0x6
 2027 07b6 00       		.byte	0
 2028 07b7 03       		.uleb128 0x3
 2029 07b8 32080000 		.4byte	.LASF125
 2030 07bc 11       		.byte	0x11
 2031 07bd 48       		.byte	0x48
 2032 07be 80070000 		.4byte	0x780
 2033 07c2 19       		.uleb128 0x19
 2034 07c3 6F060000 		.4byte	.LASF128
 2035 07c7 03       		.byte	0x3
 2036 07c8 2002     		.2byte	0x220
 2037 07ca 03       		.byte	0x3
 2038 07cb DC070000 		.4byte	0x7dc
 2039 07cf 1A       		.uleb128 0x1a
 2040 07d0 F4010000 		.4byte	.LASF132
 2041 07d4 03       		.byte	0x3
 2042 07d5 2002     		.2byte	0x220
 2043 07d7 CA000000 		.4byte	0xca
 2044 07db 00       		.byte	0
 2045 07dc 1B       		.uleb128 0x1b
ARM GAS  C:\Users\IDONNO~1\AppData\Local\Temp\ccrHXc7a.s 			page 37


 2046 07dd 6D000000 		.4byte	.LASF126
 2047 07e1 0C       		.byte	0xc
 2048 07e2 BC01     		.2byte	0x1bc
 2049 07e4 03       		.byte	0x3
 2050 07e5 1B       		.uleb128 0x1b
 2051 07e6 33010000 		.4byte	.LASF127
 2052 07ea 0C       		.byte	0xc
 2053 07eb CA01     		.2byte	0x1ca
 2054 07ed 03       		.byte	0x3
 2055 07ee 19       		.uleb128 0x19
 2056 07ef 76080000 		.4byte	.LASF129
 2057 07f3 12       		.byte	0x12
 2058 07f4 6601     		.2byte	0x166
 2059 07f6 03       		.byte	0x3
 2060 07f7 09080000 		.4byte	0x809
 2061 07fb 1C       		.uleb128 0x1c
 2062 07fc 6D050000 		.4byte	.LASF136
 2063 0800 19080000 		.4byte	0x819
 2064 0804 76080000 		.4byte	.LASF129
 2065 0808 00       		.byte	0
 2066 0809 15       		.uleb128 0x15
 2067 080a FB060000 		.4byte	0x6fb
 2068 080e 19080000 		.4byte	0x819
 2069 0812 16       		.uleb128 0x16
 2070 0813 8C040000 		.4byte	0x48c
 2071 0817 0B       		.byte	0xb
 2072 0818 00       		.byte	0
 2073 0819 14       		.uleb128 0x14
 2074 081a 09080000 		.4byte	0x809
 2075 081e 1D       		.uleb128 0x1d
 2076 081f 26020000 		.4byte	.LASF167
 2077 0823 04       		.byte	0x4
 2078 0824 E4       		.byte	0xe4
 2079 0825 53010000 		.4byte	0x153
 2080 0829 03       		.byte	0x3
 2081 082a 1B       		.uleb128 0x1b
 2082 082b 84050000 		.4byte	.LASF130
 2083 082f 12       		.byte	0x12
 2084 0830 5A01     		.2byte	0x15a
 2085 0832 03       		.byte	0x3
 2086 0833 1E       		.uleb128 0x1e
 2087 0834 C0080000 		.4byte	.LASF131
 2088 0838 02       		.byte	0x2
 2089 0839 84       		.byte	0x84
 2090 083a 03       		.byte	0x3
 2091 083b 4B080000 		.4byte	0x84b
 2092 083f 1F       		.uleb128 0x1f
 2093 0840 85020000 		.4byte	.LASF133
 2094 0844 02       		.byte	0x2
 2095 0845 84       		.byte	0x84
 2096 0846 EE060000 		.4byte	0x6ee
 2097 084a 00       		.byte	0
 2098 084b 20       		.uleb128 0x20
 2099 084c A9060000 		.4byte	.LASF137
 2100 0850 01       		.byte	0x1
 2101 0851 C2       		.byte	0xc2
 2102 0852 CA000000 		.4byte	0xca
ARM GAS  C:\Users\IDONNO~1\AppData\Local\Temp\ccrHXc7a.s 			page 38


 2103 0856 01       		.byte	0x1
 2104 0857 8D080000 		.4byte	0x88d
 2105 085b 1F       		.uleb128 0x1f
 2106 085c 8C030000 		.4byte	.LASF134
 2107 0860 01       		.byte	0x1
 2108 0861 C2       		.byte	0xc2
 2109 0862 CA000000 		.4byte	0xca
 2110 0866 1F       		.uleb128 0x1f
 2111 0867 00000000 		.4byte	.LASF135
 2112 086b 01       		.byte	0x1
 2113 086c C2       		.byte	0xc2
 2114 086d 25000000 		.4byte	0x25
 2115 0871 21       		.uleb128 0x21
 2116 0872 7200     		.ascii	"r\000"
 2117 0874 01       		.byte	0x1
 2118 0875 C3       		.byte	0xc3
 2119 0876 CA000000 		.4byte	0xca
 2120 087a 21       		.uleb128 0x21
 2121 087b 6700     		.ascii	"g\000"
 2122 087d 01       		.byte	0x1
 2123 087e C4       		.byte	0xc4
 2124 087f CA000000 		.4byte	0xca
 2125 0883 21       		.uleb128 0x21
 2126 0884 6200     		.ascii	"b\000"
 2127 0886 01       		.byte	0x1
 2128 0887 C5       		.byte	0xc5
 2129 0888 CA000000 		.4byte	0xca
 2130 088c 00       		.byte	0
 2131 088d 20       		.uleb128 0x20
 2132 088e 53040000 		.4byte	.LASF138
 2133 0892 04       		.byte	0x4
 2134 0893 F7       		.byte	0xf7
 2135 0894 53010000 		.4byte	0x153
 2136 0898 03       		.byte	0x3
 2137 0899 A9080000 		.4byte	0x8a9
 2138 089d 22       		.uleb128 0x22
 2139 089e 60030000 		.4byte	.LASF139
 2140 08a2 04       		.byte	0x4
 2141 08a3 F8       		.byte	0xf8
 2142 08a4 53010000 		.4byte	0x153
 2143 08a8 00       		.byte	0
 2144 08a9 23       		.uleb128 0x23
 2145 08aa 42030000 		.4byte	.LASF141
 2146 08ae 01       		.byte	0x1
 2147 08af CE       		.byte	0xce
 2148 08b0 00000000 		.4byte	.LFB261
 2149 08b4 44000000 		.4byte	.LFE261-.LFB261
 2150 08b8 01       		.uleb128 0x1
 2151 08b9 9C       		.byte	0x9c
 2152 08ba 10090000 		.4byte	0x910
 2153 08be 24       		.uleb128 0x24
 2154 08bf 737400   		.ascii	"st\000"
 2155 08c2 01       		.byte	0x1
 2156 08c3 CF       		.byte	0xcf
 2157 08c4 6E070000 		.4byte	0x76e
 2158 08c8 00000000 		.4byte	.LLST0
 2159 08cc 25       		.uleb128 0x25
ARM GAS  C:\Users\IDONNO~1\AppData\Local\Temp\ccrHXc7a.s 			page 39


 2160 08cd FA030000 		.4byte	.LASF140
 2161 08d1 01       		.byte	0x1
 2162 08d2 D0       		.byte	0xd0
 2163 08d3 79070000 		.4byte	0x779
 2164 08d7 13000000 		.4byte	.LLST1
 2165 08db 26       		.uleb128 0x26
 2166 08dc 00000000 		.4byte	.Ldebug_ranges0+0
 2167 08e0 27       		.uleb128 0x27
 2168 08e1 50080000 		.4byte	.LASF145
 2169 08e5 01       		.byte	0x1
 2170 08e6 44       		.byte	0x44
 2171 08e7 A2000000 		.4byte	0xa2
 2172 08eb F1080000 		.4byte	0x8f1
 2173 08ef 28       		.uleb128 0x28
 2174 08f0 00       		.byte	0
 2175 08f1 29       		.uleb128 0x29
 2176 08f2 22000000 		.4byte	.LVL1
 2177 08f6 D0110000 		.4byte	0x11d0
 2178 08fa 05090000 		.4byte	0x905
 2179 08fe 2A       		.uleb128 0x2a
 2180 08ff 01       		.uleb128 0x1
 2181 0900 50       		.byte	0x50
 2182 0901 02       		.uleb128 0x2
 2183 0902 08       		.byte	0x8
 2184 0903 64       		.byte	0x64
 2185 0904 00       		.byte	0
 2186 0905 2B       		.uleb128 0x2b
 2187 0906 32000000 		.4byte	.LVL2
 2188 090a DB110000 		.4byte	0x11db
 2189 090e 00       		.byte	0
 2190 090f 00       		.byte	0
 2191 0910 23       		.uleb128 0x23
 2192 0911 D3080000 		.4byte	.LASF142
 2193 0915 01       		.byte	0x1
 2194 0916 D6       		.byte	0xd6
 2195 0917 00000000 		.4byte	.LFB262
 2196 091b 20000000 		.4byte	.LFE262-.LFB262
 2197 091f 01       		.uleb128 0x1
 2198 0920 9C       		.byte	0x9c
 2199 0921 82090000 		.4byte	0x982
 2200 0925 2C       		.uleb128 0x2c
 2201 0926 6C656400 		.ascii	"led\000"
 2202 092a 01       		.byte	0x1
 2203 092b D6       		.byte	0xd6
 2204 092c A2000000 		.4byte	0xa2
 2205 0930 31000000 		.4byte	.LLST2
 2206 0934 2D       		.uleb128 0x2d
 2207 0935 8C030000 		.4byte	.LASF134
 2208 0939 01       		.byte	0x1
 2209 093a D6       		.byte	0xd6
 2210 093b CA000000 		.4byte	0xca
 2211 093f 9E000000 		.4byte	.LLST3
 2212 0943 2E       		.uleb128 0x2e
 2213 0944 10000000 		.4byte	.LVL8
 2214 0948 E6110000 		.4byte	0x11e6
 2215 094c 61090000 		.4byte	0x961
 2216 0950 2A       		.uleb128 0x2a
ARM GAS  C:\Users\IDONNO~1\AppData\Local\Temp\ccrHXc7a.s 			page 40


 2217 0951 01       		.uleb128 0x1
 2218 0952 50       		.byte	0x50
 2219 0953 05       		.uleb128 0x5
 2220 0954 F3       		.byte	0xf3
 2221 0955 01       		.uleb128 0x1
 2222 0956 50       		.byte	0x50
 2223 0957 23       		.byte	0x23
 2224 0958 0E       		.uleb128 0xe
 2225 0959 2A       		.uleb128 0x2a
 2226 095a 01       		.uleb128 0x1
 2227 095b 51       		.byte	0x51
 2228 095c 03       		.uleb128 0x3
 2229 095d F3       		.byte	0xf3
 2230 095e 01       		.uleb128 0x1
 2231 095f 51       		.byte	0x51
 2232 0960 00       		.byte	0
 2233 0961 2E       		.uleb128 0x2e
 2234 0962 16000000 		.4byte	.LVL10
 2235 0966 E6110000 		.4byte	0x11e6
 2236 096a 78090000 		.4byte	0x978
 2237 096e 2A       		.uleb128 0x2a
 2238 096f 01       		.uleb128 0x1
 2239 0970 50       		.byte	0x50
 2240 0971 05       		.uleb128 0x5
 2241 0972 F3       		.byte	0xf3
 2242 0973 01       		.uleb128 0x1
 2243 0974 50       		.byte	0x50
 2244 0975 3E       		.byte	0x3e
 2245 0976 1C       		.byte	0x1c
 2246 0977 00       		.byte	0
 2247 0978 2F       		.uleb128 0x2f
 2248 0979 1A000000 		.4byte	.LVL11
 2249 097d E6110000 		.4byte	0x11e6
 2250 0981 00       		.byte	0
 2251 0982 30       		.uleb128 0x30
 2252 0983 D9060000 		.4byte	.LASF168
 2253 0987 01       		.byte	0x1
 2254 0988 3D       		.byte	0x3d
 2255 0989 00000000 		.4byte	.LFB259
 2256 098d A6030000 		.4byte	.LFE259-.LFB259
 2257 0991 01       		.uleb128 0x1
 2258 0992 9C       		.byte	0x9c
 2259 0993 CB100000 		.4byte	0x10cb
 2260 0997 2C       		.uleb128 0x2c
 2261 0998 61726700 		.ascii	"arg\000"
 2262 099c 01       		.byte	0x1
 2263 099d 3D       		.byte	0x3d
 2264 099e 56030000 		.4byte	0x356
 2265 09a2 F1000000 		.4byte	.LLST4
 2266 09a6 25       		.uleb128 0x25
 2267 09a7 74020000 		.4byte	.LASF143
 2268 09ab 01       		.byte	0x1
 2269 09ac 41       		.byte	0x41
 2270 09ad 25000000 		.4byte	0x25
 2271 09b1 12010000 		.4byte	.LLST5
 2272 09b5 31       		.uleb128 0x31
 2273 09b6 33080000 		.4byte	0x833
ARM GAS  C:\Users\IDONNO~1\AppData\Local\Temp\ccrHXc7a.s 			page 41


 2274 09ba 04000000 		.4byte	.LBB72
 2275 09be 18000000 		.4byte	.Ldebug_ranges0+0x18
 2276 09c2 01       		.byte	0x1
 2277 09c3 3F       		.byte	0x3f
 2278 09c4 D2090000 		.4byte	0x9d2
 2279 09c8 32       		.uleb128 0x32
 2280 09c9 3F080000 		.4byte	0x83f
 2281 09cd 36010000 		.4byte	.LLST6
 2282 09d1 00       		.byte	0
 2283 09d2 26       		.uleb128 0x26
 2284 09d3 30000000 		.4byte	.Ldebug_ranges0+0x30
 2285 09d7 25       		.uleb128 0x25
 2286 09d8 2D010000 		.4byte	.LASF144
 2287 09dc 01       		.byte	0x1
 2288 09dd 44       		.byte	0x44
 2289 09de B7070000 		.4byte	0x7b7
 2290 09e2 4E010000 		.4byte	.LLST7
 2291 09e6 27       		.uleb128 0x27
 2292 09e7 50080000 		.4byte	.LASF145
 2293 09eb 01       		.byte	0x1
 2294 09ec 44       		.byte	0x44
 2295 09ed A2000000 		.4byte	0xa2
 2296 09f1 F7090000 		.4byte	0x9f7
 2297 09f5 28       		.uleb128 0x28
 2298 09f6 00       		.byte	0
 2299 09f7 33       		.uleb128 0x33
 2300 09f8 48000000 		.4byte	.Ldebug_ranges0+0x48
 2301 09fc 270F0000 		.4byte	0xf27
 2302 0a00 22       		.uleb128 0x22
 2303 0a01 CF030000 		.4byte	.LASF146
 2304 0a05 01       		.byte	0x1
 2305 0a06 58       		.byte	0x58
 2306 0a07 CA000000 		.4byte	0xca
 2307 0a0b 25       		.uleb128 0x25
 2308 0a0c A2080000 		.4byte	.LASF147
 2309 0a10 01       		.byte	0x1
 2310 0a11 59       		.byte	0x59
 2311 0a12 6E070000 		.4byte	0x76e
 2312 0a16 AE010000 		.4byte	.LLST8
 2313 0a1a 25       		.uleb128 0x25
 2314 0a1b 09040000 		.4byte	.LASF148
 2315 0a1f 01       		.byte	0x1
 2316 0a20 5A       		.byte	0x5a
 2317 0a21 79070000 		.4byte	0x779
 2318 0a25 ED010000 		.4byte	.LLST9
 2319 0a29 33       		.uleb128 0x33
 2320 0a2a 80000000 		.4byte	.Ldebug_ranges0+0x80
 2321 0a2e 100B0000 		.4byte	0xb10
 2322 0a32 24       		.uleb128 0x24
 2323 0a33 6900     		.ascii	"i\000"
 2324 0a35 01       		.byte	0x1
 2325 0a36 A3       		.byte	0xa3
 2326 0a37 A2000000 		.4byte	0xa2
 2327 0a3b 0B020000 		.4byte	.LLST10
 2328 0a3f 29       		.uleb128 0x29
 2329 0a40 44010000 		.4byte	.LVL43
 2330 0a44 10090000 		.4byte	0x910
ARM GAS  C:\Users\IDONNO~1\AppData\Local\Temp\ccrHXc7a.s 			page 42


 2331 0a48 5C0A0000 		.4byte	0xa5c
 2332 0a4c 2A       		.uleb128 0x2a
 2333 0a4d 01       		.uleb128 0x1
 2334 0a4e 50       		.byte	0x50
 2335 0a4f 02       		.uleb128 0x2
 2336 0a50 7B       		.byte	0x7b
 2337 0a51 00       		.sleb128 0
 2338 0a52 2A       		.uleb128 0x2a
 2339 0a53 01       		.uleb128 0x1
 2340 0a54 51       		.byte	0x51
 2341 0a55 05       		.uleb128 0x5
 2342 0a56 0C       		.byte	0xc
 2343 0a57 00FFFF00 		.4byte	0xffff00
 2344 0a5b 00       		.byte	0
 2345 0a5c 29       		.uleb128 0x29
 2346 0a5d 4C010000 		.4byte	.LVL44
 2347 0a61 10090000 		.4byte	0x910
 2348 0a65 790A0000 		.4byte	0xa79
 2349 0a69 2A       		.uleb128 0x2a
 2350 0a6a 01       		.uleb128 0x1
 2351 0a6b 50       		.byte	0x50
 2352 0a6c 02       		.uleb128 0x2
 2353 0a6d 74       		.byte	0x74
 2354 0a6e 00       		.sleb128 0
 2355 0a6f 2A       		.uleb128 0x2a
 2356 0a70 01       		.uleb128 0x1
 2357 0a71 51       		.byte	0x51
 2358 0a72 05       		.uleb128 0x5
 2359 0a73 0C       		.byte	0xc
 2360 0a74 00FFFF00 		.4byte	0xffff00
 2361 0a78 00       		.byte	0
 2362 0a79 29       		.uleb128 0x29
 2363 0a7a 74010000 		.4byte	.LVL47
 2364 0a7e 10090000 		.4byte	0x910
 2365 0a82 920A0000 		.4byte	0xa92
 2366 0a86 2A       		.uleb128 0x2a
 2367 0a87 01       		.uleb128 0x1
 2368 0a88 50       		.byte	0x50
 2369 0a89 02       		.uleb128 0x2
 2370 0a8a 7B       		.byte	0x7b
 2371 0a8b 00       		.sleb128 0
 2372 0a8c 2A       		.uleb128 0x2a
 2373 0a8d 01       		.uleb128 0x1
 2374 0a8e 51       		.byte	0x51
 2375 0a8f 01       		.uleb128 0x1
 2376 0a90 30       		.byte	0x30
 2377 0a91 00       		.byte	0
 2378 0a92 29       		.uleb128 0x29
 2379 0a93 80010000 		.4byte	.LVL49
 2380 0a97 10090000 		.4byte	0x910
 2381 0a9b AB0A0000 		.4byte	0xaab
 2382 0a9f 2A       		.uleb128 0x2a
 2383 0aa0 01       		.uleb128 0x1
 2384 0aa1 50       		.byte	0x50
 2385 0aa2 02       		.uleb128 0x2
 2386 0aa3 74       		.byte	0x74
 2387 0aa4 00       		.sleb128 0
ARM GAS  C:\Users\IDONNO~1\AppData\Local\Temp\ccrHXc7a.s 			page 43


 2388 0aa5 2A       		.uleb128 0x2a
 2389 0aa6 01       		.uleb128 0x1
 2390 0aa7 51       		.byte	0x51
 2391 0aa8 01       		.uleb128 0x1
 2392 0aa9 30       		.byte	0x30
 2393 0aaa 00       		.byte	0
 2394 0aab 29       		.uleb128 0x29
 2395 0aac 40030000 		.4byte	.LVL103
 2396 0ab0 10090000 		.4byte	0x910
 2397 0ab4 C60A0000 		.4byte	0xac6
 2398 0ab8 2A       		.uleb128 0x2a
 2399 0ab9 01       		.uleb128 0x1
 2400 0aba 50       		.byte	0x50
 2401 0abb 02       		.uleb128 0x2
 2402 0abc 7B       		.byte	0x7b
 2403 0abd 00       		.sleb128 0
 2404 0abe 2A       		.uleb128 0x2a
 2405 0abf 01       		.uleb128 0x1
 2406 0ac0 51       		.byte	0x51
 2407 0ac1 03       		.uleb128 0x3
 2408 0ac2 0A       		.byte	0xa
 2409 0ac3 00FF     		.2byte	0xff00
 2410 0ac5 00       		.byte	0
 2411 0ac6 29       		.uleb128 0x29
 2412 0ac7 4A030000 		.4byte	.LVL104
 2413 0acb 10090000 		.4byte	0x910
 2414 0acf E10A0000 		.4byte	0xae1
 2415 0ad3 2A       		.uleb128 0x2a
 2416 0ad4 01       		.uleb128 0x1
 2417 0ad5 50       		.byte	0x50
 2418 0ad6 02       		.uleb128 0x2
 2419 0ad7 74       		.byte	0x74
 2420 0ad8 00       		.sleb128 0
 2421 0ad9 2A       		.uleb128 0x2a
 2422 0ada 01       		.uleb128 0x1
 2423 0adb 51       		.byte	0x51
 2424 0adc 03       		.uleb128 0x3
 2425 0add 0A       		.byte	0xa
 2426 0ade 00FF     		.2byte	0xff00
 2427 0ae0 00       		.byte	0
 2428 0ae1 29       		.uleb128 0x29
 2429 0ae2 8C030000 		.4byte	.LVL106
 2430 0ae6 10090000 		.4byte	0x910
 2431 0aea F70A0000 		.4byte	0xaf7
 2432 0aee 2A       		.uleb128 0x2a
 2433 0aef 01       		.uleb128 0x1
 2434 0af0 51       		.byte	0x51
 2435 0af1 04       		.uleb128 0x4
 2436 0af2 08       		.byte	0x8
 2437 0af3 FF       		.byte	0xff
 2438 0af4 40       		.byte	0x40
 2439 0af5 24       		.byte	0x24
 2440 0af6 00       		.byte	0
 2441 0af7 34       		.uleb128 0x34
 2442 0af8 96030000 		.4byte	.LVL107
 2443 0afc 10090000 		.4byte	0x910
 2444 0b00 2A       		.uleb128 0x2a
ARM GAS  C:\Users\IDONNO~1\AppData\Local\Temp\ccrHXc7a.s 			page 44


 2445 0b01 01       		.uleb128 0x1
 2446 0b02 50       		.byte	0x50
 2447 0b03 02       		.uleb128 0x2
 2448 0b04 74       		.byte	0x74
 2449 0b05 00       		.sleb128 0
 2450 0b06 2A       		.uleb128 0x2a
 2451 0b07 01       		.uleb128 0x1
 2452 0b08 51       		.byte	0x51
 2453 0b09 04       		.uleb128 0x4
 2454 0b0a 08       		.byte	0x8
 2455 0b0b FF       		.byte	0xff
 2456 0b0c 40       		.byte	0x40
 2457 0b0d 24       		.byte	0x24
 2458 0b0e 00       		.byte	0
 2459 0b0f 00       		.byte	0
 2460 0b10 35       		.uleb128 0x35
 2461 0b11 A0010000 		.4byte	.LBB79
 2462 0b15 1C000000 		.4byte	.LBE79-.LBB79
 2463 0b19 600B0000 		.4byte	0xb60
 2464 0b1d 24       		.uleb128 0x24
 2465 0b1e 6900     		.ascii	"i\000"
 2466 0b20 01       		.byte	0x1
 2467 0b21 6B       		.byte	0x6b
 2468 0b22 A2000000 		.4byte	0xa2
 2469 0b26 84020000 		.4byte	.LLST11
 2470 0b2a 29       		.uleb128 0x29
 2471 0b2b AA010000 		.4byte	.LVL54
 2472 0b2f 10090000 		.4byte	0x910
 2473 0b33 460B0000 		.4byte	0xb46
 2474 0b37 2A       		.uleb128 0x2a
 2475 0b38 01       		.uleb128 0x1
 2476 0b39 50       		.byte	0x50
 2477 0b3a 02       		.uleb128 0x2
 2478 0b3b 74       		.byte	0x74
 2479 0b3c 00       		.sleb128 0
 2480 0b3d 2A       		.uleb128 0x2a
 2481 0b3e 01       		.uleb128 0x1
 2482 0b3f 51       		.byte	0x51
 2483 0b40 04       		.uleb128 0x4
 2484 0b41 08       		.byte	0x8
 2485 0b42 FF       		.byte	0xff
 2486 0b43 40       		.byte	0x40
 2487 0b44 24       		.byte	0x24
 2488 0b45 00       		.byte	0
 2489 0b46 34       		.uleb128 0x34
 2490 0b47 B8010000 		.4byte	.LVL56
 2491 0b4b 10090000 		.4byte	0x910
 2492 0b4f 2A       		.uleb128 0x2a
 2493 0b50 01       		.uleb128 0x1
 2494 0b51 50       		.byte	0x50
 2495 0b52 02       		.uleb128 0x2
 2496 0b53 74       		.byte	0x74
 2497 0b54 0D       		.sleb128 13
 2498 0b55 2A       		.uleb128 0x2a
 2499 0b56 01       		.uleb128 0x1
 2500 0b57 51       		.byte	0x51
 2501 0b58 05       		.uleb128 0x5
ARM GAS  C:\Users\IDONNO~1\AppData\Local\Temp\ccrHXc7a.s 			page 45


 2502 0b59 0C       		.byte	0xc
 2503 0b5a FFFFFF00 		.4byte	0xffffff
 2504 0b5e 00       		.byte	0
 2505 0b5f 00       		.byte	0
 2506 0b60 35       		.uleb128 0x35
 2507 0b61 CA010000 		.4byte	.LBB80
 2508 0b65 1C000000 		.4byte	.LBE80-.LBB80
 2509 0b69 B00B0000 		.4byte	0xbb0
 2510 0b6d 24       		.uleb128 0x24
 2511 0b6e 6900     		.ascii	"i\000"
 2512 0b70 01       		.byte	0x1
 2513 0b71 63       		.byte	0x63
 2514 0b72 A2000000 		.4byte	0xa2
 2515 0b76 AF020000 		.4byte	.LLST12
 2516 0b7a 29       		.uleb128 0x29
 2517 0b7b D4010000 		.4byte	.LVL61
 2518 0b7f 10090000 		.4byte	0x910
 2519 0b83 960B0000 		.4byte	0xb96
 2520 0b87 2A       		.uleb128 0x2a
 2521 0b88 01       		.uleb128 0x1
 2522 0b89 50       		.byte	0x50
 2523 0b8a 02       		.uleb128 0x2
 2524 0b8b 74       		.byte	0x74
 2525 0b8c 00       		.sleb128 0
 2526 0b8d 2A       		.uleb128 0x2a
 2527 0b8e 01       		.uleb128 0x1
 2528 0b8f 51       		.byte	0x51
 2529 0b90 04       		.uleb128 0x4
 2530 0b91 08       		.byte	0x8
 2531 0b92 FE       		.byte	0xfe
 2532 0b93 3F       		.byte	0x3f
 2533 0b94 24       		.byte	0x24
 2534 0b95 00       		.byte	0
 2535 0b96 34       		.uleb128 0x34
 2536 0b97 E2010000 		.4byte	.LVL63
 2537 0b9b 10090000 		.4byte	0x910
 2538 0b9f 2A       		.uleb128 0x2a
 2539 0ba0 01       		.uleb128 0x1
 2540 0ba1 50       		.byte	0x50
 2541 0ba2 02       		.uleb128 0x2
 2542 0ba3 74       		.byte	0x74
 2543 0ba4 0D       		.sleb128 13
 2544 0ba5 2A       		.uleb128 0x2a
 2545 0ba6 01       		.uleb128 0x1
 2546 0ba7 51       		.byte	0x51
 2547 0ba8 05       		.uleb128 0x5
 2548 0ba9 0C       		.byte	0xc
 2549 0baa FFFFFF00 		.4byte	0xffffff
 2550 0bae 00       		.byte	0
 2551 0baf 00       		.byte	0
 2552 0bb0 35       		.uleb128 0x35
 2553 0bb1 00020000 		.4byte	.LBB81
 2554 0bb5 26000000 		.4byte	.LBE81-.LBB81
 2555 0bb9 F80B0000 		.4byte	0xbf8
 2556 0bbd 24       		.uleb128 0x24
 2557 0bbe 6900     		.ascii	"i\000"
 2558 0bc0 01       		.byte	0x1
ARM GAS  C:\Users\IDONNO~1\AppData\Local\Temp\ccrHXc7a.s 			page 46


 2559 0bc1 8B       		.byte	0x8b
 2560 0bc2 A2000000 		.4byte	0xa2
 2561 0bc6 DA020000 		.4byte	.LLST13
 2562 0bca 29       		.uleb128 0x29
 2563 0bcb 14020000 		.4byte	.LVL72
 2564 0bcf 10090000 		.4byte	0x910
 2565 0bd3 DE0B0000 		.4byte	0xbde
 2566 0bd7 2A       		.uleb128 0x2a
 2567 0bd8 01       		.uleb128 0x1
 2568 0bd9 50       		.byte	0x50
 2569 0bda 02       		.uleb128 0x2
 2570 0bdb 76       		.byte	0x76
 2571 0bdc 00       		.sleb128 0
 2572 0bdd 00       		.byte	0
 2573 0bde 34       		.uleb128 0x34
 2574 0bdf 22020000 		.4byte	.LVL74
 2575 0be3 10090000 		.4byte	0x910
 2576 0be7 2A       		.uleb128 0x2a
 2577 0be8 01       		.uleb128 0x1
 2578 0be9 50       		.byte	0x50
 2579 0bea 02       		.uleb128 0x2
 2580 0beb 76       		.byte	0x76
 2581 0bec 0D       		.sleb128 13
 2582 0bed 2A       		.uleb128 0x2a
 2583 0bee 01       		.uleb128 0x1
 2584 0bef 51       		.byte	0x51
 2585 0bf0 05       		.uleb128 0x5
 2586 0bf1 0C       		.byte	0xc
 2587 0bf2 FFFFFF00 		.4byte	0xffffff
 2588 0bf6 00       		.byte	0
 2589 0bf7 00       		.byte	0
 2590 0bf8 31       		.uleb128 0x31
 2591 0bf9 8D080000 		.4byte	0x88d
 2592 0bfd 36020000 		.4byte	.LBB82
 2593 0c01 A0000000 		.4byte	.Ldebug_ranges0+0xa0
 2594 0c05 01       		.byte	0x1
 2595 0c06 95       		.byte	0x95
 2596 0c07 AF0C0000 		.4byte	0xcaf
 2597 0c0b 26       		.uleb128 0x26
 2598 0c0c A0000000 		.4byte	.Ldebug_ranges0+0xa0
 2599 0c10 36       		.uleb128 0x36
 2600 0c11 9D080000 		.4byte	0x89d
 2601 0c15 31       		.uleb128 0x31
 2602 0c16 2A080000 		.4byte	0x82a
 2603 0c1a 36020000 		.4byte	.LBB84
 2604 0c1e B8000000 		.4byte	.Ldebug_ranges0+0xb8
 2605 0c22 04       		.byte	0x4
 2606 0c23 FA       		.byte	0xfa
 2607 0c24 540C0000 		.4byte	0xc54
 2608 0c28 37       		.uleb128 0x37
 2609 0c29 DC070000 		.4byte	0x7dc
 2610 0c2d 36020000 		.4byte	.LBB85
 2611 0c31 B8000000 		.4byte	.Ldebug_ranges0+0xb8
 2612 0c35 12       		.byte	0x12
 2613 0c36 5C01     		.2byte	0x15c
 2614 0c38 37       		.uleb128 0x37
 2615 0c39 C2070000 		.4byte	0x7c2
ARM GAS  C:\Users\IDONNO~1\AppData\Local\Temp\ccrHXc7a.s 			page 47


 2616 0c3d 36020000 		.4byte	.LBB86
 2617 0c41 B8000000 		.4byte	.Ldebug_ranges0+0xb8
 2618 0c45 0C       		.byte	0xc
 2619 0c46 BF01     		.2byte	0x1bf
 2620 0c48 32       		.uleb128 0x32
 2621 0c49 CF070000 		.4byte	0x7cf
 2622 0c4d 05030000 		.4byte	.LLST14
 2623 0c51 00       		.byte	0
 2624 0c52 00       		.byte	0
 2625 0c53 00       		.byte	0
 2626 0c54 38       		.uleb128 0x38
 2627 0c55 1E080000 		.4byte	0x81e
 2628 0c59 72020000 		.4byte	.LBB92
 2629 0c5d 04000000 		.4byte	.LBE92-.LBB92
 2630 0c61 04       		.byte	0x4
 2631 0c62 FB       		.byte	0xfb
 2632 0c63 39       		.uleb128 0x39
 2633 0c64 EE070000 		.4byte	0x7ee
 2634 0c68 76020000 		.4byte	.LBB94
 2635 0c6c 04000000 		.4byte	.LBE94-.LBB94
 2636 0c70 04       		.byte	0x4
 2637 0c71 FC       		.byte	0xfc
 2638 0c72 3A       		.uleb128 0x3a
 2639 0c73 76020000 		.4byte	.LBB95
 2640 0c77 04000000 		.4byte	.LBE95-.LBB95
 2641 0c7b 36       		.uleb128 0x36
 2642 0c7c FB070000 		.4byte	0x7fb
 2643 0c80 3B       		.uleb128 0x3b
 2644 0c81 E5070000 		.4byte	0x7e5
 2645 0c85 76020000 		.4byte	.LBB96
 2646 0c89 04000000 		.4byte	.LBE96-.LBB96
 2647 0c8d 12       		.byte	0x12
 2648 0c8e 7301     		.2byte	0x173
 2649 0c90 3B       		.uleb128 0x3b
 2650 0c91 C2070000 		.4byte	0x7c2
 2651 0c95 76020000 		.4byte	.LBB97
 2652 0c99 04000000 		.4byte	.LBE97-.LBB97
 2653 0c9d 0C       		.byte	0xc
 2654 0c9e CD01     		.2byte	0x1cd
 2655 0ca0 32       		.uleb128 0x32
 2656 0ca1 CF070000 		.4byte	0x7cf
 2657 0ca5 1A030000 		.4byte	.LLST15
 2658 0ca9 00       		.byte	0
 2659 0caa 00       		.byte	0
 2660 0cab 00       		.byte	0
 2661 0cac 00       		.byte	0
 2662 0cad 00       		.byte	0
 2663 0cae 00       		.byte	0
 2664 0caf 35       		.uleb128 0x35
 2665 0cb0 9C020000 		.4byte	.LBB101
 2666 0cb4 26000000 		.4byte	.LBE101-.LBB101
 2667 0cb8 F70C0000 		.4byte	0xcf7
 2668 0cbc 24       		.uleb128 0x24
 2669 0cbd 6900     		.ascii	"i\000"
 2670 0cbf 01       		.byte	0x1
 2671 0cc0 74       		.byte	0x74
 2672 0cc1 A2000000 		.4byte	0xa2
ARM GAS  C:\Users\IDONNO~1\AppData\Local\Temp\ccrHXc7a.s 			page 48


 2673 0cc5 2E030000 		.4byte	.LLST16
 2674 0cc9 29       		.uleb128 0x29
 2675 0cca B0020000 		.4byte	.LVL88
 2676 0cce 10090000 		.4byte	0x910
 2677 0cd2 DD0C0000 		.4byte	0xcdd
 2678 0cd6 2A       		.uleb128 0x2a
 2679 0cd7 01       		.uleb128 0x1
 2680 0cd8 50       		.byte	0x50
 2681 0cd9 02       		.uleb128 0x2
 2682 0cda 76       		.byte	0x76
 2683 0cdb 00       		.sleb128 0
 2684 0cdc 00       		.byte	0
 2685 0cdd 34       		.uleb128 0x34
 2686 0cde BE020000 		.4byte	.LVL90
 2687 0ce2 10090000 		.4byte	0x910
 2688 0ce6 2A       		.uleb128 0x2a
 2689 0ce7 01       		.uleb128 0x1
 2690 0ce8 50       		.byte	0x50
 2691 0ce9 02       		.uleb128 0x2
 2692 0cea 76       		.byte	0x76
 2693 0ceb 0D       		.sleb128 13
 2694 0cec 2A       		.uleb128 0x2a
 2695 0ced 01       		.uleb128 0x1
 2696 0cee 51       		.byte	0x51
 2697 0cef 05       		.uleb128 0x5
 2698 0cf0 0C       		.byte	0xc
 2699 0cf1 FFFFFF00 		.4byte	0xffffff
 2700 0cf5 00       		.byte	0
 2701 0cf6 00       		.byte	0
 2702 0cf7 31       		.uleb128 0x31
 2703 0cf8 8D080000 		.4byte	0x88d
 2704 0cfc D0020000 		.4byte	.LBB102
 2705 0d00 D0000000 		.4byte	.Ldebug_ranges0+0xd0
 2706 0d04 01       		.byte	0x1
 2707 0d05 7E       		.byte	0x7e
 2708 0d06 AE0D0000 		.4byte	0xdae
 2709 0d0a 26       		.uleb128 0x26
 2710 0d0b D0000000 		.4byte	.Ldebug_ranges0+0xd0
 2711 0d0f 36       		.uleb128 0x36
 2712 0d10 9D080000 		.4byte	0x89d
 2713 0d14 31       		.uleb128 0x31
 2714 0d15 2A080000 		.4byte	0x82a
 2715 0d19 D0020000 		.4byte	.LBB104
 2716 0d1d E8000000 		.4byte	.Ldebug_ranges0+0xe8
 2717 0d21 04       		.byte	0x4
 2718 0d22 FA       		.byte	0xfa
 2719 0d23 530D0000 		.4byte	0xd53
 2720 0d27 37       		.uleb128 0x37
 2721 0d28 DC070000 		.4byte	0x7dc
 2722 0d2c D0020000 		.4byte	.LBB105
 2723 0d30 E8000000 		.4byte	.Ldebug_ranges0+0xe8
 2724 0d34 12       		.byte	0x12
 2725 0d35 5C01     		.2byte	0x15c
 2726 0d37 37       		.uleb128 0x37
 2727 0d38 C2070000 		.4byte	0x7c2
 2728 0d3c D0020000 		.4byte	.LBB106
 2729 0d40 E8000000 		.4byte	.Ldebug_ranges0+0xe8
ARM GAS  C:\Users\IDONNO~1\AppData\Local\Temp\ccrHXc7a.s 			page 49


 2730 0d44 0C       		.byte	0xc
 2731 0d45 BF01     		.2byte	0x1bf
 2732 0d47 32       		.uleb128 0x32
 2733 0d48 CF070000 		.4byte	0x7cf
 2734 0d4c 59030000 		.4byte	.LLST17
 2735 0d50 00       		.byte	0
 2736 0d51 00       		.byte	0
 2737 0d52 00       		.byte	0
 2738 0d53 38       		.uleb128 0x38
 2739 0d54 1E080000 		.4byte	0x81e
 2740 0d58 0A030000 		.4byte	.LBB112
 2741 0d5c 04000000 		.4byte	.LBE112-.LBB112
 2742 0d60 04       		.byte	0x4
 2743 0d61 FB       		.byte	0xfb
 2744 0d62 39       		.uleb128 0x39
 2745 0d63 EE070000 		.4byte	0x7ee
 2746 0d67 0E030000 		.4byte	.LBB114
 2747 0d6b 04000000 		.4byte	.LBE114-.LBB114
 2748 0d6f 04       		.byte	0x4
 2749 0d70 FC       		.byte	0xfc
 2750 0d71 3A       		.uleb128 0x3a
 2751 0d72 0E030000 		.4byte	.LBB115
 2752 0d76 04000000 		.4byte	.LBE115-.LBB115
 2753 0d7a 36       		.uleb128 0x36
 2754 0d7b FB070000 		.4byte	0x7fb
 2755 0d7f 3B       		.uleb128 0x3b
 2756 0d80 E5070000 		.4byte	0x7e5
 2757 0d84 0E030000 		.4byte	.LBB116
 2758 0d88 04000000 		.4byte	.LBE116-.LBB116
 2759 0d8c 12       		.byte	0x12
 2760 0d8d 7301     		.2byte	0x173
 2761 0d8f 3B       		.uleb128 0x3b
 2762 0d90 C2070000 		.4byte	0x7c2
 2763 0d94 0E030000 		.4byte	.LBB117
 2764 0d98 04000000 		.4byte	.LBE117-.LBB117
 2765 0d9c 0C       		.byte	0xc
 2766 0d9d CD01     		.2byte	0x1cd
 2767 0d9f 32       		.uleb128 0x32
 2768 0da0 CF070000 		.4byte	0x7cf
 2769 0da4 6E030000 		.4byte	.LLST18
 2770 0da8 00       		.byte	0
 2771 0da9 00       		.byte	0
 2772 0daa 00       		.byte	0
 2773 0dab 00       		.byte	0
 2774 0dac 00       		.byte	0
 2775 0dad 00       		.byte	0
 2776 0dae 2B       		.uleb128 0x2b
 2777 0daf F0000000 		.4byte	.LVL39
 2778 0db3 DB110000 		.4byte	0x11db
 2779 0db7 29       		.uleb128 0x29
 2780 0db8 1E010000 		.4byte	.LVL40
 2781 0dbc F1110000 		.4byte	0x11f1
 2782 0dc0 F10D0000 		.4byte	0xdf1
 2783 0dc4 2A       		.uleb128 0x2a
 2784 0dc5 02       		.uleb128 0x2
 2785 0dc6 90       		.byte	0x90
 2786 0dc7 41       		.uleb128 0x41
ARM GAS  C:\Users\IDONNO~1\AppData\Local\Temp\ccrHXc7a.s 			page 50


 2787 0dc8 07       		.uleb128 0x7
 2788 0dc9 F4       		.byte	0xf4
 2789 0dca 25       		.uleb128 0x25
 2790 0dcb 04       		.byte	0x4
 2791 0dcc 0000E041 		.4byte	0x41e00000
 2792 0dd0 2A       		.uleb128 0x2a
 2793 0dd1 02       		.uleb128 0x2
 2794 0dd2 90       		.byte	0x90
 2795 0dd3 42       		.uleb128 0x42
 2796 0dd4 07       		.uleb128 0x7
 2797 0dd5 F4       		.byte	0xf4
 2798 0dd6 25       		.uleb128 0x25
 2799 0dd7 04       		.byte	0x4
 2800 0dd8 00000442 		.4byte	0x42040000
 2801 0ddc 2A       		.uleb128 0x2a
 2802 0ddd 02       		.uleb128 0x2
 2803 0dde 90       		.byte	0x90
 2804 0ddf 43       		.uleb128 0x43
 2805 0de0 03       		.uleb128 0x3
 2806 0de1 F5       		.byte	0xf5
 2807 0de2 51       		.uleb128 0x51
 2808 0de3 25       		.uleb128 0x25
 2809 0de4 2A       		.uleb128 0x2a
 2810 0de5 02       		.uleb128 0x2
 2811 0de6 90       		.byte	0x90
 2812 0de7 44       		.uleb128 0x44
 2813 0de8 07       		.uleb128 0x7
 2814 0de9 F4       		.byte	0xf4
 2815 0dea 25       		.uleb128 0x25
 2816 0deb 04       		.byte	0x4
 2817 0dec 0000803F 		.4byte	0x3f800000
 2818 0df0 00       		.byte	0
 2819 0df1 29       		.uleb128 0x29
 2820 0df2 90010000 		.4byte	.LVL50
 2821 0df6 D0110000 		.4byte	0x11d0
 2822 0dfa 050E0000 		.4byte	0xe05
 2823 0dfe 2A       		.uleb128 0x2a
 2824 0dff 01       		.uleb128 0x1
 2825 0e00 50       		.byte	0x50
 2826 0e01 02       		.uleb128 0x2
 2827 0e02 08       		.byte	0x8
 2828 0e03 64       		.byte	0x64
 2829 0e04 00       		.byte	0
 2830 0e05 2B       		.uleb128 0x2b
 2831 0e06 C0010000 		.4byte	.LVL57
 2832 0e0a A9080000 		.4byte	0x8a9
 2833 0e0e 2B       		.uleb128 0x2b
 2834 0e0f EA010000 		.4byte	.LVL64
 2835 0e13 A9080000 		.4byte	0x8a9
 2836 0e17 29       		.uleb128 0x29
 2837 0e18 F2010000 		.4byte	.LVL67
 2838 0e1c FC110000 		.4byte	0x11fc
 2839 0e20 2A0E0000 		.4byte	0xe2a
 2840 0e24 2A       		.uleb128 0x2a
 2841 0e25 01       		.uleb128 0x1
 2842 0e26 50       		.byte	0x50
 2843 0e27 01       		.uleb128 0x1
ARM GAS  C:\Users\IDONNO~1\AppData\Local\Temp\ccrHXc7a.s 			page 51


 2844 0e28 30       		.byte	0x30
 2845 0e29 00       		.byte	0
 2846 0e2a 2B       		.uleb128 0x2b
 2847 0e2b F6010000 		.4byte	.LVL68
 2848 0e2f A9080000 		.4byte	0x8a9
 2849 0e33 2B       		.uleb128 0x2b
 2850 0e34 42020000 		.4byte	.LVL77
 2851 0e38 10090000 		.4byte	0x910
 2852 0e3c 29       		.uleb128 0x29
 2853 0e3d 4A020000 		.4byte	.LVL78
 2854 0e41 10090000 		.4byte	0x910
 2855 0e45 580E0000 		.4byte	0xe58
 2856 0e49 2A       		.uleb128 0x2a
 2857 0e4a 01       		.uleb128 0x1
 2858 0e4b 50       		.byte	0x50
 2859 0e4c 01       		.uleb128 0x1
 2860 0e4d 4B       		.byte	0x4b
 2861 0e4e 2A       		.uleb128 0x2a
 2862 0e4f 01       		.uleb128 0x1
 2863 0e50 51       		.byte	0x51
 2864 0e51 05       		.uleb128 0x5
 2865 0e52 0C       		.byte	0xc
 2866 0e53 00A5FF00 		.4byte	0xffa500
 2867 0e57 00       		.byte	0
 2868 0e58 29       		.uleb128 0x29
 2869 0e59 50020000 		.4byte	.LVL79
 2870 0e5d D0110000 		.4byte	0x11d0
 2871 0e61 6C0E0000 		.4byte	0xe6c
 2872 0e65 2A       		.uleb128 0x2a
 2873 0e66 01       		.uleb128 0x1
 2874 0e67 50       		.byte	0x50
 2875 0e68 02       		.uleb128 0x2
 2876 0e69 08       		.byte	0x8
 2877 0e6a 64       		.byte	0x64
 2878 0e6b 00       		.byte	0
 2879 0e6c 2B       		.uleb128 0x2b
 2880 0e6d 66020000 		.4byte	.LVL80
 2881 0e71 DB110000 		.4byte	0x11db
 2882 0e75 29       		.uleb128 0x29
 2883 0e76 90020000 		.4byte	.LVL84
 2884 0e7a 10090000 		.4byte	0x910
 2885 0e7e 890E0000 		.4byte	0xe89
 2886 0e82 2A       		.uleb128 0x2a
 2887 0e83 01       		.uleb128 0x1
 2888 0e84 51       		.byte	0x51
 2889 0e85 02       		.uleb128 0x2
 2890 0e86 7B       		.byte	0x7b
 2891 0e87 00       		.sleb128 0
 2892 0e88 00       		.byte	0
 2893 0e89 29       		.uleb128 0x29
 2894 0e8a 98020000 		.4byte	.LVL85
 2895 0e8e 10090000 		.4byte	0x910
 2896 0e92 A20E0000 		.4byte	0xea2
 2897 0e96 2A       		.uleb128 0x2a
 2898 0e97 01       		.uleb128 0x1
 2899 0e98 50       		.byte	0x50
 2900 0e99 01       		.uleb128 0x1
ARM GAS  C:\Users\IDONNO~1\AppData\Local\Temp\ccrHXc7a.s 			page 52


 2901 0e9a 4B       		.byte	0x4b
 2902 0e9b 2A       		.uleb128 0x2a
 2903 0e9c 01       		.uleb128 0x1
 2904 0e9d 51       		.byte	0x51
 2905 0e9e 02       		.uleb128 0x2
 2906 0e9f 7B       		.byte	0x7b
 2907 0ea0 00       		.sleb128 0
 2908 0ea1 00       		.byte	0
 2909 0ea2 2B       		.uleb128 0x2b
 2910 0ea3 DC020000 		.4byte	.LVL92
 2911 0ea7 10090000 		.4byte	0x910
 2912 0eab 29       		.uleb128 0x29
 2913 0eac E4020000 		.4byte	.LVL93
 2914 0eb0 10090000 		.4byte	0x910
 2915 0eb4 C70E0000 		.4byte	0xec7
 2916 0eb8 2A       		.uleb128 0x2a
 2917 0eb9 01       		.uleb128 0x1
 2918 0eba 50       		.byte	0x50
 2919 0ebb 01       		.uleb128 0x1
 2920 0ebc 3E       		.byte	0x3e
 2921 0ebd 2A       		.uleb128 0x2a
 2922 0ebe 01       		.uleb128 0x1
 2923 0ebf 51       		.byte	0x51
 2924 0ec0 05       		.uleb128 0x5
 2925 0ec1 0C       		.byte	0xc
 2926 0ec2 00A5FF00 		.4byte	0xffa500
 2927 0ec6 00       		.byte	0
 2928 0ec7 29       		.uleb128 0x29
 2929 0ec8 EA020000 		.4byte	.LVL94
 2930 0ecc D0110000 		.4byte	0x11d0
 2931 0ed0 DB0E0000 		.4byte	0xedb
 2932 0ed4 2A       		.uleb128 0x2a
 2933 0ed5 01       		.uleb128 0x1
 2934 0ed6 50       		.byte	0x50
 2935 0ed7 02       		.uleb128 0x2
 2936 0ed8 08       		.byte	0x8
 2937 0ed9 64       		.byte	0x64
 2938 0eda 00       		.byte	0
 2939 0edb 2B       		.uleb128 0x2b
 2940 0edc 00030000 		.4byte	.LVL95
 2941 0ee0 DB110000 		.4byte	0x11db
 2942 0ee4 29       		.uleb128 0x29
 2943 0ee5 2C030000 		.4byte	.LVL99
 2944 0ee9 10090000 		.4byte	0x910
 2945 0eed FD0E0000 		.4byte	0xefd
 2946 0ef1 2A       		.uleb128 0x2a
 2947 0ef2 01       		.uleb128 0x1
 2948 0ef3 50       		.byte	0x50
 2949 0ef4 01       		.uleb128 0x1
 2950 0ef5 3D       		.byte	0x3d
 2951 0ef6 2A       		.uleb128 0x2a
 2952 0ef7 01       		.uleb128 0x1
 2953 0ef8 51       		.byte	0x51
 2954 0ef9 02       		.uleb128 0x2
 2955 0efa 7B       		.byte	0x7b
 2956 0efb 00       		.sleb128 0
 2957 0efc 00       		.byte	0
ARM GAS  C:\Users\IDONNO~1\AppData\Local\Temp\ccrHXc7a.s 			page 53


 2958 0efd 29       		.uleb128 0x29
 2959 0efe 34030000 		.4byte	.LVL100
 2960 0f02 10090000 		.4byte	0x910
 2961 0f06 160F0000 		.4byte	0xf16
 2962 0f0a 2A       		.uleb128 0x2a
 2963 0f0b 01       		.uleb128 0x1
 2964 0f0c 50       		.byte	0x50
 2965 0f0d 01       		.uleb128 0x1
 2966 0f0e 3E       		.byte	0x3e
 2967 0f0f 2A       		.uleb128 0x2a
 2968 0f10 01       		.uleb128 0x1
 2969 0f11 51       		.byte	0x51
 2970 0f12 02       		.uleb128 0x2
 2971 0f13 7B       		.byte	0x7b
 2972 0f14 00       		.sleb128 0
 2973 0f15 00       		.byte	0
 2974 0f16 34       		.uleb128 0x34
 2975 0f17 9E030000 		.4byte	.LVL110
 2976 0f1b D0110000 		.4byte	0x11d0
 2977 0f1f 2A       		.uleb128 0x2a
 2978 0f20 01       		.uleb128 0x1
 2979 0f21 50       		.byte	0x50
 2980 0f22 02       		.uleb128 0x2
 2981 0f23 08       		.byte	0x8
 2982 0f24 64       		.byte	0x64
 2983 0f25 00       		.byte	0
 2984 0f26 00       		.byte	0
 2985 0f27 35       		.uleb128 0x35
 2986 0f28 34000000 		.4byte	.LBB123
 2987 0f2c 7A000000 		.4byte	.LBE123-.LBB123
 2988 0f30 5C100000 		.4byte	0x105c
 2989 0f34 25       		.uleb128 0x25
 2990 0f35 00000000 		.4byte	.LASF135
 2991 0f39 01       		.byte	0x1
 2992 0f3a 4E       		.byte	0x4e
 2993 0f3b 25000000 		.4byte	0x25
 2994 0f3f 82030000 		.4byte	.LLST19
 2995 0f43 35       		.uleb128 0x35
 2996 0f44 3A000000 		.4byte	.LBB124
 2997 0f48 1A000000 		.4byte	.LBE124-.LBB124
 2998 0f4c 8B0F0000 		.4byte	0xf8b
 2999 0f50 24       		.uleb128 0x24
 3000 0f51 6900     		.ascii	"i\000"
 3001 0f53 01       		.byte	0x1
 3002 0f54 47       		.byte	0x47
 3003 0f55 A2000000 		.4byte	0xa2
 3004 0f59 A6030000 		.4byte	.LLST20
 3005 0f5d 29       		.uleb128 0x29
 3006 0f5e 46000000 		.4byte	.LVL19
 3007 0f62 10090000 		.4byte	0x910
 3008 0f66 790F0000 		.4byte	0xf79
 3009 0f6a 2A       		.uleb128 0x2a
 3010 0f6b 01       		.uleb128 0x1
 3011 0f6c 50       		.byte	0x50
 3012 0f6d 02       		.uleb128 0x2
 3013 0f6e 74       		.byte	0x74
 3014 0f6f 00       		.sleb128 0
ARM GAS  C:\Users\IDONNO~1\AppData\Local\Temp\ccrHXc7a.s 			page 54


 3015 0f70 2A       		.uleb128 0x2a
 3016 0f71 01       		.uleb128 0x1
 3017 0f72 51       		.byte	0x51
 3018 0f73 04       		.uleb128 0x4
 3019 0f74 08       		.byte	0x8
 3020 0f75 FF       		.byte	0xff
 3021 0f76 40       		.byte	0x40
 3022 0f77 24       		.byte	0x24
 3023 0f78 00       		.byte	0
 3024 0f79 34       		.uleb128 0x34
 3025 0f7a 50000000 		.4byte	.LVL21
 3026 0f7e D0110000 		.4byte	0x11d0
 3027 0f82 2A       		.uleb128 0x2a
 3028 0f83 01       		.uleb128 0x1
 3029 0f84 50       		.byte	0x50
 3030 0f85 03       		.uleb128 0x3
 3031 0f86 0A       		.byte	0xa
 3032 0f87 D007     		.2byte	0x7d0
 3033 0f89 00       		.byte	0
 3034 0f8a 00       		.byte	0
 3035 0f8b 33       		.uleb128 0x33
 3036 0f8c 00010000 		.4byte	.Ldebug_ranges0+0x100
 3037 0f90 37100000 		.4byte	0x1037
 3038 0f94 24       		.uleb128 0x24
 3039 0f95 6900     		.ascii	"i\000"
 3040 0f97 01       		.byte	0x1
 3041 0f98 4F       		.byte	0x4f
 3042 0f99 A2000000 		.4byte	0xa2
 3043 0f9d DD030000 		.4byte	.LLST21
 3044 0fa1 26       		.uleb128 0x26
 3045 0fa2 18010000 		.4byte	.Ldebug_ranges0+0x118
 3046 0fa6 22       		.uleb128 0x22
 3047 0fa7 8C030000 		.4byte	.LASF134
 3048 0fab 01       		.byte	0x1
 3049 0fac 51       		.byte	0x51
 3050 0fad CA000000 		.4byte	0xca
 3051 0fb1 31       		.uleb128 0x31
 3052 0fb2 4B080000 		.4byte	0x84b
 3053 0fb6 60000000 		.4byte	.LBB127
 3054 0fba 30010000 		.4byte	.Ldebug_ranges0+0x130
 3055 0fbe 01       		.byte	0x1
 3056 0fbf 51       		.byte	0x51
 3057 0fc0 F80F0000 		.4byte	0xff8
 3058 0fc4 32       		.uleb128 0x32
 3059 0fc5 66080000 		.4byte	0x866
 3060 0fc9 21040000 		.4byte	.LLST22
 3061 0fcd 32       		.uleb128 0x32
 3062 0fce 5B080000 		.4byte	0x85b
 3063 0fd2 35040000 		.4byte	.LLST23
 3064 0fd6 26       		.uleb128 0x26
 3065 0fd7 30010000 		.4byte	.Ldebug_ranges0+0x130
 3066 0fdb 3C       		.uleb128 0x3c
 3067 0fdc 71080000 		.4byte	0x871
 3068 0fe0 4C040000 		.4byte	.LLST24
 3069 0fe4 3C       		.uleb128 0x3c
 3070 0fe5 7A080000 		.4byte	0x87a
 3071 0fe9 6C040000 		.4byte	.LLST25
ARM GAS  C:\Users\IDONNO~1\AppData\Local\Temp\ccrHXc7a.s 			page 55


 3072 0fed 3C       		.uleb128 0x3c
 3073 0fee 83080000 		.4byte	0x883
 3074 0ff2 6C040000 		.4byte	.LLST25
 3075 0ff6 00       		.byte	0
 3076 0ff7 00       		.byte	0
 3077 0ff8 33       		.uleb128 0x33
 3078 0ff9 48010000 		.4byte	.Ldebug_ranges0+0x148
 3079 0ffd 25100000 		.4byte	0x1025
 3080 1001 24       		.uleb128 0x24
 3081 1002 6900     		.ascii	"i\000"
 3082 1004 01       		.byte	0x1
 3083 1005 52       		.byte	0x52
 3084 1006 A2000000 		.4byte	0xa2
 3085 100a 8B040000 		.4byte	.LLST27
 3086 100e 34       		.uleb128 0x34
 3087 100f A0000000 		.4byte	.LVL29
 3088 1013 10090000 		.4byte	0x910
 3089 1017 2A       		.uleb128 0x2a
 3090 1018 01       		.uleb128 0x1
 3091 1019 50       		.byte	0x50
 3092 101a 02       		.uleb128 0x2
 3093 101b 7B       		.byte	0x7b
 3094 101c 7F       		.sleb128 -1
 3095 101d 2A       		.uleb128 0x2a
 3096 101e 01       		.uleb128 0x1
 3097 101f 51       		.byte	0x51
 3098 1020 02       		.uleb128 0x2
 3099 1021 74       		.byte	0x74
 3100 1022 00       		.sleb128 0
 3101 1023 00       		.byte	0
 3102 1024 00       		.byte	0
 3103 1025 34       		.uleb128 0x34
 3104 1026 AA000000 		.4byte	.LVL31
 3105 102a D0110000 		.4byte	0x11d0
 3106 102e 2A       		.uleb128 0x2a
 3107 102f 01       		.uleb128 0x1
 3108 1030 50       		.byte	0x50
 3109 1031 02       		.uleb128 0x2
 3110 1032 08       		.byte	0x8
 3111 1033 64       		.byte	0x64
 3112 1034 00       		.byte	0
 3113 1035 00       		.byte	0
 3114 1036 00       		.byte	0
 3115 1037 29       		.uleb128 0x29
 3116 1038 3A000000 		.4byte	.LVL17
 3117 103c FC110000 		.4byte	0x11fc
 3118 1040 4A100000 		.4byte	0x104a
 3119 1044 2A       		.uleb128 0x2a
 3120 1045 01       		.uleb128 0x1
 3121 1046 50       		.byte	0x50
 3122 1047 01       		.uleb128 0x1
 3123 1048 30       		.byte	0x30
 3124 1049 00       		.byte	0
 3125 104a 34       		.uleb128 0x34
 3126 104b 5C000000 		.4byte	.LVL22
 3127 104f D0110000 		.4byte	0x11d0
 3128 1053 2A       		.uleb128 0x2a
ARM GAS  C:\Users\IDONNO~1\AppData\Local\Temp\ccrHXc7a.s 			page 56


 3129 1054 01       		.uleb128 0x1
 3130 1055 50       		.byte	0x50
 3131 1056 03       		.uleb128 0x3
 3132 1057 0A       		.byte	0xa
 3133 1058 1027     		.2byte	0x2710
 3134 105a 00       		.byte	0
 3135 105b 00       		.byte	0
 3136 105c 2B       		.uleb128 0x2b
 3137 105d 22000000 		.4byte	.LVL14
 3138 1061 DB110000 		.4byte	0x11db
 3139 1065 29       		.uleb128 0x29
 3140 1066 B4000000 		.4byte	.LVL34
 3141 106a D0110000 		.4byte	0x11d0
 3142 106e 78100000 		.4byte	0x1078
 3143 1072 2A       		.uleb128 0x2a
 3144 1073 01       		.uleb128 0x1
 3145 1074 50       		.byte	0x50
 3146 1075 01       		.uleb128 0x1
 3147 1076 3A       		.byte	0x3a
 3148 1077 00       		.byte	0
 3149 1078 2B       		.uleb128 0x2b
 3150 1079 B8000000 		.4byte	.LVL35
 3151 107d DB110000 		.4byte	0x11db
 3152 1081 29       		.uleb128 0x29
 3153 1082 9C010000 		.4byte	.LVL51
 3154 1086 D0110000 		.4byte	0x11d0
 3155 108a 94100000 		.4byte	0x1094
 3156 108e 2A       		.uleb128 0x2a
 3157 108f 01       		.uleb128 0x1
 3158 1090 50       		.byte	0x50
 3159 1091 01       		.uleb128 0x1
 3160 1092 3A       		.byte	0x3a
 3161 1093 00       		.byte	0
 3162 1094 29       		.uleb128 0x29
 3163 1095 C6010000 		.4byte	.LVL58
 3164 1099 D0110000 		.4byte	0x11d0
 3165 109d A7100000 		.4byte	0x10a7
 3166 10a1 2A       		.uleb128 0x2a
 3167 10a2 01       		.uleb128 0x1
 3168 10a3 50       		.byte	0x50
 3169 10a4 01       		.uleb128 0x1
 3170 10a5 3A       		.byte	0x3a
 3171 10a6 00       		.byte	0
 3172 10a7 29       		.uleb128 0x29
 3173 10a8 FC010000 		.4byte	.LVL69
 3174 10ac D0110000 		.4byte	0x11d0
 3175 10b0 BA100000 		.4byte	0x10ba
 3176 10b4 2A       		.uleb128 0x2a
 3177 10b5 01       		.uleb128 0x1
 3178 10b6 50       		.byte	0x50
 3179 10b7 01       		.uleb128 0x1
 3180 10b8 3A       		.byte	0x3a
 3181 10b9 00       		.byte	0
 3182 10ba 34       		.uleb128 0x34
 3183 10bb A4030000 		.4byte	.LVL111
 3184 10bf D0110000 		.4byte	0x11d0
 3185 10c3 2A       		.uleb128 0x2a
ARM GAS  C:\Users\IDONNO~1\AppData\Local\Temp\ccrHXc7a.s 			page 57


 3186 10c4 01       		.uleb128 0x1
 3187 10c5 50       		.byte	0x50
 3188 10c6 01       		.uleb128 0x1
 3189 10c7 3A       		.byte	0x3a
 3190 10c8 00       		.byte	0
 3191 10c9 00       		.byte	0
 3192 10ca 00       		.byte	0
 3193 10cb 3D       		.uleb128 0x3d
 3194 10cc B6030000 		.4byte	.LASF149
 3195 10d0 01       		.byte	0x1
 3196 10d1 2F       		.byte	0x2f
 3197 10d2 00000000 		.4byte	.LFB256
 3198 10d6 34000000 		.4byte	.LFE256-.LFB256
 3199 10da 01       		.uleb128 0x1
 3200 10db 9C       		.byte	0x9c
 3201 10dc 10110000 		.4byte	0x1110
 3202 10e0 34       		.uleb128 0x34
 3203 10e1 1E000000 		.4byte	.LVL112
 3204 10e5 07120000 		.4byte	0x1207
 3205 10e9 2A       		.uleb128 0x2a
 3206 10ea 01       		.uleb128 0x1
 3207 10eb 50       		.byte	0x50
 3208 10ec 05       		.uleb128 0x5
 3209 10ed 03       		.byte	0x3
 3210 10ee 00000000 		.4byte	.LANCHOR2
 3211 10f2 2A       		.uleb128 0x2a
 3212 10f3 01       		.uleb128 0x1
 3213 10f4 51       		.byte	0x51
 3214 10f5 03       		.uleb128 0x3
 3215 10f6 0A       		.byte	0xa
 3216 10f7 9805     		.2byte	0x598
 3217 10f9 2A       		.uleb128 0x2a
 3218 10fa 01       		.uleb128 0x1
 3219 10fb 52       		.byte	0x52
 3220 10fc 01       		.uleb128 0x1
 3221 10fd 32       		.byte	0x32
 3222 10fe 2A       		.uleb128 0x2a
 3223 10ff 01       		.uleb128 0x1
 3224 1100 53       		.byte	0x53
 3225 1101 05       		.uleb128 0x5
 3226 1102 03       		.byte	0x3
 3227 1103 00000000 		.4byte	led_thread
 3228 1107 2A       		.uleb128 0x2a
 3229 1108 02       		.uleb128 0x2
 3230 1109 7D       		.byte	0x7d
 3231 110a 00       		.sleb128 0
 3232 110b 02       		.uleb128 0x2
 3233 110c 74       		.byte	0x74
 3234 110d 00       		.sleb128 0
 3235 110e 00       		.byte	0
 3236 110f 00       		.byte	0
 3237 1110 3D       		.uleb128 0x3d
 3238 1111 D3020000 		.4byte	.LASF150
 3239 1115 01       		.byte	0x1
 3240 1116 35       		.byte	0x35
 3241 1117 00000000 		.4byte	.LFB257
 3242 111b 0C000000 		.4byte	.LFE257-.LFB257
ARM GAS  C:\Users\IDONNO~1\AppData\Local\Temp\ccrHXc7a.s 			page 58


 3243 111f 01       		.uleb128 0x1
 3244 1120 9C       		.byte	0x9c
 3245 1121 33110000 		.4byte	0x1133
 3246 1125 3E       		.uleb128 0x3e
 3247 1126 13010000 		.4byte	.LASF151
 3248 112a 01       		.byte	0x1
 3249 112b 35       		.byte	0x35
 3250 112c 6E070000 		.4byte	0x76e
 3251 1130 01       		.uleb128 0x1
 3252 1131 50       		.byte	0x50
 3253 1132 00       		.byte	0
 3254 1133 3D       		.uleb128 0x3d
 3255 1134 88080000 		.4byte	.LASF152
 3256 1138 01       		.byte	0x1
 3257 1139 39       		.byte	0x39
 3258 113a 00000000 		.4byte	.LFB258
 3259 113e 0C000000 		.4byte	.LFE258-.LFB258
 3260 1142 01       		.uleb128 0x1
 3261 1143 9C       		.byte	0x9c
 3262 1144 56110000 		.4byte	0x1156
 3263 1148 3E       		.uleb128 0x3e
 3264 1149 28050000 		.4byte	.LASF153
 3265 114d 01       		.byte	0x1
 3266 114e 39       		.byte	0x39
 3267 114f 79070000 		.4byte	0x779
 3268 1153 01       		.uleb128 0x1
 3269 1154 50       		.byte	0x50
 3270 1155 00       		.byte	0
 3271 1156 15       		.uleb128 0x15
 3272 1157 9E040000 		.4byte	0x49e
 3273 115b 66110000 		.4byte	0x1166
 3274 115f 16       		.uleb128 0x16
 3275 1160 8C040000 		.4byte	0x48c
 3276 1164 B2       		.byte	0xb2
 3277 1165 00       		.byte	0
 3278 1166 3F       		.uleb128 0x3f
 3279 1167 EB080000 		.4byte	.LASF154
 3280 116b 01       		.byte	0x1
 3281 116c 25       		.byte	0x25
 3282 116d 56110000 		.4byte	0x1156
 3283 1171 05       		.uleb128 0x5
 3284 1172 03       		.byte	0x3
 3285 1173 00000000 		.4byte	led_thread_wa
 3286 1177 3F       		.uleb128 0x3f
 3287 1178 50010000 		.4byte	.LASF155
 3288 117c 01       		.byte	0x1
 3289 117d 26       		.byte	0x26
 3290 117e 88110000 		.4byte	0x1188
 3291 1182 05       		.uleb128 0x5
 3292 1183 03       		.byte	0x3
 3293 1184 00000000 		.4byte	state
 3294 1188 05       		.uleb128 0x5
 3295 1189 6E070000 		.4byte	0x76e
 3296 118d 3F       		.uleb128 0x3f
 3297 118e 19060000 		.4byte	.LASF156
 3298 1192 01       		.byte	0x1
 3299 1193 27       		.byte	0x27
ARM GAS  C:\Users\IDONNO~1\AppData\Local\Temp\ccrHXc7a.s 			page 59


 3300 1194 9E110000 		.4byte	0x119e
 3301 1198 05       		.uleb128 0x5
 3302 1199 03       		.byte	0x3
 3303 119a 00000000 		.4byte	reverse_leds
 3304 119e 05       		.uleb128 0x5
 3305 119f 79070000 		.4byte	0x779
 3306 11a3 40       		.uleb128 0x40
 3307 11a4 BB000000 		.4byte	.LASF157
 3308 11a8 13       		.byte	0x13
 3309 11a9 A706     		.2byte	0x6a7
 3310 11ab EB000000 		.4byte	0xeb
 3311 11af 41       		.uleb128 0x41
 3312 11b0 636800   		.ascii	"ch\000"
 3313 11b3 0A       		.byte	0xa
 3314 11b4 0902     		.2byte	0x209
 3315 11b6 25040000 		.4byte	0x425
 3316 11ba 15       		.uleb128 0x15
 3317 11bb B4000000 		.4byte	0xb4
 3318 11bf C5110000 		.4byte	0x11c5
 3319 11c3 42       		.uleb128 0x42
 3320 11c4 00       		.byte	0
 3321 11c5 43       		.uleb128 0x43
 3322 11c6 23040000 		.4byte	.LASF158
 3323 11ca 14       		.byte	0x14
 3324 11cb B9       		.byte	0xb9
 3325 11cc BA110000 		.4byte	0x11ba
 3326 11d0 44       		.uleb128 0x44
 3327 11d1 C7060000 		.4byte	.LASF159
 3328 11d5 C7060000 		.4byte	.LASF159
 3329 11d9 15       		.byte	0x15
 3330 11da 96       		.byte	0x96
 3331 11db 44       		.uleb128 0x44
 3332 11dc 50080000 		.4byte	.LASF145
 3333 11e0 50080000 		.4byte	.LASF145
 3334 11e4 01       		.byte	0x1
 3335 11e5 44       		.byte	0x44
 3336 11e6 44       		.uleb128 0x44
 3337 11e7 21030000 		.4byte	.LASF160
 3338 11eb 21030000 		.4byte	.LASF160
 3339 11ef 16       		.byte	0x16
 3340 11f0 4B       		.byte	0x4b
 3341 11f1 44       		.uleb128 0x44
 3342 11f2 85010000 		.4byte	.LASF161
 3343 11f6 85010000 		.4byte	.LASF161
 3344 11fa 17       		.byte	0x17
 3345 11fb 23       		.byte	0x23
 3346 11fc 44       		.uleb128 0x44
 3347 11fd D8030000 		.4byte	.LASF162
 3348 1201 D8030000 		.4byte	.LASF162
 3349 1205 16       		.byte	0x16
 3350 1206 4E       		.byte	0x4e
 3351 1207 44       		.uleb128 0x44
 3352 1208 9D030000 		.4byte	.LASF163
 3353 120c 9D030000 		.4byte	.LASF163
 3354 1210 15       		.byte	0x15
 3355 1211 89       		.byte	0x89
 3356 1212 00       		.byte	0
ARM GAS  C:\Users\IDONNO~1\AppData\Local\Temp\ccrHXc7a.s 			page 60


 3357              		.section	.debug_abbrev,"",%progbits
 3358              	.Ldebug_abbrev0:
 3359 0000 01       		.uleb128 0x1
 3360 0001 11       		.uleb128 0x11
 3361 0002 01       		.byte	0x1
 3362 0003 25       		.uleb128 0x25
 3363 0004 0E       		.uleb128 0xe
 3364 0005 13       		.uleb128 0x13
 3365 0006 0B       		.uleb128 0xb
 3366 0007 03       		.uleb128 0x3
 3367 0008 0E       		.uleb128 0xe
 3368 0009 1B       		.uleb128 0x1b
 3369 000a 0E       		.uleb128 0xe
 3370 000b 55       		.uleb128 0x55
 3371 000c 17       		.uleb128 0x17
 3372 000d 11       		.uleb128 0x11
 3373 000e 01       		.uleb128 0x1
 3374 000f 10       		.uleb128 0x10
 3375 0010 17       		.uleb128 0x17
 3376 0011 00       		.byte	0
 3377 0012 00       		.byte	0
 3378 0013 02       		.uleb128 0x2
 3379 0014 24       		.uleb128 0x24
 3380 0015 00       		.byte	0
 3381 0016 0B       		.uleb128 0xb
 3382 0017 0B       		.uleb128 0xb
 3383 0018 3E       		.uleb128 0x3e
 3384 0019 0B       		.uleb128 0xb
 3385 001a 03       		.uleb128 0x3
 3386 001b 0E       		.uleb128 0xe
 3387 001c 00       		.byte	0
 3388 001d 00       		.byte	0
 3389 001e 03       		.uleb128 0x3
 3390 001f 16       		.uleb128 0x16
 3391 0020 00       		.byte	0
 3392 0021 03       		.uleb128 0x3
 3393 0022 0E       		.uleb128 0xe
 3394 0023 3A       		.uleb128 0x3a
 3395 0024 0B       		.uleb128 0xb
 3396 0025 3B       		.uleb128 0x3b
 3397 0026 0B       		.uleb128 0xb
 3398 0027 49       		.uleb128 0x49
 3399 0028 13       		.uleb128 0x13
 3400 0029 00       		.byte	0
 3401 002a 00       		.byte	0
 3402 002b 04       		.uleb128 0x4
 3403 002c 24       		.uleb128 0x24
 3404 002d 00       		.byte	0
 3405 002e 0B       		.uleb128 0xb
 3406 002f 0B       		.uleb128 0xb
 3407 0030 3E       		.uleb128 0x3e
 3408 0031 0B       		.uleb128 0xb
 3409 0032 03       		.uleb128 0x3
 3410 0033 08       		.uleb128 0x8
 3411 0034 00       		.byte	0
 3412 0035 00       		.byte	0
 3413 0036 05       		.uleb128 0x5
ARM GAS  C:\Users\IDONNO~1\AppData\Local\Temp\ccrHXc7a.s 			page 61


 3414 0037 35       		.uleb128 0x35
 3415 0038 00       		.byte	0
 3416 0039 49       		.uleb128 0x49
 3417 003a 13       		.uleb128 0x13
 3418 003b 00       		.byte	0
 3419 003c 00       		.byte	0
 3420 003d 06       		.uleb128 0x6
 3421 003e 13       		.uleb128 0x13
 3422 003f 01       		.byte	0x1
 3423 0040 03       		.uleb128 0x3
 3424 0041 0E       		.uleb128 0xe
 3425 0042 0B       		.uleb128 0xb
 3426 0043 0B       		.uleb128 0xb
 3427 0044 3A       		.uleb128 0x3a
 3428 0045 0B       		.uleb128 0xb
 3429 0046 3B       		.uleb128 0x3b
 3430 0047 0B       		.uleb128 0xb
 3431 0048 01       		.uleb128 0x1
 3432 0049 13       		.uleb128 0x13
 3433 004a 00       		.byte	0
 3434 004b 00       		.byte	0
 3435 004c 07       		.uleb128 0x7
 3436 004d 0D       		.uleb128 0xd
 3437 004e 00       		.byte	0
 3438 004f 03       		.uleb128 0x3
 3439 0050 0E       		.uleb128 0xe
 3440 0051 3A       		.uleb128 0x3a
 3441 0052 0B       		.uleb128 0xb
 3442 0053 3B       		.uleb128 0x3b
 3443 0054 0B       		.uleb128 0xb
 3444 0055 49       		.uleb128 0x49
 3445 0056 13       		.uleb128 0x13
 3446 0057 38       		.uleb128 0x38
 3447 0058 0B       		.uleb128 0xb
 3448 0059 00       		.byte	0
 3449 005a 00       		.byte	0
 3450 005b 08       		.uleb128 0x8
 3451 005c 0D       		.uleb128 0xd
 3452 005d 00       		.byte	0
 3453 005e 03       		.uleb128 0x3
 3454 005f 08       		.uleb128 0x8
 3455 0060 3A       		.uleb128 0x3a
 3456 0061 0B       		.uleb128 0xb
 3457 0062 3B       		.uleb128 0x3b
 3458 0063 05       		.uleb128 0x5
 3459 0064 49       		.uleb128 0x49
 3460 0065 13       		.uleb128 0x13
 3461 0066 38       		.uleb128 0x38
 3462 0067 0B       		.uleb128 0xb
 3463 0068 00       		.byte	0
 3464 0069 00       		.byte	0
 3465 006a 09       		.uleb128 0x9
 3466 006b 0D       		.uleb128 0xd
 3467 006c 00       		.byte	0
 3468 006d 03       		.uleb128 0x3
 3469 006e 0E       		.uleb128 0xe
 3470 006f 3A       		.uleb128 0x3a
ARM GAS  C:\Users\IDONNO~1\AppData\Local\Temp\ccrHXc7a.s 			page 62


 3471 0070 0B       		.uleb128 0xb
 3472 0071 3B       		.uleb128 0x3b
 3473 0072 05       		.uleb128 0x5
 3474 0073 49       		.uleb128 0x49
 3475 0074 13       		.uleb128 0x13
 3476 0075 38       		.uleb128 0x38
 3477 0076 0B       		.uleb128 0xb
 3478 0077 00       		.byte	0
 3479 0078 00       		.byte	0
 3480 0079 0A       		.uleb128 0xa
 3481 007a 0F       		.uleb128 0xf
 3482 007b 00       		.byte	0
 3483 007c 0B       		.uleb128 0xb
 3484 007d 0B       		.uleb128 0xb
 3485 007e 49       		.uleb128 0x49
 3486 007f 13       		.uleb128 0x13
 3487 0080 00       		.byte	0
 3488 0081 00       		.byte	0
 3489 0082 0B       		.uleb128 0xb
 3490 0083 13       		.uleb128 0x13
 3491 0084 01       		.byte	0x1
 3492 0085 03       		.uleb128 0x3
 3493 0086 0E       		.uleb128 0xe
 3494 0087 0B       		.uleb128 0xb
 3495 0088 0B       		.uleb128 0xb
 3496 0089 3A       		.uleb128 0x3a
 3497 008a 0B       		.uleb128 0xb
 3498 008b 3B       		.uleb128 0x3b
 3499 008c 05       		.uleb128 0x5
 3500 008d 01       		.uleb128 0x1
 3501 008e 13       		.uleb128 0x13
 3502 008f 00       		.byte	0
 3503 0090 00       		.byte	0
 3504 0091 0C       		.uleb128 0xc
 3505 0092 15       		.uleb128 0x15
 3506 0093 01       		.byte	0x1
 3507 0094 27       		.uleb128 0x27
 3508 0095 19       		.uleb128 0x19
 3509 0096 01       		.uleb128 0x1
 3510 0097 13       		.uleb128 0x13
 3511 0098 00       		.byte	0
 3512 0099 00       		.byte	0
 3513 009a 0D       		.uleb128 0xd
 3514 009b 05       		.uleb128 0x5
 3515 009c 00       		.byte	0
 3516 009d 49       		.uleb128 0x49
 3517 009e 13       		.uleb128 0x13
 3518 009f 00       		.byte	0
 3519 00a0 00       		.byte	0
 3520 00a1 0E       		.uleb128 0xe
 3521 00a2 0F       		.uleb128 0xf
 3522 00a3 00       		.byte	0
 3523 00a4 0B       		.uleb128 0xb
 3524 00a5 0B       		.uleb128 0xb
 3525 00a6 00       		.byte	0
 3526 00a7 00       		.byte	0
 3527 00a8 0F       		.uleb128 0xf
ARM GAS  C:\Users\IDONNO~1\AppData\Local\Temp\ccrHXc7a.s 			page 63


 3528 00a9 13       		.uleb128 0x13
 3529 00aa 01       		.byte	0x1
 3530 00ab 03       		.uleb128 0x3
 3531 00ac 0E       		.uleb128 0xe
 3532 00ad 0B       		.uleb128 0xb
 3533 00ae 05       		.uleb128 0x5
 3534 00af 3A       		.uleb128 0x3a
 3535 00b0 0B       		.uleb128 0xb
 3536 00b1 3B       		.uleb128 0x3b
 3537 00b2 05       		.uleb128 0x5
 3538 00b3 01       		.uleb128 0x1
 3539 00b4 13       		.uleb128 0x13
 3540 00b5 00       		.byte	0
 3541 00b6 00       		.byte	0
 3542 00b7 10       		.uleb128 0x10
 3543 00b8 0D       		.uleb128 0xd
 3544 00b9 00       		.byte	0
 3545 00ba 03       		.uleb128 0x3
 3546 00bb 08       		.uleb128 0x8
 3547 00bc 3A       		.uleb128 0x3a
 3548 00bd 0B       		.uleb128 0xb
 3549 00be 3B       		.uleb128 0x3b
 3550 00bf 0B       		.uleb128 0xb
 3551 00c0 49       		.uleb128 0x49
 3552 00c1 13       		.uleb128 0x13
 3553 00c2 38       		.uleb128 0x38
 3554 00c3 0B       		.uleb128 0xb
 3555 00c4 00       		.byte	0
 3556 00c5 00       		.byte	0
 3557 00c6 11       		.uleb128 0x11
 3558 00c7 13       		.uleb128 0x13
 3559 00c8 01       		.byte	0x1
 3560 00c9 0B       		.uleb128 0xb
 3561 00ca 0B       		.uleb128 0xb
 3562 00cb 3A       		.uleb128 0x3a
 3563 00cc 0B       		.uleb128 0xb
 3564 00cd 3B       		.uleb128 0x3b
 3565 00ce 0B       		.uleb128 0xb
 3566 00cf 01       		.uleb128 0x1
 3567 00d0 13       		.uleb128 0x13
 3568 00d1 00       		.byte	0
 3569 00d2 00       		.byte	0
 3570 00d3 12       		.uleb128 0x12
 3571 00d4 17       		.uleb128 0x17
 3572 00d5 01       		.byte	0x1
 3573 00d6 0B       		.uleb128 0xb
 3574 00d7 0B       		.uleb128 0xb
 3575 00d8 3A       		.uleb128 0x3a
 3576 00d9 0B       		.uleb128 0xb
 3577 00da 3B       		.uleb128 0x3b
 3578 00db 0B       		.uleb128 0xb
 3579 00dc 01       		.uleb128 0x1
 3580 00dd 13       		.uleb128 0x13
 3581 00de 00       		.byte	0
 3582 00df 00       		.byte	0
 3583 00e0 13       		.uleb128 0x13
 3584 00e1 0D       		.uleb128 0xd
ARM GAS  C:\Users\IDONNO~1\AppData\Local\Temp\ccrHXc7a.s 			page 64


 3585 00e2 00       		.byte	0
 3586 00e3 03       		.uleb128 0x3
 3587 00e4 0E       		.uleb128 0xe
 3588 00e5 3A       		.uleb128 0x3a
 3589 00e6 0B       		.uleb128 0xb
 3590 00e7 3B       		.uleb128 0x3b
 3591 00e8 05       		.uleb128 0x5
 3592 00e9 49       		.uleb128 0x49
 3593 00ea 13       		.uleb128 0x13
 3594 00eb 00       		.byte	0
 3595 00ec 00       		.byte	0
 3596 00ed 14       		.uleb128 0x14
 3597 00ee 26       		.uleb128 0x26
 3598 00ef 00       		.byte	0
 3599 00f0 49       		.uleb128 0x49
 3600 00f1 13       		.uleb128 0x13
 3601 00f2 00       		.byte	0
 3602 00f3 00       		.byte	0
 3603 00f4 15       		.uleb128 0x15
 3604 00f5 01       		.uleb128 0x1
 3605 00f6 01       		.byte	0x1
 3606 00f7 49       		.uleb128 0x49
 3607 00f8 13       		.uleb128 0x13
 3608 00f9 01       		.uleb128 0x1
 3609 00fa 13       		.uleb128 0x13
 3610 00fb 00       		.byte	0
 3611 00fc 00       		.byte	0
 3612 00fd 16       		.uleb128 0x16
 3613 00fe 21       		.uleb128 0x21
 3614 00ff 00       		.byte	0
 3615 0100 49       		.uleb128 0x49
 3616 0101 13       		.uleb128 0x13
 3617 0102 2F       		.uleb128 0x2f
 3618 0103 0B       		.uleb128 0xb
 3619 0104 00       		.byte	0
 3620 0105 00       		.byte	0
 3621 0106 17       		.uleb128 0x17
 3622 0107 04       		.uleb128 0x4
 3623 0108 01       		.byte	0x1
 3624 0109 0B       		.uleb128 0xb
 3625 010a 0B       		.uleb128 0xb
 3626 010b 49       		.uleb128 0x49
 3627 010c 13       		.uleb128 0x13
 3628 010d 3A       		.uleb128 0x3a
 3629 010e 0B       		.uleb128 0xb
 3630 010f 3B       		.uleb128 0x3b
 3631 0110 0B       		.uleb128 0xb
 3632 0111 01       		.uleb128 0x1
 3633 0112 13       		.uleb128 0x13
 3634 0113 00       		.byte	0
 3635 0114 00       		.byte	0
 3636 0115 18       		.uleb128 0x18
 3637 0116 28       		.uleb128 0x28
 3638 0117 00       		.byte	0
 3639 0118 03       		.uleb128 0x3
 3640 0119 0E       		.uleb128 0xe
 3641 011a 1C       		.uleb128 0x1c
ARM GAS  C:\Users\IDONNO~1\AppData\Local\Temp\ccrHXc7a.s 			page 65


 3642 011b 0B       		.uleb128 0xb
 3643 011c 00       		.byte	0
 3644 011d 00       		.byte	0
 3645 011e 19       		.uleb128 0x19
 3646 011f 2E       		.uleb128 0x2e
 3647 0120 01       		.byte	0x1
 3648 0121 03       		.uleb128 0x3
 3649 0122 0E       		.uleb128 0xe
 3650 0123 3A       		.uleb128 0x3a
 3651 0124 0B       		.uleb128 0xb
 3652 0125 3B       		.uleb128 0x3b
 3653 0126 05       		.uleb128 0x5
 3654 0127 27       		.uleb128 0x27
 3655 0128 19       		.uleb128 0x19
 3656 0129 20       		.uleb128 0x20
 3657 012a 0B       		.uleb128 0xb
 3658 012b 01       		.uleb128 0x1
 3659 012c 13       		.uleb128 0x13
 3660 012d 00       		.byte	0
 3661 012e 00       		.byte	0
 3662 012f 1A       		.uleb128 0x1a
 3663 0130 05       		.uleb128 0x5
 3664 0131 00       		.byte	0
 3665 0132 03       		.uleb128 0x3
 3666 0133 0E       		.uleb128 0xe
 3667 0134 3A       		.uleb128 0x3a
 3668 0135 0B       		.uleb128 0xb
 3669 0136 3B       		.uleb128 0x3b
 3670 0137 05       		.uleb128 0x5
 3671 0138 49       		.uleb128 0x49
 3672 0139 13       		.uleb128 0x13
 3673 013a 00       		.byte	0
 3674 013b 00       		.byte	0
 3675 013c 1B       		.uleb128 0x1b
 3676 013d 2E       		.uleb128 0x2e
 3677 013e 00       		.byte	0
 3678 013f 03       		.uleb128 0x3
 3679 0140 0E       		.uleb128 0xe
 3680 0141 3A       		.uleb128 0x3a
 3681 0142 0B       		.uleb128 0xb
 3682 0143 3B       		.uleb128 0x3b
 3683 0144 05       		.uleb128 0x5
 3684 0145 27       		.uleb128 0x27
 3685 0146 19       		.uleb128 0x19
 3686 0147 20       		.uleb128 0x20
 3687 0148 0B       		.uleb128 0xb
 3688 0149 00       		.byte	0
 3689 014a 00       		.byte	0
 3690 014b 1C       		.uleb128 0x1c
 3691 014c 34       		.uleb128 0x34
 3692 014d 00       		.byte	0
 3693 014e 03       		.uleb128 0x3
 3694 014f 0E       		.uleb128 0xe
 3695 0150 49       		.uleb128 0x49
 3696 0151 13       		.uleb128 0x13
 3697 0152 34       		.uleb128 0x34
 3698 0153 19       		.uleb128 0x19
ARM GAS  C:\Users\IDONNO~1\AppData\Local\Temp\ccrHXc7a.s 			page 66


 3699 0154 1C       		.uleb128 0x1c
 3700 0155 0E       		.uleb128 0xe
 3701 0156 00       		.byte	0
 3702 0157 00       		.byte	0
 3703 0158 1D       		.uleb128 0x1d
 3704 0159 2E       		.uleb128 0x2e
 3705 015a 00       		.byte	0
 3706 015b 03       		.uleb128 0x3
 3707 015c 0E       		.uleb128 0xe
 3708 015d 3A       		.uleb128 0x3a
 3709 015e 0B       		.uleb128 0xb
 3710 015f 3B       		.uleb128 0x3b
 3711 0160 0B       		.uleb128 0xb
 3712 0161 27       		.uleb128 0x27
 3713 0162 19       		.uleb128 0x19
 3714 0163 49       		.uleb128 0x49
 3715 0164 13       		.uleb128 0x13
 3716 0165 20       		.uleb128 0x20
 3717 0166 0B       		.uleb128 0xb
 3718 0167 00       		.byte	0
 3719 0168 00       		.byte	0
 3720 0169 1E       		.uleb128 0x1e
 3721 016a 2E       		.uleb128 0x2e
 3722 016b 01       		.byte	0x1
 3723 016c 03       		.uleb128 0x3
 3724 016d 0E       		.uleb128 0xe
 3725 016e 3A       		.uleb128 0x3a
 3726 016f 0B       		.uleb128 0xb
 3727 0170 3B       		.uleb128 0x3b
 3728 0171 0B       		.uleb128 0xb
 3729 0172 27       		.uleb128 0x27
 3730 0173 19       		.uleb128 0x19
 3731 0174 20       		.uleb128 0x20
 3732 0175 0B       		.uleb128 0xb
 3733 0176 01       		.uleb128 0x1
 3734 0177 13       		.uleb128 0x13
 3735 0178 00       		.byte	0
 3736 0179 00       		.byte	0
 3737 017a 1F       		.uleb128 0x1f
 3738 017b 05       		.uleb128 0x5
 3739 017c 00       		.byte	0
 3740 017d 03       		.uleb128 0x3
 3741 017e 0E       		.uleb128 0xe
 3742 017f 3A       		.uleb128 0x3a
 3743 0180 0B       		.uleb128 0xb
 3744 0181 3B       		.uleb128 0x3b
 3745 0182 0B       		.uleb128 0xb
 3746 0183 49       		.uleb128 0x49
 3747 0184 13       		.uleb128 0x13
 3748 0185 00       		.byte	0
 3749 0186 00       		.byte	0
 3750 0187 20       		.uleb128 0x20
 3751 0188 2E       		.uleb128 0x2e
 3752 0189 01       		.byte	0x1
 3753 018a 03       		.uleb128 0x3
 3754 018b 0E       		.uleb128 0xe
 3755 018c 3A       		.uleb128 0x3a
ARM GAS  C:\Users\IDONNO~1\AppData\Local\Temp\ccrHXc7a.s 			page 67


 3756 018d 0B       		.uleb128 0xb
 3757 018e 3B       		.uleb128 0x3b
 3758 018f 0B       		.uleb128 0xb
 3759 0190 27       		.uleb128 0x27
 3760 0191 19       		.uleb128 0x19
 3761 0192 49       		.uleb128 0x49
 3762 0193 13       		.uleb128 0x13
 3763 0194 20       		.uleb128 0x20
 3764 0195 0B       		.uleb128 0xb
 3765 0196 01       		.uleb128 0x1
 3766 0197 13       		.uleb128 0x13
 3767 0198 00       		.byte	0
 3768 0199 00       		.byte	0
 3769 019a 21       		.uleb128 0x21
 3770 019b 34       		.uleb128 0x34
 3771 019c 00       		.byte	0
 3772 019d 03       		.uleb128 0x3
 3773 019e 08       		.uleb128 0x8
 3774 019f 3A       		.uleb128 0x3a
 3775 01a0 0B       		.uleb128 0xb
 3776 01a1 3B       		.uleb128 0x3b
 3777 01a2 0B       		.uleb128 0xb
 3778 01a3 49       		.uleb128 0x49
 3779 01a4 13       		.uleb128 0x13
 3780 01a5 00       		.byte	0
 3781 01a6 00       		.byte	0
 3782 01a7 22       		.uleb128 0x22
 3783 01a8 34       		.uleb128 0x34
 3784 01a9 00       		.byte	0
 3785 01aa 03       		.uleb128 0x3
 3786 01ab 0E       		.uleb128 0xe
 3787 01ac 3A       		.uleb128 0x3a
 3788 01ad 0B       		.uleb128 0xb
 3789 01ae 3B       		.uleb128 0x3b
 3790 01af 0B       		.uleb128 0xb
 3791 01b0 49       		.uleb128 0x49
 3792 01b1 13       		.uleb128 0x13
 3793 01b2 00       		.byte	0
 3794 01b3 00       		.byte	0
 3795 01b4 23       		.uleb128 0x23
 3796 01b5 2E       		.uleb128 0x2e
 3797 01b6 01       		.byte	0x1
 3798 01b7 03       		.uleb128 0x3
 3799 01b8 0E       		.uleb128 0xe
 3800 01b9 3A       		.uleb128 0x3a
 3801 01ba 0B       		.uleb128 0xb
 3802 01bb 3B       		.uleb128 0x3b
 3803 01bc 0B       		.uleb128 0xb
 3804 01bd 27       		.uleb128 0x27
 3805 01be 19       		.uleb128 0x19
 3806 01bf 11       		.uleb128 0x11
 3807 01c0 01       		.uleb128 0x1
 3808 01c1 12       		.uleb128 0x12
 3809 01c2 06       		.uleb128 0x6
 3810 01c3 40       		.uleb128 0x40
 3811 01c4 18       		.uleb128 0x18
 3812 01c5 9742     		.uleb128 0x2117
ARM GAS  C:\Users\IDONNO~1\AppData\Local\Temp\ccrHXc7a.s 			page 68


 3813 01c7 19       		.uleb128 0x19
 3814 01c8 01       		.uleb128 0x1
 3815 01c9 13       		.uleb128 0x13
 3816 01ca 00       		.byte	0
 3817 01cb 00       		.byte	0
 3818 01cc 24       		.uleb128 0x24
 3819 01cd 34       		.uleb128 0x34
 3820 01ce 00       		.byte	0
 3821 01cf 03       		.uleb128 0x3
 3822 01d0 08       		.uleb128 0x8
 3823 01d1 3A       		.uleb128 0x3a
 3824 01d2 0B       		.uleb128 0xb
 3825 01d3 3B       		.uleb128 0x3b
 3826 01d4 0B       		.uleb128 0xb
 3827 01d5 49       		.uleb128 0x49
 3828 01d6 13       		.uleb128 0x13
 3829 01d7 02       		.uleb128 0x2
 3830 01d8 17       		.uleb128 0x17
 3831 01d9 00       		.byte	0
 3832 01da 00       		.byte	0
 3833 01db 25       		.uleb128 0x25
 3834 01dc 34       		.uleb128 0x34
 3835 01dd 00       		.byte	0
 3836 01de 03       		.uleb128 0x3
 3837 01df 0E       		.uleb128 0xe
 3838 01e0 3A       		.uleb128 0x3a
 3839 01e1 0B       		.uleb128 0xb
 3840 01e2 3B       		.uleb128 0x3b
 3841 01e3 0B       		.uleb128 0xb
 3842 01e4 49       		.uleb128 0x49
 3843 01e5 13       		.uleb128 0x13
 3844 01e6 02       		.uleb128 0x2
 3845 01e7 17       		.uleb128 0x17
 3846 01e8 00       		.byte	0
 3847 01e9 00       		.byte	0
 3848 01ea 26       		.uleb128 0x26
 3849 01eb 0B       		.uleb128 0xb
 3850 01ec 01       		.byte	0x1
 3851 01ed 55       		.uleb128 0x55
 3852 01ee 17       		.uleb128 0x17
 3853 01ef 00       		.byte	0
 3854 01f0 00       		.byte	0
 3855 01f1 27       		.uleb128 0x27
 3856 01f2 2E       		.uleb128 0x2e
 3857 01f3 01       		.byte	0x1
 3858 01f4 3F       		.uleb128 0x3f
 3859 01f5 19       		.uleb128 0x19
 3860 01f6 03       		.uleb128 0x3
 3861 01f7 0E       		.uleb128 0xe
 3862 01f8 3A       		.uleb128 0x3a
 3863 01f9 0B       		.uleb128 0xb
 3864 01fa 3B       		.uleb128 0x3b
 3865 01fb 0B       		.uleb128 0xb
 3866 01fc 49       		.uleb128 0x49
 3867 01fd 13       		.uleb128 0x13
 3868 01fe 3C       		.uleb128 0x3c
 3869 01ff 19       		.uleb128 0x19
ARM GAS  C:\Users\IDONNO~1\AppData\Local\Temp\ccrHXc7a.s 			page 69


 3870 0200 01       		.uleb128 0x1
 3871 0201 13       		.uleb128 0x13
 3872 0202 00       		.byte	0
 3873 0203 00       		.byte	0
 3874 0204 28       		.uleb128 0x28
 3875 0205 18       		.uleb128 0x18
 3876 0206 00       		.byte	0
 3877 0207 00       		.byte	0
 3878 0208 00       		.byte	0
 3879 0209 29       		.uleb128 0x29
 3880 020a 898201   		.uleb128 0x4109
 3881 020d 01       		.byte	0x1
 3882 020e 11       		.uleb128 0x11
 3883 020f 01       		.uleb128 0x1
 3884 0210 31       		.uleb128 0x31
 3885 0211 13       		.uleb128 0x13
 3886 0212 01       		.uleb128 0x1
 3887 0213 13       		.uleb128 0x13
 3888 0214 00       		.byte	0
 3889 0215 00       		.byte	0
 3890 0216 2A       		.uleb128 0x2a
 3891 0217 8A8201   		.uleb128 0x410a
 3892 021a 00       		.byte	0
 3893 021b 02       		.uleb128 0x2
 3894 021c 18       		.uleb128 0x18
 3895 021d 9142     		.uleb128 0x2111
 3896 021f 18       		.uleb128 0x18
 3897 0220 00       		.byte	0
 3898 0221 00       		.byte	0
 3899 0222 2B       		.uleb128 0x2b
 3900 0223 898201   		.uleb128 0x4109
 3901 0226 00       		.byte	0
 3902 0227 11       		.uleb128 0x11
 3903 0228 01       		.uleb128 0x1
 3904 0229 31       		.uleb128 0x31
 3905 022a 13       		.uleb128 0x13
 3906 022b 00       		.byte	0
 3907 022c 00       		.byte	0
 3908 022d 2C       		.uleb128 0x2c
 3909 022e 05       		.uleb128 0x5
 3910 022f 00       		.byte	0
 3911 0230 03       		.uleb128 0x3
 3912 0231 08       		.uleb128 0x8
 3913 0232 3A       		.uleb128 0x3a
 3914 0233 0B       		.uleb128 0xb
 3915 0234 3B       		.uleb128 0x3b
 3916 0235 0B       		.uleb128 0xb
 3917 0236 49       		.uleb128 0x49
 3918 0237 13       		.uleb128 0x13
 3919 0238 02       		.uleb128 0x2
 3920 0239 17       		.uleb128 0x17
 3921 023a 00       		.byte	0
 3922 023b 00       		.byte	0
 3923 023c 2D       		.uleb128 0x2d
 3924 023d 05       		.uleb128 0x5
 3925 023e 00       		.byte	0
 3926 023f 03       		.uleb128 0x3
ARM GAS  C:\Users\IDONNO~1\AppData\Local\Temp\ccrHXc7a.s 			page 70


 3927 0240 0E       		.uleb128 0xe
 3928 0241 3A       		.uleb128 0x3a
 3929 0242 0B       		.uleb128 0xb
 3930 0243 3B       		.uleb128 0x3b
 3931 0244 0B       		.uleb128 0xb
 3932 0245 49       		.uleb128 0x49
 3933 0246 13       		.uleb128 0x13
 3934 0247 02       		.uleb128 0x2
 3935 0248 17       		.uleb128 0x17
 3936 0249 00       		.byte	0
 3937 024a 00       		.byte	0
 3938 024b 2E       		.uleb128 0x2e
 3939 024c 898201   		.uleb128 0x4109
 3940 024f 01       		.byte	0x1
 3941 0250 11       		.uleb128 0x11
 3942 0251 01       		.uleb128 0x1
 3943 0252 9542     		.uleb128 0x2115
 3944 0254 19       		.uleb128 0x19
 3945 0255 31       		.uleb128 0x31
 3946 0256 13       		.uleb128 0x13
 3947 0257 01       		.uleb128 0x1
 3948 0258 13       		.uleb128 0x13
 3949 0259 00       		.byte	0
 3950 025a 00       		.byte	0
 3951 025b 2F       		.uleb128 0x2f
 3952 025c 898201   		.uleb128 0x4109
 3953 025f 00       		.byte	0
 3954 0260 11       		.uleb128 0x11
 3955 0261 01       		.uleb128 0x1
 3956 0262 9542     		.uleb128 0x2115
 3957 0264 19       		.uleb128 0x19
 3958 0265 31       		.uleb128 0x31
 3959 0266 13       		.uleb128 0x13
 3960 0267 00       		.byte	0
 3961 0268 00       		.byte	0
 3962 0269 30       		.uleb128 0x30
 3963 026a 2E       		.uleb128 0x2e
 3964 026b 01       		.byte	0x1
 3965 026c 03       		.uleb128 0x3
 3966 026d 0E       		.uleb128 0xe
 3967 026e 3A       		.uleb128 0x3a
 3968 026f 0B       		.uleb128 0xb
 3969 0270 3B       		.uleb128 0x3b
 3970 0271 0B       		.uleb128 0xb
 3971 0272 27       		.uleb128 0x27
 3972 0273 19       		.uleb128 0x19
 3973 0274 8701     		.uleb128 0x87
 3974 0276 19       		.uleb128 0x19
 3975 0277 11       		.uleb128 0x11
 3976 0278 01       		.uleb128 0x1
 3977 0279 12       		.uleb128 0x12
 3978 027a 06       		.uleb128 0x6
 3979 027b 40       		.uleb128 0x40
 3980 027c 18       		.uleb128 0x18
 3981 027d 9742     		.uleb128 0x2117
 3982 027f 19       		.uleb128 0x19
 3983 0280 01       		.uleb128 0x1
ARM GAS  C:\Users\IDONNO~1\AppData\Local\Temp\ccrHXc7a.s 			page 71


 3984 0281 13       		.uleb128 0x13
 3985 0282 00       		.byte	0
 3986 0283 00       		.byte	0
 3987 0284 31       		.uleb128 0x31
 3988 0285 1D       		.uleb128 0x1d
 3989 0286 01       		.byte	0x1
 3990 0287 31       		.uleb128 0x31
 3991 0288 13       		.uleb128 0x13
 3992 0289 52       		.uleb128 0x52
 3993 028a 01       		.uleb128 0x1
 3994 028b 55       		.uleb128 0x55
 3995 028c 17       		.uleb128 0x17
 3996 028d 58       		.uleb128 0x58
 3997 028e 0B       		.uleb128 0xb
 3998 028f 59       		.uleb128 0x59
 3999 0290 0B       		.uleb128 0xb
 4000 0291 01       		.uleb128 0x1
 4001 0292 13       		.uleb128 0x13
 4002 0293 00       		.byte	0
 4003 0294 00       		.byte	0
 4004 0295 32       		.uleb128 0x32
 4005 0296 05       		.uleb128 0x5
 4006 0297 00       		.byte	0
 4007 0298 31       		.uleb128 0x31
 4008 0299 13       		.uleb128 0x13
 4009 029a 02       		.uleb128 0x2
 4010 029b 17       		.uleb128 0x17
 4011 029c 00       		.byte	0
 4012 029d 00       		.byte	0
 4013 029e 33       		.uleb128 0x33
 4014 029f 0B       		.uleb128 0xb
 4015 02a0 01       		.byte	0x1
 4016 02a1 55       		.uleb128 0x55
 4017 02a2 17       		.uleb128 0x17
 4018 02a3 01       		.uleb128 0x1
 4019 02a4 13       		.uleb128 0x13
 4020 02a5 00       		.byte	0
 4021 02a6 00       		.byte	0
 4022 02a7 34       		.uleb128 0x34
 4023 02a8 898201   		.uleb128 0x4109
 4024 02ab 01       		.byte	0x1
 4025 02ac 11       		.uleb128 0x11
 4026 02ad 01       		.uleb128 0x1
 4027 02ae 31       		.uleb128 0x31
 4028 02af 13       		.uleb128 0x13
 4029 02b0 00       		.byte	0
 4030 02b1 00       		.byte	0
 4031 02b2 35       		.uleb128 0x35
 4032 02b3 0B       		.uleb128 0xb
 4033 02b4 01       		.byte	0x1
 4034 02b5 11       		.uleb128 0x11
 4035 02b6 01       		.uleb128 0x1
 4036 02b7 12       		.uleb128 0x12
 4037 02b8 06       		.uleb128 0x6
 4038 02b9 01       		.uleb128 0x1
 4039 02ba 13       		.uleb128 0x13
 4040 02bb 00       		.byte	0
ARM GAS  C:\Users\IDONNO~1\AppData\Local\Temp\ccrHXc7a.s 			page 72


 4041 02bc 00       		.byte	0
 4042 02bd 36       		.uleb128 0x36
 4043 02be 34       		.uleb128 0x34
 4044 02bf 00       		.byte	0
 4045 02c0 31       		.uleb128 0x31
 4046 02c1 13       		.uleb128 0x13
 4047 02c2 00       		.byte	0
 4048 02c3 00       		.byte	0
 4049 02c4 37       		.uleb128 0x37
 4050 02c5 1D       		.uleb128 0x1d
 4051 02c6 01       		.byte	0x1
 4052 02c7 31       		.uleb128 0x31
 4053 02c8 13       		.uleb128 0x13
 4054 02c9 52       		.uleb128 0x52
 4055 02ca 01       		.uleb128 0x1
 4056 02cb 55       		.uleb128 0x55
 4057 02cc 17       		.uleb128 0x17
 4058 02cd 58       		.uleb128 0x58
 4059 02ce 0B       		.uleb128 0xb
 4060 02cf 59       		.uleb128 0x59
 4061 02d0 05       		.uleb128 0x5
 4062 02d1 00       		.byte	0
 4063 02d2 00       		.byte	0
 4064 02d3 38       		.uleb128 0x38
 4065 02d4 1D       		.uleb128 0x1d
 4066 02d5 00       		.byte	0
 4067 02d6 31       		.uleb128 0x31
 4068 02d7 13       		.uleb128 0x13
 4069 02d8 11       		.uleb128 0x11
 4070 02d9 01       		.uleb128 0x1
 4071 02da 12       		.uleb128 0x12
 4072 02db 06       		.uleb128 0x6
 4073 02dc 58       		.uleb128 0x58
 4074 02dd 0B       		.uleb128 0xb
 4075 02de 59       		.uleb128 0x59
 4076 02df 0B       		.uleb128 0xb
 4077 02e0 00       		.byte	0
 4078 02e1 00       		.byte	0
 4079 02e2 39       		.uleb128 0x39
 4080 02e3 1D       		.uleb128 0x1d
 4081 02e4 01       		.byte	0x1
 4082 02e5 31       		.uleb128 0x31
 4083 02e6 13       		.uleb128 0x13
 4084 02e7 11       		.uleb128 0x11
 4085 02e8 01       		.uleb128 0x1
 4086 02e9 12       		.uleb128 0x12
 4087 02ea 06       		.uleb128 0x6
 4088 02eb 58       		.uleb128 0x58
 4089 02ec 0B       		.uleb128 0xb
 4090 02ed 59       		.uleb128 0x59
 4091 02ee 0B       		.uleb128 0xb
 4092 02ef 00       		.byte	0
 4093 02f0 00       		.byte	0
 4094 02f1 3A       		.uleb128 0x3a
 4095 02f2 0B       		.uleb128 0xb
 4096 02f3 01       		.byte	0x1
 4097 02f4 11       		.uleb128 0x11
ARM GAS  C:\Users\IDONNO~1\AppData\Local\Temp\ccrHXc7a.s 			page 73


 4098 02f5 01       		.uleb128 0x1
 4099 02f6 12       		.uleb128 0x12
 4100 02f7 06       		.uleb128 0x6
 4101 02f8 00       		.byte	0
 4102 02f9 00       		.byte	0
 4103 02fa 3B       		.uleb128 0x3b
 4104 02fb 1D       		.uleb128 0x1d
 4105 02fc 01       		.byte	0x1
 4106 02fd 31       		.uleb128 0x31
 4107 02fe 13       		.uleb128 0x13
 4108 02ff 11       		.uleb128 0x11
 4109 0300 01       		.uleb128 0x1
 4110 0301 12       		.uleb128 0x12
 4111 0302 06       		.uleb128 0x6
 4112 0303 58       		.uleb128 0x58
 4113 0304 0B       		.uleb128 0xb
 4114 0305 59       		.uleb128 0x59
 4115 0306 05       		.uleb128 0x5
 4116 0307 00       		.byte	0
 4117 0308 00       		.byte	0
 4118 0309 3C       		.uleb128 0x3c
 4119 030a 34       		.uleb128 0x34
 4120 030b 00       		.byte	0
 4121 030c 31       		.uleb128 0x31
 4122 030d 13       		.uleb128 0x13
 4123 030e 02       		.uleb128 0x2
 4124 030f 17       		.uleb128 0x17
 4125 0310 00       		.byte	0
 4126 0311 00       		.byte	0
 4127 0312 3D       		.uleb128 0x3d
 4128 0313 2E       		.uleb128 0x2e
 4129 0314 01       		.byte	0x1
 4130 0315 3F       		.uleb128 0x3f
 4131 0316 19       		.uleb128 0x19
 4132 0317 03       		.uleb128 0x3
 4133 0318 0E       		.uleb128 0xe
 4134 0319 3A       		.uleb128 0x3a
 4135 031a 0B       		.uleb128 0xb
 4136 031b 3B       		.uleb128 0x3b
 4137 031c 0B       		.uleb128 0xb
 4138 031d 27       		.uleb128 0x27
 4139 031e 19       		.uleb128 0x19
 4140 031f 11       		.uleb128 0x11
 4141 0320 01       		.uleb128 0x1
 4142 0321 12       		.uleb128 0x12
 4143 0322 06       		.uleb128 0x6
 4144 0323 40       		.uleb128 0x40
 4145 0324 18       		.uleb128 0x18
 4146 0325 9742     		.uleb128 0x2117
 4147 0327 19       		.uleb128 0x19
 4148 0328 01       		.uleb128 0x1
 4149 0329 13       		.uleb128 0x13
 4150 032a 00       		.byte	0
 4151 032b 00       		.byte	0
 4152 032c 3E       		.uleb128 0x3e
 4153 032d 05       		.uleb128 0x5
 4154 032e 00       		.byte	0
ARM GAS  C:\Users\IDONNO~1\AppData\Local\Temp\ccrHXc7a.s 			page 74


 4155 032f 03       		.uleb128 0x3
 4156 0330 0E       		.uleb128 0xe
 4157 0331 3A       		.uleb128 0x3a
 4158 0332 0B       		.uleb128 0xb
 4159 0333 3B       		.uleb128 0x3b
 4160 0334 0B       		.uleb128 0xb
 4161 0335 49       		.uleb128 0x49
 4162 0336 13       		.uleb128 0x13
 4163 0337 02       		.uleb128 0x2
 4164 0338 18       		.uleb128 0x18
 4165 0339 00       		.byte	0
 4166 033a 00       		.byte	0
 4167 033b 3F       		.uleb128 0x3f
 4168 033c 34       		.uleb128 0x34
 4169 033d 00       		.byte	0
 4170 033e 03       		.uleb128 0x3
 4171 033f 0E       		.uleb128 0xe
 4172 0340 3A       		.uleb128 0x3a
 4173 0341 0B       		.uleb128 0xb
 4174 0342 3B       		.uleb128 0x3b
 4175 0343 0B       		.uleb128 0xb
 4176 0344 49       		.uleb128 0x49
 4177 0345 13       		.uleb128 0x13
 4178 0346 02       		.uleb128 0x2
 4179 0347 18       		.uleb128 0x18
 4180 0348 00       		.byte	0
 4181 0349 00       		.byte	0
 4182 034a 40       		.uleb128 0x40
 4183 034b 34       		.uleb128 0x34
 4184 034c 00       		.byte	0
 4185 034d 03       		.uleb128 0x3
 4186 034e 0E       		.uleb128 0xe
 4187 034f 3A       		.uleb128 0x3a
 4188 0350 0B       		.uleb128 0xb
 4189 0351 3B       		.uleb128 0x3b
 4190 0352 05       		.uleb128 0x5
 4191 0353 49       		.uleb128 0x49
 4192 0354 13       		.uleb128 0x13
 4193 0355 3F       		.uleb128 0x3f
 4194 0356 19       		.uleb128 0x19
 4195 0357 3C       		.uleb128 0x3c
 4196 0358 19       		.uleb128 0x19
 4197 0359 00       		.byte	0
 4198 035a 00       		.byte	0
 4199 035b 41       		.uleb128 0x41
 4200 035c 34       		.uleb128 0x34
 4201 035d 00       		.byte	0
 4202 035e 03       		.uleb128 0x3
 4203 035f 08       		.uleb128 0x8
 4204 0360 3A       		.uleb128 0x3a
 4205 0361 0B       		.uleb128 0xb
 4206 0362 3B       		.uleb128 0x3b
 4207 0363 05       		.uleb128 0x5
 4208 0364 49       		.uleb128 0x49
 4209 0365 13       		.uleb128 0x13
 4210 0366 3F       		.uleb128 0x3f
 4211 0367 19       		.uleb128 0x19
ARM GAS  C:\Users\IDONNO~1\AppData\Local\Temp\ccrHXc7a.s 			page 75


 4212 0368 3C       		.uleb128 0x3c
 4213 0369 19       		.uleb128 0x19
 4214 036a 00       		.byte	0
 4215 036b 00       		.byte	0
 4216 036c 42       		.uleb128 0x42
 4217 036d 21       		.uleb128 0x21
 4218 036e 00       		.byte	0
 4219 036f 00       		.byte	0
 4220 0370 00       		.byte	0
 4221 0371 43       		.uleb128 0x43
 4222 0372 34       		.uleb128 0x34
 4223 0373 00       		.byte	0
 4224 0374 03       		.uleb128 0x3
 4225 0375 0E       		.uleb128 0xe
 4226 0376 3A       		.uleb128 0x3a
 4227 0377 0B       		.uleb128 0xb
 4228 0378 3B       		.uleb128 0x3b
 4229 0379 0B       		.uleb128 0xb
 4230 037a 49       		.uleb128 0x49
 4231 037b 13       		.uleb128 0x13
 4232 037c 3F       		.uleb128 0x3f
 4233 037d 19       		.uleb128 0x19
 4234 037e 3C       		.uleb128 0x3c
 4235 037f 19       		.uleb128 0x19
 4236 0380 00       		.byte	0
 4237 0381 00       		.byte	0
 4238 0382 44       		.uleb128 0x44
 4239 0383 2E       		.uleb128 0x2e
 4240 0384 00       		.byte	0
 4241 0385 3F       		.uleb128 0x3f
 4242 0386 19       		.uleb128 0x19
 4243 0387 3C       		.uleb128 0x3c
 4244 0388 19       		.uleb128 0x19
 4245 0389 6E       		.uleb128 0x6e
 4246 038a 0E       		.uleb128 0xe
 4247 038b 03       		.uleb128 0x3
 4248 038c 0E       		.uleb128 0xe
 4249 038d 3A       		.uleb128 0x3a
 4250 038e 0B       		.uleb128 0xb
 4251 038f 3B       		.uleb128 0x3b
 4252 0390 0B       		.uleb128 0xb
 4253 0391 00       		.byte	0
 4254 0392 00       		.byte	0
 4255 0393 00       		.byte	0
 4256              		.section	.debug_loc,"",%progbits
 4257              	.Ldebug_loc0:
 4258              	.LLST0:
 4259 0000 0E000000 		.4byte	.LVL0
 4260 0004 3A000000 		.4byte	.LVL5
 4261 0008 0100     		.2byte	0x1
 4262 000a 54       		.byte	0x54
 4263 000b 00000000 		.4byte	0
 4264 000f 00000000 		.4byte	0
 4265              	.LLST1:
 4266 0013 0E000000 		.4byte	.LVL0
 4267 0017 36000000 		.4byte	.LVL3
 4268 001b 0100     		.2byte	0x1
ARM GAS  C:\Users\IDONNO~1\AppData\Local\Temp\ccrHXc7a.s 			page 76


 4269 001d 55       		.byte	0x55
 4270 001e 38000000 		.4byte	.LVL4
 4271 0022 3A000000 		.4byte	.LVL5
 4272 0026 0100     		.2byte	0x1
 4273 0028 55       		.byte	0x55
 4274 0029 00000000 		.4byte	0
 4275 002d 00000000 		.4byte	0
 4276              	.LLST2:
 4277 0031 00000000 		.4byte	.LVL6
 4278 0035 0C000000 		.4byte	.LVL7
 4279 0039 0100     		.2byte	0x1
 4280 003b 50       		.byte	0x50
 4281 003c 0C000000 		.4byte	.LVL7
 4282 0040 0F000000 		.4byte	.LVL8-1
 4283 0044 0300     		.2byte	0x3
 4284 0046 70       		.byte	0x70
 4285 0047 72       		.sleb128 -14
 4286 0048 9F       		.byte	0x9f
 4287 0049 0F000000 		.4byte	.LVL8-1
 4288 004d 10000000 		.4byte	.LVL8
 4289 0051 0400     		.2byte	0x4
 4290 0053 F3       		.byte	0xf3
 4291 0054 01       		.uleb128 0x1
 4292 0055 50       		.byte	0x50
 4293 0056 9F       		.byte	0x9f
 4294 0057 10000000 		.4byte	.LVL8
 4295 005b 12000000 		.4byte	.LVL9
 4296 005f 0100     		.2byte	0x1
 4297 0061 50       		.byte	0x50
 4298 0062 12000000 		.4byte	.LVL9
 4299 0066 15000000 		.4byte	.LVL10-1
 4300 006a 0300     		.2byte	0x3
 4301 006c 70       		.byte	0x70
 4302 006d 0E       		.sleb128 14
 4303 006e 9F       		.byte	0x9f
 4304 006f 15000000 		.4byte	.LVL10-1
 4305 0073 16000000 		.4byte	.LVL10
 4306 0077 0400     		.2byte	0x4
 4307 0079 F3       		.byte	0xf3
 4308 007a 01       		.uleb128 0x1
 4309 007b 50       		.byte	0x50
 4310 007c 9F       		.byte	0x9f
 4311 007d 16000000 		.4byte	.LVL10
 4312 0081 19000000 		.4byte	.LVL11-1
 4313 0085 0100     		.2byte	0x1
 4314 0087 50       		.byte	0x50
 4315 0088 19000000 		.4byte	.LVL11-1
 4316 008c 20000000 		.4byte	.LFE262
 4317 0090 0400     		.2byte	0x4
 4318 0092 F3       		.byte	0xf3
 4319 0093 01       		.uleb128 0x1
 4320 0094 50       		.byte	0x50
 4321 0095 9F       		.byte	0x9f
 4322 0096 00000000 		.4byte	0
 4323 009a 00000000 		.4byte	0
 4324              	.LLST3:
 4325 009e 00000000 		.4byte	.LVL6
ARM GAS  C:\Users\IDONNO~1\AppData\Local\Temp\ccrHXc7a.s 			page 77


 4326 00a2 0F000000 		.4byte	.LVL8-1
 4327 00a6 0100     		.2byte	0x1
 4328 00a8 51       		.byte	0x51
 4329 00a9 0F000000 		.4byte	.LVL8-1
 4330 00ad 10000000 		.4byte	.LVL8
 4331 00b1 0400     		.2byte	0x4
 4332 00b3 F3       		.byte	0xf3
 4333 00b4 01       		.uleb128 0x1
 4334 00b5 51       		.byte	0x51
 4335 00b6 9F       		.byte	0x9f
 4336 00b7 10000000 		.4byte	.LVL8
 4337 00bb 15000000 		.4byte	.LVL10-1
 4338 00bf 0100     		.2byte	0x1
 4339 00c1 51       		.byte	0x51
 4340 00c2 15000000 		.4byte	.LVL10-1
 4341 00c6 16000000 		.4byte	.LVL10
 4342 00ca 0400     		.2byte	0x4
 4343 00cc F3       		.byte	0xf3
 4344 00cd 01       		.uleb128 0x1
 4345 00ce 51       		.byte	0x51
 4346 00cf 9F       		.byte	0x9f
 4347 00d0 16000000 		.4byte	.LVL10
 4348 00d4 19000000 		.4byte	.LVL11-1
 4349 00d8 0100     		.2byte	0x1
 4350 00da 51       		.byte	0x51
 4351 00db 19000000 		.4byte	.LVL11-1
 4352 00df 20000000 		.4byte	.LFE262
 4353 00e3 0400     		.2byte	0x4
 4354 00e5 F3       		.byte	0xf3
 4355 00e6 01       		.uleb128 0x1
 4356 00e7 51       		.byte	0x51
 4357 00e8 9F       		.byte	0x9f
 4358 00e9 00000000 		.4byte	0
 4359 00ed 00000000 		.4byte	0
 4360              	.LLST4:
 4361 00f1 00000000 		.4byte	.LVL12
 4362 00f5 21000000 		.4byte	.LVL14-1
 4363 00f9 0100     		.2byte	0x1
 4364 00fb 50       		.byte	0x50
 4365 00fc 21000000 		.4byte	.LVL14-1
 4366 0100 A6030000 		.4byte	.LFE259
 4367 0104 0400     		.2byte	0x4
 4368 0106 F3       		.byte	0xf3
 4369 0107 01       		.uleb128 0x1
 4370 0108 50       		.byte	0x50
 4371 0109 9F       		.byte	0x9f
 4372 010a 00000000 		.4byte	0
 4373 010e 00000000 		.4byte	0
 4374              	.LLST5:
 4375 0112 1E000000 		.4byte	.LVL13
 4376 0116 34000000 		.4byte	.LVL15
 4377 011a 0600     		.2byte	0x6
 4378 011c 9E       		.byte	0x9e
 4379 011d 04       		.uleb128 0x4
 4380 011e 00000000 		.4byte	0
 4381 0122 1E010000 		.4byte	.LVL40
 4382 0126 2C010000 		.4byte	.LVL41
ARM GAS  C:\Users\IDONNO~1\AppData\Local\Temp\ccrHXc7a.s 			page 78


 4383 012a 0200     		.2byte	0x2
 4384 012c 90       		.byte	0x90
 4385 012d 40       		.uleb128 0x40
 4386 012e 00000000 		.4byte	0
 4387 0132 00000000 		.4byte	0
 4388              	.LLST6:
 4389 0136 00000000 		.4byte	.LVL12
 4390 013a 1E000000 		.4byte	.LVL13
 4391 013e 0600     		.2byte	0x6
 4392 0140 03       		.byte	0x3
 4393 0141 00000000 		.4byte	.LC0
 4394 0145 9F       		.byte	0x9f
 4395 0146 00000000 		.4byte	0
 4396 014a 00000000 		.4byte	0
 4397              	.LLST7:
 4398 014e 22000000 		.4byte	.LVL14
 4399 0152 36000000 		.4byte	.LVL16
 4400 0156 0100     		.2byte	0x1
 4401 0158 50       		.byte	0x50
 4402 0159 B8000000 		.4byte	.LVL35
 4403 015d E4000000 		.4byte	.LVL38
 4404 0161 0100     		.2byte	0x1
 4405 0163 50       		.byte	0x50
 4406 0164 9E010000 		.4byte	.LVL52
 4407 0168 A0010000 		.4byte	.LVL53
 4408 016c 0100     		.2byte	0x1
 4409 016e 50       		.byte	0x50
 4410 016f C8010000 		.4byte	.LVL59
 4411 0173 CA010000 		.4byte	.LVL60
 4412 0177 0100     		.2byte	0x1
 4413 0179 50       		.byte	0x50
 4414 017a EC010000 		.4byte	.LVL65
 4415 017e EE010000 		.4byte	.LVL66
 4416 0182 0100     		.2byte	0x1
 4417 0184 50       		.byte	0x50
 4418 0185 FE010000 		.4byte	.LVL70
 4419 0189 00020000 		.4byte	.LVL71
 4420 018d 0100     		.2byte	0x1
 4421 018f 50       		.byte	0x50
 4422 0190 9A020000 		.4byte	.LVL86
 4423 0194 9C020000 		.4byte	.LVL87
 4424 0198 0100     		.2byte	0x1
 4425 019a 50       		.byte	0x50
 4426 019b 98030000 		.4byte	.LVL108
 4427 019f 9A030000 		.4byte	.LVL109
 4428 01a3 0100     		.2byte	0x1
 4429 01a5 50       		.byte	0x50
 4430 01a6 00000000 		.4byte	0
 4431 01aa 00000000 		.4byte	0
 4432              	.LLST8:
 4433 01ae C8000000 		.4byte	.LVL36
 4434 01b2 E4000000 		.4byte	.LVL38
 4435 01b6 0100     		.2byte	0x1
 4436 01b8 54       		.byte	0x54
 4437 01b9 9E010000 		.4byte	.LVL52
 4438 01bd A0010000 		.4byte	.LVL53
 4439 01c1 0100     		.2byte	0x1
ARM GAS  C:\Users\IDONNO~1\AppData\Local\Temp\ccrHXc7a.s 			page 79


 4440 01c3 54       		.byte	0x54
 4441 01c4 C8010000 		.4byte	.LVL59
 4442 01c8 CA010000 		.4byte	.LVL60
 4443 01cc 0100     		.2byte	0x1
 4444 01ce 54       		.byte	0x54
 4445 01cf EC010000 		.4byte	.LVL65
 4446 01d3 36030000 		.4byte	.LVL101
 4447 01d7 0100     		.2byte	0x1
 4448 01d9 54       		.byte	0x54
 4449 01da 98030000 		.4byte	.LVL108
 4450 01de A6030000 		.4byte	.LFE259
 4451 01e2 0100     		.2byte	0x1
 4452 01e4 54       		.byte	0x54
 4453 01e5 00000000 		.4byte	0
 4454 01e9 00000000 		.4byte	0
 4455              	.LLST9:
 4456 01ed CA000000 		.4byte	.LVL37
 4457 01f1 3A020000 		.4byte	.LVL76
 4458 01f5 0100     		.2byte	0x1
 4459 01f7 55       		.byte	0x55
 4460 01f8 9A020000 		.4byte	.LVL86
 4461 01fc A6030000 		.4byte	.LFE259
 4462 0200 0100     		.2byte	0x1
 4463 0202 55       		.byte	0x55
 4464 0203 00000000 		.4byte	0
 4465 0207 00000000 		.4byte	0
 4466              	.LLST10:
 4467 020b 1E010000 		.4byte	.LVL40
 4468 020f 2C010000 		.4byte	.LVL41
 4469 0213 0200     		.2byte	0x2
 4470 0215 30       		.byte	0x30
 4471 0216 9F       		.byte	0x9f
 4472 0217 2C010000 		.4byte	.LVL41
 4473 021b 38010000 		.4byte	.LVL42
 4474 021f 0100     		.2byte	0x1
 4475 0221 5B       		.byte	0x5b
 4476 0222 38010000 		.4byte	.LVL42
 4477 0226 43010000 		.4byte	.LVL43-1
 4478 022a 0100     		.2byte	0x1
 4479 022c 50       		.byte	0x50
 4480 022d 43010000 		.4byte	.LVL43-1
 4481 0231 78010000 		.4byte	.LVL48
 4482 0235 0100     		.2byte	0x1
 4483 0237 5B       		.byte	0x5b
 4484 0238 78010000 		.4byte	.LVL48
 4485 023c 80010000 		.4byte	.LVL49
 4486 0240 0300     		.2byte	0x3
 4487 0242 7B       		.byte	0x7b
 4488 0243 7F       		.sleb128 -1
 4489 0244 9F       		.byte	0x9f
 4490 0245 80010000 		.4byte	.LVL49
 4491 0249 9E010000 		.4byte	.LVL52
 4492 024d 0100     		.2byte	0x1
 4493 024f 5B       		.byte	0x5b
 4494 0250 36030000 		.4byte	.LVL101
 4495 0254 38030000 		.4byte	.LVL102
 4496 0258 0100     		.2byte	0x1
ARM GAS  C:\Users\IDONNO~1\AppData\Local\Temp\ccrHXc7a.s 			page 80


 4497 025a 50       		.byte	0x50
 4498 025b 38030000 		.4byte	.LVL102
 4499 025f 84030000 		.4byte	.LVL105
 4500 0263 0100     		.2byte	0x1
 4501 0265 5B       		.byte	0x5b
 4502 0266 84030000 		.4byte	.LVL105
 4503 026a 8B030000 		.4byte	.LVL106-1
 4504 026e 0100     		.2byte	0x1
 4505 0270 50       		.byte	0x50
 4506 0271 8B030000 		.4byte	.LVL106-1
 4507 0275 98030000 		.4byte	.LVL108
 4508 0279 0100     		.2byte	0x1
 4509 027b 5B       		.byte	0x5b
 4510 027c 00000000 		.4byte	0
 4511 0280 00000000 		.4byte	0
 4512              	.LLST11:
 4513 0284 A0010000 		.4byte	.LVL53
 4514 0288 B4010000 		.4byte	.LVL55
 4515 028c 0100     		.2byte	0x1
 4516 028e 54       		.byte	0x54
 4517 028f B4010000 		.4byte	.LVL55
 4518 0293 B8010000 		.4byte	.LVL56
 4519 0297 0300     		.2byte	0x3
 4520 0299 74       		.byte	0x74
 4521 029a 7F       		.sleb128 -1
 4522 029b 9F       		.byte	0x9f
 4523 029c B8010000 		.4byte	.LVL56
 4524 02a0 C0010000 		.4byte	.LVL57
 4525 02a4 0100     		.2byte	0x1
 4526 02a6 54       		.byte	0x54
 4527 02a7 00000000 		.4byte	0
 4528 02ab 00000000 		.4byte	0
 4529              	.LLST12:
 4530 02af CA010000 		.4byte	.LVL60
 4531 02b3 DE010000 		.4byte	.LVL62
 4532 02b7 0100     		.2byte	0x1
 4533 02b9 54       		.byte	0x54
 4534 02ba DE010000 		.4byte	.LVL62
 4535 02be E2010000 		.4byte	.LVL63
 4536 02c2 0300     		.2byte	0x3
 4537 02c4 74       		.byte	0x74
 4538 02c5 7F       		.sleb128 -1
 4539 02c6 9F       		.byte	0x9f
 4540 02c7 E2010000 		.4byte	.LVL63
 4541 02cb EC010000 		.4byte	.LVL65
 4542 02cf 0100     		.2byte	0x1
 4543 02d1 54       		.byte	0x54
 4544 02d2 00000000 		.4byte	0
 4545 02d6 00000000 		.4byte	0
 4546              	.LLST13:
 4547 02da 00020000 		.4byte	.LVL71
 4548 02de 1E020000 		.4byte	.LVL73
 4549 02e2 0100     		.2byte	0x1
 4550 02e4 56       		.byte	0x56
 4551 02e5 1E020000 		.4byte	.LVL73
 4552 02e9 22020000 		.4byte	.LVL74
 4553 02ed 0300     		.2byte	0x3
ARM GAS  C:\Users\IDONNO~1\AppData\Local\Temp\ccrHXc7a.s 			page 81


 4554 02ef 76       		.byte	0x76
 4555 02f0 7F       		.sleb128 -1
 4556 02f1 9F       		.byte	0x9f
 4557 02f2 22020000 		.4byte	.LVL74
 4558 02f6 32020000 		.4byte	.LVL75
 4559 02fa 0100     		.2byte	0x1
 4560 02fc 56       		.byte	0x56
 4561 02fd 00000000 		.4byte	0
 4562 0301 00000000 		.4byte	0
 4563              	.LLST14:
 4564 0305 66020000 		.4byte	.LVL80
 4565 0309 72020000 		.4byte	.LVL81
 4566 030d 0300     		.2byte	0x3
 4567 030f 08       		.byte	0x8
 4568 0310 20       		.byte	0x20
 4569 0311 9F       		.byte	0x9f
 4570 0312 00000000 		.4byte	0
 4571 0316 00000000 		.4byte	0
 4572              	.LLST15:
 4573 031a 76020000 		.4byte	.LVL82
 4574 031e 7A020000 		.4byte	.LVL83
 4575 0322 0200     		.2byte	0x2
 4576 0324 30       		.byte	0x30
 4577 0325 9F       		.byte	0x9f
 4578 0326 00000000 		.4byte	0
 4579 032a 00000000 		.4byte	0
 4580              	.LLST16:
 4581 032e 9C020000 		.4byte	.LVL87
 4582 0332 BA020000 		.4byte	.LVL89
 4583 0336 0100     		.2byte	0x1
 4584 0338 56       		.byte	0x56
 4585 0339 BA020000 		.4byte	.LVL89
 4586 033d BE020000 		.4byte	.LVL90
 4587 0341 0300     		.2byte	0x3
 4588 0343 76       		.byte	0x76
 4589 0344 7F       		.sleb128 -1
 4590 0345 9F       		.byte	0x9f
 4591 0346 BE020000 		.4byte	.LVL90
 4592 034a D4020000 		.4byte	.LVL91
 4593 034e 0100     		.2byte	0x1
 4594 0350 56       		.byte	0x56
 4595 0351 00000000 		.4byte	0
 4596 0355 00000000 		.4byte	0
 4597              	.LLST17:
 4598 0359 00030000 		.4byte	.LVL95
 4599 035d 0A030000 		.4byte	.LVL96
 4600 0361 0300     		.2byte	0x3
 4601 0363 08       		.byte	0x8
 4602 0364 20       		.byte	0x20
 4603 0365 9F       		.byte	0x9f
 4604 0366 00000000 		.4byte	0
 4605 036a 00000000 		.4byte	0
 4606              	.LLST18:
 4607 036e 0E030000 		.4byte	.LVL97
 4608 0372 12030000 		.4byte	.LVL98
 4609 0376 0200     		.2byte	0x2
 4610 0378 30       		.byte	0x30
ARM GAS  C:\Users\IDONNO~1\AppData\Local\Temp\ccrHXc7a.s 			page 82


 4611 0379 9F       		.byte	0x9f
 4612 037a 00000000 		.4byte	0
 4613 037e 00000000 		.4byte	0
 4614              	.LLST19:
 4615 0382 5C000000 		.4byte	.LVL22
 4616 0386 6A000000 		.4byte	.LVL23
 4617 038a 0600     		.2byte	0x6
 4618 038c 9E       		.byte	0x9e
 4619 038d 04       		.uleb128 0x4
 4620 038e 0000803F 		.4byte	0x3f800000
 4621 0392 6A000000 		.4byte	.LVL23
 4622 0396 AE000000 		.4byte	.LVL33
 4623 039a 0200     		.2byte	0x2
 4624 039c 90       		.byte	0x90
 4625 039d 50       		.uleb128 0x50
 4626 039e 00000000 		.4byte	0
 4627 03a2 00000000 		.4byte	0
 4628              	.LLST20:
 4629 03a6 3A000000 		.4byte	.LVL17
 4630 03aa 3C000000 		.4byte	.LVL18
 4631 03ae 0200     		.2byte	0x2
 4632 03b0 30       		.byte	0x30
 4633 03b1 9F       		.byte	0x9f
 4634 03b2 3C000000 		.4byte	.LVL18
 4635 03b6 48000000 		.4byte	.LVL20
 4636 03ba 0100     		.2byte	0x1
 4637 03bc 54       		.byte	0x54
 4638 03bd 48000000 		.4byte	.LVL20
 4639 03c1 50000000 		.4byte	.LVL21
 4640 03c5 0300     		.2byte	0x3
 4641 03c7 74       		.byte	0x74
 4642 03c8 7F       		.sleb128 -1
 4643 03c9 9F       		.byte	0x9f
 4644 03ca 50000000 		.4byte	.LVL21
 4645 03ce 6A000000 		.4byte	.LVL23
 4646 03d2 0100     		.2byte	0x1
 4647 03d4 54       		.byte	0x54
 4648 03d5 00000000 		.4byte	0
 4649 03d9 00000000 		.4byte	0
 4650              	.LLST21:
 4651 03dd 5C000000 		.4byte	.LVL22
 4652 03e1 6A000000 		.4byte	.LVL23
 4653 03e5 0200     		.2byte	0x2
 4654 03e7 30       		.byte	0x30
 4655 03e8 9F       		.byte	0x9f
 4656 03e9 6A000000 		.4byte	.LVL23
 4657 03ed AA000000 		.4byte	.LVL31
 4658 03f1 0600     		.2byte	0x6
 4659 03f3 08       		.byte	0x8
 4660 03f4 32       		.byte	0x32
 4661 03f5 76       		.byte	0x76
 4662 03f6 00       		.sleb128 0
 4663 03f7 1C       		.byte	0x1c
 4664 03f8 9F       		.byte	0x9f
 4665 03f9 AA000000 		.4byte	.LVL31
 4666 03fd AC000000 		.4byte	.LVL32
 4667 0401 0600     		.2byte	0x6
ARM GAS  C:\Users\IDONNO~1\AppData\Local\Temp\ccrHXc7a.s 			page 83


 4668 0403 08       		.byte	0x8
 4669 0404 33       		.byte	0x33
 4670 0405 76       		.byte	0x76
 4671 0406 00       		.sleb128 0
 4672 0407 1C       		.byte	0x1c
 4673 0408 9F       		.byte	0x9f
 4674 0409 AC000000 		.4byte	.LVL32
 4675 040d AE000000 		.4byte	.LVL33
 4676 0411 0600     		.2byte	0x6
 4677 0413 08       		.byte	0x8
 4678 0414 32       		.byte	0x32
 4679 0415 76       		.byte	0x76
 4680 0416 00       		.sleb128 0
 4681 0417 1C       		.byte	0x1c
 4682 0418 9F       		.byte	0x9f
 4683 0419 00000000 		.4byte	0
 4684 041d 00000000 		.4byte	0
 4685              	.LLST22:
 4686 0421 6E000000 		.4byte	.LVL24
 4687 0425 92000000 		.4byte	.LVL26
 4688 0429 0200     		.2byte	0x2
 4689 042b 90       		.byte	0x90
 4690 042c 50       		.uleb128 0x50
 4691 042d 00000000 		.4byte	0
 4692 0431 00000000 		.4byte	0
 4693              	.LLST23:
 4694 0435 6E000000 		.4byte	.LVL24
 4695 0439 92000000 		.4byte	.LVL26
 4696 043d 0500     		.2byte	0x5
 4697 043f 08       		.byte	0x8
 4698 0440 FF       		.byte	0xff
 4699 0441 40       		.byte	0x40
 4700 0442 24       		.byte	0x24
 4701 0443 9F       		.byte	0x9f
 4702 0444 00000000 		.4byte	0
 4703 0448 00000000 		.4byte	0
 4704              	.LLST24:
 4705 044c 6E000000 		.4byte	.LVL24
 4706 0450 92000000 		.4byte	.LVL26
 4707 0454 0E00     		.2byte	0xe
 4708 0456 F5       		.byte	0xf5
 4709 0457 50       		.uleb128 0x50
 4710 0458 25       		.uleb128 0x25
 4711 0459 F4       		.byte	0xf4
 4712 045a 25       		.uleb128 0x25
 4713 045b 04       		.byte	0x4
 4714 045c 00007F43 		.4byte	0x437f0000
 4715 0460 1E       		.byte	0x1e
 4716 0461 F7       		.byte	0xf7
 4717 0462 2C       		.uleb128 0x2c
 4718 0463 9F       		.byte	0x9f
 4719 0464 00000000 		.4byte	0
 4720 0468 00000000 		.4byte	0
 4721              	.LLST25:
 4722 046c 6E000000 		.4byte	.LVL24
 4723 0470 82000000 		.4byte	.LVL25
 4724 0474 0200     		.2byte	0x2
ARM GAS  C:\Users\IDONNO~1\AppData\Local\Temp\ccrHXc7a.s 			page 84


 4725 0476 30       		.byte	0x30
 4726 0477 9F       		.byte	0x9f
 4727 0478 82000000 		.4byte	.LVL25
 4728 047c 92000000 		.4byte	.LVL26
 4729 0480 0100     		.2byte	0x1
 4730 0482 54       		.byte	0x54
 4731 0483 00000000 		.4byte	0
 4732 0487 00000000 		.4byte	0
 4733              	.LLST27:
 4734 048b 92000000 		.4byte	.LVL26
 4735 048f 94000000 		.4byte	.LVL27
 4736 0493 0200     		.2byte	0x2
 4737 0495 30       		.byte	0x30
 4738 0496 9F       		.byte	0x9f
 4739 0497 94000000 		.4byte	.LVL27
 4740 049b 9C000000 		.4byte	.LVL28
 4741 049f 0100     		.2byte	0x1
 4742 04a1 5B       		.byte	0x5b
 4743 04a2 9C000000 		.4byte	.LVL28
 4744 04a6 9F000000 		.4byte	.LVL29-1
 4745 04aa 0100     		.2byte	0x1
 4746 04ac 50       		.byte	0x50
 4747 04ad 9F000000 		.4byte	.LVL29-1
 4748 04b1 A0000000 		.4byte	.LVL29
 4749 04b5 0300     		.2byte	0x3
 4750 04b7 7B       		.byte	0x7b
 4751 04b8 7F       		.sleb128 -1
 4752 04b9 9F       		.byte	0x9f
 4753 04ba A0000000 		.4byte	.LVL29
 4754 04be A4000000 		.4byte	.LVL30
 4755 04c2 0100     		.2byte	0x1
 4756 04c4 5B       		.byte	0x5b
 4757 04c5 00000000 		.4byte	0
 4758 04c9 00000000 		.4byte	0
 4759              		.section	.debug_aranges,"",%progbits
 4760 0000 44000000 		.4byte	0x44
 4761 0004 0200     		.2byte	0x2
 4762 0006 00000000 		.4byte	.Ldebug_info0
 4763 000a 04       		.byte	0x4
 4764 000b 00       		.byte	0
 4765 000c 0000     		.2byte	0
 4766 000e 0000     		.2byte	0
 4767 0010 00000000 		.4byte	.LFB261
 4768 0014 44000000 		.4byte	.LFE261-.LFB261
 4769 0018 00000000 		.4byte	.LFB262
 4770 001c 20000000 		.4byte	.LFE262-.LFB262
 4771 0020 00000000 		.4byte	.LFB259
 4772 0024 A6030000 		.4byte	.LFE259-.LFB259
 4773 0028 00000000 		.4byte	.LFB256
 4774 002c 34000000 		.4byte	.LFE256-.LFB256
 4775 0030 00000000 		.4byte	.LFB257
 4776 0034 0C000000 		.4byte	.LFE257-.LFB257
 4777 0038 00000000 		.4byte	.LFB258
 4778 003c 0C000000 		.4byte	.LFE258-.LFB258
 4779 0040 00000000 		.4byte	0
 4780 0044 00000000 		.4byte	0
 4781              		.section	.debug_ranges,"",%progbits
ARM GAS  C:\Users\IDONNO~1\AppData\Local\Temp\ccrHXc7a.s 			page 85


 4782              	.Ldebug_ranges0:
 4783 0000 0A000000 		.4byte	.LBB70
 4784 0004 0C000000 		.4byte	.LBE70
 4785 0008 0E000000 		.4byte	.LBB71
 4786 000c 44000000 		.4byte	.LBE71
 4787 0010 00000000 		.4byte	0
 4788 0014 00000000 		.4byte	0
 4789 0018 04000000 		.4byte	.LBB72
 4790 001c 14000000 		.4byte	.LBE72
 4791 0020 1C000000 		.4byte	.LBB139
 4792 0024 1E000000 		.4byte	.LBE139
 4793 0028 00000000 		.4byte	0
 4794 002c 00000000 		.4byte	0
 4795 0030 14000000 		.4byte	.LBB75
 4796 0034 18000000 		.4byte	.LBE75
 4797 0038 1E000000 		.4byte	.LBB140
 4798 003c A6030000 		.4byte	.LBE140
 4799 0040 00000000 		.4byte	0
 4800 0044 00000000 		.4byte	0
 4801 0048 14000000 		.4byte	.LBB76
 4802 004c 18000000 		.4byte	.LBE76
 4803 0050 24000000 		.4byte	.LBB122
 4804 0054 30000000 		.4byte	.LBE122
 4805 0058 BE000000 		.4byte	.LBB135
 4806 005c 96010000 		.4byte	.LBE135
 4807 0060 9E010000 		.4byte	.LBB136
 4808 0064 C0010000 		.4byte	.LBE136
 4809 0068 C8010000 		.4byte	.LBB137
 4810 006c F6010000 		.4byte	.LBE137
 4811 0070 FE010000 		.4byte	.LBB138
 4812 0074 9E030000 		.4byte	.LBE138
 4813 0078 00000000 		.4byte	0
 4814 007c 00000000 		.4byte	0
 4815 0080 22010000 		.4byte	.LBB77
 4816 0084 28010000 		.4byte	.LBE77
 4817 0088 2C010000 		.4byte	.LBB78
 4818 008c 8A010000 		.4byte	.LBE78
 4819 0090 36030000 		.4byte	.LBB121
 4820 0094 98030000 		.4byte	.LBE121
 4821 0098 00000000 		.4byte	0
 4822 009c 00000000 		.4byte	0
 4823 00a0 36020000 		.4byte	.LBB82
 4824 00a4 3A020000 		.4byte	.LBE82
 4825 00a8 6E020000 		.4byte	.LBB100
 4826 00ac 7A020000 		.4byte	.LBE100
 4827 00b0 00000000 		.4byte	0
 4828 00b4 00000000 		.4byte	0
 4829 00b8 36020000 		.4byte	.LBB84
 4830 00bc 3A020000 		.4byte	.LBE84
 4831 00c0 6E020000 		.4byte	.LBB91
 4832 00c4 72020000 		.4byte	.LBE91
 4833 00c8 00000000 		.4byte	0
 4834 00cc 00000000 		.4byte	0
 4835 00d0 D0020000 		.4byte	.LBB102
 4836 00d4 D4020000 		.4byte	.LBE102
 4837 00d8 06030000 		.4byte	.LBB120
 4838 00dc 12030000 		.4byte	.LBE120
ARM GAS  C:\Users\IDONNO~1\AppData\Local\Temp\ccrHXc7a.s 			page 86


 4839 00e0 00000000 		.4byte	0
 4840 00e4 00000000 		.4byte	0
 4841 00e8 D0020000 		.4byte	.LBB104
 4842 00ec D4020000 		.4byte	.LBE104
 4843 00f0 06030000 		.4byte	.LBB111
 4844 00f4 0A030000 		.4byte	.LBE111
 4845 00f8 00000000 		.4byte	0
 4846 00fc 00000000 		.4byte	0
 4847 0100 5C000000 		.4byte	.LBB125
 4848 0104 64000000 		.4byte	.LBE125
 4849 0108 6A000000 		.4byte	.LBB134
 4850 010c AE000000 		.4byte	.LBE134
 4851 0110 00000000 		.4byte	0
 4852 0114 00000000 		.4byte	0
 4853 0118 5C000000 		.4byte	.LBB126
 4854 011c 64000000 		.4byte	.LBE126
 4855 0120 6A000000 		.4byte	.LBB133
 4856 0124 AA000000 		.4byte	.LBE133
 4857 0128 00000000 		.4byte	0
 4858 012c 00000000 		.4byte	0
 4859 0130 60000000 		.4byte	.LBB127
 4860 0134 64000000 		.4byte	.LBE127
 4861 0138 72000000 		.4byte	.LBB131
 4862 013c 92000000 		.4byte	.LBE131
 4863 0140 00000000 		.4byte	0
 4864 0144 00000000 		.4byte	0
 4865 0148 6E000000 		.4byte	.LBB130
 4866 014c 72000000 		.4byte	.LBE130
 4867 0150 92000000 		.4byte	.LBB132
 4868 0154 A4000000 		.4byte	.LBE132
 4869 0158 00000000 		.4byte	0
 4870 015c 00000000 		.4byte	0
 4871 0160 00000000 		.4byte	.LFB261
 4872 0164 44000000 		.4byte	.LFE261
 4873 0168 00000000 		.4byte	.LFB262
 4874 016c 20000000 		.4byte	.LFE262
 4875 0170 00000000 		.4byte	.LFB259
 4876 0174 A6030000 		.4byte	.LFE259
 4877 0178 00000000 		.4byte	.LFB256
 4878 017c 34000000 		.4byte	.LFE256
 4879 0180 00000000 		.4byte	.LFB257
 4880 0184 0C000000 		.4byte	.LFE257
 4881 0188 00000000 		.4byte	.LFB258
 4882 018c 0C000000 		.4byte	.LFE258
 4883 0190 00000000 		.4byte	0
 4884 0194 00000000 		.4byte	0
 4885              		.section	.debug_line,"",%progbits
 4886              	.Ldebug_line0:
 4887 0000 3E050000 		.section	.debug_str,"MS",%progbits,1
 4887      02000B03 
 4887      00000201 
 4887      FB0E0D00 
 4887      01010101 
 4888              	.LASF135:
 4889 0000 7363616C 		.ascii	"scale\000"
 4889      6500
 4890              	.LASF57:
ARM GAS  C:\Users\IDONNO~1\AppData\Local\Temp\ccrHXc7a.s 			page 87


 4891 0006 72656164 		.ascii	"ready_list_t\000"
 4891      795F6C69 
 4891      73745F74 
 4891      00
 4892              	.LASF20:
 4893 0013 73697A65 		.ascii	"size_t\000"
 4893      5F7400
 4894              	.LASF92:
 4895 001a 7264796D 		.ascii	"rdymsg\000"
 4895      736700
 4896              	.LASF116:
 4897 0021 4C45445F 		.ascii	"LED_EXT_STATE\000"
 4897      4558545F 
 4897      53544154 
 4897      4500
 4898              	.LASF19:
 4899 002f 75696E74 		.ascii	"uint64_t\000"
 4899      36345F74 
 4899      00
 4900              	.LASF119:
 4901 0038 4641554C 		.ascii	"FAULT_CODE_OVER_VOLTAGE\000"
 4901      545F434F 
 4901      44455F4F 
 4901      5645525F 
 4901      564F4C54 
 4902              	.LASF5:
 4903 0050 5F5F7569 		.ascii	"__uint8_t\000"
 4903      6E74385F 
 4903      7400
 4904              	.LASF89:
 4905 005a 706F7274 		.ascii	"port_intctx\000"
 4905      5F696E74 
 4905      63747800 
 4906              	.LASF82:
 4907 0066 76746C69 		.ascii	"vtlist\000"
 4907      737400
 4908              	.LASF126:
 4909 006d 706F7274 		.ascii	"port_lock\000"
 4909      5F6C6F63 
 4909      6B00
 4910              	.LASF108:
 4911 0077 4C45445F 		.ascii	"LED_EXT_OFF\000"
 4911      4558545F 
 4911      4F464600 
 4912              	.LASF14:
 4913 0083 6C6F6E67 		.ascii	"long long unsigned int\000"
 4913      206C6F6E 
 4913      6720756E 
 4913      7369676E 
 4913      65642069 
 4914              	.LASF83:
 4915 009a 6D61696E 		.ascii	"mainthread\000"
 4915      74687265 
 4915      616400
 4916              	.LASF73:
 4917 00a5 76697274 		.ascii	"virtual_timers_list_t\000"
 4917      75616C5F 
ARM GAS  C:\Users\IDONNO~1\AppData\Local\Temp\ccrHXc7a.s 			page 88


 4917      74696D65 
 4917      72735F6C 
 4917      6973745F 
 4918              	.LASF157:
 4919 00bb 49544D5F 		.ascii	"ITM_RxBuffer\000"
 4919      52784275 
 4919      66666572 
 4919      00
 4920              	.LASF56:
 4921 00c8 63685F74 		.ascii	"ch_threads_queue\000"
 4921      68726561 
 4921      64735F71 
 4921      75657565 
 4921      00
 4922              	.LASF120:
 4923 00d9 4641554C 		.ascii	"FAULT_CODE_UNDER_VOLTAGE\000"
 4923      545F434F 
 4923      44455F55 
 4923      4E444552 
 4923      5F564F4C 
 4924              	.LASF34:
 4925 00f2 705F7072 		.ascii	"p_prio\000"
 4925      696F00
 4926              	.LASF12:
 4927 00f9 6C6F6E67 		.ascii	"long long int\000"
 4927      206C6F6E 
 4927      6720696E 
 4927      7400
 4928              	.LASF2:
 4929 0107 7369676E 		.ascii	"signed char\000"
 4929      65642063 
 4929      68617200 
 4930              	.LASF151:
 4931 0113 6E65775F 		.ascii	"new_state\000"
 4931      73746174 
 4931      6500
 4932              	.LASF50:
 4933 011d 705F6D70 		.ascii	"p_mpool\000"
 4933      6F6F6C00 
 4934              	.LASF103:
 4935 0125 6D5F7175 		.ascii	"m_queue\000"
 4935      65756500 
 4936              	.LASF144:
 4937 012d 6661756C 		.ascii	"fault\000"
 4937      7400
 4938              	.LASF127:
 4939 0133 706F7274 		.ascii	"port_unlock\000"
 4939      5F756E6C 
 4939      6F636B00 
 4940              	.LASF25:
 4941 013f 74736C69 		.ascii	"tslices_t\000"
 4941      6365735F 
 4941      7400
 4942              	.LASF94:
 4943 0149 77746F62 		.ascii	"wtobjp\000"
 4943      6A7000
 4944              	.LASF155:
ARM GAS  C:\Users\IDONNO~1\AppData\Local\Temp\ccrHXc7a.s 			page 89


 4945 0150 73746174 		.ascii	"state\000"
 4945      6500
 4946              	.LASF80:
 4947 0156 63685F73 		.ascii	"ch_system\000"
 4947      79737465 
 4947      6D00
 4948              	.LASF9:
 4949 0160 6C6F6E67 		.ascii	"long int\000"
 4949      20696E74 
 4949      00
 4950              	.LASF122:
 4951 0169 4641554C 		.ascii	"FAULT_CODE_ABS_OVER_CURRENT\000"
 4951      545F434F 
 4951      44455F41 
 4951      42535F4F 
 4951      5645525F 
 4952              	.LASF161:
 4953 0185 7574696C 		.ascii	"utils_map\000"
 4953      735F6D61 
 4953      7000
 4954              	.LASF114:
 4955 018f 4C45445F 		.ascii	"LED_EXT_BRAKE_TURN_RIGHT\000"
 4955      4558545F 
 4955      4252414B 
 4955      455F5455 
 4955      524E5F52 
 4956              	.LASF16:
 4957 01a8 75696E74 		.ascii	"uint16_t\000"
 4957      31365F74 
 4957      00
 4958              	.LASF23:
 4959 01b1 74737461 		.ascii	"tstate_t\000"
 4959      74655F74 
 4959      00
 4960              	.LASF36:
 4961 01ba 705F6E65 		.ascii	"p_newer\000"
 4961      77657200 
 4962              	.LASF100:
 4963 01c2 735F7175 		.ascii	"s_queue\000"
 4963      65756500 
 4964              	.LASF93:
 4965 01ca 65786974 		.ascii	"exitcode\000"
 4965      636F6465 
 4965      00
 4966              	.LASF62:
 4967 01d3 725F6E65 		.ascii	"r_newer\000"
 4967      77657200 
 4968              	.LASF86:
 4969 01db 72656761 		.ascii	"regarm_t\000"
 4969      726D5F74 
 4969      00
 4970              	.LASF69:
 4971 01e4 76745F70 		.ascii	"vt_prev\000"
 4971      72657600 
 4972              	.LASF107:
 4973 01ec 6D757465 		.ascii	"mutex_t\000"
 4973      785F7400 
ARM GAS  C:\Users\IDONNO~1\AppData\Local\Temp\ccrHXc7a.s 			page 90


 4974              	.LASF132:
 4975 01f4 76616C75 		.ascii	"value\000"
 4975      6500
 4976              	.LASF84:
 4977 01fa 69646C65 		.ascii	"idle_thread_wa\000"
 4977      5F746872 
 4977      6561645F 
 4977      776100
 4978              	.LASF74:
 4979 0209 63685F76 		.ascii	"ch_virtual_timers_list\000"
 4979      69727475 
 4979      616C5F74 
 4979      696D6572 
 4979      735F6C69 
 4980              	.LASF29:
 4981 0220 636E745F 		.ascii	"cnt_t\000"
 4981      7400
 4982              	.LASF167:
 4983 0226 63685654 		.ascii	"chVTGetSystemTimeX\000"
 4983      47657453 
 4983      79737465 
 4983      6D54696D 
 4983      655800
 4984              	.LASF1:
 4985 0239 756E7369 		.ascii	"unsigned int\000"
 4985      676E6564 
 4985      20696E74 
 4985      00
 4986              	.LASF68:
 4987 0246 76745F6E 		.ascii	"vt_next\000"
 4987      65787400 
 4988              	.LASF43:
 4989 024e 705F7469 		.ascii	"p_time\000"
 4989      6D6500
 4990              	.LASF96:
 4991 0255 77747365 		.ascii	"wtsemp\000"
 4991      6D7000
 4992              	.LASF70:
 4993 025c 76745F64 		.ascii	"vt_delta\000"
 4993      656C7461 
 4993      00
 4994              	.LASF76:
 4995 0265 73797374 		.ascii	"system_debug_t\000"
 4995      656D5F64 
 4995      65627567 
 4995      5F7400
 4996              	.LASF143:
 4997 0274 62617474 		.ascii	"batt_level\000"
 4997      5F6C6576 
 4997      656C00
 4998              	.LASF101:
 4999 027f 735F636E 		.ascii	"s_cnt\000"
 4999      7400
 5000              	.LASF133:
 5001 0285 6E616D65 		.ascii	"name\000"
 5001      00
 5002              	.LASF88:
ARM GAS  C:\Users\IDONNO~1\AppData\Local\Temp\ccrHXc7a.s 			page 91


 5003 028a 636F6E74 		.ascii	"context\000"
 5003      65787400 
 5004              	.LASF123:
 5005 0292 4641554C 		.ascii	"FAULT_CODE_OVER_TEMP_FET\000"
 5005      545F434F 
 5005      44455F4F 
 5005      5645525F 
 5005      54454D50 
 5006              	.LASF165:
 5007 02ab 7372632F 		.ascii	"src/core/led_external.c\000"
 5007      636F7265 
 5007      2F6C6564 
 5007      5F657874 
 5007      65726E61 
 5008              	.LASF53:
 5009 02c3 63685F74 		.ascii	"ch_thread\000"
 5009      68726561 
 5009      6400
 5010              	.LASF27:
 5011 02cd 6D73675F 		.ascii	"msg_t\000"
 5011      7400
 5012              	.LASF150:
 5013 02d3 6C65645F 		.ascii	"led_external_set_state\000"
 5013      65787465 
 5013      726E616C 
 5013      5F736574 
 5013      5F737461 
 5014              	.LASF166:
 5015 02ea 443A5C67 		.ascii	"D:\\git\\oroca_bldc_dev\\oroca_bldc_fw\\oroca_bldc_"
 5015      69745C6F 
 5015      726F6361 
 5015      5F626C64 
 5015      635F6465 
 5016 0319 63686962 		.ascii	"chibios\000"
 5016      696F7300 
 5017              	.LASF160:
 5018 0321 77733238 		.ascii	"ws2811_set_led_color\000"
 5018      31315F73 
 5018      65745F6C 
 5018      65645F63 
 5018      6F6C6F72 
 5019              	.LASF79:
 5020 0336 63685F73 		.ascii	"ch_system_t\000"
 5020      79737465 
 5020      6D5F7400 
 5021              	.LASF141:
 5022 0342 77616974 		.ascii	"wait_for_state_change\000"
 5022      5F666F72 
 5022      5F737461 
 5022      74655F63 
 5022      68616E67 
 5023              	.LASF22:
 5024 0358 746D6F64 		.ascii	"tmode_t\000"
 5024      655F7400 
 5025              	.LASF139:
 5026 0360 73797374 		.ascii	"systime\000"
 5026      696D6500 
ARM GAS  C:\Users\IDONNO~1\AppData\Local\Temp\ccrHXc7a.s 			page 92


 5027              	.LASF58:
 5028 0368 63685F72 		.ascii	"ch_ready_list\000"
 5028      65616479 
 5028      5F6C6973 
 5028      7400
 5029              	.LASF28:
 5030 0376 6576656E 		.ascii	"eventmask_t\000"
 5030      746D6173 
 5030      6B5F7400 
 5031              	.LASF8:
 5032 0382 5F5F696E 		.ascii	"__int32_t\000"
 5032      7433325F 
 5032      7400
 5033              	.LASF134:
 5034 038c 636F6C6F 		.ascii	"color\000"
 5034      7200
 5035              	.LASF87:
 5036 0392 73746B61 		.ascii	"stkalign_t\000"
 5036      6C69676E 
 5036      5F7400
 5037              	.LASF163:
 5038 039d 63685468 		.ascii	"chThdCreateStatic\000"
 5038      64437265 
 5038      61746553 
 5038      74617469 
 5038      6300
 5039              	.LASF60:
 5040 03af 725F7072 		.ascii	"r_prio\000"
 5040      696F00
 5041              	.LASF149:
 5042 03b6 6C65645F 		.ascii	"led_external_init\000"
 5042      65787465 
 5042      726E616C 
 5042      5F696E69 
 5042      7400
 5043              	.LASF33:
 5044 03c8 705F7072 		.ascii	"p_prev\000"
 5044      657600
 5045              	.LASF146:
 5046 03cf 7265645F 		.ascii	"red_weak\000"
 5046      7765616B 
 5046      00
 5047              	.LASF162:
 5048 03d8 77733238 		.ascii	"ws2811_set_all\000"
 5048      31315F73 
 5048      65745F61 
 5048      6C6C00
 5049              	.LASF51:
 5050 03e7 74687265 		.ascii	"thread_reference_t\000"
 5050      61645F72 
 5050      65666572 
 5050      656E6365 
 5050      5F7400
 5051              	.LASF140:
 5052 03fa 72657665 		.ascii	"reversed\000"
 5052      72736564 
 5052      00
ARM GAS  C:\Users\IDONNO~1\AppData\Local\Temp\ccrHXc7a.s 			page 93


 5053              	.LASF95:
 5054 0403 77747472 		.ascii	"wttrp\000"
 5054      7000
 5055              	.LASF148:
 5056 0409 7265765F 		.ascii	"rev_last\000"
 5056      6C617374 
 5056      00
 5057              	.LASF91:
 5058 0412 746D5F63 		.ascii	"tm_calibration_t\000"
 5058      616C6962 
 5058      72617469 
 5058      6F6E5F74 
 5058      00
 5059              	.LASF158:
 5060 0423 4144435F 		.ascii	"ADC_Value\000"
 5060      56616C75 
 5060      6500
 5061              	.LASF37:
 5062 042d 705F6F6C 		.ascii	"p_older\000"
 5062      64657200 
 5063              	.LASF61:
 5064 0435 725F6374 		.ascii	"r_ctx\000"
 5064      7800
 5065              	.LASF118:
 5066 043b 4641554C 		.ascii	"FAULT_CODE_NONE\000"
 5066      545F434F 
 5066      44455F4E 
 5066      4F4E4500 
 5067              	.LASF71:
 5068 044b 76745F66 		.ascii	"vt_func\000"
 5068      756E6300 
 5069              	.LASF138:
 5070 0453 63685654 		.ascii	"chVTGetSystemTime\000"
 5070      47657453 
 5070      79737465 
 5070      6D54696D 
 5070      6500
 5071              	.LASF64:
 5072 0465 725F6375 		.ascii	"r_current\000"
 5072      7272656E 
 5072      7400
 5073              	.LASF63:
 5074 046f 725F6F6C 		.ascii	"r_older\000"
 5074      64657200 
 5075              	.LASF124:
 5076 0477 4641554C 		.ascii	"FAULT_CODE_OVER_TEMP_MOTOR\000"
 5076      545F434F 
 5076      44455F4F 
 5076      5645525F 
 5076      54454D50 
 5077              	.LASF13:
 5078 0492 5F5F7569 		.ascii	"__uint64_t\000"
 5078      6E743634 
 5078      5F7400
 5079              	.LASF0:
 5080 049d 666C6F61 		.ascii	"float\000"
 5080      7400
ARM GAS  C:\Users\IDONNO~1\AppData\Local\Temp\ccrHXc7a.s 			page 94


 5081              	.LASF24:
 5082 04a3 74726566 		.ascii	"trefs_t\000"
 5082      735F7400 
 5083              	.LASF111:
 5084 04ab 4C45445F 		.ascii	"LED_EXT_TURN_LEFT\000"
 5084      4558545F 
 5084      5455524E 
 5084      5F4C4546 
 5084      5400
 5085              	.LASF66:
 5086 04bd 76697274 		.ascii	"virtual_timer_t\000"
 5086      75616C5F 
 5086      74696D65 
 5086      725F7400 
 5087              	.LASF109:
 5088 04cd 4C45445F 		.ascii	"LED_EXT_NORMAL\000"
 5088      4558545F 
 5088      4E4F524D 
 5088      414C00
 5089              	.LASF26:
 5090 04dc 74707269 		.ascii	"tprio_t\000"
 5090      6F5F7400 
 5091              	.LASF113:
 5092 04e4 4C45445F 		.ascii	"LED_EXT_BRAKE_TURN_LEFT\000"
 5092      4558545F 
 5092      4252414B 
 5092      455F5455 
 5092      524E5F4C 
 5093              	.LASF77:
 5094 04fc 63685F73 		.ascii	"ch_system_debug\000"
 5094      79737465 
 5094      6D5F6465 
 5094      62756700 
 5095              	.LASF117:
 5096 050c 5F426F6F 		.ascii	"_Bool\000"
 5096      6C00
 5097              	.LASF17:
 5098 0512 696E7433 		.ascii	"int32_t\000"
 5098      325F7400 
 5099              	.LASF3:
 5100 051a 756E7369 		.ascii	"unsigned char\000"
 5100      676E6564 
 5100      20636861 
 5100      7200
 5101              	.LASF153:
 5102 0528 6E657773 		.ascii	"newstate\000"
 5102      74617465 
 5102      00
 5103              	.LASF39:
 5104 0531 705F7374 		.ascii	"p_state\000"
 5104      61746500 
 5105              	.LASF48:
 5106 0539 705F6D74 		.ascii	"p_mtxlist\000"
 5106      786C6973 
 5106      7400
 5107              	.LASF4:
 5108 0543 73686F72 		.ascii	"short int\000"
ARM GAS  C:\Users\IDONNO~1\AppData\Local\Temp\ccrHXc7a.s 			page 95


 5108      7420696E 
 5108      7400
 5109              	.LASF42:
 5110 054d 705F7072 		.ascii	"p_preempt\000"
 5110      65656D70 
 5110      7400
 5111              	.LASF98:
 5112 0557 65776D61 		.ascii	"ewmask\000"
 5112      736B00
 5113              	.LASF32:
 5114 055e 705F6E65 		.ascii	"p_next\000"
 5114      787400
 5115              	.LASF40:
 5116 0565 705F666C 		.ascii	"p_flags\000"
 5116      61677300 
 5117              	.LASF136:
 5118 056d 5F5F6675 		.ascii	"__func__\000"
 5118      6E635F5F 
 5118      00
 5119              	.LASF110:
 5120 0576 4C45445F 		.ascii	"LED_EXT_BRAKE\000"
 5120      4558545F 
 5120      4252414B 
 5120      4500
 5121              	.LASF130:
 5122 0584 63685379 		.ascii	"chSysLock\000"
 5122      734C6F63 
 5122      6B00
 5123              	.LASF55:
 5124 058e 74687265 		.ascii	"threads_queue_t\000"
 5124      6164735F 
 5124      71756575 
 5124      655F7400 
 5125              	.LASF67:
 5126 059e 63685F76 		.ascii	"ch_virtual_timer\000"
 5126      69727475 
 5126      616C5F74 
 5126      696D6572 
 5126      00
 5127              	.LASF99:
 5128 05af 63685F73 		.ascii	"ch_semaphore\000"
 5128      656D6170 
 5128      686F7265 
 5128      00
 5129              	.LASF47:
 5130 05bc 705F6570 		.ascii	"p_epending\000"
 5130      656E6469 
 5130      6E6700
 5131              	.LASF115:
 5132 05c7 4C45445F 		.ascii	"LED_EXT_BATT\000"
 5132      4558545F 
 5132      42415454 
 5132      00
 5133              	.LASF18:
 5134 05d4 75696E74 		.ascii	"uint32_t\000"
 5134      33325F74 
 5134      00
ARM GAS  C:\Users\IDONNO~1\AppData\Local\Temp\ccrHXc7a.s 			page 96


 5135              	.LASF97:
 5136 05dd 77746D74 		.ascii	"wtmtxp\000"
 5136      787000
 5137              	.LASF59:
 5138 05e4 725F7175 		.ascii	"r_queue\000"
 5138      65756500 
 5139              	.LASF75:
 5140 05ec 76745F73 		.ascii	"vt_systime\000"
 5140      79737469 
 5140      6D6500
 5141              	.LASF54:
 5142 05f7 63685F74 		.ascii	"ch_threads_list\000"
 5142      68726561 
 5142      64735F6C 
 5142      69737400 
 5143              	.LASF11:
 5144 0607 6C6F6E67 		.ascii	"long unsigned int\000"
 5144      20756E73 
 5144      69676E65 
 5144      6420696E 
 5144      7400
 5145              	.LASF156:
 5146 0619 72657665 		.ascii	"reverse_leds\000"
 5146      7273655F 
 5146      6C656473 
 5146      00
 5147              	.LASF106:
 5148 0626 63686172 		.ascii	"char\000"
 5148      00
 5149              	.LASF6:
 5150 062b 5F5F7569 		.ascii	"__uint16_t\000"
 5150      6E743136 
 5150      5F7400
 5151              	.LASF31:
 5152 0636 74687265 		.ascii	"thread_t\000"
 5152      61645F74 
 5152      00
 5153              	.LASF105:
 5154 063f 6D5F6E65 		.ascii	"m_next\000"
 5154      787400
 5155              	.LASF30:
 5156 0646 73797374 		.ascii	"systime_t\000"
 5156      696D655F 
 5156      7400
 5157              	.LASF49:
 5158 0650 705F7265 		.ascii	"p_realprio\000"
 5158      616C7072 
 5158      696F00
 5159              	.LASF65:
 5160 065b 76746675 		.ascii	"vtfunc_t\000"
 5160      6E635F74 
 5160      00
 5161              	.LASF10:
 5162 0664 5F5F7569 		.ascii	"__uint32_t\000"
 5162      6E743332 
 5162      5F7400
 5163              	.LASF128:
ARM GAS  C:\Users\IDONNO~1\AppData\Local\Temp\ccrHXc7a.s 			page 97


 5164 066f 5F5F7365 		.ascii	"__set_BASEPRI\000"
 5164      745F4241 
 5164      53455052 
 5164      4900
 5165              	.LASF78:
 5166 067d 70616E69 		.ascii	"panic_msg\000"
 5166      635F6D73 
 5166      6700
 5167              	.LASF90:
 5168 0687 6F666673 		.ascii	"offset\000"
 5168      657400
 5169              	.LASF7:
 5170 068e 73686F72 		.ascii	"short unsigned int\000"
 5170      7420756E 
 5170      7369676E 
 5170      65642069 
 5170      6E7400
 5171              	.LASF21:
 5172 06a1 7274636E 		.ascii	"rtcnt_t\000"
 5172      745F7400 
 5173              	.LASF137:
 5174 06a9 7363616C 		.ascii	"scale_color\000"
 5174      655F636F 
 5174      6C6F7200 
 5175              	.LASF45:
 5176 06b5 705F6D73 		.ascii	"p_msgqueue\000"
 5176      67717565 
 5176      756500
 5177              	.LASF72:
 5178 06c0 76745F70 		.ascii	"vt_par\000"
 5178      617200
 5179              	.LASF159:
 5180 06c7 63685468 		.ascii	"chThdSleep\000"
 5180      64536C65 
 5180      657000
 5181              	.LASF41:
 5182 06d2 705F7265 		.ascii	"p_refs\000"
 5182      667300
 5183              	.LASF168:
 5184 06d9 6C65645F 		.ascii	"led_thread\000"
 5184      74687265 
 5184      616400
 5185              	.LASF164:
 5186 06e4 474E5520 		.ascii	"GNU C99 5.4.1 20160919 (release) [ARM/embedded-5-br"
 5186      43393920 
 5186      352E342E 
 5186      31203230 
 5186      31363039 
 5187 0717 616E6368 		.ascii	"anch revision 240496] -mcpu=cortex-m4 -mfloat-abi=h"
 5187      20726576 
 5187      6973696F 
 5187      6E203234 
 5187      30343936 
 5188 074a 61726420 		.ascii	"ard -mfpu=fpv4-sp-d16 -mno-thumb-interwork -mthumb "
 5188      2D6D6670 
 5188      753D6670 
 5188      76342D73 
ARM GAS  C:\Users\IDONNO~1\AppData\Local\Temp\ccrHXc7a.s 			page 98


 5188      702D6431 
 5189 077d 2D676764 		.ascii	"-ggdb -O2 -std=gnu99 -fomit-frame-pointer -falign-f"
 5189      62202D4F 
 5189      32202D73 
 5189      74643D67 
 5189      6E753939 
 5190 07b0 756E6374 		.ascii	"unctions=16 -ffunction-sections -fdata-sections -fn"
 5190      696F6E73 
 5190      3D313620 
 5190      2D666675 
 5190      6E637469 
 5191 07e3 6F2D636F 		.ascii	"o-common -fsingle-precision-constant\000"
 5191      6D6D6F6E 
 5191      202D6673 
 5191      696E676C 
 5191      652D7072 
 5192              	.LASF81:
 5193 0808 726C6973 		.ascii	"rlist\000"
 5193      7400
 5194              	.LASF121:
 5195 080e 4641554C 		.ascii	"FAULT_CODE_DRV8302\000"
 5195      545F434F 
 5195      44455F44 
 5195      52563833 
 5195      303200
 5196              	.LASF15:
 5197 0821 75696E74 		.ascii	"uint8_t\000"
 5197      385F7400 
 5198              	.LASF85:
 5199 0829 73697A65 		.ascii	"sizetype\000"
 5199      74797065 
 5199      00
 5200              	.LASF125:
 5201 0832 6D635F66 		.ascii	"mc_fault_code\000"
 5201      61756C74 
 5201      5F636F64 
 5201      6500
 5202              	.LASF102:
 5203 0840 63685F6D 		.ascii	"ch_mutex\000"
 5203      75746578 
 5203      00
 5204              	.LASF38:
 5205 0849 705F6E61 		.ascii	"p_name\000"
 5205      6D6500
 5206              	.LASF145:
 5207 0850 6D635F69 		.ascii	"mc_interface_get_fault\000"
 5207      6E746572 
 5207      66616365 
 5207      5F676574 
 5207      5F666175 
 5208              	.LASF52:
 5209 0867 74687265 		.ascii	"threads_list_t\000"
 5209      6164735F 
 5209      6C697374 
 5209      5F7400
 5210              	.LASF129:
 5211 0876 63685379 		.ascii	"chSysUnlock\000"
ARM GAS  C:\Users\IDONNO~1\AppData\Local\Temp\ccrHXc7a.s 			page 99


 5211      73556E6C 
 5211      6F636B00 
 5212              	.LASF46:
 5213 0882 705F6D73 		.ascii	"p_msg\000"
 5213      6700
 5214              	.LASF152:
 5215 0888 6C65645F 		.ascii	"led_external_set_reversed\000"
 5215      65787465 
 5215      726E616C 
 5215      5F736574 
 5215      5F726576 
 5216              	.LASF147:
 5217 08a2 73746174 		.ascii	"state_last\000"
 5217      655F6C61 
 5217      737400
 5218              	.LASF112:
 5219 08ad 4C45445F 		.ascii	"LED_EXT_TURN_RIGHT\000"
 5219      4558545F 
 5219      5455524E 
 5219      5F524947 
 5219      485400
 5220              	.LASF131:
 5221 08c0 63685265 		.ascii	"chRegSetThreadName\000"
 5221      67536574 
 5221      54687265 
 5221      61644E61 
 5221      6D6500
 5222              	.LASF142:
 5223 08d3 7365745F 		.ascii	"set_led_wrapper\000"
 5223      6C65645F 
 5223      77726170 
 5223      70657200 
 5224              	.LASF104:
 5225 08e3 6D5F6F77 		.ascii	"m_owner\000"
 5225      6E657200 
 5226              	.LASF154:
 5227 08eb 6C65645F 		.ascii	"led_thread_wa\000"
 5227      74687265 
 5227      61645F77 
 5227      6100
 5228              	.LASF35:
 5229 08f9 705F6374 		.ascii	"p_ctx\000"
 5229      7800
 5230              	.LASF44:
 5231 08ff 705F7761 		.ascii	"p_waiting\000"
 5231      6974696E 
 5231      6700
 5232              		.ident	"GCC: (GNU Tools for ARM Embedded Processors) 5.4.1 20160919 (release) [ARM/embedded-5-bran
ARM GAS  C:\Users\IDONNO~1\AppData\Local\Temp\ccrHXc7a.s 			page 100


DEFINED SYMBOLS
                            *ABS*:00000000 led_external.c
C:\Users\IDONNO~1\AppData\Local\Temp\ccrHXc7a.s:22     .text.wait_for_state_change:00000000 $t
C:\Users\IDONNO~1\AppData\Local\Temp\ccrHXc7a.s:27     .text.wait_for_state_change:00000000 wait_for_state_change
C:\Users\IDONNO~1\AppData\Local\Temp\ccrHXc7a.s:95     .text.wait_for_state_change:0000003c $d
C:\Users\IDONNO~1\AppData\Local\Temp\ccrHXc7a.s:102    .text.set_led_wrapper:00000000 $t
C:\Users\IDONNO~1\AppData\Local\Temp\ccrHXc7a.s:107    .text.set_led_wrapper:00000000 set_led_wrapper
C:\Users\IDONNO~1\AppData\Local\Temp\ccrHXc7a.s:140    .text.set_led_wrapper:0000001c $d
C:\Users\IDONNO~1\AppData\Local\Temp\ccrHXc7a.s:145    .text.led_thread:00000000 $t
C:\Users\IDONNO~1\AppData\Local\Temp\ccrHXc7a.s:150    .text.led_thread:00000000 led_thread
C:\Users\IDONNO~1\AppData\Local\Temp\ccrHXc7a.s:360    .text.led_thread:000000d4 $d
C:\Users\IDONNO~1\AppData\Local\Temp\ccrHXc7a.s:368    .text.led_thread:000000dc $t
C:\Users\IDONNO~1\AppData\Local\Temp\ccrHXc7a.s:883    .text.led_thread:0000034c $d
C:\Users\IDONNO~1\AppData\Local\Temp\ccrHXc7a.s:900    .text.led_thread:00000384 $t
C:\Users\IDONNO~1\AppData\Local\Temp\ccrHXc7a.s:928    .text.led_external_init:00000000 $t
C:\Users\IDONNO~1\AppData\Local\Temp\ccrHXc7a.s:934    .text.led_external_init:00000000 led_external_init
C:\Users\IDONNO~1\AppData\Local\Temp\ccrHXc7a.s:974    .text.led_external_init:00000024 $d
C:\Users\IDONNO~1\AppData\Local\Temp\ccrHXc7a.s:982    .text.led_external_set_state:00000000 $t
C:\Users\IDONNO~1\AppData\Local\Temp\ccrHXc7a.s:988    .text.led_external_set_state:00000000 led_external_set_state
C:\Users\IDONNO~1\AppData\Local\Temp\ccrHXc7a.s:1003   .text.led_external_set_state:00000008 $d
C:\Users\IDONNO~1\AppData\Local\Temp\ccrHXc7a.s:1008   .text.led_external_set_reversed:00000000 $t
C:\Users\IDONNO~1\AppData\Local\Temp\ccrHXc7a.s:1014   .text.led_external_set_reversed:00000000 led_external_set_reversed
C:\Users\IDONNO~1\AppData\Local\Temp\ccrHXc7a.s:1029   .text.led_external_set_reversed:00000008 $d
C:\Users\IDONNO~1\AppData\Local\Temp\ccrHXc7a.s:1037   .bss.reverse_leds:00000000 reverse_leds
C:\Users\IDONNO~1\AppData\Local\Temp\ccrHXc7a.s:1038   .bss.reverse_leds:00000000 $d
C:\Users\IDONNO~1\AppData\Local\Temp\ccrHXc7a.s:1043   .bss.state:00000000 state
C:\Users\IDONNO~1\AppData\Local\Temp\ccrHXc7a.s:1044   .bss.state:00000000 $d
C:\Users\IDONNO~1\AppData\Local\Temp\ccrHXc7a.s:1046   .rodata.str1.4:00000000 $d
C:\Users\IDONNO~1\AppData\Local\Temp\ccrHXc7a.s:1050   .bss.led_thread_wa:00000000 $d
C:\Users\IDONNO~1\AppData\Local\Temp\ccrHXc7a.s:1054   .bss.led_thread_wa:00000000 led_thread_wa
                     .debug_frame:00000010 $d

UNDEFINED SYMBOLS
chThdSleep
mc_interface_get_fault
ws2811_set_led_color
ws2811_set_all
utils_map
ADC_Value
ch
chThdCreateStatic
