ARM GAS  C:\Users\IDONNO~1\AppData\Local\Temp\ccORSB8M.s 			page 1


   1              		.syntax unified
   2              		.cpu cortex-m4
   3              		.eabi_attribute 27, 1
   4              		.eabi_attribute 28, 1
   5              		.fpu fpv4-sp-d16
   6              		.eabi_attribute 20, 1
   7              		.eabi_attribute 21, 1
   8              		.eabi_attribute 23, 3
   9              		.eabi_attribute 24, 1
  10              		.eabi_attribute 25, 1
  11              		.eabi_attribute 26, 1
  12              		.eabi_attribute 30, 2
  13              		.eabi_attribute 34, 1
  14              		.eabi_attribute 18, 4
  15              		.thumb
  16              		.syntax unified
  17              		.file	"ledpwm.c"
  18              		.text
  19              	.Ltext0:
  20              		.cfi_sections	.debug_frame
  21              		.section	.text.ledpwm_init,"ax",%progbits
  22              		.align	2
  23              		.p2align 4,,15
  24              		.global	ledpwm_init
  25              		.thumb
  26              		.thumb_func
  27              		.type	ledpwm_init, %function
  28              	ledpwm_init:
  29              	.LFB256:
  30              		.file 1 "src/core/ledpwm.c"
  31              		.loc 1 36 0
  32              		.cfi_startproc
  33              		@ args = 0, pretend = 0, frame = 0
  34              		@ frame_needed = 0, uses_anonymous_args = 0
  35 0000 38B5     		push	{r3, r4, r5, lr}
  36              		.cfi_def_cfa_offset 16
  37              		.cfi_offset 3, -16
  38              		.cfi_offset 4, -12
  39              		.cfi_offset 5, -8
  40              		.cfi_offset 14, -4
  41              		.loc 1 37 0
  42 0002 124A     		ldr	r2, .L6
  43 0004 124D     		ldr	r5, .L6+4
  44              		.loc 1 36 0
  45 0006 2DED028B 		vpush.64	{d8}
  46              		.cfi_def_cfa_offset 24
  47              		.cfi_offset 80, -24
  48              		.cfi_offset 81, -20
  49              		.loc 1 37 0
  50 000a 0023     		movs	r3, #0
  51              	.LBB2:
  52              		.loc 1 41 0
  53 000c 9FED118A 		vldr.32	s16, .L6+8
  54              	.LBE2:
  55              		.loc 1 37 0
  56 0010 1360     		str	r3, [r2]
  57              	.LBB3:
ARM GAS  C:\Users\IDONNO~1\AppData\Local\Temp\ccORSB8M.s 			page 2


  58              		.loc 1 40 0
  59 0012 1C46     		mov	r4, r3
  60              	.LBE3:
  61              		.loc 1 37 0
  62 0014 5360     		str	r3, [r2, #4]
  63              	.LVL0:
  64              	.L2:
  65              	.LBB4:
  66              		.loc 1 41 0 discriminator 3
  67 0016 07EE904A 		vmov	s15, r4	@ int
  68 001a B8EEE70A 		vcvt.f32.s32	s0, s15
  69 001e DFED0E0A 		vldr.32	s1, .L6+12
  70 0022 80EE080A 		vdiv.f32	s0, s0, s16
  71 0026 FFF7FEFF 		bl	powf
  72              	.LVL1:
  73              		.loc 1 40 0 discriminator 3
  74 002a 0134     		adds	r4, r4, #1
  75              	.LVL2:
  76              		.loc 1 41 0 discriminator 3
  77 002c 20EE080A 		vmul.f32	s0, s0, s16
  78 0030 FFF7FEFF 		bl	roundf
  79              	.LVL3:
  80 0034 FDEEC07A 		vcvt.s32.f32	s15, s0
  81              		.loc 1 40 0 discriminator 3
  82 0038 C92C     		cmp	r4, #201
  83              		.loc 1 41 0 discriminator 3
  84 003a 17EE903A 		vmov	r3, s15	@ int
  85 003e 05F8013F 		strb	r3, [r5, #1]!
  86              		.loc 1 40 0 discriminator 3
  87 0042 E8D1     		bne	.L2
  88              	.LBE4:
  89              		.loc 1 43 0
  90 0044 BDEC028B 		vldm	sp!, {d8}
  91              		.cfi_restore 80
  92              		.cfi_restore 81
  93              		.cfi_def_cfa_offset 16
  94 0048 38BD     		pop	{r3, r4, r5, pc}
  95              	.LVL4:
  96              	.L7:
  97 004a 00BF     		.align	2
  98              	.L6:
  99 004c 00000000 		.word	.LANCHOR0
 100 0050 FFFFFFFF 		.word	.LANCHOR1-1
 101 0054 00004843 		.word	1128792064
 102 0058 E4380E40 		.word	1074673892
 103              		.cfi_endproc
 104              	.LFE256:
 105              		.size	ledpwm_init, .-ledpwm_init
 106              		.section	.text.ledpwm_set_intensity,"ax",%progbits
 107              		.align	2
 108              		.p2align 4,,15
 109              		.global	ledpwm_set_intensity
 110              		.thumb
 111              		.thumb_func
 112              		.type	ledpwm_set_intensity, %function
 113              	ledpwm_set_intensity:
 114              	.LFB257:
ARM GAS  C:\Users\IDONNO~1\AppData\Local\Temp\ccORSB8M.s 			page 3


 115              		.loc 1 51 0
 116              		.cfi_startproc
 117              		@ args = 0, pretend = 0, frame = 0
 118              		@ frame_needed = 0, uses_anonymous_args = 0
 119              		@ link register save eliminated.
 120              	.LVL5:
 121              		.loc 1 52 0
 122 0000 0128     		cmp	r0, #1
 123 0002 00D9     		bls	.L13
 124 0004 7047     		bx	lr
 125              	.L13:
 126              		.loc 1 56 0
 127 0006 B5EEC00A 		vcmpe.f32	s0, #0
 128 000a F1EE10FA 		vmrs	APSR_nzcv, FPSCR
 129 000e 0ED4     		bmi	.L11
 130              		.loc 1 60 0
 131 0010 F7EE007A 		vmov.f32	s15, #1.0e+0
 132 0014 B4EEE70A 		vcmpe.f32	s0, s15
 133 0018 F1EE10FA 		vmrs	APSR_nzcv, FPSCR
 134 001c C8BF     		it	gt
 135 001e C823     		movgt	r3, #200
 136 0020 07DD     		ble	.L14
 137              	.LVL6:
 138              	.L10:
 139              		.loc 1 64 0
 140 0022 0849     		ldr	r1, .L15
 141 0024 084A     		ldr	r2, .L15+4
 142 0026 CB5C     		ldrb	r3, [r1, r3]	@ zero_extendqisi2
 143 0028 42F82030 		str	r3, [r2, r0, lsl #2]
 144 002c 7047     		bx	lr
 145              	.LVL7:
 146              	.L11:
 147 002e 0023     		movs	r3, #0
 148 0030 F7E7     		b	.L10
 149              	.L14:
 150 0032 DFED067A 		vldr.32	s15, .L15+8
 151 0036 20EE270A 		vmul.f32	s0, s0, s15
 152              	.LVL8:
 153 003a FDEEC07A 		vcvt.s32.f32	s15, s0
 154 003e 17EE903A 		vmov	r3, s15	@ int
 155 0042 EEE7     		b	.L10
 156              	.L16:
 157              		.align	2
 158              	.L15:
 159 0044 00000000 		.word	.LANCHOR1
 160 0048 00000000 		.word	.LANCHOR0
 161 004c 00004843 		.word	1128792064
 162              		.cfi_endproc
 163              	.LFE257:
 164              		.size	ledpwm_set_intensity, .-ledpwm_set_intensity
 165              		.section	.text.ledpwm_led_on,"ax",%progbits
 166              		.align	2
 167              		.p2align 4,,15
 168              		.global	ledpwm_led_on
 169              		.thumb
 170              		.thumb_func
 171              		.type	ledpwm_led_on, %function
ARM GAS  C:\Users\IDONNO~1\AppData\Local\Temp\ccORSB8M.s 			page 4


 172              	ledpwm_led_on:
 173              	.LFB258:
 174              		.loc 1 67 0
 175              		.cfi_startproc
 176              		@ args = 0, pretend = 0, frame = 0
 177              		@ frame_needed = 0, uses_anonymous_args = 0
 178              		@ link register save eliminated.
 179              	.LVL9:
 180              		.loc 1 68 0
 181 0000 0128     		cmp	r0, #1
 182 0002 03DC     		bgt	.L17
 183              		.loc 1 72 0
 184 0004 024B     		ldr	r3, .L19
 185 0006 C822     		movs	r2, #200
 186 0008 43F82020 		str	r2, [r3, r0, lsl #2]
 187              	.L17:
 188 000c 7047     		bx	lr
 189              	.L20:
 190 000e 00BF     		.align	2
 191              	.L19:
 192 0010 00000000 		.word	.LANCHOR0
 193              		.cfi_endproc
 194              	.LFE258:
 195              		.size	ledpwm_led_on, .-ledpwm_led_on
 196              		.section	.text.ledpwm_led_off,"ax",%progbits
 197              		.align	2
 198              		.p2align 4,,15
 199              		.global	ledpwm_led_off
 200              		.thumb
 201              		.thumb_func
 202              		.type	ledpwm_led_off, %function
 203              	ledpwm_led_off:
 204              	.LFB259:
 205              		.loc 1 75 0
 206              		.cfi_startproc
 207              		@ args = 0, pretend = 0, frame = 0
 208              		@ frame_needed = 0, uses_anonymous_args = 0
 209              		@ link register save eliminated.
 210              	.LVL10:
 211              		.loc 1 76 0
 212 0000 0128     		cmp	r0, #1
 213 0002 03DC     		bgt	.L21
 214              		.loc 1 80 0
 215 0004 024B     		ldr	r3, .L23
 216 0006 0022     		movs	r2, #0
 217 0008 43F82020 		str	r2, [r3, r0, lsl #2]
 218              	.L21:
 219 000c 7047     		bx	lr
 220              	.L24:
 221 000e 00BF     		.align	2
 222              	.L23:
 223 0010 00000000 		.word	.LANCHOR0
 224              		.cfi_endproc
 225              	.LFE259:
 226              		.size	ledpwm_led_off, .-ledpwm_led_off
 227              		.section	.text.ledpwm_update_pwm,"ax",%progbits
 228              		.align	2
ARM GAS  C:\Users\IDONNO~1\AppData\Local\Temp\ccORSB8M.s 			page 5


 229              		.p2align 4,,15
 230              		.global	ledpwm_update_pwm
 231              		.thumb
 232              		.thumb_func
 233              		.type	ledpwm_update_pwm, %function
 234              	ledpwm_update_pwm:
 235              	.LFB260:
 236              		.loc 1 86 0
 237              		.cfi_startproc
 238              		@ args = 0, pretend = 0, frame = 0
 239              		@ frame_needed = 0, uses_anonymous_args = 0
 240              		@ link register save eliminated.
 241              		.loc 1 88 0
 242 0000 0C4A     		ldr	r2, .L33
 243 0002 1368     		ldr	r3, [r2]
 244 0004 0133     		adds	r3, r3, #1
 245              		.loc 1 89 0
 246 0006 C82B     		cmp	r3, #200
 247              		.loc 1 90 0
 248 0008 08BF     		it	eq
 249 000a 0023     		moveq	r3, #0
 250 000c 1360     		str	r3, [r2]
 251              		.loc 1 93 0
 252 000e 0A4A     		ldr	r2, .L33+4
 253 0010 1168     		ldr	r1, [r2]
 254 0012 9942     		cmp	r1, r3
 255              		.loc 1 94 0
 256 0014 0949     		ldr	r1, .L33+8
 257 0016 4FF01000 		mov	r0, #16
 258 001a D4BF     		ite	le
 259 001c 4883     		strhle	r0, [r1, #26]	@ movhi
 260              		.loc 1 96 0
 261 001e 0883     		strhgt	r0, [r1, #24]	@ movhi
 262              		.loc 1 99 0
 263 0020 5268     		ldr	r2, [r2, #4]
 264 0022 9A42     		cmp	r2, r3
 265              		.loc 1 100 0
 266 0024 054B     		ldr	r3, .L33+8
 267 0026 4FF02002 		mov	r2, #32
 268 002a D4BF     		ite	le
 269 002c 5A83     		strhle	r2, [r3, #26]	@ movhi
 270              		.loc 1 102 0
 271 002e 1A83     		strhgt	r2, [r3, #24]	@ movhi
 272 0030 7047     		bx	lr
 273              	.L34:
 274 0032 00BF     		.align	2
 275              	.L33:
 276 0034 00000000 		.word	.LANCHOR2
 277 0038 00000000 		.word	.LANCHOR0
 278 003c 00080240 		.word	1073874944
 279              		.cfi_endproc
 280              	.LFE260:
 281              		.size	ledpwm_update_pwm, .-ledpwm_update_pwm
 282              		.section	.bss.led_values,"aw",%nobits
 283              		.align	2
 284              		.set	.LANCHOR0,. + 0
 285              		.type	led_values, %object
ARM GAS  C:\Users\IDONNO~1\AppData\Local\Temp\ccORSB8M.s 			page 6


 286              		.size	led_values, 8
 287              	led_values:
 288 0000 00000000 		.space	8
 288      00000000 
 289              		.section	.bss.cnt.10303,"aw",%nobits
 290              		.align	2
 291              		.set	.LANCHOR2,. + 0
 292              		.type	cnt.10303, %object
 293              		.size	cnt.10303, 4
 294              	cnt.10303:
 295 0000 00000000 		.space	4
 296              		.section	.bss.gamma_table,"aw",%nobits
 297              		.align	2
 298              		.set	.LANCHOR1,. + 0
 299              		.type	gamma_table, %object
 300              		.size	gamma_table, 201
 301              	gamma_table:
 302 0000 00000000 		.space	201
 302      00000000 
 302      00000000 
 302      00000000 
 302      00000000 
 303              		.text
 304              	.Letext0:
 305              		.file 2 "c:\\program files (x86)\\gnu tools arm embedded\\5.4 2016q3\\lib\\gcc\\arm-none-eabi\\5.4
 306              		.file 3 "c:\\program files (x86)\\gnu tools arm embedded\\5.4 2016q3\\arm-none-eabi\\include\\mach
 307              		.file 4 "c:\\program files (x86)\\gnu tools arm embedded\\5.4 2016q3\\arm-none-eabi\\include\\sys\
 308              		.file 5 "src/ChibiOS_3.0.2/os/rt/ports/ARMCMx/compilers/GCC/chtypes.h"
 309              		.file 6 "src/ChibiOS_3.0.2/os/rt/include/chsystypes.h"
 310              		.file 7 "src/ChibiOS_3.0.2/os/rt/include/chschd.h"
 311              		.file 8 "src/ChibiOS_3.0.2/os/rt/ports/ARMCMx/chcore.h"
 312              		.file 9 "src/ChibiOS_3.0.2/os/rt/ports/ARMCMx/chcore_v7m.h"
 313              		.file 10 "src/ChibiOS_3.0.2/os/rt/include/chtm.h"
 314              		.file 11 "src/ChibiOS_3.0.2/os/rt/include/chsem.h"
 315              		.file 12 "src/ChibiOS_3.0.2/os/rt/include/chmtx.h"
 316              		.file 13 "src/ChibiOS_3.0.2/os/hal/ports/STM32/LLD/GPIOv2/pal_lld.h"
 317              		.file 14 "c:\\program files (x86)\\gnu tools arm embedded\\5.4 2016q3\\arm-none-eabi\\include\\mat
 318              		.file 15 "src/ChibiOS_3.0.2/os/ext/CMSIS/include/core_cm4.h"