ARM GAS  C:\Users\IDONNO~1\AppData\Local\Temp\ccqIfJ61.s 			page 1


   1              		.syntax unified
   2              		.cpu cortex-m4
   3              		.eabi_attribute 27, 1
   4              		.eabi_attribute 28, 1
   5              		.fpu fpv4-sp-d16
   6              		.eabi_attribute 20, 1
   7              		.eabi_attribute 21, 1
   8              		.eabi_attribute 23, 3
   9              		.eabi_attribute 24, 1
  10              		.eabi_attribute 25, 1
  11              		.eabi_attribute 26, 1
  12              		.eabi_attribute 30, 2
  13              		.eabi_attribute 34, 1
  14              		.eabi_attribute 18, 4
  15              		.thumb
  16              		.syntax unified
  17              		.file	"main.c"
  18              		.text
  19              	.Ltext0:
  20              		.cfi_sections	.debug_frame
  21              		.section	.text.timer_thread,"ax",%progbits
  22              		.align	2
  23              		.p2align 4,,15
  24              		.thumb
  25              		.thumb_func
  26              		.type	timer_thread, %function
  27              	timer_thread:
  28              	.LFB409:
  29              		.file 1 "main.c"
  30              		.loc 1 104 0
  31              		.cfi_startproc
  32              		@ Volatile: function does not return.
  33              		@ args = 0, pretend = 0, frame = 0
  34              		@ frame_needed = 0, uses_anonymous_args = 0
  35              	.LVL0:
  36 0000 08B5     		push	{r3, lr}
  37              		.cfi_def_cfa_offset 8
  38              		.cfi_offset 3, -8
  39              		.cfi_offset 14, -4
  40              	.LBB6:
  41              	.LBB7:
  42              		.file 2 "src/ChibiOS_3.0.2/os/rt/include/chregistry.h"
  43              		.loc 2 135 0
  44 0002 044B     		ldr	r3, .L5
  45 0004 044A     		ldr	r2, .L5+4
  46 0006 9B69     		ldr	r3, [r3, #24]
  47 0008 9A61     		str	r2, [r3, #24]
  48              	.LVL1:
  49              	.L2:
  50              	.LBE7:
  51              	.LBE6:
  52              		.loc 1 113 0 discriminator 1
  53 000a 0A20     		movs	r0, #10
  54 000c FFF7FEFF 		bl	chThdSleep
  55              	.LVL2:
  56 0010 FBE7     		b	.L2
  57              	.L6:
ARM GAS  C:\Users\IDONNO~1\AppData\Local\Temp\ccqIfJ61.s 			page 2


  58 0012 00BF     		.align	2
  59              	.L5:
  60 0014 00000000 		.word	ch
  61 0018 00000000 		.word	.LC0
  62              		.cfi_endproc
  63              	.LFE409:
  64              		.size	timer_thread, .-timer_thread
  65              		.section	.text.periodic_thread,"ax",%progbits
  66              		.align	2
  67              		.p2align 4,,15
  68              		.thumb
  69              		.thumb_func
  70              		.type	periodic_thread, %function
  71              	periodic_thread:
  72              	.LFB408:
  73              		.loc 1 65 0
  74              		.cfi_startproc
  75              		@ Volatile: function does not return.
  76              		@ args = 0, pretend = 0, frame = 0
  77              		@ frame_needed = 0, uses_anonymous_args = 0
  78              	.LVL3:
  79 0000 08B5     		push	{r3, lr}
  80              		.cfi_def_cfa_offset 8
  81              		.cfi_offset 3, -8
  82              		.cfi_offset 14, -4
  83              	.LBB8:
  84              	.LBB9:
  85              		.loc 2 135 0
  86 0002 0E4B     		ldr	r3, .L10
  87 0004 0E4A     		ldr	r2, .L10+4
  88 0006 9B69     		ldr	r3, [r3, #24]
  89              	.LBE9:
  90              	.LBE8:
  91              		.loc 1 92 0
  92 0008 0E4C     		ldr	r4, .L10+8
  93              	.LBB11:
  94              	.LBB10:
  95              		.loc 2 135 0
  96 000a 9A61     		str	r2, [r3, #24]
  97              	.LBE10:
  98              	.LBE11:
  99              		.loc 1 92 0
 100 000c 1025     		movs	r5, #16
 101 000e 2E46     		mov	r6, r5	@ movhi
 102              	.LVL4:
 103              	.L8:
 104              		.loc 1 92 0 is_stmt 0 discriminator 1
 105 0010 2683     		strh	r6, [r4, #24]	@ movhi
 106 0012 4FF4FA70 		mov	r0, #500
 107 0016 FFF7FEFF 		bl	chThdSleep
 108              	.LVL5:
 109              		.loc 1 93 0 is_stmt 1 discriminator 1
 110 001a 6583     		strh	r5, [r4, #26]	@ movhi
 111 001c 4FF4FA70 		mov	r0, #500
 112 0020 FFF7FEFF 		bl	chThdSleep
 113              	.LVL6:
 114              		.loc 1 94 0 discriminator 1
ARM GAS  C:\Users\IDONNO~1\AppData\Local\Temp\ccqIfJ61.s 			page 3


 115 0024 2583     		strh	r5, [r4, #24]	@ movhi
 116 0026 4FF4FA70 		mov	r0, #500
 117 002a FFF7FEFF 		bl	chThdSleep
 118              	.LVL7:
 119              		.loc 1 95 0 discriminator 1
 120 002e 6583     		strh	r5, [r4, #26]	@ movhi
 121 0030 42F23410 		movw	r0, #8500
 122 0034 FFF7FEFF 		bl	chThdSleep
 123              	.LVL8:
 124 0038 EAE7     		b	.L8
 125              	.L11:
 126 003a 00BF     		.align	2
 127              	.L10:
 128 003c 00000000 		.word	ch
 129 0040 0C000000 		.word	.LC1
 130 0044 00080240 		.word	1073874944
 131              		.cfi_endproc
 132              	.LFE408:
 133              		.size	periodic_thread, .-periodic_thread
 134              		.section	.text.startup.main,"ax",%progbits
 135              		.align	2
 136              		.p2align 4,,15
 137              		.global	main
 138              		.thumb
 139              		.thumb_func
 140              		.type	main, %function
 141              	main:
 142              	.LFB410:
 143              		.loc 1 124 0
 144              		.cfi_startproc
 145              		@ args = 0, pretend = 0, frame = 216
 146              		@ frame_needed = 0, uses_anonymous_args = 0
 147 0000 10B5     		push	{r4, lr}
 148              		.cfi_def_cfa_offset 8
 149              		.cfi_offset 4, -8
 150              		.cfi_offset 14, -4
 151 0002 B8B0     		sub	sp, sp, #224
 152              		.cfi_def_cfa_offset 232
 153              		.loc 1 125 0
 154 0004 FFF7FEFF 		bl	halInit
 155              	.LVL9:
 156              		.loc 1 126 0
 157 0008 FFF7FEFF 		bl	chSysInit
 158              	.LVL10:
 159              		.loc 1 128 0
 160 000c 42F21070 		movw	r0, #10000
 161 0010 FFF7FEFF 		bl	chThdSleep
 162              	.LVL11:
 163              		.loc 1 130 0
 164 0014 FFF7FEFF 		bl	hw_init_gpio
 165              	.LVL12:
 166              		.loc 1 132 0
 167 0018 FFF7FEFF 		bl	conf_general_init
 168              	.LVL13:
 169              		.loc 1 133 0
 170 001c FFF7FEFF 		bl	ledpwm_init
 171              	.LVL14:
ARM GAS  C:\Users\IDONNO~1\AppData\Local\Temp\ccqIfJ61.s 			page 4


 172              		.loc 1 153 0
 173 0020 FFF7FEFF 		bl	Usart1_print_init
 174              	.LVL15:
 175              		.loc 1 155 0
 176 0024 1449     		ldr	r1, .L15
 177 0026 1548     		ldr	r0, .L15+4
 178 0028 FFF7FEFF 		bl	chvprintf
 179              	.LVL16:
 180              		.loc 1 156 0
 181 002c 1449     		ldr	r1, .L15+8
 182 002e 1348     		ldr	r0, .L15+4
 183 0030 FFF7FEFF 		bl	chvprintf
 184              	.LVL17:
 185              		.loc 1 159 0
 186 0034 03A8     		add	r0, sp, #12
 187 0036 FFF7FEFF 		bl	conf_general_read_mc_configuration
 188              	.LVL18:
 189              		.loc 1 160 0
 190 003a 03A8     		add	r0, sp, #12
 191 003c FFF7FEFF 		bl	mc_interface_init
 192              	.LVL19:
 193              		.loc 1 171 0
 194 0040 0024     		movs	r4, #0
 195              		.loc 1 167 0
 196 0042 FFF7FEFF 		bl	timeout_init
 197              	.LVL20:
 198              		.loc 1 168 0
 199 0046 4FF47A70 		mov	r0, #1000
 200 004a FFF7FEFF 		bl	timeout_configure
 201              	.LVL21:
 202              		.loc 1 171 0
 203 004e 0D4B     		ldr	r3, .L15+12
 204 0050 0094     		str	r4, [sp]
 205 0052 4022     		movs	r2, #64
 206 0054 4FF40671 		mov	r1, #536
 207 0058 0B48     		ldr	r0, .L15+16
 208 005a FFF7FEFF 		bl	chThdCreateStatic
 209              	.LVL22:
 210              		.loc 1 172 0
 211 005e 0094     		str	r4, [sp]
 212 0060 0A4B     		ldr	r3, .L15+20
 213 0062 0B48     		ldr	r0, .L15+24
 214 0064 4022     		movs	r2, #64
 215 0066 4FF40671 		mov	r1, #536
 216 006a FFF7FEFF 		bl	chThdCreateStatic
 217              	.LVL23:
 218              	.L13:
 219              		.loc 1 177 0 discriminator 1
 220 006e 6420     		movs	r0, #100
 221 0070 FFF7FEFF 		bl	chThdSleep
 222              	.LVL24:
 223 0074 FBE7     		b	.L13
 224              	.L16:
 225 0076 00BF     		.align	2
 226              	.L15:
 227 0078 1C000000 		.word	.LC2
 228 007c 00000000 		.word	SD1
ARM GAS  C:\Users\IDONNO~1\AppData\Local\Temp\ccqIfJ61.s 			page 5


 229 0080 28000000 		.word	.LC3
 230 0084 00000000 		.word	periodic_thread
 231 0088 00000000 		.word	.LANCHOR0
 232 008c 00000000 		.word	timer_thread
 233 0090 00000000 		.word	.LANCHOR1
 234              		.cfi_endproc
 235              	.LFE410:
 236              		.size	main, .-main
 237              		.section	.bss.timer_thread_wa,"aw",%nobits
 238              		.align	3
 239              		.set	.LANCHOR1,. + 0
 240              		.type	timer_thread_wa, %object
 241              		.size	timer_thread_wa, 536
 242              	timer_thread_wa:
 243 0000 00000000 		.space	536
 243      00000000 
 243      00000000 
 243      00000000 
 243      00000000 
 244              		.section	.rodata.str1.4,"aMS",%progbits,1
 245              		.align	2
 246              	.LC0:
 247 0000 6D736563 		.ascii	"msec_timer\000"
 247      5F74696D 
 247      657200
 248 000b 00       		.space	1
 249              	.LC1:
 250 000c 424C4443 		.ascii	"BLDC periodic\000"
 250      20706572 
 250      696F6469 
 250      6300
 251 001a 0000     		.space	2
 252              	.LC2:
 253 001c 1B5B324A 		.ascii	"\033[2J\033[0;0H\000"
 253      1B5B303B 
 253      304800
 254 0027 00       		.space	1
 255              	.LC3:
 256 0028 6F726F63 		.ascii	"oroca_bldc\015\012\000"
 256      615F626C 
 256      64630D0A 
 256      00
 257              		.section	.bss.periodic_thread_wa,"aw",%nobits
 258              		.align	3
 259              		.set	.LANCHOR0,. + 0
 260              		.type	periodic_thread_wa, %object
 261              		.size	periodic_thread_wa, 536
 262              	periodic_thread_wa:
 263 0000 00000000 		.space	536
 263      00000000 
 263      00000000 
 263      00000000 
 263      00000000 
 264              		.text
 265              	.Letext0:
 266              		.file 3 "c:\\program files (x86)\\gnu tools arm embedded\\5.4 2016q3\\lib\\gcc\\arm-none-eabi\\5.4
 267              		.file 4 "c:\\program files (x86)\\gnu tools arm embedded\\5.4 2016q3\\arm-none-eabi\\include\\mach
ARM GAS  C:\Users\IDONNO~1\AppData\Local\Temp\ccqIfJ61.s 			page 6


 268              		.file 5 "c:\\program files (x86)\\gnu tools arm embedded\\5.4 2016q3\\arm-none-eabi\\include\\sys\
 269              		.file 6 "src/ChibiOS_3.0.2/os/rt/ports/ARMCMx/compilers/GCC/chtypes.h"
 270              		.file 7 "src/ChibiOS_3.0.2/os/rt/include/chsystypes.h"
 271              		.file 8 "src/ChibiOS_3.0.2/os/rt/include/chschd.h"
 272              		.file 9 "src/ChibiOS_3.0.2/os/ext/CMSIS/ST/stm32f407xx.h"
 273              		.file 10 "src/ChibiOS_3.0.2/os/rt/ports/ARMCMx/chcore.h"
 274              		.file 11 "src/ChibiOS_3.0.2/os/rt/ports/ARMCMx/chcore_v7m.h"
 275              		.file 12 "src/ChibiOS_3.0.2/os/rt/include/chtm.h"
 276              		.file 13 "src/ChibiOS_3.0.2/os/rt/include/chsem.h"
 277              		.file 14 "src/ChibiOS_3.0.2/os/rt/include/chmtx.h"
 278              		.file 15 "src/ChibiOS_3.0.2/os/rt/include/chevents.h"
 279              		.file 16 "src/ChibiOS_3.0.2/os/rt/include/chqueues.h"
 280              		.file 17 "src/ChibiOS_3.0.2/os/hal/ports/STM32/LLD/GPIOv2/pal_lld.h"
 281              		.file 18 "src/ChibiOS_3.0.2/os/hal/include/serial.h"
 282              		.file 19 "src/mc/mc_typedef.h"
 283              		.file 20 "src/ChibiOS_3.0.2/os/hal/ports/STM32/LLD/USARTv1/serial_lld.h"
 284              		.file 21 "src/ChibiOS_3.0.2/os/rt/include/chthreads.h"
 285              		.file 22 "src/ChibiOS_3.0.2/os/hal/include/hal.h"
 286              		.file 23 "src/ChibiOS_3.0.2/os/rt/include/chsys.h"
 287              		.file 24 "src/hw.h"
 288              		.file 25 "src/conf_general.h"
 289              		.file 26 "src/core/ledpwm.h"
 290              		.file 27 "usart1_print.h"
 291              		.file 28 "src/mc/mc_interface.h"
 292              		.file 29 "src/core/timeout.h"
 293              		.file 30 "src/ChibiOS_3.0.2/os/ext/CMSIS/include/core_cm4.h"
 294              		.section	.debug_info,"",%progbits
 295              	.Ldebug_info0:
 296 0000 F1120000 		.4byte	0x12f1
 297 0004 0400     		.2byte	0x4
 298 0006 00000000 		.4byte	.Ldebug_abbrev0
 299 000a 04       		.byte	0x4
 300 000b 01       		.uleb128 0x1
 301 000c 13040000 		.4byte	.LASF250
 302 0010 0C       		.byte	0xc
 303 0011 08070000 		.4byte	.LASF251
 304 0015 44050000 		.4byte	.LASF252
 305 0019 18000000 		.4byte	.Ldebug_ranges0+0x18
 306 001d 00000000 		.4byte	0
 307 0021 00000000 		.4byte	.Ldebug_line0
 308 0025 02       		.uleb128 0x2
 309 0026 04       		.byte	0x4
 310 0027 05       		.byte	0x5
 311 0028 696E7400 		.ascii	"int\000"
 312 002c 03       		.uleb128 0x3
 313 002d CF080000 		.4byte	.LASF2
 314 0031 03       		.byte	0x3
 315 0032 D8       		.byte	0xd8
 316 0033 37000000 		.4byte	0x37
 317 0037 04       		.uleb128 0x4
 318 0038 04       		.byte	0x4
 319 0039 07       		.byte	0x7
 320 003a ED000000 		.4byte	.LASF0
 321 003e 04       		.uleb128 0x4
 322 003f 01       		.byte	0x1
 323 0040 06       		.byte	0x6
 324 0041 FB0B0000 		.4byte	.LASF1
ARM GAS  C:\Users\IDONNO~1\AppData\Local\Temp\ccqIfJ61.s 			page 7


 325 0045 03       		.uleb128 0x3
 326 0046 0E0A0000 		.4byte	.LASF3
 327 004a 04       		.byte	0x4
 328 004b 1D       		.byte	0x1d
 329 004c 50000000 		.4byte	0x50
 330 0050 04       		.uleb128 0x4
 331 0051 01       		.byte	0x1
 332 0052 08       		.byte	0x8
 333 0053 160B0000 		.4byte	.LASF4
 334 0057 04       		.uleb128 0x4
 335 0058 02       		.byte	0x2
 336 0059 05       		.byte	0x5
 337 005a 95010000 		.4byte	.LASF5
 338 005e 03       		.uleb128 0x3
 339 005f 2D030000 		.4byte	.LASF6
 340 0063 04       		.byte	0x4
 341 0064 2B       		.byte	0x2b
 342 0065 69000000 		.4byte	0x69
 343 0069 04       		.uleb128 0x4
 344 006a 02       		.byte	0x2
 345 006b 07       		.byte	0x7
 346 006c 8D080000 		.4byte	.LASF7
 347 0070 03       		.uleb128 0x3
 348 0071 54010000 		.4byte	.LASF8
 349 0075 04       		.byte	0x4
 350 0076 3F       		.byte	0x3f
 351 0077 7B000000 		.4byte	0x7b
 352 007b 04       		.uleb128 0x4
 353 007c 04       		.byte	0x4
 354 007d 05       		.byte	0x5
 355 007e 83090000 		.4byte	.LASF9
 356 0082 03       		.uleb128 0x3
 357 0083 240B0000 		.4byte	.LASF10
 358 0087 04       		.byte	0x4
 359 0088 41       		.byte	0x41
 360 0089 8D000000 		.4byte	0x8d
 361 008d 04       		.uleb128 0x4
 362 008e 04       		.byte	0x4
 363 008f 07       		.byte	0x7
 364 0090 0B080000 		.4byte	.LASF11
 365 0094 04       		.uleb128 0x4
 366 0095 08       		.byte	0x8
 367 0096 05       		.byte	0x5
 368 0097 41060000 		.4byte	.LASF12
 369 009b 03       		.uleb128 0x3
 370 009c 84050000 		.4byte	.LASF13
 371 00a0 04       		.byte	0x4
 372 00a1 5B       		.byte	0x5b
 373 00a2 A6000000 		.4byte	0xa6
 374 00a6 04       		.uleb128 0x4
 375 00a7 08       		.byte	0x8
 376 00a8 07       		.byte	0x7
 377 00a9 F3020000 		.4byte	.LASF14
 378 00ad 03       		.uleb128 0x3
 379 00ae 78060000 		.4byte	.LASF15
 380 00b2 05       		.byte	0x5
 381 00b3 18       		.byte	0x18
ARM GAS  C:\Users\IDONNO~1\AppData\Local\Temp\ccqIfJ61.s 			page 8


 382 00b4 45000000 		.4byte	0x45
 383 00b8 03       		.uleb128 0x3
 384 00b9 B3080000 		.4byte	.LASF16
 385 00bd 05       		.byte	0x5
 386 00be 24       		.byte	0x24
 387 00bf 5E000000 		.4byte	0x5e
 388 00c3 03       		.uleb128 0x3
 389 00c4 B60A0000 		.4byte	.LASF17
 390 00c8 05       		.byte	0x5
 391 00c9 2C       		.byte	0x2c
 392 00ca 70000000 		.4byte	0x70
 393 00ce 03       		.uleb128 0x3
 394 00cf 63020000 		.4byte	.LASF18
 395 00d3 05       		.byte	0x5
 396 00d4 30       		.byte	0x30
 397 00d5 82000000 		.4byte	0x82
 398 00d9 03       		.uleb128 0x3
 399 00da BD090000 		.4byte	.LASF19
 400 00de 05       		.byte	0x5
 401 00df 3C       		.byte	0x3c
 402 00e0 9B000000 		.4byte	0x9b
 403 00e4 05       		.uleb128 0x5
 404 00e5 C3000000 		.4byte	0xc3
 405 00e9 05       		.uleb128 0x5
 406 00ea CE000000 		.4byte	0xce
 407 00ee 03       		.uleb128 0x3
 408 00ef E9080000 		.4byte	.LASF20
 409 00f3 06       		.byte	0x6
 410 00f4 45       		.byte	0x45
 411 00f5 CE000000 		.4byte	0xce
 412 00f9 03       		.uleb128 0x3
 413 00fa 60080000 		.4byte	.LASF21
 414 00fe 06       		.byte	0x6
 415 00ff 48       		.byte	0x48
 416 0100 AD000000 		.4byte	0xad
 417 0104 03       		.uleb128 0x3
 418 0105 38060000 		.4byte	.LASF22
 419 0109 06       		.byte	0x6
 420 010a 49       		.byte	0x49
 421 010b AD000000 		.4byte	0xad
 422 010f 03       		.uleb128 0x3
 423 0110 890A0000 		.4byte	.LASF23
 424 0114 06       		.byte	0x6
 425 0115 4A       		.byte	0x4a
 426 0116 AD000000 		.4byte	0xad
 427 011a 03       		.uleb128 0x3
 428 011b E9070000 		.4byte	.LASF24
 429 011f 06       		.byte	0x6
 430 0120 4B       		.byte	0x4b
 431 0121 AD000000 		.4byte	0xad
 432 0125 03       		.uleb128 0x3
 433 0126 DA020000 		.4byte	.LASF25
 434 012a 06       		.byte	0x6
 435 012b 4C       		.byte	0x4c
 436 012c CE000000 		.4byte	0xce
 437 0130 03       		.uleb128 0x3
 438 0131 4F070000 		.4byte	.LASF26
ARM GAS  C:\Users\IDONNO~1\AppData\Local\Temp\ccqIfJ61.s 			page 9


 439 0135 06       		.byte	0x6
 440 0136 4D       		.byte	0x4d
 441 0137 C3000000 		.4byte	0xc3
 442 013b 03       		.uleb128 0x3
 443 013c 89020000 		.4byte	.LASF27
 444 0140 06       		.byte	0x6
 445 0141 4F       		.byte	0x4f
 446 0142 CE000000 		.4byte	0xce
 447 0146 03       		.uleb128 0x3
 448 0147 33080000 		.4byte	.LASF28
 449 014b 06       		.byte	0x6
 450 014c 50       		.byte	0x50
 451 014d CE000000 		.4byte	0xce
 452 0151 03       		.uleb128 0x3
 453 0152 38030000 		.4byte	.LASF29
 454 0156 06       		.byte	0x6
 455 0157 51       		.byte	0x51
 456 0158 C3000000 		.4byte	0xc3
 457 015c 03       		.uleb128 0x3
 458 015d 9E000000 		.4byte	.LASF30
 459 0161 07       		.byte	0x7
 460 0162 33       		.byte	0x33
 461 0163 CE000000 		.4byte	0xce
 462 0167 03       		.uleb128 0x3
 463 0168 BF030000 		.4byte	.LASF31
 464 016c 07       		.byte	0x7
 465 016d 3F       		.byte	0x3f
 466 016e 72010000 		.4byte	0x172
 467 0172 06       		.uleb128 0x6
 468 0173 C4060000 		.4byte	.LASF53
 469 0177 48       		.byte	0x48
 470 0178 08       		.byte	0x8
 471 0179 C2       		.byte	0xc2
 472 017a 77020000 		.4byte	0x277
 473 017e 07       		.uleb128 0x7
 474 017f B6090000 		.4byte	.LASF32
 475 0183 08       		.byte	0x8
 476 0184 C3       		.byte	0xc3
 477 0185 82020000 		.4byte	0x282
 478 0189 00       		.byte	0
 479 018a 07       		.uleb128 0x7
 480 018b 790A0000 		.4byte	.LASF33
 481 018f 08       		.byte	0x8
 482 0190 C5       		.byte	0xc5
 483 0191 82020000 		.4byte	0x282
 484 0195 04       		.byte	0x4
 485 0196 07       		.uleb128 0x7
 486 0197 8A000000 		.4byte	.LASF34
 487 019b 08       		.byte	0x8
 488 019c C7       		.byte	0xc7
 489 019d 25010000 		.4byte	0x125
 490 01a1 08       		.byte	0x8
 491 01a2 07       		.uleb128 0x7
 492 01a3 C6090000 		.4byte	.LASF35
 493 01a7 08       		.byte	0x8
 494 01a8 C8       		.byte	0xc8
 495 01a9 21050000 		.4byte	0x521
ARM GAS  C:\Users\IDONNO~1\AppData\Local\Temp\ccqIfJ61.s 			page 10


 496 01ad 0C       		.byte	0xc
 497 01ae 07       		.uleb128 0x7
 498 01af 89030000 		.4byte	.LASF36
 499 01b3 08       		.byte	0x8
 500 01b4 CA       		.byte	0xca
 501 01b5 82020000 		.4byte	0x282
 502 01b9 10       		.byte	0x10
 503 01ba 07       		.uleb128 0x7
 504 01bb 4F060000 		.4byte	.LASF37
 505 01bf 08       		.byte	0x8
 506 01c0 CB       		.byte	0xcb
 507 01c1 82020000 		.4byte	0x282
 508 01c5 14       		.byte	0x14
 509 01c6 07       		.uleb128 0x7
 510 01c7 D5050000 		.4byte	.LASF38
 511 01cb 08       		.byte	0x8
 512 01cc D2       		.byte	0xd2
 513 01cd 66070000 		.4byte	0x766
 514 01d1 18       		.byte	0x18
 515 01d2 07       		.uleb128 0x7
 516 01d3 57060000 		.4byte	.LASF39
 517 01d7 08       		.byte	0x8
 518 01d8 DD       		.byte	0xdd
 519 01d9 04010000 		.4byte	0x104
 520 01dd 1C       		.byte	0x1c
 521 01de 07       		.uleb128 0x7
 522 01df 88070000 		.4byte	.LASF40
 523 01e3 08       		.byte	0x8
 524 01e4 E1       		.byte	0xe1
 525 01e5 F9000000 		.4byte	0xf9
 526 01e9 1D       		.byte	0x1d
 527 01ea 07       		.uleb128 0x7
 528 01eb 910B0000 		.4byte	.LASF41
 529 01ef 08       		.byte	0x8
 530 01f0 E6       		.byte	0xe6
 531 01f1 0F010000 		.4byte	0x10f
 532 01f5 1E       		.byte	0x1e
 533 01f6 07       		.uleb128 0x7
 534 01f7 730B0000 		.4byte	.LASF42
 535 01fb 08       		.byte	0x8
 536 01fc EC       		.byte	0xec
 537 01fd 1A010000 		.4byte	0x11a
 538 0201 1F       		.byte	0x1f
 539 0202 07       		.uleb128 0x7
 540 0203 66000000 		.4byte	.LASF43
 541 0207 08       		.byte	0x8
 542 0208 F3       		.byte	0xf3
 543 0209 78070000 		.4byte	0x778
 544 020d 20       		.byte	0x20
 545 020e 08       		.uleb128 0x8
 546 020f 705F7500 		.ascii	"p_u\000"
 547 0213 08       		.byte	0x8
 548 0214 3101     		.2byte	0x131
 549 0216 A1060000 		.4byte	0x6a1
 550 021a 24       		.byte	0x24
 551 021b 09       		.uleb128 0x9
 552 021c 38010000 		.4byte	.LASF44
ARM GAS  C:\Users\IDONNO~1\AppData\Local\Temp\ccqIfJ61.s 			page 11


 553 0220 08       		.byte	0x8
 554 0221 3601     		.2byte	0x136
 555 0223 88020000 		.4byte	0x288
 556 0227 28       		.byte	0x28
 557 0228 09       		.uleb128 0x9
 558 0229 E2000000 		.4byte	.LASF45
 559 022d 08       		.byte	0x8
 560 022e 3C01     		.2byte	0x13c
 561 0230 AC020000 		.4byte	0x2ac
 562 0234 2C       		.byte	0x2c
 563 0235 09       		.uleb128 0x9
 564 0236 5A080000 		.4byte	.LASF46
 565 023a 08       		.byte	0x8
 566 023b 4001     		.2byte	0x140
 567 023d 30010000 		.4byte	0x130
 568 0241 34       		.byte	0x34
 569 0242 09       		.uleb128 0x9
 570 0243 70090000 		.4byte	.LASF47
 571 0247 08       		.byte	0x8
 572 0248 4601     		.2byte	0x146
 573 024a 3B010000 		.4byte	0x13b
 574 024e 38       		.byte	0x38
 575 024f 09       		.uleb128 0x9
 576 0250 BA060000 		.4byte	.LASF48
 577 0254 08       		.byte	0x8
 578 0255 4D01     		.2byte	0x14d
 579 0257 60070000 		.4byte	0x760
 580 025b 3C       		.byte	0x3c
 581 025c 09       		.uleb128 0x9
 582 025d 3E090000 		.4byte	.LASF49
 583 0261 08       		.byte	0x8
 584 0262 5101     		.2byte	0x151
 585 0264 25010000 		.4byte	0x125
 586 0268 40       		.byte	0x40
 587 0269 09       		.uleb128 0x9
 588 026a B2060000 		.4byte	.LASF50
 589 026e 08       		.byte	0x8
 590 026f 5801     		.2byte	0x158
 591 0271 5F030000 		.4byte	0x35f
 592 0275 44       		.byte	0x44
 593 0276 00       		.byte	0
 594 0277 03       		.uleb128 0x3
 595 0278 BC080000 		.4byte	.LASF51
 596 027c 07       		.byte	0x7
 597 027d 44       		.byte	0x44
 598 027e 82020000 		.4byte	0x282
 599 0282 0A       		.uleb128 0xa
 600 0283 04       		.byte	0x4
 601 0284 67010000 		.4byte	0x167
 602 0288 03       		.uleb128 0x3
 603 0289 1D010000 		.4byte	.LASF52
 604 028d 07       		.byte	0x7
 605 028e 49       		.byte	0x49
 606 028f 93020000 		.4byte	0x293
 607 0293 06       		.uleb128 0x6
 608 0294 00000000 		.4byte	.LASF54
 609 0298 04       		.byte	0x4
ARM GAS  C:\Users\IDONNO~1\AppData\Local\Temp\ccqIfJ61.s 			page 12


 610 0299 08       		.byte	0x8
 611 029a B0       		.byte	0xb0
 612 029b AC020000 		.4byte	0x2ac
 613 029f 07       		.uleb128 0x7
 614 02a0 B6090000 		.4byte	.LASF32
 615 02a4 08       		.byte	0x8
 616 02a5 B1       		.byte	0xb1
 617 02a6 82020000 		.4byte	0x282
 618 02aa 00       		.byte	0
 619 02ab 00       		.byte	0
 620 02ac 03       		.uleb128 0x3
 621 02ad 10000000 		.4byte	.LASF55
 622 02b1 07       		.byte	0x7
 623 02b2 50       		.byte	0x50
 624 02b3 B7020000 		.4byte	0x2b7
 625 02b7 06       		.uleb128 0x6
 626 02b8 F1060000 		.4byte	.LASF56
 627 02bc 08       		.byte	0x8
 628 02bd 08       		.byte	0x8
 629 02be B7       		.byte	0xb7
 630 02bf DC020000 		.4byte	0x2dc
 631 02c3 07       		.uleb128 0x7
 632 02c4 B6090000 		.4byte	.LASF32
 633 02c8 08       		.byte	0x8
 634 02c9 B8       		.byte	0xb8
 635 02ca 82020000 		.4byte	0x282
 636 02ce 00       		.byte	0
 637 02cf 07       		.uleb128 0x7
 638 02d0 790A0000 		.4byte	.LASF33
 639 02d4 08       		.byte	0x8
 640 02d5 B9       		.byte	0xb9
 641 02d6 82020000 		.4byte	0x282
 642 02da 04       		.byte	0x4
 643 02db 00       		.byte	0
 644 02dc 03       		.uleb128 0x3
 645 02dd A90A0000 		.4byte	.LASF57
 646 02e1 07       		.byte	0x7
 647 02e2 57       		.byte	0x57
 648 02e3 E7020000 		.4byte	0x2e7
 649 02e7 0B       		.uleb128 0xb
 650 02e8 9F010000 		.4byte	.LASF58
 651 02ec 1C       		.byte	0x1c
 652 02ed 08       		.byte	0x8
 653 02ee 9001     		.2byte	0x190
 654 02f0 43030000 		.4byte	0x343
 655 02f4 09       		.uleb128 0x9
 656 02f5 70060000 		.4byte	.LASF59
 657 02f9 08       		.byte	0x8
 658 02fa 9101     		.2byte	0x191
 659 02fc AC020000 		.4byte	0x2ac
 660 0300 00       		.byte	0
 661 0301 09       		.uleb128 0x9
 662 0302 95020000 		.4byte	.LASF60
 663 0306 08       		.byte	0x8
 664 0307 9201     		.2byte	0x192
 665 0309 25010000 		.4byte	0x125
 666 030d 08       		.byte	0x8
ARM GAS  C:\Users\IDONNO~1\AppData\Local\Temp\ccqIfJ61.s 			page 13


 667 030e 09       		.uleb128 0x9
 668 030f 260C0000 		.4byte	.LASF61
 669 0313 08       		.byte	0x8
 670 0314 9401     		.2byte	0x194
 671 0316 21050000 		.4byte	0x521
 672 031a 0C       		.byte	0xc
 673 031b 09       		.uleb128 0x9
 674 031c 17060000 		.4byte	.LASF62
 675 0320 08       		.byte	0x8
 676 0321 9701     		.2byte	0x197
 677 0323 82020000 		.4byte	0x282
 678 0327 10       		.byte	0x10
 679 0328 09       		.uleb128 0x9
 680 0329 F3070000 		.4byte	.LASF63
 681 032d 08       		.byte	0x8
 682 032e 9801     		.2byte	0x198
 683 0330 82020000 		.4byte	0x282
 684 0334 14       		.byte	0x14
 685 0335 09       		.uleb128 0x9
 686 0336 54090000 		.4byte	.LASF64
 687 033a 08       		.byte	0x8
 688 033b 9B01     		.2byte	0x19b
 689 033d 82020000 		.4byte	0x282
 690 0341 18       		.byte	0x18
 691 0342 00       		.byte	0
 692 0343 03       		.uleb128 0x3
 693 0344 07020000 		.4byte	.LASF65
 694 0348 07       		.byte	0x7
 695 0349 5C       		.byte	0x5c
 696 034a 4E030000 		.4byte	0x34e
 697 034e 0A       		.uleb128 0xa
 698 034f 04       		.byte	0x4
 699 0350 54030000 		.4byte	0x354
 700 0354 0C       		.uleb128 0xc
 701 0355 5F030000 		.4byte	0x35f
 702 0359 0D       		.uleb128 0xd
 703 035a 5F030000 		.4byte	0x35f
 704 035e 00       		.byte	0
 705 035f 0E       		.uleb128 0xe
 706 0360 04       		.byte	0x4
 707 0361 03       		.uleb128 0x3
 708 0362 90070000 		.4byte	.LASF66
 709 0366 07       		.byte	0x7
 710 0367 61       		.byte	0x61
 711 0368 6C030000 		.4byte	0x36c
 712 036c 0B       		.uleb128 0xb
 713 036d E2020000 		.4byte	.LASF67
 714 0371 14       		.byte	0x14
 715 0372 08       		.byte	0x8
 716 0373 6B01     		.2byte	0x16b
 717 0375 BB030000 		.4byte	0x3bb
 718 0379 09       		.uleb128 0x9
 719 037a 9E0B0000 		.4byte	.LASF68
 720 037e 08       		.byte	0x8
 721 037f 6C01     		.2byte	0x16c
 722 0381 7D070000 		.4byte	0x77d
 723 0385 00       		.byte	0
ARM GAS  C:\Users\IDONNO~1\AppData\Local\Temp\ccqIfJ61.s 			page 14


 724 0386 09       		.uleb128 0x9
 725 0387 640C0000 		.4byte	.LASF69
 726 038b 08       		.byte	0x8
 727 038c 6D01     		.2byte	0x16d
 728 038e 7D070000 		.4byte	0x77d
 729 0392 04       		.byte	0x4
 730 0393 09       		.uleb128 0x9
 731 0394 EB050000 		.4byte	.LASF70
 732 0398 08       		.byte	0x8
 733 0399 6E01     		.2byte	0x16e
 734 039b 5C010000 		.4byte	0x15c
 735 039f 08       		.byte	0x8
 736 03a0 09       		.uleb128 0x9
 737 03a1 4B0C0000 		.4byte	.LASF71
 738 03a5 08       		.byte	0x8
 739 03a6 6F01     		.2byte	0x16f
 740 03a8 43030000 		.4byte	0x343
 741 03ac 0C       		.byte	0xc
 742 03ad 09       		.uleb128 0x9
 743 03ae 9C020000 		.4byte	.LASF72
 744 03b2 08       		.byte	0x8
 745 03b3 7101     		.2byte	0x171
 746 03b5 5F030000 		.4byte	0x35f
 747 03b9 10       		.byte	0x10
 748 03ba 00       		.byte	0
 749 03bb 03       		.uleb128 0x3
 750 03bc 3E0B0000 		.4byte	.LASF73
 751 03c0 07       		.byte	0x7
 752 03c1 66       		.byte	0x66
 753 03c2 C6030000 		.4byte	0x3c6
 754 03c6 0B       		.uleb128 0xb
 755 03c7 97030000 		.4byte	.LASF74
 756 03cb 10       		.byte	0x10
 757 03cc 08       		.byte	0x8
 758 03cd 7B01     		.2byte	0x17b
 759 03cf 08040000 		.4byte	0x408
 760 03d3 09       		.uleb128 0x9
 761 03d4 9E0B0000 		.4byte	.LASF68
 762 03d8 08       		.byte	0x8
 763 03d9 7C01     		.2byte	0x17c
 764 03db 7D070000 		.4byte	0x77d
 765 03df 00       		.byte	0
 766 03e0 09       		.uleb128 0x9
 767 03e1 640C0000 		.4byte	.LASF69
 768 03e5 08       		.byte	0x8
 769 03e6 7E01     		.2byte	0x17e
 770 03e8 7D070000 		.4byte	0x77d
 771 03ec 04       		.byte	0x4
 772 03ed 09       		.uleb128 0x9
 773 03ee EB050000 		.4byte	.LASF70
 774 03f2 08       		.byte	0x8
 775 03f3 8001     		.2byte	0x180
 776 03f5 5C010000 		.4byte	0x15c
 777 03f9 08       		.byte	0x8
 778 03fa 09       		.uleb128 0x9
 779 03fb CC000000 		.4byte	.LASF75
 780 03ff 08       		.byte	0x8
ARM GAS  C:\Users\IDONNO~1\AppData\Local\Temp\ccqIfJ61.s 			page 15


 781 0400 8201     		.2byte	0x182
 782 0402 78070000 		.4byte	0x778
 783 0406 0C       		.byte	0xc
 784 0407 00       		.byte	0
 785 0408 03       		.uleb128 0x3
 786 0409 D4060000 		.4byte	.LASF76
 787 040d 07       		.byte	0x7
 788 040e 6B       		.byte	0x6b
 789 040f 13040000 		.4byte	0x413
 790 0413 0B       		.uleb128 0xb
 791 0414 10020000 		.4byte	.LASF77
 792 0418 04       		.byte	0x4
 793 0419 08       		.byte	0x8
 794 041a A201     		.2byte	0x1a2
 795 041c 2E040000 		.4byte	0x42e
 796 0420 09       		.uleb128 0x9
 797 0421 5E0B0000 		.4byte	.LASF78
 798 0425 08       		.byte	0x8
 799 0426 AA01     		.2byte	0x1aa
 800 0428 83070000 		.4byte	0x783
 801 042c 00       		.byte	0
 802 042d 00       		.byte	0
 803 042e 03       		.uleb128 0x3
 804 042f A60B0000 		.4byte	.LASF79
 805 0433 07       		.byte	0x7
 806 0434 70       		.byte	0x70
 807 0435 39040000 		.4byte	0x439
 808 0439 0F       		.uleb128 0xf
 809 043a A5090000 		.4byte	.LASF80
 810 043e 5802     		.2byte	0x258
 811 0440 08       		.byte	0x8
 812 0441 C201     		.2byte	0x1c2
 813 0443 95040000 		.4byte	0x495
 814 0447 09       		.uleb128 0x9
 815 0448 F6090000 		.4byte	.LASF81
 816 044c 08       		.byte	0x8
 817 044d C601     		.2byte	0x1c6
 818 044f DC020000 		.4byte	0x2dc
 819 0453 00       		.byte	0
 820 0454 09       		.uleb128 0x9
 821 0455 87010000 		.4byte	.LASF82
 822 0459 08       		.byte	0x8
 823 045a CA01     		.2byte	0x1ca
 824 045c BB030000 		.4byte	0x3bb
 825 0460 1C       		.byte	0x1c
 826 0461 08       		.uleb128 0x8
 827 0462 64626700 		.ascii	"dbg\000"
 828 0466 08       		.byte	0x8
 829 0467 CE01     		.2byte	0x1ce
 830 0469 08040000 		.4byte	0x408
 831 046d 2C       		.byte	0x2c
 832 046e 09       		.uleb128 0x9
 833 046f 7A080000 		.4byte	.LASF83
 834 0473 08       		.byte	0x8
 835 0474 D201     		.2byte	0x1d2
 836 0476 67010000 		.4byte	0x167
 837 047a 30       		.byte	0x30
ARM GAS  C:\Users\IDONNO~1\AppData\Local\Temp\ccqIfJ61.s 			page 16


 838 047b 08       		.uleb128 0x8
 839 047c 746D00   		.ascii	"tm\000"
 840 047f 08       		.byte	0x8
 841 0480 D701     		.2byte	0x1d7
 842 0482 96060000 		.4byte	0x696
 843 0486 78       		.byte	0x78
 844 0487 09       		.uleb128 0x9
 845 0488 AD010000 		.4byte	.LASF84
 846 048c 08       		.byte	0x8
 847 048d E301     		.2byte	0x1e3
 848 048f 88070000 		.4byte	0x788
 849 0493 80       		.byte	0x80
 850 0494 00       		.byte	0
 851 0495 04       		.uleb128 0x4
 852 0496 04       		.byte	0x4
 853 0497 07       		.byte	0x7
 854 0498 800A0000 		.4byte	.LASF85
 855 049c 10       		.uleb128 0x10
 856 049d 1C       		.byte	0x1c
 857 049e 09       		.byte	0x9
 858 049f 0903     		.2byte	0x309
 859 04a1 FF040000 		.4byte	0x4ff
 860 04a5 08       		.uleb128 0x8
 861 04a6 535200   		.ascii	"SR\000"
 862 04a9 09       		.byte	0x9
 863 04aa 0B03     		.2byte	0x30b
 864 04ac E9000000 		.4byte	0xe9
 865 04b0 00       		.byte	0
 866 04b1 08       		.uleb128 0x8
 867 04b2 445200   		.ascii	"DR\000"
 868 04b5 09       		.byte	0x9
 869 04b6 0C03     		.2byte	0x30c
 870 04b8 E9000000 		.4byte	0xe9
 871 04bc 04       		.byte	0x4
 872 04bd 08       		.uleb128 0x8
 873 04be 42525200 		.ascii	"BRR\000"
 874 04c2 09       		.byte	0x9
 875 04c3 0D03     		.2byte	0x30d
 876 04c5 E9000000 		.4byte	0xe9
 877 04c9 08       		.byte	0x8
 878 04ca 08       		.uleb128 0x8
 879 04cb 43523100 		.ascii	"CR1\000"
 880 04cf 09       		.byte	0x9
 881 04d0 0E03     		.2byte	0x30e
 882 04d2 E9000000 		.4byte	0xe9
 883 04d6 0C       		.byte	0xc
 884 04d7 08       		.uleb128 0x8
 885 04d8 43523200 		.ascii	"CR2\000"
 886 04dc 09       		.byte	0x9
 887 04dd 0F03     		.2byte	0x30f
 888 04df E9000000 		.4byte	0xe9
 889 04e3 10       		.byte	0x10
 890 04e4 08       		.uleb128 0x8
 891 04e5 43523300 		.ascii	"CR3\000"
 892 04e9 09       		.byte	0x9
 893 04ea 1003     		.2byte	0x310
 894 04ec E9000000 		.4byte	0xe9
ARM GAS  C:\Users\IDONNO~1\AppData\Local\Temp\ccqIfJ61.s 			page 17


 895 04f0 14       		.byte	0x14
 896 04f1 09       		.uleb128 0x9
 897 04f2 40020000 		.4byte	.LASF86
 898 04f6 09       		.byte	0x9
 899 04f7 1103     		.2byte	0x311
 900 04f9 E9000000 		.4byte	0xe9
 901 04fd 18       		.byte	0x18
 902 04fe 00       		.byte	0
 903 04ff 11       		.uleb128 0x11
 904 0500 F00A0000 		.4byte	.LASF87
 905 0504 09       		.byte	0x9
 906 0505 1203     		.2byte	0x312
 907 0507 9C040000 		.4byte	0x49c
 908 050b 03       		.uleb128 0x3
 909 050c 81000000 		.4byte	.LASF88
 910 0510 0A       		.byte	0xa
 911 0511 65       		.byte	0x65
 912 0512 5F030000 		.4byte	0x35f
 913 0516 03       		.uleb128 0x3
 914 0517 2C0C0000 		.4byte	.LASF89
 915 051b 0A       		.byte	0xa
 916 051c 6D       		.byte	0x6d
 917 051d D9000000 		.4byte	0xd9
 918 0521 06       		.uleb128 0x6
 919 0522 5E070000 		.4byte	.LASF90
 920 0526 04       		.byte	0x4
 921 0527 0A       		.byte	0xa
 922 0528 89       		.byte	0x89
 923 0529 3A050000 		.4byte	0x53a
 924 052d 12       		.uleb128 0x12
 925 052e 72313300 		.ascii	"r13\000"
 926 0532 0A       		.byte	0xa
 927 0533 8A       		.byte	0x8a
 928 0534 7B060000 		.4byte	0x67b
 929 0538 00       		.byte	0
 930 0539 00       		.byte	0
 931 053a 06       		.uleb128 0x6
 932 053b 8C090000 		.4byte	.LASF91
 933 053f 64       		.byte	0x64
 934 0540 0B       		.byte	0xb
 935 0541 F4       		.byte	0xf4
 936 0542 7B060000 		.4byte	0x67b
 937 0546 12       		.uleb128 0x12
 938 0547 73313600 		.ascii	"s16\000"
 939 054b 0B       		.byte	0xb
 940 054c F6       		.byte	0xf6
 941 054d 0B050000 		.4byte	0x50b
 942 0551 00       		.byte	0
 943 0552 12       		.uleb128 0x12
 944 0553 73313700 		.ascii	"s17\000"
 945 0557 0B       		.byte	0xb
 946 0558 F7       		.byte	0xf7
 947 0559 0B050000 		.4byte	0x50b
 948 055d 04       		.byte	0x4
 949 055e 12       		.uleb128 0x12
 950 055f 73313800 		.ascii	"s18\000"
 951 0563 0B       		.byte	0xb
ARM GAS  C:\Users\IDONNO~1\AppData\Local\Temp\ccqIfJ61.s 			page 18


 952 0564 F8       		.byte	0xf8
 953 0565 0B050000 		.4byte	0x50b
 954 0569 08       		.byte	0x8
 955 056a 12       		.uleb128 0x12
 956 056b 73313900 		.ascii	"s19\000"
 957 056f 0B       		.byte	0xb
 958 0570 F9       		.byte	0xf9
 959 0571 0B050000 		.4byte	0x50b
 960 0575 0C       		.byte	0xc
 961 0576 12       		.uleb128 0x12
 962 0577 73323000 		.ascii	"s20\000"
 963 057b 0B       		.byte	0xb
 964 057c FA       		.byte	0xfa
 965 057d 0B050000 		.4byte	0x50b
 966 0581 10       		.byte	0x10
 967 0582 12       		.uleb128 0x12
 968 0583 73323100 		.ascii	"s21\000"
 969 0587 0B       		.byte	0xb
 970 0588 FB       		.byte	0xfb
 971 0589 0B050000 		.4byte	0x50b
 972 058d 14       		.byte	0x14
 973 058e 12       		.uleb128 0x12
 974 058f 73323200 		.ascii	"s22\000"
 975 0593 0B       		.byte	0xb
 976 0594 FC       		.byte	0xfc
 977 0595 0B050000 		.4byte	0x50b
 978 0599 18       		.byte	0x18
 979 059a 12       		.uleb128 0x12
 980 059b 73323300 		.ascii	"s23\000"
 981 059f 0B       		.byte	0xb
 982 05a0 FD       		.byte	0xfd
 983 05a1 0B050000 		.4byte	0x50b
 984 05a5 1C       		.byte	0x1c
 985 05a6 12       		.uleb128 0x12
 986 05a7 73323400 		.ascii	"s24\000"
 987 05ab 0B       		.byte	0xb
 988 05ac FE       		.byte	0xfe
 989 05ad 0B050000 		.4byte	0x50b
 990 05b1 20       		.byte	0x20
 991 05b2 12       		.uleb128 0x12
 992 05b3 73323500 		.ascii	"s25\000"
 993 05b7 0B       		.byte	0xb
 994 05b8 FF       		.byte	0xff
 995 05b9 0B050000 		.4byte	0x50b
 996 05bd 24       		.byte	0x24
 997 05be 08       		.uleb128 0x8
 998 05bf 73323600 		.ascii	"s26\000"
 999 05c3 0B       		.byte	0xb
 1000 05c4 0001     		.2byte	0x100
 1001 05c6 0B050000 		.4byte	0x50b
 1002 05ca 28       		.byte	0x28
 1003 05cb 08       		.uleb128 0x8
 1004 05cc 73323700 		.ascii	"s27\000"
 1005 05d0 0B       		.byte	0xb
 1006 05d1 0101     		.2byte	0x101
 1007 05d3 0B050000 		.4byte	0x50b
 1008 05d7 2C       		.byte	0x2c
ARM GAS  C:\Users\IDONNO~1\AppData\Local\Temp\ccqIfJ61.s 			page 19


 1009 05d8 08       		.uleb128 0x8
 1010 05d9 73323800 		.ascii	"s28\000"
 1011 05dd 0B       		.byte	0xb
 1012 05de 0201     		.2byte	0x102
 1013 05e0 0B050000 		.4byte	0x50b
 1014 05e4 30       		.byte	0x30
 1015 05e5 08       		.uleb128 0x8
 1016 05e6 73323900 		.ascii	"s29\000"
 1017 05ea 0B       		.byte	0xb
 1018 05eb 0301     		.2byte	0x103
 1019 05ed 0B050000 		.4byte	0x50b
 1020 05f1 34       		.byte	0x34
 1021 05f2 08       		.uleb128 0x8
 1022 05f3 73333000 		.ascii	"s30\000"
 1023 05f7 0B       		.byte	0xb
 1024 05f8 0401     		.2byte	0x104
 1025 05fa 0B050000 		.4byte	0x50b
 1026 05fe 38       		.byte	0x38
 1027 05ff 08       		.uleb128 0x8
 1028 0600 73333100 		.ascii	"s31\000"
 1029 0604 0B       		.byte	0xb
 1030 0605 0501     		.2byte	0x105
 1031 0607 0B050000 		.4byte	0x50b
 1032 060b 3C       		.byte	0x3c
 1033 060c 08       		.uleb128 0x8
 1034 060d 723400   		.ascii	"r4\000"
 1035 0610 0B       		.byte	0xb
 1036 0611 0701     		.2byte	0x107
 1037 0613 0B050000 		.4byte	0x50b
 1038 0617 40       		.byte	0x40
 1039 0618 08       		.uleb128 0x8
 1040 0619 723500   		.ascii	"r5\000"
 1041 061c 0B       		.byte	0xb
 1042 061d 0801     		.2byte	0x108
 1043 061f 0B050000 		.4byte	0x50b
 1044 0623 44       		.byte	0x44
 1045 0624 08       		.uleb128 0x8
 1046 0625 723600   		.ascii	"r6\000"
 1047 0628 0B       		.byte	0xb
 1048 0629 0901     		.2byte	0x109
 1049 062b 0B050000 		.4byte	0x50b
 1050 062f 48       		.byte	0x48
 1051 0630 08       		.uleb128 0x8
 1052 0631 723700   		.ascii	"r7\000"
 1053 0634 0B       		.byte	0xb
 1054 0635 0A01     		.2byte	0x10a
 1055 0637 0B050000 		.4byte	0x50b
 1056 063b 4C       		.byte	0x4c
 1057 063c 08       		.uleb128 0x8
 1058 063d 723800   		.ascii	"r8\000"
 1059 0640 0B       		.byte	0xb
 1060 0641 0B01     		.2byte	0x10b
 1061 0643 0B050000 		.4byte	0x50b
 1062 0647 50       		.byte	0x50
 1063 0648 08       		.uleb128 0x8
 1064 0649 723900   		.ascii	"r9\000"
 1065 064c 0B       		.byte	0xb
ARM GAS  C:\Users\IDONNO~1\AppData\Local\Temp\ccqIfJ61.s 			page 20


 1066 064d 0C01     		.2byte	0x10c
 1067 064f 0B050000 		.4byte	0x50b
 1068 0653 54       		.byte	0x54
 1069 0654 08       		.uleb128 0x8
 1070 0655 72313000 		.ascii	"r10\000"
 1071 0659 0B       		.byte	0xb
 1072 065a 0D01     		.2byte	0x10d
 1073 065c 0B050000 		.4byte	0x50b
 1074 0660 58       		.byte	0x58
 1075 0661 08       		.uleb128 0x8
 1076 0662 72313100 		.ascii	"r11\000"
 1077 0666 0B       		.byte	0xb
 1078 0667 0E01     		.2byte	0x10e
 1079 0669 0B050000 		.4byte	0x50b
 1080 066d 5C       		.byte	0x5c
 1081 066e 08       		.uleb128 0x8
 1082 066f 6C7200   		.ascii	"lr\000"
 1083 0672 0B       		.byte	0xb
 1084 0673 0F01     		.2byte	0x10f
 1085 0675 0B050000 		.4byte	0x50b
 1086 0679 60       		.byte	0x60
 1087 067a 00       		.byte	0
 1088 067b 0A       		.uleb128 0xa
 1089 067c 04       		.byte	0x4
 1090 067d 3A050000 		.4byte	0x53a
 1091 0681 13       		.uleb128 0x13
 1092 0682 04       		.byte	0x4
 1093 0683 0C       		.byte	0xc
 1094 0684 38       		.byte	0x38
 1095 0685 96060000 		.4byte	0x696
 1096 0689 07       		.uleb128 0x7
 1097 068a ED030000 		.4byte	.LASF92
 1098 068e 0C       		.byte	0xc
 1099 068f 3C       		.byte	0x3c
 1100 0690 EE000000 		.4byte	0xee
 1101 0694 00       		.byte	0
 1102 0695 00       		.byte	0
 1103 0696 03       		.uleb128 0x3
 1104 0697 55000000 		.4byte	.LASF93
 1105 069b 0C       		.byte	0xc
 1106 069c 3D       		.byte	0x3d
 1107 069d 81060000 		.4byte	0x681
 1108 06a1 14       		.uleb128 0x14
 1109 06a2 04       		.byte	0x4
 1110 06a3 08       		.byte	0x8
 1111 06a4 FA       		.byte	0xfa
 1112 06a5 FE060000 		.4byte	0x6fe
 1113 06a9 15       		.uleb128 0x15
 1114 06aa E6030000 		.4byte	.LASF94
 1115 06ae 08       		.byte	0x8
 1116 06af 0101     		.2byte	0x101
 1117 06b1 30010000 		.4byte	0x130
 1118 06b5 15       		.uleb128 0x15
 1119 06b6 850C0000 		.4byte	.LASF95
 1120 06ba 08       		.byte	0x8
 1121 06bb 0801     		.2byte	0x108
 1122 06bd 30010000 		.4byte	0x130
ARM GAS  C:\Users\IDONNO~1\AppData\Local\Temp\ccqIfJ61.s 			page 21


 1123 06c1 15       		.uleb128 0x15
 1124 06c2 80010000 		.4byte	.LASF96
 1125 06c6 08       		.byte	0x8
 1126 06c7 0F01     		.2byte	0x10f
 1127 06c9 5F030000 		.4byte	0x35f
 1128 06cd 15       		.uleb128 0x15
 1129 06ce DA0B0000 		.4byte	.LASF97
 1130 06d2 08       		.byte	0x8
 1131 06d3 1601     		.2byte	0x116
 1132 06d5 FE060000 		.4byte	0x6fe
 1133 06d9 15       		.uleb128 0x15
 1134 06da D80A0000 		.4byte	.LASF98
 1135 06de 08       		.byte	0x8
 1136 06df 1E01     		.2byte	0x11e
 1137 06e1 29070000 		.4byte	0x729
 1138 06e5 15       		.uleb128 0x15
 1139 06e6 6C0C0000 		.4byte	.LASF99
 1140 06ea 08       		.byte	0x8
 1141 06eb 2701     		.2byte	0x127
 1142 06ed 60070000 		.4byte	0x760
 1143 06f1 15       		.uleb128 0x15
 1144 06f2 DB010000 		.4byte	.LASF100
 1145 06f6 08       		.byte	0x8
 1146 06f7 2F01     		.2byte	0x12f
 1147 06f9 3B010000 		.4byte	0x13b
 1148 06fd 00       		.byte	0
 1149 06fe 0A       		.uleb128 0xa
 1150 06ff 04       		.byte	0x4
 1151 0700 77020000 		.4byte	0x277
 1152 0704 06       		.uleb128 0x6
 1153 0705 CD020000 		.4byte	.LASF101
 1154 0709 0C       		.byte	0xc
 1155 070a 0D       		.byte	0xd
 1156 070b 34       		.byte	0x34
 1157 070c 29070000 		.4byte	0x729
 1158 0710 07       		.uleb128 0x7
 1159 0711 C4000000 		.4byte	.LASF102
 1160 0715 0D       		.byte	0xd
 1161 0716 35       		.byte	0x35
 1162 0717 AC020000 		.4byte	0x2ac
 1163 071b 00       		.byte	0
 1164 071c 07       		.uleb128 0x7
 1165 071d 27020000 		.4byte	.LASF103
 1166 0721 0D       		.byte	0xd
 1167 0722 37       		.byte	0x37
 1168 0723 51010000 		.4byte	0x151
 1169 0727 08       		.byte	0x8
 1170 0728 00       		.byte	0
 1171 0729 0A       		.uleb128 0xa
 1172 072a 04       		.byte	0x4
 1173 072b 04070000 		.4byte	0x704
 1174 072f 06       		.uleb128 0x6
 1175 0730 7B050000 		.4byte	.LASF104
 1176 0734 10       		.byte	0x10
 1177 0735 0E       		.byte	0xe
 1178 0736 39       		.byte	0x39
 1179 0737 60070000 		.4byte	0x760
ARM GAS  C:\Users\IDONNO~1\AppData\Local\Temp\ccqIfJ61.s 			page 22


 1180 073b 07       		.uleb128 0x7
 1181 073c 7B090000 		.4byte	.LASF105
 1182 0740 0E       		.byte	0xe
 1183 0741 3A       		.byte	0x3a
 1184 0742 AC020000 		.4byte	0x2ac
 1185 0746 00       		.byte	0
 1186 0747 07       		.uleb128 0x7
 1187 0748 BC0C0000 		.4byte	.LASF106
 1188 074c 0E       		.byte	0xe
 1189 074d 3C       		.byte	0x3c
 1190 074e 82020000 		.4byte	0x282
 1191 0752 08       		.byte	0x8
 1192 0753 07       		.uleb128 0x7
 1193 0754 F40B0000 		.4byte	.LASF107
 1194 0758 0E       		.byte	0xe
 1195 0759 3E       		.byte	0x3e
 1196 075a A3070000 		.4byte	0x7a3
 1197 075e 0C       		.byte	0xc
 1198 075f 00       		.byte	0
 1199 0760 0A       		.uleb128 0xa
 1200 0761 04       		.byte	0x4
 1201 0762 2F070000 		.4byte	0x72f
 1202 0766 0A       		.uleb128 0xa
 1203 0767 04       		.byte	0x4
 1204 0768 73070000 		.4byte	0x773
 1205 076c 04       		.uleb128 0x4
 1206 076d 01       		.byte	0x1
 1207 076e 08       		.byte	0x8
 1208 076f 72000000 		.4byte	.LASF108
 1209 0773 16       		.uleb128 0x16
 1210 0774 6C070000 		.4byte	0x76c
 1211 0778 05       		.uleb128 0x5
 1212 0779 5C010000 		.4byte	0x15c
 1213 077d 0A       		.uleb128 0xa
 1214 077e 04       		.byte	0x4
 1215 077f 61030000 		.4byte	0x361
 1216 0783 05       		.uleb128 0x5
 1217 0784 66070000 		.4byte	0x766
 1218 0788 17       		.uleb128 0x17
 1219 0789 16050000 		.4byte	0x516
 1220 078d 98070000 		.4byte	0x798
 1221 0791 18       		.uleb128 0x18
 1222 0792 95040000 		.4byte	0x495
 1223 0796 3A       		.byte	0x3a
 1224 0797 00       		.byte	0
 1225 0798 03       		.uleb128 0x3
 1226 0799 FE0A0000 		.4byte	.LASF109
 1227 079d 0E       		.byte	0xe
 1228 079e 34       		.byte	0x34
 1229 079f 2F070000 		.4byte	0x72f
 1230 07a3 0A       		.uleb128 0xa
 1231 07a4 04       		.byte	0x4
 1232 07a5 98070000 		.4byte	0x798
 1233 07a9 03       		.uleb128 0x3
 1234 07aa 910A0000 		.4byte	.LASF110
 1235 07ae 0F       		.byte	0xf
 1236 07af 34       		.byte	0x34
ARM GAS  C:\Users\IDONNO~1\AppData\Local\Temp\ccqIfJ61.s 			page 23


 1237 07b0 B4070000 		.4byte	0x7b4
 1238 07b4 06       		.uleb128 0x6
 1239 07b5 0F070000 		.4byte	.LASF111
 1240 07b9 14       		.byte	0x14
 1241 07ba 0F       		.byte	0xf
 1242 07bb 39       		.byte	0x39
 1243 07bc FD070000 		.4byte	0x7fd
 1244 07c0 07       		.uleb128 0x7
 1245 07c1 52080000 		.4byte	.LASF112
 1246 07c5 0F       		.byte	0xf
 1247 07c6 3A       		.byte	0x3a
 1248 07c7 FD070000 		.4byte	0x7fd
 1249 07cb 00       		.byte	0
 1250 07cc 07       		.uleb128 0x7
 1251 07cd 2B0A0000 		.4byte	.LASF113
 1252 07d1 0F       		.byte	0xf
 1253 07d2 3D       		.byte	0x3d
 1254 07d3 82020000 		.4byte	0x282
 1255 07d7 04       		.byte	0x4
 1256 07d8 07       		.uleb128 0x7
 1257 07d9 540B0000 		.4byte	.LASF114
 1258 07dd 0F       		.byte	0xf
 1259 07de 3F       		.byte	0x3f
 1260 07df 3B010000 		.4byte	0x13b
 1261 07e3 08       		.byte	0x8
 1262 07e4 07       		.uleb128 0x7
 1263 07e5 7C0C0000 		.4byte	.LASF115
 1264 07e9 0F       		.byte	0xf
 1265 07ea 41       		.byte	0x41
 1266 07eb 46010000 		.4byte	0x146
 1267 07ef 0C       		.byte	0xc
 1268 07f0 07       		.uleb128 0x7
 1269 07f1 C8030000 		.4byte	.LASF116
 1270 07f5 0F       		.byte	0xf
 1271 07f6 43       		.byte	0x43
 1272 07f7 46010000 		.4byte	0x146
 1273 07fb 10       		.byte	0x10
 1274 07fc 00       		.byte	0
 1275 07fd 0A       		.uleb128 0xa
 1276 07fe 04       		.byte	0x4
 1277 07ff A9070000 		.4byte	0x7a9
 1278 0803 06       		.uleb128 0x6
 1279 0804 91000000 		.4byte	.LASF117
 1280 0808 04       		.byte	0x4
 1281 0809 0F       		.byte	0xf
 1282 080a 4A       		.byte	0x4a
 1283 080b 1C080000 		.4byte	0x81c
 1284 080f 07       		.uleb128 0x7
 1285 0810 7D0B0000 		.4byte	.LASF118
 1286 0814 0F       		.byte	0xf
 1287 0815 4B       		.byte	0x4b
 1288 0816 FD070000 		.4byte	0x7fd
 1289 081a 00       		.byte	0
 1290 081b 00       		.byte	0
 1291 081c 03       		.uleb128 0x3
 1292 081d 1E030000 		.4byte	.LASF119
 1293 0821 0F       		.byte	0xf
ARM GAS  C:\Users\IDONNO~1\AppData\Local\Temp\ccqIfJ61.s 			page 24


 1294 0822 4E       		.byte	0x4e
 1295 0823 03080000 		.4byte	0x803
 1296 0827 03       		.uleb128 0x3
 1297 0828 D7000000 		.4byte	.LASF120
 1298 082c 10       		.byte	0x10
 1299 082d 3F       		.byte	0x3f
 1300 082e 32080000 		.4byte	0x832
 1301 0832 06       		.uleb128 0x6
 1302 0833 070C0000 		.4byte	.LASF121
 1303 0837 24       		.byte	0x24
 1304 0838 10       		.byte	0x10
 1305 0839 4D       		.byte	0x4d
 1306 083a 9F080000 		.4byte	0x89f
 1307 083e 07       		.uleb128 0x7
 1308 083f 6C020000 		.4byte	.LASF122
 1309 0843 10       		.byte	0x10
 1310 0844 4E       		.byte	0x4e
 1311 0845 AC020000 		.4byte	0x2ac
 1312 0849 00       		.byte	0
 1313 084a 07       		.uleb128 0x7
 1314 084b 520A0000 		.4byte	.LASF123
 1315 084f 10       		.byte	0x10
 1316 0850 4F       		.byte	0x4f
 1317 0851 C1080000 		.4byte	0x8c1
 1318 0855 08       		.byte	0x8
 1319 0856 07       		.uleb128 0x7
 1320 0857 8E0C0000 		.4byte	.LASF124
 1321 085b 10       		.byte	0x10
 1322 085c 50       		.byte	0x50
 1323 085d C6080000 		.4byte	0x8c6
 1324 0861 0C       		.byte	0xc
 1325 0862 07       		.uleb128 0x7
 1326 0863 730A0000 		.4byte	.LASF125
 1327 0867 10       		.byte	0x10
 1328 0868 51       		.byte	0x51
 1329 0869 C6080000 		.4byte	0x8c6
 1330 086d 10       		.byte	0x10
 1331 086e 07       		.uleb128 0x7
 1332 086f 1F060000 		.4byte	.LASF126
 1333 0873 10       		.byte	0x10
 1334 0874 53       		.byte	0x53
 1335 0875 C6080000 		.4byte	0x8c6
 1336 0879 14       		.byte	0x14
 1337 087a 07       		.uleb128 0x7
 1338 087b 42010000 		.4byte	.LASF127
 1339 087f 10       		.byte	0x10
 1340 0880 54       		.byte	0x54
 1341 0881 C6080000 		.4byte	0x8c6
 1342 0885 18       		.byte	0x18
 1343 0886 07       		.uleb128 0x7
 1344 0887 B4050000 		.4byte	.LASF128
 1345 088b 10       		.byte	0x10
 1346 088c 55       		.byte	0x55
 1347 088d 9F080000 		.4byte	0x89f
 1348 0891 1C       		.byte	0x1c
 1349 0892 07       		.uleb128 0x7
 1350 0893 8E010000 		.4byte	.LASF129
ARM GAS  C:\Users\IDONNO~1\AppData\Local\Temp\ccqIfJ61.s 			page 25


 1351 0897 10       		.byte	0x10
 1352 0898 56       		.byte	0x56
 1353 0899 5F030000 		.4byte	0x35f
 1354 089d 20       		.byte	0x20
 1355 089e 00       		.byte	0
 1356 089f 03       		.uleb128 0x3
 1357 08a0 5E010000 		.4byte	.LASF130
 1358 08a4 10       		.byte	0x10
 1359 08a5 42       		.byte	0x42
 1360 08a6 AA080000 		.4byte	0x8aa
 1361 08aa 0A       		.uleb128 0xa
 1362 08ab 04       		.byte	0x4
 1363 08ac B0080000 		.4byte	0x8b0
 1364 08b0 0C       		.uleb128 0xc
 1365 08b1 BB080000 		.4byte	0x8bb
 1366 08b5 0D       		.uleb128 0xd
 1367 08b6 BB080000 		.4byte	0x8bb
 1368 08ba 00       		.byte	0
 1369 08bb 0A       		.uleb128 0xa
 1370 08bc 04       		.byte	0x4
 1371 08bd 27080000 		.4byte	0x827
 1372 08c1 05       		.uleb128 0x5
 1373 08c2 2C000000 		.4byte	0x2c
 1374 08c6 0A       		.uleb128 0xa
 1375 08c7 04       		.byte	0x4
 1376 08c8 AD000000 		.4byte	0xad
 1377 08cc 03       		.uleb128 0x3
 1378 08cd A4060000 		.4byte	.LASF131
 1379 08d1 10       		.byte	0x10
 1380 08d2 64       		.byte	0x64
 1381 08d3 27080000 		.4byte	0x827
 1382 08d7 03       		.uleb128 0x3
 1383 08d8 BC070000 		.4byte	.LASF132
 1384 08dc 10       		.byte	0x10
 1385 08dd 71       		.byte	0x71
 1386 08de 27080000 		.4byte	0x827
 1387 08e2 19       		.uleb128 0x19
 1388 08e3 2C000000 		.4byte	0x2c
 1389 08e7 FB080000 		.4byte	0x8fb
 1390 08eb 0D       		.uleb128 0xd
 1391 08ec 5F030000 		.4byte	0x35f
 1392 08f0 0D       		.uleb128 0xd
 1393 08f1 FB080000 		.4byte	0x8fb
 1394 08f5 0D       		.uleb128 0xd
 1395 08f6 2C000000 		.4byte	0x2c
 1396 08fa 00       		.byte	0
 1397 08fb 0A       		.uleb128 0xa
 1398 08fc 04       		.byte	0x4
 1399 08fd 01090000 		.4byte	0x901
 1400 0901 16       		.uleb128 0x16
 1401 0902 AD000000 		.4byte	0xad
 1402 0906 0A       		.uleb128 0xa
 1403 0907 04       		.byte	0x4
 1404 0908 E2080000 		.4byte	0x8e2
 1405 090c 19       		.uleb128 0x19
 1406 090d 2C000000 		.4byte	0x2c
 1407 0911 25090000 		.4byte	0x925
ARM GAS  C:\Users\IDONNO~1\AppData\Local\Temp\ccqIfJ61.s 			page 26


 1408 0915 0D       		.uleb128 0xd
 1409 0916 5F030000 		.4byte	0x35f
 1410 091a 0D       		.uleb128 0xd
 1411 091b C6080000 		.4byte	0x8c6
 1412 091f 0D       		.uleb128 0xd
 1413 0920 2C000000 		.4byte	0x2c
 1414 0924 00       		.byte	0
 1415 0925 0A       		.uleb128 0xa
 1416 0926 04       		.byte	0x4
 1417 0927 0C090000 		.4byte	0x90c
 1418 092b 19       		.uleb128 0x19
 1419 092c 30010000 		.4byte	0x130
 1420 0930 3F090000 		.4byte	0x93f
 1421 0934 0D       		.uleb128 0xd
 1422 0935 5F030000 		.4byte	0x35f
 1423 0939 0D       		.uleb128 0xd
 1424 093a AD000000 		.4byte	0xad
 1425 093e 00       		.byte	0
 1426 093f 0A       		.uleb128 0xa
 1427 0940 04       		.byte	0x4
 1428 0941 2B090000 		.4byte	0x92b
 1429 0945 19       		.uleb128 0x19
 1430 0946 30010000 		.4byte	0x130
 1431 094a 54090000 		.4byte	0x954
 1432 094e 0D       		.uleb128 0xd
 1433 094f 5F030000 		.4byte	0x35f
 1434 0953 00       		.byte	0
 1435 0954 0A       		.uleb128 0xa
 1436 0955 04       		.byte	0x4
 1437 0956 45090000 		.4byte	0x945
 1438 095a 19       		.uleb128 0x19
 1439 095b 30010000 		.4byte	0x130
 1440 095f 73090000 		.4byte	0x973
 1441 0963 0D       		.uleb128 0xd
 1442 0964 5F030000 		.4byte	0x35f
 1443 0968 0D       		.uleb128 0xd
 1444 0969 AD000000 		.4byte	0xad
 1445 096d 0D       		.uleb128 0xd
 1446 096e 5C010000 		.4byte	0x15c
 1447 0972 00       		.byte	0
 1448 0973 0A       		.uleb128 0xa
 1449 0974 04       		.byte	0x4
 1450 0975 5A090000 		.4byte	0x95a
 1451 0979 19       		.uleb128 0x19
 1452 097a 30010000 		.4byte	0x130
 1453 097e 8D090000 		.4byte	0x98d
 1454 0982 0D       		.uleb128 0xd
 1455 0983 5F030000 		.4byte	0x35f
 1456 0987 0D       		.uleb128 0xd
 1457 0988 5C010000 		.4byte	0x15c
 1458 098c 00       		.byte	0
 1459 098d 0A       		.uleb128 0xa
 1460 098e 04       		.byte	0x4
 1461 098f 79090000 		.4byte	0x979
 1462 0993 19       		.uleb128 0x19
 1463 0994 2C000000 		.4byte	0x2c
 1464 0998 B1090000 		.4byte	0x9b1
ARM GAS  C:\Users\IDONNO~1\AppData\Local\Temp\ccqIfJ61.s 			page 27


 1465 099c 0D       		.uleb128 0xd
 1466 099d 5F030000 		.4byte	0x35f
 1467 09a1 0D       		.uleb128 0xd
 1468 09a2 FB080000 		.4byte	0x8fb
 1469 09a6 0D       		.uleb128 0xd
 1470 09a7 2C000000 		.4byte	0x2c
 1471 09ab 0D       		.uleb128 0xd
 1472 09ac 5C010000 		.4byte	0x15c
 1473 09b0 00       		.byte	0
 1474 09b1 0A       		.uleb128 0xa
 1475 09b2 04       		.byte	0x4
 1476 09b3 93090000 		.4byte	0x993
 1477 09b7 19       		.uleb128 0x19
 1478 09b8 2C000000 		.4byte	0x2c
 1479 09bc D5090000 		.4byte	0x9d5
 1480 09c0 0D       		.uleb128 0xd
 1481 09c1 5F030000 		.4byte	0x35f
 1482 09c5 0D       		.uleb128 0xd
 1483 09c6 C6080000 		.4byte	0x8c6
 1484 09ca 0D       		.uleb128 0xd
 1485 09cb 2C000000 		.4byte	0x2c
 1486 09cf 0D       		.uleb128 0xd
 1487 09d0 5C010000 		.4byte	0x15c
 1488 09d4 00       		.byte	0
 1489 09d5 0A       		.uleb128 0xa
 1490 09d6 04       		.byte	0x4
 1491 09d7 B7090000 		.4byte	0x9b7
 1492 09db 04       		.uleb128 0x4
 1493 09dc 01       		.byte	0x1
 1494 09dd 02       		.byte	0x2
 1495 09de 05040000 		.4byte	.LASF133
 1496 09e2 13       		.uleb128 0x13
 1497 09e3 04       		.byte	0x4
 1498 09e4 11       		.byte	0x11
 1499 09e5 B3       		.byte	0xb3
 1500 09e6 030A0000 		.4byte	0xa03
 1501 09ea 12       		.uleb128 0x12
 1502 09eb 73657400 		.ascii	"set\000"
 1503 09ef 11       		.byte	0x11
 1504 09f0 B4       		.byte	0xb4
 1505 09f1 B8000000 		.4byte	0xb8
 1506 09f5 00       		.byte	0
 1507 09f6 07       		.uleb128 0x7
 1508 09f7 91030000 		.4byte	.LASF134
 1509 09fb 11       		.byte	0x11
 1510 09fc B5       		.byte	0xb5
 1511 09fd B8000000 		.4byte	0xb8
 1512 0a01 02       		.byte	0x2
 1513 0a02 00       		.byte	0
 1514 0a03 14       		.uleb128 0x14
 1515 0a04 04       		.byte	0x4
 1516 0a05 11       		.byte	0x11
 1517 0a06 B1       		.byte	0xb1
 1518 0a07 1E0A0000 		.4byte	0xa1e
 1519 0a0b 1A       		.uleb128 0x1a
 1520 0a0c 5700     		.ascii	"W\000"
 1521 0a0e 11       		.byte	0x11
ARM GAS  C:\Users\IDONNO~1\AppData\Local\Temp\ccqIfJ61.s 			page 28


 1522 0a0f B2       		.byte	0xb2
 1523 0a10 CE000000 		.4byte	0xce
 1524 0a14 1A       		.uleb128 0x1a
 1525 0a15 4800     		.ascii	"H\000"
 1526 0a17 11       		.byte	0x11
 1527 0a18 B6       		.byte	0xb6
 1528 0a19 E2090000 		.4byte	0x9e2
 1529 0a1d 00       		.byte	0
 1530 0a1e 13       		.uleb128 0x13
 1531 0a1f 2C       		.byte	0x2c
 1532 0a20 11       		.byte	0x11
 1533 0a21 A9       		.byte	0xa9
 1534 0a22 AB0A0000 		.4byte	0xaab
 1535 0a26 07       		.uleb128 0x7
 1536 0a27 4C030000 		.4byte	.LASF135
 1537 0a2b 11       		.byte	0x11
 1538 0a2c AB       		.byte	0xab
 1539 0a2d E9000000 		.4byte	0xe9
 1540 0a31 00       		.byte	0
 1541 0a32 07       		.uleb128 0x7
 1542 0a33 AF090000 		.4byte	.LASF136
 1543 0a37 11       		.byte	0x11
 1544 0a38 AC       		.byte	0xac
 1545 0a39 E9000000 		.4byte	0xe9
 1546 0a3d 04       		.byte	0x4
 1547 0a3e 07       		.uleb128 0x7
 1548 0a3f 85080000 		.4byte	.LASF137
 1549 0a43 11       		.byte	0x11
 1550 0a44 AD       		.byte	0xad
 1551 0a45 E9000000 		.4byte	0xe9
 1552 0a49 08       		.byte	0x8
 1553 0a4a 07       		.uleb128 0x7
 1554 0a4b CF050000 		.4byte	.LASF138
 1555 0a4f 11       		.byte	0x11
 1556 0a50 AE       		.byte	0xae
 1557 0a51 E9000000 		.4byte	0xe9
 1558 0a55 0C       		.byte	0xc
 1559 0a56 12       		.uleb128 0x12
 1560 0a57 49445200 		.ascii	"IDR\000"
 1561 0a5b 11       		.byte	0x11
 1562 0a5c AF       		.byte	0xaf
 1563 0a5d E9000000 		.4byte	0xe9
 1564 0a61 10       		.byte	0x10
 1565 0a62 12       		.uleb128 0x12
 1566 0a63 4F445200 		.ascii	"ODR\000"
 1567 0a67 11       		.byte	0x11
 1568 0a68 B0       		.byte	0xb0
 1569 0a69 E9000000 		.4byte	0xe9
 1570 0a6d 14       		.byte	0x14
 1571 0a6e 07       		.uleb128 0x7
 1572 0a6f 6D000000 		.4byte	.LASF139
 1573 0a73 11       		.byte	0x11
 1574 0a74 B7       		.byte	0xb7
 1575 0a75 AB0A0000 		.4byte	0xaab
 1576 0a79 18       		.byte	0x18
 1577 0a7a 07       		.uleb128 0x7
 1578 0a7b E4070000 		.4byte	.LASF140
ARM GAS  C:\Users\IDONNO~1\AppData\Local\Temp\ccqIfJ61.s 			page 29


 1579 0a7f 11       		.byte	0x11
 1580 0a80 B8       		.byte	0xb8
 1581 0a81 E9000000 		.4byte	0xe9
 1582 0a85 1C       		.byte	0x1c
 1583 0a86 07       		.uleb128 0x7
 1584 0a87 64030000 		.4byte	.LASF141
 1585 0a8b 11       		.byte	0x11
 1586 0a8c B9       		.byte	0xb9
 1587 0a8d E9000000 		.4byte	0xe9
 1588 0a91 20       		.byte	0x20
 1589 0a92 07       		.uleb128 0x7
 1590 0a93 52030000 		.4byte	.LASF142
 1591 0a97 11       		.byte	0x11
 1592 0a98 BA       		.byte	0xba
 1593 0a99 E9000000 		.4byte	0xe9
 1594 0a9d 24       		.byte	0x24
 1595 0a9e 12       		.uleb128 0x12
 1596 0a9f 42525200 		.ascii	"BRR\000"
 1597 0aa3 11       		.byte	0x11
 1598 0aa4 BB       		.byte	0xbb
 1599 0aa5 E9000000 		.4byte	0xe9
 1600 0aa9 28       		.byte	0x28
 1601 0aaa 00       		.byte	0
 1602 0aab 05       		.uleb128 0x5
 1603 0aac 030A0000 		.4byte	0xa03
 1604 0ab0 03       		.uleb128 0x3
 1605 0ab1 57030000 		.4byte	.LASF143
 1606 0ab5 11       		.byte	0x11
 1607 0ab6 BC       		.byte	0xbc
 1608 0ab7 1E0A0000 		.4byte	0xa1e
 1609 0abb 11       		.uleb128 0x11
 1610 0abc 7B070000 		.4byte	.LASF144
 1611 0ac0 11       		.byte	0x11
 1612 0ac1 0E01     		.2byte	0x10e
 1613 0ac3 CE000000 		.4byte	0xce
 1614 0ac7 1B       		.uleb128 0x1b
 1615 0ac8 01       		.byte	0x1
 1616 0ac9 50000000 		.4byte	0x50
 1617 0acd 12       		.byte	0x12
 1618 0ace 55       		.byte	0x55
 1619 0acf E60A0000 		.4byte	0xae6
 1620 0ad3 1C       		.uleb128 0x1c
 1621 0ad4 370A0000 		.4byte	.LASF145
 1622 0ad8 00       		.byte	0
 1623 0ad9 1C       		.uleb128 0x1c
 1624 0ada 0B040000 		.4byte	.LASF146
 1625 0ade 01       		.byte	0x1
 1626 0adf 1C       		.uleb128 0x1c
 1627 0ae0 03090000 		.4byte	.LASF147
 1628 0ae4 02       		.byte	0x2
 1629 0ae5 00       		.byte	0
 1630 0ae6 03       		.uleb128 0x3
 1631 0ae7 BD020000 		.4byte	.LASF148
 1632 0aeb 12       		.byte	0x12
 1633 0aec 59       		.byte	0x59
 1634 0aed C70A0000 		.4byte	0xac7
 1635 0af1 03       		.uleb128 0x3
ARM GAS  C:\Users\IDONNO~1\AppData\Local\Temp\ccqIfJ61.s 			page 30


 1636 0af2 20000000 		.4byte	.LASF149
 1637 0af6 12       		.byte	0x12
 1638 0af7 5E       		.byte	0x5e
 1639 0af8 FC0A0000 		.4byte	0xafc
 1640 0afc 06       		.uleb128 0x6
 1641 0afd 20000000 		.4byte	.LASF149
 1642 0b01 78       		.byte	0x78
 1643 0b02 12       		.byte	0x12
 1644 0b03 78       		.byte	0x78
 1645 0b04 670B0000 		.4byte	0xb67
 1646 0b08 12       		.uleb128 0x12
 1647 0b09 766D7400 		.ascii	"vmt\000"
 1648 0b0d 12       		.byte	0x12
 1649 0b0e 7A       		.byte	0x7a
 1650 0b0f D40B0000 		.4byte	0xbd4
 1651 0b13 00       		.byte	0
 1652 0b14 07       		.uleb128 0x7
 1653 0b15 C7020000 		.4byte	.LASF150
 1654 0b19 12       		.byte	0x12
 1655 0b1a 7B       		.byte	0x7b
 1656 0b1b 1C080000 		.4byte	0x81c
 1657 0b1f 04       		.byte	0x4
 1658 0b20 07       		.uleb128 0x7
 1659 0b21 980B0000 		.4byte	.LASF151
 1660 0b25 12       		.byte	0x12
 1661 0b26 7B       		.byte	0x7b
 1662 0b27 E60A0000 		.4byte	0xae6
 1663 0b2b 08       		.byte	0x8
 1664 0b2c 07       		.uleb128 0x7
 1665 0b2d 50020000 		.4byte	.LASF152
 1666 0b31 12       		.byte	0x12
 1667 0b32 7B       		.byte	0x7b
 1668 0b33 CC080000 		.4byte	0x8cc
 1669 0b37 0C       		.byte	0xc
 1670 0b38 07       		.uleb128 0x7
 1671 0b39 AC080000 		.4byte	.LASF153
 1672 0b3d 12       		.byte	0x12
 1673 0b3e 7B       		.byte	0x7b
 1674 0b3f D7080000 		.4byte	0x8d7
 1675 0b43 30       		.byte	0x30
 1676 0b44 12       		.uleb128 0x12
 1677 0b45 696200   		.ascii	"ib\000"
 1678 0b48 12       		.byte	0x12
 1679 0b49 7B       		.byte	0x7b
 1680 0b4a DF0B0000 		.4byte	0xbdf
 1681 0b4e 54       		.byte	0x54
 1682 0b4f 12       		.uleb128 0x12
 1683 0b50 6F6200   		.ascii	"ob\000"
 1684 0b53 12       		.byte	0x12
 1685 0b54 7B       		.byte	0x7b
 1686 0b55 DF0B0000 		.4byte	0xbdf
 1687 0b59 64       		.byte	0x64
 1688 0b5a 07       		.uleb128 0x7
 1689 0b5b CE060000 		.4byte	.LASF154
 1690 0b5f 12       		.byte	0x12
 1691 0b60 7B       		.byte	0x7b
 1692 0b61 EF0B0000 		.4byte	0xbef
ARM GAS  C:\Users\IDONNO~1\AppData\Local\Temp\ccqIfJ61.s 			page 31


 1693 0b65 74       		.byte	0x74
 1694 0b66 00       		.byte	0
 1695 0b67 06       		.uleb128 0x6
 1696 0b68 160C0000 		.4byte	.LASF155
 1697 0b6c 20       		.byte	0x20
 1698 0b6d 12       		.byte	0x12
 1699 0b6e 6D       		.byte	0x6d
 1700 0b6f D40B0000 		.4byte	0xbd4
 1701 0b73 07       		.uleb128 0x7
 1702 0b74 02070000 		.4byte	.LASF156
 1703 0b78 12       		.byte	0x12
 1704 0b79 6E       		.byte	0x6e
 1705 0b7a 06090000 		.4byte	0x906
 1706 0b7e 00       		.byte	0
 1707 0b7f 07       		.uleb128 0x7
 1708 0b80 180A0000 		.4byte	.LASF157
 1709 0b84 12       		.byte	0x12
 1710 0b85 6E       		.byte	0x6e
 1711 0b86 25090000 		.4byte	0x925
 1712 0b8a 04       		.byte	0x4
 1713 0b8b 12       		.uleb128 0x12
 1714 0b8c 70757400 		.ascii	"put\000"
 1715 0b90 12       		.byte	0x12
 1716 0b91 6E       		.byte	0x6e
 1717 0b92 3F090000 		.4byte	0x93f
 1718 0b96 08       		.byte	0x8
 1719 0b97 12       		.uleb128 0x12
 1720 0b98 67657400 		.ascii	"get\000"
 1721 0b9c 12       		.byte	0x12
 1722 0b9d 6E       		.byte	0x6e
 1723 0b9e 54090000 		.4byte	0x954
 1724 0ba2 0C       		.byte	0xc
 1725 0ba3 07       		.uleb128 0x7
 1726 0ba4 D2030000 		.4byte	.LASF158
 1727 0ba8 12       		.byte	0x12
 1728 0ba9 6E       		.byte	0x6e
 1729 0baa 73090000 		.4byte	0x973
 1730 0bae 10       		.byte	0x10
 1731 0baf 07       		.uleb128 0x7
 1732 0bb0 6E0A0000 		.4byte	.LASF159
 1733 0bb4 12       		.byte	0x12
 1734 0bb5 6E       		.byte	0x6e
 1735 0bb6 8D090000 		.4byte	0x98d
 1736 0bba 14       		.byte	0x14
 1737 0bbb 07       		.uleb128 0x7
 1738 0bbc 20020000 		.4byte	.LASF160
 1739 0bc0 12       		.byte	0x12
 1740 0bc1 6E       		.byte	0x6e
 1741 0bc2 B1090000 		.4byte	0x9b1
 1742 0bc6 18       		.byte	0x18
 1743 0bc7 07       		.uleb128 0x7
 1744 0bc8 100C0000 		.4byte	.LASF161
 1745 0bcc 12       		.byte	0x12
 1746 0bcd 6E       		.byte	0x6e
 1747 0bce D5090000 		.4byte	0x9d5
 1748 0bd2 1C       		.byte	0x1c
 1749 0bd3 00       		.byte	0
ARM GAS  C:\Users\IDONNO~1\AppData\Local\Temp\ccqIfJ61.s 			page 32


 1750 0bd4 0A       		.uleb128 0xa
 1751 0bd5 04       		.byte	0x4
 1752 0bd6 DA0B0000 		.4byte	0xbda
 1753 0bda 16       		.uleb128 0x16
 1754 0bdb 670B0000 		.4byte	0xb67
 1755 0bdf 17       		.uleb128 0x17
 1756 0be0 AD000000 		.4byte	0xad
 1757 0be4 EF0B0000 		.4byte	0xbef
 1758 0be8 18       		.uleb128 0x18
 1759 0be9 95040000 		.4byte	0x495
 1760 0bed 0F       		.byte	0xf
 1761 0bee 00       		.byte	0
 1762 0bef 0A       		.uleb128 0xa
 1763 0bf0 04       		.byte	0x4
 1764 0bf1 FF040000 		.4byte	0x4ff
 1765 0bf5 17       		.uleb128 0x17
 1766 0bf6 16050000 		.4byte	0x516
 1767 0bfa 050C0000 		.4byte	0xc05
 1768 0bfe 18       		.uleb128 0x18
 1769 0bff 95040000 		.4byte	0x495
 1770 0c03 42       		.byte	0x42
 1771 0c04 00       		.byte	0
 1772 0c05 04       		.uleb128 0x4
 1773 0c06 08       		.byte	0x8
 1774 0c07 04       		.byte	0x4
 1775 0c08 530C0000 		.4byte	.LASF162
 1776 0c0c 04       		.uleb128 0x4
 1777 0c0d 04       		.byte	0x4
 1778 0c0e 04       		.byte	0x4
 1779 0c0f B7020000 		.4byte	.LASF163
 1780 0c13 04       		.uleb128 0x4
 1781 0c14 08       		.byte	0x8
 1782 0c15 04       		.byte	0x4
 1783 0c16 A0080000 		.4byte	.LASF164
 1784 0c1a 1B       		.uleb128 0x1b
 1785 0c1b 01       		.byte	0x1
 1786 0c1c 50000000 		.4byte	0x50
 1787 0c20 13       		.byte	0x13
 1788 0c21 23       		.byte	0x23
 1789 0c22 390C0000 		.4byte	0xc39
 1790 0c26 1C       		.uleb128 0x1c
 1791 0c27 97050000 		.4byte	.LASF165
 1792 0c2b 00       		.byte	0
 1793 0c2c 1C       		.uleb128 0x1c
 1794 0c2d C50B0000 		.4byte	.LASF166
 1795 0c31 01       		.byte	0x1
 1796 0c32 1C       		.uleb128 0x1c
 1797 0c33 AE030000 		.4byte	.LASF167
 1798 0c37 02       		.byte	0x2
 1799 0c38 00       		.byte	0
 1800 0c39 03       		.uleb128 0x3
 1801 0c3a 57020000 		.4byte	.LASF168
 1802 0c3e 13       		.byte	0x13
 1803 0c3f 27       		.byte	0x27
 1804 0c40 1A0C0000 		.4byte	0xc1a
 1805 0c44 1B       		.uleb128 0x1b
 1806 0c45 01       		.byte	0x1
ARM GAS  C:\Users\IDONNO~1\AppData\Local\Temp\ccqIfJ61.s 			page 33


 1807 0c46 50000000 		.4byte	0x50
 1808 0c4a 13       		.byte	0x13
 1809 0c4b 29       		.byte	0x29
 1810 0c4c 5D0C0000 		.4byte	0xc5d
 1811 0c50 1C       		.uleb128 0x1c
 1812 0c51 E00B0000 		.4byte	.LASF169
 1813 0c55 00       		.byte	0
 1814 0c56 1C       		.uleb128 0x1c
 1815 0c57 A8000000 		.4byte	.LASF170
 1816 0c5b 01       		.byte	0x1
 1817 0c5c 00       		.byte	0
 1818 0c5d 03       		.uleb128 0x3
 1819 0c5e CC090000 		.4byte	.LASF171
 1820 0c62 13       		.byte	0x13
 1821 0c63 2C       		.byte	0x2c
 1822 0c64 440C0000 		.4byte	0xc44
 1823 0c68 1B       		.uleb128 0x1b
 1824 0c69 01       		.byte	0x1
 1825 0c6a 50000000 		.4byte	0x50
 1826 0c6e 13       		.byte	0x13
 1827 0c6f 2E       		.byte	0x2e
 1828 0c70 870C0000 		.4byte	0xc87
 1829 0c74 1C       		.uleb128 0x1c
 1830 0c75 0C090000 		.4byte	.LASF172
 1831 0c79 00       		.byte	0
 1832 0c7a 1C       		.uleb128 0x1c
 1833 0c7b 66070000 		.4byte	.LASF173
 1834 0c7f 01       		.byte	0x1
 1835 0c80 1C       		.uleb128 0x1c
 1836 0c81 B20B0000 		.4byte	.LASF174
 1837 0c85 02       		.byte	0x2
 1838 0c86 00       		.byte	0
 1839 0c87 03       		.uleb128 0x3
 1840 0c88 DC050000 		.4byte	.LASF175
 1841 0c8c 13       		.byte	0x13
 1842 0c8d 32       		.byte	0x32
 1843 0c8e 680C0000 		.4byte	0xc68
 1844 0c92 1B       		.uleb128 0x1b
 1845 0c93 01       		.byte	0x1
 1846 0c94 50000000 		.4byte	0x50
 1847 0c98 13       		.byte	0x13
 1848 0c99 3A       		.byte	0x3a
 1849 0c9a B10C0000 		.4byte	0xcb1
 1850 0c9e 1C       		.uleb128 0x1c
 1851 0c9f 45000000 		.4byte	.LASF176
 1852 0ca3 00       		.byte	0
 1853 0ca4 1C       		.uleb128 0x1c
 1854 0ca5 69030000 		.4byte	.LASF177
 1855 0ca9 01       		.byte	0x1
 1856 0caa 1C       		.uleb128 0x1c
 1857 0cab 3C0C0000 		.4byte	.LASF178
 1858 0caf 02       		.byte	0x2
 1859 0cb0 00       		.byte	0
 1860 0cb1 03       		.uleb128 0x3
 1861 0cb2 E3060000 		.4byte	.LASF179
 1862 0cb6 13       		.byte	0x13
 1863 0cb7 3E       		.byte	0x3e
ARM GAS  C:\Users\IDONNO~1\AppData\Local\Temp\ccqIfJ61.s 			page 34


 1864 0cb8 920C0000 		.4byte	0xc92
 1865 0cbc 1B       		.uleb128 0x1b
 1866 0cbd 01       		.byte	0x1
 1867 0cbe 50000000 		.4byte	0x50
 1868 0cc2 13       		.byte	0x13
 1869 0cc3 5C       		.byte	0x5c
 1870 0cc4 DB0C0000 		.4byte	0xcdb
 1871 0cc8 1C       		.uleb128 0x1c
 1872 0cc9 1D080000 		.4byte	.LASF180
 1873 0ccd 00       		.byte	0
 1874 0cce 1C       		.uleb128 0x1c
 1875 0ccf E1090000 		.4byte	.LASF181
 1876 0cd3 01       		.byte	0x1
 1877 0cd4 1C       		.uleb128 0x1c
 1878 0cd5 1E070000 		.4byte	.LASF182
 1879 0cd9 02       		.byte	0x2
 1880 0cda 00       		.byte	0
 1881 0cdb 03       		.uleb128 0x3
 1882 0cdc 410A0000 		.4byte	.LASF183
 1883 0ce0 13       		.byte	0x13
 1884 0ce1 60       		.byte	0x60
 1885 0ce2 BC0C0000 		.4byte	0xcbc
 1886 0ce6 13       		.uleb128 0x13
 1887 0ce7 D4       		.byte	0xd4
 1888 0ce8 13       		.byte	0x13
 1889 0ce9 75       		.byte	0x75
 1890 0cea 8F0F0000 		.4byte	0xf8f
 1891 0cee 12       		.uleb128 0x12
 1892 0cef 76646400 		.ascii	"vdd\000"
 1893 0cf3 13       		.byte	0x13
 1894 0cf4 76       		.byte	0x76
 1895 0cf5 0C0C0000 		.4byte	0xc0c
 1896 0cf9 00       		.byte	0
 1897 0cfa 07       		.uleb128 0x7
 1898 0cfb EF010000 		.4byte	.LASF184
 1899 0cff 13       		.byte	0x13
 1900 0d00 77       		.byte	0x77
 1901 0d01 0C0C0000 		.4byte	0xc0c
 1902 0d05 04       		.byte	0x4
 1903 0d06 07       		.uleb128 0x7
 1904 0d07 8F050000 		.4byte	.LASF185
 1905 0d0b 13       		.byte	0x13
 1906 0d0c 78       		.byte	0x78
 1907 0d0d B8000000 		.4byte	0xb8
 1908 0d11 08       		.byte	0x8
 1909 0d12 07       		.uleb128 0x7
 1910 0d13 730C0000 		.4byte	.LASF186
 1911 0d17 13       		.byte	0x13
 1912 0d18 7A       		.byte	0x7a
 1913 0d19 390C0000 		.4byte	0xc39
 1914 0d1d 0A       		.byte	0xa
 1915 0d1e 07       		.uleb128 0x7
 1916 0d1f 5A0C0000 		.4byte	.LASF187
 1917 0d23 13       		.byte	0x13
 1918 0d24 7B       		.byte	0x7b
 1919 0d25 5D0C0000 		.4byte	0xc5d
 1920 0d29 0B       		.byte	0xb
ARM GAS  C:\Users\IDONNO~1\AppData\Local\Temp\ccqIfJ61.s 			page 35


 1921 0d2a 07       		.uleb128 0x7
 1922 0d2b 0A030000 		.4byte	.LASF188
 1923 0d2f 13       		.byte	0x13
 1924 0d30 7C       		.byte	0x7c
 1925 0d31 B10C0000 		.4byte	0xcb1
 1926 0d35 0C       		.byte	0xc
 1927 0d36 07       		.uleb128 0x7
 1928 0d37 2C010000 		.4byte	.LASF189
 1929 0d3b 13       		.byte	0x13
 1930 0d3c 7D       		.byte	0x7d
 1931 0d3d 870C0000 		.4byte	0xc87
 1932 0d41 0D       		.byte	0xd
 1933 0d42 07       		.uleb128 0x7
 1934 0d43 1D0A0000 		.4byte	.LASF190
 1935 0d47 13       		.byte	0x13
 1936 0d48 80       		.byte	0x80
 1937 0d49 0C0C0000 		.4byte	0xc0c
 1938 0d4d 10       		.byte	0x10
 1939 0d4e 07       		.uleb128 0x7
 1940 0d4f 3E030000 		.4byte	.LASF191
 1941 0d53 13       		.byte	0x13
 1942 0d54 81       		.byte	0x81
 1943 0d55 0C0C0000 		.4byte	0xc0c
 1944 0d59 14       		.byte	0x14
 1945 0d5a 07       		.uleb128 0x7
 1946 0d5b 27060000 		.4byte	.LASF192
 1947 0d5f 13       		.byte	0x13
 1948 0d60 82       		.byte	0x82
 1949 0d61 0C0C0000 		.4byte	0xc0c
 1950 0d65 18       		.byte	0x18
 1951 0d66 07       		.uleb128 0x7
 1952 0d67 F6010000 		.4byte	.LASF193
 1953 0d6b 13       		.byte	0x13
 1954 0d6c 83       		.byte	0x83
 1955 0d6d 0C0C0000 		.4byte	0xc0c
 1956 0d71 1C       		.byte	0x1c
 1957 0d72 07       		.uleb128 0x7
 1958 0d73 5E090000 		.4byte	.LASF194
 1959 0d77 13       		.byte	0x13
 1960 0d78 84       		.byte	0x84
 1961 0d79 0C0C0000 		.4byte	0xc0c
 1962 0d7d 20       		.byte	0x20
 1963 0d7e 07       		.uleb128 0x7
 1964 0d7f 23090000 		.4byte	.LASF195
 1965 0d83 13       		.byte	0x13
 1966 0d84 85       		.byte	0x85
 1967 0d85 0C0C0000 		.4byte	0xc0c
 1968 0d89 24       		.byte	0x24
 1969 0d8a 07       		.uleb128 0x7
 1970 0d8b 80060000 		.4byte	.LASF196
 1971 0d8f 13       		.byte	0x13
 1972 0d90 86       		.byte	0x86
 1973 0d91 0C0C0000 		.4byte	0xc0c
 1974 0d95 28       		.byte	0x28
 1975 0d96 07       		.uleb128 0x7
 1976 0d97 E2010000 		.4byte	.LASF197
 1977 0d9b 13       		.byte	0x13
ARM GAS  C:\Users\IDONNO~1\AppData\Local\Temp\ccqIfJ61.s 			page 36


 1978 0d9c 87       		.byte	0x87
 1979 0d9d 0C0C0000 		.4byte	0xc0c
 1980 0da1 2C       		.byte	0x2c
 1981 0da2 07       		.uleb128 0x7
 1982 0da3 970C0000 		.4byte	.LASF198
 1983 0da7 13       		.byte	0x13
 1984 0da8 88       		.byte	0x88
 1985 0da9 0C0C0000 		.4byte	0xc0c
 1986 0dad 30       		.byte	0x30
 1987 0dae 07       		.uleb128 0x7
 1988 0daf 3A070000 		.4byte	.LASF199
 1989 0db3 13       		.byte	0x13
 1990 0db4 89       		.byte	0x89
 1991 0db5 0C0C0000 		.4byte	0xc0c
 1992 0db9 34       		.byte	0x34
 1993 0dba 07       		.uleb128 0x7
 1994 0dbb 4A010000 		.4byte	.LASF200
 1995 0dbf 13       		.byte	0x13
 1996 0dc0 8A       		.byte	0x8a
 1997 0dc1 0C0C0000 		.4byte	0xc0c
 1998 0dc5 38       		.byte	0x38
 1999 0dc6 07       		.uleb128 0x7
 2000 0dc7 E60A0000 		.4byte	.LASF201
 2001 0dcb 13       		.byte	0x13
 2002 0dcc 8B       		.byte	0x8b
 2003 0dcd 0C0C0000 		.4byte	0xc0c
 2004 0dd1 3C       		.byte	0x3c
 2005 0dd2 07       		.uleb128 0x7
 2006 0dd3 A3020000 		.4byte	.LASF202
 2007 0dd7 13       		.byte	0x13
 2008 0dd8 8C       		.byte	0x8c
 2009 0dd9 0C0C0000 		.4byte	0xc0c
 2010 0ddd 40       		.byte	0x40
 2011 0dde 07       		.uleb128 0x7
 2012 0ddf BD050000 		.4byte	.LASF203
 2013 0de3 13       		.byte	0x13
 2014 0de4 8D       		.byte	0x8d
 2015 0de5 0C0C0000 		.4byte	0xc0c
 2016 0de9 44       		.byte	0x44
 2017 0dea 07       		.uleb128 0x7
 2018 0deb 2D020000 		.4byte	.LASF204
 2019 0def 13       		.byte	0x13
 2020 0df0 8E       		.byte	0x8e
 2021 0df1 DB090000 		.4byte	0x9db
 2022 0df5 48       		.byte	0x48
 2023 0df6 07       		.uleb128 0x7
 2024 0df7 5F060000 		.4byte	.LASF205
 2025 0dfb 13       		.byte	0x13
 2026 0dfc 8F       		.byte	0x8f
 2027 0dfd 0C0C0000 		.4byte	0xc0c
 2028 0e01 4C       		.byte	0x4c
 2029 0e02 07       		.uleb128 0x7
 2030 0e03 BE0A0000 		.4byte	.LASF206
 2031 0e07 13       		.byte	0x13
 2032 0e08 90       		.byte	0x90
 2033 0e09 0C0C0000 		.4byte	0xc0c
 2034 0e0d 50       		.byte	0x50
ARM GAS  C:\Users\IDONNO~1\AppData\Local\Temp\ccqIfJ61.s 			page 37


 2035 0e0e 07       		.uleb128 0x7
 2036 0e0f A90C0000 		.4byte	.LASF207
 2037 0e13 13       		.byte	0x13
 2038 0e14 91       		.byte	0x91
 2039 0e15 0C0C0000 		.4byte	0xc0c
 2040 0e19 54       		.byte	0x54
 2041 0e1a 07       		.uleb128 0x7
 2042 0e1b F4030000 		.4byte	.LASF208
 2043 0e1f 13       		.byte	0x13
 2044 0e20 92       		.byte	0x92
 2045 0e21 0C0C0000 		.4byte	0xc0c
 2046 0e25 58       		.byte	0x58
 2047 0e26 07       		.uleb128 0x7
 2048 0e27 A0070000 		.4byte	.LASF209
 2049 0e2b 13       		.byte	0x13
 2050 0e2c 93       		.byte	0x93
 2051 0e2d 0C0C0000 		.4byte	0xc0c
 2052 0e31 5C       		.byte	0x5c
 2053 0e32 07       		.uleb128 0x7
 2054 0e33 68010000 		.4byte	.LASF210
 2055 0e37 13       		.byte	0x13
 2056 0e38 94       		.byte	0x94
 2057 0e39 0C0C0000 		.4byte	0xc0c
 2058 0e3d 60       		.byte	0x60
 2059 0e3e 07       		.uleb128 0x7
 2060 0e3f 49090000 		.4byte	.LASF211
 2061 0e43 13       		.byte	0x13
 2062 0e44 95       		.byte	0x95
 2063 0e45 0C0C0000 		.4byte	0xc0c
 2064 0e49 64       		.byte	0x64
 2065 0e4a 07       		.uleb128 0x7
 2066 0e4b 45020000 		.4byte	.LASF212
 2067 0e4f 13       		.byte	0x13
 2068 0e50 96       		.byte	0x96
 2069 0e51 0C0C0000 		.4byte	0xc0c
 2070 0e55 68       		.byte	0x68
 2071 0e56 07       		.uleb128 0x7
 2072 0e57 D7030000 		.4byte	.LASF213
 2073 0e5b 13       		.byte	0x13
 2074 0e5c 98       		.byte	0x98
 2075 0e5d 0C0C0000 		.4byte	0xc0c
 2076 0e61 6C       		.byte	0x6c
 2077 0e62 07       		.uleb128 0x7
 2078 0e63 2F0B0000 		.4byte	.LASF214
 2079 0e67 13       		.byte	0x13
 2080 0e68 99       		.byte	0x99
 2081 0e69 0C0C0000 		.4byte	0xc0c
 2082 0e6d 70       		.byte	0x70
 2083 0e6e 07       		.uleb128 0x7
 2084 0e6f BC010000 		.4byte	.LASF215
 2085 0e73 13       		.byte	0x13
 2086 0e74 9A       		.byte	0x9a
 2087 0e75 0C0C0000 		.4byte	0xc0c
 2088 0e79 74       		.byte	0x74
 2089 0e7a 07       		.uleb128 0x7
 2090 0e7b F1080000 		.4byte	.LASF216
 2091 0e7f 13       		.byte	0x13
ARM GAS  C:\Users\IDONNO~1\AppData\Local\Temp\ccqIfJ61.s 			page 38


 2092 0e80 9B       		.byte	0x9b
 2093 0e81 0C0C0000 		.4byte	0xc0c
 2094 0e85 78       		.byte	0x78
 2095 0e86 07       		.uleb128 0x7
 2096 0e87 CB070000 		.4byte	.LASF217
 2097 0e8b 13       		.byte	0x13
 2098 0e8c 9C       		.byte	0x9c
 2099 0e8d 0C0C0000 		.4byte	0xc0c
 2100 0e91 7C       		.byte	0x7c
 2101 0e92 07       		.uleb128 0x7
 2102 0e93 FE050000 		.4byte	.LASF218
 2103 0e97 13       		.byte	0x13
 2104 0e98 9D       		.byte	0x9d
 2105 0e99 0C0C0000 		.4byte	0xc0c
 2106 0e9d 80       		.byte	0x80
 2107 0e9e 07       		.uleb128 0x7
 2108 0e9f 2D000000 		.4byte	.LASF219
 2109 0ea3 13       		.byte	0x13
 2110 0ea4 A0       		.byte	0xa0
 2111 0ea5 DB0C0000 		.4byte	0xcdb
 2112 0ea9 84       		.byte	0x84
 2113 0eaa 07       		.uleb128 0x7
 2114 0eab AB070000 		.4byte	.LASF220
 2115 0eaf 13       		.byte	0x13
 2116 0eb0 A1       		.byte	0xa1
 2117 0eb1 CE000000 		.4byte	0xce
 2118 0eb5 88       		.byte	0x88
 2119 0eb6 12       		.uleb128 0x12
 2120 0eb7 646B7000 		.ascii	"dkp\000"
 2121 0ebb 13       		.byte	0x13
 2122 0ebc A4       		.byte	0xa4
 2123 0ebd 0C0C0000 		.4byte	0xc0c
 2124 0ec1 8C       		.byte	0x8c
 2125 0ec2 12       		.uleb128 0x12
 2126 0ec3 646B6900 		.ascii	"dki\000"
 2127 0ec7 13       		.byte	0x13
 2128 0ec8 A5       		.byte	0xa5
 2129 0ec9 0C0C0000 		.4byte	0xc0c
 2130 0ecd 90       		.byte	0x90
 2131 0ece 12       		.uleb128 0x12
 2132 0ecf 646B6300 		.ascii	"dkc\000"
 2133 0ed3 13       		.byte	0x13
 2134 0ed4 A6       		.byte	0xa6
 2135 0ed5 0C0C0000 		.4byte	0xc0c
 2136 0ed9 94       		.byte	0x94
 2137 0eda 07       		.uleb128 0x7
 2138 0edb 0D0B0000 		.4byte	.LASF221
 2139 0edf 13       		.byte	0x13
 2140 0ee0 A7       		.byte	0xa7
 2141 0ee1 0C0C0000 		.4byte	0xc0c
 2142 0ee5 98       		.byte	0x98
 2143 0ee6 12       		.uleb128 0x12
 2144 0ee7 716B7000 		.ascii	"qkp\000"
 2145 0eeb 13       		.byte	0x13
 2146 0eec A9       		.byte	0xa9
 2147 0eed 0C0C0000 		.4byte	0xc0c
 2148 0ef1 9C       		.byte	0x9c
ARM GAS  C:\Users\IDONNO~1\AppData\Local\Temp\ccqIfJ61.s 			page 39


 2149 0ef2 12       		.uleb128 0x12
 2150 0ef3 716B6900 		.ascii	"qki\000"
 2151 0ef7 13       		.byte	0x13
 2152 0ef8 AA       		.byte	0xaa
 2153 0ef9 0C0C0000 		.4byte	0xc0c
 2154 0efd A0       		.byte	0xa0
 2155 0efe 12       		.uleb128 0x12
 2156 0eff 716B6300 		.ascii	"qkc\000"
 2157 0f03 13       		.byte	0x13
 2158 0f04 AB       		.byte	0xab
 2159 0f05 0C0C0000 		.4byte	0xc0c
 2160 0f09 A4       		.byte	0xa4
 2161 0f0a 07       		.uleb128 0x7
 2162 0f0b 15030000 		.4byte	.LASF222
 2163 0f0f 13       		.byte	0x13
 2164 0f10 AC       		.byte	0xac
 2165 0f11 0C0C0000 		.4byte	0xc0c
 2166 0f15 A8       		.byte	0xa8
 2167 0f16 12       		.uleb128 0x12
 2168 0f17 776B7000 		.ascii	"wkp\000"
 2169 0f1b 13       		.byte	0x13
 2170 0f1c AF       		.byte	0xaf
 2171 0f1d 0C0C0000 		.4byte	0xc0c
 2172 0f21 AC       		.byte	0xac
 2173 0f22 12       		.uleb128 0x12
 2174 0f23 776B6900 		.ascii	"wki\000"
 2175 0f27 13       		.byte	0x13
 2176 0f28 B0       		.byte	0xb0
 2177 0f29 0C0C0000 		.4byte	0xc0c
 2178 0f2d B0       		.byte	0xb0
 2179 0f2e 12       		.uleb128 0x12
 2180 0f2f 776B6300 		.ascii	"wkc\000"
 2181 0f33 13       		.byte	0x13
 2182 0f34 B1       		.byte	0xb1
 2183 0f35 0C0C0000 		.4byte	0xc0c
 2184 0f39 B4       		.byte	0xb4
 2185 0f3a 07       		.uleb128 0x7
 2186 0f3b 55070000 		.4byte	.LASF223
 2187 0f3f 13       		.byte	0x13
 2188 0f40 B2       		.byte	0xb2
 2189 0f41 0C0C0000 		.4byte	0xc0c
 2190 0f45 B8       		.byte	0xb8
 2191 0f46 07       		.uleb128 0x7
 2192 0f47 A20A0000 		.4byte	.LASF224
 2193 0f4b 13       		.byte	0x13
 2194 0f4c B5       		.byte	0xb5
 2195 0f4d 0C0C0000 		.4byte	0xc0c
 2196 0f51 BC       		.byte	0xbc
 2197 0f52 07       		.uleb128 0x7
 2198 0f53 060B0000 		.4byte	.LASF225
 2199 0f57 13       		.byte	0x13
 2200 0f58 B6       		.byte	0xb6
 2201 0f59 0C0C0000 		.4byte	0xc0c
 2202 0f5d C0       		.byte	0xc0
 2203 0f5e 07       		.uleb128 0x7
 2204 0f5f DF0A0000 		.4byte	.LASF226
 2205 0f63 13       		.byte	0x13
ARM GAS  C:\Users\IDONNO~1\AppData\Local\Temp\ccqIfJ61.s 			page 40


 2206 0f64 B7       		.byte	0xb7
 2207 0f65 0C0C0000 		.4byte	0xc0c
 2208 0f69 C4       		.byte	0xc4
 2209 0f6a 07       		.uleb128 0x7
 2210 0f6b CD0A0000 		.4byte	.LASF227
 2211 0f6f 13       		.byte	0x13
 2212 0f70 B8       		.byte	0xb8
 2213 0f71 0C0C0000 		.4byte	0xc0c
 2214 0f75 C8       		.byte	0xc8
 2215 0f76 07       		.uleb128 0x7
 2216 0f77 B8000000 		.4byte	.LASF228
 2217 0f7b 13       		.byte	0x13
 2218 0f7c BB       		.byte	0xbb
 2219 0f7d 0C0C0000 		.4byte	0xc0c
 2220 0f81 CC       		.byte	0xcc
 2221 0f82 07       		.uleb128 0x7
 2222 0f83 BE000000 		.4byte	.LASF229
 2223 0f87 13       		.byte	0x13
 2224 0f88 BC       		.byte	0xbc
 2225 0f89 0C0C0000 		.4byte	0xc0c
 2226 0f8d D0       		.byte	0xd0
 2227 0f8e 00       		.byte	0
 2228 0f8f 03       		.uleb128 0x3
 2229 0f90 68080000 		.4byte	.LASF230
 2230 0f94 13       		.byte	0x13
 2231 0f95 BE       		.byte	0xbe
 2232 0f96 E60C0000 		.4byte	0xce6
 2233 0f9a 1D       		.uleb128 0x1d
 2234 0f9b D6080000 		.4byte	.LASF253
 2235 0f9f 02       		.byte	0x2
 2236 0fa0 84       		.byte	0x84
 2237 0fa1 03       		.byte	0x3
 2238 0fa2 B20F0000 		.4byte	0xfb2
 2239 0fa6 1E       		.uleb128 0x1e
 2240 0fa7 40000000 		.4byte	.LASF254
 2241 0fab 02       		.byte	0x2
 2242 0fac 84       		.byte	0x84
 2243 0fad 66070000 		.4byte	0x766
 2244 0fb1 00       		.byte	0
 2245 0fb2 1F       		.uleb128 0x1f
 2246 0fb3 73010000 		.4byte	.LASF231
 2247 0fb7 01       		.byte	0x1
 2248 0fb8 68       		.byte	0x68
 2249 0fb9 00000000 		.4byte	.LFB409
 2250 0fbd 1C000000 		.4byte	.LFE409-.LFB409
 2251 0fc1 01       		.uleb128 0x1
 2252 0fc2 9C       		.byte	0x9c
 2253 0fc3 06100000 		.4byte	0x1006
 2254 0fc7 20       		.uleb128 0x20
 2255 0fc8 61726700 		.ascii	"arg\000"
 2256 0fcc 01       		.byte	0x1
 2257 0fcd 68       		.byte	0x68
 2258 0fce 5F030000 		.4byte	0x35f
 2259 0fd2 00000000 		.4byte	.LLST0
 2260 0fd6 21       		.uleb128 0x21
 2261 0fd7 9A0F0000 		.4byte	0xf9a
 2262 0fdb 02000000 		.4byte	.LBB6
ARM GAS  C:\Users\IDONNO~1\AppData\Local\Temp\ccqIfJ61.s 			page 41


 2263 0fdf 08000000 		.4byte	.LBE6-.LBB6
 2264 0fe3 01       		.byte	0x1
 2265 0fe4 6B       		.byte	0x6b
 2266 0fe5 F60F0000 		.4byte	0xff6
 2267 0fe9 22       		.uleb128 0x22
 2268 0fea A60F0000 		.4byte	0xfa6
 2269 0fee 06       		.uleb128 0x6
 2270 0fef 03       		.byte	0x3
 2271 0ff0 00000000 		.4byte	.LC0
 2272 0ff4 9F       		.byte	0x9f
 2273 0ff5 00       		.byte	0
 2274 0ff6 23       		.uleb128 0x23
 2275 0ff7 10000000 		.4byte	.LVL2
 2276 0ffb 64120000 		.4byte	0x1264
 2277 0fff 24       		.uleb128 0x24
 2278 1000 01       		.uleb128 0x1
 2279 1001 50       		.byte	0x50
 2280 1002 01       		.uleb128 0x1
 2281 1003 3A       		.byte	0x3a
 2282 1004 00       		.byte	0
 2283 1005 00       		.byte	0
 2284 1006 1F       		.uleb128 0x1f
 2285 1007 FB070000 		.4byte	.LASF232
 2286 100b 01       		.byte	0x1
 2287 100c 40       		.byte	0x40
 2288 100d 00000000 		.4byte	.LFB408
 2289 1011 48000000 		.4byte	.LFE408-.LFB408
 2290 1015 01       		.uleb128 0x1
 2291 1016 9C       		.byte	0x9c
 2292 1017 9B100000 		.4byte	0x109b
 2293 101b 20       		.uleb128 0x20
 2294 101c 61726700 		.ascii	"arg\000"
 2295 1020 01       		.byte	0x1
 2296 1021 40       		.byte	0x40
 2297 1022 5F030000 		.4byte	0x35f
 2298 1026 21000000 		.4byte	.LLST1
 2299 102a 25       		.uleb128 0x25
 2300 102b 9A0F0000 		.4byte	0xf9a
 2301 102f 02000000 		.4byte	.LBB8
 2302 1033 00000000 		.4byte	.Ldebug_ranges0+0
 2303 1037 01       		.byte	0x1
 2304 1038 44       		.byte	0x44
 2305 1039 4A100000 		.4byte	0x104a
 2306 103d 22       		.uleb128 0x22
 2307 103e A60F0000 		.4byte	0xfa6
 2308 1042 06       		.uleb128 0x6
 2309 1043 03       		.byte	0x3
 2310 1044 0C000000 		.4byte	.LC1
 2311 1048 9F       		.byte	0x9f
 2312 1049 00       		.byte	0
 2313 104a 26       		.uleb128 0x26
 2314 104b 1A000000 		.4byte	.LVL5
 2315 104f 64120000 		.4byte	0x1264
 2316 1053 5F100000 		.4byte	0x105f
 2317 1057 24       		.uleb128 0x24
 2318 1058 01       		.uleb128 0x1
 2319 1059 50       		.byte	0x50
ARM GAS  C:\Users\IDONNO~1\AppData\Local\Temp\ccqIfJ61.s 			page 42


 2320 105a 03       		.uleb128 0x3
 2321 105b 0A       		.byte	0xa
 2322 105c F401     		.2byte	0x1f4
 2323 105e 00       		.byte	0
 2324 105f 26       		.uleb128 0x26
 2325 1060 24000000 		.4byte	.LVL6
 2326 1064 64120000 		.4byte	0x1264
 2327 1068 74100000 		.4byte	0x1074
 2328 106c 24       		.uleb128 0x24
 2329 106d 01       		.uleb128 0x1
 2330 106e 50       		.byte	0x50
 2331 106f 03       		.uleb128 0x3
 2332 1070 0A       		.byte	0xa
 2333 1071 F401     		.2byte	0x1f4
 2334 1073 00       		.byte	0
 2335 1074 26       		.uleb128 0x26
 2336 1075 2E000000 		.4byte	.LVL7
 2337 1079 64120000 		.4byte	0x1264
 2338 107d 89100000 		.4byte	0x1089
 2339 1081 24       		.uleb128 0x24
 2340 1082 01       		.uleb128 0x1
 2341 1083 50       		.byte	0x50
 2342 1084 03       		.uleb128 0x3
 2343 1085 0A       		.byte	0xa
 2344 1086 F401     		.2byte	0x1f4
 2345 1088 00       		.byte	0
 2346 1089 23       		.uleb128 0x23
 2347 108a 38000000 		.4byte	.LVL8
 2348 108e 64120000 		.4byte	0x1264
 2349 1092 24       		.uleb128 0x24
 2350 1093 01       		.uleb128 0x1
 2351 1094 50       		.byte	0x50
 2352 1095 03       		.uleb128 0x3
 2353 1096 0A       		.byte	0xa
 2354 1097 3421     		.2byte	0x2134
 2355 1099 00       		.byte	0
 2356 109a 00       		.byte	0
 2357 109b 27       		.uleb128 0x27
 2358 109c 370C0000 		.4byte	.LASF255
 2359 10a0 01       		.byte	0x1
 2360 10a1 7B       		.byte	0x7b
 2361 10a2 25000000 		.4byte	0x25
 2362 10a6 00000000 		.4byte	.LFB410
 2363 10aa 94000000 		.4byte	.LFE410-.LFB410
 2364 10ae 01       		.uleb128 0x1
 2365 10af 9C       		.byte	0x9c
 2366 10b0 1F120000 		.4byte	0x121f
 2367 10b4 28       		.uleb128 0x28
 2368 10b5 77000000 		.4byte	.LASF233
 2369 10b9 01       		.byte	0x1
 2370 10ba 9B       		.byte	0x9b
 2371 10bb 25000000 		.4byte	0x25
 2372 10bf C5100000 		.4byte	0x10c5
 2373 10c3 29       		.uleb128 0x29
 2374 10c4 00       		.byte	0
 2375 10c5 2A       		.uleb128 0x2a
 2376 10c6 8B060000 		.4byte	.LASF235
ARM GAS  C:\Users\IDONNO~1\AppData\Local\Temp\ccqIfJ61.s 			page 43


 2377 10ca 01       		.byte	0x1
 2378 10cb 9E       		.byte	0x9e
 2379 10cc 8F0F0000 		.4byte	0xf8f
 2380 10d0 03       		.uleb128 0x3
 2381 10d1 91       		.byte	0x91
 2382 10d2 A47E     		.sleb128 -220
 2383 10d4 28       		.uleb128 0x28
 2384 10d5 FA000000 		.4byte	.LASF234
 2385 10d9 01       		.byte	0x1
 2386 10da 9F       		.byte	0x9f
 2387 10db 25000000 		.4byte	0x25
 2388 10df E5100000 		.4byte	0x10e5
 2389 10e3 29       		.uleb128 0x29
 2390 10e4 00       		.byte	0
 2391 10e5 2B       		.uleb128 0x2b
 2392 10e6 08000000 		.4byte	.LVL9
 2393 10ea 6F120000 		.4byte	0x126f
 2394 10ee 2B       		.uleb128 0x2b
 2395 10ef 0C000000 		.4byte	.LVL10
 2396 10f3 7A120000 		.4byte	0x127a
 2397 10f7 26       		.uleb128 0x26
 2398 10f8 14000000 		.4byte	.LVL11
 2399 10fc 64120000 		.4byte	0x1264
 2400 1100 0C110000 		.4byte	0x110c
 2401 1104 24       		.uleb128 0x24
 2402 1105 01       		.uleb128 0x1
 2403 1106 50       		.byte	0x50
 2404 1107 03       		.uleb128 0x3
 2405 1108 0A       		.byte	0xa
 2406 1109 1027     		.2byte	0x2710
 2407 110b 00       		.byte	0
 2408 110c 2B       		.uleb128 0x2b
 2409 110d 18000000 		.4byte	.LVL12
 2410 1111 86120000 		.4byte	0x1286
 2411 1115 2B       		.uleb128 0x2b
 2412 1116 1C000000 		.4byte	.LVL13
 2413 111a 91120000 		.4byte	0x1291
 2414 111e 2B       		.uleb128 0x2b
 2415 111f 20000000 		.4byte	.LVL14
 2416 1123 9C120000 		.4byte	0x129c
 2417 1127 2B       		.uleb128 0x2b
 2418 1128 24000000 		.4byte	.LVL15
 2419 112c A7120000 		.4byte	0x12a7
 2420 1130 26       		.uleb128 0x26
 2421 1131 2C000000 		.4byte	.LVL16
 2422 1135 B2120000 		.4byte	0x12b2
 2423 1139 47110000 		.4byte	0x1147
 2424 113d 24       		.uleb128 0x24
 2425 113e 01       		.uleb128 0x1
 2426 113f 51       		.byte	0x51
 2427 1140 05       		.uleb128 0x5
 2428 1141 03       		.byte	0x3
 2429 1142 1C000000 		.4byte	.LC2
 2430 1146 00       		.byte	0
 2431 1147 26       		.uleb128 0x26
 2432 1148 34000000 		.4byte	.LVL17
 2433 114c B2120000 		.4byte	0x12b2
ARM GAS  C:\Users\IDONNO~1\AppData\Local\Temp\ccqIfJ61.s 			page 44


 2434 1150 5E110000 		.4byte	0x115e
 2435 1154 24       		.uleb128 0x24
 2436 1155 01       		.uleb128 0x1
 2437 1156 51       		.byte	0x51
 2438 1157 05       		.uleb128 0x5
 2439 1158 03       		.byte	0x3
 2440 1159 28000000 		.4byte	.LC3
 2441 115d 00       		.byte	0
 2442 115e 26       		.uleb128 0x26
 2443 115f 3A000000 		.4byte	.LVL18
 2444 1163 BD120000 		.4byte	0x12bd
 2445 1167 73110000 		.4byte	0x1173
 2446 116b 24       		.uleb128 0x24
 2447 116c 01       		.uleb128 0x1
 2448 116d 50       		.byte	0x50
 2449 116e 03       		.uleb128 0x3
 2450 116f 91       		.byte	0x91
 2451 1170 A47E     		.sleb128 -220
 2452 1172 00       		.byte	0
 2453 1173 26       		.uleb128 0x26
 2454 1174 40000000 		.4byte	.LVL19
 2455 1178 C8120000 		.4byte	0x12c8
 2456 117c 88110000 		.4byte	0x1188
 2457 1180 24       		.uleb128 0x24
 2458 1181 01       		.uleb128 0x1
 2459 1182 50       		.byte	0x50
 2460 1183 03       		.uleb128 0x3
 2461 1184 91       		.byte	0x91
 2462 1185 A47E     		.sleb128 -220
 2463 1187 00       		.byte	0
 2464 1188 2B       		.uleb128 0x2b
 2465 1189 46000000 		.4byte	.LVL20
 2466 118d D3120000 		.4byte	0x12d3
 2467 1191 26       		.uleb128 0x26
 2468 1192 4E000000 		.4byte	.LVL21
 2469 1196 DE120000 		.4byte	0x12de
 2470 119a A6110000 		.4byte	0x11a6
 2471 119e 24       		.uleb128 0x24
 2472 119f 01       		.uleb128 0x1
 2473 11a0 50       		.byte	0x50
 2474 11a1 03       		.uleb128 0x3
 2475 11a2 0A       		.byte	0xa
 2476 11a3 E803     		.2byte	0x3e8
 2477 11a5 00       		.byte	0
 2478 11a6 26       		.uleb128 0x26
 2479 11a7 5E000000 		.4byte	.LVL22
 2480 11ab E9120000 		.4byte	0x12e9
 2481 11af DA110000 		.4byte	0x11da
 2482 11b3 24       		.uleb128 0x24
 2483 11b4 01       		.uleb128 0x1
 2484 11b5 50       		.byte	0x50
 2485 11b6 05       		.uleb128 0x5
 2486 11b7 03       		.byte	0x3
 2487 11b8 00000000 		.4byte	.LANCHOR0
 2488 11bc 24       		.uleb128 0x24
 2489 11bd 01       		.uleb128 0x1
 2490 11be 51       		.byte	0x51
ARM GAS  C:\Users\IDONNO~1\AppData\Local\Temp\ccqIfJ61.s 			page 45


 2491 11bf 03       		.uleb128 0x3
 2492 11c0 0A       		.byte	0xa
 2493 11c1 1802     		.2byte	0x218
 2494 11c3 24       		.uleb128 0x24
 2495 11c4 01       		.uleb128 0x1
 2496 11c5 52       		.byte	0x52
 2497 11c6 02       		.uleb128 0x2
 2498 11c7 08       		.byte	0x8
 2499 11c8 40       		.byte	0x40
 2500 11c9 24       		.uleb128 0x24
 2501 11ca 01       		.uleb128 0x1
 2502 11cb 53       		.byte	0x53
 2503 11cc 05       		.uleb128 0x5
 2504 11cd 03       		.byte	0x3
 2505 11ce 00000000 		.4byte	periodic_thread
 2506 11d2 24       		.uleb128 0x24
 2507 11d3 02       		.uleb128 0x2
 2508 11d4 7D       		.byte	0x7d
 2509 11d5 00       		.sleb128 0
 2510 11d6 02       		.uleb128 0x2
 2511 11d7 74       		.byte	0x74
 2512 11d8 00       		.sleb128 0
 2513 11d9 00       		.byte	0
 2514 11da 26       		.uleb128 0x26
 2515 11db 6E000000 		.4byte	.LVL23
 2516 11df E9120000 		.4byte	0x12e9
 2517 11e3 0E120000 		.4byte	0x120e
 2518 11e7 24       		.uleb128 0x24
 2519 11e8 01       		.uleb128 0x1
 2520 11e9 50       		.byte	0x50
 2521 11ea 05       		.uleb128 0x5
 2522 11eb 03       		.byte	0x3
 2523 11ec 00000000 		.4byte	.LANCHOR1
 2524 11f0 24       		.uleb128 0x24
 2525 11f1 01       		.uleb128 0x1
 2526 11f2 51       		.byte	0x51
 2527 11f3 03       		.uleb128 0x3
 2528 11f4 0A       		.byte	0xa
 2529 11f5 1802     		.2byte	0x218
 2530 11f7 24       		.uleb128 0x24
 2531 11f8 01       		.uleb128 0x1
 2532 11f9 52       		.byte	0x52
 2533 11fa 02       		.uleb128 0x2
 2534 11fb 08       		.byte	0x8
 2535 11fc 40       		.byte	0x40
 2536 11fd 24       		.uleb128 0x24
 2537 11fe 01       		.uleb128 0x1
 2538 11ff 53       		.byte	0x53
 2539 1200 05       		.uleb128 0x5
 2540 1201 03       		.byte	0x3
 2541 1202 00000000 		.4byte	timer_thread
 2542 1206 24       		.uleb128 0x24
 2543 1207 02       		.uleb128 0x2
 2544 1208 7D       		.byte	0x7d
 2545 1209 00       		.sleb128 0
 2546 120a 02       		.uleb128 0x2
 2547 120b 74       		.byte	0x74
ARM GAS  C:\Users\IDONNO~1\AppData\Local\Temp\ccqIfJ61.s 			page 46


 2548 120c 00       		.sleb128 0
 2549 120d 00       		.byte	0
 2550 120e 23       		.uleb128 0x23
 2551 120f 74000000 		.4byte	.LVL24
 2552 1213 64120000 		.4byte	0x1264
 2553 1217 24       		.uleb128 0x24
 2554 1218 01       		.uleb128 0x1
 2555 1219 50       		.byte	0x50
 2556 121a 02       		.uleb128 0x2
 2557 121b 08       		.byte	0x8
 2558 121c 64       		.byte	0x64
 2559 121d 00       		.byte	0
 2560 121e 00       		.byte	0
 2561 121f 2A       		.uleb128 0x2a
 2562 1220 76020000 		.4byte	.LASF236
 2563 1224 01       		.byte	0x1
 2564 1225 3D       		.byte	0x3d
 2565 1226 F50B0000 		.4byte	0xbf5
 2566 122a 05       		.uleb128 0x5
 2567 122b 03       		.byte	0x3
 2568 122c 00000000 		.4byte	periodic_thread_wa
 2569 1230 2A       		.uleb128 0x2a
 2570 1231 2E090000 		.4byte	.LASF237
 2571 1235 01       		.byte	0x1
 2572 1236 3E       		.byte	0x3e
 2573 1237 F50B0000 		.4byte	0xbf5
 2574 123b 05       		.uleb128 0x5
 2575 123c 03       		.byte	0x3
 2576 123d 00000000 		.4byte	timer_thread_wa
 2577 1241 2C       		.uleb128 0x2c
 2578 1242 98090000 		.4byte	.LASF238
 2579 1246 1E       		.byte	0x1e
 2580 1247 A706     		.2byte	0x6a7
 2581 1249 E4000000 		.4byte	0xe4
 2582 124d 2D       		.uleb128 0x2d
 2583 124e 636800   		.ascii	"ch\000"
 2584 1251 08       		.byte	0x8
 2585 1252 0902     		.2byte	0x209
 2586 1254 2E040000 		.4byte	0x42e
 2587 1258 2D       		.uleb128 0x2d
 2588 1259 53443100 		.ascii	"SD1\000"
 2589 125d 14       		.byte	0x14
 2590 125e 0F01     		.2byte	0x10f
 2591 1260 F10A0000 		.4byte	0xaf1
 2592 1264 2E       		.uleb128 0x2e
 2593 1265 680B0000 		.4byte	.LASF239
 2594 1269 680B0000 		.4byte	.LASF239
 2595 126d 15       		.byte	0x15
 2596 126e 96       		.byte	0x96
 2597 126f 2E       		.uleb128 0x2e
 2598 1270 D9090000 		.4byte	.LASF240
 2599 1274 D9090000 		.4byte	.LASF240
 2600 1278 16       		.byte	0x16
 2601 1279 99       		.byte	0x99
 2602 127a 2F       		.uleb128 0x2f
 2603 127b F4050000 		.4byte	.LASF241
 2604 127f F4050000 		.4byte	.LASF241
ARM GAS  C:\Users\IDONNO~1\AppData\Local\Temp\ccqIfJ61.s 			page 47


 2605 1283 17       		.byte	0x17
 2606 1284 1501     		.2byte	0x115
 2607 1286 2E       		.uleb128 0x2e
 2608 1287 CE010000 		.4byte	.LASF242
 2609 128b CE010000 		.4byte	.LASF242
 2610 128f 18       		.byte	0x18
 2611 1290 47       		.byte	0x47
 2612 1291 2E       		.uleb128 0x2e
 2613 1292 77030000 		.4byte	.LASF243
 2614 1296 77030000 		.4byte	.LASF243
 2615 129a 19       		.byte	0x19
 2616 129b 84       		.byte	0x84
 2617 129c 2E       		.uleb128 0x2e
 2618 129d 850B0000 		.4byte	.LASF244
 2619 12a1 850B0000 		.4byte	.LASF244
 2620 12a5 1A       		.byte	0x1a
 2621 12a6 24       		.byte	0x24
 2622 12a7 2E       		.uleb128 0x2e
 2623 12a8 5C0A0000 		.4byte	.LASF245
 2624 12ac 5C0A0000 		.4byte	.LASF245
 2625 12b0 1B       		.byte	0x1b
 2626 12b1 09       		.byte	0x9
 2627 12b2 2E       		.uleb128 0x2e
 2628 12b3 77000000 		.4byte	.LASF233
 2629 12b7 77000000 		.4byte	.LASF233
 2630 12bb 01       		.byte	0x1
 2631 12bc 9B       		.byte	0x9b
 2632 12bd 2E       		.uleb128 0x2e
 2633 12be FA000000 		.4byte	.LASF234
 2634 12c2 FA000000 		.4byte	.LASF234
 2635 12c6 01       		.byte	0x1
 2636 12c7 9F       		.byte	0x9f
 2637 12c8 2E       		.uleb128 0x2e
 2638 12c9 FC090000 		.4byte	.LASF246
 2639 12cd FC090000 		.4byte	.LASF246
 2640 12d1 1C       		.byte	0x1c
 2641 12d2 78       		.byte	0x78
 2642 12d3 2E       		.uleb128 0x2e
 2643 12d4 37050000 		.4byte	.LASF247
 2644 12d8 37050000 		.4byte	.LASF247
 2645 12dc 1D       		.byte	0x1d
 2646 12dd 1F       		.byte	0x1f
 2647 12de 2E       		.uleb128 0x2e
 2648 12df 92060000 		.4byte	.LASF248
 2649 12e3 92060000 		.4byte	.LASF248
 2650 12e7 1D       		.byte	0x1d
 2651 12e8 20       		.byte	0x20
 2652 12e9 2E       		.uleb128 0x2e
 2653 12ea 40080000 		.4byte	.LASF249
 2654 12ee 40080000 		.4byte	.LASF249
 2655 12f2 15       		.byte	0x15
 2656 12f3 89       		.byte	0x89
 2657 12f4 00       		.byte	0
 2658              		.section	.debug_abbrev,"",%progbits
 2659              	.Ldebug_abbrev0:
 2660 0000 01       		.uleb128 0x1
 2661 0001 11       		.uleb128 0x11
ARM GAS  C:\Users\IDONNO~1\AppData\Local\Temp\ccqIfJ61.s 			page 48


 2662 0002 01       		.byte	0x1
 2663 0003 25       		.uleb128 0x25
 2664 0004 0E       		.uleb128 0xe
 2665 0005 13       		.uleb128 0x13
 2666 0006 0B       		.uleb128 0xb
 2667 0007 03       		.uleb128 0x3
 2668 0008 0E       		.uleb128 0xe
 2669 0009 1B       		.uleb128 0x1b
 2670 000a 0E       		.uleb128 0xe
 2671 000b 55       		.uleb128 0x55
 2672 000c 17       		.uleb128 0x17
 2673 000d 11       		.uleb128 0x11
 2674 000e 01       		.uleb128 0x1
 2675 000f 10       		.uleb128 0x10
 2676 0010 17       		.uleb128 0x17
 2677 0011 00       		.byte	0
 2678 0012 00       		.byte	0
 2679 0013 02       		.uleb128 0x2
 2680 0014 24       		.uleb128 0x24
 2681 0015 00       		.byte	0
 2682 0016 0B       		.uleb128 0xb
 2683 0017 0B       		.uleb128 0xb
 2684 0018 3E       		.uleb128 0x3e
 2685 0019 0B       		.uleb128 0xb
 2686 001a 03       		.uleb128 0x3
 2687 001b 08       		.uleb128 0x8
 2688 001c 00       		.byte	0
 2689 001d 00       		.byte	0
 2690 001e 03       		.uleb128 0x3
 2691 001f 16       		.uleb128 0x16
 2692 0020 00       		.byte	0
 2693 0021 03       		.uleb128 0x3
 2694 0022 0E       		.uleb128 0xe
 2695 0023 3A       		.uleb128 0x3a
 2696 0024 0B       		.uleb128 0xb
 2697 0025 3B       		.uleb128 0x3b
 2698 0026 0B       		.uleb128 0xb
 2699 0027 49       		.uleb128 0x49
 2700 0028 13       		.uleb128 0x13
 2701 0029 00       		.byte	0
 2702 002a 00       		.byte	0
 2703 002b 04       		.uleb128 0x4
 2704 002c 24       		.uleb128 0x24
 2705 002d 00       		.byte	0
 2706 002e 0B       		.uleb128 0xb
 2707 002f 0B       		.uleb128 0xb
 2708 0030 3E       		.uleb128 0x3e
 2709 0031 0B       		.uleb128 0xb
 2710 0032 03       		.uleb128 0x3
 2711 0033 0E       		.uleb128 0xe
 2712 0034 00       		.byte	0
 2713 0035 00       		.byte	0
 2714 0036 05       		.uleb128 0x5
 2715 0037 35       		.uleb128 0x35
 2716 0038 00       		.byte	0
 2717 0039 49       		.uleb128 0x49
 2718 003a 13       		.uleb128 0x13
ARM GAS  C:\Users\IDONNO~1\AppData\Local\Temp\ccqIfJ61.s 			page 49


 2719 003b 00       		.byte	0
 2720 003c 00       		.byte	0
 2721 003d 06       		.uleb128 0x6
 2722 003e 13       		.uleb128 0x13
 2723 003f 01       		.byte	0x1
 2724 0040 03       		.uleb128 0x3
 2725 0041 0E       		.uleb128 0xe
 2726 0042 0B       		.uleb128 0xb
 2727 0043 0B       		.uleb128 0xb
 2728 0044 3A       		.uleb128 0x3a
 2729 0045 0B       		.uleb128 0xb
 2730 0046 3B       		.uleb128 0x3b
 2731 0047 0B       		.uleb128 0xb
 2732 0048 01       		.uleb128 0x1
 2733 0049 13       		.uleb128 0x13
 2734 004a 00       		.byte	0
 2735 004b 00       		.byte	0
 2736 004c 07       		.uleb128 0x7
 2737 004d 0D       		.uleb128 0xd
 2738 004e 00       		.byte	0
 2739 004f 03       		.uleb128 0x3
 2740 0050 0E       		.uleb128 0xe
 2741 0051 3A       		.uleb128 0x3a
 2742 0052 0B       		.uleb128 0xb
 2743 0053 3B       		.uleb128 0x3b
 2744 0054 0B       		.uleb128 0xb
 2745 0055 49       		.uleb128 0x49
 2746 0056 13       		.uleb128 0x13
 2747 0057 38       		.uleb128 0x38
 2748 0058 0B       		.uleb128 0xb
 2749 0059 00       		.byte	0
 2750 005a 00       		.byte	0
 2751 005b 08       		.uleb128 0x8
 2752 005c 0D       		.uleb128 0xd
 2753 005d 00       		.byte	0
 2754 005e 03       		.uleb128 0x3
 2755 005f 08       		.uleb128 0x8
 2756 0060 3A       		.uleb128 0x3a
 2757 0061 0B       		.uleb128 0xb
 2758 0062 3B       		.uleb128 0x3b
 2759 0063 05       		.uleb128 0x5
 2760 0064 49       		.uleb128 0x49
 2761 0065 13       		.uleb128 0x13
 2762 0066 38       		.uleb128 0x38
 2763 0067 0B       		.uleb128 0xb
 2764 0068 00       		.byte	0
 2765 0069 00       		.byte	0
 2766 006a 09       		.uleb128 0x9
 2767 006b 0D       		.uleb128 0xd
 2768 006c 00       		.byte	0
 2769 006d 03       		.uleb128 0x3
 2770 006e 0E       		.uleb128 0xe
 2771 006f 3A       		.uleb128 0x3a
 2772 0070 0B       		.uleb128 0xb
 2773 0071 3B       		.uleb128 0x3b
 2774 0072 05       		.uleb128 0x5
 2775 0073 49       		.uleb128 0x49
ARM GAS  C:\Users\IDONNO~1\AppData\Local\Temp\ccqIfJ61.s 			page 50


 2776 0074 13       		.uleb128 0x13
 2777 0075 38       		.uleb128 0x38
 2778 0076 0B       		.uleb128 0xb
 2779 0077 00       		.byte	0
 2780 0078 00       		.byte	0
 2781 0079 0A       		.uleb128 0xa
 2782 007a 0F       		.uleb128 0xf
 2783 007b 00       		.byte	0
 2784 007c 0B       		.uleb128 0xb
 2785 007d 0B       		.uleb128 0xb
 2786 007e 49       		.uleb128 0x49
 2787 007f 13       		.uleb128 0x13
 2788 0080 00       		.byte	0
 2789 0081 00       		.byte	0
 2790 0082 0B       		.uleb128 0xb
 2791 0083 13       		.uleb128 0x13
 2792 0084 01       		.byte	0x1
 2793 0085 03       		.uleb128 0x3
 2794 0086 0E       		.uleb128 0xe
 2795 0087 0B       		.uleb128 0xb
 2796 0088 0B       		.uleb128 0xb
 2797 0089 3A       		.uleb128 0x3a
 2798 008a 0B       		.uleb128 0xb
 2799 008b 3B       		.uleb128 0x3b
 2800 008c 05       		.uleb128 0x5
 2801 008d 01       		.uleb128 0x1
 2802 008e 13       		.uleb128 0x13
 2803 008f 00       		.byte	0
 2804 0090 00       		.byte	0
 2805 0091 0C       		.uleb128 0xc
 2806 0092 15       		.uleb128 0x15
 2807 0093 01       		.byte	0x1
 2808 0094 27       		.uleb128 0x27
 2809 0095 19       		.uleb128 0x19
 2810 0096 01       		.uleb128 0x1
 2811 0097 13       		.uleb128 0x13
 2812 0098 00       		.byte	0
 2813 0099 00       		.byte	0
 2814 009a 0D       		.uleb128 0xd
 2815 009b 05       		.uleb128 0x5
 2816 009c 00       		.byte	0
 2817 009d 49       		.uleb128 0x49
 2818 009e 13       		.uleb128 0x13
 2819 009f 00       		.byte	0
 2820 00a0 00       		.byte	0
 2821 00a1 0E       		.uleb128 0xe
 2822 00a2 0F       		.uleb128 0xf
 2823 00a3 00       		.byte	0
 2824 00a4 0B       		.uleb128 0xb
 2825 00a5 0B       		.uleb128 0xb
 2826 00a6 00       		.byte	0
 2827 00a7 00       		.byte	0
 2828 00a8 0F       		.uleb128 0xf
 2829 00a9 13       		.uleb128 0x13
 2830 00aa 01       		.byte	0x1
 2831 00ab 03       		.uleb128 0x3
 2832 00ac 0E       		.uleb128 0xe
ARM GAS  C:\Users\IDONNO~1\AppData\Local\Temp\ccqIfJ61.s 			page 51


 2833 00ad 0B       		.uleb128 0xb
 2834 00ae 05       		.uleb128 0x5
 2835 00af 3A       		.uleb128 0x3a
 2836 00b0 0B       		.uleb128 0xb
 2837 00b1 3B       		.uleb128 0x3b
 2838 00b2 05       		.uleb128 0x5
 2839 00b3 01       		.uleb128 0x1
 2840 00b4 13       		.uleb128 0x13
 2841 00b5 00       		.byte	0
 2842 00b6 00       		.byte	0
 2843 00b7 10       		.uleb128 0x10
 2844 00b8 13       		.uleb128 0x13
 2845 00b9 01       		.byte	0x1
 2846 00ba 0B       		.uleb128 0xb
 2847 00bb 0B       		.uleb128 0xb
 2848 00bc 3A       		.uleb128 0x3a
 2849 00bd 0B       		.uleb128 0xb
 2850 00be 3B       		.uleb128 0x3b
 2851 00bf 05       		.uleb128 0x5
 2852 00c0 01       		.uleb128 0x1
 2853 00c1 13       		.uleb128 0x13
 2854 00c2 00       		.byte	0
 2855 00c3 00       		.byte	0
 2856 00c4 11       		.uleb128 0x11
 2857 00c5 16       		.uleb128 0x16
 2858 00c6 00       		.byte	0
 2859 00c7 03       		.uleb128 0x3
 2860 00c8 0E       		.uleb128 0xe
 2861 00c9 3A       		.uleb128 0x3a
 2862 00ca 0B       		.uleb128 0xb
 2863 00cb 3B       		.uleb128 0x3b
 2864 00cc 05       		.uleb128 0x5
 2865 00cd 49       		.uleb128 0x49
 2866 00ce 13       		.uleb128 0x13
 2867 00cf 00       		.byte	0
 2868 00d0 00       		.byte	0
 2869 00d1 12       		.uleb128 0x12
 2870 00d2 0D       		.uleb128 0xd
 2871 00d3 00       		.byte	0
 2872 00d4 03       		.uleb128 0x3
 2873 00d5 08       		.uleb128 0x8
 2874 00d6 3A       		.uleb128 0x3a
 2875 00d7 0B       		.uleb128 0xb
 2876 00d8 3B       		.uleb128 0x3b
 2877 00d9 0B       		.uleb128 0xb
 2878 00da 49       		.uleb128 0x49
 2879 00db 13       		.uleb128 0x13
 2880 00dc 38       		.uleb128 0x38
 2881 00dd 0B       		.uleb128 0xb
 2882 00de 00       		.byte	0
 2883 00df 00       		.byte	0
 2884 00e0 13       		.uleb128 0x13
 2885 00e1 13       		.uleb128 0x13
 2886 00e2 01       		.byte	0x1
 2887 00e3 0B       		.uleb128 0xb
 2888 00e4 0B       		.uleb128 0xb
 2889 00e5 3A       		.uleb128 0x3a
ARM GAS  C:\Users\IDONNO~1\AppData\Local\Temp\ccqIfJ61.s 			page 52


 2890 00e6 0B       		.uleb128 0xb
 2891 00e7 3B       		.uleb128 0x3b
 2892 00e8 0B       		.uleb128 0xb
 2893 00e9 01       		.uleb128 0x1
 2894 00ea 13       		.uleb128 0x13
 2895 00eb 00       		.byte	0
 2896 00ec 00       		.byte	0
 2897 00ed 14       		.uleb128 0x14
 2898 00ee 17       		.uleb128 0x17
 2899 00ef 01       		.byte	0x1
 2900 00f0 0B       		.uleb128 0xb
 2901 00f1 0B       		.uleb128 0xb
 2902 00f2 3A       		.uleb128 0x3a
 2903 00f3 0B       		.uleb128 0xb
 2904 00f4 3B       		.uleb128 0x3b
 2905 00f5 0B       		.uleb128 0xb
 2906 00f6 01       		.uleb128 0x1
 2907 00f7 13       		.uleb128 0x13
 2908 00f8 00       		.byte	0
 2909 00f9 00       		.byte	0
 2910 00fa 15       		.uleb128 0x15
 2911 00fb 0D       		.uleb128 0xd
 2912 00fc 00       		.byte	0
 2913 00fd 03       		.uleb128 0x3
 2914 00fe 0E       		.uleb128 0xe
 2915 00ff 3A       		.uleb128 0x3a
 2916 0100 0B       		.uleb128 0xb
 2917 0101 3B       		.uleb128 0x3b
 2918 0102 05       		.uleb128 0x5
 2919 0103 49       		.uleb128 0x49
 2920 0104 13       		.uleb128 0x13
 2921 0105 00       		.byte	0
 2922 0106 00       		.byte	0
 2923 0107 16       		.uleb128 0x16
 2924 0108 26       		.uleb128 0x26
 2925 0109 00       		.byte	0
 2926 010a 49       		.uleb128 0x49
 2927 010b 13       		.uleb128 0x13
 2928 010c 00       		.byte	0
 2929 010d 00       		.byte	0
 2930 010e 17       		.uleb128 0x17
 2931 010f 01       		.uleb128 0x1
 2932 0110 01       		.byte	0x1
 2933 0111 49       		.uleb128 0x49
 2934 0112 13       		.uleb128 0x13
 2935 0113 01       		.uleb128 0x1
 2936 0114 13       		.uleb128 0x13
 2937 0115 00       		.byte	0
 2938 0116 00       		.byte	0
 2939 0117 18       		.uleb128 0x18
 2940 0118 21       		.uleb128 0x21
 2941 0119 00       		.byte	0
 2942 011a 49       		.uleb128 0x49
 2943 011b 13       		.uleb128 0x13
 2944 011c 2F       		.uleb128 0x2f
 2945 011d 0B       		.uleb128 0xb
 2946 011e 00       		.byte	0
ARM GAS  C:\Users\IDONNO~1\AppData\Local\Temp\ccqIfJ61.s 			page 53


 2947 011f 00       		.byte	0
 2948 0120 19       		.uleb128 0x19
 2949 0121 15       		.uleb128 0x15
 2950 0122 01       		.byte	0x1
 2951 0123 27       		.uleb128 0x27
 2952 0124 19       		.uleb128 0x19
 2953 0125 49       		.uleb128 0x49
 2954 0126 13       		.uleb128 0x13
 2955 0127 01       		.uleb128 0x1
 2956 0128 13       		.uleb128 0x13
 2957 0129 00       		.byte	0
 2958 012a 00       		.byte	0
 2959 012b 1A       		.uleb128 0x1a
 2960 012c 0D       		.uleb128 0xd
 2961 012d 00       		.byte	0
 2962 012e 03       		.uleb128 0x3
 2963 012f 08       		.uleb128 0x8
 2964 0130 3A       		.uleb128 0x3a
 2965 0131 0B       		.uleb128 0xb
 2966 0132 3B       		.uleb128 0x3b
 2967 0133 0B       		.uleb128 0xb
 2968 0134 49       		.uleb128 0x49
 2969 0135 13       		.uleb128 0x13
 2970 0136 00       		.byte	0
 2971 0137 00       		.byte	0
 2972 0138 1B       		.uleb128 0x1b
 2973 0139 04       		.uleb128 0x4
 2974 013a 01       		.byte	0x1
 2975 013b 0B       		.uleb128 0xb
 2976 013c 0B       		.uleb128 0xb
 2977 013d 49       		.uleb128 0x49
 2978 013e 13       		.uleb128 0x13
 2979 013f 3A       		.uleb128 0x3a
 2980 0140 0B       		.uleb128 0xb
 2981 0141 3B       		.uleb128 0x3b
 2982 0142 0B       		.uleb128 0xb
 2983 0143 01       		.uleb128 0x1
 2984 0144 13       		.uleb128 0x13
 2985 0145 00       		.byte	0
 2986 0146 00       		.byte	0
 2987 0147 1C       		.uleb128 0x1c
 2988 0148 28       		.uleb128 0x28
 2989 0149 00       		.byte	0
 2990 014a 03       		.uleb128 0x3
 2991 014b 0E       		.uleb128 0xe
 2992 014c 1C       		.uleb128 0x1c
 2993 014d 0B       		.uleb128 0xb
 2994 014e 00       		.byte	0
 2995 014f 00       		.byte	0
 2996 0150 1D       		.uleb128 0x1d
 2997 0151 2E       		.uleb128 0x2e
 2998 0152 01       		.byte	0x1
 2999 0153 03       		.uleb128 0x3
 3000 0154 0E       		.uleb128 0xe
 3001 0155 3A       		.uleb128 0x3a
 3002 0156 0B       		.uleb128 0xb
 3003 0157 3B       		.uleb128 0x3b
ARM GAS  C:\Users\IDONNO~1\AppData\Local\Temp\ccqIfJ61.s 			page 54


 3004 0158 0B       		.uleb128 0xb
 3005 0159 27       		.uleb128 0x27
 3006 015a 19       		.uleb128 0x19
 3007 015b 20       		.uleb128 0x20
 3008 015c 0B       		.uleb128 0xb
 3009 015d 01       		.uleb128 0x1
 3010 015e 13       		.uleb128 0x13
 3011 015f 00       		.byte	0
 3012 0160 00       		.byte	0
 3013 0161 1E       		.uleb128 0x1e
 3014 0162 05       		.uleb128 0x5
 3015 0163 00       		.byte	0
 3016 0164 03       		.uleb128 0x3
 3017 0165 0E       		.uleb128 0xe
 3018 0166 3A       		.uleb128 0x3a
 3019 0167 0B       		.uleb128 0xb
 3020 0168 3B       		.uleb128 0x3b
 3021 0169 0B       		.uleb128 0xb
 3022 016a 49       		.uleb128 0x49
 3023 016b 13       		.uleb128 0x13
 3024 016c 00       		.byte	0
 3025 016d 00       		.byte	0
 3026 016e 1F       		.uleb128 0x1f
 3027 016f 2E       		.uleb128 0x2e
 3028 0170 01       		.byte	0x1
 3029 0171 03       		.uleb128 0x3
 3030 0172 0E       		.uleb128 0xe
 3031 0173 3A       		.uleb128 0x3a
 3032 0174 0B       		.uleb128 0xb
 3033 0175 3B       		.uleb128 0x3b
 3034 0176 0B       		.uleb128 0xb
 3035 0177 27       		.uleb128 0x27
 3036 0178 19       		.uleb128 0x19
 3037 0179 8701     		.uleb128 0x87
 3038 017b 19       		.uleb128 0x19
 3039 017c 11       		.uleb128 0x11
 3040 017d 01       		.uleb128 0x1
 3041 017e 12       		.uleb128 0x12
 3042 017f 06       		.uleb128 0x6
 3043 0180 40       		.uleb128 0x40
 3044 0181 18       		.uleb128 0x18
 3045 0182 9742     		.uleb128 0x2117
 3046 0184 19       		.uleb128 0x19
 3047 0185 01       		.uleb128 0x1
 3048 0186 13       		.uleb128 0x13
 3049 0187 00       		.byte	0
 3050 0188 00       		.byte	0
 3051 0189 20       		.uleb128 0x20
 3052 018a 05       		.uleb128 0x5
 3053 018b 00       		.byte	0
 3054 018c 03       		.uleb128 0x3
 3055 018d 08       		.uleb128 0x8
 3056 018e 3A       		.uleb128 0x3a
 3057 018f 0B       		.uleb128 0xb
 3058 0190 3B       		.uleb128 0x3b
 3059 0191 0B       		.uleb128 0xb
 3060 0192 49       		.uleb128 0x49
ARM GAS  C:\Users\IDONNO~1\AppData\Local\Temp\ccqIfJ61.s 			page 55


 3061 0193 13       		.uleb128 0x13
 3062 0194 02       		.uleb128 0x2
 3063 0195 17       		.uleb128 0x17
 3064 0196 00       		.byte	0
 3065 0197 00       		.byte	0
 3066 0198 21       		.uleb128 0x21
 3067 0199 1D       		.uleb128 0x1d
 3068 019a 01       		.byte	0x1
 3069 019b 31       		.uleb128 0x31
 3070 019c 13       		.uleb128 0x13
 3071 019d 11       		.uleb128 0x11
 3072 019e 01       		.uleb128 0x1
 3073 019f 12       		.uleb128 0x12
 3074 01a0 06       		.uleb128 0x6
 3075 01a1 58       		.uleb128 0x58
 3076 01a2 0B       		.uleb128 0xb
 3077 01a3 59       		.uleb128 0x59
 3078 01a4 0B       		.uleb128 0xb
 3079 01a5 01       		.uleb128 0x1
 3080 01a6 13       		.uleb128 0x13
 3081 01a7 00       		.byte	0
 3082 01a8 00       		.byte	0
 3083 01a9 22       		.uleb128 0x22
 3084 01aa 05       		.uleb128 0x5
 3085 01ab 00       		.byte	0
 3086 01ac 31       		.uleb128 0x31
 3087 01ad 13       		.uleb128 0x13
 3088 01ae 02       		.uleb128 0x2
 3089 01af 18       		.uleb128 0x18
 3090 01b0 00       		.byte	0
 3091 01b1 00       		.byte	0
 3092 01b2 23       		.uleb128 0x23
 3093 01b3 898201   		.uleb128 0x4109
 3094 01b6 01       		.byte	0x1
 3095 01b7 11       		.uleb128 0x11
 3096 01b8 01       		.uleb128 0x1
 3097 01b9 31       		.uleb128 0x31
 3098 01ba 13       		.uleb128 0x13
 3099 01bb 00       		.byte	0
 3100 01bc 00       		.byte	0
 3101 01bd 24       		.uleb128 0x24
 3102 01be 8A8201   		.uleb128 0x410a
 3103 01c1 00       		.byte	0
 3104 01c2 02       		.uleb128 0x2
 3105 01c3 18       		.uleb128 0x18
 3106 01c4 9142     		.uleb128 0x2111
 3107 01c6 18       		.uleb128 0x18
 3108 01c7 00       		.byte	0
 3109 01c8 00       		.byte	0
 3110 01c9 25       		.uleb128 0x25
 3111 01ca 1D       		.uleb128 0x1d
 3112 01cb 01       		.byte	0x1
 3113 01cc 31       		.uleb128 0x31
 3114 01cd 13       		.uleb128 0x13
 3115 01ce 52       		.uleb128 0x52
 3116 01cf 01       		.uleb128 0x1
 3117 01d0 55       		.uleb128 0x55
ARM GAS  C:\Users\IDONNO~1\AppData\Local\Temp\ccqIfJ61.s 			page 56


 3118 01d1 17       		.uleb128 0x17
 3119 01d2 58       		.uleb128 0x58
 3120 01d3 0B       		.uleb128 0xb
 3121 01d4 59       		.uleb128 0x59
 3122 01d5 0B       		.uleb128 0xb
 3123 01d6 01       		.uleb128 0x1
 3124 01d7 13       		.uleb128 0x13
 3125 01d8 00       		.byte	0
 3126 01d9 00       		.byte	0
 3127 01da 26       		.uleb128 0x26
 3128 01db 898201   		.uleb128 0x4109
 3129 01de 01       		.byte	0x1
 3130 01df 11       		.uleb128 0x11
 3131 01e0 01       		.uleb128 0x1
 3132 01e1 31       		.uleb128 0x31
 3133 01e2 13       		.uleb128 0x13
 3134 01e3 01       		.uleb128 0x1
 3135 01e4 13       		.uleb128 0x13
 3136 01e5 00       		.byte	0
 3137 01e6 00       		.byte	0
 3138 01e7 27       		.uleb128 0x27
 3139 01e8 2E       		.uleb128 0x2e
 3140 01e9 01       		.byte	0x1
 3141 01ea 3F       		.uleb128 0x3f
 3142 01eb 19       		.uleb128 0x19
 3143 01ec 03       		.uleb128 0x3
 3144 01ed 0E       		.uleb128 0xe
 3145 01ee 3A       		.uleb128 0x3a
 3146 01ef 0B       		.uleb128 0xb
 3147 01f0 3B       		.uleb128 0x3b
 3148 01f1 0B       		.uleb128 0xb
 3149 01f2 27       		.uleb128 0x27
 3150 01f3 19       		.uleb128 0x19
 3151 01f4 49       		.uleb128 0x49
 3152 01f5 13       		.uleb128 0x13
 3153 01f6 8701     		.uleb128 0x87
 3154 01f8 19       		.uleb128 0x19
 3155 01f9 11       		.uleb128 0x11
 3156 01fa 01       		.uleb128 0x1
 3157 01fb 12       		.uleb128 0x12
 3158 01fc 06       		.uleb128 0x6
 3159 01fd 40       		.uleb128 0x40
 3160 01fe 18       		.uleb128 0x18
 3161 01ff 9742     		.uleb128 0x2117
 3162 0201 19       		.uleb128 0x19
 3163 0202 01       		.uleb128 0x1
 3164 0203 13       		.uleb128 0x13
 3165 0204 00       		.byte	0
 3166 0205 00       		.byte	0
 3167 0206 28       		.uleb128 0x28
 3168 0207 2E       		.uleb128 0x2e
 3169 0208 01       		.byte	0x1
 3170 0209 3F       		.uleb128 0x3f
 3171 020a 19       		.uleb128 0x19
 3172 020b 03       		.uleb128 0x3
 3173 020c 0E       		.uleb128 0xe
 3174 020d 3A       		.uleb128 0x3a
ARM GAS  C:\Users\IDONNO~1\AppData\Local\Temp\ccqIfJ61.s 			page 57


 3175 020e 0B       		.uleb128 0xb
 3176 020f 3B       		.uleb128 0x3b
 3177 0210 0B       		.uleb128 0xb
 3178 0211 49       		.uleb128 0x49
 3179 0212 13       		.uleb128 0x13
 3180 0213 3C       		.uleb128 0x3c
 3181 0214 19       		.uleb128 0x19
 3182 0215 01       		.uleb128 0x1
 3183 0216 13       		.uleb128 0x13
 3184 0217 00       		.byte	0
 3185 0218 00       		.byte	0
 3186 0219 29       		.uleb128 0x29
 3187 021a 18       		.uleb128 0x18
 3188 021b 00       		.byte	0
 3189 021c 00       		.byte	0
 3190 021d 00       		.byte	0
 3191 021e 2A       		.uleb128 0x2a
 3192 021f 34       		.uleb128 0x34
 3193 0220 00       		.byte	0
 3194 0221 03       		.uleb128 0x3
 3195 0222 0E       		.uleb128 0xe
 3196 0223 3A       		.uleb128 0x3a
 3197 0224 0B       		.uleb128 0xb
 3198 0225 3B       		.uleb128 0x3b
 3199 0226 0B       		.uleb128 0xb
 3200 0227 49       		.uleb128 0x49
 3201 0228 13       		.uleb128 0x13
 3202 0229 02       		.uleb128 0x2
 3203 022a 18       		.uleb128 0x18
 3204 022b 00       		.byte	0
 3205 022c 00       		.byte	0
 3206 022d 2B       		.uleb128 0x2b
 3207 022e 898201   		.uleb128 0x4109
 3208 0231 00       		.byte	0
 3209 0232 11       		.uleb128 0x11
 3210 0233 01       		.uleb128 0x1
 3211 0234 31       		.uleb128 0x31
 3212 0235 13       		.uleb128 0x13
 3213 0236 00       		.byte	0
 3214 0237 00       		.byte	0
 3215 0238 2C       		.uleb128 0x2c
 3216 0239 34       		.uleb128 0x34
 3217 023a 00       		.byte	0
 3218 023b 03       		.uleb128 0x3
 3219 023c 0E       		.uleb128 0xe
 3220 023d 3A       		.uleb128 0x3a
 3221 023e 0B       		.uleb128 0xb
 3222 023f 3B       		.uleb128 0x3b
 3223 0240 05       		.uleb128 0x5
 3224 0241 49       		.uleb128 0x49
 3225 0242 13       		.uleb128 0x13
 3226 0243 3F       		.uleb128 0x3f
 3227 0244 19       		.uleb128 0x19
 3228 0245 3C       		.uleb128 0x3c
 3229 0246 19       		.uleb128 0x19
 3230 0247 00       		.byte	0
 3231 0248 00       		.byte	0
ARM GAS  C:\Users\IDONNO~1\AppData\Local\Temp\ccqIfJ61.s 			page 58


 3232 0249 2D       		.uleb128 0x2d
 3233 024a 34       		.uleb128 0x34
 3234 024b 00       		.byte	0
 3235 024c 03       		.uleb128 0x3
 3236 024d 08       		.uleb128 0x8
 3237 024e 3A       		.uleb128 0x3a
 3238 024f 0B       		.uleb128 0xb
 3239 0250 3B       		.uleb128 0x3b
 3240 0251 05       		.uleb128 0x5
 3241 0252 49       		.uleb128 0x49
 3242 0253 13       		.uleb128 0x13
 3243 0254 3F       		.uleb128 0x3f
 3244 0255 19       		.uleb128 0x19
 3245 0256 3C       		.uleb128 0x3c
 3246 0257 19       		.uleb128 0x19
 3247 0258 00       		.byte	0
 3248 0259 00       		.byte	0
 3249 025a 2E       		.uleb128 0x2e
 3250 025b 2E       		.uleb128 0x2e
 3251 025c 00       		.byte	0
 3252 025d 3F       		.uleb128 0x3f
 3253 025e 19       		.uleb128 0x19
 3254 025f 3C       		.uleb128 0x3c
 3255 0260 19       		.uleb128 0x19
 3256 0261 6E       		.uleb128 0x6e
 3257 0262 0E       		.uleb128 0xe
 3258 0263 03       		.uleb128 0x3
 3259 0264 0E       		.uleb128 0xe
 3260 0265 3A       		.uleb128 0x3a
 3261 0266 0B       		.uleb128 0xb
 3262 0267 3B       		.uleb128 0x3b
 3263 0268 0B       		.uleb128 0xb
 3264 0269 00       		.byte	0
 3265 026a 00       		.byte	0
 3266 026b 2F       		.uleb128 0x2f
 3267 026c 2E       		.uleb128 0x2e
 3268 026d 00       		.byte	0
 3269 026e 3F       		.uleb128 0x3f
 3270 026f 19       		.uleb128 0x19
 3271 0270 3C       		.uleb128 0x3c
 3272 0271 19       		.uleb128 0x19
 3273 0272 6E       		.uleb128 0x6e
 3274 0273 0E       		.uleb128 0xe
 3275 0274 03       		.uleb128 0x3
 3276 0275 0E       		.uleb128 0xe
 3277 0276 3A       		.uleb128 0x3a
 3278 0277 0B       		.uleb128 0xb
 3279 0278 3B       		.uleb128 0x3b
 3280 0279 05       		.uleb128 0x5
 3281 027a 00       		.byte	0
 3282 027b 00       		.byte	0
 3283 027c 00       		.byte	0
 3284              		.section	.debug_loc,"",%progbits
 3285              	.Ldebug_loc0:
 3286              	.LLST0:
 3287 0000 00000000 		.4byte	.LVL0
 3288 0004 0A000000 		.4byte	.LVL1
ARM GAS  C:\Users\IDONNO~1\AppData\Local\Temp\ccqIfJ61.s 			page 59


 3289 0008 0100     		.2byte	0x1
 3290 000a 50       		.byte	0x50
 3291 000b 0A000000 		.4byte	.LVL1
 3292 000f 1C000000 		.4byte	.LFE409
 3293 0013 0400     		.2byte	0x4
 3294 0015 F3       		.byte	0xf3
 3295 0016 01       		.uleb128 0x1
 3296 0017 50       		.byte	0x50
 3297 0018 9F       		.byte	0x9f
 3298 0019 00000000 		.4byte	0
 3299 001d 00000000 		.4byte	0
 3300              	.LLST1:
 3301 0021 00000000 		.4byte	.LVL3
 3302 0025 10000000 		.4byte	.LVL4
 3303 0029 0100     		.2byte	0x1
 3304 002b 50       		.byte	0x50
 3305 002c 10000000 		.4byte	.LVL4
 3306 0030 48000000 		.4byte	.LFE408
 3307 0034 0400     		.2byte	0x4
 3308 0036 F3       		.byte	0xf3
 3309 0037 01       		.uleb128 0x1
 3310 0038 50       		.byte	0x50
 3311 0039 9F       		.byte	0x9f
 3312 003a 00000000 		.4byte	0
 3313 003e 00000000 		.4byte	0
 3314              		.section	.debug_aranges,"",%progbits
 3315 0000 2C000000 		.4byte	0x2c
 3316 0004 0200     		.2byte	0x2
 3317 0006 00000000 		.4byte	.Ldebug_info0
 3318 000a 04       		.byte	0x4
 3319 000b 00       		.byte	0
 3320 000c 0000     		.2byte	0
 3321 000e 0000     		.2byte	0
 3322 0010 00000000 		.4byte	.LFB409
 3323 0014 1C000000 		.4byte	.LFE409-.LFB409
 3324 0018 00000000 		.4byte	.LFB408
 3325 001c 48000000 		.4byte	.LFE408-.LFB408
 3326 0020 00000000 		.4byte	.LFB410
 3327 0024 94000000 		.4byte	.LFE410-.LFB410
 3328 0028 00000000 		.4byte	0
 3329 002c 00000000 		.4byte	0
 3330              		.section	.debug_ranges,"",%progbits
 3331              	.Ldebug_ranges0:
 3332 0000 02000000 		.4byte	.LBB8
 3333 0004 08000000 		.4byte	.LBE8
 3334 0008 0A000000 		.4byte	.LBB11
 3335 000c 0C000000 		.4byte	.LBE11
 3336 0010 00000000 		.4byte	0
 3337 0014 00000000 		.4byte	0
 3338 0018 00000000 		.4byte	.LFB409
 3339 001c 1C000000 		.4byte	.LFE409
 3340 0020 00000000 		.4byte	.LFB408
 3341 0024 48000000 		.4byte	.LFE408
 3342 0028 00000000 		.4byte	.LFB410
 3343 002c 94000000 		.4byte	.LFE410
 3344 0030 00000000 		.4byte	0
 3345 0034 00000000 		.4byte	0
ARM GAS  C:\Users\IDONNO~1\AppData\Local\Temp\ccqIfJ61.s 			page 60


 3346              		.section	.debug_line,"",%progbits
 3347              	.Ldebug_line0:
 3348 0000 93040000 		.section	.debug_str,"MS",%progbits,1
 3348      02000B04 
 3348      00000201 
 3348      FB0E0D00 
 3348      01010101 
 3349              	.LASF54:
 3350 0000 63685F74 		.ascii	"ch_threads_list\000"
 3350      68726561 
 3350      64735F6C 
 3350      69737400 
 3351              	.LASF55:
 3352 0010 74687265 		.ascii	"threads_queue_t\000"
 3352      6164735F 
 3352      71756575 
 3352      655F7400 
 3353              	.LASF149:
 3354 0020 53657269 		.ascii	"SerialDriver\000"
 3354      616C4472 
 3354      69766572 
 3354      00
 3355              	.LASF219:
 3356 002d 6D5F7365 		.ascii	"m_sensor_port_mode\000"
 3356      6E736F72 
 3356      5F706F72 
 3356      745F6D6F 
 3356      646500
 3357              	.LASF254:
 3358 0040 6E616D65 		.ascii	"name\000"
 3358      00
 3359              	.LASF176:
 3360 0045 4D4F544F 		.ascii	"MOTOR_TYPE_BLDC\000"
 3360      525F5459 
 3360      50455F42 
 3360      4C444300 
 3361              	.LASF93:
 3362 0055 746D5F63 		.ascii	"tm_calibration_t\000"
 3362      616C6962 
 3362      72617469 
 3362      6F6E5F74 
 3362      00
 3363              	.LASF43:
 3364 0066 705F7469 		.ascii	"p_time\000"
 3364      6D6500
 3365              	.LASF139:
 3366 006d 42535252 		.ascii	"BSRR\000"
 3366      00
 3367              	.LASF108:
 3368 0072 63686172 		.ascii	"char\000"
 3368      00
 3369              	.LASF233:
 3370 0077 63687670 		.ascii	"chvprintf\000"
 3370      72696E74 
 3370      6600
 3371              	.LASF88:
 3372 0081 72656761 		.ascii	"regarm_t\000"
ARM GAS  C:\Users\IDONNO~1\AppData\Local\Temp\ccqIfJ61.s 			page 61


 3372      726D5F74 
 3372      00
 3373              	.LASF34:
 3374 008a 705F7072 		.ascii	"p_prio\000"
 3374      696F00
 3375              	.LASF117:
 3376 0091 6576656E 		.ascii	"event_source\000"
 3376      745F736F 
 3376      75726365 
 3376      00
 3377              	.LASF30:
 3378 009e 73797374 		.ascii	"systime_t\000"
 3378      696D655F 
 3378      7400
 3379              	.LASF170:
 3380 00a8 434F4D4D 		.ascii	"COMM_MODE_DELAY\000"
 3380      5F4D4F44 
 3380      455F4445 
 3380      4C415900 
 3381              	.LASF228:
 3382 00b8 64716B5F 		.ascii	"dqk_a\000"
 3382      6100
 3383              	.LASF229:
 3384 00be 64716B5F 		.ascii	"dqk_b\000"
 3384      6200
 3385              	.LASF102:
 3386 00c4 735F7175 		.ascii	"s_queue\000"
 3386      65756500 
 3387              	.LASF75:
 3388 00cc 76745F73 		.ascii	"vt_systime\000"
 3388      79737469 
 3388      6D6500
 3389              	.LASF120:
 3390 00d7 696F5F71 		.ascii	"io_queue_t\000"
 3390      75657565 
 3390      5F7400
 3391              	.LASF45:
 3392 00e2 705F6D73 		.ascii	"p_msgqueue\000"
 3392      67717565 
 3392      756500
 3393              	.LASF0:
 3394 00ed 756E7369 		.ascii	"unsigned int\000"
 3394      676E6564 
 3394      20696E74 
 3394      00
 3395              	.LASF234:
 3396 00fa 636F6E66 		.ascii	"conf_general_read_mc_configuration\000"
 3396      5F67656E 
 3396      6572616C 
 3396      5F726561 
 3396      645F6D63 
 3397              	.LASF52:
 3398 011d 74687265 		.ascii	"threads_list_t\000"
 3398      6164735F 
 3398      6C697374 
 3398      5F7400
 3399              	.LASF189:
ARM GAS  C:\Users\IDONNO~1\AppData\Local\Temp\ccqIfJ61.s 			page 62


 3400 012c 73656E73 		.ascii	"sensor_mode\000"
 3400      6F725F6D 
 3400      6F646500 
 3401              	.LASF44:
 3402 0138 705F7761 		.ascii	"p_waiting\000"
 3402      6974696E 
 3402      6700
 3403              	.LASF127:
 3404 0142 715F7264 		.ascii	"q_rdptr\000"
 3404      70747200 
 3405              	.LASF200:
 3406 014a 6C5F6D69 		.ascii	"l_min_vin\000"
 3406      6E5F7669 
 3406      6E00
 3407              	.LASF8:
 3408 0154 5F5F696E 		.ascii	"__int32_t\000"
 3408      7433325F 
 3408      7400
 3409              	.LASF130:
 3410 015e 716E6F74 		.ascii	"qnotify_t\000"
 3410      6966795F 
 3410      7400
 3411              	.LASF210:
 3412 0168 6C5F6D61 		.ascii	"l_max_duty\000"
 3412      785F6475 
 3412      747900
 3413              	.LASF231:
 3414 0173 74696D65 		.ascii	"timer_thread\000"
 3414      725F7468 
 3414      72656164 
 3414      00
 3415              	.LASF96:
 3416 0180 77746F62 		.ascii	"wtobjp\000"
 3416      6A7000
 3417              	.LASF82:
 3418 0187 76746C69 		.ascii	"vtlist\000"
 3418      737400
 3419              	.LASF129:
 3420 018e 715F6C69 		.ascii	"q_link\000"
 3420      6E6B00
 3421              	.LASF5:
 3422 0195 73686F72 		.ascii	"short int\000"
 3422      7420696E 
 3422      7400
 3423              	.LASF58:
 3424 019f 63685F72 		.ascii	"ch_ready_list\000"
 3424      65616479 
 3424      5F6C6973 
 3424      7400
 3425              	.LASF84:
 3426 01ad 69646C65 		.ascii	"idle_thread_wa\000"
 3426      5F746872 
 3426      6561645F 
 3426      776100
 3427              	.LASF215:
 3428 01bc 6C6F5F69 		.ascii	"lo_in_current_max\000"
 3428      6E5F6375 
ARM GAS  C:\Users\IDONNO~1\AppData\Local\Temp\ccqIfJ61.s 			page 63


 3428      7272656E 
 3428      745F6D61 
 3428      7800
 3429              	.LASF242:
 3430 01ce 68775F69 		.ascii	"hw_init_gpio\000"
 3430      6E69745F 
 3430      6770696F 
 3430      00
 3431              	.LASF100:
 3432 01db 65776D61 		.ascii	"ewmask\000"
 3432      736B00
 3433              	.LASF197:
 3434 01e2 6C5F6572 		.ascii	"l_erpm_start\000"
 3434      706D5F73 
 3434      74617274 
 3434      00
 3435              	.LASF184:
 3436 01ef 72736875 		.ascii	"rshunt\000"
 3436      6E7400
 3437              	.LASF193:
 3438 01f6 6C5F696E 		.ascii	"l_in_current_min\000"
 3438      5F637572 
 3438      72656E74 
 3438      5F6D696E 
 3438      00
 3439              	.LASF65:
 3440 0207 76746675 		.ascii	"vtfunc_t\000"
 3440      6E635F74 
 3440      00
 3441              	.LASF77:
 3442 0210 63685F73 		.ascii	"ch_system_debug\000"
 3442      79737465 
 3442      6D5F6465 
 3442      62756700 
 3443              	.LASF160:
 3444 0220 77726974 		.ascii	"writet\000"
 3444      657400
 3445              	.LASF103:
 3446 0227 735F636E 		.ascii	"s_cnt\000"
 3446      7400
 3447              	.LASF204:
 3448 022d 6C5F736C 		.ascii	"l_slow_abs_current\000"
 3448      6F775F61 
 3448      62735F63 
 3448      75727265 
 3448      6E7400
 3449              	.LASF86:
 3450 0240 47545052 		.ascii	"GTPR\000"
 3450      00
 3451              	.LASF212:
 3452 0245 6C5F7761 		.ascii	"l_watt_min\000"
 3452      74745F6D 
 3452      696E00
 3453              	.LASF152:
 3454 0250 69717565 		.ascii	"iqueue\000"
 3454      756500
 3455              	.LASF168:
ARM GAS  C:\Users\IDONNO~1\AppData\Local\Temp\ccqIfJ61.s 			page 64


 3456 0257 6D635F70 		.ascii	"mc_pwm_mode\000"
 3456      776D5F6D 
 3456      6F646500 
 3457              	.LASF18:
 3458 0263 75696E74 		.ascii	"uint32_t\000"
 3458      33325F74 
 3458      00
 3459              	.LASF122:
 3460 026c 715F7761 		.ascii	"q_waiting\000"
 3460      6974696E 
 3460      6700
 3461              	.LASF236:
 3462 0276 70657269 		.ascii	"periodic_thread_wa\000"
 3462      6F646963 
 3462      5F746872 
 3462      6561645F 
 3462      776100
 3463              	.LASF27:
 3464 0289 6576656E 		.ascii	"eventmask_t\000"
 3464      746D6173 
 3464      6B5F7400 
 3465              	.LASF60:
 3466 0295 725F7072 		.ascii	"r_prio\000"
 3466      696F00
 3467              	.LASF72:
 3468 029c 76745F70 		.ascii	"vt_par\000"
 3468      617200
 3469              	.LASF202:
 3470 02a3 6C5F6261 		.ascii	"l_battery_cut_start\000"
 3470      74746572 
 3470      795F6375 
 3470      745F7374 
 3470      61727400 
 3471              	.LASF163:
 3472 02b7 666C6F61 		.ascii	"float\000"
 3472      7400
 3473              	.LASF148:
 3474 02bd 73647374 		.ascii	"sdstate_t\000"
 3474      6174655F 
 3474      7400
 3475              	.LASF150:
 3476 02c7 6576656E 		.ascii	"event\000"
 3476      7400
 3477              	.LASF101:
 3478 02cd 63685F73 		.ascii	"ch_semaphore\000"
 3478      656D6170 
 3478      686F7265 
 3478      00
 3479              	.LASF25:
 3480 02da 74707269 		.ascii	"tprio_t\000"
 3480      6F5F7400 
 3481              	.LASF67:
 3482 02e2 63685F76 		.ascii	"ch_virtual_timer\000"
 3482      69727475 
 3482      616C5F74 
 3482      696D6572 
 3482      00
ARM GAS  C:\Users\IDONNO~1\AppData\Local\Temp\ccqIfJ61.s 			page 65


 3483              	.LASF14:
 3484 02f3 6C6F6E67 		.ascii	"long long unsigned int\000"
 3484      206C6F6E 
 3484      6720756E 
 3484      7369676E 
 3484      65642069 
 3485              	.LASF188:
 3486 030a 6D6F746F 		.ascii	"motor_type\000"
 3486      725F7479 
 3486      706500
 3487              	.LASF222:
 3488 0315 716F7574 		.ascii	"qout_max\000"
 3488      5F6D6178 
 3488      00
 3489              	.LASF119:
 3490 031e 6576656E 		.ascii	"event_source_t\000"
 3490      745F736F 
 3490      75726365 
 3490      5F7400
 3491              	.LASF6:
 3492 032d 5F5F7569 		.ascii	"__uint16_t\000"
 3492      6E743136 
 3492      5F7400
 3493              	.LASF29:
 3494 0338 636E745F 		.ascii	"cnt_t\000"
 3494      7400
 3495              	.LASF191:
 3496 033e 6C5F6375 		.ascii	"l_current_min\000"
 3496      7272656E 
 3496      745F6D69 
 3496      6E00
 3497              	.LASF135:
 3498 034c 4D4F4445 		.ascii	"MODER\000"
 3498      5200
 3499              	.LASF142:
 3500 0352 41465248 		.ascii	"AFRH\000"
 3500      00
 3501              	.LASF143:
 3502 0357 73746D33 		.ascii	"stm32_gpio_t\000"
 3502      325F6770 
 3502      696F5F74 
 3502      00
 3503              	.LASF141:
 3504 0364 4146524C 		.ascii	"AFRL\000"
 3504      00
 3505              	.LASF177:
 3506 0369 4D4F544F 		.ascii	"MOTOR_TYPE_DC\000"
 3506      525F5459 
 3506      50455F44 
 3506      4300
 3507              	.LASF243:
 3508 0377 636F6E66 		.ascii	"conf_general_init\000"
 3508      5F67656E 
 3508      6572616C 
 3508      5F696E69 
 3508      7400
 3509              	.LASF36:
ARM GAS  C:\Users\IDONNO~1\AppData\Local\Temp\ccqIfJ61.s 			page 66


 3510 0389 705F6E65 		.ascii	"p_newer\000"
 3510      77657200 
 3511              	.LASF134:
 3512 0391 636C6561 		.ascii	"clear\000"
 3512      7200
 3513              	.LASF74:
 3514 0397 63685F76 		.ascii	"ch_virtual_timers_list\000"
 3514      69727475 
 3514      616C5F74 
 3514      696D6572 
 3514      735F6C69 
 3515              	.LASF167:
 3516 03ae 50574D5F 		.ascii	"PWM_MODE_BIPOLAR\000"
 3516      4D4F4445 
 3516      5F424950 
 3516      4F4C4152 
 3516      00
 3517              	.LASF31:
 3518 03bf 74687265 		.ascii	"thread_t\000"
 3518      61645F74 
 3518      00
 3519              	.LASF116:
 3520 03c8 656C5F77 		.ascii	"el_wflags\000"
 3520      666C6167 
 3520      7300
 3521              	.LASF158:
 3522 03d2 70757474 		.ascii	"putt\000"
 3522      00
 3523              	.LASF213:
 3524 03d7 6C6F5F63 		.ascii	"lo_current_max\000"
 3524      75727265 
 3524      6E745F6D 
 3524      617800
 3525              	.LASF94:
 3526 03e6 7264796D 		.ascii	"rdymsg\000"
 3526      736700
 3527              	.LASF92:
 3528 03ed 6F666673 		.ascii	"offset\000"
 3528      657400
 3529              	.LASF208:
 3530 03f4 6C5F7465 		.ascii	"l_temp_motor_end\000"
 3530      6D705F6D 
 3530      6F746F72 
 3530      5F656E64 
 3530      00
 3531              	.LASF133:
 3532 0405 5F426F6F 		.ascii	"_Bool\000"
 3532      6C00
 3533              	.LASF146:
 3534 040b 53445F53 		.ascii	"SD_STOP\000"
 3534      544F5000 
 3535              	.LASF250:
 3536 0413 474E5520 		.ascii	"GNU C99 5.4.1 20160919 (release) [ARM/embedded-5-br"
 3536      43393920 
 3536      352E342E 
 3536      31203230 
 3536      31363039 
ARM GAS  C:\Users\IDONNO~1\AppData\Local\Temp\ccqIfJ61.s 			page 67


 3537 0446 616E6368 		.ascii	"anch revision 240496] -mcpu=cortex-m4 -mfloat-abi=h"
 3537      20726576 
 3537      6973696F 
 3537      6E203234 
 3537      30343936 
 3538 0479 61726420 		.ascii	"ard -mfpu=fpv4-sp-d16 -mno-thumb-interwork -mthumb "
 3538      2D6D6670 
 3538      753D6670 
 3538      76342D73 
 3538      702D6431 
 3539 04ac 2D676764 		.ascii	"-ggdb -O2 -std=gnu99 -fomit-frame-pointer -falign-f"
 3539      62202D4F 
 3539      32202D73 
 3539      74643D67 
 3539      6E753939 
 3540 04df 756E6374 		.ascii	"unctions=16 -ffunction-sections -fdata-sections -fn"
 3540      696F6E73 
 3540      3D313620 
 3540      2D666675 
 3540      6E637469 
 3541 0512 6F2D636F 		.ascii	"o-common -fsingle-precision-constant\000"
 3541      6D6D6F6E 
 3541      202D6673 
 3541      696E676C 
 3541      652D7072 
 3542              	.LASF247:
 3543 0537 74696D65 		.ascii	"timeout_init\000"
 3543      6F75745F 
 3543      696E6974 
 3543      00
 3544              	.LASF252:
 3545 0544 443A5C67 		.ascii	"D:\\git\\oroca_bldc_dev\\oroca_bldc_fw\\oroca_bldc_"
 3545      69745C6F 
 3545      726F6361 
 3545      5F626C64 
 3545      635F6465 
 3546 0573 63686962 		.ascii	"chibios\000"
 3546      696F7300 
 3547              	.LASF104:
 3548 057b 63685F6D 		.ascii	"ch_mutex\000"
 3548      75746578 
 3548      00
 3549              	.LASF13:
 3550 0584 5F5F7569 		.ascii	"__uint64_t\000"
 3550      6E743634 
 3550      5F7400
 3551              	.LASF185:
 3552 058f 70776D46 		.ascii	"pwmFreq\000"
 3552      72657100 
 3553              	.LASF165:
 3554 0597 50574D5F 		.ascii	"PWM_MODE_NONSYNCHRONOUS_HISW\000"
 3554      4D4F4445 
 3554      5F4E4F4E 
 3554      53594E43 
 3554      48524F4E 
 3555              	.LASF128:
 3556 05b4 715F6E6F 		.ascii	"q_notify\000"
ARM GAS  C:\Users\IDONNO~1\AppData\Local\Temp\ccqIfJ61.s 			page 68


 3556      74696679 
 3556      00
 3557              	.LASF203:
 3558 05bd 6C5F6261 		.ascii	"l_battery_cut_end\000"
 3558      74746572 
 3558      795F6375 
 3558      745F656E 
 3558      6400
 3559              	.LASF138:
 3560 05cf 50555044 		.ascii	"PUPDR\000"
 3560      5200
 3561              	.LASF38:
 3562 05d5 705F6E61 		.ascii	"p_name\000"
 3562      6D6500
 3563              	.LASF175:
 3564 05dc 6D635F73 		.ascii	"mc_sensor_mode\000"
 3564      656E736F 
 3564      725F6D6F 
 3564      646500
 3565              	.LASF70:
 3566 05eb 76745F64 		.ascii	"vt_delta\000"
 3566      656C7461 
 3566      00
 3567              	.LASF241:
 3568 05f4 63685379 		.ascii	"chSysInit\000"
 3568      73496E69 
 3568      7400
 3569              	.LASF218:
 3570 05fe 6C6F5F63 		.ascii	"lo_current_motor_min_now\000"
 3570      75727265 
 3570      6E745F6D 
 3570      6F746F72 
 3570      5F6D696E 
 3571              	.LASF62:
 3572 0617 725F6E65 		.ascii	"r_newer\000"
 3572      77657200 
 3573              	.LASF126:
 3574 061f 715F7772 		.ascii	"q_wrptr\000"
 3574      70747200 
 3575              	.LASF192:
 3576 0627 6C5F696E 		.ascii	"l_in_current_max\000"
 3576      5F637572 
 3576      72656E74 
 3576      5F6D6178 
 3576      00
 3577              	.LASF22:
 3578 0638 74737461 		.ascii	"tstate_t\000"
 3578      74655F74 
 3578      00
 3579              	.LASF12:
 3580 0641 6C6F6E67 		.ascii	"long long int\000"
 3580      206C6F6E 
 3580      6720696E 
 3580      7400
 3581              	.LASF37:
 3582 064f 705F6F6C 		.ascii	"p_older\000"
 3582      64657200 
ARM GAS  C:\Users\IDONNO~1\AppData\Local\Temp\ccqIfJ61.s 			page 69


 3583              	.LASF39:
 3584 0657 705F7374 		.ascii	"p_state\000"
 3584      61746500 
 3585              	.LASF205:
 3586 065f 6C5F7465 		.ascii	"l_temp_fet_start\000"
 3586      6D705F66 
 3586      65745F73 
 3586      74617274 
 3586      00
 3587              	.LASF59:
 3588 0670 725F7175 		.ascii	"r_queue\000"
 3588      65756500 
 3589              	.LASF15:
 3590 0678 75696E74 		.ascii	"uint8_t\000"
 3590      385F7400 
 3591              	.LASF196:
 3592 0680 6C5F6D61 		.ascii	"l_max_erpm\000"
 3592      785F6572 
 3592      706D00
 3593              	.LASF235:
 3594 068b 6D63636F 		.ascii	"mcconf\000"
 3594      6E6600
 3595              	.LASF248:
 3596 0692 74696D65 		.ascii	"timeout_configure\000"
 3596      6F75745F 
 3596      636F6E66 
 3596      69677572 
 3596      6500
 3597              	.LASF131:
 3598 06a4 696E7075 		.ascii	"input_queue_t\000"
 3598      745F7175 
 3598      6575655F 
 3598      7400
 3599              	.LASF50:
 3600 06b2 705F6D70 		.ascii	"p_mpool\000"
 3600      6F6F6C00 
 3601              	.LASF48:
 3602 06ba 705F6D74 		.ascii	"p_mtxlist\000"
 3602      786C6973 
 3602      7400
 3603              	.LASF53:
 3604 06c4 63685F74 		.ascii	"ch_thread\000"
 3604      68726561 
 3604      6400
 3605              	.LASF154:
 3606 06ce 75736172 		.ascii	"usart\000"
 3606      7400
 3607              	.LASF76:
 3608 06d4 73797374 		.ascii	"system_debug_t\000"
 3608      656D5F64 
 3608      65627567 
 3608      5F7400
 3609              	.LASF179:
 3610 06e3 6D635F6D 		.ascii	"mc_motor_type\000"
 3610      6F746F72 
 3610      5F747970 
 3610      6500
ARM GAS  C:\Users\IDONNO~1\AppData\Local\Temp\ccqIfJ61.s 			page 70


 3611              	.LASF56:
 3612 06f1 63685F74 		.ascii	"ch_threads_queue\000"
 3612      68726561 
 3612      64735F71 
 3612      75657565 
 3612      00
 3613              	.LASF156:
 3614 0702 77726974 		.ascii	"write\000"
 3614      6500
 3615              	.LASF251:
 3616 0708 6D61696E 		.ascii	"main.c\000"
 3616      2E6300
 3617              	.LASF111:
 3618 070f 6576656E 		.ascii	"event_listener\000"
 3618      745F6C69 
 3618      7374656E 
 3618      657200
 3619              	.LASF182:
 3620 071e 53454E53 		.ascii	"SENSOR_PORT_MODE_AS5047_SPI\000"
 3620      4F525F50 
 3620      4F52545F 
 3620      4D4F4445 
 3620      5F415335 
 3621              	.LASF199:
 3622 073a 6C5F6D61 		.ascii	"l_max_erpm_fbrake_cc\000"
 3622      785F6572 
 3622      706D5F66 
 3622      6272616B 
 3622      655F6363 
 3623              	.LASF26:
 3624 074f 6D73675F 		.ascii	"msg_t\000"
 3624      7400
 3625              	.LASF223:
 3626 0755 776F7574 		.ascii	"wout_max\000"
 3626      5F6D6178 
 3626      00
 3627              	.LASF90:
 3628 075e 636F6E74 		.ascii	"context\000"
 3628      65787400 
 3629              	.LASF173:
 3630 0766 53454E53 		.ascii	"SENSOR_MODE_SENSORED\000"
 3630      4F525F4D 
 3630      4F44455F 
 3630      53454E53 
 3630      4F524544 
 3631              	.LASF144:
 3632 077b 696F706F 		.ascii	"ioportmask_t\000"
 3632      72746D61 
 3632      736B5F74 
 3632      00
 3633              	.LASF40:
 3634 0788 705F666C 		.ascii	"p_flags\000"
 3634      61677300 
 3635              	.LASF66:
 3636 0790 76697274 		.ascii	"virtual_timer_t\000"
 3636      75616C5F 
 3636      74696D65 
ARM GAS  C:\Users\IDONNO~1\AppData\Local\Temp\ccqIfJ61.s 			page 71


 3636      725F7400 
 3637              	.LASF209:
 3638 07a0 6C5F6D69 		.ascii	"l_min_duty\000"
 3638      6E5F6475 
 3638      747900
 3639              	.LASF220:
 3640 07ab 6D5F656E 		.ascii	"m_encoder_counts\000"
 3640      636F6465 
 3640      725F636F 
 3640      756E7473 
 3640      00
 3641              	.LASF132:
 3642 07bc 6F757470 		.ascii	"output_queue_t\000"
 3642      75745F71 
 3642      75657565 
 3642      5F7400
 3643              	.LASF217:
 3644 07cb 6C6F5F63 		.ascii	"lo_current_motor_max_now\000"
 3644      75727265 
 3644      6E745F6D 
 3644      6F746F72 
 3644      5F6D6178 
 3645              	.LASF140:
 3646 07e4 4C434B52 		.ascii	"LCKR\000"
 3646      00
 3647              	.LASF24:
 3648 07e9 74736C69 		.ascii	"tslices_t\000"
 3648      6365735F 
 3648      7400
 3649              	.LASF63:
 3650 07f3 725F6F6C 		.ascii	"r_older\000"
 3650      64657200 
 3651              	.LASF232:
 3652 07fb 70657269 		.ascii	"periodic_thread\000"
 3652      6F646963 
 3652      5F746872 
 3652      65616400 
 3653              	.LASF11:
 3654 080b 6C6F6E67 		.ascii	"long unsigned int\000"
 3654      20756E73 
 3654      69676E65 
 3654      6420696E 
 3654      7400
 3655              	.LASF180:
 3656 081d 53454E53 		.ascii	"SENSOR_PORT_MODE_HALL\000"
 3656      4F525F50 
 3656      4F52545F 
 3656      4D4F4445 
 3656      5F48414C 
 3657              	.LASF28:
 3658 0833 6576656E 		.ascii	"eventflags_t\000"
 3658      74666C61 
 3658      67735F74 
 3658      00
 3659              	.LASF249:
 3660 0840 63685468 		.ascii	"chThdCreateStatic\000"
 3660      64437265 
ARM GAS  C:\Users\IDONNO~1\AppData\Local\Temp\ccqIfJ61.s 			page 72


 3660      61746553 
 3660      74617469 
 3660      6300
 3661              	.LASF112:
 3662 0852 656C5F6E 		.ascii	"el_next\000"
 3662      65787400 
 3663              	.LASF46:
 3664 085a 705F6D73 		.ascii	"p_msg\000"
 3664      6700
 3665              	.LASF21:
 3666 0860 746D6F64 		.ascii	"tmode_t\000"
 3666      655F7400 
 3667              	.LASF230:
 3668 0868 6D63436F 		.ascii	"mcConfiguration_t\000"
 3668      6E666967 
 3668      75726174 
 3668      696F6E5F 
 3668      7400
 3669              	.LASF83:
 3670 087a 6D61696E 		.ascii	"mainthread\000"
 3670      74687265 
 3670      616400
 3671              	.LASF137:
 3672 0885 4F535045 		.ascii	"OSPEEDR\000"
 3672      45445200 
 3673              	.LASF7:
 3674 088d 73686F72 		.ascii	"short unsigned int\000"
 3674      7420756E 
 3674      7369676E 
 3674      65642069 
 3674      6E7400
 3675              	.LASF164:
 3676 08a0 6C6F6E67 		.ascii	"long double\000"
 3676      20646F75 
 3676      626C6500 
 3677              	.LASF153:
 3678 08ac 6F717565 		.ascii	"oqueue\000"
 3678      756500
 3679              	.LASF16:
 3680 08b3 75696E74 		.ascii	"uint16_t\000"
 3680      31365F74 
 3680      00
 3681              	.LASF51:
 3682 08bc 74687265 		.ascii	"thread_reference_t\000"
 3682      61645F72 
 3682      65666572 
 3682      656E6365 
 3682      5F7400
 3683              	.LASF2:
 3684 08cf 73697A65 		.ascii	"size_t\000"
 3684      5F7400
 3685              	.LASF253:
 3686 08d6 63685265 		.ascii	"chRegSetThreadName\000"
 3686      67536574 
 3686      54687265 
 3686      61644E61 
 3686      6D6500
ARM GAS  C:\Users\IDONNO~1\AppData\Local\Temp\ccqIfJ61.s 			page 73


 3687              	.LASF20:
 3688 08e9 7274636E 		.ascii	"rtcnt_t\000"
 3688      745F7400 
 3689              	.LASF216:
 3690 08f1 6C6F5F69 		.ascii	"lo_in_current_min\000"
 3690      6E5F6375 
 3690      7272656E 
 3690      745F6D69 
 3690      6E00
 3691              	.LASF147:
 3692 0903 53445F52 		.ascii	"SD_READY\000"
 3692      45414459 
 3692      00
 3693              	.LASF172:
 3694 090c 53454E53 		.ascii	"SENSOR_MODE_SENSORLESS\000"
 3694      4F525F4D 
 3694      4F44455F 
 3694      53454E53 
 3694      4F524C45 
 3695              	.LASF195:
 3696 0923 6C5F6D69 		.ascii	"l_min_erpm\000"
 3696      6E5F6572 
 3696      706D00
 3697              	.LASF237:
 3698 092e 74696D65 		.ascii	"timer_thread_wa\000"
 3698      725F7468 
 3698      72656164 
 3698      5F776100 
 3699              	.LASF49:
 3700 093e 705F7265 		.ascii	"p_realprio\000"
 3700      616C7072 
 3700      696F00
 3701              	.LASF211:
 3702 0949 6C5F7761 		.ascii	"l_watt_max\000"
 3702      74745F6D 
 3702      617800
 3703              	.LASF64:
 3704 0954 725F6375 		.ascii	"r_current\000"
 3704      7272656E 
 3704      7400
 3705              	.LASF194:
 3706 095e 6C5F6162 		.ascii	"l_abs_current_max\000"
 3706      735F6375 
 3706      7272656E 
 3706      745F6D61 
 3706      7800
 3707              	.LASF47:
 3708 0970 705F6570 		.ascii	"p_epending\000"
 3708      656E6469 
 3708      6E6700
 3709              	.LASF105:
 3710 097b 6D5F7175 		.ascii	"m_queue\000"
 3710      65756500 
 3711              	.LASF9:
 3712 0983 6C6F6E67 		.ascii	"long int\000"
 3712      20696E74 
 3712      00
ARM GAS  C:\Users\IDONNO~1\AppData\Local\Temp\ccqIfJ61.s 			page 74


 3713              	.LASF91:
 3714 098c 706F7274 		.ascii	"port_intctx\000"
 3714      5F696E74 
 3714      63747800 
 3715              	.LASF238:
 3716 0998 49544D5F 		.ascii	"ITM_RxBuffer\000"
 3716      52784275 
 3716      66666572 
 3716      00
 3717              	.LASF80:
 3718 09a5 63685F73 		.ascii	"ch_system\000"
 3718      79737465 
 3718      6D00
 3719              	.LASF136:
 3720 09af 4F545950 		.ascii	"OTYPER\000"
 3720      455200
 3721              	.LASF32:
 3722 09b6 705F6E65 		.ascii	"p_next\000"
 3722      787400
 3723              	.LASF19:
 3724 09bd 75696E74 		.ascii	"uint64_t\000"
 3724      36345F74 
 3724      00
 3725              	.LASF35:
 3726 09c6 705F6374 		.ascii	"p_ctx\000"
 3726      7800
 3727              	.LASF171:
 3728 09cc 6D635F63 		.ascii	"mc_comm_mode\000"
 3728      6F6D6D5F 
 3728      6D6F6465 
 3728      00
 3729              	.LASF240:
 3730 09d9 68616C49 		.ascii	"halInit\000"
 3730      6E697400 
 3731              	.LASF181:
 3732 09e1 53454E53 		.ascii	"SENSOR_PORT_MODE_ABI\000"
 3732      4F525F50 
 3732      4F52545F 
 3732      4D4F4445 
 3732      5F414249 
 3733              	.LASF81:
 3734 09f6 726C6973 		.ascii	"rlist\000"
 3734      7400
 3735              	.LASF246:
 3736 09fc 6D635F69 		.ascii	"mc_interface_init\000"
 3736      6E746572 
 3736      66616365 
 3736      5F696E69 
 3736      7400
 3737              	.LASF3:
 3738 0a0e 5F5F7569 		.ascii	"__uint8_t\000"
 3738      6E74385F 
 3738      7400
 3739              	.LASF157:
 3740 0a18 72656164 		.ascii	"read\000"
 3740      00
 3741              	.LASF190:
ARM GAS  C:\Users\IDONNO~1\AppData\Local\Temp\ccqIfJ61.s 			page 75


 3742 0a1d 6C5F6375 		.ascii	"l_current_max\000"
 3742      7272656E 
 3742      745F6D61 
 3742      7800
 3743              	.LASF113:
 3744 0a2b 656C5F6C 		.ascii	"el_listener\000"
 3744      69737465 
 3744      6E657200 
 3745              	.LASF145:
 3746 0a37 53445F55 		.ascii	"SD_UNINIT\000"
 3746      4E494E49 
 3746      5400
 3747              	.LASF183:
 3748 0a41 73656E73 		.ascii	"sensor_port_mode\000"
 3748      6F725F70 
 3748      6F72745F 
 3748      6D6F6465 
 3748      00
 3749              	.LASF123:
 3750 0a52 715F636F 		.ascii	"q_counter\000"
 3750      756E7465 
 3750      7200
 3751              	.LASF245:
 3752 0a5c 55736172 		.ascii	"Usart1_print_init\000"
 3752      74315F70 
 3752      72696E74 
 3752      5F696E69 
 3752      7400
 3753              	.LASF159:
 3754 0a6e 67657474 		.ascii	"gett\000"
 3754      00
 3755              	.LASF125:
 3756 0a73 715F746F 		.ascii	"q_top\000"
 3756      7000
 3757              	.LASF33:
 3758 0a79 705F7072 		.ascii	"p_prev\000"
 3758      657600
 3759              	.LASF85:
 3760 0a80 73697A65 		.ascii	"sizetype\000"
 3760      74797065 
 3760      00
 3761              	.LASF23:
 3762 0a89 74726566 		.ascii	"trefs_t\000"
 3762      735F7400 
 3763              	.LASF110:
 3764 0a91 6576656E 		.ascii	"event_listener_t\000"
 3764      745F6C69 
 3764      7374656E 
 3764      65725F74 
 3764      00
 3765              	.LASF224:
 3766 0aa2 706C6C5F 		.ascii	"pll_kp\000"
 3766      6B7000
 3767              	.LASF57:
 3768 0aa9 72656164 		.ascii	"ready_list_t\000"
 3768      795F6C69 
 3768      73745F74 
ARM GAS  C:\Users\IDONNO~1\AppData\Local\Temp\ccqIfJ61.s 			page 76


 3768      00
 3769              	.LASF17:
 3770 0ab6 696E7433 		.ascii	"int32_t\000"
 3770      325F7400 
 3771              	.LASF206:
 3772 0abe 6C5F7465 		.ascii	"l_temp_fet_end\000"
 3772      6D705F66 
 3772      65745F65 
 3772      6E6400
 3773              	.LASF227:
 3774 0acd 706C6C6F 		.ascii	"pllout_max\000"
 3774      75745F6D 
 3774      617800
 3775              	.LASF98:
 3776 0ad8 77747365 		.ascii	"wtsemp\000"
 3776      6D7000
 3777              	.LASF226:
 3778 0adf 706C6C5F 		.ascii	"pll_kc\000"
 3778      6B6300
 3779              	.LASF201:
 3780 0ae6 6C5F6D61 		.ascii	"l_max_vin\000"
 3780      785F7669 
 3780      6E00
 3781              	.LASF87:
 3782 0af0 55534152 		.ascii	"USART_TypeDef\000"
 3782      545F5479 
 3782      70654465 
 3782      6600
 3783              	.LASF109:
 3784 0afe 6D757465 		.ascii	"mutex_t\000"
 3784      785F7400 
 3785              	.LASF225:
 3786 0b06 706C6C5F 		.ascii	"pll_ki\000"
 3786      6B6900
 3787              	.LASF221:
 3788 0b0d 646F7574 		.ascii	"dout_max\000"
 3788      5F6D6178 
 3788      00
 3789              	.LASF4:
 3790 0b16 756E7369 		.ascii	"unsigned char\000"
 3790      676E6564 
 3790      20636861 
 3790      7200
 3791              	.LASF10:
 3792 0b24 5F5F7569 		.ascii	"__uint32_t\000"
 3792      6E743332 
 3792      5F7400
 3793              	.LASF214:
 3794 0b2f 6C6F5F63 		.ascii	"lo_current_min\000"
 3794      75727265 
 3794      6E745F6D 
 3794      696E00
 3795              	.LASF73:
 3796 0b3e 76697274 		.ascii	"virtual_timers_list_t\000"
 3796      75616C5F 
 3796      74696D65 
 3796      72735F6C 
ARM GAS  C:\Users\IDONNO~1\AppData\Local\Temp\ccqIfJ61.s 			page 77


 3796      6973745F 
 3797              	.LASF114:
 3798 0b54 656C5F65 		.ascii	"el_events\000"
 3798      76656E74 
 3798      7300
 3799              	.LASF78:
 3800 0b5e 70616E69 		.ascii	"panic_msg\000"
 3800      635F6D73 
 3800      6700
 3801              	.LASF239:
 3802 0b68 63685468 		.ascii	"chThdSleep\000"
 3802      64536C65 
 3802      657000
 3803              	.LASF42:
 3804 0b73 705F7072 		.ascii	"p_preempt\000"
 3804      65656D70 
 3804      7400
 3805              	.LASF118:
 3806 0b7d 65735F6E 		.ascii	"es_next\000"
 3806      65787400 
 3807              	.LASF244:
 3808 0b85 6C656470 		.ascii	"ledpwm_init\000"
 3808      776D5F69 
 3808      6E697400 
 3809              	.LASF41:
 3810 0b91 705F7265 		.ascii	"p_refs\000"
 3810      667300
 3811              	.LASF151:
 3812 0b98 73746174 		.ascii	"state\000"
 3812      6500
 3813              	.LASF68:
 3814 0b9e 76745F6E 		.ascii	"vt_next\000"
 3814      65787400 
 3815              	.LASF79:
 3816 0ba6 63685F73 		.ascii	"ch_system_t\000"
 3816      79737465 
 3816      6D5F7400 
 3817              	.LASF174:
 3818 0bb2 53454E53 		.ascii	"SENSOR_MODE_HYBRID\000"
 3818      4F525F4D 
 3818      4F44455F 
 3818      48594252 
 3818      494400
 3819              	.LASF166:
 3820 0bc5 50574D5F 		.ascii	"PWM_MODE_SYNCHRONOUS\000"
 3820      4D4F4445 
 3820      5F53594E 
 3820      4348524F 
 3820      4E4F5553 
 3821              	.LASF97:
 3822 0bda 77747472 		.ascii	"wttrp\000"
 3822      7000
 3823              	.LASF169:
 3824 0be0 434F4D4D 		.ascii	"COMM_MODE_INTEGRATE\000"
 3824      5F4D4F44 
 3824      455F494E 
 3824      54454752 
ARM GAS  C:\Users\IDONNO~1\AppData\Local\Temp\ccqIfJ61.s 			page 78


 3824      41544500 
 3825              	.LASF107:
 3826 0bf4 6D5F6E65 		.ascii	"m_next\000"
 3826      787400
 3827              	.LASF1:
 3828 0bfb 7369676E 		.ascii	"signed char\000"
 3828      65642063 
 3828      68617200 
 3829              	.LASF121:
 3830 0c07 696F5F71 		.ascii	"io_queue\000"
 3830      75657565 
 3830      00
 3831              	.LASF161:
 3832 0c10 72656164 		.ascii	"readt\000"
 3832      7400
 3833              	.LASF155:
 3834 0c16 53657269 		.ascii	"SerialDriverVMT\000"
 3834      616C4472 
 3834      69766572 
 3834      564D5400 
 3835              	.LASF61:
 3836 0c26 725F6374 		.ascii	"r_ctx\000"
 3836      7800
 3837              	.LASF89:
 3838 0c2c 73746B61 		.ascii	"stkalign_t\000"
 3838      6C69676E 
 3838      5F7400
 3839              	.LASF255:
 3840 0c37 6D61696E 		.ascii	"main\000"
 3840      00
 3841              	.LASF178:
 3842 0c3c 4D4F544F 		.ascii	"MOTOR_TYPE_FOC\000"
 3842      525F5459 
 3842      50455F46 
 3842      4F4300
 3843              	.LASF71:
 3844 0c4b 76745F66 		.ascii	"vt_func\000"
 3844      756E6300 
 3845              	.LASF162:
 3846 0c53 646F7562 		.ascii	"double\000"
 3846      6C6500
 3847              	.LASF187:
 3848 0c5a 636F6D6D 		.ascii	"comm_mode\000"
 3848      5F6D6F64 
 3848      6500
 3849              	.LASF69:
 3850 0c64 76745F70 		.ascii	"vt_prev\000"
 3850      72657600 
 3851              	.LASF99:
 3852 0c6c 77746D74 		.ascii	"wtmtxp\000"
 3852      787000
 3853              	.LASF186:
 3854 0c73 70776D5F 		.ascii	"pwm_mode\000"
 3854      6D6F6465 
 3854      00
 3855              	.LASF115:
 3856 0c7c 656C5F66 		.ascii	"el_flags\000"
ARM GAS  C:\Users\IDONNO~1\AppData\Local\Temp\ccqIfJ61.s 			page 79


 3856      6C616773 
 3856      00
 3857              	.LASF95:
 3858 0c85 65786974 		.ascii	"exitcode\000"
 3858      636F6465 
 3858      00
 3859              	.LASF124:
 3860 0c8e 715F6275 		.ascii	"q_buffer\000"
 3860      66666572 
 3860      00
 3861              	.LASF198:
 3862 0c97 6C5F6D61 		.ascii	"l_max_erpm_fbrake\000"
 3862      785F6572 
 3862      706D5F66 
 3862      6272616B 
 3862      6500
 3863              	.LASF207:
 3864 0ca9 6C5F7465 		.ascii	"l_temp_motor_start\000"
 3864      6D705F6D 
 3864      6F746F72 
 3864      5F737461 
 3864      727400
 3865              	.LASF106:
 3866 0cbc 6D5F6F77 		.ascii	"m_owner\000"
 3866      6E657200 
 3867              		.ident	"GCC: (GNU Tools for ARM Embedded Processors) 5.4.1 20160919 (release) [ARM/embedded-5-bran
ARM GAS  C:\Users\IDONNO~1\AppData\Local\Temp\ccqIfJ61.s 			page 80


DEFINED SYMBOLS
                            *ABS*:00000000 main.c
C:\Users\IDONNO~1\AppData\Local\Temp\ccqIfJ61.s:22     .text.timer_thread:00000000 $t
C:\Users\IDONNO~1\AppData\Local\Temp\ccqIfJ61.s:27     .text.timer_thread:00000000 timer_thread
C:\Users\IDONNO~1\AppData\Local\Temp\ccqIfJ61.s:60     .text.timer_thread:00000014 $d
C:\Users\IDONNO~1\AppData\Local\Temp\ccqIfJ61.s:66     .text.periodic_thread:00000000 $t
C:\Users\IDONNO~1\AppData\Local\Temp\ccqIfJ61.s:71     .text.periodic_thread:00000000 periodic_thread
C:\Users\IDONNO~1\AppData\Local\Temp\ccqIfJ61.s:128    .text.periodic_thread:0000003c $d
C:\Users\IDONNO~1\AppData\Local\Temp\ccqIfJ61.s:135    .text.startup.main:00000000 $t
C:\Users\IDONNO~1\AppData\Local\Temp\ccqIfJ61.s:141    .text.startup.main:00000000 main
C:\Users\IDONNO~1\AppData\Local\Temp\ccqIfJ61.s:227    .text.startup.main:00000078 $d
C:\Users\IDONNO~1\AppData\Local\Temp\ccqIfJ61.s:238    .bss.timer_thread_wa:00000000 $d
C:\Users\IDONNO~1\AppData\Local\Temp\ccqIfJ61.s:242    .bss.timer_thread_wa:00000000 timer_thread_wa
C:\Users\IDONNO~1\AppData\Local\Temp\ccqIfJ61.s:245    .rodata.str1.4:00000000 $d
C:\Users\IDONNO~1\AppData\Local\Temp\ccqIfJ61.s:258    .bss.periodic_thread_wa:00000000 $d
C:\Users\IDONNO~1\AppData\Local\Temp\ccqIfJ61.s:262    .bss.periodic_thread_wa:00000000 periodic_thread_wa
                     .debug_frame:00000010 $d

UNDEFINED SYMBOLS
chThdSleep
ch
halInit
chSysInit
hw_init_gpio
conf_general_init
ledpwm_init
Usart1_print_init
chvprintf
conf_general_read_mc_configuration
mc_interface_init
timeout_init
timeout_configure
chThdCreateStatic
SD1
