ARM GAS  C:\Users\IDONNO~1\AppData\Local\Temp\ccqIfJ61.s 			page 1


   1              		.syntax unified
   2              		.cpu cortex-m4
   3              		.eabi_attribute 27, 1
   4              		.eabi_attribute 28, 1
   5              		.fpu fpv4-sp-d16
   6              		.eabi_attribute 20, 1
   7              		.eabi_attribute 21, 1
   8              		.eabi_attribute 23, 3
   9              		.eabi_attribute 24, 1
  10              		.eabi_attribute 25, 1
  11              		.eabi_attribute 26, 1
  12              		.eabi_attribute 30, 2
  13              		.eabi_attribute 34, 1
  14              		.eabi_attribute 18, 4
  15              		.thumb
  16              		.syntax unified
  17              		.file	"main.c"
  18              		.text
  19              	.Ltext0:
  20              		.cfi_sections	.debug_frame
  21              		.section	.text.timer_thread,"ax",%progbits
  22              		.align	2
  23              		.p2align 4,,15
  24              		.thumb
  25              		.thumb_func
  26              		.type	timer_thread, %function
  27              	timer_thread:
  28              	.LFB409:
  29              		.file 1 "main.c"
  30              		.loc 1 104 0
  31              		.cfi_startproc
  32              		@ Volatile: function does not return.
  33              		@ args = 0, pretend = 0, frame = 0
  34              		@ frame_needed = 0, uses_anonymous_args = 0
  35              	.LVL0:
  36 0000 08B5     		push	{r3, lr}
  37              		.cfi_def_cfa_offset 8
  38              		.cfi_offset 3, -8
  39              		.cfi_offset 14, -4
  40              	.LBB6:
  41              	.LBB7:
  42              		.file 2 "src/ChibiOS_3.0.2/os/rt/include/chregistry.h"
  43              		.loc 2 135 0
  44 0002 044B     		ldr	r3, .L5
  45 0004 044A     		ldr	r2, .L5+4
  46 0006 9B69     		ldr	r3, [r3, #24]
  47 0008 9A61     		str	r2, [r3, #24]
  48              	.LVL1:
  49              	.L2:
  50              	.LBE7:
  51              	.LBE6:
  52              		.loc 1 113 0 discriminator 1
  53 000a 0A20     		movs	r0, #10
  54 000c FFF7FEFF 		bl	chThdSleep
  55              	.LVL2:
  56 0010 FBE7     		b	.L2
  57              	.L6:
ARM GAS  C:\Users\IDONNO~1\AppData\Local\Temp\ccqIfJ61.s 			page 2


  58 0012 00BF     		.align	2
  59              	.L5:
  60 0014 00000000 		.word	ch
  61 0018 00000000 		.word	.LC0
  62              		.cfi_endproc
  63              	.LFE409:
  64              		.size	timer_thread, .-timer_thread
  65              		.section	.text.periodic_thread,"ax",%progbits
  66              		.align	2
  67              		.p2align 4,,15
  68              		.thumb
  69              		.thumb_func
  70              		.type	periodic_thread, %function
  71              	periodic_thread:
  72              	.LFB408:
  73              		.loc 1 65 0
  74              		.cfi_startproc
  75              		@ Volatile: function does not return.
  76              		@ args = 0, pretend = 0, frame = 0
  77              		@ frame_needed = 0, uses_anonymous_args = 0
  78              	.LVL3:
  79 0000 08B5     		push	{r3, lr}
  80              		.cfi_def_cfa_offset 8
  81              		.cfi_offset 3, -8
  82              		.cfi_offset 14, -4
  83              	.LBB8:
  84              	.LBB9:
  85              		.loc 2 135 0
  86 0002 0E4B     		ldr	r3, .L10
  87 0004 0E4A     		ldr	r2, .L10+4
  88 0006 9B69     		ldr	r3, [r3, #24]
  89              	.LBE9:
  90              	.LBE8:
  91              		.loc 1 92 0
  92 0008 0E4C     		ldr	r4, .L10+8
  93              	.LBB11:
  94              	.LBB10:
  95              		.loc 2 135 0
  96 000a 9A61     		str	r2, [r3, #24]
  97              	.LBE10:
  98              	.LBE11:
  99              		.loc 1 92 0
 100 000c 1025     		movs	r5, #16
 101 000e 2E46     		mov	r6, r5	@ movhi
 102              	.LVL4:
 103              	.L8:
 104              		.loc 1 92 0 is_stmt 0 discriminator 1
 105 0010 2683     		strh	r6, [r4, #24]	@ movhi
 106 0012 4FF4FA70 		mov	r0, #500
 107 0016 FFF7FEFF 		bl	chThdSleep
 108              	.LVL5:
 109              		.loc 1 93 0 is_stmt 1 discriminator 1
 110 001a 6583     		strh	r5, [r4, #26]	@ movhi
 111 001c 4FF4FA70 		mov	r0, #500
 112 0020 FFF7FEFF 		bl	chThdSleep
 113              	.LVL6:
 114              		.loc 1 94 0 discriminator 1
ARM GAS  C:\Users\IDONNO~1\AppData\Local\Temp\ccqIfJ61.s 			page 3


 115 0024 2583     		strh	r5, [r4, #24]	@ movhi
 116 0026 4FF4FA70 		mov	r0, #500
 117 002a FFF7FEFF 		bl	chThdSleep
 118              	.LVL7:
 119              		.loc 1 95 0 discriminator 1
 120 002e 6583     		strh	r5, [r4, #26]	@ movhi
 121 0030 42F23410 		movw	r0, #8500
 122 0034 FFF7FEFF 		bl	chThdSleep
 123              	.LVL8:
 124 0038 EAE7     		b	.L8
 125              	.L11:
 126 003a 00BF     		.align	2
 127              	.L10:
 128 003c 00000000 		.word	ch
 129 0040 0C000000 		.word	.LC1
 130 0044 00080240 		.word	1073874944
 131              		.cfi_endproc
 132              	.LFE408:
 133              		.size	periodic_thread, .-periodic_thread
 134              		.section	.text.startup.main,"ax",%progbits
 135              		.align	2
 136              		.p2align 4,,15
 137              		.global	main
 138              		.thumb
 139              		.thumb_func
 140              		.type	main, %function
 141              	main:
 142              	.LFB410:
 143              		.loc 1 124 0
 144              		.cfi_startproc
 145              		@ args = 0, pretend = 0, frame = 216
 146              		@ frame_needed = 0, uses_anonymous_args = 0
 147 0000 10B5     		push	{r4, lr}
 148              		.cfi_def_cfa_offset 8
 149              		.cfi_offset 4, -8
 150              		.cfi_offset 14, -4
 151 0002 B8B0     		sub	sp, sp, #224
 152              		.cfi_def_cfa_offset 232
 153              		.loc 1 125 0
 154 0004 FFF7FEFF 		bl	halInit
 155              	.LVL9:
 156              		.loc 1 126 0
 157 0008 FFF7FEFF 		bl	chSysInit
 158              	.LVL10:
 159              		.loc 1 128 0
 160 000c 42F21070 		movw	r0, #10000
 161 0010 FFF7FEFF 		bl	chThdSleep
 162              	.LVL11:
 163              		.loc 1 130 0
 164 0014 FFF7FEFF 		bl	hw_init_gpio
 165              	.LVL12:
 166              		.loc 1 132 0
 167 0018 FFF7FEFF 		bl	conf_general_init
 168              	.LVL13:
 169              		.loc 1 133 0
 170 001c FFF7FEFF 		bl	ledpwm_init
 171              	.LVL14:
ARM GAS  C:\Users\IDONNO~1\AppData\Local\Temp\ccqIfJ61.s 			page 4


 172              		.loc 1 153 0
 173 0020 FFF7FEFF 		bl	Usart1_print_init
 174              	.LVL15:
 175              		.loc 1 155 0
 176 0024 1449     		ldr	r1, .L15
 177 0026 1548     		ldr	r0, .L15+4
 178 0028 FFF7FEFF 		bl	chvprintf
 179              	.LVL16:
 180              		.loc 1 156 0
 181 002c 1449     		ldr	r1, .L15+8
 182 002e 1348     		ldr	r0, .L15+4
 183 0030 FFF7FEFF 		bl	chvprintf
 184              	.LVL17:
 185              		.loc 1 159 0
 186 0034 03A8     		add	r0, sp, #12
 187 0036 FFF7FEFF 		bl	conf_general_read_mc_configuration
 188              	.LVL18:
 189              		.loc 1 160 0
 190 003a 03A8     		add	r0, sp, #12
 191 003c FFF7FEFF 		bl	mc_interface_init
 192              	.LVL19:
 193              		.loc 1 171 0
 194 0040 0024     		movs	r4, #0
 195              		.loc 1 167 0
 196 0042 FFF7FEFF 		bl	timeout_init
 197              	.LVL20:
 198              		.loc 1 168 0
 199 0046 4FF47A70 		mov	r0, #1000
 200 004a FFF7FEFF 		bl	timeout_configure
 201              	.LVL21:
 202              		.loc 1 171 0
 203 004e 0D4B     		ldr	r3, .L15+12
 204 0050 0094     		str	r4, [sp]
 205 0052 4022     		movs	r2, #64
 206 0054 4FF40671 		mov	r1, #536
 207 0058 0B48     		ldr	r0, .L15+16
 208 005a FFF7FEFF 		bl	chThdCreateStatic
 209              	.LVL22:
 210              		.loc 1 172 0
 211 005e 0094     		str	r4, [sp]
 212 0060 0A4B     		ldr	r3, .L15+20
 213 0062 0B48     		ldr	r0, .L15+24
 214 0064 4022     		movs	r2, #64
 215 0066 4FF40671 		mov	r1, #536
 216 006a FFF7FEFF 		bl	chThdCreateStatic
 217              	.LVL23:
 218              	.L13:
 219              		.loc 1 177 0 discriminator 1
 220 006e 6420     		movs	r0, #100
 221 0070 FFF7FEFF 		bl	chThdSleep
 222              	.LVL24:
 223 0074 FBE7     		b	.L13
 224              	.L16:
 225 0076 00BF     		.align	2
 226              	.L15:
 227 0078 1C000000 		.word	.LC2
 228 007c 00000000 		.word	SD1
ARM GAS  C:\Users\IDONNO~1\AppData\Local\Temp\ccqIfJ61.s 			page 5


 229 0080 28000000 		.word	.LC3
 230 0084 00000000 		.word	periodic_thread
 231 0088 00000000 		.word	.LANCHOR0
 232 008c 00000000 		.word	timer_thread
 233 0090 00000000 		.word	.LANCHOR1
 234              		.cfi_endproc
 235              	.LFE410:
 236              		.size	main, .-main
 237              		.section	.bss.timer_thread_wa,"aw",%nobits
 238              		.align	3
 239              		.set	.LANCHOR1,. + 0
 240              		.type	timer_thread_wa, %object
 241              		.size	timer_thread_wa, 536
 242              	timer_thread_wa:
 243 0000 00000000 		.space	536
 243      00000000 
 243      00000000 
 243      00000000 
 243      00000000 
 244              		.section	.rodata.str1.4,"aMS",%progbits,1
 245              		.align	2
 246              	.LC0:
 247 0000 6D736563 		.ascii	"msec_timer\000"
 247      5F74696D 
 247      657200
 248 000b 00       		.space	1
 249              	.LC1:
 250 000c 424C4443 		.ascii	"BLDC periodic\000"
 250      20706572 
 250      696F6469 
 250      6300
 251 001a 0000     		.space	2
 252              	.LC2:
 253 001c 1B5B324A 		.ascii	"\033[2J\033[0;0H\000"
 253      1B5B303B 
 253      304800
 254 0027 00       		.space	1
 255              	.LC3:
 256 0028 6F726F63 		.ascii	"oroca_bldc\015\012\000"
 256      615F626C 
 256      64630D0A 
 256      00
 257              		.section	.bss.periodic_thread_wa,"aw",%nobits
 258              		.align	3
 259              		.set	.LANCHOR0,. + 0
 260              		.type	periodic_thread_wa, %object
 261              		.size	periodic_thread_wa, 536
 262              	periodic_thread_wa:
 263 0000 00000000 		.space	536
 263      00000000 
 263      00000000 
 263      00000000 
 263      00000000 
 264              		.text
 265              	.Letext0:
 266              		.file 3 "c:\\program files (x86)\\gnu tools arm embedded\\5.4 2016q3\\lib\\gcc\\arm-none-eabi\\5.4
 267              		.file 4 "c:\\program files (x86)\\gnu tools arm embedded\\5.4 2016q3\\arm-none-eabi\\include\\mach
ARM GAS  C:\Users\IDONNO~1\AppData\Local\Temp\ccqIfJ61.s 			page 6


 268              		.file 5 "c:\\program files (x86)\\gnu tools arm embedded\\5.4 2016q3\\arm-none-eabi\\include\\sys\
 269              		.file 6 "src/ChibiOS_3.0.2/os/rt/ports/ARMCMx/compilers/GCC/chtypes.h"
 270              		.file 7 "src/ChibiOS_3.0.2/os/rt/include/chsystypes.h"
 271              		.file 8 "src/ChibiOS_3.0.2/os/rt/include/chschd.h"
 272              		.file 9 "src/ChibiOS_3.0.2/os/ext/CMSIS/ST/stm32f407xx.h"
 273              		.file 10 "src/ChibiOS_3.0.2/os/rt/ports/ARMCMx/chcore.h"
 274              		.file 11 "src/ChibiOS_3.0.2/os/rt/ports/ARMCMx/chcore_v7m.h"
 275              		.file 12 "src/ChibiOS_3.0.2/os/rt/include/chtm.h"
 276              		.file 13 "src/ChibiOS_3.0.2/os/rt/include/chsem.h"
 277              		.file 14 "src/ChibiOS_3.0.2/os/rt/include/chmtx.h"
 278              		.file 15 "src/ChibiOS_3.0.2/os/rt/include/chevents.h"
 279              		.file 16 "src/ChibiOS_3.0.2/os/rt/include/chqueues.h"
 280              		.file 17 "src/ChibiOS_3.0.2/os/hal/ports/STM32/LLD/GPIOv2/pal_lld.h"
 281              		.file 18 "src/ChibiOS_3.0.2/os/hal/include/serial.h"
 282              		.file 19 "src/mc/mc_typedef.h"
 283              		.file 20 "src/ChibiOS_3.0.2/os/hal/ports/STM32/LLD/USARTv1/serial_lld.h"
 284              		.file 21 "src/ChibiOS_3.0.2/os/rt/include/chthreads.h"
 285              		.file 22 "src/ChibiOS_3.0.2/os/hal/include/hal.h"
 286              		.file 23 "src/ChibiOS_3.0.2/os/rt/include/chsys.h"
 287              		.file 24 "src/hw.h"
 288              		.file 25 "src/conf_general.h"
 289              		.file 26 "src/core/ledpwm.h"
 290              		.file 27 "usart1_print.h"
 291              		.file 28 "src/mc/mc_interface.h"
 292              		.file 29 "src/core/timeout.h"
 293              		.file 30 "src/ChibiOS_3.0.2/os/ext/CMSIS/include/core_cm4.h"