ARM GAS  C:\Users\IDONNO~1\AppData\Local\Temp\ccY27Fyg.s 			page 1


   1              		.syntax unified
   2              		.cpu cortex-m4
   3              		.eabi_attribute 27, 1
   4              		.eabi_attribute 28, 1
   5              		.fpu fpv4-sp-d16
   6              		.eabi_attribute 20, 1
   7              		.eabi_attribute 21, 1
   8              		.eabi_attribute 23, 3
   9              		.eabi_attribute 24, 1
  10              		.eabi_attribute 25, 1
  11              		.eabi_attribute 26, 1
  12              		.eabi_attribute 30, 2
  13              		.eabi_attribute 34, 1
  14              		.eabi_attribute 18, 4
  15              		.thumb
  16              		.syntax unified
  17              		.file	"mavlink_proc.c"
  18              		.text
  19              	.Ltext0:
  20              		.cfi_sections	.debug_frame
  21              		.section	.text.mavlink_msg_send,"ax",%progbits
  22              		.align	2
  23              		.p2align 4,,15
  24              		.global	mavlink_msg_send
  25              		.thumb
  26              		.thumb_func
  27              		.type	mavlink_msg_send, %function
  28              	mavlink_msg_send:
  29              	.LFB417:
  30              		.file 1 "src/core/mavlink_proc.c"
  31              		.loc 1 329 0
  32              		.cfi_startproc
  33              		@ args = 0, pretend = 0, frame = 1024
  34              		@ frame_needed = 0, uses_anonymous_args = 0
  35              	.LVL0:
  36 0000 F0B5     		push	{r4, r5, r6, r7, lr}
  37              		.cfi_def_cfa_offset 20
  38              		.cfi_offset 4, -20
  39              		.cfi_offset 5, -16
  40              		.cfi_offset 6, -12
  41              		.cfi_offset 7, -8
  42              		.cfi_offset 14, -4
  43              	.LBB116:
  44              	.LBB117:
  45              		.file 2 "src/core/../mavlink/oroca_bldc/../mavlink_helpers.h"
  46              		.loc 2 178 0
  47 0002 CE78     		ldrb	r6, [r1, #3]	@ zero_extendqisi2
  48              	.LBE117:
  49              	.LBE116:
  50              		.loc 1 329 0
  51 0004 ADF2044D 		subw	sp, sp, #1028
  52              		.cfi_def_cfa_offset 1048
  53              	.LVL1:
  54              	.LBB121:
  55              	.LBB118:
  56              		.loc 2 178 0
  57 0008 B41D     		adds	r4, r6, #6
ARM GAS  C:\Users\IDONNO~1\AppData\Local\Temp\ccY27Fyg.s 			page 2


  58              	.LBE118:
  59              	.LBE121:
  60              		.loc 1 329 0
  61 000a 0D46     		mov	r5, r1
  62              	.LVL2:
  63              	.LBB122:
  64              	.LBB119:
  65              		.loc 2 178 0
  66 000c 2246     		mov	r2, r4
  67              	.LBE119:
  68              	.LBE122:
  69              		.loc 1 329 0
  70 000e 0746     		mov	r7, r0
  71              	.LBB123:
  72              	.LBB120:
  73              		.loc 2 178 0
  74 0010 0231     		adds	r1, r1, #2
  75              	.LVL3:
  76 0012 6846     		mov	r0, sp
  77              	.LVL4:
  78 0014 FFF7FEFF 		bl	memcpy
  79              	.LVL5:
  80              		.loc 2 182 0
  81 0018 2B88     		ldrh	r3, [r5]	@ unaligned
  82 001a 0DF80430 		strb	r3, [sp, r4]
  83              		.loc 2 180 0
  84 001e 6C44     		add	r4, r4, sp
  85              	.LVL6:
  86              		.loc 2 183 0
  87 0020 1B0A     		lsrs	r3, r3, #8
  88 0022 6370     		strb	r3, [r4, #1]
  89              	.LVL7:
  90              	.LBE120:
  91              	.LBE123:
  92              		.loc 1 336 0
  93 0024 27B9     		cbnz	r7, .L1
  94              		.loc 1 338 0
  95 0026 06F10801 		add	r1, r6, #8
  96 002a 6846     		mov	r0, sp
  97 002c FFF7FEFF 		bl	usb_serial_send
  98              	.LVL8:
  99              	.L1:
 100              		.loc 1 344 0
 101 0030 0DF2044D 		addw	sp, sp, #1028
 102              		.cfi_def_cfa_offset 20
 103              		@ sp needed
 104 0034 F0BD     		pop	{r4, r5, r6, r7, pc}
 105              		.cfi_endproc
 106              	.LFE417:
 107              		.size	mavlink_msg_send, .-mavlink_msg_send
 108 0036 00BF     		.section	.text.resp_ack,"ax",%progbits
 109              		.align	2
 110              		.p2align 4,,15
 111              		.global	resp_ack
 112              		.thumb
 113              		.thumb_func
 114              		.type	resp_ack, %function
ARM GAS  C:\Users\IDONNO~1\AppData\Local\Temp\ccY27Fyg.s 			page 3


 115              	resp_ack:
 116              	.LFB407:
 117              		.loc 1 61 0
 118              		.cfi_startproc
 119              		@ args = 0, pretend = 0, frame = 296
 120              		@ frame_needed = 0, uses_anonymous_args = 0
 121              	.LVL9:
 122 0000 F0B5     		push	{r4, r5, r6, r7, lr}
 123              		.cfi_def_cfa_offset 20
 124              		.cfi_offset 4, -20
 125              		.cfi_offset 5, -16
 126              		.cfi_offset 6, -12
 127              		.cfi_offset 7, -8
 128              		.cfi_offset 14, -4
 129              	.LBB145:
 130              	.LBB146:
 131              	.LBB147:
 132              	.LBB148:
 133              		.file 3 "src/core/../mavlink/oroca_bldc/../protocol.h"
 134              		.loc 3 181 0
 135 0002 0B46     		mov	r3, r1
 136              	.LBE148:
 137              	.LBE147:
 138              	.LBE146:
 139              	.LBE145:
 140              		.loc 1 61 0
 141 0004 0446     		mov	r4, r0
 142              	.LBB193:
 143              	.LBB187:
 144              	.LBB153:
 145              	.LBB149:
 146              		.loc 3 181 0
 147 0006 53F8040F 		ldr	r0, [r3, #4]!	@ unaligned
 148              	.LVL10:
 149              	.LBE149:
 150              	.LBE153:
 151              	.LBE187:
 152              	.LBE193:
 153              		.loc 1 64 0
 154 000a 0F78     		ldrb	r7, [r1]	@ zero_extendqisi2
 155              	.LBB194:
 156              	.LBB188:
 157              	.LBB154:
 158              	.LBB150:
 159              		.loc 3 181 0
 160 000c 9A68     		ldr	r2, [r3, #8]	@ unaligned
 161              	.LBE150:
 162              	.LBE154:
 163              	.LBE188:
 164              	.LBE194:
 165              		.loc 1 61 0
 166 000e CBB0     		sub	sp, sp, #300
 167              		.cfi_def_cfa_offset 320
 168              		.loc 1 61 0
 169 0010 0E46     		mov	r6, r1
 170              	.LBB195:
 171              	.LBB189:
ARM GAS  C:\Users\IDONNO~1\AppData\Local\Temp\ccY27Fyg.s 			page 4


 172              	.LBB155:
 173              	.LBB151:
 174              		.loc 3 181 0
 175 0012 5968     		ldr	r1, [r3, #4]	@ unaligned
 176              	.LVL11:
 177 0014 DB68     		ldr	r3, [r3, #12]	@ unaligned
 178              	.LBE151:
 179              	.LBE155:
 180              	.LBE189:
 181              	.LBE195:
 182              		.loc 1 64 0
 183 0016 96F801E0 		ldrb	lr, [r6, #1]	@ zero_extendqisi2
 184              	.LBB196:
 185              	.LBB190:
 186              	.LBB156:
 187              	.LBB152:
 188              		.loc 3 181 0
 189 001a 02AD     		add	r5, sp, #8
 190 001c 0FC5     		stmia	r5!, {r0, r1, r2, r3}
 191              	.LBE152:
 192              	.LBE156:
 193              	.LBE190:
 194              	.LBE196:
 195              		.loc 1 64 0
 196 001e 47EA0E27 		orr	r7, r7, lr, lsl #8
 197 0022 B278     		ldrb	r2, [r6, #2]	@ zero_extendqisi2
 198 0024 F378     		ldrb	r3, [r6, #3]	@ zero_extendqisi2
 199              	.LVL12:
 200              	.LBB197:
 201              	.LBB191:
 202              		.file 4 "src/core/../mavlink/oroca_bldc/./mavlink_msg_ack.h"
 203              		.loc 4 107 0
 204 0026 ADF80470 		strh	r7, [sp, #4]	@ movhi
 205              		.loc 4 108 0
 206 002a 8DF80620 		strb	r2, [sp, #6]
 207              		.loc 4 109 0
 208 002e 8DF80730 		strb	r3, [sp, #7]
 209              		.loc 4 111 0
 210 0032 01AD     		add	r5, sp, #4
 211 0034 0FCD     		ldmia	r5!, {r0, r1, r2, r3}
 212              	.LVL13:
 213              	.LBB157:
 214              	.LBB158:
 215              		.loc 2 83 0
 216 0036 324E     		ldr	r6, .L14
 217              	.LVL14:
 218              	.LBE158:
 219              	.LBE157:
 220              		.loc 4 111 0
 221 0038 2F68     		ldr	r7, [r5]
 222 003a 08AD     		add	r5, sp, #32
 223 003c 0FC5     		stmia	r5!, {r0, r1, r2, r3}
 224              	.LBB182:
 225              	.LBB177:
 226              		.loc 2 83 0
 227 003e 04EB4403 		add	r3, r4, r4, lsl #1
 228 0042 06EB8303 		add	r3, r6, r3, lsl #2
ARM GAS  C:\Users\IDONNO~1\AppData\Local\Temp\ccY27Fyg.s 			page 5


 229              	.LBE177:
 230              	.LBE182:
 231              		.loc 4 111 0
 232 0046 2F60     		str	r7, [r5]
 233              	.LBB183:
 234              	.LBB178:
 235              		.loc 2 83 0
 236 0048 9A79     		ldrb	r2, [r3, #6]	@ zero_extendqisi2
 237 004a 8DF81C20 		strb	r2, [sp, #28]
 238              		.loc 2 84 0
 239 004e 551C     		adds	r5, r2, #1
 240              		.loc 2 78 0
 241 0050 FE20     		movs	r0, #254
 242              		.loc 2 80 0
 243 0052 0022     		movs	r2, #0
 244              	.LBE178:
 245              	.LBE183:
 246              		.loc 4 114 0
 247 0054 0126     		movs	r6, #1
 248              	.LBB184:
 249              	.LBB179:
 250              		.loc 2 79 0
 251 0056 1421     		movs	r1, #20
 252              		.loc 2 78 0
 253 0058 8DF81A00 		strb	r0, [sp, #26]
 254              		.loc 2 80 0
 255 005c 8DF81D20 		strb	r2, [sp, #29]
 256              	.LBE179:
 257              	.LBE184:
 258              		.loc 4 114 0
 259 0060 8DF81F60 		strb	r6, [sp, #31]
 260              	.LVL15:
 261              	.LBB185:
 262              	.LBB180:
 263              		.loc 2 79 0
 264 0064 8DF81B10 		strb	r1, [sp, #27]
 265 0068 0DF11B00 		add	r0, sp, #27
 266              		.loc 2 81 0
 267 006c 8DF81E20 		strb	r2, [sp, #30]
 268              		.loc 2 84 0
 269 0070 9D71     		strb	r5, [r3, #6]
 270              	.LVL16:
 271              	.LBB159:
 272              	.LBB160:
 273              	.LBB161:
 274              	.LBB162:
 275              		.file 5 "src/core/../mavlink/oroca_bldc/../checksum.h"
 276              		.loc 5 53 0
 277 0072 4FF6FF72 		movw	r2, #65535
 278 0076 0DF11F05 		add	r5, sp, #31
 279 007a 01E0     		b	.L8
 280              	.LVL17:
 281              	.L13:
 282 007c 10F8011F 		ldrb	r1, [r0, #1]!	@ zero_extendqisi2
 283              	.LVL18:
 284              	.L8:
 285              	.LBE162:
ARM GAS  C:\Users\IDONNO~1\AppData\Local\Temp\ccY27Fyg.s 			page 6


 286              	.LBE161:
 287              	.LBB163:
 288              	.LBB164:
 289              		.loc 5 39 0
 290 0080 5140     		eors	r1, r1, r2
 291              	.LVL19:
 292              		.loc 5 40 0
 293 0082 81EA0111 		eor	r1, r1, r1, lsl #4
 294              	.LVL20:
 295 0086 C9B2     		uxtb	r1, r1
 296              	.LVL21:
 297              		.loc 5 41 0
 298 0088 0B09     		lsrs	r3, r1, #4
 299 008a 83EA1222 		eor	r2, r3, r2, lsr #8
 300              	.LVL22:
 301 008e 42EA0122 		orr	r2, r2, r1, lsl #8
 302              	.LBE164:
 303              	.LBE163:
 304              		.loc 5 68 0
 305 0092 8542     		cmp	r5, r0
 306              	.LBB166:
 307              	.LBB165:
 308              		.loc 5 41 0
 309 0094 82EAC102 		eor	r2, r2, r1, lsl #3
 310              	.LVL23:
 311              	.LBE165:
 312              	.LBE166:
 313              		.loc 5 68 0
 314 0098 F0D1     		bne	.L13
 315              	.LVL24:
 316              	.LBE160:
 317              	.LBE159:
 318              		.loc 2 85 0
 319 009a ADF81820 		strh	r2, [sp, #24]	@ movhi
 320              	.LVL25:
 321              	.LBB167:
 322              	.LBB168:
 323              		.loc 5 86 0
 324 009e 08A8     		add	r0, sp, #32
 325              	.LVL26:
 326 00a0 0DAD     		add	r5, sp, #52
 327              	.LVL27:
 328              	.L9:
 329              	.LBB169:
 330              	.LBB170:
 331              		.loc 5 39 0
 332 00a2 10F8013B 		ldrb	r3, [r0], #1	@ zero_extendqisi2
 333              	.LVL28:
 334 00a6 5340     		eors	r3, r3, r2
 335              	.LVL29:
 336              		.loc 5 40 0
 337 00a8 83EA0313 		eor	r3, r3, r3, lsl #4
 338              	.LVL30:
 339 00ac DBB2     		uxtb	r3, r3
 340              	.LVL31:
 341              		.loc 5 41 0
 342 00ae 1909     		lsrs	r1, r3, #4
ARM GAS  C:\Users\IDONNO~1\AppData\Local\Temp\ccY27Fyg.s 			page 7


 343 00b0 81EA1222 		eor	r2, r1, r2, lsr #8
 344 00b4 82EA0322 		eor	r2, r2, r3, lsl #8
 345 00b8 82EAC303 		eor	r3, r2, r3, lsl #3
 346              	.LVL32:
 347 00bc 1BB2     		sxth	r3, r3
 348 00be 9AB2     		uxth	r2, r3
 349              	.LBE170:
 350              	.LBE169:
 351              		.loc 5 87 0
 352 00c0 A842     		cmp	r0, r5
 353              	.LBB172:
 354              	.LBB171:
 355              		.loc 5 41 0
 356 00c2 ADF81820 		strh	r2, [sp, #24]	@ movhi
 357              	.LVL33:
 358              	.LBE171:
 359              	.LBE172:
 360              		.loc 5 87 0
 361 00c6 ECD1     		bne	.L9
 362              	.LVL34:
 363              	.LBE168:
 364              	.LBE167:
 365              	.LBB173:
 366              	.LBB174:
 367              		.loc 5 39 0
 368 00c8 83F0C001 		eor	r1, r3, #192
 369              	.LVL35:
 370              		.loc 5 40 0
 371 00cc 81EA0111 		eor	r1, r1, r1, lsl #4
 372              	.LVL36:
 373 00d0 C9B2     		uxtb	r1, r1
 374              	.LVL37:
 375              		.loc 5 41 0
 376 00d2 0B09     		lsrs	r3, r1, #4
 377 00d4 83EA1222 		eor	r2, r3, r2, lsr #8
 378 00d8 82EA0123 		eor	r3, r2, r1, lsl #8
 379 00dc 83EAC103 		eor	r3, r3, r1, lsl #3
 380 00e0 1BB2     		sxth	r3, r3
 381 00e2 9AB2     		uxth	r2, r3
 382              	.LBE174:
 383              	.LBE173:
 384              	.LBE180:
 385              	.LBE185:
 386              	.LBE191:
 387              	.LBE197:
 388              		.loc 1 66 0
 389 00e4 2046     		mov	r0, r4
 390              	.LVL38:
 391 00e6 06A9     		add	r1, sp, #24
 392              	.LVL39:
 393              	.LBB198:
 394              	.LBB192:
 395              	.LBB186:
 396              	.LBB181:
 397              		.loc 2 91 0
 398 00e8 140A     		lsrs	r4, r2, #8
 399              	.LVL40:
ARM GAS  C:\Users\IDONNO~1\AppData\Local\Temp\ccY27Fyg.s 			page 8


 400              		.loc 2 90 0
 401 00ea 8DF83430 		strb	r3, [sp, #52]
 402              	.LBB176:
 403              	.LBB175:
 404              		.loc 5 41 0
 405 00ee ADF81820 		strh	r2, [sp, #24]	@ movhi
 406              	.LVL41:
 407              	.LBE175:
 408              	.LBE176:
 409              		.loc 2 91 0
 410 00f2 8DF83540 		strb	r4, [sp, #53]
 411              	.LVL42:
 412              	.LBE181:
 413              	.LBE186:
 414              	.LBE192:
 415              	.LBE198:
 416              		.loc 1 66 0
 417 00f6 FFF7FEFF 		bl	mavlink_msg_send
 418              	.LVL43:
 419              		.loc 1 67 0
 420 00fa 4BB0     		add	sp, sp, #300
 421              		.cfi_def_cfa_offset 20
 422              		@ sp needed
 423 00fc F0BD     		pop	{r4, r5, r6, r7, pc}
 424              	.LVL44:
 425              	.L15:
 426 00fe 00BF     		.align	2
 427              	.L14:
 428 0100 00000000 		.word	.LANCHOR0
 429              		.cfi_endproc
 430              	.LFE407:
 431              		.size	resp_ack, .-resp_ack
 432              		.section	.text.cmd_send_error,"ax",%progbits
 433              		.align	2
 434              		.p2align 4,,15
 435              		.global	cmd_send_error
 436              		.thumb
 437              		.thumb_func
 438              		.type	cmd_send_error, %function
 439              	cmd_send_error:
 440              	.LFB408:
 441              		.loc 1 74 0
 442              		.cfi_startproc
 443              		@ args = 0, pretend = 0, frame = 24
 444              		@ frame_needed = 0, uses_anonymous_args = 0
 445              	.LVL45:
 446 0000 00B5     		push	{lr}
 447              		.cfi_def_cfa_offset 4
 448              		.cfi_offset 14, -4
 449 0002 87B0     		sub	sp, sp, #28
 450              		.cfi_def_cfa_offset 32
 451              		.loc 1 83 0
 452 0004 06AB     		add	r3, sp, #24
 453              		.loc 1 82 0
 454 0006 4268     		ldr	r2, [r0, #4]
 455              		.loc 1 83 0
 456 0008 23F8141D 		strh	r1, [r3, #-20]!	@ movhi
ARM GAS  C:\Users\IDONNO~1\AppData\Local\Temp\ccY27Fyg.s 			page 9


 457              		.loc 1 82 0
 458 000c D279     		ldrb	r2, [r2, #7]	@ zero_extendqisi2
 459              		.loc 1 84 0
 460 000e 0078     		ldrb	r0, [r0]	@ zero_extendqisi2
 461              	.LVL46:
 462              		.loc 1 82 0
 463 0010 8DF80620 		strb	r2, [sp, #6]
 464              		.loc 1 84 0
 465 0014 1946     		mov	r1, r3
 466              	.LVL47:
 467 0016 FFF7FEFF 		bl	resp_ack
 468              	.LVL48:
 469              		.loc 1 85 0
 470 001a 07B0     		add	sp, sp, #28
 471              		.cfi_def_cfa_offset 4
 472              		@ sp needed
 473 001c 5DF804FB 		ldr	pc, [sp], #4
 474              		.cfi_endproc
 475              	.LFE408:
 476              		.size	cmd_send_error, .-cmd_send_error
 477              		.section	.text.cmd_read_version,"ax",%progbits
 478              		.align	2
 479              		.p2align 4,,15
 480              		.global	cmd_read_version
 481              		.thumb
 482              		.thumb_func
 483              		.type	cmd_read_version, %function
 484              	cmd_read_version:
 485              	.LFB409:
 486              		.loc 1 94 0
 487              		.cfi_startproc
 488              		@ args = 0, pretend = 0, frame = 32
 489              		@ frame_needed = 0, uses_anonymous_args = 0
 490              	.LVL49:
 491 0000 F0B5     		push	{r4, r5, r6, r7, lr}
 492              		.cfi_def_cfa_offset 20
 493              		.cfi_offset 4, -20
 494              		.cfi_offset 5, -16
 495              		.cfi_offset 6, -12
 496              		.cfi_offset 7, -8
 497              		.cfi_offset 14, -4
 498              		.loc 1 99 0
 499 0002 4568     		ldr	r5, [r0, #4]
 500              	.LVL50:
 501              	.LBB205:
 502              	.LBB206:
 503              		.file 6 "src/core/../mavlink/oroca_bldc/./mavlink_msg_read_board_name.h"
 504              		.loc 6 226 0
 505 0004 EA78     		ldrb	r2, [r5, #3]	@ zero_extendqisi2
 506              	.LBE206:
 507              	.LBE205:
 508              		.loc 1 94 0
 509 0006 89B0     		sub	sp, sp, #36
 510              		.cfi_def_cfa_offset 56
 511              	.LVL51:
 512              	.LBB209:
 513              	.LBB207:
ARM GAS  C:\Users\IDONNO~1\AppData\Local\Temp\ccY27Fyg.s 			page 10


 514              		.loc 6 228 0
 515 0008 092A     		cmp	r2, #9
 516              		.loc 6 227 0
 517 000a 4FF00004 		mov	r4, #0
 518              		.loc 6 228 0
 519 000e 28BF     		it	cs
 520 0010 0922     		movcs	r2, #9
 521              	.LVL52:
 522              	.LBE207:
 523              	.LBE209:
 524              		.loc 1 94 0
 525 0012 0646     		mov	r6, r0
 526              	.LBB210:
 527              	.LBB208:
 528              		.loc 6 228 0
 529 0014 05F10801 		add	r1, r5, #8
 530 0018 6846     		mov	r0, sp
 531              	.LVL53:
 532              		.loc 6 227 0
 533 001a 0194     		str	r4, [sp, #4]
 534 001c 0094     		str	r4, [sp]
 535 001e 8DF80840 		strb	r4, [sp, #8]
 536              		.loc 6 228 0
 537 0022 FFF7FEFF 		bl	memcpy
 538              	.LVL54:
 539              	.LBE208:
 540              	.LBE210:
 541              		.loc 1 101 0
 542 0026 9DF80030 		ldrb	r3, [sp]	@ zero_extendqisi2
 543 002a 012B     		cmp	r3, #1
 544 002c 01D0     		beq	.L21
 545              		.loc 1 119 0
 546 002e 09B0     		add	sp, sp, #36
 547              		.cfi_remember_state
 548              		.cfi_def_cfa_offset 20
 549              		@ sp needed
 550 0030 F0BD     		pop	{r4, r5, r6, r7, pc}
 551              	.LVL55:
 552              	.L21:
 553              		.cfi_restore_state
 554              	.LBB211:
 555              	.LBB212:
 556              		.loc 1 105 0
 557 0032 144A     		ldr	r2, .L22
 558              		.loc 1 109 0
 559 0034 144B     		ldr	r3, .L22+4
 560              		.loc 1 105 0
 561 0036 1268     		ldr	r2, [r2]
 562              		.loc 1 103 0
 563 0038 E979     		ldrb	r1, [r5, #7]	@ zero_extendqisi2
 564              		.loc 1 109 0
 565 003a 1B68     		ldr	r3, [r3]
 566              		.loc 1 103 0
 567 003c 8DF80E10 		strb	r1, [sp, #14]
 568              		.loc 1 107 0
 569 0040 110C     		lsrs	r1, r2, #16
 570              		.loc 1 106 0
ARM GAS  C:\Users\IDONNO~1\AppData\Local\Temp\ccY27Fyg.s 			page 11


 571 0042 4FEA122E 		lsr	lr, r2, #8
 572              		.loc 1 114 0
 573 0046 3078     		ldrb	r0, [r6]	@ zero_extendqisi2
 574              		.loc 1 104 0
 575 0048 ADF80C40 		strh	r4, [sp, #12]	@ movhi
 576              		.loc 1 108 0
 577 004c 170E     		lsrs	r7, r2, #24
 578              		.loc 1 110 0
 579 004e 1E0A     		lsrs	r6, r3, #8
 580              	.LVL56:
 581              		.loc 1 111 0
 582 0050 1D0C     		lsrs	r5, r3, #16
 583              		.loc 1 105 0
 584 0052 8DF81020 		strb	r2, [sp, #16]
 585              		.loc 1 112 0
 586 0056 1C0E     		lsrs	r4, r3, #24
 587              		.loc 1 113 0
 588 0058 0822     		movs	r2, #8
 589              		.loc 1 107 0
 590 005a 8DF81210 		strb	r1, [sp, #18]
 591              		.loc 1 114 0
 592 005e 03A9     		add	r1, sp, #12
 593              		.loc 1 106 0
 594 0060 8DF811E0 		strb	lr, [sp, #17]
 595              		.loc 1 108 0
 596 0064 8DF81370 		strb	r7, [sp, #19]
 597              		.loc 1 109 0
 598 0068 8DF81430 		strb	r3, [sp, #20]
 599              		.loc 1 110 0
 600 006c 8DF81560 		strb	r6, [sp, #21]
 601              		.loc 1 111 0
 602 0070 8DF81650 		strb	r5, [sp, #22]
 603              		.loc 1 112 0
 604 0074 8DF81740 		strb	r4, [sp, #23]
 605              		.loc 1 113 0
 606 0078 8DF80F20 		strb	r2, [sp, #15]
 607              		.loc 1 114 0
 608 007c FFF7FEFF 		bl	resp_ack
 609              	.LVL57:
 610              	.LBE212:
 611              	.LBE211:
 612              		.loc 1 119 0
 613 0080 09B0     		add	sp, sp, #36
 614              		.cfi_def_cfa_offset 20
 615              		@ sp needed
 616 0082 F0BD     		pop	{r4, r5, r6, r7, pc}
 617              	.L23:
 618              		.align	2
 619              	.L22:
 620 0084 00000000 		.word	.LANCHOR1
 621 0088 00000000 		.word	.LANCHOR2
 622              		.cfi_endproc
 623              	.LFE409:
 624              		.size	cmd_read_version, .-cmd_read_version
 625              		.section	.text.cmd_read_board_name,"ax",%progbits
 626              		.align	2
 627              		.p2align 4,,15
ARM GAS  C:\Users\IDONNO~1\AppData\Local\Temp\ccY27Fyg.s 			page 12


 628              		.global	cmd_read_board_name
 629              		.thumb
 630              		.thumb_func
 631              		.type	cmd_read_board_name, %function
 632              	cmd_read_board_name:
 633              	.LFB410:
 634              		.loc 1 127 0
 635              		.cfi_startproc
 636              		@ args = 0, pretend = 0, frame = 32
 637              		@ frame_needed = 0, uses_anonymous_args = 0
 638              	.LVL58:
 639 0000 70B5     		push	{r4, r5, r6, lr}
 640              		.cfi_def_cfa_offset 16
 641              		.cfi_offset 4, -16
 642              		.cfi_offset 5, -12
 643              		.cfi_offset 6, -8
 644              		.cfi_offset 14, -4
 645              		.loc 1 133 0
 646 0002 4568     		ldr	r5, [r0, #4]
 647              	.LVL59:
 648              	.LBB217:
 649              	.LBB218:
 650              		.loc 6 226 0
 651 0004 EA78     		ldrb	r2, [r5, #3]	@ zero_extendqisi2
 652              	.LBE218:
 653              	.LBE217:
 654              		.loc 1 127 0
 655 0006 88B0     		sub	sp, sp, #32
 656              		.cfi_def_cfa_offset 48
 657              	.LVL60:
 658              	.LBB221:
 659              	.LBB219:
 660              		.loc 6 228 0
 661 0008 092A     		cmp	r2, #9
 662              		.loc 6 227 0
 663 000a 4FF00004 		mov	r4, #0
 664              		.loc 6 228 0
 665 000e 28BF     		it	cs
 666 0010 0922     		movcs	r2, #9
 667              	.LVL61:
 668              	.LBE219:
 669              	.LBE221:
 670              		.loc 1 127 0
 671 0012 0646     		mov	r6, r0
 672              	.LBB222:
 673              	.LBB220:
 674              		.loc 6 228 0
 675 0014 05F10801 		add	r1, r5, #8
 676 0018 6846     		mov	r0, sp
 677              	.LVL62:
 678              		.loc 6 227 0
 679 001a 0194     		str	r4, [sp, #4]
 680 001c 0094     		str	r4, [sp]
 681 001e 8DF80840 		strb	r4, [sp, #8]
 682              		.loc 6 228 0
 683 0022 FFF7FEFF 		bl	memcpy
 684              	.LVL63:
ARM GAS  C:\Users\IDONNO~1\AppData\Local\Temp\ccY27Fyg.s 			page 13


 685              	.LBE220:
 686              	.LBE222:
 687              		.loc 1 135 0
 688 0026 9DF80030 		ldrb	r3, [sp]	@ zero_extendqisi2
 689 002a 012B     		cmp	r3, #1
 690 002c 01D0     		beq	.L29
 691              		.loc 1 150 0
 692 002e 08B0     		add	sp, sp, #32
 693              		.cfi_remember_state
 694              		.cfi_def_cfa_offset 16
 695              		@ sp needed
 696 0030 70BD     		pop	{r4, r5, r6, pc}
 697              	.LVL64:
 698              	.L29:
 699              		.cfi_restore_state
 700 0032 104B     		ldr	r3, .L30
 701              	.LBB223:
 702              	.LBB224:
 703              		.loc 1 137 0
 704 0034 EA79     		ldrb	r2, [r5, #7]	@ zero_extendqisi2
 705 0036 8DF80E20 		strb	r2, [sp, #14]
 706              		.loc 1 138 0
 707 003a ADF80C40 		strh	r4, [sp, #12]	@ movhi
 708              	.LVL65:
 709 003e 1D68     		ldr	r5, [r3]
 710 0040 02E0     		b	.L26
 711              	.LVL66:
 712              	.L27:
 713              		.loc 1 143 0
 714 0042 EB5C     		ldrb	r3, [r5, r3]	@ zero_extendqisi2
 715              	.LVL67:
 716 0044 02F8103C 		strb	r3, [r2, #-16]
 717              	.LVL68:
 718              	.L26:
 719              		.loc 1 141 0
 720 0048 2846     		mov	r0, r5
 721 004a FFF7FEFF 		bl	strlen
 722              	.LVL69:
 723 004e E3B2     		uxtb	r3, r4
 724              	.LVL70:
 725              		.loc 1 143 0
 726 0050 08AA     		add	r2, sp, #32
 727              		.loc 1 141 0
 728 0052 9842     		cmp	r0, r3
 729 0054 04F10104 		add	r4, r4, #1
 730              		.loc 1 143 0
 731 0058 1A44     		add	r2, r2, r3
 732              		.loc 1 141 0
 733 005a F2D8     		bhi	.L27
 734              		.loc 1 146 0
 735 005c 8DF80F30 		strb	r3, [sp, #15]
 736              		.loc 1 147 0
 737 0060 3078     		ldrb	r0, [r6]	@ zero_extendqisi2
 738              		.loc 1 145 0
 739 0062 0023     		movs	r3, #0
 740              	.LVL71:
 741              		.loc 1 147 0
ARM GAS  C:\Users\IDONNO~1\AppData\Local\Temp\ccY27Fyg.s 			page 14


 742 0064 03A9     		add	r1, sp, #12
 743              		.loc 1 145 0
 744 0066 02F8103C 		strb	r3, [r2, #-16]
 745              		.loc 1 147 0
 746 006a FFF7FEFF 		bl	resp_ack
 747              	.LVL72:
 748              	.LBE224:
 749              	.LBE223:
 750              		.loc 1 150 0
 751 006e 08B0     		add	sp, sp, #32
 752              		.cfi_def_cfa_offset 16
 753              		@ sp needed
 754 0070 70BD     		pop	{r4, r5, r6, pc}
 755              	.LVL73:
 756              	.L31:
 757 0072 00BF     		.align	2
 758              	.L30:
 759 0074 00000000 		.word	.LANCHOR3
 760              		.cfi_endproc
 761              	.LFE410:
 762              		.size	cmd_read_board_name, .-cmd_read_board_name
 763              		.section	.text.cmd_write_eeprom,"ax",%progbits
 764              		.align	2
 765              		.p2align 4,,15
 766              		.global	cmd_write_eeprom
 767              		.thumb
 768              		.thumb_func
 769              		.type	cmd_write_eeprom, %function
 770              	cmd_write_eeprom:
 771              	.LFB412:
 772              		.loc 1 188 0
 773              		.cfi_startproc
 774              		@ args = 0, pretend = 0, frame = 248
 775              		@ frame_needed = 0, uses_anonymous_args = 0
 776              	.LVL74:
 777 0000 70B5     		push	{r4, r5, r6, lr}
 778              		.cfi_def_cfa_offset 16
 779              		.cfi_offset 4, -16
 780              		.cfi_offset 5, -12
 781              		.cfi_offset 6, -8
 782              		.cfi_offset 14, -4
 783 0002 BEB0     		sub	sp, sp, #248
 784              		.cfi_def_cfa_offset 264
 785              		.loc 1 188 0
 786 0004 0646     		mov	r6, r0
 787              		.loc 1 195 0
 788 0006 FFF7FEFF 		bl	mc_interface_get_configuration
 789              	.LVL75:
 790 000a D422     		movs	r2, #212
 791 000c 0146     		mov	r1, r0
 792 000e 09A8     		add	r0, sp, #36
 793 0010 FFF7FEFF 		bl	memcpy
 794              	.LVL76:
 795              		.loc 1 197 0
 796 0014 7468     		ldr	r4, [r6, #4]
 797              	.LVL77:
 798              	.LBB227:
ARM GAS  C:\Users\IDONNO~1\AppData\Local\Temp\ccY27Fyg.s 			page 15


 799              	.LBB228:
 800              		.file 7 "src/core/../mavlink/oroca_bldc/./mavlink_msg_write_eeprom.h"
 801              		.loc 7 234 0
 802 0016 E278     		ldrb	r2, [r4, #3]	@ zero_extendqisi2
 803              	.LVL78:
 804              		.loc 7 236 0
 805 0018 022A     		cmp	r2, #2
 806 001a 28BF     		it	cs
 807 001c 0222     		movcs	r2, #2
 808              	.LVL79:
 809 001e 04F10801 		add	r1, r4, #8
 810              		.loc 7 235 0
 811 0022 0025     		movs	r5, #0
 812              		.loc 7 236 0
 813 0024 01A8     		add	r0, sp, #4
 814              	.LVL80:
 815              		.loc 7 235 0
 816 0026 ADF80450 		strh	r5, [sp, #4]	@ movhi
 817              		.loc 7 236 0
 818 002a FFF7FEFF 		bl	memcpy
 819              	.LVL81:
 820              	.LBE228:
 821              	.LBE227:
 822              		.loc 1 199 0
 823 002e 9DF80430 		ldrb	r3, [sp, #4]	@ zero_extendqisi2
 824 0032 012B     		cmp	r3, #1
 825 0034 08D0     		beq	.L35
 826              	.L33:
 827              		.loc 1 209 0
 828 0036 09A8     		add	r0, sp, #36
 829 0038 FFF7FEFF 		bl	conf_general_store_mc_configuration
 830              	.LVL82:
 831              		.loc 1 211 0
 832 003c 4FF4FA60 		mov	r0, #2000
 833 0040 FFF7FEFF 		bl	chThdSleep
 834              	.LVL83:
 835              		.loc 1 215 0
 836 0044 3EB0     		add	sp, sp, #248
 837              		.cfi_remember_state
 838              		.cfi_def_cfa_offset 16
 839              		@ sp needed
 840 0046 70BD     		pop	{r4, r5, r6, pc}
 841              	.LVL84:
 842              	.L35:
 843              		.cfi_restore_state
 844              		.loc 1 201 0
 845 0048 E379     		ldrb	r3, [r4, #7]	@ zero_extendqisi2
 846              		.loc 1 205 0
 847 004a 3078     		ldrb	r0, [r6]	@ zero_extendqisi2
 848              		.loc 1 201 0
 849 004c 8DF81230 		strb	r3, [sp, #18]
 850              		.loc 1 205 0
 851 0050 04A9     		add	r1, sp, #16
 852              		.loc 1 202 0
 853 0052 ADF81050 		strh	r5, [sp, #16]	@ movhi
 854              		.loc 1 204 0
 855 0056 8DF81350 		strb	r5, [sp, #19]
ARM GAS  C:\Users\IDONNO~1\AppData\Local\Temp\ccY27Fyg.s 			page 16


 856              		.loc 1 205 0
 857 005a FFF7FEFF 		bl	resp_ack
 858              	.LVL85:
 859 005e EAE7     		b	.L33
 860              		.cfi_endproc
 861              	.LFE412:
 862              		.size	cmd_write_eeprom, .-cmd_write_eeprom
 863              		.section	.text.cmd_set_velocity,"ax",%progbits
 864              		.align	2
 865              		.p2align 4,,15
 866              		.global	cmd_set_velocity
 867              		.thumb
 868              		.thumb_func
 869              		.type	cmd_set_velocity, %function
 870              	cmd_set_velocity:
 871              	.LFB413:
 872              		.loc 1 220 0
 873              		.cfi_startproc
 874              		@ args = 0, pretend = 0, frame = 24
 875              		@ frame_needed = 0, uses_anonymous_args = 0
 876              	.LVL86:
 877 0000 70B5     		push	{r4, r5, r6, lr}
 878              		.cfi_def_cfa_offset 16
 879              		.cfi_offset 4, -16
 880              		.cfi_offset 5, -12
 881              		.cfi_offset 6, -8
 882              		.cfi_offset 14, -4
 883              		.loc 1 225 0
 884 0002 4568     		ldr	r5, [r0, #4]
 885              	.LVL87:
 886              	.LBB231:
 887              	.LBB232:
 888              		.file 8 "src/core/../mavlink/oroca_bldc/./mavlink_msg_set_velocity.h"
 889              		.loc 8 234 0
 890 0004 EA78     		ldrb	r2, [r5, #3]	@ zero_extendqisi2
 891              	.LBE232:
 892              	.LBE231:
 893              		.loc 1 220 0
 894 0006 86B0     		sub	sp, sp, #24
 895              		.cfi_def_cfa_offset 40
 896              	.LVL88:
 897              	.LBB235:
 898              	.LBB233:
 899              		.loc 8 236 0
 900 0008 032A     		cmp	r2, #3
 901 000a 28BF     		it	cs
 902 000c 0322     		movcs	r2, #3
 903              	.LVL89:
 904              		.loc 8 235 0
 905 000e 0024     		movs	r4, #0
 906              	.LBE233:
 907              	.LBE235:
 908              		.loc 1 220 0
 909 0010 0646     		mov	r6, r0
 910              	.LBB236:
 911              	.LBB234:
 912              		.loc 8 236 0
ARM GAS  C:\Users\IDONNO~1\AppData\Local\Temp\ccY27Fyg.s 			page 17


 913 0012 05F10801 		add	r1, r5, #8
 914 0016 6846     		mov	r0, sp
 915              	.LVL90:
 916              		.loc 8 235 0
 917 0018 8DF80240 		strb	r4, [sp, #2]
 918 001c ADF80040 		strh	r4, [sp]	@ movhi
 919              		.loc 8 236 0
 920 0020 FFF7FEFF 		bl	memcpy
 921              	.LVL91:
 922              	.LBE234:
 923              	.LBE236:
 924              		.loc 1 227 0
 925 0024 9DF80230 		ldrb	r3, [sp, #2]	@ zero_extendqisi2
 926 0028 012B     		cmp	r3, #1
 927 002a 0AD0     		beq	.L39
 928              	.L37:
 929              		.loc 1 236 0
 930 002c BDF80000 		ldrh	r0, [sp]
 931 0030 FFF7FEFF 		bl	mc_interface_set_velocity
 932              	.LVL92:
 933              		.loc 1 237 0
 934 0034 4FF4FA60 		mov	r0, #2000
 935 0038 FFF7FEFF 		bl	chThdSleep
 936              	.LVL93:
 937              		.loc 1 240 0
 938 003c 0020     		movs	r0, #0
 939 003e 06B0     		add	sp, sp, #24
 940              		.cfi_remember_state
 941              		.cfi_def_cfa_offset 16
 942              		@ sp needed
 943 0040 70BD     		pop	{r4, r5, r6, pc}
 944              	.LVL94:
 945              	.L39:
 946              		.cfi_restore_state
 947              		.loc 1 229 0
 948 0042 EB79     		ldrb	r3, [r5, #7]	@ zero_extendqisi2
 949              		.loc 1 233 0
 950 0044 3078     		ldrb	r0, [r6]	@ zero_extendqisi2
 951              		.loc 1 229 0
 952 0046 8DF80630 		strb	r3, [sp, #6]
 953              		.loc 1 233 0
 954 004a 01A9     		add	r1, sp, #4
 955              		.loc 1 230 0
 956 004c ADF80440 		strh	r4, [sp, #4]	@ movhi
 957              		.loc 1 232 0
 958 0050 8DF80740 		strb	r4, [sp, #7]
 959              		.loc 1 233 0
 960 0054 FFF7FEFF 		bl	resp_ack
 961              	.LVL95:
 962 0058 E8E7     		b	.L37
 963              		.cfi_endproc
 964              	.LFE413:
 965              		.size	cmd_set_velocity, .-cmd_set_velocity
 966 005a 00BF     		.section	.text.cmd_set_mcconf,"ax",%progbits
 967              		.align	2
 968              		.p2align 4,,15
 969              		.global	cmd_set_mcconf
ARM GAS  C:\Users\IDONNO~1\AppData\Local\Temp\ccY27Fyg.s 			page 18


 970              		.thumb
 971              		.thumb_func
 972              		.type	cmd_set_mcconf, %function
 973              	cmd_set_mcconf:
 974              	.LFB414:
 975              		.loc 1 245 0
 976              		.cfi_startproc
 977              		@ args = 0, pretend = 0, frame = 272
 978              		@ frame_needed = 0, uses_anonymous_args = 0
 979              	.LVL96:
 980 0000 70B5     		push	{r4, r5, r6, lr}
 981              		.cfi_def_cfa_offset 16
 982              		.cfi_offset 4, -16
 983              		.cfi_offset 5, -12
 984              		.cfi_offset 6, -8
 985              		.cfi_offset 14, -4
 986              		.loc 1 251 0
 987 0002 4568     		ldr	r5, [r0, #4]
 988              	.LVL97:
 989              	.LBB239:
 990              	.LBB240:
 991              		.file 9 "src/core/../mavlink/oroca_bldc/./mavlink_msg_set_mcconf.h"
 992              		.loc 9 684 0
 993 0004 EC78     		ldrb	r4, [r5, #3]	@ zero_extendqisi2
 994              	.LBE240:
 995              	.LBE239:
 996              		.loc 1 245 0
 997 0006 C4B0     		sub	sp, sp, #272
 998              		.cfi_def_cfa_offset 288
 999              	.LVL98:
 1000              	.LBB243:
 1001              	.LBB241:
 1002              		.loc 9 684 0
 1003 0008 262C     		cmp	r4, #38
 1004 000a 28BF     		it	cs
 1005 000c 2624     		movcs	r4, #38
 1006              	.LVL99:
 1007              		.loc 9 685 0
 1008 000e 2622     		movs	r2, #38
 1009 0010 0021     		movs	r1, #0
 1010              	.LBE241:
 1011              	.LBE243:
 1012              		.loc 1 245 0
 1013 0012 0646     		mov	r6, r0
 1014              	.LBB244:
 1015              	.LBB242:
 1016              		.loc 9 685 0
 1017 0014 05A8     		add	r0, sp, #20
 1018              	.LVL100:
 1019 0016 FFF7FEFF 		bl	memset
 1020              	.LVL101:
 1021              		.loc 9 686 0
 1022 001a 2246     		mov	r2, r4
 1023 001c 05A8     		add	r0, sp, #20
 1024              	.LVL102:
 1025 001e 05F10801 		add	r1, r5, #8
 1026 0022 FFF7FEFF 		bl	memcpy
ARM GAS  C:\Users\IDONNO~1\AppData\Local\Temp\ccY27Fyg.s 			page 19


 1027              	.LVL103:
 1028              	.LBE242:
 1029              	.LBE244:
 1030              		.loc 1 253 0
 1031 0026 9DF83830 		ldrb	r3, [sp, #56]	@ zero_extendqisi2
 1032 002a 012B     		cmp	r3, #1
 1033 002c 00F0A480 		beq	.L43
 1034              	.L41:
 1035              		.loc 1 262 0
 1036 0030 FFF7FEFF 		bl	mc_interface_get_configuration
 1037              	.LVL104:
 1038 0034 D422     		movs	r2, #212
 1039 0036 0146     		mov	r1, r0
 1040 0038 0FA8     		add	r0, sp, #60
 1041 003a FFF7FEFF 		bl	memcpy
 1042              	.LVL105:
 1043              		.loc 1 265 0
 1044 003e 9DF83930 		ldrb	r3, [sp, #57]	@ zero_extendqisi2
 1045 0042 07EE103A 		vmov	s14, r3	@ int
 1046              		.loc 1 266 0
 1047 0046 BDF81430 		ldrh	r3, [sp, #20]
 1048 004a 07EE903A 		vmov	s15, r3	@ int
 1049              		.loc 1 268 0
 1050 004e BDF81830 		ldrh	r3, [sp, #24]
 1051 0052 01EE903A 		vmov	s3, r3	@ int
 1052              		.loc 1 269 0
 1053 0056 BDF81A30 		ldrh	r3, [sp, #26]
 1054 005a 02EE103A 		vmov	s4, r3	@ int
 1055              		.loc 1 270 0
 1056 005e BDF81C30 		ldrh	r3, [sp, #28]
 1057 0062 02EE903A 		vmov	s5, r3	@ int
 1058              		.loc 1 271 0
 1059 0066 BDF81E30 		ldrh	r3, [sp, #30]
 1060 006a 03EE103A 		vmov	s6, r3	@ int
 1061              		.loc 1 272 0
 1062 006e BDF82030 		ldrh	r3, [sp, #32]
 1063 0072 03EE903A 		vmov	s7, r3	@ int
 1064              		.loc 1 273 0
 1065 0076 BDF82230 		ldrh	r3, [sp, #34]
 1066 007a 04EE103A 		vmov	s8, r3	@ int
 1067              		.loc 1 274 0
 1068 007e BDF82430 		ldrh	r3, [sp, #36]
 1069 0082 04EE903A 		vmov	s9, r3	@ int
 1070              		.loc 1 275 0
 1071 0086 BDF82630 		ldrh	r3, [sp, #38]
 1072 008a 05EE103A 		vmov	s10, r3	@ int
 1073              		.loc 1 276 0
 1074 008e BDF82830 		ldrh	r3, [sp, #40]
 1075 0092 05EE903A 		vmov	s11, r3	@ int
 1076              		.loc 1 277 0
 1077 0096 BDF82A30 		ldrh	r3, [sp, #42]
 1078 009a 06EE103A 		vmov	s12, r3	@ int
 1079              		.loc 1 278 0
 1080 009e BDF82C30 		ldrh	r3, [sp, #44]
 1081              		.loc 1 265 0
 1082 00a2 B8EE477A 		vcvt.f32.u32	s14, s14
 1083              		.loc 1 278 0
ARM GAS  C:\Users\IDONNO~1\AppData\Local\Temp\ccY27Fyg.s 			page 20


 1084 00a6 06EE903A 		vmov	s13, r3	@ int
 1085              		.loc 1 279 0
 1086 00aa BDF82E30 		ldrh	r3, [sp, #46]
 1087              		.loc 1 265 0
 1088 00ae 8DED0F7A 		vstr.32	s14, [sp, #60]
 1089              		.loc 1 266 0
 1090 00b2 F8EE677A 		vcvt.f32.u32	s15, s15
 1091              		.loc 1 279 0
 1092 00b6 07EE103A 		vmov	s14, r3	@ int
 1093              		.loc 1 280 0
 1094 00ba BDF83030 		ldrh	r3, [sp, #48]
 1095              		.loc 1 266 0
 1096 00be CDED107A 		vstr.32	s15, [sp, #64]
 1097              		.loc 1 280 0
 1098 00c2 07EE903A 		vmov	s15, r3	@ int
 1099              		.loc 1 268 0
 1100 00c6 F8EE611A 		vcvt.f32.u32	s3, s3
 1101              		.loc 1 269 0
 1102 00ca B8EE422A 		vcvt.f32.u32	s4, s4
 1103              		.loc 1 270 0
 1104 00ce F8EE622A 		vcvt.f32.u32	s5, s5
 1105              		.loc 1 271 0
 1106 00d2 B8EE433A 		vcvt.f32.u32	s6, s6
 1107              		.loc 1 272 0
 1108 00d6 F8EE633A 		vcvt.f32.u32	s7, s7
 1109              		.loc 1 273 0
 1110 00da B8EE444A 		vcvt.f32.u32	s8, s8
 1111              		.loc 1 274 0
 1112 00de F8EE644A 		vcvt.f32.u32	s9, s9
 1113              		.loc 1 275 0
 1114 00e2 B8EE455A 		vcvt.f32.u32	s10, s10
 1115              		.loc 1 276 0
 1116 00e6 F8EE655A 		vcvt.f32.u32	s11, s11
 1117              		.loc 1 277 0
 1118 00ea B8EE466A 		vcvt.f32.u32	s12, s12
 1119              		.loc 1 278 0
 1120 00ee F8EE666A 		vcvt.f32.u32	s13, s13
 1121              		.loc 1 279 0
 1122 00f2 B8EE477A 		vcvt.f32.u32	s14, s14
 1123              		.loc 1 280 0
 1124 00f6 F8EE677A 		vcvt.f32.u32	s15, s15
 1125              		.loc 1 267 0
 1126 00fa BDF81630 		ldrh	r3, [sp, #22]
 1127              		.loc 1 268 0
 1128 00fe CDED321A 		vstr.32	s3, [sp, #200]
 1129              		.loc 1 269 0
 1130 0102 8DED332A 		vstr.32	s4, [sp, #204]
 1131              		.loc 1 270 0
 1132 0106 CDED342A 		vstr.32	s5, [sp, #208]
 1133              		.loc 1 271 0
 1134 010a 8DED353A 		vstr.32	s6, [sp, #212]
 1135              		.loc 1 272 0
 1136 010e CDED363A 		vstr.32	s7, [sp, #216]
 1137              		.loc 1 273 0
 1138 0112 8DED374A 		vstr.32	s8, [sp, #220]
 1139              		.loc 1 274 0
 1140 0116 CDED384A 		vstr.32	s9, [sp, #224]
ARM GAS  C:\Users\IDONNO~1\AppData\Local\Temp\ccY27Fyg.s 			page 21


 1141              		.loc 1 275 0
 1142 011a 8DED395A 		vstr.32	s10, [sp, #228]
 1143              		.loc 1 276 0
 1144 011e CDED3A5A 		vstr.32	s11, [sp, #232]
 1145              		.loc 1 277 0
 1146 0122 8DED3B6A 		vstr.32	s12, [sp, #236]
 1147              		.loc 1 278 0
 1148 0126 CDED3C6A 		vstr.32	s13, [sp, #240]
 1149              		.loc 1 279 0
 1150 012a 8DED3D7A 		vstr.32	s14, [sp, #244]
 1151              		.loc 1 280 0
 1152 012e CDED3E7A 		vstr.32	s15, [sp, #248]
 1153              		.loc 1 267 0
 1154 0132 ADF84430 		strh	r3, [sp, #68]	@ movhi
 1155              		.loc 1 281 0
 1156 0136 BDF83230 		ldrh	r3, [sp, #50]
 1157 013a 06EE903A 		vmov	s13, r3	@ int
 1158              		.loc 1 282 0
 1159 013e BDF83430 		ldrh	r3, [sp, #52]
 1160 0142 07EE103A 		vmov	s14, r3	@ int
 1161              		.loc 1 283 0
 1162 0146 BDF83630 		ldrh	r3, [sp, #54]
 1163 014a 07EE903A 		vmov	s15, r3	@ int
 1164              		.loc 1 281 0
 1165 014e F8EE666A 		vcvt.f32.u32	s13, s13
 1166              		.loc 1 282 0
 1167 0152 B8EE477A 		vcvt.f32.u32	s14, s14
 1168              		.loc 1 283 0
 1169 0156 F8EE677A 		vcvt.f32.u32	s15, s15
 1170              		.loc 1 285 0
 1171 015a 0FA8     		add	r0, sp, #60
 1172              		.loc 1 281 0
 1173 015c CDED3F6A 		vstr.32	s13, [sp, #252]
 1174              		.loc 1 282 0
 1175 0160 8DED407A 		vstr.32	s14, [sp, #256]
 1176              		.loc 1 283 0
 1177 0164 CDED417A 		vstr.32	s15, [sp, #260]
 1178              		.loc 1 285 0
 1179 0168 FFF7FEFF 		bl	mc_interface_set_configuration
 1180              	.LVL106:
 1181              		.loc 1 286 0
 1182 016c 4FF4FA60 		mov	r0, #2000
 1183 0170 FFF7FEFF 		bl	chThdSleep
 1184              	.LVL107:
 1185              		.loc 1 289 0
 1186 0174 44B0     		add	sp, sp, #272
 1187              		.cfi_remember_state
 1188              		.cfi_def_cfa_offset 16
 1189              		@ sp needed
 1190 0176 70BD     		pop	{r4, r5, r6, pc}
 1191              	.LVL108:
 1192              	.L43:
 1193              		.cfi_restore_state
 1194              		.loc 1 255 0
 1195 0178 EB79     		ldrb	r3, [r5, #7]	@ zero_extendqisi2
 1196 017a 8DF80230 		strb	r3, [sp, #2]
 1197              		.loc 1 259 0
ARM GAS  C:\Users\IDONNO~1\AppData\Local\Temp\ccY27Fyg.s 			page 22


 1198 017e 3078     		ldrb	r0, [r6]	@ zero_extendqisi2
 1199              		.loc 1 256 0
 1200 0180 0023     		movs	r3, #0
 1201              		.loc 1 259 0
 1202 0182 6946     		mov	r1, sp
 1203              		.loc 1 256 0
 1204 0184 ADF80030 		strh	r3, [sp]	@ movhi
 1205              		.loc 1 258 0
 1206 0188 8DF80330 		strb	r3, [sp, #3]
 1207              		.loc 1 259 0
 1208 018c FFF7FEFF 		bl	resp_ack
 1209              	.LVL109:
 1210 0190 4EE7     		b	.L41
 1211              		.cfi_endproc
 1212              	.LFE414:
 1213              		.size	cmd_set_mcconf, .-cmd_set_mcconf
 1214 0192 00BF     		.section	.text.cmd_set_appconf,"ax",%progbits
 1215              		.align	2
 1216              		.p2align 4,,15
 1217              		.global	cmd_set_appconf
 1218              		.thumb
 1219              		.thumb_func
 1220              		.type	cmd_set_appconf, %function
 1221              	cmd_set_appconf:
 1222              	.LFB415:
 1223              		.loc 1 292 0
 1224              		.cfi_startproc
 1225              		@ args = 0, pretend = 0, frame = 32
 1226              		@ frame_needed = 0, uses_anonymous_args = 0
 1227              	.LVL110:
 1228 0000 70B5     		push	{r4, r5, r6, lr}
 1229              		.cfi_def_cfa_offset 16
 1230              		.cfi_offset 4, -16
 1231              		.cfi_offset 5, -12
 1232              		.cfi_offset 6, -8
 1233              		.cfi_offset 14, -4
 1234              		.loc 1 297 0
 1235 0002 4568     		ldr	r5, [r0, #4]
 1236              	.LVL111:
 1237              	.LBB249:
 1238              	.LBB250:
 1239              		.loc 6 226 0
 1240 0004 EA78     		ldrb	r2, [r5, #3]	@ zero_extendqisi2
 1241              	.LBE250:
 1242              	.LBE249:
 1243              		.loc 1 292 0
 1244 0006 88B0     		sub	sp, sp, #32
 1245              		.cfi_def_cfa_offset 48
 1246              	.LVL112:
 1247              	.LBB253:
 1248              	.LBB251:
 1249              		.loc 6 228 0
 1250 0008 092A     		cmp	r2, #9
 1251              		.loc 6 227 0
 1252 000a 4FF00004 		mov	r4, #0
 1253              		.loc 6 228 0
 1254 000e 28BF     		it	cs
ARM GAS  C:\Users\IDONNO~1\AppData\Local\Temp\ccY27Fyg.s 			page 23


 1255 0010 0922     		movcs	r2, #9
 1256              	.LVL113:
 1257              	.LBE251:
 1258              	.LBE253:
 1259              		.loc 1 292 0
 1260 0012 0646     		mov	r6, r0
 1261              	.LBB254:
 1262              	.LBB252:
 1263              		.loc 6 228 0
 1264 0014 05F10801 		add	r1, r5, #8
 1265 0018 6846     		mov	r0, sp
 1266              	.LVL114:
 1267              		.loc 6 227 0
 1268 001a 0194     		str	r4, [sp, #4]
 1269 001c 0094     		str	r4, [sp]
 1270 001e 8DF80840 		strb	r4, [sp, #8]
 1271              		.loc 6 228 0
 1272 0022 FFF7FEFF 		bl	memcpy
 1273              	.LVL115:
 1274              	.LBE252:
 1275              	.LBE254:
 1276              		.loc 1 299 0
 1277 0026 9DF80030 		ldrb	r3, [sp]	@ zero_extendqisi2
 1278 002a 012B     		cmp	r3, #1
 1279 002c 01D0     		beq	.L47
 1280              		.loc 1 307 0
 1281 002e 08B0     		add	sp, sp, #32
 1282              		.cfi_remember_state
 1283              		.cfi_def_cfa_offset 16
 1284              		@ sp needed
 1285 0030 70BD     		pop	{r4, r5, r6, pc}
 1286              	.LVL116:
 1287              	.L47:
 1288              		.cfi_restore_state
 1289              	.LBB255:
 1290              	.LBB256:
 1291              		.loc 1 301 0
 1292 0032 EB79     		ldrb	r3, [r5, #7]	@ zero_extendqisi2
 1293              		.loc 1 305 0
 1294 0034 3078     		ldrb	r0, [r6]	@ zero_extendqisi2
 1295              		.loc 1 301 0
 1296 0036 8DF80E30 		strb	r3, [sp, #14]
 1297              		.loc 1 305 0
 1298 003a 03A9     		add	r1, sp, #12
 1299              		.loc 1 302 0
 1300 003c ADF80C40 		strh	r4, [sp, #12]	@ movhi
 1301              		.loc 1 304 0
 1302 0040 8DF80F40 		strb	r4, [sp, #15]
 1303              		.loc 1 305 0
 1304 0044 FFF7FEFF 		bl	resp_ack
 1305              	.LVL117:
 1306              	.LBE256:
 1307              	.LBE255:
 1308              		.loc 1 307 0
 1309 0048 08B0     		add	sp, sp, #32
 1310              		.cfi_def_cfa_offset 16
 1311              		@ sp needed
ARM GAS  C:\Users\IDONNO~1\AppData\Local\Temp\ccY27Fyg.s 			page 24


 1312 004a 70BD     		pop	{r4, r5, r6, pc}
 1313              		.cfi_endproc
 1314              	.LFE415:
 1315              		.size	cmd_set_appconf, .-cmd_set_appconf
 1316              		.section	.text.mavlink_dbgString,"ax",%progbits
 1317              		.align	2
 1318              		.p2align 4,,15
 1319              		.global	mavlink_dbgString
 1320              		.thumb
 1321              		.thumb_func
 1322              		.type	mavlink_dbgString, %function
 1323              	mavlink_dbgString:
 1324              	.LFB416:
 1325              		.loc 1 311 0
 1326              		.cfi_startproc
 1327              		@ args = 0, pretend = 0, frame = 528
 1328              		@ frame_needed = 0, uses_anonymous_args = 0
 1329              	.LVL118:
 1330 0000 70B5     		push	{r4, r5, r6, lr}
 1331              		.cfi_def_cfa_offset 16
 1332              		.cfi_offset 4, -16
 1333              		.cfi_offset 5, -12
 1334              		.cfi_offset 6, -8
 1335              		.cfi_offset 14, -4
 1336 0002 ADF5047D 		sub	sp, sp, #528
 1337              		.cfi_def_cfa_offset 544
 1338              	.LBB278:
 1339              	.LBB279:
 1340              	.LBB280:
 1341              	.LBB281:
 1342              		.loc 3 179 0
 1343 0006 01AE     		add	r6, sp, #4
 1344              	.LBE281:
 1345              	.LBE280:
 1346              	.LBE279:
 1347              	.LBE278:
 1348              		.loc 1 311 0
 1349 0008 0446     		mov	r4, r0
 1350              	.LVL119:
 1351              	.LBB315:
 1352              	.LBB312:
 1353              	.LBB284:
 1354              	.LBB282:
 1355              		.loc 3 179 0
 1356 000a FA22     		movs	r2, #250
 1357 000c 3046     		mov	r0, r6
 1358              	.LVL120:
 1359              		.loc 3 178 0
 1360 000e 0029     		cmp	r1, #0
 1361 0010 68D0     		beq	.L57
 1362              		.loc 3 181 0
 1363 0012 FFF7FEFF 		bl	memcpy
 1364              	.LVL121:
 1365              	.L50:
 1366              	.LBE282:
 1367              	.LBE284:
 1368              		.file 10 "src/core/../mavlink/oroca_bldc/./mavlink_msg_debug_string.h"
ARM GAS  C:\Users\IDONNO~1\AppData\Local\Temp\ccY27Fyg.s 			page 25


 1369              		.loc 10 88 0
 1370 0016 FA25     		movs	r5, #250
 1371 0018 3146     		mov	r1, r6
 1372 001a 2A46     		mov	r2, r5
 1373 001c 42A8     		add	r0, sp, #264
 1374 001e FFF7FEFF 		bl	memcpy
 1375              	.LVL122:
 1376              	.LBB285:
 1377              	.LBB286:
 1378              		.loc 2 83 0
 1379 0022 324B     		ldr	r3, .L59
 1380              		.loc 2 79 0
 1381 0024 8DF80351 		strb	r5, [sp, #259]
 1382              		.loc 2 83 0
 1383 0028 04EB4402 		add	r2, r4, r4, lsl #1
 1384 002c 03EB8203 		add	r3, r3, r2, lsl #2
 1385              	.LBE286:
 1386              	.LBE285:
 1387              		.loc 10 91 0
 1388 0030 0020     		movs	r0, #0
 1389              	.LBB308:
 1390              	.LBB305:
 1391              		.loc 2 83 0
 1392 0032 9A79     		ldrb	r2, [r3, #6]	@ zero_extendqisi2
 1393 0034 8DF80421 		strb	r2, [sp, #260]
 1394              		.loc 2 78 0
 1395 0038 FE26     		movs	r6, #254
 1396              		.loc 2 84 0
 1397 003a 0132     		adds	r2, r2, #1
 1398 003c 9A71     		strb	r2, [r3, #6]
 1399 003e 2946     		mov	r1, r5
 1400              	.LBE305:
 1401              	.LBE308:
 1402              		.loc 10 91 0
 1403 0040 8DF80701 		strb	r0, [sp, #263]
 1404              	.LVL123:
 1405              	.LBB309:
 1406              	.LBB306:
 1407              		.loc 2 80 0
 1408 0044 8DF80501 		strb	r0, [sp, #261]
 1409              		.loc 2 81 0
 1410 0048 8DF80601 		strb	r0, [sp, #262]
 1411              	.LVL124:
 1412              		.loc 2 78 0
 1413 004c 8DF80261 		strb	r6, [sp, #258]
 1414 0050 0DF20310 		addw	r0, sp, #259
 1415              	.LVL125:
 1416 0054 0DF20715 		addw	r5, sp, #263
 1417              	.LBB287:
 1418              	.LBB288:
 1419              	.LBB289:
 1420              	.LBB290:
 1421              		.loc 5 53 0
 1422 0058 4FF6FF72 		movw	r2, #65535
 1423 005c 01E0     		b	.L52
 1424              	.LVL126:
 1425              	.L58:
ARM GAS  C:\Users\IDONNO~1\AppData\Local\Temp\ccY27Fyg.s 			page 26


 1426 005e 10F8011F 		ldrb	r1, [r0, #1]!	@ zero_extendqisi2
 1427              	.LVL127:
 1428              	.L52:
 1429              	.LBE290:
 1430              	.LBE289:
 1431              	.LBB291:
 1432              	.LBB292:
 1433              		.loc 5 39 0
 1434 0062 5140     		eors	r1, r1, r2
 1435              	.LVL128:
 1436              		.loc 5 40 0
 1437 0064 81EA0111 		eor	r1, r1, r1, lsl #4
 1438              	.LVL129:
 1439 0068 C9B2     		uxtb	r1, r1
 1440              	.LVL130:
 1441              		.loc 5 41 0
 1442 006a 0B09     		lsrs	r3, r1, #4
 1443 006c 83EA1222 		eor	r2, r3, r2, lsr #8
 1444              	.LVL131:
 1445 0070 42EA0122 		orr	r2, r2, r1, lsl #8
 1446              	.LBE292:
 1447              	.LBE291:
 1448              		.loc 5 68 0
 1449 0074 A842     		cmp	r0, r5
 1450              	.LBB294:
 1451              	.LBB293:
 1452              		.loc 5 41 0
 1453 0076 82EAC102 		eor	r2, r2, r1, lsl #3
 1454              	.LVL132:
 1455              	.LBE293:
 1456              	.LBE294:
 1457              		.loc 5 68 0
 1458 007a F0D1     		bne	.L58
 1459              	.LVL133:
 1460              	.LBE288:
 1461              	.LBE287:
 1462              		.loc 2 85 0
 1463 007c ADF80021 		strh	r2, [sp, #256]	@ movhi
 1464              	.LVL134:
 1465              	.LBB295:
 1466              	.LBB296:
 1467              		.loc 5 86 0
 1468 0080 42A8     		add	r0, sp, #264
 1469              	.LVL135:
 1470 0082 0DF20225 		addw	r5, sp, #514
 1471              	.LVL136:
 1472              	.L53:
 1473              	.LBB297:
 1474              	.LBB298:
 1475              		.loc 5 39 0
 1476 0086 10F8013B 		ldrb	r3, [r0], #1	@ zero_extendqisi2
 1477              	.LVL137:
 1478 008a 5340     		eors	r3, r3, r2
 1479              	.LVL138:
 1480              		.loc 5 40 0
 1481 008c 83EA0313 		eor	r3, r3, r3, lsl #4
 1482              	.LVL139:
ARM GAS  C:\Users\IDONNO~1\AppData\Local\Temp\ccY27Fyg.s 			page 27


 1483 0090 DBB2     		uxtb	r3, r3
 1484              	.LVL140:
 1485              		.loc 5 41 0
 1486 0092 1909     		lsrs	r1, r3, #4
 1487 0094 81EA1222 		eor	r2, r1, r2, lsr #8
 1488 0098 82EA0322 		eor	r2, r2, r3, lsl #8
 1489 009c 82EAC303 		eor	r3, r2, r3, lsl #3
 1490              	.LVL141:
 1491 00a0 1BB2     		sxth	r3, r3
 1492 00a2 9AB2     		uxth	r2, r3
 1493              	.LBE298:
 1494              	.LBE297:
 1495              		.loc 5 87 0
 1496 00a4 A842     		cmp	r0, r5
 1497              	.LBB300:
 1498              	.LBB299:
 1499              		.loc 5 41 0
 1500 00a6 ADF80021 		strh	r2, [sp, #256]	@ movhi
 1501              	.LVL142:
 1502              	.LBE299:
 1503              	.LBE300:
 1504              		.loc 5 87 0
 1505 00aa ECD1     		bne	.L53
 1506              	.LVL143:
 1507              	.LBE296:
 1508              	.LBE295:
 1509              	.LBB301:
 1510              	.LBB302:
 1511              		.loc 5 39 0
 1512 00ac 83F03201 		eor	r1, r3, #50
 1513              	.LVL144:
 1514              		.loc 5 40 0
 1515 00b0 81EA0111 		eor	r1, r1, r1, lsl #4
 1516              	.LVL145:
 1517 00b4 C9B2     		uxtb	r1, r1
 1518              	.LVL146:
 1519              		.loc 5 41 0
 1520 00b6 0B09     		lsrs	r3, r1, #4
 1521 00b8 83EA1222 		eor	r2, r3, r2, lsr #8
 1522 00bc 82EA0123 		eor	r3, r2, r1, lsl #8
 1523 00c0 83EAC103 		eor	r3, r3, r1, lsl #3
 1524 00c4 1BB2     		sxth	r3, r3
 1525 00c6 9AB2     		uxth	r2, r3
 1526              	.LBE302:
 1527              	.LBE301:
 1528              	.LBE306:
 1529              	.LBE309:
 1530              	.LBE312:
 1531              	.LBE315:
 1532              		.loc 1 316 0
 1533 00c8 2046     		mov	r0, r4
 1534              	.LVL147:
 1535 00ca 40A9     		add	r1, sp, #256
 1536              	.LVL148:
 1537              	.LBB316:
 1538              	.LBB313:
 1539              	.LBB310:
ARM GAS  C:\Users\IDONNO~1\AppData\Local\Temp\ccY27Fyg.s 			page 28


 1540              	.LBB307:
 1541              		.loc 2 91 0
 1542 00cc 140A     		lsrs	r4, r2, #8
 1543              	.LVL149:
 1544              		.loc 2 90 0
 1545 00ce 8DF80232 		strb	r3, [sp, #514]
 1546              	.LBB304:
 1547              	.LBB303:
 1548              		.loc 5 41 0
 1549 00d2 ADF80021 		strh	r2, [sp, #256]	@ movhi
 1550              	.LVL150:
 1551              	.LBE303:
 1552              	.LBE304:
 1553              		.loc 2 91 0
 1554 00d6 8DF80342 		strb	r4, [sp, #515]
 1555              	.LVL151:
 1556              	.LBE307:
 1557              	.LBE310:
 1558              	.LBE313:
 1559              	.LBE316:
 1560              		.loc 1 316 0
 1561 00da FFF7FEFF 		bl	mavlink_msg_send
 1562              	.LVL152:
 1563              		.loc 1 317 0
 1564 00de 0DF5047D 		add	sp, sp, #528
 1565              		.cfi_remember_state
 1566              		.cfi_def_cfa_offset 16
 1567              		@ sp needed
 1568 00e2 70BD     		pop	{r4, r5, r6, pc}
 1569              	.LVL153:
 1570              	.L57:
 1571              		.cfi_restore_state
 1572              	.LBB317:
 1573              	.LBB314:
 1574              	.LBB311:
 1575              	.LBB283:
 1576              		.loc 3 179 0
 1577 00e4 FFF7FEFF 		bl	memset
 1578              	.LVL154:
 1579 00e8 95E7     		b	.L50
 1580              	.L60:
 1581 00ea 00BF     		.align	2
 1582              	.L59:
 1583 00ec 00000000 		.word	.LANCHOR0
 1584              	.LBE283:
 1585              	.LBE311:
 1586              	.LBE314:
 1587              	.LBE317:
 1588              		.cfi_endproc
 1589              	.LFE416:
 1590              		.size	mavlink_dbgString, .-mavlink_dbgString
 1591              		.section	.text.cmd_read_tag,"ax",%progbits
 1592              		.align	2
 1593              		.p2align 4,,15
 1594              		.global	cmd_read_tag
 1595              		.thumb
 1596              		.thumb_func
ARM GAS  C:\Users\IDONNO~1\AppData\Local\Temp\ccY27Fyg.s 			page 29


 1597              		.type	cmd_read_tag, %function
 1598              	cmd_read_tag:
 1599              	.LFB411:
 1600              		.loc 1 158 0
 1601              		.cfi_startproc
 1602              		@ args = 0, pretend = 0, frame = 32
 1603              		@ frame_needed = 0, uses_anonymous_args = 0
 1604              	.LVL155:
 1605 0000 70B5     		push	{r4, r5, r6, lr}
 1606              		.cfi_def_cfa_offset 16
 1607              		.cfi_offset 4, -16
 1608              		.cfi_offset 5, -12
 1609              		.cfi_offset 6, -8
 1610              		.cfi_offset 14, -4
 1611              		.loc 1 163 0
 1612 0002 4568     		ldr	r5, [r0, #4]
 1613              	.LVL156:
 1614              	.LBB320:
 1615              	.LBB321:
 1616              		.file 11 "src/core/../mavlink/oroca_bldc/./mavlink_msg_read_tag.h"
 1617              		.loc 11 251 0
 1618 0004 EA78     		ldrb	r2, [r5, #3]	@ zero_extendqisi2
 1619              	.LBE321:
 1620              	.LBE320:
 1621              		.loc 1 158 0
 1622 0006 88B0     		sub	sp, sp, #32
 1623              		.cfi_def_cfa_offset 48
 1624              	.LVL157:
 1625              	.LBB324:
 1626              	.LBB322:
 1627              		.loc 11 253 0
 1628 0008 0A2A     		cmp	r2, #10
 1629              		.loc 11 252 0
 1630 000a 4FF00004 		mov	r4, #0
 1631              		.loc 11 253 0
 1632 000e 28BF     		it	cs
 1633 0010 0A22     		movcs	r2, #10
 1634              	.LVL158:
 1635              	.LBE322:
 1636              	.LBE324:
 1637              		.loc 1 158 0
 1638 0012 0646     		mov	r6, r0
 1639              	.LBB325:
 1640              	.LBB323:
 1641              		.loc 11 253 0
 1642 0014 05F10801 		add	r1, r5, #8
 1643 0018 6846     		mov	r0, sp
 1644              	.LVL159:
 1645              		.loc 11 252 0
 1646 001a 0194     		str	r4, [sp, #4]
 1647 001c 0094     		str	r4, [sp]
 1648 001e ADF80840 		strh	r4, [sp, #8]	@ movhi
 1649              		.loc 11 253 0
 1650 0022 FFF7FEFF 		bl	memcpy
 1651              	.LVL160:
 1652              	.LBE323:
 1653              	.LBE325:
ARM GAS  C:\Users\IDONNO~1\AppData\Local\Temp\ccY27Fyg.s 			page 30


 1654              		.loc 1 165 0
 1655 0026 9DF80030 		ldrb	r3, [sp]	@ zero_extendqisi2
 1656 002a 012B     		cmp	r3, #1
 1657 002c 19D0     		beq	.L64
 1658              	.L62:
 1659              		.loc 1 175 0
 1660 002e 1349     		ldr	r1, .L65
 1661 0030 0020     		movs	r0, #0
 1662 0032 FFF7FEFF 		bl	mavlink_dbgString
 1663              	.LVL161:
 1664              		.loc 1 177 0
 1665 0036 1249     		ldr	r1, .L65+4
 1666 0038 0020     		movs	r0, #0
 1667 003a FFF7FEFF 		bl	mavlink_dbgString
 1668              	.LVL162:
 1669              		.loc 1 178 0
 1670 003e 1149     		ldr	r1, .L65+8
 1671 0040 0020     		movs	r0, #0
 1672 0042 FFF7FEFF 		bl	mavlink_dbgString
 1673              	.LVL163:
 1674              		.loc 1 179 0
 1675 0046 1049     		ldr	r1, .L65+12
 1676 0048 0020     		movs	r0, #0
 1677 004a FFF7FEFF 		bl	mavlink_dbgString
 1678              	.LVL164:
 1679              		.loc 1 180 0
 1680 004e 0F49     		ldr	r1, .L65+16
 1681 0050 0020     		movs	r0, #0
 1682 0052 FFF7FEFF 		bl	mavlink_dbgString
 1683              	.LVL165:
 1684              		.loc 1 181 0
 1685 0056 0E49     		ldr	r1, .L65+20
 1686 0058 0020     		movs	r0, #0
 1687 005a FFF7FEFF 		bl	mavlink_dbgString
 1688              	.LVL166:
 1689              		.loc 1 182 0
 1690 005e 08B0     		add	sp, sp, #32
 1691              		.cfi_remember_state
 1692              		.cfi_def_cfa_offset 16
 1693              		@ sp needed
 1694 0060 70BD     		pop	{r4, r5, r6, pc}
 1695              	.LVL167:
 1696              	.L64:
 1697              		.cfi_restore_state
 1698              		.loc 1 167 0
 1699 0062 EB79     		ldrb	r3, [r5, #7]	@ zero_extendqisi2
 1700              		.loc 1 171 0
 1701 0064 3078     		ldrb	r0, [r6]	@ zero_extendqisi2
 1702              		.loc 1 167 0
 1703 0066 8DF80E30 		strb	r3, [sp, #14]
 1704              		.loc 1 171 0
 1705 006a 03A9     		add	r1, sp, #12
 1706              		.loc 1 168 0
 1707 006c ADF80C40 		strh	r4, [sp, #12]	@ movhi
 1708              		.loc 1 170 0
 1709 0070 8DF80F40 		strb	r4, [sp, #15]
 1710              		.loc 1 171 0
ARM GAS  C:\Users\IDONNO~1\AppData\Local\Temp\ccY27Fyg.s 			page 31


 1711 0074 FFF7FEFF 		bl	resp_ack
 1712              	.LVL168:
 1713 0078 D9E7     		b	.L62
 1714              	.L66:
 1715 007a 00BF     		.align	2
 1716              	.L65:
 1717 007c 00000000 		.word	.LC0
 1718 0080 14000000 		.word	.LC1
 1719 0084 2C000000 		.word	.LC2
 1720 0088 4C000000 		.word	.LC3
 1721 008c 5C000000 		.word	.LC4
 1722 0090 6C000000 		.word	.LC5
 1723              		.cfi_endproc
 1724              	.LFE411:
 1725              		.size	cmd_read_tag, .-cmd_read_tag
 1726              		.section	.text.mavlink_msg_recv,"ax",%progbits
 1727              		.align	2
 1728              		.p2align 4,,15
 1729              		.global	mavlink_msg_recv
 1730              		.thumb
 1731              		.thumb_func
 1732              		.type	mavlink_msg_recv, %function
 1733              	mavlink_msg_recv:
 1734              	.LFB418:
 1735              		.loc 1 348 0
 1736              		.cfi_startproc
 1737              		@ args = 0, pretend = 0, frame = 16
 1738              		@ frame_needed = 0, uses_anonymous_args = 0
 1739              	.LVL169:
 1740 0000 2DE9F04F 		push	{r4, r5, r6, r7, r8, r9, r10, fp, lr}
 1741              		.cfi_def_cfa_offset 36
 1742              		.cfi_offset 4, -36
 1743              		.cfi_offset 5, -32
 1744              		.cfi_offset 6, -28
 1745              		.cfi_offset 7, -24
 1746              		.cfi_offset 8, -20
 1747              		.cfi_offset 9, -16
 1748              		.cfi_offset 10, -12
 1749              		.cfi_offset 11, -8
 1750              		.cfi_offset 14, -4
 1751 0004 9046     		mov	r8, r2
 1752 0006 85B0     		sub	sp, sp, #20
 1753              		.cfi_def_cfa_offset 56
 1754              		.loc 1 348 0
 1755 0008 0546     		mov	r5, r0
 1756              		.loc 1 356 0
 1757 000a 1070     		strb	r0, [r2]
 1758              		.loc 1 348 0
 1759 000c 0C46     		mov	r4, r1
 1760              	.LBB406:
 1761              	.LBB407:
 1762              	.LBB408:
 1763              	.LBB409:
 1764              	.LBB410:
 1765              		.loc 2 274 0
 1766 000e BC4E     		ldr	r6, .L133
 1767              	.LBE410:
ARM GAS  C:\Users\IDONNO~1\AppData\Local\Temp\ccY27Fyg.s 			page 32


 1768              	.LBE409:
 1769              	.LBE408:
 1770              	.LBE407:
 1771              	.LBE406:
 1772              		.loc 1 358 0
 1773 0010 88B9     		cbnz	r0, .L68
 1774              	.LVL170:
 1775              	.LBB534:
 1776              	.LBB526:
 1777              	.LBB505:
 1778              	.LBB494:
 1779              	.LBB483:
 1780              		.loc 2 276 0
 1781 0012 F378     		ldrb	r3, [r6, #3]	@ zero_extendqisi2
 1782              		.loc 2 274 0
 1783 0014 3070     		strb	r0, [r6]
 1784              		.loc 2 276 0
 1785 0016 0A2B     		cmp	r3, #10
 1786 0018 00F22482 		bhi	.L69
 1787 001c DFE813F0 		tbh	[pc, r3, lsl #1]
 1788              	.LVL171:
 1789              	.L71:
 1790 0020 6700     		.2byte	(.L70-.L71)/2
 1791 0022 6700     		.2byte	(.L70-.L71)/2
 1792 0024 6D00     		.2byte	(.L72-.L71)/2
 1793 0026 8A00     		.2byte	(.L73-.L71)/2
 1794 0028 9D00     		.2byte	(.L74-.L71)/2
 1795 002a B000     		.2byte	(.L75-.L71)/2
 1796 002c C300     		.2byte	(.L76-.L71)/2
 1797 002e D900     		.2byte	(.L77-.L71)/2
 1798 0030 F400     		.2byte	(.L78-.L71)/2
 1799 0032 1501     		.2byte	(.L79-.L71)/2
 1800 0034 1501     		.2byte	(.L79-.L71)/2
 1801              		.p2align 1
 1802              	.L68:
 1803              	.LBE483:
 1804              	.LBE494:
 1805              	.LBE505:
 1806              	.LBE526:
 1807              	.LBE534:
 1808              		.loc 1 368 0
 1809 0036 B34B     		ldr	r3, .L133+4
 1810              	.LBB535:
 1811              	.LBB536:
 1812              	.LBB537:
 1813              	.LBB538:
 1814              	.LBB539:
 1815              		.loc 2 276 0
 1816 0038 F27B     		ldrb	r2, [r6, #15]	@ zero_extendqisi2
 1817              	.LVL172:
 1818              	.LBE539:
 1819              	.LBE538:
 1820              	.LBE537:
 1821              	.LBE536:
 1822              	.LBE535:
 1823              		.loc 1 368 0
 1824 003a 0701     		lsls	r7, r0, #4
ARM GAS  C:\Users\IDONNO~1\AppData\Local\Temp\ccY27Fyg.s 			page 33


 1825 003c 3818     		adds	r0, r7, r0
 1826              	.LVL173:
 1827              	.LBB659:
 1828              	.LBB651:
 1829              	.LBB632:
 1830              	.LBB622:
 1831              	.LBB612:
 1832              		.loc 2 274 0
 1833 003e 0021     		movs	r1, #0
 1834              	.LVL174:
 1835              	.LBE612:
 1836              	.LBE622:
 1837              	.LBE632:
 1838              	.LBE651:
 1839              	.LBE659:
 1840              		.loc 1 368 0
 1841 0040 03EB001B 		add	fp, r3, r0, lsl #4
 1842              	.LVL175:
 1843              	.LBB660:
 1844              	.LBB652:
 1845              	.LBB633:
 1846              	.LBB623:
 1847              	.LBB613:
 1848              		.loc 2 274 0
 1849 0044 3173     		strb	r1, [r6, #12]
 1850              	.LVL176:
 1851              		.loc 2 276 0
 1852 0046 0A2A     		cmp	r2, #10
 1853 0048 00F23582 		bhi	.L95
 1854 004c DFE812F0 		tbh	[pc, r2, lsl #1]
 1855              	.L97:
 1856 0050 3101     		.2byte	(.L96-.L97)/2
 1857 0052 3101     		.2byte	(.L96-.L97)/2
 1858 0054 3801     		.2byte	(.L98-.L97)/2
 1859 0056 6001     		.2byte	(.L99-.L97)/2
 1860 0058 7701     		.2byte	(.L100-.L97)/2
 1861 005a 8E01     		.2byte	(.L101-.L97)/2
 1862 005c A501     		.2byte	(.L102-.L97)/2
 1863 005e C001     		.2byte	(.L103-.L97)/2
 1864 0060 E801     		.2byte	(.L104-.L97)/2
 1865 0062 0B00     		.2byte	(.L105-.L97)/2
 1866 0064 0B00     		.2byte	(.L105-.L97)/2
 1867              		.p2align 1
 1868              	.L105:
 1869              		.loc 2 375 0
 1870 0066 0A2A     		cmp	r2, #10
 1871 0068 DFF89C92 		ldr	r9, .L133+8
 1872 006c 05D0     		beq	.L112
 1873 006e B9F81021 		ldrh	r2, [r9, #272]
 1874 0072 B4EB122F 		cmp	r4, r2, lsr #8
 1875 0076 00F07182 		beq	.L113
 1876              	.L112:
 1877              		.loc 2 377 0
 1878 007a 4FF0020A 		mov	r10, #2
 1879 007e 86F80CA0 		strb	r10, [r6, #12]
 1880 0082 CDF80CA0 		str	r10, [sp, #12]
 1881              	.L114:
ARM GAS  C:\Users\IDONNO~1\AppData\Local\Temp\ccY27Fyg.s 			page 34


 1882 0086 0293     		str	r3, [sp, #8]
 1883              		.loc 2 383 0
 1884 0088 337C     		ldrb	r3, [r6, #16]	@ zero_extendqisi2
 1885 008a 0193     		str	r3, [sp, #4]
 1886 008c 09EB0300 		add	r0, r9, r3
 1887              		.loc 2 384 0
 1888 0090 9D4B     		ldr	r3, .L133+8
 1889              		.loc 2 383 0
 1890 0092 80F81941 		strb	r4, [r0, #281]
 1891              		.loc 2 382 0
 1892 0096 4FF0010E 		mov	lr, #1
 1893              		.loc 2 384 0
 1894 009a 03F58871 		add	r1, r3, #272
 1895 009e 4FF48872 		mov	r2, #272
 1896 00a2 5846     		mov	r0, fp
 1897              		.loc 2 382 0
 1898 00a4 86F80FE0 		strb	lr, [r6, #15]
 1899              		.loc 2 384 0
 1900 00a8 FFF7FEFF 		bl	memcpy
 1901              	.LVL177:
 1902              		.loc 2 390 0
 1903 00ac 039B     		ldr	r3, [sp, #12]
 1904              		.loc 2 382 0
 1905 00ae DFF850A2 		ldr	r10, .L133
 1906              		.loc 2 390 0
 1907 00b2 012B     		cmp	r3, #1
 1908 00b4 029B     		ldr	r3, [sp, #8]
 1909 00b6 40F05B82 		bne	.L128
 1910              		.loc 2 397 0
 1911 00ba 9349     		ldr	r1, .L133+8
 1912              		.loc 2 399 0
 1913 00bc BAF81420 		ldrh	r2, [r10, #20]
 1914              		.loc 2 397 0
 1915 00c0 91F81411 		ldrb	r1, [r1, #276]	@ zero_extendqisi2
 1916 00c4 8AF81110 		strb	r1, [r10, #17]
 1917              		.loc 2 399 0
 1918 00c8 0AB9     		cbnz	r2, .L117
 1919 00ca AAF81620 		strh	r2, [r10, #22]	@ movhi
 1920              	.L117:
 1921              		.loc 2 404 0
 1922 00ce 3D44     		add	r5, r5, r7
 1923 00d0 99F81311 		ldrb	r1, [r9, #275]	@ zero_extendqisi2
 1924 00d4 03EB0513 		add	r3, r3, r5, lsl #4
 1925              		.loc 2 401 0
 1926 00d8 0132     		adds	r2, r2, #1
 1927 00da B282     		strh	r2, [r6, #20]	@ movhi
 1928              	.LBE613:
 1929              	.LBE623:
 1930              	.LBE633:
 1931              	.LBE652:
 1932              	.LBE660:
 1933              		.loc 1 371 0
 1934 00dc 0120     		movs	r0, #1
 1935              	.LBB661:
 1936              	.LBB653:
 1937              	.LBB634:
 1938              	.LBB624:
ARM GAS  C:\Users\IDONNO~1\AppData\Local\Temp\ccY27Fyg.s 			page 35


 1939              	.LBB614:
 1940              		.loc 2 410 0
 1941 00de 0022     		movs	r2, #0
 1942              		.loc 2 404 0
 1943 00e0 D970     		strb	r1, [r3, #3]
 1944              		.loc 2 410 0
 1945 00e2 B273     		strb	r2, [r6, #14]
 1946              	.LVL178:
 1947              	.LBE614:
 1948              	.LBE624:
 1949              	.LBE634:
 1950              	.LBE653:
 1951              	.LBE661:
 1952              		.loc 1 370 0
 1953 00e4 C8F804B0 		str	fp, [r8, #4]
 1954              	.LVL179:
 1955              		.loc 1 378 0
 1956 00e8 05B0     		add	sp, sp, #20
 1957              		.cfi_remember_state
 1958              		.cfi_def_cfa_offset 36
 1959              		@ sp needed
 1960 00ea BDE8F08F 		pop	{r4, r5, r6, r7, r8, r9, r10, fp, pc}
 1961              	.LVL180:
 1962              	.L70:
 1963              		.cfi_restore_state
 1964              	.LBB662:
 1965              	.LBB527:
 1966              	.LBB506:
 1967              	.LBB495:
 1968              	.LBB484:
 1969              		.loc 2 280 0
 1970 00ee FE29     		cmp	r1, #254
 1971 00f0 00F02682 		beq	.L129
 1972 00f4 844B     		ldr	r3, .L133+8
 1973 00f6 DB78     		ldrb	r3, [r3, #3]	@ zero_extendqisi2
 1974 00f8 14E0     		b	.L82
 1975              	.L72:
 1976              		.loc 2 306 0
 1977 00fa 8349     		ldr	r1, .L133+8
 1978              	.LVL181:
 1979              	.LBB411:
 1980              	.LBB412:
 1981              	.LBB413:
 1982              		.loc 5 39 0
 1983 00fc 0888     		ldrh	r0, [r1]
 1984              	.LVL182:
 1985              	.LBE413:
 1986              	.LBE412:
 1987              	.LBE411:
 1988              		.loc 2 306 0
 1989 00fe CC70     		strb	r4, [r1, #3]
 1990              	.LBB418:
 1991              	.LBB416:
 1992              	.LBB414:
 1993              		.loc 5 39 0
 1994 0100 84EA0003 		eor	r3, r4, r0
 1995              		.loc 5 40 0
ARM GAS  C:\Users\IDONNO~1\AppData\Local\Temp\ccY27Fyg.s 			page 36


 1996 0104 83EA0313 		eor	r3, r3, r3, lsl #4
 1997 0108 DBB2     		uxtb	r3, r3
 1998              		.loc 5 41 0
 1999 010a 1A09     		lsrs	r2, r3, #4
 2000 010c 82EA1022 		eor	r2, r2, r0, lsr #8
 2001 0110 42EA0322 		orr	r2, r2, r3, lsl #8
 2002 0114 82EAC302 		eor	r2, r2, r3, lsl #3
 2003              	.LBE414:
 2004              	.LBE416:
 2005              	.LBE418:
 2006              		.loc 2 307 0
 2007 0118 0025     		movs	r5, #0
 2008              		.loc 2 309 0
 2009 011a 0420     		movs	r0, #4
 2010 011c 2346     		mov	r3, r4
 2011              	.LBB419:
 2012              	.LBB417:
 2013              	.LBB415:
 2014              		.loc 5 41 0
 2015 011e 0A80     		strh	r2, [r1]	@ movhi
 2016              	.LBE415:
 2017              	.LBE417:
 2018              	.LBE419:
 2019              		.loc 2 307 0
 2020 0120 3571     		strb	r5, [r6, #4]
 2021              		.loc 2 309 0
 2022 0122 F070     		strb	r0, [r6, #3]
 2023              	.L82:
 2024              	.LVL183:
 2025              		.loc 2 404 0
 2026 0124 7749     		ldr	r1, .L133+4
 2027              		.loc 2 410 0
 2028 0126 0022     		movs	r2, #0
 2029              		.loc 2 404 0
 2030 0128 CB70     		strb	r3, [r1, #3]
 2031              		.loc 2 410 0
 2032 012a B270     		strb	r2, [r6, #2]
 2033              	.LVL184:
 2034              	.L91:
 2035              	.LBE484:
 2036              	.LBE495:
 2037              	.LBE506:
 2038              	.LBE527:
 2039              	.LBE662:
 2040              		.loc 1 349 0
 2041 012c 0020     		movs	r0, #0
 2042              	.LVL185:
 2043              		.loc 1 378 0
 2044 012e 05B0     		add	sp, sp, #20
 2045              		.cfi_remember_state
 2046              		.cfi_def_cfa_offset 36
 2047              		@ sp needed
 2048 0130 BDE8F08F 		pop	{r4, r5, r6, r7, r8, r9, r10, fp, pc}
 2049              	.LVL186:
 2050              	.L73:
 2051              		.cfi_restore_state
 2052              	.LBB663:
ARM GAS  C:\Users\IDONNO~1\AppData\Local\Temp\ccY27Fyg.s 			page 37


 2053              	.LBB528:
 2054              	.LBB507:
 2055              	.LBB496:
 2056              	.LBB485:
 2057              		.loc 2 320 0
 2058 0134 744A     		ldr	r2, .L133+8
 2059              	.LBB420:
 2060              	.LBB421:
 2061              	.LBB422:
 2062              		.loc 5 39 0
 2063 0136 1188     		ldrh	r1, [r2]
 2064              	.LVL187:
 2065              	.LBE422:
 2066              	.LBE421:
 2067              	.LBE420:
 2068              		.loc 2 320 0
 2069 0138 5471     		strb	r4, [r2, #5]
 2070              	.LVL188:
 2071              	.LBB427:
 2072              	.LBB425:
 2073              	.LBB423:
 2074              		.loc 5 39 0
 2075 013a 4C40     		eors	r4, r4, r1
 2076              	.LVL189:
 2077              		.loc 5 40 0
 2078 013c 84EA0414 		eor	r4, r4, r4, lsl #4
 2079              	.LVL190:
 2080 0140 E4B2     		uxtb	r4, r4
 2081              	.LVL191:
 2082              		.loc 5 41 0
 2083 0142 2309     		lsrs	r3, r4, #4
 2084 0144 83EA1123 		eor	r3, r3, r1, lsr #8
 2085 0148 43EA0423 		orr	r3, r3, r4, lsl #8
 2086 014c 83EAC404 		eor	r4, r3, r4, lsl #3
 2087              	.LVL192:
 2088              	.LBE423:
 2089              	.LBE425:
 2090              	.LBE427:
 2091              		.loc 2 322 0
 2092 0150 0521     		movs	r1, #5
 2093              	.LBB428:
 2094              	.LBB426:
 2095              	.LBB424:
 2096              		.loc 5 41 0
 2097 0152 1480     		strh	r4, [r2]	@ movhi
 2098              	.LVL193:
 2099 0154 D378     		ldrb	r3, [r2, #3]	@ zero_extendqisi2
 2100              	.LBE424:
 2101              	.LBE426:
 2102              	.LBE428:
 2103              		.loc 2 322 0
 2104 0156 F170     		strb	r1, [r6, #3]
 2105 0158 E4E7     		b	.L82
 2106              	.LVL194:
 2107              	.L74:
 2108              		.loc 2 314 0
 2109 015a 6B4A     		ldr	r2, .L133+8
ARM GAS  C:\Users\IDONNO~1\AppData\Local\Temp\ccY27Fyg.s 			page 38


 2110              	.LBB429:
 2111              	.LBB430:
 2112              	.LBB431:
 2113              		.loc 5 39 0
 2114 015c 1188     		ldrh	r1, [r2]
 2115              	.LVL195:
 2116              	.LBE431:
 2117              	.LBE430:
 2118              	.LBE429:
 2119              		.loc 2 314 0
 2120 015e 1471     		strb	r4, [r2, #4]
 2121              	.LVL196:
 2122              	.LBB436:
 2123              	.LBB434:
 2124              	.LBB432:
 2125              		.loc 5 39 0
 2126 0160 4C40     		eors	r4, r4, r1
 2127              	.LVL197:
 2128              		.loc 5 40 0
 2129 0162 84EA0414 		eor	r4, r4, r4, lsl #4
 2130              	.LVL198:
 2131 0166 E4B2     		uxtb	r4, r4
 2132              	.LVL199:
 2133              		.loc 5 41 0
 2134 0168 2309     		lsrs	r3, r4, #4
 2135 016a 83EA1123 		eor	r3, r3, r1, lsr #8
 2136 016e 43EA0423 		orr	r3, r3, r4, lsl #8
 2137 0172 83EAC404 		eor	r4, r3, r4, lsl #3
 2138              	.LVL200:
 2139              	.LBE432:
 2140              	.LBE434:
 2141              	.LBE436:
 2142              		.loc 2 316 0
 2143 0176 0321     		movs	r1, #3
 2144              	.LBB437:
 2145              	.LBB435:
 2146              	.LBB433:
 2147              		.loc 5 41 0
 2148 0178 1480     		strh	r4, [r2]	@ movhi
 2149              	.LVL201:
 2150 017a D378     		ldrb	r3, [r2, #3]	@ zero_extendqisi2
 2151              	.LBE433:
 2152              	.LBE435:
 2153              	.LBE437:
 2154              		.loc 2 316 0
 2155 017c F170     		strb	r1, [r6, #3]
 2156 017e D1E7     		b	.L82
 2157              	.LVL202:
 2158              	.L75:
 2159              		.loc 2 326 0
 2160 0180 614A     		ldr	r2, .L133+8
 2161              	.LBB438:
 2162              	.LBB439:
 2163              	.LBB440:
 2164              		.loc 5 39 0
 2165 0182 1188     		ldrh	r1, [r2]
 2166              	.LVL203:
ARM GAS  C:\Users\IDONNO~1\AppData\Local\Temp\ccY27Fyg.s 			page 39


 2167              	.LBE440:
 2168              	.LBE439:
 2169              	.LBE438:
 2170              		.loc 2 326 0
 2171 0184 9471     		strb	r4, [r2, #6]
 2172              	.LVL204:
 2173              	.LBB445:
 2174              	.LBB443:
 2175              	.LBB441:
 2176              		.loc 5 39 0
 2177 0186 4C40     		eors	r4, r4, r1
 2178              	.LVL205:
 2179              		.loc 5 40 0
 2180 0188 84EA0414 		eor	r4, r4, r4, lsl #4
 2181              	.LVL206:
 2182 018c E4B2     		uxtb	r4, r4
 2183              	.LVL207:
 2184              		.loc 5 41 0
 2185 018e 2309     		lsrs	r3, r4, #4
 2186 0190 83EA1123 		eor	r3, r3, r1, lsr #8
 2187 0194 43EA0423 		orr	r3, r3, r4, lsl #8
 2188 0198 83EAC404 		eor	r4, r3, r4, lsl #3
 2189              	.LVL208:
 2190              	.LBE441:
 2191              	.LBE443:
 2192              	.LBE445:
 2193              		.loc 2 328 0
 2194 019c 0621     		movs	r1, #6
 2195              	.LBB446:
 2196              	.LBB444:
 2197              	.LBB442:
 2198              		.loc 5 41 0
 2199 019e 1480     		strh	r4, [r2]	@ movhi
 2200              	.LVL209:
 2201 01a0 D378     		ldrb	r3, [r2, #3]	@ zero_extendqisi2
 2202              	.LBE442:
 2203              	.LBE444:
 2204              	.LBE446:
 2205              		.loc 2 328 0
 2206 01a2 F170     		strb	r1, [r6, #3]
 2207 01a4 BEE7     		b	.L82
 2208              	.LVL210:
 2209              	.L76:
 2210              		.loc 2 340 0
 2211 01a6 5849     		ldr	r1, .L133+8
 2212              	.LVL211:
 2213              	.LBB447:
 2214              	.LBB448:
 2215              	.LBB449:
 2216              		.loc 5 39 0
 2217 01a8 0888     		ldrh	r0, [r1]
 2218              	.LVL212:
 2219              	.LBE449:
 2220              	.LBE448:
 2221              	.LBE447:
 2222              		.loc 2 340 0
 2223 01aa CC71     		strb	r4, [r1, #7]
ARM GAS  C:\Users\IDONNO~1\AppData\Local\Temp\ccY27Fyg.s 			page 40


 2224              	.LVL213:
 2225              	.LBB454:
 2226              	.LBB452:
 2227              	.LBB450:
 2228              		.loc 5 39 0
 2229 01ac 4440     		eors	r4, r4, r0
 2230              	.LVL214:
 2231              		.loc 5 40 0
 2232 01ae 84EA0414 		eor	r4, r4, r4, lsl #4
 2233              	.LVL215:
 2234 01b2 E4B2     		uxtb	r4, r4
 2235              	.LVL216:
 2236              		.loc 5 41 0
 2237 01b4 2209     		lsrs	r2, r4, #4
 2238 01b6 82EA1022 		eor	r2, r2, r0, lsr #8
 2239 01ba 42EA0422 		orr	r2, r2, r4, lsl #8
 2240              	.LBE450:
 2241              	.LBE452:
 2242              	.LBE454:
 2243              		.loc 2 342 0
 2244 01be CB78     		ldrb	r3, [r1, #3]	@ zero_extendqisi2
 2245              	.LBB455:
 2246              	.LBB453:
 2247              	.LBB451:
 2248              		.loc 5 41 0
 2249 01c0 82EAC404 		eor	r4, r2, r4, lsl #3
 2250              	.LVL217:
 2251 01c4 0C80     		strh	r4, [r1]	@ movhi
 2252              	.LVL218:
 2253              	.LBE451:
 2254              	.LBE453:
 2255              	.LBE455:
 2256              		.loc 2 342 0
 2257 01c6 002B     		cmp	r3, #0
 2258 01c8 40F0A781 		bne	.L83
 2259              		.loc 2 344 0
 2260 01cc 0822     		movs	r2, #8
 2261 01ce F270     		strb	r2, [r6, #3]
 2262 01d0 A8E7     		b	.L82
 2263              	.LVL219:
 2264              	.L77:
 2265              		.loc 2 353 0
 2266 01d2 4D48     		ldr	r0, .L133+8
 2267              	.LVL220:
 2268 01d4 3279     		ldrb	r2, [r6, #4]	@ zero_extendqisi2
 2269 01d6 4A4D     		ldr	r5, .L133
 2270 01d8 8318     		adds	r3, r0, r2
 2271 01da 0132     		adds	r2, r2, #1
 2272 01dc 1972     		strb	r1, [r3, #8]
 2273              	.LVL221:
 2274              	.LBB456:
 2275              	.LBB457:
 2276              	.LBB458:
 2277              		.loc 5 39 0
 2278 01de 0788     		ldrh	r7, [r0]
 2279              	.LBE458:
 2280              	.LBE457:
ARM GAS  C:\Users\IDONNO~1\AppData\Local\Temp\ccY27Fyg.s 			page 41


 2281              	.LBE456:
 2282              		.loc 2 355 0
 2283 01e0 C378     		ldrb	r3, [r0, #3]	@ zero_extendqisi2
 2284              	.LBB465:
 2285              	.LBB462:
 2286              	.LBB459:
 2287              		.loc 5 39 0
 2288 01e2 7C40     		eors	r4, r4, r7
 2289              	.LVL222:
 2290              		.loc 5 40 0
 2291 01e4 84EA0414 		eor	r4, r4, r4, lsl #4
 2292              	.LVL223:
 2293 01e8 E4B2     		uxtb	r4, r4
 2294              	.LVL224:
 2295              		.loc 5 41 0
 2296 01ea 2109     		lsrs	r1, r4, #4
 2297              	.LVL225:
 2298 01ec 81EA1721 		eor	r1, r1, r7, lsr #8
 2299              	.LBE459:
 2300              	.LBE462:
 2301              	.LBE465:
 2302              		.loc 2 353 0
 2303 01f0 D2B2     		uxtb	r2, r2
 2304              	.LVL226:
 2305              	.LBB466:
 2306              	.LBB463:
 2307              	.LBB460:
 2308              		.loc 5 41 0
 2309 01f2 41EA0421 		orr	r1, r1, r4, lsl #8
 2310 01f6 81EAC404 		eor	r4, r1, r4, lsl #3
 2311              	.LVL227:
 2312              	.LBE460:
 2313              	.LBE463:
 2314              	.LBE466:
 2315              		.loc 2 355 0
 2316 01fa 9A42     		cmp	r2, r3
 2317              		.loc 2 353 0
 2318 01fc 3271     		strb	r2, [r6, #4]
 2319              	.LBB467:
 2320              	.LBB464:
 2321              	.LBB461:
 2322              		.loc 5 41 0
 2323 01fe 0480     		strh	r4, [r0]	@ movhi
 2324              	.LVL228:
 2325              	.LBE461:
 2326              	.LBE464:
 2327              	.LBE467:
 2328              		.loc 2 355 0
 2329 0200 90D1     		bne	.L82
 2330              		.loc 2 357 0
 2331 0202 0822     		movs	r2, #8
 2332 0204 EA70     		strb	r2, [r5, #3]
 2333 0206 8DE7     		b	.L82
 2334              	.LVL229:
 2335              	.L78:
 2336              	.LBB468:
 2337              	.LBB469:
ARM GAS  C:\Users\IDONNO~1\AppData\Local\Temp\ccY27Fyg.s 			page 42


 2338              	.LBB470:
 2339              		.loc 5 39 0
 2340 0208 DFF8FC90 		ldr	r9, .L133+8
 2341              	.LBE470:
 2342              	.LBE469:
 2343              	.LBE468:
 2344              		.loc 2 363 0
 2345 020c 3F4A     		ldr	r2, .L133+12
 2346 020e 99F80730 		ldrb	r3, [r9, #7]	@ zero_extendqisi2
 2347              	.LBB475:
 2348              	.LBB473:
 2349              	.LBB471:
 2350              		.loc 5 39 0
 2351 0212 B9F80010 		ldrh	r1, [r9]
 2352              	.LVL230:
 2353 0216 D35C     		ldrb	r3, [r2, r3]	@ zero_extendqisi2
 2354 0218 4B40     		eors	r3, r3, r1
 2355              	.LVL231:
 2356              		.loc 5 40 0
 2357 021a 83EA0313 		eor	r3, r3, r3, lsl #4
 2358              	.LVL232:
 2359 021e DBB2     		uxtb	r3, r3
 2360              	.LVL233:
 2361              		.loc 5 41 0
 2362 0220 1A09     		lsrs	r2, r3, #4
 2363 0222 82EA1122 		eor	r2, r2, r1, lsr #8
 2364 0226 42EA0322 		orr	r2, r2, r3, lsl #8
 2365 022a 82EAC303 		eor	r3, r2, r3, lsl #3
 2366              	.LVL234:
 2367              	.LBE471:
 2368              	.LBE473:
 2369              	.LBE475:
 2370              		.loc 2 365 0
 2371 022e DAB2     		uxtb	r2, r3
 2372 0230 9442     		cmp	r4, r2
 2373              	.LBB476:
 2374              	.LBB474:
 2375              	.LBB472:
 2376              		.loc 5 41 0
 2377 0232 A9F80030 		strh	r3, [r9]	@ movhi
 2378              	.LVL235:
 2379              	.LBE472:
 2380              	.LBE474:
 2381              	.LBE476:
 2382              		.loc 2 366 0
 2383 0236 14BF     		ite	ne
 2384 0238 0A23     		movne	r3, #10
 2385              		.loc 2 368 0
 2386 023a 0923     		moveq	r3, #9
 2387 023c F370     		strb	r3, [r6, #3]
 2388              		.loc 2 370 0
 2389 023e 3379     		ldrb	r3, [r6, #4]	@ zero_extendqisi2
 2390 0240 4B44     		add	r3, r3, r9
 2391 0242 1C72     		strb	r4, [r3, #8]
 2392 0244 99F80330 		ldrb	r3, [r9, #3]	@ zero_extendqisi2
 2393 0248 6CE7     		b	.L82
 2394              	.LVL236:
ARM GAS  C:\Users\IDONNO~1\AppData\Local\Temp\ccY27Fyg.s 			page 43


 2395              	.L79:
 2396              		.loc 2 375 0
 2397 024a 0A2B     		cmp	r3, #10
 2398 024c DFF8B890 		ldr	r9, .L133+8
 2399 0250 05D0     		beq	.L86
 2400 0252 B9F80030 		ldrh	r3, [r9]
 2401 0256 B1EB132F 		cmp	r1, r3, lsr #8
 2402 025a 00F07B81 		beq	.L87
 2403              	.L86:
 2404              		.loc 2 377 0
 2405 025e 0223     		movs	r3, #2
 2406 0260 3370     		strb	r3, [r6]
 2407 0262 9B46     		mov	fp, r3
 2408              	.L88:
 2409              		.loc 2 383 0
 2410 0264 3579     		ldrb	r5, [r6, #4]	@ zero_extendqisi2
 2411 0266 DFF8A0A0 		ldr	r10, .L133+8
 2412              		.loc 2 384 0
 2413 026a 2648     		ldr	r0, .L133+4
 2414              	.LVL237:
 2415              		.loc 2 382 0
 2416 026c 244F     		ldr	r7, .L133
 2417              		.loc 2 383 0
 2418 026e 09EB0502 		add	r2, r9, r5
 2419              		.loc 2 382 0
 2420 0272 0123     		movs	r3, #1
 2421              		.loc 2 383 0
 2422 0274 5472     		strb	r4, [r2, #9]
 2423              		.loc 2 384 0
 2424 0276 5146     		mov	r1, r10
 2425              	.LVL238:
 2426 0278 4FF48872 		mov	r2, #272
 2427              		.loc 2 382 0
 2428 027c F370     		strb	r3, [r6, #3]
 2429              		.loc 2 384 0
 2430 027e FFF7FEFF 		bl	memcpy
 2431              	.LVL239:
 2432              		.loc 2 390 0
 2433 0282 BBF1010F 		cmp	fp, #1
 2434 0286 40F07081 		bne	.L130
 2435              		.loc 2 399 0
 2436 028a 3B89     		ldrh	r3, [r7, #8]
 2437              		.loc 2 397 0
 2438 028c 9AF80420 		ldrb	r2, [r10, #4]	@ zero_extendqisi2
 2439 0290 7A71     		strb	r2, [r7, #5]
 2440              		.loc 2 399 0
 2441 0292 03B9     		cbnz	r3, .L92
 2442 0294 7B81     		strh	r3, [r7, #10]	@ movhi
 2443              	.L92:
 2444              		.loc 2 404 0
 2445 0296 1B4A     		ldr	r2, .L133+4
 2446 0298 99F80310 		ldrb	r1, [r9, #3]	@ zero_extendqisi2
 2447 029c D170     		strb	r1, [r2, #3]
 2448              		.loc 2 401 0
 2449 029e 0133     		adds	r3, r3, #1
 2450              		.loc 2 410 0
 2451 02a0 0021     		movs	r1, #0
ARM GAS  C:\Users\IDONNO~1\AppData\Local\Temp\ccY27Fyg.s 			page 44


 2452              	.LBE485:
 2453              	.LBE496:
 2454              	.LBE507:
 2455              	.LBE528:
 2456              	.LBE663:
 2457              		.loc 1 363 0
 2458 02a2 0120     		movs	r0, #1
 2459              	.LBB664:
 2460              	.LBB529:
 2461              	.LBB508:
 2462              	.LBB497:
 2463              	.LBB486:
 2464              		.loc 2 401 0
 2465 02a4 3381     		strh	r3, [r6, #8]	@ movhi
 2466              		.loc 2 410 0
 2467 02a6 B170     		strb	r1, [r6, #2]
 2468              	.LVL240:
 2469              	.LBE486:
 2470              	.LBE497:
 2471              	.LBE508:
 2472              	.LBE529:
 2473              	.LBE664:
 2474              		.loc 1 362 0
 2475 02a8 C8F80420 		str	r2, [r8, #4]
 2476              	.LVL241:
 2477              		.loc 1 378 0
 2478 02ac 05B0     		add	sp, sp, #20
 2479              		.cfi_remember_state
 2480              		.cfi_def_cfa_offset 36
 2481              		@ sp needed
 2482 02ae BDE8F08F 		pop	{r4, r5, r6, r7, r8, r9, r10, fp, pc}
 2483              	.LVL242:
 2484              	.L96:
 2485              		.cfi_restore_state
 2486              	.LBB665:
 2487              	.LBB654:
 2488              	.LBB635:
 2489              	.LBB625:
 2490              	.LBB615:
 2491              		.loc 2 280 0
 2492 02b2 FE2C     		cmp	r4, #254
 2493              		.loc 2 283 0
 2494 02b4 144A     		ldr	r2, .L133+8
 2495              		.loc 2 280 0
 2496 02b6 00F03681 		beq	.L131
 2497 02ba 92F81341 		ldrb	r4, [r2, #275]	@ zero_extendqisi2
 2498              	.LVL243:
 2499 02be 17E0     		b	.L108
 2500              	.LVL244:
 2501              	.L98:
 2502              		.loc 2 306 0
 2503 02c0 DFF844E0 		ldr	lr, .L133+8
 2504              	.LBB540:
 2505              	.LBB541:
 2506              	.LBB542:
 2507              		.loc 5 39 0
 2508 02c4 BEF81001 		ldrh	r0, [lr, #272]
ARM GAS  C:\Users\IDONNO~1\AppData\Local\Temp\ccY27Fyg.s 			page 45


 2509              	.LBE542:
 2510              	.LBE541:
 2511              	.LBE540:
 2512              		.loc 2 306 0
 2513 02c8 8EF81341 		strb	r4, [lr, #275]
 2514              	.LBB547:
 2515              	.LBB545:
 2516              	.LBB543:
 2517              		.loc 5 39 0
 2518 02cc 84EA0002 		eor	r2, r4, r0
 2519              		.loc 5 40 0
 2520 02d0 82EA0212 		eor	r2, r2, r2, lsl #4
 2521 02d4 D2B2     		uxtb	r2, r2
 2522              		.loc 5 41 0
 2523 02d6 1109     		lsrs	r1, r2, #4
 2524 02d8 81EA1021 		eor	r1, r1, r0, lsr #8
 2525 02dc 41EA0221 		orr	r1, r1, r2, lsl #8
 2526 02e0 81EAC202 		eor	r2, r1, r2, lsl #3
 2527              	.LBE543:
 2528              	.LBE545:
 2529              	.LBE547:
 2530              		.loc 2 307 0
 2531 02e4 0020     		movs	r0, #0
 2532              		.loc 2 309 0
 2533 02e6 0421     		movs	r1, #4
 2534              	.LBB548:
 2535              	.LBB546:
 2536              	.LBB544:
 2537              		.loc 5 41 0
 2538 02e8 AEF81021 		strh	r2, [lr, #272]	@ movhi
 2539              	.LBE544:
 2540              	.LBE546:
 2541              	.LBE548:
 2542              		.loc 2 307 0
 2543 02ec 3074     		strb	r0, [r6, #16]
 2544              		.loc 2 309 0
 2545 02ee F173     		strb	r1, [r6, #15]
 2546              	.LVL245:
 2547              	.L108:
 2548              		.loc 2 404 0
 2549 02f0 3D44     		add	r5, r5, r7
 2550 02f2 03EB0515 		add	r5, r3, r5, lsl #4
 2551              		.loc 2 410 0
 2552 02f6 0023     		movs	r3, #0
 2553              		.loc 2 404 0
 2554 02f8 EC70     		strb	r4, [r5, #3]
 2555              		.loc 2 410 0
 2556 02fa B373     		strb	r3, [r6, #14]
 2557 02fc 16E7     		b	.L91
 2558              	.L134:
 2559 02fe 00BF     		.align	2
 2560              	.L133:
 2561 0300 00000000 		.word	.LANCHOR0
 2562 0304 00000000 		.word	.LANCHOR6
 2563 0308 00000000 		.word	.LANCHOR4
 2564 030c 00000000 		.word	.LANCHOR5
 2565              	.LVL246:
ARM GAS  C:\Users\IDONNO~1\AppData\Local\Temp\ccY27Fyg.s 			page 46


 2566              	.L99:
 2567              		.loc 2 320 0
 2568 0310 9849     		ldr	r1, .L135
 2569              	.LBB549:
 2570              	.LBB550:
 2571              	.LBB551:
 2572              		.loc 5 39 0
 2573 0312 B1F81001 		ldrh	r0, [r1, #272]
 2574              	.LBE551:
 2575              	.LBE550:
 2576              	.LBE549:
 2577              		.loc 2 320 0
 2578 0316 81F81541 		strb	r4, [r1, #277]
 2579              	.LVL247:
 2580              	.LBB556:
 2581              	.LBB554:
 2582              	.LBB552:
 2583              		.loc 5 39 0
 2584 031a 4440     		eors	r4, r4, r0
 2585              	.LVL248:
 2586              		.loc 5 40 0
 2587 031c 84EA0414 		eor	r4, r4, r4, lsl #4
 2588              	.LVL249:
 2589 0320 E4B2     		uxtb	r4, r4
 2590              	.LVL250:
 2591              		.loc 5 41 0
 2592 0322 2209     		lsrs	r2, r4, #4
 2593 0324 82EA1022 		eor	r2, r2, r0, lsr #8
 2594 0328 42EA0422 		orr	r2, r2, r4, lsl #8
 2595 032c 82EAC404 		eor	r4, r2, r4, lsl #3
 2596              	.LVL251:
 2597              	.LBE552:
 2598              	.LBE554:
 2599              	.LBE556:
 2600              		.loc 2 322 0
 2601 0330 0522     		movs	r2, #5
 2602              	.LBB557:
 2603              	.LBB555:
 2604              	.LBB553:
 2605              		.loc 5 41 0
 2606 0332 A1F81041 		strh	r4, [r1, #272]	@ movhi
 2607              	.LVL252:
 2608              	.LBE553:
 2609              	.LBE555:
 2610              	.LBE557:
 2611              		.loc 2 322 0
 2612 0336 F273     		strb	r2, [r6, #15]
 2613 0338 91F81341 		ldrb	r4, [r1, #275]	@ zero_extendqisi2
 2614 033c D8E7     		b	.L108
 2615              	.LVL253:
 2616              	.L100:
 2617              		.loc 2 314 0
 2618 033e 8D49     		ldr	r1, .L135
 2619              	.LBB558:
 2620              	.LBB559:
 2621              	.LBB560:
 2622              		.loc 5 39 0
ARM GAS  C:\Users\IDONNO~1\AppData\Local\Temp\ccY27Fyg.s 			page 47


 2623 0340 B1F81001 		ldrh	r0, [r1, #272]
 2624              	.LBE560:
 2625              	.LBE559:
 2626              	.LBE558:
 2627              		.loc 2 314 0
 2628 0344 81F81441 		strb	r4, [r1, #276]
 2629              	.LVL254:
 2630              	.LBB565:
 2631              	.LBB563:
 2632              	.LBB561:
 2633              		.loc 5 39 0
 2634 0348 4440     		eors	r4, r4, r0
 2635              	.LVL255:
 2636              		.loc 5 40 0
 2637 034a 84EA0414 		eor	r4, r4, r4, lsl #4
 2638              	.LVL256:
 2639 034e E4B2     		uxtb	r4, r4
 2640              	.LVL257:
 2641              		.loc 5 41 0
 2642 0350 2209     		lsrs	r2, r4, #4
 2643 0352 82EA1022 		eor	r2, r2, r0, lsr #8
 2644 0356 42EA0422 		orr	r2, r2, r4, lsl #8
 2645 035a 82EAC404 		eor	r4, r2, r4, lsl #3
 2646              	.LVL258:
 2647              	.LBE561:
 2648              	.LBE563:
 2649              	.LBE565:
 2650              		.loc 2 316 0
 2651 035e 0322     		movs	r2, #3
 2652              	.LBB566:
 2653              	.LBB564:
 2654              	.LBB562:
 2655              		.loc 5 41 0
 2656 0360 A1F81041 		strh	r4, [r1, #272]	@ movhi
 2657              	.LVL259:
 2658              	.LBE562:
 2659              	.LBE564:
 2660              	.LBE566:
 2661              		.loc 2 316 0
 2662 0364 F273     		strb	r2, [r6, #15]
 2663 0366 91F81341 		ldrb	r4, [r1, #275]	@ zero_extendqisi2
 2664 036a C1E7     		b	.L108
 2665              	.LVL260:
 2666              	.L101:
 2667              		.loc 2 326 0
 2668 036c 8149     		ldr	r1, .L135
 2669              	.LBB567:
 2670              	.LBB568:
 2671              	.LBB569:
 2672              		.loc 5 39 0
 2673 036e B1F81001 		ldrh	r0, [r1, #272]
 2674              	.LBE569:
 2675              	.LBE568:
 2676              	.LBE567:
 2677              		.loc 2 326 0
 2678 0372 81F81641 		strb	r4, [r1, #278]
 2679              	.LVL261:
ARM GAS  C:\Users\IDONNO~1\AppData\Local\Temp\ccY27Fyg.s 			page 48


 2680              	.LBB574:
 2681              	.LBB572:
 2682              	.LBB570:
 2683              		.loc 5 39 0
 2684 0376 4440     		eors	r4, r4, r0
 2685              	.LVL262:
 2686              		.loc 5 40 0
 2687 0378 84EA0414 		eor	r4, r4, r4, lsl #4
 2688              	.LVL263:
 2689 037c E4B2     		uxtb	r4, r4
 2690              	.LVL264:
 2691              		.loc 5 41 0
 2692 037e 2209     		lsrs	r2, r4, #4
 2693 0380 82EA1022 		eor	r2, r2, r0, lsr #8
 2694 0384 42EA0422 		orr	r2, r2, r4, lsl #8
 2695 0388 82EAC404 		eor	r4, r2, r4, lsl #3
 2696              	.LVL265:
 2697              	.LBE570:
 2698              	.LBE572:
 2699              	.LBE574:
 2700              		.loc 2 328 0
 2701 038c 0622     		movs	r2, #6
 2702              	.LBB575:
 2703              	.LBB573:
 2704              	.LBB571:
 2705              		.loc 5 41 0
 2706 038e A1F81041 		strh	r4, [r1, #272]	@ movhi
 2707              	.LVL266:
 2708              	.LBE571:
 2709              	.LBE573:
 2710              	.LBE575:
 2711              		.loc 2 328 0
 2712 0392 F273     		strb	r2, [r6, #15]
 2713 0394 91F81341 		ldrb	r4, [r1, #275]	@ zero_extendqisi2
 2714 0398 AAE7     		b	.L108
 2715              	.LVL267:
 2716              	.L102:
 2717              		.loc 2 340 0
 2718 039a 7648     		ldr	r0, .L135
 2719              	.LBB576:
 2720              	.LBB577:
 2721              	.LBB578:
 2722              		.loc 5 39 0
 2723 039c B0F810E1 		ldrh	lr, [r0, #272]
 2724              	.LBE578:
 2725              	.LBE577:
 2726              	.LBE576:
 2727              		.loc 2 340 0
 2728 03a0 80F81741 		strb	r4, [r0, #279]
 2729              	.LVL268:
 2730              	.LBB583:
 2731              	.LBB581:
 2732              	.LBB579:
 2733              		.loc 5 39 0
 2734 03a4 84EA0E02 		eor	r2, r4, lr
 2735              	.LVL269:
 2736              		.loc 5 40 0
ARM GAS  C:\Users\IDONNO~1\AppData\Local\Temp\ccY27Fyg.s 			page 49


 2737 03a8 82EA0212 		eor	r2, r2, r2, lsl #4
 2738              	.LVL270:
 2739 03ac D2B2     		uxtb	r2, r2
 2740              	.LVL271:
 2741              		.loc 5 41 0
 2742 03ae 1109     		lsrs	r1, r2, #4
 2743 03b0 81EA1E21 		eor	r1, r1, lr, lsr #8
 2744 03b4 41EA0221 		orr	r1, r1, r2, lsl #8
 2745              	.LBE579:
 2746              	.LBE581:
 2747              	.LBE583:
 2748              		.loc 2 342 0
 2749 03b8 90F81341 		ldrb	r4, [r0, #275]	@ zero_extendqisi2
 2750              	.LVL272:
 2751              	.LBB584:
 2752              	.LBB582:
 2753              	.LBB580:
 2754              		.loc 5 41 0
 2755 03bc 81EAC202 		eor	r2, r1, r2, lsl #3
 2756              	.LVL273:
 2757 03c0 A0F81021 		strh	r2, [r0, #272]	@ movhi
 2758              	.LVL274:
 2759              	.LBE580:
 2760              	.LBE582:
 2761              	.LBE584:
 2762              		.loc 2 342 0
 2763 03c4 002C     		cmp	r4, #0
 2764 03c6 40F0AB80 		bne	.L109
 2765              		.loc 2 344 0
 2766 03ca 0822     		movs	r2, #8
 2767 03cc F273     		strb	r2, [r6, #15]
 2768 03ce 8FE7     		b	.L108
 2769              	.LVL275:
 2770              	.L103:
 2771              		.loc 2 353 0
 2772 03d0 6848     		ldr	r0, .L135
 2773 03d2 96F810C0 		ldrb	ip, [r6, #16]	@ zero_extendqisi2
 2774 03d6 DFF8A4E1 		ldr	lr, .L135+8
 2775 03da 00EB0C02 		add	r2, r0, ip
 2776 03de 0CF1010C 		add	ip, ip, #1
 2777 03e2 82F81841 		strb	r4, [r2, #280]
 2778              	.LVL276:
 2779              	.LBB585:
 2780              	.LBB586:
 2781              	.LBB587:
 2782              		.loc 5 39 0
 2783 03e6 B0F81081 		ldrh	r8, [r0, #272]
 2784              	.LVL277:
 2785 03ea 84EA0802 		eor	r2, r4, r8
 2786              	.LVL278:
 2787              		.loc 5 40 0
 2788 03ee 82EA0212 		eor	r2, r2, r2, lsl #4
 2789              	.LVL279:
 2790 03f2 D2B2     		uxtb	r2, r2
 2791              	.LVL280:
 2792              		.loc 5 41 0
 2793 03f4 1109     		lsrs	r1, r2, #4
ARM GAS  C:\Users\IDONNO~1\AppData\Local\Temp\ccY27Fyg.s 			page 50


 2794 03f6 81EA1821 		eor	r1, r1, r8, lsr #8
 2795              	.LBE587:
 2796              	.LBE586:
 2797              	.LBE585:
 2798              		.loc 2 355 0
 2799 03fa 90F81341 		ldrb	r4, [r0, #275]	@ zero_extendqisi2
 2800              	.LVL281:
 2801              		.loc 2 353 0
 2802 03fe 5FFA8CFC 		uxtb	ip, ip
 2803              	.LVL282:
 2804              	.LBB592:
 2805              	.LBB590:
 2806              	.LBB588:
 2807              		.loc 5 41 0
 2808 0402 41EA0221 		orr	r1, r1, r2, lsl #8
 2809 0406 81EAC202 		eor	r2, r1, r2, lsl #3
 2810              	.LVL283:
 2811              	.LBE588:
 2812              	.LBE590:
 2813              	.LBE592:
 2814              		.loc 2 355 0
 2815 040a A445     		cmp	ip, r4
 2816              		.loc 2 353 0
 2817 040c 86F810C0 		strb	ip, [r6, #16]
 2818              	.LBB593:
 2819              	.LBB591:
 2820              	.LBB589:
 2821              		.loc 5 41 0
 2822 0410 A0F81021 		strh	r2, [r0, #272]	@ movhi
 2823              	.LVL284:
 2824              	.LBE589:
 2825              	.LBE591:
 2826              	.LBE593:
 2827              		.loc 2 355 0
 2828 0414 7FF46CAF 		bne	.L108
 2829              		.loc 2 357 0
 2830 0418 0822     		movs	r2, #8
 2831 041a 8EF80F20 		strb	r2, [lr, #15]
 2832 041e 67E7     		b	.L108
 2833              	.LVL285:
 2834              	.L104:
 2835              	.LBB594:
 2836              	.LBB595:
 2837              	.LBB596:
 2838              		.loc 5 39 0
 2839 0420 DFF85091 		ldr	r9, .L135
 2840              	.LBE596:
 2841              	.LBE595:
 2842              	.LBE594:
 2843              		.loc 2 363 0
 2844 0424 5449     		ldr	r1, .L135+4
 2845 0426 99F81721 		ldrb	r2, [r9, #279]	@ zero_extendqisi2
 2846              	.LBB601:
 2847              	.LBB599:
 2848              	.LBB597:
 2849              		.loc 5 39 0
 2850 042a B9F81001 		ldrh	r0, [r9, #272]
ARM GAS  C:\Users\IDONNO~1\AppData\Local\Temp\ccY27Fyg.s 			page 51


 2851 042e 8A5C     		ldrb	r2, [r1, r2]	@ zero_extendqisi2
 2852 0430 4240     		eors	r2, r2, r0
 2853              	.LVL286:
 2854              		.loc 5 40 0
 2855 0432 82EA0212 		eor	r2, r2, r2, lsl #4
 2856              	.LVL287:
 2857 0436 D2B2     		uxtb	r2, r2
 2858              	.LVL288:
 2859              		.loc 5 41 0
 2860 0438 1109     		lsrs	r1, r2, #4
 2861 043a 81EA1021 		eor	r1, r1, r0, lsr #8
 2862 043e 41EA0221 		orr	r1, r1, r2, lsl #8
 2863 0442 81EAC202 		eor	r2, r1, r2, lsl #3
 2864              	.LVL289:
 2865              	.LBE597:
 2866              	.LBE599:
 2867              	.LBE601:
 2868              		.loc 2 365 0
 2869 0446 D1B2     		uxtb	r1, r2
 2870 0448 8C42     		cmp	r4, r1
 2871              	.LBB602:
 2872              	.LBB600:
 2873              	.LBB598:
 2874              		.loc 5 41 0
 2875 044a A9F81021 		strh	r2, [r9, #272]	@ movhi
 2876              	.LVL290:
 2877              	.LBE598:
 2878              	.LBE600:
 2879              	.LBE602:
 2880              		.loc 2 366 0
 2881 044e 14BF     		ite	ne
 2882 0450 0A22     		movne	r2, #10
 2883              		.loc 2 368 0
 2884 0452 0922     		moveq	r2, #9
 2885 0454 F273     		strb	r2, [r6, #15]
 2886              		.loc 2 370 0
 2887 0456 327C     		ldrb	r2, [r6, #16]	@ zero_extendqisi2
 2888 0458 4A44     		add	r2, r2, r9
 2889 045a 82F81841 		strb	r4, [r2, #280]
 2890 045e 99F81341 		ldrb	r4, [r9, #275]	@ zero_extendqisi2
 2891              	.LVL291:
 2892 0462 45E7     		b	.L108
 2893              	.LVL292:
 2894              	.L69:
 2895 0464 3579     		ldrb	r5, [r6, #4]	@ zero_extendqisi2
 2896              	.LVL293:
 2897 0466 DFF80C91 		ldr	r9, .L135
 2898              	.LBE615:
 2899              	.LBE625:
 2900              	.LBE635:
 2901              	.LBE654:
 2902              	.LBE665:
 2903              	.LBB666:
 2904              	.LBB530:
 2905              	.LBB509:
 2906              	.LBB498:
 2907              	.LBB487:
ARM GAS  C:\Users\IDONNO~1\AppData\Local\Temp\ccY27Fyg.s 			page 52


 2908              		.loc 2 276 0
 2909 046a 4FF0000C 		mov	ip, #0
 2910              	.LVL294:
 2911              	.L80:
 2912              		.loc 2 404 0
 2913 046e DFF810E1 		ldr	lr, .L135+12
 2914 0472 99F80330 		ldrb	r3, [r9, #3]	@ zero_extendqisi2
 2915 0476 8EF80330 		strb	r3, [lr, #3]
 2916              		.loc 2 410 0
 2917 047a 0027     		movs	r7, #0
 2918 047c B770     		strb	r7, [r6, #2]
 2919 047e 3D48     		ldr	r0, .L135
 2920 0480 3E4A     		ldr	r2, .L135+8
 2921              		.loc 2 412 0
 2922 0482 BCF1000F 		cmp	ip, #0
 2923 0486 3FF451AE 		beq	.L91
 2924              		.loc 2 420 0
 2925 048a 4319     		adds	r3, r0, r5
 2926              	.LBE487:
 2927              	.LBE498:
 2928              	.LBE509:
 2929              	.LBB510:
 2930              		.loc 2 527 0
 2931 048c FE2C     		cmp	r4, #254
 2932              	.LBE510:
 2933              	.LBB517:
 2934              	.LBB499:
 2935              	.LBB488:
 2936              		.loc 2 420 0
 2937 048e 597A     		ldrb	r1, [r3, #9]	@ zero_extendqisi2
 2938 0490 1B7A     		ldrb	r3, [r3, #8]	@ zero_extendqisi2
 2939              	.LBE488:
 2940              	.LBE499:
 2941              	.LBE517:
 2942              	.LBB518:
 2943              		.loc 2 525 0
 2944 0492 1770     		strb	r7, [r2]
 2945              	.LBE518:
 2946              	.LBB519:
 2947              	.LBB500:
 2948              	.LBB489:
 2949              		.loc 2 420 0
 2950 0494 43EA0123 		orr	r3, r3, r1, lsl #8
 2951              	.LBE489:
 2952              	.LBE500:
 2953              	.LBE519:
 2954              	.LBB520:
 2955              		.loc 2 524 0
 2956 0498 4FF00101 		mov	r1, #1
 2957              	.LBE520:
 2958              	.LBB521:
 2959              	.LBB501:
 2960              	.LBB490:
 2961              		.loc 2 420 0
 2962 049c AEF80030 		strh	r3, [lr]	@ movhi
 2963              	.LVL295:
 2964              	.LBE490:
ARM GAS  C:\Users\IDONNO~1\AppData\Local\Temp\ccY27Fyg.s 			page 53


 2965              	.LBE501:
 2966              	.LBE521:
 2967              	.LBB522:
 2968              		.loc 2 524 0
 2969 04a0 9170     		strb	r1, [r2, #2]
 2970              		.loc 2 527 0
 2971 04a2 01D0     		beq	.L132
 2972              		.loc 2 526 0
 2973 04a4 D170     		strb	r1, [r2, #3]
 2974 04a6 41E6     		b	.L91
 2975              	.L132:
 2976              	.LBB511:
 2977              	.LBB512:
 2978              	.LBB513:
 2979              		.loc 5 53 0
 2980 04a8 4FF6FF73 		movw	r3, #65535
 2981              	.LBE513:
 2982              	.LBE512:
 2983              	.LBE511:
 2984              		.loc 2 529 0
 2985 04ac 82F803C0 		strb	ip, [r2, #3]
 2986              		.loc 2 530 0
 2987 04b0 C770     		strb	r7, [r0, #3]
 2988              	.LVL296:
 2989              	.LBB516:
 2990              	.LBB515:
 2991              	.LBB514:
 2992              		.loc 5 53 0
 2993 04b2 0380     		strh	r3, [r0]	@ movhi
 2994              	.LVL297:
 2995 04b4 3AE6     		b	.L91
 2996              	.LVL298:
 2997              	.L95:
 2998 04b6 327C     		ldrb	r2, [r6, #16]	@ zero_extendqisi2
 2999 04b8 DFF8B890 		ldr	r9, .L135
 3000 04bc 0192     		str	r2, [sp, #4]
 3001              	.LVL299:
 3002              	.LBE514:
 3003              	.LBE515:
 3004              	.LBE516:
 3005              	.LBE522:
 3006              	.LBE530:
 3007              	.LBE666:
 3008              	.LBB667:
 3009              	.LBB655:
 3010              	.LBB636:
 3011              	.LBB626:
 3012              	.LBB616:
 3013              		.loc 2 276 0
 3014 04be 0021     		movs	r1, #0
 3015              	.L106:
 3016              		.loc 2 404 0
 3017 04c0 4FF48872 		mov	r2, #272
 3018 04c4 02FB0533 		mla	r3, r2, r5, r3
 3019              		.loc 2 410 0
 3020 04c8 4FF0000E 		mov	lr, #0
 3021              		.loc 2 404 0
ARM GAS  C:\Users\IDONNO~1\AppData\Local\Temp\ccY27Fyg.s 			page 54


 3022 04cc 99F81321 		ldrb	r2, [r9, #275]	@ zero_extendqisi2
 3023 04d0 DA70     		strb	r2, [r3, #3]
 3024              		.loc 2 410 0
 3025 04d2 86F80EE0 		strb	lr, [r6, #14]
 3026 04d6 2748     		ldr	r0, .L135
 3027              		.loc 2 404 0
 3028 04d8 294E     		ldr	r6, .L135+12
 3029              		.loc 2 410 0
 3030 04da 284A     		ldr	r2, .L135+8
 3031              		.loc 2 412 0
 3032 04dc 0029     		cmp	r1, #0
 3033 04de 3FF425AE 		beq	.L91
 3034              		.loc 2 420 0
 3035 04e2 019B     		ldr	r3, [sp, #4]
 3036              	.LBE616:
 3037              	.LBE626:
 3038              	.LBE636:
 3039              	.LBB637:
 3040              		.loc 2 525 0
 3041 04e4 82F80CE0 		strb	lr, [r2, #12]
 3042              	.LBE637:
 3043              	.LBB644:
 3044              	.LBB627:
 3045              	.LBB617:
 3046              		.loc 2 420 0
 3047 04e8 0344     		add	r3, r3, r0
 3048 04ea 3D44     		add	r5, r5, r7
 3049 04ec 93F81971 		ldrb	r7, [r3, #281]	@ zero_extendqisi2
 3050 04f0 93F81831 		ldrb	r3, [r3, #280]	@ zero_extendqisi2
 3051 04f4 2D01     		lsls	r5, r5, #4
 3052 04f6 43EA0723 		orr	r3, r3, r7, lsl #8
 3053              	.LBE617:
 3054              	.LBE627:
 3055              	.LBE644:
 3056              	.LBB645:
 3057              		.loc 2 527 0
 3058 04fa FE2C     		cmp	r4, #254
 3059              		.loc 2 524 0
 3060 04fc 4FF00107 		mov	r7, #1
 3061              	.LBE645:
 3062              	.LBB646:
 3063              	.LBB628:
 3064              	.LBB618:
 3065              		.loc 2 420 0
 3066 0500 7353     		strh	r3, [r6, r5]	@ movhi
 3067              	.LVL300:
 3068              	.LBE618:
 3069              	.LBE628:
 3070              	.LBE646:
 3071              	.LBB647:
 3072              		.loc 2 524 0
 3073 0502 9773     		strb	r7, [r2, #14]
 3074              		.loc 2 527 0
 3075 0504 01D0     		beq	.L118
 3076              		.loc 2 526 0
 3077 0506 D773     		strb	r7, [r2, #15]
 3078 0508 10E6     		b	.L91
ARM GAS  C:\Users\IDONNO~1\AppData\Local\Temp\ccY27Fyg.s 			page 55


 3079              	.L118:
 3080              	.LBB638:
 3081              	.LBB639:
 3082              	.LBB640:
 3083              		.loc 5 53 0
 3084 050a 4FF6FF73 		movw	r3, #65535
 3085              	.LBE640:
 3086              	.LBE639:
 3087              	.LBE638:
 3088              		.loc 2 529 0
 3089 050e D173     		strb	r1, [r2, #15]
 3090              		.loc 2 530 0
 3091 0510 80F813E1 		strb	lr, [r0, #275]
 3092              	.LVL301:
 3093              	.LBB643:
 3094              	.LBB642:
 3095              	.LBB641:
 3096              		.loc 5 53 0
 3097 0514 A0F81031 		strh	r3, [r0, #272]	@ movhi
 3098              	.LVL302:
 3099 0518 08E6     		b	.L91
 3100              	.LVL303:
 3101              	.L83:
 3102              	.LBE641:
 3103              	.LBE642:
 3104              	.LBE643:
 3105              	.LBE647:
 3106              	.LBE655:
 3107              	.LBE667:
 3108              	.LBB668:
 3109              	.LBB531:
 3110              	.LBB523:
 3111              	.LBB502:
 3112              	.LBB491:
 3113              		.loc 2 348 0
 3114 051a 0722     		movs	r2, #7
 3115 051c F270     		strb	r2, [r6, #3]
 3116 051e 01E6     		b	.L82
 3117              	.LVL304:
 3118              	.L109:
 3119              	.LBE491:
 3120              	.LBE502:
 3121              	.LBE523:
 3122              	.LBE531:
 3123              	.LBE668:
 3124              	.LBB669:
 3125              	.LBB656:
 3126              	.LBB648:
 3127              	.LBB629:
 3128              	.LBB619:
 3129 0520 0722     		movs	r2, #7
 3130 0522 F273     		strb	r2, [r6, #15]
 3131 0524 E4E6     		b	.L108
 3132              	.LVL305:
 3133              	.L131:
 3134              		.loc 2 283 0
 3135 0526 0021     		movs	r1, #0
ARM GAS  C:\Users\IDONNO~1\AppData\Local\Temp\ccY27Fyg.s 			page 56


 3136              	.LBB603:
 3137              	.LBB604:
 3138              	.LBB605:
 3139              		.loc 5 53 0
 3140 0528 4FF6FF7E 		movw	lr, #65535
 3141              	.LBE605:
 3142              	.LBE604:
 3143              	.LBE603:
 3144              		.loc 2 282 0
 3145 052c 0220     		movs	r0, #2
 3146              		.loc 2 284 0
 3147 052e 82F81241 		strb	r4, [r2, #274]
 3148              	.LVL306:
 3149              	.LBB610:
 3150              	.LBB608:
 3151              	.LBB606:
 3152              		.loc 5 53 0
 3153 0532 A2F810E1 		strh	lr, [r2, #272]	@ movhi
 3154              	.LVL307:
 3155              	.LBE606:
 3156              	.LBE608:
 3157              	.LBE610:
 3158              		.loc 2 283 0
 3159 0536 82F81311 		strb	r1, [r2, #275]
 3160              	.LBB611:
 3161              	.LBB609:
 3162              	.LBB607:
 3163              		.loc 5 53 0
 3164 053a 0C46     		mov	r4, r1
 3165              	.LVL308:
 3166              	.LBE607:
 3167              	.LBE609:
 3168              	.LBE611:
 3169              		.loc 2 282 0
 3170 053c F073     		strb	r0, [r6, #15]
 3171 053e D7E6     		b	.L108
 3172              	.LVL309:
 3173              	.L129:
 3174              	.LBE619:
 3175              	.LBE629:
 3176              	.LBE648:
 3177              	.LBE656:
 3178              	.LBE669:
 3179              	.LBB670:
 3180              	.LBB532:
 3181              	.LBB524:
 3182              	.LBB503:
 3183              	.LBB492:
 3184              		.loc 2 283 0
 3185 0540 0C4A     		ldr	r2, .L135
 3186              	.LBB477:
 3187              	.LBB478:
 3188              	.LBB479:
 3189              		.loc 5 53 0
 3190 0542 4FF6FF70 		movw	r0, #65535
 3191              	.LVL310:
 3192              	.LBE479:
ARM GAS  C:\Users\IDONNO~1\AppData\Local\Temp\ccY27Fyg.s 			page 57


 3193              	.LBE478:
 3194              	.LBE477:
 3195              		.loc 2 283 0
 3196 0546 0023     		movs	r3, #0
 3197              		.loc 2 282 0
 3198 0548 0221     		movs	r1, #2
 3199              	.LVL311:
 3200              		.loc 2 284 0
 3201 054a 9470     		strb	r4, [r2, #2]
 3202              	.LVL312:
 3203              	.LBB482:
 3204              	.LBB481:
 3205              	.LBB480:
 3206              		.loc 5 53 0
 3207 054c 1080     		strh	r0, [r2]	@ movhi
 3208              	.LVL313:
 3209              	.LBE480:
 3210              	.LBE481:
 3211              	.LBE482:
 3212              		.loc 2 283 0
 3213 054e D370     		strb	r3, [r2, #3]
 3214              		.loc 2 282 0
 3215 0550 F170     		strb	r1, [r6, #3]
 3216 0552 E7E5     		b	.L82
 3217              	.LVL314:
 3218              	.L87:
 3219              		.loc 2 380 0
 3220 0554 0123     		movs	r3, #1
 3221 0556 3370     		strb	r3, [r6]
 3222 0558 9B46     		mov	fp, r3
 3223 055a 83E6     		b	.L88
 3224              	.LVL315:
 3225              	.L113:
 3226              	.LBE492:
 3227              	.LBE503:
 3228              	.LBE524:
 3229              	.LBE532:
 3230              	.LBE670:
 3231              	.LBB671:
 3232              	.LBB657:
 3233              	.LBB649:
 3234              	.LBB630:
 3235              	.LBB620:
 3236 055c 4FF0010A 		mov	r10, #1
 3237 0560 86F80CA0 		strb	r10, [r6, #12]
 3238 0564 CDF80CA0 		str	r10, [sp, #12]
 3239 0568 8DE5     		b	.L114
 3240              	.LVL316:
 3241              	.L130:
 3242              	.LBE620:
 3243              	.LBE630:
 3244              	.LBE649:
 3245              	.LBE657:
 3246              	.LBE671:
 3247              	.LBB672:
 3248              	.LBB533:
 3249              	.LBB525:
ARM GAS  C:\Users\IDONNO~1\AppData\Local\Temp\ccY27Fyg.s 			page 58


 3250              	.LBB504:
 3251              	.LBB493:
 3252              		.loc 2 390 0
 3253 056a 4FF0020C 		mov	ip, #2
 3254 056e 7EE7     		b	.L80
 3255              	.LVL317:
 3256              	.L128:
 3257              	.LBE493:
 3258              	.LBE504:
 3259              	.LBE525:
 3260              	.LBE533:
 3261              	.LBE672:
 3262              	.LBB673:
 3263              	.LBB658:
 3264              	.LBB650:
 3265              	.LBB631:
 3266              	.LBB621:
 3267 0570 0221     		movs	r1, #2
 3268 0572 A5E7     		b	.L106
 3269              	.L136:
 3270              		.align	2
 3271              	.L135:
 3272 0574 00000000 		.word	.LANCHOR4
 3273 0578 00000000 		.word	.LANCHOR5
 3274 057c 00000000 		.word	.LANCHOR0
 3275 0580 00000000 		.word	.LANCHOR6
 3276              	.LBE621:
 3277              	.LBE631:
 3278              	.LBE650:
 3279              	.LBE658:
 3280              	.LBE673:
 3281              		.cfi_endproc
 3282              	.LFE418:
 3283              		.size	mavlink_msg_recv, .-mavlink_msg_recv
 3284              		.section	.text.mavlink_msg_process_vcp,"ax",%progbits
 3285              		.align	2
 3286              		.p2align 4,,15
 3287              		.global	mavlink_msg_process_vcp
 3288              		.thumb
 3289              		.thumb_func
 3290              		.type	mavlink_msg_process_vcp, %function
 3291              	mavlink_msg_process_vcp:
 3292              	.LFB419:
 3293              		.loc 1 383 0
 3294              		.cfi_startproc
 3295              		@ args = 0, pretend = 0, frame = 0
 3296              		@ frame_needed = 0, uses_anonymous_args = 0
 3297              		@ link register save eliminated.
 3298              	.LVL318:
 3299              		.loc 1 386 0
 3300 0000 4368     		ldr	r3, [r0, #4]
 3301 0002 DB79     		ldrb	r3, [r3, #7]	@ zero_extendqisi2
 3302 0004 142B     		cmp	r3, #20
 3303              		.loc 1 383 0
 3304 0006 0246     		mov	r2, r0
 3305              		.loc 1 386 0
 3306 0008 1CD0     		beq	.L139
ARM GAS  C:\Users\IDONNO~1\AppData\Local\Temp\ccY27Fyg.s 			page 59


 3307 000a 09D9     		bls	.L149
 3308 000c 7A2B     		cmp	r3, #122
 3309 000e 13D0     		beq	.L144
 3310 0010 DC2B     		cmp	r3, #220
 3311 0012 0DD0     		beq	.L145
 3312 0014 792B     		cmp	r3, #121
 3313 0016 11D0     		beq	.L150
 3314              	.L138:
 3315              		.loc 1 400 0
 3316 0018 1046     		mov	r0, r2
 3317              	.LVL319:
 3318 001a 0121     		movs	r1, #1
 3319 001c FFF7FEBF 		b	cmd_send_error
 3320              	.LVL320:
 3321              	.L149:
 3322              		.loc 1 386 0
 3323 0020 0C2B     		cmp	r3, #12
 3324 0022 0DD0     		beq	.L141
 3325 0024 0D2B     		cmp	r3, #13
 3326 0026 05D0     		beq	.L142
 3327 0028 0B2B     		cmp	r3, #11
 3328 002a F5D1     		bne	.L138
 3329              		.loc 1 388 0
 3330 002c FFF7FEBF 		b	cmd_read_version
 3331              	.LVL321:
 3332              	.L145:
 3333              		.loc 1 396 0
 3334 0030 FFF7FEBF 		b	cmd_set_velocity
 3335              	.LVL322:
 3336              	.L142:
 3337              		.loc 1 390 0
 3338 0034 FFF7FEBF 		b	cmd_read_tag
 3339              	.LVL323:
 3340              	.L144:
 3341              		.loc 1 395 0
 3342 0038 FFF7FEBF 		b	cmd_set_appconf
 3343              	.LVL324:
 3344              	.L150:
 3345              		.loc 1 394 0
 3346 003c FFF7FEBF 		b	cmd_set_mcconf
 3347              	.LVL325:
 3348              	.L141:
 3349              		.loc 1 389 0
 3350 0040 FFF7FEBF 		b	cmd_read_board_name
 3351              	.LVL326:
 3352              	.L139:
 3353              		.loc 1 392 0
 3354 0044 FFF7FEBF 		b	cmd_write_eeprom
 3355              	.LVL327:
 3356              		.cfi_endproc
 3357              	.LFE419:
 3358              		.size	mavlink_msg_process_vcp, .-mavlink_msg_process_vcp
 3359              		.global	gMsg
 3360              		.global	boot_revision
 3361              		.global	boot_version
 3362              		.global	board_name
 3363              		.section	.bss.m_mavlink_status.10569,"aw",%nobits
ARM GAS  C:\Users\IDONNO~1\AppData\Local\Temp\ccY27Fyg.s 			page 60


 3364              		.align	2
 3365              		.set	.LANCHOR0,. + 0
 3366              		.type	m_mavlink_status.10569, %object
 3367              		.size	m_mavlink_status.10569, 48
 3368              	m_mavlink_status.10569:
 3369 0000 00000000 		.space	48
 3369      00000000 
 3369      00000000 
 3369      00000000 
 3369      00000000 
 3370              		.section	.bss.gMsg,"aw",%nobits
 3371              		.align	2
 3372              		.type	gMsg, %object
 3373              		.size	gMsg, 8
 3374              	gMsg:
 3375 0000 00000000 		.space	8
 3375      00000000 
 3376              		.section	.rodata.str1.4,"aMS",%progbits,1
 3377              		.align	2
 3378              	.LC0:
 3379 0000 4D61764C 		.ascii	"MavLink ready...\015\012\000"
 3379      696E6B20 
 3379      72656164 
 3379      792E2E2E 
 3379      0D0A00
 3380 0013 00       		.space	1
 3381              	.LC1:
 3382 0014 50726F6A 		.ascii	"Project : OROCA BLDC\000"
 3382      65637420 
 3382      3A204F52 
 3382      4F434120 
 3382      424C4443 
 3383 0029 000000   		.space	3
 3384              	.LC2:
 3385 002c 48572076 		.ascii	"HW ver : STM32F405_VESC_R180208\000"
 3385      6572203A 
 3385      2053544D 
 3385      33324634 
 3385      30355F56 
 3386              	.LC3:
 3387 004c 46572076 		.ascii	"FW ver : dev...\000"
 3387      6572203A 
 3387      20646576 
 3387      2E2E2E00 
 3388              	.LC4:
 3389 005c 62792042 		.ascii	"by BakChaJang\000"
 3389      616B4368 
 3389      614A616E 
 3389      6700
 3390 006a 0000     		.space	2
 3391              	.LC5:
 3392 006c 64617465 		.ascii	"date : 2018/06/21\015\012\000"
 3392      203A2032 
 3392      3031382F 
 3392      30362F32 
 3392      310D0A00 
 3393              	.LC6:
ARM GAS  C:\Users\IDONNO~1\AppData\Local\Temp\ccY27Fyg.s 			page 61


 3394 0080 424C4443 		.ascii	"BLDC R10\000"
 3394      20523130 
 3394      00
 3395              		.section	.rodata.mavlink_message_crcs.10621,"a",%progbits
 3396              		.align	2
 3397              		.set	.LANCHOR5,. + 0
 3398              		.type	mavlink_message_crcs.10621, %object
 3399              		.size	mavlink_message_crcs.10621, 256
 3400              	mavlink_message_crcs.10621:
 3401 0000 32       		.byte	50
 3402 0001 C0       		.byte	-64
 3403 0002 00       		.byte	0
 3404 0003 00       		.byte	0
 3405 0004 00       		.byte	0
 3406 0005 00       		.byte	0
 3407 0006 00       		.byte	0
 3408 0007 00       		.byte	0
 3409 0008 00       		.byte	0
 3410 0009 00       		.byte	0
 3411 000a 00       		.byte	0
 3412 000b A6       		.byte	-90
 3413 000c 8C       		.byte	-116
 3414 000d 7E       		.byte	126
 3415 000e 00       		.byte	0
 3416 000f 00       		.byte	0
 3417 0010 00       		.byte	0
 3418 0011 00       		.byte	0
 3419 0012 00       		.byte	0
 3420 0013 00       		.byte	0
 3421 0014 EB       		.byte	-21
 3422 0015 00       		.byte	0
 3423 0016 00       		.byte	0
 3424 0017 00       		.byte	0
 3425 0018 00       		.byte	0
 3426 0019 00       		.byte	0
 3427 001a 00       		.byte	0
 3428 001b 00       		.byte	0
 3429 001c 00       		.byte	0
 3430 001d 00       		.byte	0
 3431 001e 00       		.byte	0
 3432 001f 00       		.byte	0
 3433 0020 00       		.byte	0
 3434 0021 00       		.byte	0
 3435 0022 00       		.byte	0
 3436 0023 00       		.byte	0
 3437 0024 00       		.byte	0
 3438 0025 00       		.byte	0
 3439 0026 00       		.byte	0
 3440 0027 00       		.byte	0
 3441 0028 00       		.byte	0
 3442 0029 00       		.byte	0
 3443 002a 00       		.byte	0
 3444 002b 00       		.byte	0
 3445 002c 00       		.byte	0
 3446 002d 00       		.byte	0
 3447 002e 00       		.byte	0
 3448 002f 00       		.byte	0
ARM GAS  C:\Users\IDONNO~1\AppData\Local\Temp\ccY27Fyg.s 			page 62


 3449 0030 00       		.byte	0
 3450 0031 00       		.byte	0
 3451 0032 00       		.byte	0
 3452 0033 00       		.byte	0
 3453 0034 00       		.byte	0
 3454 0035 00       		.byte	0
 3455 0036 00       		.byte	0
 3456 0037 00       		.byte	0
 3457 0038 00       		.byte	0
 3458 0039 00       		.byte	0
 3459 003a 00       		.byte	0
 3460 003b 00       		.byte	0
 3461 003c 00       		.byte	0
 3462 003d 00       		.byte	0
 3463 003e 00       		.byte	0
 3464 003f 00       		.byte	0
 3465 0040 00       		.byte	0
 3466 0041 00       		.byte	0
 3467 0042 00       		.byte	0
 3468 0043 00       		.byte	0
 3469 0044 00       		.byte	0
 3470 0045 00       		.byte	0
 3471 0046 00       		.byte	0
 3472 0047 00       		.byte	0
 3473 0048 00       		.byte	0
 3474 0049 00       		.byte	0
 3475 004a 00       		.byte	0
 3476 004b 00       		.byte	0
 3477 004c 00       		.byte	0
 3478 004d 00       		.byte	0
 3479 004e 00       		.byte	0
 3480 004f 00       		.byte	0
 3481 0050 00       		.byte	0
 3482 0051 00       		.byte	0
 3483 0052 00       		.byte	0
 3484 0053 00       		.byte	0
 3485 0054 00       		.byte	0
 3486 0055 00       		.byte	0
 3487 0056 00       		.byte	0
 3488 0057 00       		.byte	0
 3489 0058 00       		.byte	0
 3490 0059 00       		.byte	0
 3491 005a 00       		.byte	0
 3492 005b 00       		.byte	0
 3493 005c 00       		.byte	0
 3494 005d 00       		.byte	0
 3495 005e 00       		.byte	0
 3496 005f 00       		.byte	0
 3497 0060 00       		.byte	0
 3498 0061 00       		.byte	0
 3499 0062 00       		.byte	0
 3500 0063 00       		.byte	0
 3501 0064 00       		.byte	0
 3502 0065 00       		.byte	0
 3503 0066 00       		.byte	0
 3504 0067 00       		.byte	0
 3505 0068 00       		.byte	0
ARM GAS  C:\Users\IDONNO~1\AppData\Local\Temp\ccY27Fyg.s 			page 63


 3506 0069 00       		.byte	0
 3507 006a 00       		.byte	0
 3508 006b 00       		.byte	0
 3509 006c 00       		.byte	0
 3510 006d 00       		.byte	0
 3511 006e 00       		.byte	0
 3512 006f 00       		.byte	0
 3513 0070 00       		.byte	0
 3514 0071 00       		.byte	0
 3515 0072 00       		.byte	0
 3516 0073 00       		.byte	0
 3517 0074 00       		.byte	0
 3518 0075 00       		.byte	0
 3519 0076 00       		.byte	0
 3520 0077 00       		.byte	0
 3521 0078 00       		.byte	0
 3522 0079 6B       		.byte	107
 3523 007a 21       		.byte	33
 3524 007b 00       		.byte	0
 3525 007c 00       		.byte	0
 3526 007d 00       		.byte	0
 3527 007e 00       		.byte	0
 3528 007f 00       		.byte	0
 3529 0080 00       		.byte	0
 3530 0081 00       		.byte	0
 3531 0082 00       		.byte	0
 3532 0083 00       		.byte	0
 3533 0084 00       		.byte	0
 3534 0085 00       		.byte	0
 3535 0086 00       		.byte	0
 3536 0087 00       		.byte	0
 3537 0088 00       		.byte	0
 3538 0089 00       		.byte	0
 3539 008a 00       		.byte	0
 3540 008b 00       		.byte	0
 3541 008c 00       		.byte	0
 3542 008d 00       		.byte	0
 3543 008e 00       		.byte	0
 3544 008f 00       		.byte	0
 3545 0090 00       		.byte	0
 3546 0091 00       		.byte	0
 3547 0092 00       		.byte	0
 3548 0093 00       		.byte	0
 3549 0094 00       		.byte	0
 3550 0095 00       		.byte	0
 3551 0096 00       		.byte	0
 3552 0097 00       		.byte	0
 3553 0098 00       		.byte	0
 3554 0099 00       		.byte	0
 3555 009a 00       		.byte	0
 3556 009b 00       		.byte	0
 3557 009c 00       		.byte	0
 3558 009d 00       		.byte	0
 3559 009e 00       		.byte	0
 3560 009f 00       		.byte	0
 3561 00a0 00       		.byte	0
 3562 00a1 00       		.byte	0
ARM GAS  C:\Users\IDONNO~1\AppData\Local\Temp\ccY27Fyg.s 			page 64


 3563 00a2 00       		.byte	0
 3564 00a3 00       		.byte	0
 3565 00a4 00       		.byte	0
 3566 00a5 00       		.byte	0
 3567 00a6 00       		.byte	0
 3568 00a7 00       		.byte	0
 3569 00a8 00       		.byte	0
 3570 00a9 00       		.byte	0
 3571 00aa 00       		.byte	0
 3572 00ab 00       		.byte	0
 3573 00ac 00       		.byte	0
 3574 00ad 00       		.byte	0
 3575 00ae 00       		.byte	0
 3576 00af 00       		.byte	0
 3577 00b0 00       		.byte	0
 3578 00b1 00       		.byte	0
 3579 00b2 00       		.byte	0
 3580 00b3 00       		.byte	0
 3581 00b4 00       		.byte	0
 3582 00b5 00       		.byte	0
 3583 00b6 00       		.byte	0
 3584 00b7 00       		.byte	0
 3585 00b8 00       		.byte	0
 3586 00b9 00       		.byte	0
 3587 00ba 00       		.byte	0
 3588 00bb 00       		.byte	0
 3589 00bc 00       		.byte	0
 3590 00bd 00       		.byte	0
 3591 00be 00       		.byte	0
 3592 00bf 00       		.byte	0
 3593 00c0 00       		.byte	0
 3594 00c1 00       		.byte	0
 3595 00c2 00       		.byte	0
 3596 00c3 00       		.byte	0
 3597 00c4 00       		.byte	0
 3598 00c5 00       		.byte	0
 3599 00c6 00       		.byte	0
 3600 00c7 00       		.byte	0
 3601 00c8 00       		.byte	0
 3602 00c9 00       		.byte	0
 3603 00ca 00       		.byte	0
 3604 00cb 00       		.byte	0
 3605 00cc 00       		.byte	0
 3606 00cd 00       		.byte	0
 3607 00ce 00       		.byte	0
 3608 00cf 00       		.byte	0
 3609 00d0 00       		.byte	0
 3610 00d1 00       		.byte	0
 3611 00d2 00       		.byte	0
 3612 00d3 00       		.byte	0
 3613 00d4 00       		.byte	0
 3614 00d5 00       		.byte	0
 3615 00d6 00       		.byte	0
 3616 00d7 00       		.byte	0
 3617 00d8 00       		.byte	0
 3618 00d9 00       		.byte	0
 3619 00da 00       		.byte	0
ARM GAS  C:\Users\IDONNO~1\AppData\Local\Temp\ccY27Fyg.s 			page 65


 3620 00db 00       		.byte	0
 3621 00dc F9       		.byte	-7
 3622 00dd 54       		.byte	84
 3623 00de 15       		.byte	21
 3624 00df 00       		.byte	0
 3625 00e0 00       		.byte	0
 3626 00e1 00       		.byte	0
 3627 00e2 00       		.byte	0
 3628 00e3 00       		.byte	0
 3629 00e4 00       		.byte	0
 3630 00e5 00       		.byte	0
 3631 00e6 00       		.byte	0
 3632 00e7 00       		.byte	0
 3633 00e8 00       		.byte	0
 3634 00e9 00       		.byte	0
 3635 00ea 00       		.byte	0
 3636 00eb 00       		.byte	0
 3637 00ec 00       		.byte	0
 3638 00ed 00       		.byte	0
 3639 00ee 00       		.byte	0
 3640 00ef 00       		.byte	0
 3641 00f0 00       		.byte	0
 3642 00f1 00       		.byte	0
 3643 00f2 00       		.byte	0
 3644 00f3 00       		.byte	0
 3645 00f4 00       		.byte	0
 3646 00f5 00       		.byte	0
 3647 00f6 00       		.byte	0
 3648 00f7 00       		.byte	0
 3649 00f8 00       		.byte	0
 3650 00f9 00       		.byte	0
 3651 00fa 00       		.byte	0
 3652 00fb 00       		.byte	0
 3653 00fc 00       		.byte	0
 3654 00fd 00       		.byte	0
 3655 00fe 00       		.byte	0
 3656 00ff 00       		.byte	0
 3657              		.section	.data.board_name,"aw",%progbits
 3658              		.align	2
 3659              		.set	.LANCHOR3,. + 0
 3660              		.type	board_name, %object
 3661              		.size	board_name, 4
 3662              	board_name:
 3663 0000 80000000 		.word	.LC6
 3664              		.section	.bss.msg.11562,"aw",%nobits
 3665              		.align	2
 3666              		.set	.LANCHOR6,. + 0
 3667              		.type	msg.11562, %object
 3668              		.size	msg.11562, 272
 3669              	msg.11562:
 3670 0000 00000000 		.space	272
 3670      00000000 
 3670      00000000 
 3670      00000000 
 3670      00000000 
 3671              		.section	.data.boot_version,"aw",%progbits
 3672              		.align	2
ARM GAS  C:\Users\IDONNO~1\AppData\Local\Temp\ccY27Fyg.s 			page 66


 3673              		.set	.LANCHOR1,. + 0
 3674              		.type	boot_version, %object
 3675              		.size	boot_version, 4
 3676              	boot_version:
 3677 0000 00080217 		.word	386009088
 3678              		.section	.bss.m_mavlink_buffer.10573,"aw",%nobits
 3679              		.align	2
 3680              		.set	.LANCHOR4,. + 0
 3681              		.type	m_mavlink_buffer.10573, %object
 3682              		.size	m_mavlink_buffer.10573, 1088
 3683              	m_mavlink_buffer.10573:
 3684 0000 00000000 		.space	1088
 3684      00000000 
 3684      00000000 
 3684      00000000 
 3684      00000000 
 3685              		.section	.bss.boot_revision,"aw",%nobits
 3686              		.align	2
 3687              		.set	.LANCHOR2,. + 0
 3688              		.type	boot_revision, %object
 3689              		.size	boot_revision, 4
 3690              	boot_revision:
 3691 0000 00000000 		.space	4
 3692              		.text
 3693              	.Letext0:
 3694              		.file 12 "c:\\program files (x86)\\gnu tools arm embedded\\5.4 2016q3\\lib\\gcc\\arm-none-eabi\\5.
 3695              		.file 13 "c:\\program files (x86)\\gnu tools arm embedded\\5.4 2016q3\\arm-none-eabi\\include\\mac
 3696              		.file 14 "c:\\program files (x86)\\gnu tools arm embedded\\5.4 2016q3\\arm-none-eabi\\include\\sys
 3697              		.file 15 "src/ChibiOS_3.0.2/os/rt/ports/ARMCMx/compilers/GCC/chtypes.h"
 3698              		.file 16 "src/ChibiOS_3.0.2/os/rt/include/chsystypes.h"
 3699              		.file 17 "src/ChibiOS_3.0.2/os/rt/include/chschd.h"
 3700              		.file 18 "src/ChibiOS_3.0.2/os/rt/ports/ARMCMx/chcore.h"
 3701              		.file 19 "src/ChibiOS_3.0.2/os/rt/ports/ARMCMx/chcore_v7m.h"
 3702              		.file 20 "src/ChibiOS_3.0.2/os/rt/include/chtm.h"
 3703              		.file 21 "src/ChibiOS_3.0.2/os/rt/include/chsem.h"
 3704              		.file 22 "src/ChibiOS_3.0.2/os/rt/include/chmtx.h"
 3705              		.file 23 "src/mc/mc_typedef.h"
 3706              		.file 24 "src/core/../mavlink/oroca_bldc/../mavlink_types.h"
 3707              		.file 25 "src/core/../mavlink/oroca_bldc/./mavlink_msg_read_version.h"
 3708              		.file 26 "src/core/mavlink_proc.h"
 3709              		.file 27 "src/ChibiOS_3.0.2/os/ext/CMSIS/include/core_cm4.h"
 3710              		.file 28 "src/core/comm_usb.h"
 3711              		.file 29 "c:\\program files (x86)\\gnu tools arm embedded\\5.4 2016q3\\arm-none-eabi\\include\\str
 3712              		.file 30 "src/mc/mc_interface.h"
 3713              		.file 31 "src/conf_general.h"
 3714              		.file 32 "src/ChibiOS_3.0.2/os/rt/include/chthreads.h"