ARM GAS  C:\Users\IDONNO~1\AppData\Local\Temp\ccY27Fyg.s 			page 1


   1              		.syntax unified
   2              		.cpu cortex-m4
   3              		.eabi_attribute 27, 1
   4              		.eabi_attribute 28, 1
   5              		.fpu fpv4-sp-d16
   6              		.eabi_attribute 20, 1
   7              		.eabi_attribute 21, 1
   8              		.eabi_attribute 23, 3
   9              		.eabi_attribute 24, 1
  10              		.eabi_attribute 25, 1
  11              		.eabi_attribute 26, 1
  12              		.eabi_attribute 30, 2
  13              		.eabi_attribute 34, 1
  14              		.eabi_attribute 18, 4
  15              		.thumb
  16              		.syntax unified
  17              		.file	"mavlink_proc.c"
  18              		.text
  19              	.Ltext0:
  20              		.cfi_sections	.debug_frame
  21              		.section	.text.mavlink_msg_send,"ax",%progbits
  22              		.align	2
  23              		.p2align 4,,15
  24              		.global	mavlink_msg_send
  25              		.thumb
  26              		.thumb_func
  27              		.type	mavlink_msg_send, %function
  28              	mavlink_msg_send:
  29              	.LFB417:
  30              		.file 1 "src/core/mavlink_proc.c"
  31              		.loc 1 329 0
  32              		.cfi_startproc
  33              		@ args = 0, pretend = 0, frame = 1024
  34              		@ frame_needed = 0, uses_anonymous_args = 0
  35              	.LVL0:
  36 0000 F0B5     		push	{r4, r5, r6, r7, lr}
  37              		.cfi_def_cfa_offset 20
  38              		.cfi_offset 4, -20
  39              		.cfi_offset 5, -16
  40              		.cfi_offset 6, -12
  41              		.cfi_offset 7, -8
  42              		.cfi_offset 14, -4
  43              	.LBB116:
  44              	.LBB117:
  45              		.file 2 "src/core/../mavlink/oroca_bldc/../mavlink_helpers.h"
  46              		.loc 2 178 0
  47 0002 CE78     		ldrb	r6, [r1, #3]	@ zero_extendqisi2
  48              	.LBE117:
  49              	.LBE116:
  50              		.loc 1 329 0
  51 0004 ADF2044D 		subw	sp, sp, #1028
  52              		.cfi_def_cfa_offset 1048
  53              	.LVL1:
  54              	.LBB121:
  55              	.LBB118:
  56              		.loc 2 178 0
  57 0008 B41D     		adds	r4, r6, #6
ARM GAS  C:\Users\IDONNO~1\AppData\Local\Temp\ccY27Fyg.s 			page 2


  58              	.LBE118:
  59              	.LBE121:
  60              		.loc 1 329 0
  61 000a 0D46     		mov	r5, r1
  62              	.LVL2:
  63              	.LBB122:
  64              	.LBB119:
  65              		.loc 2 178 0
  66 000c 2246     		mov	r2, r4
  67              	.LBE119:
  68              	.LBE122:
  69              		.loc 1 329 0
  70 000e 0746     		mov	r7, r0
  71              	.LBB123:
  72              	.LBB120:
  73              		.loc 2 178 0
  74 0010 0231     		adds	r1, r1, #2
  75              	.LVL3:
  76 0012 6846     		mov	r0, sp
  77              	.LVL4:
  78 0014 FFF7FEFF 		bl	memcpy
  79              	.LVL5:
  80              		.loc 2 182 0
  81 0018 2B88     		ldrh	r3, [r5]	@ unaligned
  82 001a 0DF80430 		strb	r3, [sp, r4]
  83              		.loc 2 180 0
  84 001e 6C44     		add	r4, r4, sp
  85              	.LVL6:
  86              		.loc 2 183 0
  87 0020 1B0A     		lsrs	r3, r3, #8
  88 0022 6370     		strb	r3, [r4, #1]
  89              	.LVL7:
  90              	.LBE120:
  91              	.LBE123:
  92              		.loc 1 336 0
  93 0024 27B9     		cbnz	r7, .L1
  94              		.loc 1 338 0
  95 0026 06F10801 		add	r1, r6, #8
  96 002a 6846     		mov	r0, sp
  97 002c FFF7FEFF 		bl	usb_serial_send
  98              	.LVL8:
  99              	.L1:
 100              		.loc 1 344 0
 101 0030 0DF2044D 		addw	sp, sp, #1028
 102              		.cfi_def_cfa_offset 20
 103              		@ sp needed
 104 0034 F0BD     		pop	{r4, r5, r6, r7, pc}
 105              		.cfi_endproc
 106              	.LFE417:
 107              		.size	mavlink_msg_send, .-mavlink_msg_send
 108 0036 00BF     		.section	.text.resp_ack,"ax",%progbits
 109              		.align	2
 110              		.p2align 4,,15
 111              		.global	resp_ack
 112              		.thumb
 113              		.thumb_func
 114              		.type	resp_ack, %function
ARM GAS  C:\Users\IDONNO~1\AppData\Local\Temp\ccY27Fyg.s 			page 3


 115              	resp_ack:
 116              	.LFB407:
 117              		.loc 1 61 0
 118              		.cfi_startproc
 119              		@ args = 0, pretend = 0, frame = 296
 120              		@ frame_needed = 0, uses_anonymous_args = 0
 121              	.LVL9:
 122 0000 F0B5     		push	{r4, r5, r6, r7, lr}
 123              		.cfi_def_cfa_offset 20
 124              		.cfi_offset 4, -20
 125              		.cfi_offset 5, -16
 126              		.cfi_offset 6, -12
 127              		.cfi_offset 7, -8
 128              		.cfi_offset 14, -4
 129              	.LBB145:
 130              	.LBB146:
 131              	.LBB147:
 132              	.LBB148:
 133              		.file 3 "src/core/../mavlink/oroca_bldc/../protocol.h"
 134              		.loc 3 181 0
 135 0002 0B46     		mov	r3, r1
 136              	.LBE148:
 137              	.LBE147:
 138              	.LBE146:
 139              	.LBE145:
 140              		.loc 1 61 0
 141 0004 0446     		mov	r4, r0
 142              	.LBB193:
 143              	.LBB187:
 144              	.LBB153:
 145              	.LBB149:
 146              		.loc 3 181 0
 147 0006 53F8040F 		ldr	r0, [r3, #4]!	@ unaligned
 148              	.LVL10:
 149              	.LBE149:
 150              	.LBE153:
 151              	.LBE187:
 152              	.LBE193:
 153              		.loc 1 64 0
 154 000a 0F78     		ldrb	r7, [r1]	@ zero_extendqisi2
 155              	.LBB194:
 156              	.LBB188:
 157              	.LBB154:
 158              	.LBB150:
 159              		.loc 3 181 0
 160 000c 9A68     		ldr	r2, [r3, #8]	@ unaligned
 161              	.LBE150:
 162              	.LBE154:
 163              	.LBE188:
 164              	.LBE194:
 165              		.loc 1 61 0
 166 000e CBB0     		sub	sp, sp, #300
 167              		.cfi_def_cfa_offset 320
 168              		.loc 1 61 0
 169 0010 0E46     		mov	r6, r1
 170              	.LBB195:
 171              	.LBB189:
ARM GAS  C:\Users\IDONNO~1\AppData\Local\Temp\ccY27Fyg.s 			page 4


 172              	.LBB155:
 173              	.LBB151:
 174              		.loc 3 181 0
 175 0012 5968     		ldr	r1, [r3, #4]	@ unaligned
 176              	.LVL11:
 177 0014 DB68     		ldr	r3, [r3, #12]	@ unaligned
 178              	.LBE151:
 179              	.LBE155:
 180              	.LBE189:
 181              	.LBE195:
 182              		.loc 1 64 0
 183 0016 96F801E0 		ldrb	lr, [r6, #1]	@ zero_extendqisi2
 184              	.LBB196:
 185              	.LBB190:
 186              	.LBB156:
 187              	.LBB152:
 188              		.loc 3 181 0
 189 001a 02AD     		add	r5, sp, #8
 190 001c 0FC5     		stmia	r5!, {r0, r1, r2, r3}
 191              	.LBE152:
 192              	.LBE156:
 193              	.LBE190:
 194              	.LBE196:
 195              		.loc 1 64 0
 196 001e 47EA0E27 		orr	r7, r7, lr, lsl #8
 197 0022 B278     		ldrb	r2, [r6, #2]	@ zero_extendqisi2
 198 0024 F378     		ldrb	r3, [r6, #3]	@ zero_extendqisi2
 199              	.LVL12:
 200              	.LBB197:
 201              	.LBB191:
 202              		.file 4 "src/core/../mavlink/oroca_bldc/./mavlink_msg_ack.h"
 203              		.loc 4 107 0
 204 0026 ADF80470 		strh	r7, [sp, #4]	@ movhi
 205              		.loc 4 108 0
 206 002a 8DF80620 		strb	r2, [sp, #6]
 207              		.loc 4 109 0
 208 002e 8DF80730 		strb	r3, [sp, #7]
 209              		.loc 4 111 0
 210 0032 01AD     		add	r5, sp, #4
 211 0034 0FCD     		ldmia	r5!, {r0, r1, r2, r3}
 212              	.LVL13:
 213              	.LBB157:
 214              	.LBB158:
 215              		.loc 2 83 0
 216 0036 324E     		ldr	r6, .L14
 217              	.LVL14:
 218              	.LBE158:
 219              	.LBE157:
 220              		.loc 4 111 0
 221 0038 2F68     		ldr	r7, [r5]
 222 003a 08AD     		add	r5, sp, #32
 223 003c 0FC5     		stmia	r5!, {r0, r1, r2, r3}
 224              	.LBB182:
 225              	.LBB177:
 226              		.loc 2 83 0
 227 003e 04EB4403 		add	r3, r4, r4, lsl #1
 228 0042 06EB8303 		add	r3, r6, r3, lsl #2
ARM GAS  C:\Users\IDONNO~1\AppData\Local\Temp\ccY27Fyg.s 			page 5


 229              	.LBE177:
 230              	.LBE182:
 231              		.loc 4 111 0
 232 0046 2F60     		str	r7, [r5]
 233              	.LBB183:
 234              	.LBB178:
 235              		.loc 2 83 0
 236 0048 9A79     		ldrb	r2, [r3, #6]	@ zero_extendqisi2
 237 004a 8DF81C20 		strb	r2, [sp, #28]
 238              		.loc 2 84 0
 239 004e 551C     		adds	r5, r2, #1
 240              		.loc 2 78 0
 241 0050 FE20     		movs	r0, #254
 242              		.loc 2 80 0
 243 0052 0022     		movs	r2, #0
 244              	.LBE178:
 245              	.LBE183:
 246              		.loc 4 114 0
 247 0054 0126     		movs	r6, #1
 248              	.LBB184:
 249              	.LBB179:
 250              		.loc 2 79 0
 251 0056 1421     		movs	r1, #20
 252              		.loc 2 78 0
 253 0058 8DF81A00 		strb	r0, [sp, #26]
 254              		.loc 2 80 0
 255 005c 8DF81D20 		strb	r2, [sp, #29]
 256              	.LBE179:
 257              	.LBE184:
 258              		.loc 4 114 0
 259 0060 8DF81F60 		strb	r6, [sp, #31]
 260              	.LVL15:
 261              	.LBB185:
 262              	.LBB180:
 263              		.loc 2 79 0
 264 0064 8DF81B10 		strb	r1, [sp, #27]
 265 0068 0DF11B00 		add	r0, sp, #27
 266              		.loc 2 81 0
 267 006c 8DF81E20 		strb	r2, [sp, #30]
 268              		.loc 2 84 0
 269 0070 9D71     		strb	r5, [r3, #6]
 270              	.LVL16:
 271              	.LBB159:
 272              	.LBB160:
 273              	.LBB161:
 274              	.LBB162:
 275              		.file 5 "src/core/../mavlink/oroca_bldc/../checksum.h"
 276              		.loc 5 53 0
 277 0072 4FF6FF72 		movw	r2, #65535
 278 0076 0DF11F05 		add	r5, sp, #31
 279 007a 01E0     		b	.L8
 280              	.LVL17:
 281              	.L13:
 282 007c 10F8011F 		ldrb	r1, [r0, #1]!	@ zero_extendqisi2
 283              	.LVL18:
 284              	.L8:
 285              	.LBE162:
ARM GAS  C:\Users\IDONNO~1\AppData\Local\Temp\ccY27Fyg.s 			page 6


 286              	.LBE161:
 287              	.LBB163:
 288              	.LBB164:
 289              		.loc 5 39 0
 290 0080 5140     		eors	r1, r1, r2
 291              	.LVL19:
 292              		.loc 5 40 0
 293 0082 81EA0111 		eor	r1, r1, r1, lsl #4
 294              	.LVL20:
 295 0086 C9B2     		uxtb	r1, r1
 296              	.LVL21:
 297              		.loc 5 41 0
 298 0088 0B09     		lsrs	r3, r1, #4
 299 008a 83EA1222 		eor	r2, r3, r2, lsr #8
 300              	.LVL22:
 301 008e 42EA0122 		orr	r2, r2, r1, lsl #8
 302              	.LBE164:
 303              	.LBE163:
 304              		.loc 5 68 0
 305 0092 8542     		cmp	r5, r0
 306              	.LBB166:
 307              	.LBB165:
 308              		.loc 5 41 0
 309 0094 82EAC102 		eor	r2, r2, r1, lsl #3
 310              	.LVL23:
 311              	.LBE165:
 312              	.LBE166:
 313              		.loc 5 68 0
 314 0098 F0D1     		bne	.L13
 315              	.LVL24:
 316              	.LBE160:
 317              	.LBE159:
 318              		.loc 2 85 0
 319 009a ADF81820 		strh	r2, [sp, #24]	@ movhi
 320              	.LVL25:
 321              	.LBB167:
 322              	.LBB168:
 323              		.loc 5 86 0
 324 009e 08A8     		add	r0, sp, #32
 325              	.LVL26:
 326 00a0 0DAD     		add	r5, sp, #52
 327              	.LVL27:
 328              	.L9:
 329              	.LBB169:
 330              	.LBB170:
 331              		.loc 5 39 0
 332 00a2 10F8013B 		ldrb	r3, [r0], #1	@ zero_extendqisi2
 333              	.LVL28:
 334 00a6 5340     		eors	r3, r3, r2
 335              	.LVL29:
 336              		.loc 5 40 0
 337 00a8 83EA0313 		eor	r3, r3, r3, lsl #4
 338              	.LVL30:
 339 00ac DBB2     		uxtb	r3, r3
 340              	.LVL31:
 341              		.loc 5 41 0
 342 00ae 1909     		lsrs	r1, r3, #4
ARM GAS  C:\Users\IDONNO~1\AppData\Local\Temp\ccY27Fyg.s 			page 7


 343 00b0 81EA1222 		eor	r2, r1, r2, lsr #8
 344 00b4 82EA0322 		eor	r2, r2, r3, lsl #8
 345 00b8 82EAC303 		eor	r3, r2, r3, lsl #3
 346              	.LVL32:
 347 00bc 1BB2     		sxth	r3, r3
 348 00be 9AB2     		uxth	r2, r3
 349              	.LBE170:
 350              	.LBE169:
 351              		.loc 5 87 0
 352 00c0 A842     		cmp	r0, r5
 353              	.LBB172:
 354              	.LBB171:
 355              		.loc 5 41 0
 356 00c2 ADF81820 		strh	r2, [sp, #24]	@ movhi
 357              	.LVL33:
 358              	.LBE171:
 359              	.LBE172:
 360              		.loc 5 87 0
 361 00c6 ECD1     		bne	.L9
 362              	.LVL34:
 363              	.LBE168:
 364              	.LBE167:
 365              	.LBB173:
 366              	.LBB174:
 367              		.loc 5 39 0
 368 00c8 83F0C001 		eor	r1, r3, #192
 369              	.LVL35:
 370              		.loc 5 40 0
 371 00cc 81EA0111 		eor	r1, r1, r1, lsl #4
 372              	.LVL36:
 373 00d0 C9B2     		uxtb	r1, r1
 374              	.LVL37:
 375              		.loc 5 41 0
 376 00d2 0B09     		lsrs	r3, r1, #4
 377 00d4 83EA1222 		eor	r2, r3, r2, lsr #8
 378 00d8 82EA0123 		eor	r3, r2, r1, lsl #8
 379 00dc 83EAC103 		eor	r3, r3, r1, lsl #3
 380 00e0 1BB2     		sxth	r3, r3
 381 00e2 9AB2     		uxth	r2, r3
 382              	.LBE174:
 383              	.LBE173:
 384              	.LBE180:
 385              	.LBE185:
 386              	.LBE191:
 387              	.LBE197:
 388              		.loc 1 66 0
 389 00e4 2046     		mov	r0, r4
 390              	.LVL38:
 391 00e6 06A9     		add	r1, sp, #24
 392              	.LVL39:
 393              	.LBB198:
 394              	.LBB192:
 395              	.LBB186:
 396              	.LBB181:
 397              		.loc 2 91 0
 398 00e8 140A     		lsrs	r4, r2, #8
 399              	.LVL40:
ARM GAS  C:\Users\IDONNO~1\AppData\Local\Temp\ccY27Fyg.s 			page 8


 400              		.loc 2 90 0
 401 00ea 8DF83430 		strb	r3, [sp, #52]
 402              	.LBB176:
 403              	.LBB175:
 404              		.loc 5 41 0
 405 00ee ADF81820 		strh	r2, [sp, #24]	@ movhi
 406              	.LVL41:
 407              	.LBE175:
 408              	.LBE176:
 409              		.loc 2 91 0
 410 00f2 8DF83540 		strb	r4, [sp, #53]
 411              	.LVL42:
 412              	.LBE181:
 413              	.LBE186:
 414              	.LBE192:
 415              	.LBE198:
 416              		.loc 1 66 0
 417 00f6 FFF7FEFF 		bl	mavlink_msg_send
 418              	.LVL43:
 419              		.loc 1 67 0
 420 00fa 4BB0     		add	sp, sp, #300
 421              		.cfi_def_cfa_offset 20
 422              		@ sp needed
 423 00fc F0BD     		pop	{r4, r5, r6, r7, pc}
 424              	.LVL44:
 425              	.L15:
 426 00fe 00BF     		.align	2
 427              	.L14:
 428 0100 00000000 		.word	.LANCHOR0
 429              		.cfi_endproc
 430              	.LFE407:
 431              		.size	resp_ack, .-resp_ack
 432              		.section	.text.cmd_send_error,"ax",%progbits
 433              		.align	2
 434              		.p2align 4,,15
 435              		.global	cmd_send_error
 436              		.thumb
 437              		.thumb_func
 438              		.type	cmd_send_error, %function
 439              	cmd_send_error:
 440              	.LFB408:
 441              		.loc 1 74 0
 442              		.cfi_startproc
 443              		@ args = 0, pretend = 0, frame = 24
 444              		@ frame_needed = 0, uses_anonymous_args = 0
 445              	.LVL45:
 446 0000 00B5     		push	{lr}
 447              		.cfi_def_cfa_offset 4
 448              		.cfi_offset 14, -4
 449 0002 87B0     		sub	sp, sp, #28
 450              		.cfi_def_cfa_offset 32
 451              		.loc 1 83 0
 452 0004 06AB     		add	r3, sp, #24
 453              		.loc 1 82 0
 454 0006 4268     		ldr	r2, [r0, #4]
 455              		.loc 1 83 0
 456 0008 23F8141D 		strh	r1, [r3, #-20]!	@ movhi
ARM GAS  C:\Users\IDONNO~1\AppData\Local\Temp\ccY27Fyg.s 			page 9


 457              		.loc 1 82 0
 458 000c D279     		ldrb	r2, [r2, #7]	@ zero_extendqisi2
 459              		.loc 1 84 0
 460 000e 0078     		ldrb	r0, [r0]	@ zero_extendqisi2
 461              	.LVL46:
 462              		.loc 1 82 0
 463 0010 8DF80620 		strb	r2, [sp, #6]
 464              		.loc 1 84 0
 465 0014 1946     		mov	r1, r3
 466              	.LVL47:
 467 0016 FFF7FEFF 		bl	resp_ack
 468              	.LVL48:
 469              		.loc 1 85 0
 470 001a 07B0     		add	sp, sp, #28
 471              		.cfi_def_cfa_offset 4
 472              		@ sp needed
 473 001c 5DF804FB 		ldr	pc, [sp], #4
 474              		.cfi_endproc
 475              	.LFE408:
 476              		.size	cmd_send_error, .-cmd_send_error
 477              		.section	.text.cmd_read_version,"ax",%progbits
 478              		.align	2
 479              		.p2align 4,,15
 480              		.global	cmd_read_version
 481              		.thumb
 482              		.thumb_func
 483              		.type	cmd_read_version, %function
 484              	cmd_read_version:
 485              	.LFB409:
 486              		.loc 1 94 0
 487              		.cfi_startproc
 488              		@ args = 0, pretend = 0, frame = 32
 489              		@ frame_needed = 0, uses_anonymous_args = 0
 490              	.LVL49:
 491 0000 F0B5     		push	{r4, r5, r6, r7, lr}
 492              		.cfi_def_cfa_offset 20
 493              		.cfi_offset 4, -20
 494              		.cfi_offset 5, -16
 495              		.cfi_offset 6, -12
 496              		.cfi_offset 7, -8
 497              		.cfi_offset 14, -4
 498              		.loc 1 99 0
 499 0002 4568     		ldr	r5, [r0, #4]
 500              	.LVL50:
 501              	.LBB205:
 502              	.LBB206:
 503              		.file 6 "src/core/../mavlink/oroca_bldc/./mavlink_msg_read_board_name.h"
 504              		.loc 6 226 0
 505 0004 EA78     		ldrb	r2, [r5, #3]	@ zero_extendqisi2
 506              	.LBE206:
 507              	.LBE205:
 508              		.loc 1 94 0
 509 0006 89B0     		sub	sp, sp, #36
 510              		.cfi_def_cfa_offset 56
 511              	.LVL51:
 512              	.LBB209:
 513              	.LBB207:
ARM GAS  C:\Users\IDONNO~1\AppData\Local\Temp\ccY27Fyg.s 			page 10


 514              		.loc 6 228 0
 515 0008 092A     		cmp	r2, #9
 516              		.loc 6 227 0
 517 000a 4FF00004 		mov	r4, #0
 518              		.loc 6 228 0
 519 000e 28BF     		it	cs
 520 0010 0922     		movcs	r2, #9
 521              	.LVL52:
 522              	.LBE207:
 523              	.LBE209:
 524              		.loc 1 94 0
 525 0012 0646     		mov	r6, r0
 526              	.LBB210:
 527              	.LBB208:
 528              		.loc 6 228 0
 529 0014 05F10801 		add	r1, r5, #8
 530 0018 6846     		mov	r0, sp
 531              	.LVL53:
 532              		.loc 6 227 0
 533 001a 0194     		str	r4, [sp, #4]
 534 001c 0094     		str	r4, [sp]
 535 001e 8DF80840 		strb	r4, [sp, #8]
 536              		.loc 6 228 0
 537 0022 FFF7FEFF 		bl	memcpy
 538              	.LVL54:
 539              	.LBE208:
 540              	.LBE210:
 541              		.loc 1 101 0
 542 0026 9DF80030 		ldrb	r3, [sp]	@ zero_extendqisi2
 543 002a 012B     		cmp	r3, #1
 544 002c 01D0     		beq	.L21
 545              		.loc 1 119 0
 546 002e 09B0     		add	sp, sp, #36
 547              		.cfi_remember_state
 548              		.cfi_def_cfa_offset 20
 549              		@ sp needed
 550 0030 F0BD     		pop	{r4, r5, r6, r7, pc}
 551              	.LVL55:
 552              	.L21:
 553              		.cfi_restore_state
 554              	.LBB211:
 555              	.LBB212:
 556              		.loc 1 105 0
 557 0032 144A     		ldr	r2, .L22
 558              		.loc 1 109 0
 559 0034 144B     		ldr	r3, .L22+4
 560              		.loc 1 105 0
 561 0036 1268     		ldr	r2, [r2]
 562              		.loc 1 103 0
 563 0038 E979     		ldrb	r1, [r5, #7]	@ zero_extendqisi2
 564              		.loc 1 109 0
 565 003a 1B68     		ldr	r3, [r3]
 566              		.loc 1 103 0
 567 003c 8DF80E10 		strb	r1, [sp, #14]
 568              		.loc 1 107 0
 569 0040 110C     		lsrs	r1, r2, #16
 570              		.loc 1 106 0
ARM GAS  C:\Users\IDONNO~1\AppData\Local\Temp\ccY27Fyg.s 			page 11


 571 0042 4FEA122E 		lsr	lr, r2, #8
 572              		.loc 1 114 0
 573 0046 3078     		ldrb	r0, [r6]	@ zero_extendqisi2
 574              		.loc 1 104 0
 575 0048 ADF80C40 		strh	r4, [sp, #12]	@ movhi
 576              		.loc 1 108 0
 577 004c 170E     		lsrs	r7, r2, #24
 578              		.loc 1 110 0
 579 004e 1E0A     		lsrs	r6, r3, #8
 580              	.LVL56:
 581              		.loc 1 111 0
 582 0050 1D0C     		lsrs	r5, r3, #16
 583              		.loc 1 105 0
 584 0052 8DF81020 		strb	r2, [sp, #16]
 585              		.loc 1 112 0
 586 0056 1C0E     		lsrs	r4, r3, #24
 587              		.loc 1 113 0
 588 0058 0822     		movs	r2, #8
 589              		.loc 1 107 0
 590 005a 8DF81210 		strb	r1, [sp, #18]
 591              		.loc 1 114 0
 592 005e 03A9     		add	r1, sp, #12
 593              		.loc 1 106 0
 594 0060 8DF811E0 		strb	lr, [sp, #17]
 595              		.loc 1 108 0
 596 0064 8DF81370 		strb	r7, [sp, #19]
 597              		.loc 1 109 0
 598 0068 8DF81430 		strb	r3, [sp, #20]
 599              		.loc 1 110 0
 600 006c 8DF81560 		strb	r6, [sp, #21]
 601              		.loc 1 111 0
 602 0070 8DF81650 		strb	r5, [sp, #22]
 603              		.loc 1 112 0
 604 0074 8DF81740 		strb	r4, [sp, #23]
 605              		.loc 1 113 0
 606 0078 8DF80F20 		strb	r2, [sp, #15]
 607              		.loc 1 114 0
 608 007c FFF7FEFF 		bl	resp_ack
 609              	.LVL57:
 610              	.LBE212:
 611              	.LBE211:
 612              		.loc 1 119 0
 613 0080 09B0     		add	sp, sp, #36
 614              		.cfi_def_cfa_offset 20
 615              		@ sp needed
 616 0082 F0BD     		pop	{r4, r5, r6, r7, pc}
 617              	.L23:
 618              		.align	2
 619              	.L22:
 620 0084 00000000 		.word	.LANCHOR1
 621 0088 00000000 		.word	.LANCHOR2
 622              		.cfi_endproc
 623              	.LFE409:
 624              		.size	cmd_read_version, .-cmd_read_version
 625              		.section	.text.cmd_read_board_name,"ax",%progbits
 626              		.align	2
 627              		.p2align 4,,15
ARM GAS  C:\Users\IDONNO~1\AppData\Local\Temp\ccY27Fyg.s 			page 12


 628              		.global	cmd_read_board_name
 629              		.thumb
 630              		.thumb_func
 631              		.type	cmd_read_board_name, %function
 632              	cmd_read_board_name:
 633              	.LFB410:
 634              		.loc 1 127 0
 635              		.cfi_startproc
 636              		@ args = 0, pretend = 0, frame = 32
 637              		@ frame_needed = 0, uses_anonymous_args = 0
 638              	.LVL58:
 639 0000 70B5     		push	{r4, r5, r6, lr}
 640              		.cfi_def_cfa_offset 16
 641              		.cfi_offset 4, -16
 642              		.cfi_offset 5, -12
 643              		.cfi_offset 6, -8
 644              		.cfi_offset 14, -4
 645              		.loc 1 133 0
 646 0002 4568     		ldr	r5, [r0, #4]
 647              	.LVL59:
 648              	.LBB217:
 649              	.LBB218:
 650              		.loc 6 226 0
 651 0004 EA78     		ldrb	r2, [r5, #3]	@ zero_extendqisi2
 652              	.LBE218:
 653              	.LBE217:
 654              		.loc 1 127 0
 655 0006 88B0     		sub	sp, sp, #32
 656              		.cfi_def_cfa_offset 48
 657              	.LVL60:
 658              	.LBB221:
 659              	.LBB219:
 660              		.loc 6 228 0
 661 0008 092A     		cmp	r2, #9
 662              		.loc 6 227 0
 663 000a 4FF00004 		mov	r4, #0
 664              		.loc 6 228 0
 665 000e 28BF     		it	cs
 666 0010 0922     		movcs	r2, #9
 667              	.LVL61:
 668              	.LBE219:
 669              	.LBE221:
 670              		.loc 1 127 0
 671 0012 0646     		mov	r6, r0
 672              	.LBB222:
 673              	.LBB220:
 674              		.loc 6 228 0
 675 0014 05F10801 		add	r1, r5, #8
 676 0018 6846     		mov	r0, sp
 677              	.LVL62:
 678              		.loc 6 227 0
 679 001a 0194     		str	r4, [sp, #4]
 680 001c 0094     		str	r4, [sp]
 681 001e 8DF80840 		strb	r4, [sp, #8]
 682              		.loc 6 228 0
 683 0022 FFF7FEFF 		bl	memcpy
 684              	.LVL63:
ARM GAS  C:\Users\IDONNO~1\AppData\Local\Temp\ccY27Fyg.s 			page 13


 685              	.LBE220:
 686              	.LBE222:
 687              		.loc 1 135 0
 688 0026 9DF80030 		ldrb	r3, [sp]	@ zero_extendqisi2
 689 002a 012B     		cmp	r3, #1
 690 002c 01D0     		beq	.L29
 691              		.loc 1 150 0
 692 002e 08B0     		add	sp, sp, #32
 693              		.cfi_remember_state
 694              		.cfi_def_cfa_offset 16
 695              		@ sp needed
 696 0030 70BD     		pop	{r4, r5, r6, pc}
 697              	.LVL64:
 698              	.L29:
 699              		.cfi_restore_state
 700 0032 104B     		ldr	r3, .L30
 701              	.LBB223:
 702              	.LBB224:
 703              		.loc 1 137 0
 704 0034 EA79     		ldrb	r2, [r5, #7]	@ zero_extendqisi2
 705 0036 8DF80E20 		strb	r2, [sp, #14]
 706              		.loc 1 138 0
 707 003a ADF80C40 		strh	r4, [sp, #12]	@ movhi
 708              	.LVL65:
 709 003e 1D68     		ldr	r5, [r3]
 710 0040 02E0     		b	.L26
 711              	.LVL66:
 712              	.L27:
 713              		.loc 1 143 0
 714 0042 EB5C     		ldrb	r3, [r5, r3]	@ zero_extendqisi2
 715              	.LVL67:
 716 0044 02F8103C 		strb	r3, [r2, #-16]
 717              	.LVL68:
 718              	.L26:
 719              		.loc 1 141 0
 720 0048 2846     		mov	r0, r5
 721 004a FFF7FEFF 		bl	strlen
 722              	.LVL69:
 723 004e E3B2     		uxtb	r3, r4
 724              	.LVL70:
 725              		.loc 1 143 0
 726 0050 08AA     		add	r2, sp, #32
 727              		.loc 1 141 0
 728 0052 9842     		cmp	r0, r3
 729 0054 04F10104 		add	r4, r4, #1
 730              		.loc 1 143 0
 731 0058 1A44     		add	r2, r2, r3
 732              		.loc 1 141 0
 733 005a F2D8     		bhi	.L27
 734              		.loc 1 146 0
 735 005c 8DF80F30 		strb	r3, [sp, #15]
 736              		.loc 1 147 0
 737 0060 3078     		ldrb	r0, [r6]	@ zero_extendqisi2
 738              		.loc 1 145 0
 739 0062 0023     		movs	r3, #0
 740              	.LVL71:
 741              		.loc 1 147 0
ARM GAS  C:\Users\IDONNO~1\AppData\Local\Temp\ccY27Fyg.s 			page 14


 742 0064 03A9     		add	r1, sp, #12
 743              		.loc 1 145 0
 744 0066 02F8103C 		strb	r3, [r2, #-16]
 745              		.loc 1 147 0
 746 006a FFF7FEFF 		bl	resp_ack
 747              	.LVL72:
 748              	.LBE224:
 749              	.LBE223:
 750              		.loc 1 150 0
 751 006e 08B0     		add	sp, sp, #32
 752              		.cfi_def_cfa_offset 16
 753              		@ sp needed
 754 0070 70BD     		pop	{r4, r5, r6, pc}
 755              	.LVL73:
 756              	.L31:
 757 0072 00BF     		.align	2
 758              	.L30:
 759 0074 00000000 		.word	.LANCHOR3
 760              		.cfi_endproc
 761              	.LFE410:
 762              		.size	cmd_read_board_name, .-cmd_read_board_name
 763              		.section	.text.cmd_write_eeprom,"ax",%progbits
 764              		.align	2
 765              		.p2align 4,,15
 766              		.global	cmd_write_eeprom
 767              		.thumb
 768              		.thumb_func
 769              		.type	cmd_write_eeprom, %function
 770              	cmd_write_eeprom:
 771              	.LFB412:
 772              		.loc 1 188 0
 773              		.cfi_startproc
 774              		@ args = 0, pretend = 0, frame = 248
 775              		@ frame_needed = 0, uses_anonymous_args = 0
 776              	.LVL74:
 777 0000 70B5     		push	{r4, r5, r6, lr}
 778              		.cfi_def_cfa_offset 16
 779              		.cfi_offset 4, -16
 780              		.cfi_offset 5, -12
 781              		.cfi_offset 6, -8
 782              		.cfi_offset 14, -4
 783 0002 BEB0     		sub	sp, sp, #248
 784              		.cfi_def_cfa_offset 264
 785              		.loc 1 188 0
 786 0004 0646     		mov	r6, r0
 787              		.loc 1 195 0
 788 0006 FFF7FEFF 		bl	mc_interface_get_configuration
 789              	.LVL75:
 790 000a D422     		movs	r2, #212
 791 000c 0146     		mov	r1, r0
 792 000e 09A8     		add	r0, sp, #36
 793 0010 FFF7FEFF 		bl	memcpy
 794              	.LVL76:
 795              		.loc 1 197 0
 796 0014 7468     		ldr	r4, [r6, #4]
 797              	.LVL77:
 798              	.LBB227:
ARM GAS  C:\Users\IDONNO~1\AppData\Local\Temp\ccY27Fyg.s 			page 15


 799              	.LBB228:
 800              		.file 7 "src/core/../mavlink/oroca_bldc/./mavlink_msg_write_eeprom.h"
 801              		.loc 7 234 0
 802 0016 E278     		ldrb	r2, [r4, #3]	@ zero_extendqisi2
 803              	.LVL78:
 804              		.loc 7 236 0
 805 0018 022A     		cmp	r2, #2
 806 001a 28BF     		it	cs
 807 001c 0222     		movcs	r2, #2
 808              	.LVL79:
 809 001e 04F10801 		add	r1, r4, #8
 810              		.loc 7 235 0
 811 0022 0025     		movs	r5, #0
 812              		.loc 7 236 0
 813 0024 01A8     		add	r0, sp, #4
 814              	.LVL80:
 815              		.loc 7 235 0
 816 0026 ADF80450 		strh	r5, [sp, #4]	@ movhi
 817              		.loc 7 236 0
 818 002a FFF7FEFF 		bl	memcpy
 819              	.LVL81:
 820              	.LBE228:
 821              	.LBE227:
 822              		.loc 1 199 0
 823 002e 9DF80430 		ldrb	r3, [sp, #4]	@ zero_extendqisi2
 824 0032 012B     		cmp	r3, #1
 825 0034 08D0     		beq	.L35
 826              	.L33:
 827              		.loc 1 209 0
 828 0036 09A8     		add	r0, sp, #36
 829 0038 FFF7FEFF 		bl	conf_general_store_mc_configuration
 830              	.LVL82:
 831              		.loc 1 211 0
 832 003c 4FF4FA60 		mov	r0, #2000
 833 0040 FFF7FEFF 		bl	chThdSleep
 834              	.LVL83:
 835              		.loc 1 215 0
 836 0044 3EB0     		add	sp, sp, #248
 837              		.cfi_remember_state
 838              		.cfi_def_cfa_offset 16
 839              		@ sp needed
 840 0046 70BD     		pop	{r4, r5, r6, pc}
 841              	.LVL84:
 842              	.L35:
 843              		.cfi_restore_state
 844              		.loc 1 201 0
 845 0048 E379     		ldrb	r3, [r4, #7]	@ zero_extendqisi2
 846              		.loc 1 205 0
 847 004a 3078     		ldrb	r0, [r6]	@ zero_extendqisi2
 848              		.loc 1 201 0
 849 004c 8DF81230 		strb	r3, [sp, #18]
 850              		.loc 1 205 0
 851 0050 04A9     		add	r1, sp, #16
 852              		.loc 1 202 0
 853 0052 ADF81050 		strh	r5, [sp, #16]	@ movhi
 854              		.loc 1 204 0
 855 0056 8DF81350 		strb	r5, [sp, #19]
ARM GAS  C:\Users\IDONNO~1\AppData\Local\Temp\ccY27Fyg.s 			page 16


 856              		.loc 1 205 0
 857 005a FFF7FEFF 		bl	resp_ack
 858              	.LVL85:
 859 005e EAE7     		b	.L33
 860              		.cfi_endproc
 861              	.LFE412:
 862              		.size	cmd_write_eeprom, .-cmd_write_eeprom
 863              		.section	.text.cmd_set_velocity,"ax",%progbits
 864              		.align	2
 865              		.p2align 4,,15
 866              		.global	cmd_set_velocity
 867              		.thumb
 868              		.thumb_func
 869              		.type	cmd_set_velocity, %function
 870              	cmd_set_velocity:
 871              	.LFB413:
 872              		.loc 1 220 0
 873              		.cfi_startproc
 874              		@ args = 0, pretend = 0, frame = 24
 875              		@ frame_needed = 0, uses_anonymous_args = 0
 876              	.LVL86:
 877 0000 70B5     		push	{r4, r5, r6, lr}
 878              		.cfi_def_cfa_offset 16
 879              		.cfi_offset 4, -16
 880              		.cfi_offset 5, -12
 881              		.cfi_offset 6, -8
 882              		.cfi_offset 14, -4
 883              		.loc 1 225 0
 884 0002 4568     		ldr	r5, [r0, #4]
 885              	.LVL87:
 886              	.LBB231:
 887              	.LBB232:
 888              		.file 8 "src/core/../mavlink/oroca_bldc/./mavlink_msg_set_velocity.h"
 889              		.loc 8 234 0
 890 0004 EA78     		ldrb	r2, [r5, #3]	@ zero_extendqisi2
 891              	.LBE232:
 892              	.LBE231:
 893              		.loc 1 220 0
 894 0006 86B0     		sub	sp, sp, #24
 895              		.cfi_def_cfa_offset 40
 896              	.LVL88:
 897              	.LBB235:
 898              	.LBB233:
 899              		.loc 8 236 0
 900 0008 032A     		cmp	r2, #3
 901 000a 28BF     		it	cs
 902 000c 0322     		movcs	r2, #3
 903              	.LVL89:
 904              		.loc 8 235 0
 905 000e 0024     		movs	r4, #0
 906              	.LBE233:
 907              	.LBE235:
 908              		.loc 1 220 0
 909 0010 0646     		mov	r6, r0
 910              	.LBB236:
 911              	.LBB234:
 912              		.loc 8 236 0
ARM GAS  C:\Users\IDONNO~1\AppData\Local\Temp\ccY27Fyg.s 			page 17


 913 0012 05F10801 		add	r1, r5, #8
 914 0016 6846     		mov	r0, sp
 915              	.LVL90:
 916              		.loc 8 235 0
 917 0018 8DF80240 		strb	r4, [sp, #2]
 918 001c ADF80040 		strh	r4, [sp]	@ movhi
 919              		.loc 8 236 0
 920 0020 FFF7FEFF 		bl	memcpy
 921              	.LVL91:
 922              	.LBE234:
 923              	.LBE236:
 924              		.loc 1 227 0
 925 0024 9DF80230 		ldrb	r3, [sp, #2]	@ zero_extendqisi2
 926 0028 012B     		cmp	r3, #1
 927 002a 0AD0     		beq	.L39
 928              	.L37:
 929              		.loc 1 236 0
 930 002c BDF80000 		ldrh	r0, [sp]
 931 0030 FFF7FEFF 		bl	mc_interface_set_velocity
 932              	.LVL92:
 933              		.loc 1 237 0
 934 0034 4FF4FA60 		mov	r0, #2000
 935 0038 FFF7FEFF 		bl	chThdSleep
 936              	.LVL93:
 937              		.loc 1 240 0
 938 003c 0020     		movs	r0, #0
 939 003e 06B0     		add	sp, sp, #24
 940              		.cfi_remember_state
 941              		.cfi_def_cfa_offset 16
 942              		@ sp needed
 943 0040 70BD     		pop	{r4, r5, r6, pc}
 944              	.LVL94:
 945              	.L39:
 946              		.cfi_restore_state
 947              		.loc 1 229 0
 948 0042 EB79     		ldrb	r3, [r5, #7]	@ zero_extendqisi2
 949              		.loc 1 233 0
 950 0044 3078     		ldrb	r0, [r6]	@ zero_extendqisi2
 951              		.loc 1 229 0
 952 0046 8DF80630 		strb	r3, [sp, #6]
 953              		.loc 1 233 0
 954 004a 01A9     		add	r1, sp, #4
 955              		.loc 1 230 0
 956 004c ADF80440 		strh	r4, [sp, #4]	@ movhi
 957              		.loc 1 232 0
 958 0050 8DF80740 		strb	r4, [sp, #7]
 959              		.loc 1 233 0
 960 0054 FFF7FEFF 		bl	resp_ack
 961              	.LVL95:
 962 0058 E8E7     		b	.L37
 963              		.cfi_endproc
 964              	.LFE413:
 965              		.size	cmd_set_velocity, .-cmd_set_velocity
 966 005a 00BF     		.section	.text.cmd_set_mcconf,"ax",%progbits
 967              		.align	2
 968              		.p2align 4,,15
 969              		.global	cmd_set_mcconf
ARM GAS  C:\Users\IDONNO~1\AppData\Local\Temp\ccY27Fyg.s 			page 18


 970              		.thumb
 971              		.thumb_func
 972              		.type	cmd_set_mcconf, %function
 973              	cmd_set_mcconf:
 974              	.LFB414:
 975              		.loc 1 245 0
 976              		.cfi_startproc
 977              		@ args = 0, pretend = 0, frame = 272
 978              		@ frame_needed = 0, uses_anonymous_args = 0
 979              	.LVL96:
 980 0000 70B5     		push	{r4, r5, r6, lr}
 981              		.cfi_def_cfa_offset 16
 982              		.cfi_offset 4, -16
 983              		.cfi_offset 5, -12
 984              		.cfi_offset 6, -8
 985              		.cfi_offset 14, -4
 986              		.loc 1 251 0
 987 0002 4568     		ldr	r5, [r0, #4]
 988              	.LVL97:
 989              	.LBB239:
 990              	.LBB240:
 991              		.file 9 "src/core/../mavlink/oroca_bldc/./mavlink_msg_set_mcconf.h"
 992              		.loc 9 684 0
 993 0004 EC78     		ldrb	r4, [r5, #3]	@ zero_extendqisi2
 994              	.LBE240:
 995              	.LBE239:
 996              		.loc 1 245 0
 997 0006 C4B0     		sub	sp, sp, #272
 998              		.cfi_def_cfa_offset 288
 999              	.LVL98:
 1000              	.LBB243:
 1001              	.LBB241:
 1002              		.loc 9 684 0
 1003 0008 262C     		cmp	r4, #38
 1004 000a 28BF     		it	cs
 1005 000c 2624     		movcs	r4, #38
 1006              	.LVL99:
 1007              		.loc 9 685 0
 1008 000e 2622     		movs	r2, #38
 1009 0010 0021     		movs	r1, #0
 1010              	.LBE241:
 1011              	.LBE243:
 1012              		.loc 1 245 0
 1013 0012 0646     		mov	r6, r0
 1014              	.LBB244:
 1015              	.LBB242:
 1016              		.loc 9 685 0
 1017 0014 05A8     		add	r0, sp, #20
 1018              	.LVL100:
 1019 0016 FFF7FEFF 		bl	memset
 1020              	.LVL101:
 1021              		.loc 9 686 0
 1022 001a 2246     		mov	r2, r4
 1023 001c 05A8     		add	r0, sp, #20
 1024              	.LVL102:
 1025 001e 05F10801 		add	r1, r5, #8
 1026 0022 FFF7FEFF 		bl	memcpy
ARM GAS  C:\Users\IDONNO~1\AppData\Local\Temp\ccY27Fyg.s 			page 19


 1027              	.LVL103:
 1028              	.LBE242:
 1029              	.LBE244:
 1030              		.loc 1 253 0
 1031 0026 9DF83830 		ldrb	r3, [sp, #56]	@ zero_extendqisi2
 1032 002a 012B     		cmp	r3, #1
 1033 002c 00F0A480 		beq	.L43
 1034              	.L41:
 1035              		.loc 1 262 0
 1036 0030 FFF7FEFF 		bl	mc_interface_get_configuration
 1037              	.LVL104:
 1038 0034 D422     		movs	r2, #212
 1039 0036 0146     		mov	r1, r0
 1040 0038 0FA8     		add	r0, sp, #60
 1041 003a FFF7FEFF 		bl	memcpy
 1042              	.LVL105:
 1043              		.loc 1 265 0
 1044 003e 9DF83930 		ldrb	r3, [sp, #57]	@ zero_extendqisi2
 1045 0042 07EE103A 		vmov	s14, r3	@ int
 1046              		.loc 1 266 0
 1047 0046 BDF81430 		ldrh	r3, [sp, #20]
 1048 004a 07EE903A 		vmov	s15, r3	@ int
 1049              		.loc 1 268 0
 1050 004e BDF81830 		ldrh	r3, [sp, #24]
 1051 0052 01EE903A 		vmov	s3, r3	@ int
 1052              		.loc 1 269 0
 1053 0056 BDF81A30 		ldrh	r3, [sp, #26]
 1054 005a 02EE103A 		vmov	s4, r3	@ int
 1055              		.loc 1 270 0
 1056 005e BDF81C30 		ldrh	r3, [sp, #28]
 1057 0062 02EE903A 		vmov	s5, r3	@ int
 1058              		.loc 1 271 0
 1059 0066 BDF81E30 		ldrh	r3, [sp, #30]
 1060 006a 03EE103A 		vmov	s6, r3	@ int
 1061              		.loc 1 272 0
 1062 006e BDF82030 		ldrh	r3, [sp, #32]
 1063 0072 03EE903A 		vmov	s7, r3	@ int
 1064              		.loc 1 273 0
 1065 0076 BDF82230 		ldrh	r3, [sp, #34]
 1066 007a 04EE103A 		vmov	s8, r3	@ int
 1067              		.loc 1 274 0
 1068 007e BDF82430 		ldrh	r3, [sp, #36]
 1069 0082 04EE903A 		vmov	s9, r3	@ int
 1070              		.loc 1 275 0
 1071 0086 BDF82630 		ldrh	r3, [sp, #38]
 1072 008a 05EE103A 		vmov	s10, r3	@ int
 1073              		.loc 1 276 0
 1074 008e BDF82830 		ldrh	r3, [sp, #40]
 1075 0092 05EE903A 		vmov	s11, r3	@ int
 1076              		.loc 1 277 0
 1077 0096 BDF82A30 		ldrh	r3, [sp, #42]
 1078 009a 06EE103A 		vmov	s12, r3	@ int
 1079              		.loc 1 278 0
 1080 009e BDF82C30 		ldrh	r3, [sp, #44]
 1081              		.loc 1 265 0
 1082 00a2 B8EE477A 		vcvt.f32.u32	s14, s14
 1083              		.loc 1 278 0
ARM GAS  C:\Users\IDONNO~1\AppData\Local\Temp\ccY27Fyg.s 			page 20


 1084 00a6 06EE903A 		vmov	s13, r3	@ int
 1085              		.loc 1 279 0
 1086 00aa BDF82E30 		ldrh	r3, [sp, #46]
 1087              		.loc 1 265 0
 1088 00ae 8DED0F7A 		vstr.32	s14, [sp, #60]
 1089              		.loc 1 266 0
 1090 00b2 F8EE677A 		vcvt.f32.u32	s15, s15
 1091              		.loc 1 279 0
 1092 00b6 07EE103A 		vmov	s14, r3	@ int
 1093              		.loc 1 280 0
 1094 00ba BDF83030 		ldrh	r3, [sp, #48]
 1095              		.loc 1 266 0
 1096 00be CDED107A 		vstr.32	s15, [sp, #64]
 1097              		.loc 1 280 0
 1098 00c2 07EE903A 		vmov	s15, r3	@ int
 1099              		.loc 1 268 0
 1100 00c6 F8EE611A 		vcvt.f32.u32	s3, s3
 1101              		.loc 1 269 0
 1102 00ca B8EE422A 		vcvt.f32.u32	s4, s4
 1103              		.loc 1 270 0
 1104 00ce F8EE622A 		vcvt.f32.u32	s5, s5
 1105              		.loc 1 271 0
 1106 00d2 B8EE433A 		vcvt.f32.u32	s6, s6
 1107              		.loc 1 272 0
 1108 00d6 F8EE633A 		vcvt.f32.u32	s7, s7
 1109              		.loc 1 273 0
 1110 00da B8EE444A 		vcvt.f32.u32	s8, s8
 1111              		.loc 1 274 0
 1112 00de F8EE644A 		vcvt.f32.u32	s9, s9
 1113              		.loc 1 275 0
 1114 00e2 B8EE455A 		vcvt.f32.u32	s10, s10
 1115              		.loc 1 276 0
 1116 00e6 F8EE655A 		vcvt.f32.u32	s11, s11
 1117              		.loc 1 277 0
 1118 00ea B8EE466A 		vcvt.f32.u32	s12, s12
 1119              		.loc 1 278 0
 1120 00ee F8EE666A 		vcvt.f32.u32	s13, s13
 1121              		.loc 1 279 0
 1122 00f2 B8EE477A 		vcvt.f32.u32	s14, s14
 1123              		.loc 1 280 0
 1124 00f6 F8EE677A 		vcvt.f32.u32	s15, s15
 1125              		.loc 1 267 0
 1126 00fa BDF81630 		ldrh	r3, [sp, #22]
 1127              		.loc 1 268 0
 1128 00fe CDED321A 		vstr.32	s3, [sp, #200]
 1129              		.loc 1 269 0
 1130 0102 8DED332A 		vstr.32	s4, [sp, #204]
 1131              		.loc 1 270 0
 1132 0106 CDED342A 		vstr.32	s5, [sp, #208]
 1133              		.loc 1 271 0
 1134 010a 8DED353A 		vstr.32	s6, [sp, #212]
 1135              		.loc 1 272 0
 1136 010e CDED363A 		vstr.32	s7, [sp, #216]
 1137              		.loc 1 273 0
 1138 0112 8DED374A 		vstr.32	s8, [sp, #220]
 1139              		.loc 1 274 0
 1140 0116 CDED384A 		vstr.32	s9, [sp, #224]
ARM GAS  C:\Users\IDONNO~1\AppData\Local\Temp\ccY27Fyg.s 			page 21


 1141              		.loc 1 275 0
 1142 011a 8DED395A 		vstr.32	s10, [sp, #228]
 1143              		.loc 1 276 0
 1144 011e CDED3A5A 		vstr.32	s11, [sp, #232]
 1145              		.loc 1 277 0
 1146 0122 8DED3B6A 		vstr.32	s12, [sp, #236]
 1147              		.loc 1 278 0
 1148 0126 CDED3C6A 		vstr.32	s13, [sp, #240]
 1149              		.loc 1 279 0
 1150 012a 8DED3D7A 		vstr.32	s14, [sp, #244]
 1151              		.loc 1 280 0
 1152 012e CDED3E7A 		vstr.32	s15, [sp, #248]
 1153              		.loc 1 267 0
 1154 0132 ADF84430 		strh	r3, [sp, #68]	@ movhi
 1155              		.loc 1 281 0
 1156 0136 BDF83230 		ldrh	r3, [sp, #50]
 1157 013a 06EE903A 		vmov	s13, r3	@ int
 1158              		.loc 1 282 0
 1159 013e BDF83430 		ldrh	r3, [sp, #52]
 1160 0142 07EE103A 		vmov	s14, r3	@ int
 1161              		.loc 1 283 0
 1162 0146 BDF83630 		ldrh	r3, [sp, #54]
 1163 014a 07EE903A 		vmov	s15, r3	@ int
 1164              		.loc 1 281 0
 1165 014e F8EE666A 		vcvt.f32.u32	s13, s13
 1166              		.loc 1 282 0
 1167 0152 B8EE477A 		vcvt.f32.u32	s14, s14
 1168              		.loc 1 283 0
 1169 0156 F8EE677A 		vcvt.f32.u32	s15, s15
 1170              		.loc 1 285 0
 1171 015a 0FA8     		add	r0, sp, #60
 1172              		.loc 1 281 0
 1173 015c CDED3F6A 		vstr.32	s13, [sp, #252]
 1174              		.loc 1 282 0
 1175 0160 8DED407A 		vstr.32	s14, [sp, #256]
 1176              		.loc 1 283 0
 1177 0164 CDED417A 		vstr.32	s15, [sp, #260]
 1178              		.loc 1 285 0
 1179 0168 FFF7FEFF 		bl	mc_interface_set_configuration
 1180              	.LVL106:
 1181              		.loc 1 286 0
 1182 016c 4FF4FA60 		mov	r0, #2000
 1183 0170 FFF7FEFF 		bl	chThdSleep
 1184              	.LVL107:
 1185              		.loc 1 289 0
 1186 0174 44B0     		add	sp, sp, #272
 1187              		.cfi_remember_state
 1188              		.cfi_def_cfa_offset 16
 1189              		@ sp needed
 1190 0176 70BD     		pop	{r4, r5, r6, pc}
 1191              	.LVL108:
 1192              	.L43:
 1193              		.cfi_restore_state
 1194              		.loc 1 255 0
 1195 0178 EB79     		ldrb	r3, [r5, #7]	@ zero_extendqisi2
 1196 017a 8DF80230 		strb	r3, [sp, #2]
 1197              		.loc 1 259 0
ARM GAS  C:\Users\IDONNO~1\AppData\Local\Temp\ccY27Fyg.s 			page 22


 1198 017e 3078     		ldrb	r0, [r6]	@ zero_extendqisi2
 1199              		.loc 1 256 0
 1200 0180 0023     		movs	r3, #0
 1201              		.loc 1 259 0
 1202 0182 6946     		mov	r1, sp
 1203              		.loc 1 256 0
 1204 0184 ADF80030 		strh	r3, [sp]	@ movhi
 1205              		.loc 1 258 0
 1206 0188 8DF80330 		strb	r3, [sp, #3]
 1207              		.loc 1 259 0
 1208 018c FFF7FEFF 		bl	resp_ack
 1209              	.LVL109:
 1210 0190 4EE7     		b	.L41
 1211              		.cfi_endproc
 1212              	.LFE414:
 1213              		.size	cmd_set_mcconf, .-cmd_set_mcconf
 1214 0192 00BF     		.section	.text.cmd_set_appconf,"ax",%progbits
 1215              		.align	2
 1216              		.p2align 4,,15
 1217              		.global	cmd_set_appconf
 1218              		.thumb
 1219              		.thumb_func
 1220              		.type	cmd_set_appconf, %function
 1221              	cmd_set_appconf:
 1222              	.LFB415:
 1223              		.loc 1 292 0
 1224              		.cfi_startproc
 1225              		@ args = 0, pretend = 0, frame = 32
 1226              		@ frame_needed = 0, uses_anonymous_args = 0
 1227              	.LVL110:
 1228 0000 70B5     		push	{r4, r5, r6, lr}
 1229              		.cfi_def_cfa_offset 16
 1230              		.cfi_offset 4, -16
 1231              		.cfi_offset 5, -12
 1232              		.cfi_offset 6, -8
 1233              		.cfi_offset 14, -4
 1234              		.loc 1 297 0
 1235 0002 4568     		ldr	r5, [r0, #4]
 1236              	.LVL111:
 1237              	.LBB249:
 1238              	.LBB250:
 1239              		.loc 6 226 0
 1240 0004 EA78     		ldrb	r2, [r5, #3]	@ zero_extendqisi2
 1241              	.LBE250:
 1242              	.LBE249:
 1243              		.loc 1 292 0
 1244 0006 88B0     		sub	sp, sp, #32
 1245              		.cfi_def_cfa_offset 48
 1246              	.LVL112:
 1247              	.LBB253:
 1248              	.LBB251:
 1249              		.loc 6 228 0
 1250 0008 092A     		cmp	r2, #9
 1251              		.loc 6 227 0
 1252 000a 4FF00004 		mov	r4, #0
 1253              		.loc 6 228 0
 1254 000e 28BF     		it	cs
ARM GAS  C:\Users\IDONNO~1\AppData\Local\Temp\ccY27Fyg.s 			page 23


 1255 0010 0922     		movcs	r2, #9
 1256              	.LVL113:
 1257              	.LBE251:
 1258              	.LBE253:
 1259              		.loc 1 292 0
 1260 0012 0646     		mov	r6, r0
 1261              	.LBB254:
 1262              	.LBB252:
 1263              		.loc 6 228 0
 1264 0014 05F10801 		add	r1, r5, #8
 1265 0018 6846     		mov	r0, sp
 1266              	.LVL114:
 1267              		.loc 6 227 0
 1268 001a 0194     		str	r4, [sp, #4]
 1269 001c 0094     		str	r4, [sp]
 1270 001e 8DF80840 		strb	r4, [sp, #8]
 1271              		.loc 6 228 0
 1272 0022 FFF7FEFF 		bl	memcpy
 1273              	.LVL115:
 1274              	.LBE252:
 1275              	.LBE254:
 1276              		.loc 1 299 0
 1277 0026 9DF80030 		ldrb	r3, [sp]	@ zero_extendqisi2
 1278 002a 012B     		cmp	r3, #1
 1279 002c 01D0     		beq	.L47
 1280              		.loc 1 307 0
 1281 002e 08B0     		add	sp, sp, #32
 1282              		.cfi_remember_state
 1283              		.cfi_def_cfa_offset 16
 1284              		@ sp needed
 1285 0030 70BD     		pop	{r4, r5, r6, pc}
 1286              	.LVL116:
 1287              	.L47:
 1288              		.cfi_restore_state
 1289              	.LBB255:
 1290              	.LBB256:
 1291              		.loc 1 301 0
 1292 0032 EB79     		ldrb	r3, [r5, #7]	@ zero_extendqisi2
 1293              		.loc 1 305 0
 1294 0034 3078     		ldrb	r0, [r6]	@ zero_extendqisi2
 1295              		.loc 1 301 0
 1296 0036 8DF80E30 		strb	r3, [sp, #14]
 1297              		.loc 1 305 0
 1298 003a 03A9     		add	r1, sp, #12
 1299              		.loc 1 302 0
 1300 003c ADF80C40 		strh	r4, [sp, #12]	@ movhi
 1301              		.loc 1 304 0
 1302 0040 8DF80F40 		strb	r4, [sp, #15]
 1303              		.loc 1 305 0
 1304 0044 FFF7FEFF 		bl	resp_ack
 1305              	.LVL117:
 1306              	.LBE256:
 1307              	.LBE255:
 1308              		.loc 1 307 0
 1309 0048 08B0     		add	sp, sp, #32
 1310              		.cfi_def_cfa_offset 16
 1311              		@ sp needed
ARM GAS  C:\Users\IDONNO~1\AppData\Local\Temp\ccY27Fyg.s 			page 24


 1312 004a 70BD     		pop	{r4, r5, r6, pc}
 1313              		.cfi_endproc
 1314              	.LFE415:
 1315              		.size	cmd_set_appconf, .-cmd_set_appconf
 1316              		.section	.text.mavlink_dbgString,"ax",%progbits
 1317              		.align	2
 1318              		.p2align 4,,15
 1319              		.global	mavlink_dbgString
 1320              		.thumb
 1321              		.thumb_func
 1322              		.type	mavlink_dbgString, %function
 1323              	mavlink_dbgString:
 1324              	.LFB416:
 1325              		.loc 1 311 0
 1326              		.cfi_startproc
 1327              		@ args = 0, pretend = 0, frame = 528
 1328              		@ frame_needed = 0, uses_anonymous_args = 0
 1329              	.LVL118:
 1330 0000 70B5     		push	{r4, r5, r6, lr}
 1331              		.cfi_def_cfa_offset 16
 1332              		.cfi_offset 4, -16
 1333              		.cfi_offset 5, -12
 1334              		.cfi_offset 6, -8
 1335              		.cfi_offset 14, -4
 1336 0002 ADF5047D 		sub	sp, sp, #528
 1337              		.cfi_def_cfa_offset 544
 1338              	.LBB278:
 1339              	.LBB279:
 1340              	.LBB280:
 1341              	.LBB281:
 1342              		.loc 3 179 0
 1343 0006 01AE     		add	r6, sp, #4
 1344              	.LBE281:
 1345              	.LBE280:
 1346              	.LBE279:
 1347              	.LBE278:
 1348              		.loc 1 311 0
 1349 0008 0446     		mov	r4, r0
 1350              	.LVL119:
 1351              	.LBB315:
 1352              	.LBB312:
 1353              	.LBB284:
 1354              	.LBB282:
 1355              		.loc 3 179 0
 1356 000a FA22     		movs	r2, #250
 1357 000c 3046     		mov	r0, r6
 1358              	.LVL120:
 1359              		.loc 3 178 0
 1360 000e 0029     		cmp	r1, #0
 1361 0010 68D0     		beq	.L57
 1362              		.loc 3 181 0
 1363 0012 FFF7FEFF 		bl	memcpy
 1364              	.LVL121:
 1365              	.L50:
 1366              	.LBE282:
 1367              	.LBE284:
 1368              		.file 10 "src/core/../mavlink/oroca_bldc/./mavlink_msg_debug_string.h"
ARM GAS  C:\Users\IDONNO~1\AppData\Local\Temp\ccY27Fyg.s 			page 25


 1369              		.loc 10 88 0
 1370 0016 FA25     		movs	r5, #250
 1371 0018 3146     		mov	r1, r6
 1372 001a 2A46     		mov	r2, r5
 1373 001c 42A8     		add	r0, sp, #264
 1374 001e FFF7FEFF 		bl	memcpy
 1375              	.LVL122:
 1376              	.LBB285:
 1377              	.LBB286:
 1378              		.loc 2 83 0
 1379 0022 324B     		ldr	r3, .L59
 1380              		.loc 2 79 0
 1381 0024 8DF80351 		strb	r5, [sp, #259]
 1382              		.loc 2 83 0
 1383 0028 04EB4402 		add	r2, r4, r4, lsl #1
 1384 002c 03EB8203 		add	r3, r3, r2, lsl #2
 1385              	.LBE286:
 1386              	.LBE285:
 1387              		.loc 10 91 0
 1388 0030 0020     		movs	r0, #0
 1389              	.LBB308:
 1390              	.LBB305:
 1391              		.loc 2 83 0
 1392 0032 9A79     		ldrb	r2, [r3, #6]	@ zero_extendqisi2
 1393 0034 8DF80421 		strb	r2, [sp, #260]
 1394              		.loc 2 78 0
 1395 0038 FE26     		movs	r6, #254
 1396              		.loc 2 84 0
 1397 003a 0132     		adds	r2, r2, #1
 1398 003c 9A71     		strb	r2, [r3, #6]
 1399 003e 2946     		mov	r1, r5
 1400              	.LBE305:
 1401              	.LBE308:
 1402              		.loc 10 91 0
 1403 0040 8DF80701 		strb	r0, [sp, #263]
 1404              	.LVL123:
 1405              	.LBB309:
 1406              	.LBB306:
 1407              		.loc 2 80 0
 1408 0044 8DF80501 		strb	r0, [sp, #261]
 1409              		.loc 2 81 0
 1410 0048 8DF80601 		strb	r0, [sp, #262]
 1411              	.LVL124:
 1412              		.loc 2 78 0
 1413 004c 8DF80261 		strb	r6, [sp, #258]
 1414 0050 0DF20310 		addw	r0, sp, #259
 1415              	.LVL125:
 1416 0054 0DF20715 		addw	r5, sp, #263
 1417              	.LBB287:
 1418              	.LBB288:
 1419              	.LBB289:
 1420              	.LBB290:
 1421              		.loc 5 53 0
 1422 0058 4FF6FF72 		movw	r2, #65535
 1423 005c 01E0     		b	.L52
 1424              	.LVL126:
 1425              	.L58:
ARM GAS  C:\Users\IDONNO~1\AppData\Local\Temp\ccY27Fyg.s 			page 26


 1426 005e 10F8011F 		ldrb	r1, [r0, #1]!	@ zero_extendqisi2
 1427              	.LVL127:
 1428              	.L52:
 1429              	.LBE290:
 1430              	.LBE289:
 1431              	.LBB291:
 1432              	.LBB292:
 1433              		.loc 5 39 0
 1434 0062 5140     		eors	r1, r1, r2
 1435              	.LVL128:
 1436              		.loc 5 40 0
 1437 0064 81EA0111 		eor	r1, r1, r1, lsl #4
 1438              	.LVL129:
 1439 0068 C9B2     		uxtb	r1, r1
 1440              	.LVL130:
 1441              		.loc 5 41 0
 1442 006a 0B09     		lsrs	r3, r1, #4
 1443 006c 83EA1222 		eor	r2, r3, r2, lsr #8
 1444              	.LVL131:
 1445 0070 42EA0122 		orr	r2, r2, r1, lsl #8
 1446              	.LBE292:
 1447              	.LBE291:
 1448              		.loc 5 68 0
 1449 0074 A842     		cmp	r0, r5
 1450              	.LBB294:
 1451              	.LBB293:
 1452              		.loc 5 41 0
 1453 0076 82EAC102 		eor	r2, r2, r1, lsl #3
 1454              	.LVL132:
 1455              	.LBE293:
 1456              	.LBE294:
 1457              		.loc 5 68 0
 1458 007a F0D1     		bne	.L58
 1459              	.LVL133:
 1460              	.LBE288:
 1461              	.LBE287:
 1462              		.loc 2 85 0
 1463 007c ADF80021 		strh	r2, [sp, #256]	@ movhi
 1464              	.LVL134:
 1465              	.LBB295:
 1466              	.LBB296:
 1467              		.loc 5 86 0
 1468 0080 42A8     		add	r0, sp, #264
 1469              	.LVL135:
 1470 0082 0DF20225 		addw	r5, sp, #514
 1471              	.LVL136:
 1472              	.L53:
 1473              	.LBB297:
 1474              	.LBB298:
 1475              		.loc 5 39 0
 1476 0086 10F8013B 		ldrb	r3, [r0], #1	@ zero_extendqisi2
 1477              	.LVL137:
 1478 008a 5340     		eors	r3, r3, r2
 1479              	.LVL138:
 1480              		.loc 5 40 0
 1481 008c 83EA0313 		eor	r3, r3, r3, lsl #4
 1482              	.LVL139:
ARM GAS  C:\Users\IDONNO~1\AppData\Local\Temp\ccY27Fyg.s 			page 27


 1483 0090 DBB2     		uxtb	r3, r3
 1484              	.LVL140:
 1485              		.loc 5 41 0
 1486 0092 1909     		lsrs	r1, r3, #4
 1487 0094 81EA1222 		eor	r2, r1, r2, lsr #8
 1488 0098 82EA0322 		eor	r2, r2, r3, lsl #8
 1489 009c 82EAC303 		eor	r3, r2, r3, lsl #3
 1490              	.LVL141:
 1491 00a0 1BB2     		sxth	r3, r3
 1492 00a2 9AB2     		uxth	r2, r3
 1493              	.LBE298:
 1494              	.LBE297:
 1495              		.loc 5 87 0
 1496 00a4 A842     		cmp	r0, r5
 1497              	.LBB300:
 1498              	.LBB299:
 1499              		.loc 5 41 0
 1500 00a6 ADF80021 		strh	r2, [sp, #256]	@ movhi
 1501              	.LVL142:
 1502              	.LBE299:
 1503              	.LBE300:
 1504              		.loc 5 87 0
 1505 00aa ECD1     		bne	.L53
 1506              	.LVL143:
 1507              	.LBE296:
 1508              	.LBE295:
 1509              	.LBB301:
 1510              	.LBB302:
 1511              		.loc 5 39 0
 1512 00ac 83F03201 		eor	r1, r3, #50
 1513              	.LVL144:
 1514              		.loc 5 40 0
 1515 00b0 81EA0111 		eor	r1, r1, r1, lsl #4
 1516              	.LVL145:
 1517 00b4 C9B2     		uxtb	r1, r1
 1518              	.LVL146:
 1519              		.loc 5 41 0
 1520 00b6 0B09     		lsrs	r3, r1, #4
 1521 00b8 83EA1222 		eor	r2, r3, r2, lsr #8
 1522 00bc 82EA0123 		eor	r3, r2, r1, lsl #8
 1523 00c0 83EAC103 		eor	r3, r3, r1, lsl #3
 1524 00c4 1BB2     		sxth	r3, r3
 1525 00c6 9AB2     		uxth	r2, r3
 1526              	.LBE302:
 1527              	.LBE301:
 1528              	.LBE306:
 1529              	.LBE309:
 1530              	.LBE312:
 1531              	.LBE315:
 1532              		.loc 1 316 0
 1533 00c8 2046     		mov	r0, r4
 1534              	.LVL147:
 1535 00ca 40A9     		add	r1, sp, #256
 1536              	.LVL148:
 1537              	.LBB316:
 1538              	.LBB313:
 1539              	.LBB310:
ARM GAS  C:\Users\IDONNO~1\AppData\Local\Temp\ccY27Fyg.s 			page 28


 1540              	.LBB307:
 1541              		.loc 2 91 0
 1542 00cc 140A     		lsrs	r4, r2, #8
 1543              	.LVL149:
 1544              		.loc 2 90 0
 1545 00ce 8DF80232 		strb	r3, [sp, #514]
 1546              	.LBB304:
 1547              	.LBB303:
 1548              		.loc 5 41 0
 1549 00d2 ADF80021 		strh	r2, [sp, #256]	@ movhi
 1550              	.LVL150:
 1551              	.LBE303:
 1552              	.LBE304:
 1553              		.loc 2 91 0
 1554 00d6 8DF80342 		strb	r4, [sp, #515]
 1555              	.LVL151:
 1556              	.LBE307:
 1557              	.LBE310:
 1558              	.LBE313:
 1559              	.LBE316:
 1560              		.loc 1 316 0
 1561 00da FFF7FEFF 		bl	mavlink_msg_send
 1562              	.LVL152:
 1563              		.loc 1 317 0
 1564 00de 0DF5047D 		add	sp, sp, #528
 1565              		.cfi_remember_state
 1566              		.cfi_def_cfa_offset 16
 1567              		@ sp needed
 1568 00e2 70BD     		pop	{r4, r5, r6, pc}
 1569              	.LVL153:
 1570              	.L57:
 1571              		.cfi_restore_state
 1572              	.LBB317:
 1573              	.LBB314:
 1574              	.LBB311:
 1575              	.LBB283:
 1576              		.loc 3 179 0
 1577 00e4 FFF7FEFF 		bl	memset
 1578              	.LVL154:
 1579 00e8 95E7     		b	.L50
 1580              	.L60:
 1581 00ea 00BF     		.align	2
 1582              	.L59:
 1583 00ec 00000000 		.word	.LANCHOR0
 1584              	.LBE283:
 1585              	.LBE311:
 1586              	.LBE314:
 1587              	.LBE317:
 1588              		.cfi_endproc
 1589              	.LFE416:
 1590              		.size	mavlink_dbgString, .-mavlink_dbgString
 1591              		.section	.text.cmd_read_tag,"ax",%progbits
 1592              		.align	2
 1593              		.p2align 4,,15
 1594              		.global	cmd_read_tag
 1595              		.thumb
 1596              		.thumb_func
ARM GAS  C:\Users\IDONNO~1\AppData\Local\Temp\ccY27Fyg.s 			page 29


 1597              		.type	cmd_read_tag, %function
 1598              	cmd_read_tag:
 1599              	.LFB411:
 1600              		.loc 1 158 0
 1601              		.cfi_startproc
 1602              		@ args = 0, pretend = 0, frame = 32
 1603              		@ frame_needed = 0, uses_anonymous_args = 0
 1604              	.LVL155:
 1605 0000 70B5     		push	{r4, r5, r6, lr}
 1606              		.cfi_def_cfa_offset 16
 1607              		.cfi_offset 4, -16
 1608              		.cfi_offset 5, -12
 1609              		.cfi_offset 6, -8
 1610              		.cfi_offset 14, -4
 1611              		.loc 1 163 0
 1612 0002 4568     		ldr	r5, [r0, #4]
 1613              	.LVL156:
 1614              	.LBB320:
 1615              	.LBB321:
 1616              		.file 11 "src/core/../mavlink/oroca_bldc/./mavlink_msg_read_tag.h"
 1617              		.loc 11 251 0
 1618 0004 EA78     		ldrb	r2, [r5, #3]	@ zero_extendqisi2
 1619              	.LBE321:
 1620              	.LBE320:
 1621              		.loc 1 158 0
 1622 0006 88B0     		sub	sp, sp, #32
 1623              		.cfi_def_cfa_offset 48
 1624              	.LVL157:
 1625              	.LBB324:
 1626              	.LBB322:
 1627              		.loc 11 253 0
 1628 0008 0A2A     		cmp	r2, #10
 1629              		.loc 11 252 0
 1630 000a 4FF00004 		mov	r4, #0
 1631              		.loc 11 253 0
 1632 000e 28BF     		it	cs
 1633 0010 0A22     		movcs	r2, #10
 1634              	.LVL158:
 1635              	.LBE322:
 1636              	.LBE324:
 1637              		.loc 1 158 0
 1638 0012 0646     		mov	r6, r0
 1639              	.LBB325:
 1640              	.LBB323:
 1641              		.loc 11 253 0
 1642 0014 05F10801 		add	r1, r5, #8
 1643 0018 6846     		mov	r0, sp
 1644              	.LVL159:
 1645              		.loc 11 252 0
 1646 001a 0194     		str	r4, [sp, #4]
 1647 001c 0094     		str	r4, [sp]
 1648 001e ADF80840 		strh	r4, [sp, #8]	@ movhi
 1649              		.loc 11 253 0
 1650 0022 FFF7FEFF 		bl	memcpy
 1651              	.LVL160:
 1652              	.LBE323:
 1653              	.LBE325:
ARM GAS  C:\Users\IDONNO~1\AppData\Local\Temp\ccY27Fyg.s 			page 30


 1654              		.loc 1 165 0
 1655 0026 9DF80030 		ldrb	r3, [sp]	@ zero_extendqisi2
 1656 002a 012B     		cmp	r3, #1
 1657 002c 19D0     		beq	.L64
 1658              	.L62:
 1659              		.loc 1 175 0
 1660 002e 1349     		ldr	r1, .L65
 1661 0030 0020     		movs	r0, #0
 1662 0032 FFF7FEFF 		bl	mavlink_dbgString
 1663              	.LVL161:
 1664              		.loc 1 177 0
 1665 0036 1249     		ldr	r1, .L65+4
 1666 0038 0020     		movs	r0, #0
 1667 003a FFF7FEFF 		bl	mavlink_dbgString
 1668              	.LVL162:
 1669              		.loc 1 178 0
 1670 003e 1149     		ldr	r1, .L65+8
 1671 0040 0020     		movs	r0, #0
 1672 0042 FFF7FEFF 		bl	mavlink_dbgString
 1673              	.LVL163:
 1674              		.loc 1 179 0
 1675 0046 1049     		ldr	r1, .L65+12
 1676 0048 0020     		movs	r0, #0
 1677 004a FFF7FEFF 		bl	mavlink_dbgString
 1678              	.LVL164:
 1679              		.loc 1 180 0
 1680 004e 0F49     		ldr	r1, .L65+16
 1681 0050 0020     		movs	r0, #0
 1682 0052 FFF7FEFF 		bl	mavlink_dbgString
 1683              	.LVL165:
 1684              		.loc 1 181 0
 1685 0056 0E49     		ldr	r1, .L65+20
 1686 0058 0020     		movs	r0, #0
 1687 005a FFF7FEFF 		bl	mavlink_dbgString
 1688              	.LVL166:
 1689              		.loc 1 182 0
 1690 005e 08B0     		add	sp, sp, #32
 1691              		.cfi_remember_state
 1692              		.cfi_def_cfa_offset 16
 1693              		@ sp needed
 1694 0060 70BD     		pop	{r4, r5, r6, pc}
 1695              	.LVL167:
 1696              	.L64:
 1697              		.cfi_restore_state
 1698              		.loc 1 167 0
 1699 0062 EB79     		ldrb	r3, [r5, #7]	@ zero_extendqisi2
 1700              		.loc 1 171 0
 1701 0064 3078     		ldrb	r0, [r6]	@ zero_extendqisi2
 1702              		.loc 1 167 0
 1703 0066 8DF80E30 		strb	r3, [sp, #14]
 1704              		.loc 1 171 0
 1705 006a 03A9     		add	r1, sp, #12
 1706              		.loc 1 168 0
 1707 006c ADF80C40 		strh	r4, [sp, #12]	@ movhi
 1708              		.loc 1 170 0
 1709 0070 8DF80F40 		strb	r4, [sp, #15]
 1710              		.loc 1 171 0
ARM GAS  C:\Users\IDONNO~1\AppData\Local\Temp\ccY27Fyg.s 			page 31


 1711 0074 FFF7FEFF 		bl	resp_ack
 1712              	.LVL168:
 1713 0078 D9E7     		b	.L62
 1714              	.L66:
 1715 007a 00BF     		.align	2
 1716              	.L65:
 1717 007c 00000000 		.word	.LC0
 1718 0080 14000000 		.word	.LC1
 1719 0084 2C000000 		.word	.LC2
 1720 0088 4C000000 		.word	.LC3
 1721 008c 5C000000 		.word	.LC4
 1722 0090 6C000000 		.word	.LC5
 1723              		.cfi_endproc
 1724              	.LFE411:
 1725              		.size	cmd_read_tag, .-cmd_read_tag
 1726              		.section	.text.mavlink_msg_recv,"ax",%progbits
 1727              		.align	2
 1728              		.p2align 4,,15
 1729              		.global	mavlink_msg_recv
 1730              		.thumb
 1731              		.thumb_func
 1732              		.type	mavlink_msg_recv, %function
 1733              	mavlink_msg_recv:
 1734              	.LFB418:
 1735              		.loc 1 348 0
 1736              		.cfi_startproc
 1737              		@ args = 0, pretend = 0, frame = 16
 1738              		@ frame_needed = 0, uses_anonymous_args = 0
 1739              	.LVL169:
 1740 0000 2DE9F04F 		push	{r4, r5, r6, r7, r8, r9, r10, fp, lr}
 1741              		.cfi_def_cfa_offset 36
 1742              		.cfi_offset 4, -36
 1743              		.cfi_offset 5, -32
 1744              		.cfi_offset 6, -28
 1745              		.cfi_offset 7, -24
 1746              		.cfi_offset 8, -20
 1747              		.cfi_offset 9, -16
 1748              		.cfi_offset 10, -12
 1749              		.cfi_offset 11, -8
 1750              		.cfi_offset 14, -4
 1751 0004 9046     		mov	r8, r2
 1752 0006 85B0     		sub	sp, sp, #20
 1753              		.cfi_def_cfa_offset 56
 1754              		.loc 1 348 0
 1755 0008 0546     		mov	r5, r0
 1756              		.loc 1 356 0
 1757 000a 1070     		strb	r0, [r2]
 1758              		.loc 1 348 0
 1759 000c 0C46     		mov	r4, r1
 1760              	.LBB406:
 1761              	.LBB407:
 1762              	.LBB408:
 1763              	.LBB409:
 1764              	.LBB410:
 1765              		.loc 2 274 0
 1766 000e BC4E     		ldr	r6, .L133
 1767              	.LBE410:
ARM GAS  C:\Users\IDONNO~1\AppData\Local\Temp\ccY27Fyg.s 			page 32


 1768              	.LBE409:
 1769              	.LBE408:
 1770              	.LBE407:
 1771              	.LBE406:
 1772              		.loc 1 358 0
 1773 0010 88B9     		cbnz	r0, .L68
 1774              	.LVL170:
 1775              	.LBB534:
 1776              	.LBB526:
 1777              	.LBB505:
 1778              	.LBB494:
 1779              	.LBB483:
 1780              		.loc 2 276 0
 1781 0012 F378     		ldrb	r3, [r6, #3]	@ zero_extendqisi2
 1782              		.loc 2 274 0
 1783 0014 3070     		strb	r0, [r6]
 1784              		.loc 2 276 0
 1785 0016 0A2B     		cmp	r3, #10
 1786 0018 00F22482 		bhi	.L69
 1787 001c DFE813F0 		tbh	[pc, r3, lsl #1]
 1788              	.LVL171:
 1789              	.L71:
 1790 0020 6700     		.2byte	(.L70-.L71)/2
 1791 0022 6700     		.2byte	(.L70-.L71)/2
 1792 0024 6D00     		.2byte	(.L72-.L71)/2
 1793 0026 8A00     		.2byte	(.L73-.L71)/2
 1794 0028 9D00     		.2byte	(.L74-.L71)/2
 1795 002a B000     		.2byte	(.L75-.L71)/2
 1796 002c C300     		.2byte	(.L76-.L71)/2
 1797 002e D900     		.2byte	(.L77-.L71)/2
 1798 0030 F400     		.2byte	(.L78-.L71)/2
 1799 0032 1501     		.2byte	(.L79-.L71)/2
 1800 0034 1501     		.2byte	(.L79-.L71)/2
 1801              		.p2align 1
 1802              	.L68:
 1803              	.LBE483:
 1804              	.LBE494:
 1805              	.LBE505:
 1806              	.LBE526:
 1807              	.LBE534:
 1808              		.loc 1 368 0
 1809 0036 B34B     		ldr	r3, .L133+4
 1810              	.LBB535:
 1811              	.LBB536:
 1812              	.LBB537:
 1813              	.LBB538:
 1814              	.LBB539:
 1815              		.loc 2 276 0
 1816 0038 F27B     		ldrb	r2, [r6, #15]	@ zero_extendqisi2
 1817              	.LVL172:
 1818              	.LBE539:
 1819              	.LBE538:
 1820              	.LBE537:
 1821              	.LBE536:
 1822              	.LBE535:
 1823              		.loc 1 368 0
 1824 003a 0701     		lsls	r7, r0, #4
ARM GAS  C:\Users\IDONNO~1\AppData\Local\Temp\ccY27Fyg.s 			page 33


 1825 003c 3818     		adds	r0, r7, r0
 1826              	.LVL173:
 1827              	.LBB659:
 1828              	.LBB651:
 1829              	.LBB632:
 1830              	.LBB622:
 1831              	.LBB612:
 1832              		.loc 2 274 0
 1833 003e 0021     		movs	r1, #0
 1834              	.LVL174:
 1835              	.LBE612:
 1836              	.LBE622:
 1837              	.LBE632:
 1838              	.LBE651:
 1839              	.LBE659:
 1840              		.loc 1 368 0
 1841 0040 03EB001B 		add	fp, r3, r0, lsl #4
 1842              	.LVL175:
 1843              	.LBB660:
 1844              	.LBB652:
 1845              	.LBB633:
 1846              	.LBB623:
 1847              	.LBB613:
 1848              		.loc 2 274 0
 1849 0044 3173     		strb	r1, [r6, #12]
 1850              	.LVL176:
 1851              		.loc 2 276 0
 1852 0046 0A2A     		cmp	r2, #10
 1853 0048 00F23582 		bhi	.L95
 1854 004c DFE812F0 		tbh	[pc, r2, lsl #1]
 1855              	.L97:
 1856 0050 3101     		.2byte	(.L96-.L97)/2
 1857 0052 3101     		.2byte	(.L96-.L97)/2
 1858 0054 3801     		.2byte	(.L98-.L97)/2
 1859 0056 6001     		.2byte	(.L99-.L97)/2
 1860 0058 7701     		.2byte	(.L100-.L97)/2
 1861 005a 8E01     		.2byte	(.L101-.L97)/2
 1862 005c A501     		.2byte	(.L102-.L97)/2
 1863 005e C001     		.2byte	(.L103-.L97)/2
 1864 0060 E801     		.2byte	(.L104-.L97)/2
 1865 0062 0B00     		.2byte	(.L105-.L97)/2
 1866 0064 0B00     		.2byte	(.L105-.L97)/2
 1867              		.p2align 1
 1868              	.L105:
 1869              		.loc 2 375 0
 1870 0066 0A2A     		cmp	r2, #10
 1871 0068 DFF89C92 		ldr	r9, .L133+8
 1872 006c 05D0     		beq	.L112
 1873 006e B9F81021 		ldrh	r2, [r9, #272]
 1874 0072 B4EB122F 		cmp	r4, r2, lsr #8
 1875 0076 00F07182 		beq	.L113
 1876              	.L112:
 1877              		.loc 2 377 0
 1878 007a 4FF0020A 		mov	r10, #2
 1879 007e 86F80CA0 		strb	r10, [r6, #12]
 1880 0082 CDF80CA0 		str	r10, [sp, #12]
 1881              	.L114:
ARM GAS  C:\Users\IDONNO~1\AppData\Local\Temp\ccY27Fyg.s 			page 34


 1882 0086 0293     		str	r3, [sp, #8]
 1883              		.loc 2 383 0
 1884 0088 337C     		ldrb	r3, [r6, #16]	@ zero_extendqisi2
 1885 008a 0193     		str	r3, [sp, #4]
 1886 008c 09EB0300 		add	r0, r9, r3
 1887              		.loc 2 384 0
 1888 0090 9D4B     		ldr	r3, .L133+8
 1889              		.loc 2 383 0
 1890 0092 80F81941 		strb	r4, [r0, #281]
 1891              		.loc 2 382 0
 1892 0096 4FF0010E 		mov	lr, #1
 1893              		.loc 2 384 0
 1894 009a 03F58871 		add	r1, r3, #272
 1895 009e 4FF48872 		mov	r2, #272
 1896 00a2 5846     		mov	r0, fp
 1897              		.loc 2 382 0
 1898 00a4 86F80FE0 		strb	lr, [r6, #15]
 1899              		.loc 2 384 0
 1900 00a8 FFF7FEFF 		bl	memcpy
 1901              	.LVL177:
 1902              		.loc 2 390 0
 1903 00ac 039B     		ldr	r3, [sp, #12]
 1904              		.loc 2 382 0
 1905 00ae DFF850A2 		ldr	r10, .L133
 1906              		.loc 2 390 0
 1907 00b2 012B     		cmp	r3, #1
 1908 00b4 029B     		ldr	r3, [sp, #8]
 1909 00b6 40F05B82 		bne	.L128
 1910              		.loc 2 397 0
 1911 00ba 9349     		ldr	r1, .L133+8
 1912              		.loc 2 399 0
 1913 00bc BAF81420 		ldrh	r2, [r10, #20]
 1914              		.loc 2 397 0
 1915 00c0 91F81411 		ldrb	r1, [r1, #276]	@ zero_extendqisi2
 1916 00c4 8AF81110 		strb	r1, [r10, #17]
 1917              		.loc 2 399 0
 1918 00c8 0AB9     		cbnz	r2, .L117
 1919 00ca AAF81620 		strh	r2, [r10, #22]	@ movhi
 1920              	.L117:
 1921              		.loc 2 404 0
 1922 00ce 3D44     		add	r5, r5, r7
 1923 00d0 99F81311 		ldrb	r1, [r9, #275]	@ zero_extendqisi2
 1924 00d4 03EB0513 		add	r3, r3, r5, lsl #4
 1925              		.loc 2 401 0
 1926 00d8 0132     		adds	r2, r2, #1
 1927 00da B282     		strh	r2, [r6, #20]	@ movhi
 1928              	.LBE613:
 1929              	.LBE623:
 1930              	.LBE633:
 1931              	.LBE652:
 1932              	.LBE660:
 1933              		.loc 1 371 0
 1934 00dc 0120     		movs	r0, #1
 1935              	.LBB661:
 1936              	.LBB653:
 1937              	.LBB634:
 1938              	.LBB624:
ARM GAS  C:\Users\IDONNO~1\AppData\Local\Temp\ccY27Fyg.s 			page 35


 1939              	.LBB614:
 1940              		.loc 2 410 0
 1941 00de 0022     		movs	r2, #0
 1942              		.loc 2 404 0
 1943 00e0 D970     		strb	r1, [r3, #3]
 1944              		.loc 2 410 0
 1945 00e2 B273     		strb	r2, [r6, #14]
 1946              	.LVL178:
 1947              	.LBE614:
 1948              	.LBE624:
 1949              	.LBE634:
 1950              	.LBE653:
 1951              	.LBE661:
 1952              		.loc 1 370 0
 1953 00e4 C8F804B0 		str	fp, [r8, #4]
 1954              	.LVL179:
 1955              		.loc 1 378 0
 1956 00e8 05B0     		add	sp, sp, #20
 1957              		.cfi_remember_state
 1958              		.cfi_def_cfa_offset 36
 1959              		@ sp needed
 1960 00ea BDE8F08F 		pop	{r4, r5, r6, r7, r8, r9, r10, fp, pc}
 1961              	.LVL180:
 1962              	.L70:
 1963              		.cfi_restore_state
 1964              	.LBB662:
 1965              	.LBB527:
 1966              	.LBB506:
 1967              	.LBB495:
 1968              	.LBB484:
 1969              		.loc 2 280 0
 1970 00ee FE29     		cmp	r1, #254
 1971 00f0 00F02682 		beq	.L129
 1972 00f4 844B     		ldr	r3, .L133+8
 1973 00f6 DB78     		ldrb	r3, [r3, #3]	@ zero_extendqisi2
 1974 00f8 14E0     		b	.L82
 1975              	.L72:
 1976              		.loc 2 306 0
 1977 00fa 8349     		ldr	r1, .L133+8
 1978              	.LVL181:
 1979              	.LBB411:
 1980              	.LBB412:
 1981              	.LBB413:
 1982              		.loc 5 39 0
 1983 00fc 0888     		ldrh	r0, [r1]
 1984              	.LVL182:
 1985              	.LBE413:
 1986              	.LBE412:
 1987              	.LBE411:
 1988              		.loc 2 306 0
 1989 00fe CC70     		strb	r4, [r1, #3]
 1990              	.LBB418:
 1991              	.LBB416:
 1992              	.LBB414:
 1993              		.loc 5 39 0
 1994 0100 84EA0003 		eor	r3, r4, r0
 1995              		.loc 5 40 0
ARM GAS  C:\Users\IDONNO~1\AppData\Local\Temp\ccY27Fyg.s 			page 36


 1996 0104 83EA0313 		eor	r3, r3, r3, lsl #4
 1997 0108 DBB2     		uxtb	r3, r3
 1998              		.loc 5 41 0
 1999 010a 1A09     		lsrs	r2, r3, #4
 2000 010c 82EA1022 		eor	r2, r2, r0, lsr #8
 2001 0110 42EA0322 		orr	r2, r2, r3, lsl #8
 2002 0114 82EAC302 		eor	r2, r2, r3, lsl #3
 2003              	.LBE414:
 2004              	.LBE416:
 2005              	.LBE418:
 2006              		.loc 2 307 0
 2007 0118 0025     		movs	r5, #0
 2008              		.loc 2 309 0
 2009 011a 0420     		movs	r0, #4
 2010 011c 2346     		mov	r3, r4
 2011              	.LBB419:
 2012              	.LBB417:
 2013              	.LBB415:
 2014              		.loc 5 41 0
 2015 011e 0A80     		strh	r2, [r1]	@ movhi
 2016              	.LBE415:
 2017              	.LBE417:
 2018              	.LBE419:
 2019              		.loc 2 307 0
 2020 0120 3571     		strb	r5, [r6, #4]
 2021              		.loc 2 309 0
 2022 0122 F070     		strb	r0, [r6, #3]
 2023              	.L82:
 2024              	.LVL183:
 2025              		.loc 2 404 0
 2026 0124 7749     		ldr	r1, .L133+4
 2027              		.loc 2 410 0
 2028 0126 0022     		movs	r2, #0
 2029              		.loc 2 404 0
 2030 0128 CB70     		strb	r3, [r1, #3]
 2031              		.loc 2 410 0
 2032 012a B270     		strb	r2, [r6, #2]
 2033              	.LVL184:
 2034              	.L91:
 2035              	.LBE484:
 2036              	.LBE495:
 2037              	.LBE506:
 2038              	.LBE527:
 2039              	.LBE662:
 2040              		.loc 1 349 0
 2041 012c 0020     		movs	r0, #0
 2042              	.LVL185:
 2043              		.loc 1 378 0
 2044 012e 05B0     		add	sp, sp, #20
 2045              		.cfi_remember_state
 2046              		.cfi_def_cfa_offset 36
 2047              		@ sp needed
 2048 0130 BDE8F08F 		pop	{r4, r5, r6, r7, r8, r9, r10, fp, pc}
 2049              	.LVL186:
 2050              	.L73:
 2051              		.cfi_restore_state
 2052              	.LBB663:
ARM GAS  C:\Users\IDONNO~1\AppData\Local\Temp\ccY27Fyg.s 			page 37


 2053              	.LBB528:
 2054              	.LBB507:
 2055              	.LBB496:
 2056              	.LBB485:
 2057              		.loc 2 320 0
 2058 0134 744A     		ldr	r2, .L133+8
 2059              	.LBB420:
 2060              	.LBB421:
 2061              	.LBB422:
 2062              		.loc 5 39 0
 2063 0136 1188     		ldrh	r1, [r2]
 2064              	.LVL187:
 2065              	.LBE422:
 2066              	.LBE421:
 2067              	.LBE420:
 2068              		.loc 2 320 0
 2069 0138 5471     		strb	r4, [r2, #5]
 2070              	.LVL188:
 2071              	.LBB427:
 2072              	.LBB425:
 2073              	.LBB423:
 2074              		.loc 5 39 0
 2075 013a 4C40     		eors	r4, r4, r1
 2076              	.LVL189:
 2077              		.loc 5 40 0
 2078 013c 84EA0414 		eor	r4, r4, r4, lsl #4
 2079              	.LVL190:
 2080 0140 E4B2     		uxtb	r4, r4
 2081              	.LVL191:
 2082              		.loc 5 41 0
 2083 0142 2309     		lsrs	r3, r4, #4
 2084 0144 83EA1123 		eor	r3, r3, r1, lsr #8
 2085 0148 43EA0423 		orr	r3, r3, r4, lsl #8
 2086 014c 83EAC404 		eor	r4, r3, r4, lsl #3
 2087              	.LVL192:
 2088              	.LBE423:
 2089              	.LBE425:
 2090              	.LBE427:
 2091              		.loc 2 322 0
 2092 0150 0521     		movs	r1, #5
 2093              	.LBB428:
 2094              	.LBB426:
 2095              	.LBB424:
 2096              		.loc 5 41 0
 2097 0152 1480     		strh	r4, [r2]	@ movhi
 2098              	.LVL193:
 2099 0154 D378     		ldrb	r3, [r2, #3]	@ zero_extendqisi2
 2100              	.LBE424:
 2101              	.LBE426:
 2102              	.LBE428:
 2103              		.loc 2 322 0
 2104 0156 F170     		strb	r1, [r6, #3]
 2105 0158 E4E7     		b	.L82
 2106              	.LVL194:
 2107              	.L74:
 2108              		.loc 2 314 0
 2109 015a 6B4A     		ldr	r2, .L133+8
ARM GAS  C:\Users\IDONNO~1\AppData\Local\Temp\ccY27Fyg.s 			page 38


 2110              	.LBB429:
 2111              	.LBB430:
 2112              	.LBB431:
 2113              		.loc 5 39 0
 2114 015c 1188     		ldrh	r1, [r2]
 2115              	.LVL195:
 2116              	.LBE431:
 2117              	.LBE430:
 2118              	.LBE429:
 2119              		.loc 2 314 0
 2120 015e 1471     		strb	r4, [r2, #4]
 2121              	.LVL196:
 2122              	.LBB436:
 2123              	.LBB434:
 2124              	.LBB432:
 2125              		.loc 5 39 0
 2126 0160 4C40     		eors	r4, r4, r1
 2127              	.LVL197:
 2128              		.loc 5 40 0
 2129 0162 84EA0414 		eor	r4, r4, r4, lsl #4
 2130              	.LVL198:
 2131 0166 E4B2     		uxtb	r4, r4
 2132              	.LVL199:
 2133              		.loc 5 41 0
 2134 0168 2309     		lsrs	r3, r4, #4
 2135 016a 83EA1123 		eor	r3, r3, r1, lsr #8
 2136 016e 43EA0423 		orr	r3, r3, r4, lsl #8
 2137 0172 83EAC404 		eor	r4, r3, r4, lsl #3
 2138              	.LVL200:
 2139              	.LBE432:
 2140              	.LBE434:
 2141              	.LBE436:
 2142              		.loc 2 316 0
 2143 0176 0321     		movs	r1, #3
 2144              	.LBB437:
 2145              	.LBB435:
 2146              	.LBB433:
 2147              		.loc 5 41 0
 2148 0178 1480     		strh	r4, [r2]	@ movhi
 2149              	.LVL201:
 2150 017a D378     		ldrb	r3, [r2, #3]	@ zero_extendqisi2
 2151              	.LBE433:
 2152              	.LBE435:
 2153              	.LBE437:
 2154              		.loc 2 316 0
 2155 017c F170     		strb	r1, [r6, #3]
 2156 017e D1E7     		b	.L82
 2157              	.LVL202:
 2158              	.L75:
 2159              		.loc 2 326 0
 2160 0180 614A     		ldr	r2, .L133+8
 2161              	.LBB438:
 2162              	.LBB439:
 2163              	.LBB440:
 2164              		.loc 5 39 0
 2165 0182 1188     		ldrh	r1, [r2]
 2166              	.LVL203:
ARM GAS  C:\Users\IDONNO~1\AppData\Local\Temp\ccY27Fyg.s 			page 39


 2167              	.LBE440:
 2168              	.LBE439:
 2169              	.LBE438:
 2170              		.loc 2 326 0
 2171 0184 9471     		strb	r4, [r2, #6]
 2172              	.LVL204:
 2173              	.LBB445:
 2174              	.LBB443:
 2175              	.LBB441:
 2176              		.loc 5 39 0
 2177 0186 4C40     		eors	r4, r4, r1
 2178              	.LVL205:
 2179              		.loc 5 40 0
 2180 0188 84EA0414 		eor	r4, r4, r4, lsl #4
 2181              	.LVL206:
 2182 018c E4B2     		uxtb	r4, r4
 2183              	.LVL207:
 2184              		.loc 5 41 0
 2185 018e 2309     		lsrs	r3, r4, #4
 2186 0190 83EA1123 		eor	r3, r3, r1, lsr #8
 2187 0194 43EA0423 		orr	r3, r3, r4, lsl #8
 2188 0198 83EAC404 		eor	r4, r3, r4, lsl #3
 2189              	.LVL208:
 2190              	.LBE441:
 2191              	.LBE443:
 2192              	.LBE445:
 2193              		.loc 2 328 0
 2194 019c 0621     		movs	r1, #6
 2195              	.LBB446:
 2196              	.LBB444:
 2197              	.LBB442:
 2198              		.loc 5 41 0
 2199 019e 1480     		strh	r4, [r2]	@ movhi
 2200              	.LVL209:
 2201 01a0 D378     		ldrb	r3, [r2, #3]	@ zero_extendqisi2
 2202              	.LBE442:
 2203              	.LBE444:
 2204              	.LBE446:
 2205              		.loc 2 328 0
 2206 01a2 F170     		strb	r1, [r6, #3]
 2207 01a4 BEE7     		b	.L82
 2208              	.LVL210:
 2209              	.L76:
 2210              		.loc 2 340 0
 2211 01a6 5849     		ldr	r1, .L133+8
 2212              	.LVL211:
 2213              	.LBB447:
 2214              	.LBB448:
 2215              	.LBB449:
 2216              		.loc 5 39 0
 2217 01a8 0888     		ldrh	r0, [r1]
 2218              	.LVL212:
 2219              	.LBE449:
 2220              	.LBE448:
 2221              	.LBE447:
 2222              		.loc 2 340 0
 2223 01aa CC71     		strb	r4, [r1, #7]
ARM GAS  C:\Users\IDONNO~1\AppData\Local\Temp\ccY27Fyg.s 			page 40


 2224              	.LVL213:
 2225              	.LBB454:
 2226              	.LBB452:
 2227              	.LBB450:
 2228              		.loc 5 39 0
 2229 01ac 4440     		eors	r4, r4, r0
 2230              	.LVL214:
 2231              		.loc 5 40 0
 2232 01ae 84EA0414 		eor	r4, r4, r4, lsl #4
 2233              	.LVL215:
 2234 01b2 E4B2     		uxtb	r4, r4
 2235              	.LVL216:
 2236              		.loc 5 41 0
 2237 01b4 2209     		lsrs	r2, r4, #4
 2238 01b6 82EA1022 		eor	r2, r2, r0, lsr #8
 2239 01ba 42EA0422 		orr	r2, r2, r4, lsl #8
 2240              	.LBE450:
 2241              	.LBE452:
 2242              	.LBE454:
 2243              		.loc 2 342 0
 2244 01be CB78     		ldrb	r3, [r1, #3]	@ zero_extendqisi2
 2245              	.LBB455:
 2246              	.LBB453:
 2247              	.LBB451:
 2248              		.loc 5 41 0
 2249 01c0 82EAC404 		eor	r4, r2, r4, lsl #3
 2250              	.LVL217:
 2251 01c4 0C80     		strh	r4, [r1]	@ movhi
 2252              	.LVL218:
 2253              	.LBE451:
 2254              	.LBE453:
 2255              	.LBE455:
 2256              		.loc 2 342 0
 2257 01c6 002B     		cmp	r3, #0
 2258 01c8 40F0A781 		bne	.L83
 2259              		.loc 2 344 0
 2260 01cc 0822     		movs	r2, #8
 2261 01ce F270     		strb	r2, [r6, #3]
 2262 01d0 A8E7     		b	.L82
 2263              	.LVL219:
 2264              	.L77:
 2265              		.loc 2 353 0
 2266 01d2 4D48     		ldr	r0, .L133+8
 2267              	.LVL220:
 2268 01d4 3279     		ldrb	r2, [r6, #4]	@ zero_extendqisi2
 2269 01d6 4A4D     		ldr	r5, .L133
 2270 01d8 8318     		adds	r3, r0, r2
 2271 01da 0132     		adds	r2, r2, #1
 2272 01dc 1972     		strb	r1, [r3, #8]
 2273              	.LVL221:
 2274              	.LBB456:
 2275              	.LBB457:
 2276              	.LBB458:
 2277              		.loc 5 39 0
 2278 01de 0788     		ldrh	r7, [r0]
 2279              	.LBE458:
 2280              	.LBE457:
ARM GAS  C:\Users\IDONNO~1\AppData\Local\Temp\ccY27Fyg.s 			page 41


 2281              	.LBE456:
 2282              		.loc 2 355 0
 2283 01e0 C378     		ldrb	r3, [r0, #3]	@ zero_extendqisi2
 2284              	.LBB465:
 2285              	.LBB462:
 2286              	.LBB459:
 2287              		.loc 5 39 0
 2288 01e2 7C40     		eors	r4, r4, r7
 2289              	.LVL222:
 2290              		.loc 5 40 0
 2291 01e4 84EA0414 		eor	r4, r4, r4, lsl #4
 2292              	.LVL223:
 2293 01e8 E4B2     		uxtb	r4, r4
 2294              	.LVL224:
 2295              		.loc 5 41 0
 2296 01ea 2109     		lsrs	r1, r4, #4
 2297              	.LVL225:
 2298 01ec 81EA1721 		eor	r1, r1, r7, lsr #8
 2299              	.LBE459:
 2300              	.LBE462:
 2301              	.LBE465:
 2302              		.loc 2 353 0
 2303 01f0 D2B2     		uxtb	r2, r2
 2304              	.LVL226:
 2305              	.LBB466:
 2306              	.LBB463:
 2307              	.LBB460:
 2308              		.loc 5 41 0
 2309 01f2 41EA0421 		orr	r1, r1, r4, lsl #8
 2310 01f6 81EAC404 		eor	r4, r1, r4, lsl #3
 2311              	.LVL227:
 2312              	.LBE460:
 2313              	.LBE463:
 2314              	.LBE466:
 2315              		.loc 2 355 0
 2316 01fa 9A42     		cmp	r2, r3
 2317              		.loc 2 353 0
 2318 01fc 3271     		strb	r2, [r6, #4]
 2319              	.LBB467:
 2320              	.LBB464:
 2321              	.LBB461:
 2322              		.loc 5 41 0
 2323 01fe 0480     		strh	r4, [r0]	@ movhi
 2324              	.LVL228:
 2325              	.LBE461:
 2326              	.LBE464:
 2327              	.LBE467:
 2328              		.loc 2 355 0
 2329 0200 90D1     		bne	.L82
 2330              		.loc 2 357 0
 2331 0202 0822     		movs	r2, #8
 2332 0204 EA70     		strb	r2, [r5, #3]
 2333 0206 8DE7     		b	.L82
 2334              	.LVL229:
 2335              	.L78:
 2336              	.LBB468:
 2337              	.LBB469:
ARM GAS  C:\Users\IDONNO~1\AppData\Local\Temp\ccY27Fyg.s 			page 42


 2338              	.LBB470:
 2339              		.loc 5 39 0
 2340 0208 DFF8FC90 		ldr	r9, .L133+8
 2341              	.LBE470:
 2342              	.LBE469:
 2343              	.LBE468:
 2344              		.loc 2 363 0
 2345 020c 3F4A     		ldr	r2, .L133+12
 2346 020e 99F80730 		ldrb	r3, [r9, #7]	@ zero_extendqisi2
 2347              	.LBB475:
 2348              	.LBB473:
 2349              	.LBB471:
 2350              		.loc 5 39 0
 2351 0212 B9F80010 		ldrh	r1, [r9]
 2352              	.LVL230:
 2353 0216 D35C     		ldrb	r3, [r2, r3]	@ zero_extendqisi2
 2354 0218 4B40     		eors	r3, r3, r1
 2355              	.LVL231:
 2356              		.loc 5 40 0
 2357 021a 83EA0313 		eor	r3, r3, r3, lsl #4
 2358              	.LVL232:
 2359 021e DBB2     		uxtb	r3, r3
 2360              	.LVL233:
 2361              		.loc 5 41 0
 2362 0220 1A09     		lsrs	r2, r3, #4
 2363 0222 82EA1122 		eor	r2, r2, r1, lsr #8
 2364 0226 42EA0322 		orr	r2, r2, r3, lsl #8
 2365 022a 82EAC303 		eor	r3, r2, r3, lsl #3
 2366              	.LVL234:
 2367              	.LBE471:
 2368              	.LBE473:
 2369              	.LBE475:
 2370              		.loc 2 365 0
 2371 022e DAB2     		uxtb	r2, r3
 2372 0230 9442     		cmp	r4, r2
 2373              	.LBB476:
 2374              	.LBB474:
 2375              	.LBB472:
 2376              		.loc 5 41 0
 2377 0232 A9F80030 		strh	r3, [r9]	@ movhi
 2378              	.LVL235:
 2379              	.LBE472:
 2380              	.LBE474:
 2381              	.LBE476:
 2382              		.loc 2 366 0
 2383 0236 14BF     		ite	ne
 2384 0238 0A23     		movne	r3, #10
 2385              		.loc 2 368 0
 2386 023a 0923     		moveq	r3, #9
 2387 023c F370     		strb	r3, [r6, #3]
 2388              		.loc 2 370 0
 2389 023e 3379     		ldrb	r3, [r6, #4]	@ zero_extendqisi2
 2390 0240 4B44     		add	r3, r3, r9
 2391 0242 1C72     		strb	r4, [r3, #8]
 2392 0244 99F80330 		ldrb	r3, [r9, #3]	@ zero_extendqisi2
 2393 0248 6CE7     		b	.L82
 2394              	.LVL236:
ARM GAS  C:\Users\IDONNO~1\AppData\Local\Temp\ccY27Fyg.s 			page 43


 2395              	.L79:
 2396              		.loc 2 375 0
 2397 024a 0A2B     		cmp	r3, #10
 2398 024c DFF8B890 		ldr	r9, .L133+8
 2399 0250 05D0     		beq	.L86
 2400 0252 B9F80030 		ldrh	r3, [r9]
 2401 0256 B1EB132F 		cmp	r1, r3, lsr #8
 2402 025a 00F07B81 		beq	.L87
 2403              	.L86:
 2404              		.loc 2 377 0
 2405 025e 0223     		movs	r3, #2
 2406 0260 3370     		strb	r3, [r6]
 2407 0262 9B46     		mov	fp, r3
 2408              	.L88:
 2409              		.loc 2 383 0
 2410 0264 3579     		ldrb	r5, [r6, #4]	@ zero_extendqisi2
 2411 0266 DFF8A0A0 		ldr	r10, .L133+8
 2412              		.loc 2 384 0
 2413 026a 2648     		ldr	r0, .L133+4
 2414              	.LVL237:
 2415              		.loc 2 382 0
 2416 026c 244F     		ldr	r7, .L133
 2417              		.loc 2 383 0
 2418 026e 09EB0502 		add	r2, r9, r5
 2419              		.loc 2 382 0
 2420 0272 0123     		movs	r3, #1
 2421              		.loc 2 383 0
 2422 0274 5472     		strb	r4, [r2, #9]
 2423              		.loc 2 384 0
 2424 0276 5146     		mov	r1, r10
 2425              	.LVL238:
 2426 0278 4FF48872 		mov	r2, #272
 2427              		.loc 2 382 0
 2428 027c F370     		strb	r3, [r6, #3]
 2429              		.loc 2 384 0
 2430 027e FFF7FEFF 		bl	memcpy
 2431              	.LVL239:
 2432              		.loc 2 390 0
 2433 0282 BBF1010F 		cmp	fp, #1
 2434 0286 40F07081 		bne	.L130
 2435              		.loc 2 399 0
 2436 028a 3B89     		ldrh	r3, [r7, #8]
 2437              		.loc 2 397 0
 2438 028c 9AF80420 		ldrb	r2, [r10, #4]	@ zero_extendqisi2
 2439 0290 7A71     		strb	r2, [r7, #5]
 2440              		.loc 2 399 0
 2441 0292 03B9     		cbnz	r3, .L92
 2442 0294 7B81     		strh	r3, [r7, #10]	@ movhi
 2443              	.L92:
 2444              		.loc 2 404 0
 2445 0296 1B4A     		ldr	r2, .L133+4
 2446 0298 99F80310 		ldrb	r1, [r9, #3]	@ zero_extendqisi2
 2447 029c D170     		strb	r1, [r2, #3]
 2448              		.loc 2 401 0
 2449 029e 0133     		adds	r3, r3, #1
 2450              		.loc 2 410 0
 2451 02a0 0021     		movs	r1, #0
ARM GAS  C:\Users\IDONNO~1\AppData\Local\Temp\ccY27Fyg.s 			page 44


 2452              	.LBE485:
 2453              	.LBE496:
 2454              	.LBE507:
 2455              	.LBE528:
 2456              	.LBE663:
 2457              		.loc 1 363 0
 2458 02a2 0120     		movs	r0, #1
 2459              	.LBB664:
 2460              	.LBB529:
 2461              	.LBB508:
 2462              	.LBB497:
 2463              	.LBB486:
 2464              		.loc 2 401 0
 2465 02a4 3381     		strh	r3, [r6, #8]	@ movhi
 2466              		.loc 2 410 0
 2467 02a6 B170     		strb	r1, [r6, #2]
 2468              	.LVL240:
 2469              	.LBE486:
 2470              	.LBE497:
 2471              	.LBE508:
 2472              	.LBE529:
 2473              	.LBE664:
 2474              		.loc 1 362 0
 2475 02a8 C8F80420 		str	r2, [r8, #4]
 2476              	.LVL241:
 2477              		.loc 1 378 0
 2478 02ac 05B0     		add	sp, sp, #20
 2479              		.cfi_remember_state
 2480              		.cfi_def_cfa_offset 36
 2481              		@ sp needed
 2482 02ae BDE8F08F 		pop	{r4, r5, r6, r7, r8, r9, r10, fp, pc}
 2483              	.LVL242:
 2484              	.L96:
 2485              		.cfi_restore_state
 2486              	.LBB665:
 2487              	.LBB654:
 2488              	.LBB635:
 2489              	.LBB625:
 2490              	.LBB615:
 2491              		.loc 2 280 0
 2492 02b2 FE2C     		cmp	r4, #254
 2493              		.loc 2 283 0
 2494 02b4 144A     		ldr	r2, .L133+8
 2495              		.loc 2 280 0
 2496 02b6 00F03681 		beq	.L131
 2497 02ba 92F81341 		ldrb	r4, [r2, #275]	@ zero_extendqisi2
 2498              	.LVL243:
 2499 02be 17E0     		b	.L108
 2500              	.LVL244:
 2501              	.L98:
 2502              		.loc 2 306 0
 2503 02c0 DFF844E0 		ldr	lr, .L133+8
 2504              	.LBB540:
 2505              	.LBB541:
 2506              	.LBB542:
 2507              		.loc 5 39 0
 2508 02c4 BEF81001 		ldrh	r0, [lr, #272]
ARM GAS  C:\Users\IDONNO~1\AppData\Local\Temp\ccY27Fyg.s 			page 45


 2509              	.LBE542:
 2510              	.LBE541:
 2511              	.LBE540:
 2512              		.loc 2 306 0
 2513 02c8 8EF81341 		strb	r4, [lr, #275]
 2514              	.LBB547:
 2515              	.LBB545:
 2516              	.LBB543:
 2517              		.loc 5 39 0
 2518 02cc 84EA0002 		eor	r2, r4, r0
 2519              		.loc 5 40 0
 2520 02d0 82EA0212 		eor	r2, r2, r2, lsl #4
 2521 02d4 D2B2     		uxtb	r2, r2
 2522              		.loc 5 41 0
 2523 02d6 1109     		lsrs	r1, r2, #4
 2524 02d8 81EA1021 		eor	r1, r1, r0, lsr #8
 2525 02dc 41EA0221 		orr	r1, r1, r2, lsl #8
 2526 02e0 81EAC202 		eor	r2, r1, r2, lsl #3
 2527              	.LBE543:
 2528              	.LBE545:
 2529              	.LBE547:
 2530              		.loc 2 307 0
 2531 02e4 0020     		movs	r0, #0
 2532              		.loc 2 309 0
 2533 02e6 0421     		movs	r1, #4
 2534              	.LBB548:
 2535              	.LBB546:
 2536              	.LBB544:
 2537              		.loc 5 41 0
 2538 02e8 AEF81021 		strh	r2, [lr, #272]	@ movhi
 2539              	.LBE544:
 2540              	.LBE546:
 2541              	.LBE548:
 2542              		.loc 2 307 0
 2543 02ec 3074     		strb	r0, [r6, #16]
 2544              		.loc 2 309 0
 2545 02ee F173     		strb	r1, [r6, #15]
 2546              	.LVL245:
 2547              	.L108:
 2548              		.loc 2 404 0
 2549 02f0 3D44     		add	r5, r5, r7
 2550 02f2 03EB0515 		add	r5, r3, r5, lsl #4
 2551              		.loc 2 410 0
 2552 02f6 0023     		movs	r3, #0
 2553              		.loc 2 404 0
 2554 02f8 EC70     		strb	r4, [r5, #3]
 2555              		.loc 2 410 0
 2556 02fa B373     		strb	r3, [r6, #14]
 2557 02fc 16E7     		b	.L91
 2558              	.L134:
 2559 02fe 00BF     		.align	2
 2560              	.L133:
 2561 0300 00000000 		.word	.LANCHOR0
 2562 0304 00000000 		.word	.LANCHOR6
 2563 0308 00000000 		.word	.LANCHOR4
 2564 030c 00000000 		.word	.LANCHOR5
 2565              	.LVL246:
ARM GAS  C:\Users\IDONNO~1\AppData\Local\Temp\ccY27Fyg.s 			page 46


 2566              	.L99:
 2567              		.loc 2 320 0
 2568 0310 9849     		ldr	r1, .L135
 2569              	.LBB549:
 2570              	.LBB550:
 2571              	.LBB551:
 2572              		.loc 5 39 0
 2573 0312 B1F81001 		ldrh	r0, [r1, #272]
 2574              	.LBE551:
 2575              	.LBE550:
 2576              	.LBE549:
 2577              		.loc 2 320 0
 2578 0316 81F81541 		strb	r4, [r1, #277]
 2579              	.LVL247:
 2580              	.LBB556:
 2581              	.LBB554:
 2582              	.LBB552:
 2583              		.loc 5 39 0
 2584 031a 4440     		eors	r4, r4, r0
 2585              	.LVL248:
 2586              		.loc 5 40 0
 2587 031c 84EA0414 		eor	r4, r4, r4, lsl #4
 2588              	.LVL249:
 2589 0320 E4B2     		uxtb	r4, r4
 2590              	.LVL250:
 2591              		.loc 5 41 0
 2592 0322 2209     		lsrs	r2, r4, #4
 2593 0324 82EA1022 		eor	r2, r2, r0, lsr #8
 2594 0328 42EA0422 		orr	r2, r2, r4, lsl #8
 2595 032c 82EAC404 		eor	r4, r2, r4, lsl #3
 2596              	.LVL251:
 2597              	.LBE552:
 2598              	.LBE554:
 2599              	.LBE556:
 2600              		.loc 2 322 0
 2601 0330 0522     		movs	r2, #5
 2602              	.LBB557:
 2603              	.LBB555:
 2604              	.LBB553:
 2605              		.loc 5 41 0
 2606 0332 A1F81041 		strh	r4, [r1, #272]	@ movhi
 2607              	.LVL252:
 2608              	.LBE553:
 2609              	.LBE555:
 2610              	.LBE557:
 2611              		.loc 2 322 0
 2612 0336 F273     		strb	r2, [r6, #15]
 2613 0338 91F81341 		ldrb	r4, [r1, #275]	@ zero_extendqisi2
 2614 033c D8E7     		b	.L108
 2615              	.LVL253:
 2616              	.L100:
 2617              		.loc 2 314 0
 2618 033e 8D49     		ldr	r1, .L135
 2619              	.LBB558:
 2620              	.LBB559:
 2621              	.LBB560:
 2622              		.loc 5 39 0
ARM GAS  C:\Users\IDONNO~1\AppData\Local\Temp\ccY27Fyg.s 			page 47


 2623 0340 B1F81001 		ldrh	r0, [r1, #272]
 2624              	.LBE560:
 2625              	.LBE559:
 2626              	.LBE558:
 2627              		.loc 2 314 0
 2628 0344 81F81441 		strb	r4, [r1, #276]
 2629              	.LVL254:
 2630              	.LBB565:
 2631              	.LBB563:
 2632              	.LBB561:
 2633              		.loc 5 39 0
 2634 0348 4440     		eors	r4, r4, r0
 2635              	.LVL255:
 2636              		.loc 5 40 0
 2637 034a 84EA0414 		eor	r4, r4, r4, lsl #4
 2638              	.LVL256:
 2639 034e E4B2     		uxtb	r4, r4
 2640              	.LVL257:
 2641              		.loc 5 41 0
 2642 0350 2209     		lsrs	r2, r4, #4
 2643 0352 82EA1022 		eor	r2, r2, r0, lsr #8
 2644 0356 42EA0422 		orr	r2, r2, r4, lsl #8
 2645 035a 82EAC404 		eor	r4, r2, r4, lsl #3
 2646              	.LVL258:
 2647              	.LBE561:
 2648              	.LBE563:
 2649              	.LBE565:
 2650              		.loc 2 316 0
 2651 035e 0322     		movs	r2, #3
 2652              	.LBB566:
 2653              	.LBB564:
 2654              	.LBB562:
 2655              		.loc 5 41 0
 2656 0360 A1F81041 		strh	r4, [r1, #272]	@ movhi
 2657              	.LVL259:
 2658              	.LBE562:
 2659              	.LBE564:
 2660              	.LBE566:
 2661              		.loc 2 316 0
 2662 0364 F273     		strb	r2, [r6, #15]
 2663 0366 91F81341 		ldrb	r4, [r1, #275]	@ zero_extendqisi2
 2664 036a C1E7     		b	.L108
 2665              	.LVL260:
 2666              	.L101:
 2667              		.loc 2 326 0
 2668 036c 8149     		ldr	r1, .L135
 2669              	.LBB567:
 2670              	.LBB568:
 2671              	.LBB569:
 2672              		.loc 5 39 0
 2673 036e B1F81001 		ldrh	r0, [r1, #272]
 2674              	.LBE569:
 2675              	.LBE568:
 2676              	.LBE567:
 2677              		.loc 2 326 0
 2678 0372 81F81641 		strb	r4, [r1, #278]
 2679              	.LVL261:
ARM GAS  C:\Users\IDONNO~1\AppData\Local\Temp\ccY27Fyg.s 			page 48


 2680              	.LBB574:
 2681              	.LBB572:
 2682              	.LBB570:
 2683              		.loc 5 39 0
 2684 0376 4440     		eors	r4, r4, r0
 2685              	.LVL262:
 2686              		.loc 5 40 0
 2687 0378 84EA0414 		eor	r4, r4, r4, lsl #4
 2688              	.LVL263:
 2689 037c E4B2     		uxtb	r4, r4
 2690              	.LVL264:
 2691              		.loc 5 41 0
 2692 037e 2209     		lsrs	r2, r4, #4
 2693 0380 82EA1022 		eor	r2, r2, r0, lsr #8
 2694 0384 42EA0422 		orr	r2, r2, r4, lsl #8
 2695 0388 82EAC404 		eor	r4, r2, r4, lsl #3
 2696              	.LVL265:
 2697              	.LBE570:
 2698              	.LBE572:
 2699              	.LBE574:
 2700              		.loc 2 328 0
 2701 038c 0622     		movs	r2, #6
 2702              	.LBB575:
 2703              	.LBB573:
 2704              	.LBB571:
 2705              		.loc 5 41 0
 2706 038e A1F81041 		strh	r4, [r1, #272]	@ movhi
 2707              	.LVL266:
 2708              	.LBE571:
 2709              	.LBE573:
 2710              	.LBE575:
 2711              		.loc 2 328 0
 2712 0392 F273     		strb	r2, [r6, #15]
 2713 0394 91F81341 		ldrb	r4, [r1, #275]	@ zero_extendqisi2
 2714 0398 AAE7     		b	.L108
 2715              	.LVL267:
 2716              	.L102:
 2717              		.loc 2 340 0
 2718 039a 7648     		ldr	r0, .L135
 2719              	.LBB576:
 2720              	.LBB577:
 2721              	.LBB578:
 2722              		.loc 5 39 0
 2723 039c B0F810E1 		ldrh	lr, [r0, #272]
 2724              	.LBE578:
 2725              	.LBE577:
 2726              	.LBE576:
 2727              		.loc 2 340 0
 2728 03a0 80F81741 		strb	r4, [r0, #279]
 2729              	.LVL268:
 2730              	.LBB583:
 2731              	.LBB581:
 2732              	.LBB579:
 2733              		.loc 5 39 0
 2734 03a4 84EA0E02 		eor	r2, r4, lr
 2735              	.LVL269:
 2736              		.loc 5 40 0
ARM GAS  C:\Users\IDONNO~1\AppData\Local\Temp\ccY27Fyg.s 			page 49


 2737 03a8 82EA0212 		eor	r2, r2, r2, lsl #4
 2738              	.LVL270:
 2739 03ac D2B2     		uxtb	r2, r2
 2740              	.LVL271:
 2741              		.loc 5 41 0
 2742 03ae 1109     		lsrs	r1, r2, #4
 2743 03b0 81EA1E21 		eor	r1, r1, lr, lsr #8
 2744 03b4 41EA0221 		orr	r1, r1, r2, lsl #8
 2745              	.LBE579:
 2746              	.LBE581:
 2747              	.LBE583:
 2748              		.loc 2 342 0
 2749 03b8 90F81341 		ldrb	r4, [r0, #275]	@ zero_extendqisi2
 2750              	.LVL272:
 2751              	.LBB584:
 2752              	.LBB582:
 2753              	.LBB580:
 2754              		.loc 5 41 0
 2755 03bc 81EAC202 		eor	r2, r1, r2, lsl #3
 2756              	.LVL273:
 2757 03c0 A0F81021 		strh	r2, [r0, #272]	@ movhi
 2758              	.LVL274:
 2759              	.LBE580:
 2760              	.LBE582:
 2761              	.LBE584:
 2762              		.loc 2 342 0
 2763 03c4 002C     		cmp	r4, #0
 2764 03c6 40F0AB80 		bne	.L109
 2765              		.loc 2 344 0
 2766 03ca 0822     		movs	r2, #8
 2767 03cc F273     		strb	r2, [r6, #15]
 2768 03ce 8FE7     		b	.L108
 2769              	.LVL275:
 2770              	.L103:
 2771              		.loc 2 353 0
 2772 03d0 6848     		ldr	r0, .L135
 2773 03d2 96F810C0 		ldrb	ip, [r6, #16]	@ zero_extendqisi2
 2774 03d6 DFF8A4E1 		ldr	lr, .L135+8
 2775 03da 00EB0C02 		add	r2, r0, ip
 2776 03de 0CF1010C 		add	ip, ip, #1
 2777 03e2 82F81841 		strb	r4, [r2, #280]
 2778              	.LVL276:
 2779              	.LBB585:
 2780              	.LBB586:
 2781              	.LBB587:
 2782              		.loc 5 39 0
 2783 03e6 B0F81081 		ldrh	r8, [r0, #272]
 2784              	.LVL277:
 2785 03ea 84EA0802 		eor	r2, r4, r8
 2786              	.LVL278:
 2787              		.loc 5 40 0
 2788 03ee 82EA0212 		eor	r2, r2, r2, lsl #4
 2789              	.LVL279:
 2790 03f2 D2B2     		uxtb	r2, r2
 2791              	.LVL280:
 2792              		.loc 5 41 0
 2793 03f4 1109     		lsrs	r1, r2, #4
ARM GAS  C:\Users\IDONNO~1\AppData\Local\Temp\ccY27Fyg.s 			page 50


 2794 03f6 81EA1821 		eor	r1, r1, r8, lsr #8
 2795              	.LBE587:
 2796              	.LBE586:
 2797              	.LBE585:
 2798              		.loc 2 355 0
 2799 03fa 90F81341 		ldrb	r4, [r0, #275]	@ zero_extendqisi2
 2800              	.LVL281:
 2801              		.loc 2 353 0
 2802 03fe 5FFA8CFC 		uxtb	ip, ip
 2803              	.LVL282:
 2804              	.LBB592:
 2805              	.LBB590:
 2806              	.LBB588:
 2807              		.loc 5 41 0
 2808 0402 41EA0221 		orr	r1, r1, r2, lsl #8
 2809 0406 81EAC202 		eor	r2, r1, r2, lsl #3
 2810              	.LVL283:
 2811              	.LBE588:
 2812              	.LBE590:
 2813              	.LBE592:
 2814              		.loc 2 355 0
 2815 040a A445     		cmp	ip, r4
 2816              		.loc 2 353 0
 2817 040c 86F810C0 		strb	ip, [r6, #16]
 2818              	.LBB593:
 2819              	.LBB591:
 2820              	.LBB589:
 2821              		.loc 5 41 0
 2822 0410 A0F81021 		strh	r2, [r0, #272]	@ movhi
 2823              	.LVL284:
 2824              	.LBE589:
 2825              	.LBE591:
 2826              	.LBE593:
 2827              		.loc 2 355 0
 2828 0414 7FF46CAF 		bne	.L108
 2829              		.loc 2 357 0
 2830 0418 0822     		movs	r2, #8
 2831 041a 8EF80F20 		strb	r2, [lr, #15]
 2832 041e 67E7     		b	.L108
 2833              	.LVL285:
 2834              	.L104:
 2835              	.LBB594:
 2836              	.LBB595:
 2837              	.LBB596:
 2838              		.loc 5 39 0
 2839 0420 DFF85091 		ldr	r9, .L135
 2840              	.LBE596:
 2841              	.LBE595:
 2842              	.LBE594:
 2843              		.loc 2 363 0
 2844 0424 5449     		ldr	r1, .L135+4
 2845 0426 99F81721 		ldrb	r2, [r9, #279]	@ zero_extendqisi2
 2846              	.LBB601:
 2847              	.LBB599:
 2848              	.LBB597:
 2849              		.loc 5 39 0
 2850 042a B9F81001 		ldrh	r0, [r9, #272]
ARM GAS  C:\Users\IDONNO~1\AppData\Local\Temp\ccY27Fyg.s 			page 51


 2851 042e 8A5C     		ldrb	r2, [r1, r2]	@ zero_extendqisi2
 2852 0430 4240     		eors	r2, r2, r0
 2853              	.LVL286:
 2854              		.loc 5 40 0
 2855 0432 82EA0212 		eor	r2, r2, r2, lsl #4
 2856              	.LVL287:
 2857 0436 D2B2     		uxtb	r2, r2
 2858              	.LVL288:
 2859              		.loc 5 41 0
 2860 0438 1109     		lsrs	r1, r2, #4
 2861 043a 81EA1021 		eor	r1, r1, r0, lsr #8
 2862 043e 41EA0221 		orr	r1, r1, r2, lsl #8
 2863 0442 81EAC202 		eor	r2, r1, r2, lsl #3
 2864              	.LVL289:
 2865              	.LBE597:
 2866              	.LBE599:
 2867              	.LBE601:
 2868              		.loc 2 365 0
 2869 0446 D1B2     		uxtb	r1, r2
 2870 0448 8C42     		cmp	r4, r1
 2871              	.LBB602:
 2872              	.LBB600:
 2873              	.LBB598:
 2874              		.loc 5 41 0
 2875 044a A9F81021 		strh	r2, [r9, #272]	@ movhi
 2876              	.LVL290:
 2877              	.LBE598:
 2878              	.LBE600:
 2879              	.LBE602:
 2880              		.loc 2 366 0
 2881 044e 14BF     		ite	ne
 2882 0450 0A22     		movne	r2, #10
 2883              		.loc 2 368 0
 2884 0452 0922     		moveq	r2, #9
 2885 0454 F273     		strb	r2, [r6, #15]
 2886              		.loc 2 370 0
 2887 0456 327C     		ldrb	r2, [r6, #16]	@ zero_extendqisi2
 2888 0458 4A44     		add	r2, r2, r9
 2889 045a 82F81841 		strb	r4, [r2, #280]
 2890 045e 99F81341 		ldrb	r4, [r9, #275]	@ zero_extendqisi2
 2891              	.LVL291:
 2892 0462 45E7     		b	.L108
 2893              	.LVL292:
 2894              	.L69:
 2895 0464 3579     		ldrb	r5, [r6, #4]	@ zero_extendqisi2
 2896              	.LVL293:
 2897 0466 DFF80C91 		ldr	r9, .L135
 2898              	.LBE615:
 2899              	.LBE625:
 2900              	.LBE635:
 2901              	.LBE654:
 2902              	.LBE665:
 2903              	.LBB666:
 2904              	.LBB530:
 2905              	.LBB509:
 2906              	.LBB498:
 2907              	.LBB487:
ARM GAS  C:\Users\IDONNO~1\AppData\Local\Temp\ccY27Fyg.s 			page 52


 2908              		.loc 2 276 0
 2909 046a 4FF0000C 		mov	ip, #0
 2910              	.LVL294:
 2911              	.L80:
 2912              		.loc 2 404 0
 2913 046e DFF810E1 		ldr	lr, .L135+12
 2914 0472 99F80330 		ldrb	r3, [r9, #3]	@ zero_extendqisi2
 2915 0476 8EF80330 		strb	r3, [lr, #3]
 2916              		.loc 2 410 0
 2917 047a 0027     		movs	r7, #0
 2918 047c B770     		strb	r7, [r6, #2]
 2919 047e 3D48     		ldr	r0, .L135
 2920 0480 3E4A     		ldr	r2, .L135+8
 2921              		.loc 2 412 0
 2922 0482 BCF1000F 		cmp	ip, #0
 2923 0486 3FF451AE 		beq	.L91
 2924              		.loc 2 420 0
 2925 048a 4319     		adds	r3, r0, r5
 2926              	.LBE487:
 2927              	.LBE498:
 2928              	.LBE509:
 2929              	.LBB510:
 2930              		.loc 2 527 0
 2931 048c FE2C     		cmp	r4, #254
 2932              	.LBE510:
 2933              	.LBB517:
 2934              	.LBB499:
 2935              	.LBB488:
 2936              		.loc 2 420 0
 2937 048e 597A     		ldrb	r1, [r3, #9]	@ zero_extendqisi2
 2938 0490 1B7A     		ldrb	r3, [r3, #8]	@ zero_extendqisi2
 2939              	.LBE488:
 2940              	.LBE499:
 2941              	.LBE517:
 2942              	.LBB518:
 2943              		.loc 2 525 0
 2944 0492 1770     		strb	r7, [r2]
 2945              	.LBE518:
 2946              	.LBB519:
 2947              	.LBB500:
 2948              	.LBB489:
 2949              		.loc 2 420 0
 2950 0494 43EA0123 		orr	r3, r3, r1, lsl #8
 2951              	.LBE489:
 2952              	.LBE500:
 2953              	.LBE519:
 2954              	.LBB520:
 2955              		.loc 2 524 0
 2956 0498 4FF00101 		mov	r1, #1
 2957              	.LBE520:
 2958              	.LBB521:
 2959              	.LBB501:
 2960              	.LBB490:
 2961              		.loc 2 420 0
 2962 049c AEF80030 		strh	r3, [lr]	@ movhi
 2963              	.LVL295:
 2964              	.LBE490:
ARM GAS  C:\Users\IDONNO~1\AppData\Local\Temp\ccY27Fyg.s 			page 53


 2965              	.LBE501:
 2966              	.LBE521:
 2967              	.LBB522:
 2968              		.loc 2 524 0
 2969 04a0 9170     		strb	r1, [r2, #2]
 2970              		.loc 2 527 0
 2971 04a2 01D0     		beq	.L132
 2972              		.loc 2 526 0
 2973 04a4 D170     		strb	r1, [r2, #3]
 2974 04a6 41E6     		b	.L91
 2975              	.L132:
 2976              	.LBB511:
 2977              	.LBB512:
 2978              	.LBB513:
 2979              		.loc 5 53 0
 2980 04a8 4FF6FF73 		movw	r3, #65535
 2981              	.LBE513:
 2982              	.LBE512:
 2983              	.LBE511:
 2984              		.loc 2 529 0
 2985 04ac 82F803C0 		strb	ip, [r2, #3]
 2986              		.loc 2 530 0
 2987 04b0 C770     		strb	r7, [r0, #3]
 2988              	.LVL296:
 2989              	.LBB516:
 2990              	.LBB515:
 2991              	.LBB514:
 2992              		.loc 5 53 0
 2993 04b2 0380     		strh	r3, [r0]	@ movhi
 2994              	.LVL297:
 2995 04b4 3AE6     		b	.L91
 2996              	.LVL298:
 2997              	.L95:
 2998 04b6 327C     		ldrb	r2, [r6, #16]	@ zero_extendqisi2
 2999 04b8 DFF8B890 		ldr	r9, .L135
 3000 04bc 0192     		str	r2, [sp, #4]
 3001              	.LVL299:
 3002              	.LBE514:
 3003              	.LBE515:
 3004              	.LBE516:
 3005              	.LBE522:
 3006              	.LBE530:
 3007              	.LBE666:
 3008              	.LBB667:
 3009              	.LBB655:
 3010              	.LBB636:
 3011              	.LBB626:
 3012              	.LBB616:
 3013              		.loc 2 276 0
 3014 04be 0021     		movs	r1, #0
 3015              	.L106:
 3016              		.loc 2 404 0
 3017 04c0 4FF48872 		mov	r2, #272
 3018 04c4 02FB0533 		mla	r3, r2, r5, r3
 3019              		.loc 2 410 0
 3020 04c8 4FF0000E 		mov	lr, #0
 3021              		.loc 2 404 0
ARM GAS  C:\Users\IDONNO~1\AppData\Local\Temp\ccY27Fyg.s 			page 54


 3022 04cc 99F81321 		ldrb	r2, [r9, #275]	@ zero_extendqisi2
 3023 04d0 DA70     		strb	r2, [r3, #3]
 3024              		.loc 2 410 0
 3025 04d2 86F80EE0 		strb	lr, [r6, #14]
 3026 04d6 2748     		ldr	r0, .L135
 3027              		.loc 2 404 0
 3028 04d8 294E     		ldr	r6, .L135+12
 3029              		.loc 2 410 0
 3030 04da 284A     		ldr	r2, .L135+8
 3031              		.loc 2 412 0
 3032 04dc 0029     		cmp	r1, #0
 3033 04de 3FF425AE 		beq	.L91
 3034              		.loc 2 420 0
 3035 04e2 019B     		ldr	r3, [sp, #4]
 3036              	.LBE616:
 3037              	.LBE626:
 3038              	.LBE636:
 3039              	.LBB637:
 3040              		.loc 2 525 0
 3041 04e4 82F80CE0 		strb	lr, [r2, #12]
 3042              	.LBE637:
 3043              	.LBB644:
 3044              	.LBB627:
 3045              	.LBB617:
 3046              		.loc 2 420 0
 3047 04e8 0344     		add	r3, r3, r0
 3048 04ea 3D44     		add	r5, r5, r7
 3049 04ec 93F81971 		ldrb	r7, [r3, #281]	@ zero_extendqisi2
 3050 04f0 93F81831 		ldrb	r3, [r3, #280]	@ zero_extendqisi2
 3051 04f4 2D01     		lsls	r5, r5, #4
 3052 04f6 43EA0723 		orr	r3, r3, r7, lsl #8
 3053              	.LBE617:
 3054              	.LBE627:
 3055              	.LBE644:
 3056              	.LBB645:
 3057              		.loc 2 527 0
 3058 04fa FE2C     		cmp	r4, #254
 3059              		.loc 2 524 0
 3060 04fc 4FF00107 		mov	r7, #1
 3061              	.LBE645:
 3062              	.LBB646:
 3063              	.LBB628:
 3064              	.LBB618:
 3065              		.loc 2 420 0
 3066 0500 7353     		strh	r3, [r6, r5]	@ movhi
 3067              	.LVL300:
 3068              	.LBE618:
 3069              	.LBE628:
 3070              	.LBE646:
 3071              	.LBB647:
 3072              		.loc 2 524 0
 3073 0502 9773     		strb	r7, [r2, #14]
 3074              		.loc 2 527 0
 3075 0504 01D0     		beq	.L118
 3076              		.loc 2 526 0
 3077 0506 D773     		strb	r7, [r2, #15]
 3078 0508 10E6     		b	.L91
ARM GAS  C:\Users\IDONNO~1\AppData\Local\Temp\ccY27Fyg.s 			page 55


 3079              	.L118:
 3080              	.LBB638:
 3081              	.LBB639:
 3082              	.LBB640:
 3083              		.loc 5 53 0
 3084 050a 4FF6FF73 		movw	r3, #65535
 3085              	.LBE640:
 3086              	.LBE639:
 3087              	.LBE638:
 3088              		.loc 2 529 0
 3089 050e D173     		strb	r1, [r2, #15]
 3090              		.loc 2 530 0
 3091 0510 80F813E1 		strb	lr, [r0, #275]
 3092              	.LVL301:
 3093              	.LBB643:
 3094              	.LBB642:
 3095              	.LBB641:
 3096              		.loc 5 53 0
 3097 0514 A0F81031 		strh	r3, [r0, #272]	@ movhi
 3098              	.LVL302:
 3099 0518 08E6     		b	.L91
 3100              	.LVL303:
 3101              	.L83:
 3102              	.LBE641:
 3103              	.LBE642:
 3104              	.LBE643:
 3105              	.LBE647:
 3106              	.LBE655:
 3107              	.LBE667:
 3108              	.LBB668:
 3109              	.LBB531:
 3110              	.LBB523:
 3111              	.LBB502:
 3112              	.LBB491:
 3113              		.loc 2 348 0
 3114 051a 0722     		movs	r2, #7
 3115 051c F270     		strb	r2, [r6, #3]
 3116 051e 01E6     		b	.L82
 3117              	.LVL304:
 3118              	.L109:
 3119              	.LBE491:
 3120              	.LBE502:
 3121              	.LBE523:
 3122              	.LBE531:
 3123              	.LBE668:
 3124              	.LBB669:
 3125              	.LBB656:
 3126              	.LBB648:
 3127              	.LBB629:
 3128              	.LBB619:
 3129 0520 0722     		movs	r2, #7
 3130 0522 F273     		strb	r2, [r6, #15]
 3131 0524 E4E6     		b	.L108
 3132              	.LVL305:
 3133              	.L131:
 3134              		.loc 2 283 0
 3135 0526 0021     		movs	r1, #0
ARM GAS  C:\Users\IDONNO~1\AppData\Local\Temp\ccY27Fyg.s 			page 56


 3136              	.LBB603:
 3137              	.LBB604:
 3138              	.LBB605:
 3139              		.loc 5 53 0
 3140 0528 4FF6FF7E 		movw	lr, #65535
 3141              	.LBE605:
 3142              	.LBE604:
 3143              	.LBE603:
 3144              		.loc 2 282 0
 3145 052c 0220     		movs	r0, #2
 3146              		.loc 2 284 0
 3147 052e 82F81241 		strb	r4, [r2, #274]
 3148              	.LVL306:
 3149              	.LBB610:
 3150              	.LBB608:
 3151              	.LBB606:
 3152              		.loc 5 53 0
 3153 0532 A2F810E1 		strh	lr, [r2, #272]	@ movhi
 3154              	.LVL307:
 3155              	.LBE606:
 3156              	.LBE608:
 3157              	.LBE610:
 3158              		.loc 2 283 0
 3159 0536 82F81311 		strb	r1, [r2, #275]
 3160              	.LBB611:
 3161              	.LBB609:
 3162              	.LBB607:
 3163              		.loc 5 53 0
 3164 053a 0C46     		mov	r4, r1
 3165              	.LVL308:
 3166              	.LBE607:
 3167              	.LBE609:
 3168              	.LBE611:
 3169              		.loc 2 282 0
 3170 053c F073     		strb	r0, [r6, #15]
 3171 053e D7E6     		b	.L108
 3172              	.LVL309:
 3173              	.L129:
 3174              	.LBE619:
 3175              	.LBE629:
 3176              	.LBE648:
 3177              	.LBE656:
 3178              	.LBE669:
 3179              	.LBB670:
 3180              	.LBB532:
 3181              	.LBB524:
 3182              	.LBB503:
 3183              	.LBB492:
 3184              		.loc 2 283 0
 3185 0540 0C4A     		ldr	r2, .L135
 3186              	.LBB477:
 3187              	.LBB478:
 3188              	.LBB479:
 3189              		.loc 5 53 0
 3190 0542 4FF6FF70 		movw	r0, #65535
 3191              	.LVL310:
 3192              	.LBE479:
ARM GAS  C:\Users\IDONNO~1\AppData\Local\Temp\ccY27Fyg.s 			page 57


 3193              	.LBE478:
 3194              	.LBE477:
 3195              		.loc 2 283 0
 3196 0546 0023     		movs	r3, #0
 3197              		.loc 2 282 0
 3198 0548 0221     		movs	r1, #2
 3199              	.LVL311:
 3200              		.loc 2 284 0
 3201 054a 9470     		strb	r4, [r2, #2]
 3202              	.LVL312:
 3203              	.LBB482:
 3204              	.LBB481:
 3205              	.LBB480:
 3206              		.loc 5 53 0
 3207 054c 1080     		strh	r0, [r2]	@ movhi
 3208              	.LVL313:
 3209              	.LBE480:
 3210              	.LBE481:
 3211              	.LBE482:
 3212              		.loc 2 283 0
 3213 054e D370     		strb	r3, [r2, #3]
 3214              		.loc 2 282 0
 3215 0550 F170     		strb	r1, [r6, #3]
 3216 0552 E7E5     		b	.L82
 3217              	.LVL314:
 3218              	.L87:
 3219              		.loc 2 380 0
 3220 0554 0123     		movs	r3, #1
 3221 0556 3370     		strb	r3, [r6]
 3222 0558 9B46     		mov	fp, r3
 3223 055a 83E6     		b	.L88
 3224              	.LVL315:
 3225              	.L113:
 3226              	.LBE492:
 3227              	.LBE503:
 3228              	.LBE524:
 3229              	.LBE532:
 3230              	.LBE670:
 3231              	.LBB671:
 3232              	.LBB657:
 3233              	.LBB649:
 3234              	.LBB630:
 3235              	.LBB620:
 3236 055c 4FF0010A 		mov	r10, #1
 3237 0560 86F80CA0 		strb	r10, [r6, #12]
 3238 0564 CDF80CA0 		str	r10, [sp, #12]
 3239 0568 8DE5     		b	.L114
 3240              	.LVL316:
 3241              	.L130:
 3242              	.LBE620:
 3243              	.LBE630:
 3244              	.LBE649:
 3245              	.LBE657:
 3246              	.LBE671:
 3247              	.LBB672:
 3248              	.LBB533:
 3249              	.LBB525:
ARM GAS  C:\Users\IDONNO~1\AppData\Local\Temp\ccY27Fyg.s 			page 58


 3250              	.LBB504:
 3251              	.LBB493:
 3252              		.loc 2 390 0
 3253 056a 4FF0020C 		mov	ip, #2
 3254 056e 7EE7     		b	.L80
 3255              	.LVL317:
 3256              	.L128:
 3257              	.LBE493:
 3258              	.LBE504:
 3259              	.LBE525:
 3260              	.LBE533:
 3261              	.LBE672:
 3262              	.LBB673:
 3263              	.LBB658:
 3264              	.LBB650:
 3265              	.LBB631:
 3266              	.LBB621:
 3267 0570 0221     		movs	r1, #2
 3268 0572 A5E7     		b	.L106
 3269              	.L136:
 3270              		.align	2
 3271              	.L135:
 3272 0574 00000000 		.word	.LANCHOR4
 3273 0578 00000000 		.word	.LANCHOR5
 3274 057c 00000000 		.word	.LANCHOR0
 3275 0580 00000000 		.word	.LANCHOR6
 3276              	.LBE621:
 3277              	.LBE631:
 3278              	.LBE650:
 3279              	.LBE658:
 3280              	.LBE673:
 3281              		.cfi_endproc
 3282              	.LFE418:
 3283              		.size	mavlink_msg_recv, .-mavlink_msg_recv
 3284              		.section	.text.mavlink_msg_process_vcp,"ax",%progbits
 3285              		.align	2
 3286              		.p2align 4,,15
 3287              		.global	mavlink_msg_process_vcp
 3288              		.thumb
 3289              		.thumb_func
 3290              		.type	mavlink_msg_process_vcp, %function
 3291              	mavlink_msg_process_vcp:
 3292              	.LFB419:
 3293              		.loc 1 383 0
 3294              		.cfi_startproc
 3295              		@ args = 0, pretend = 0, frame = 0
 3296              		@ frame_needed = 0, uses_anonymous_args = 0
 3297              		@ link register save eliminated.
 3298              	.LVL318:
 3299              		.loc 1 386 0
 3300 0000 4368     		ldr	r3, [r0, #4]
 3301 0002 DB79     		ldrb	r3, [r3, #7]	@ zero_extendqisi2
 3302 0004 142B     		cmp	r3, #20
 3303              		.loc 1 383 0
 3304 0006 0246     		mov	r2, r0
 3305              		.loc 1 386 0
 3306 0008 1CD0     		beq	.L139
ARM GAS  C:\Users\IDONNO~1\AppData\Local\Temp\ccY27Fyg.s 			page 59


 3307 000a 09D9     		bls	.L149
 3308 000c 7A2B     		cmp	r3, #122
 3309 000e 13D0     		beq	.L144
 3310 0010 DC2B     		cmp	r3, #220
 3311 0012 0DD0     		beq	.L145
 3312 0014 792B     		cmp	r3, #121
 3313 0016 11D0     		beq	.L150
 3314              	.L138:
 3315              		.loc 1 400 0
 3316 0018 1046     		mov	r0, r2
 3317              	.LVL319:
 3318 001a 0121     		movs	r1, #1
 3319 001c FFF7FEBF 		b	cmd_send_error
 3320              	.LVL320:
 3321              	.L149:
 3322              		.loc 1 386 0
 3323 0020 0C2B     		cmp	r3, #12
 3324 0022 0DD0     		beq	.L141
 3325 0024 0D2B     		cmp	r3, #13
 3326 0026 05D0     		beq	.L142
 3327 0028 0B2B     		cmp	r3, #11
 3328 002a F5D1     		bne	.L138
 3329              		.loc 1 388 0
 3330 002c FFF7FEBF 		b	cmd_read_version
 3331              	.LVL321:
 3332              	.L145:
 3333              		.loc 1 396 0
 3334 0030 FFF7FEBF 		b	cmd_set_velocity
 3335              	.LVL322:
 3336              	.L142:
 3337              		.loc 1 390 0
 3338 0034 FFF7FEBF 		b	cmd_read_tag
 3339              	.LVL323:
 3340              	.L144:
 3341              		.loc 1 395 0
 3342 0038 FFF7FEBF 		b	cmd_set_appconf
 3343              	.LVL324:
 3344              	.L150:
 3345              		.loc 1 394 0
 3346 003c FFF7FEBF 		b	cmd_set_mcconf
 3347              	.LVL325:
 3348              	.L141:
 3349              		.loc 1 389 0
 3350 0040 FFF7FEBF 		b	cmd_read_board_name
 3351              	.LVL326:
 3352              	.L139:
 3353              		.loc 1 392 0
 3354 0044 FFF7FEBF 		b	cmd_write_eeprom
 3355              	.LVL327:
 3356              		.cfi_endproc
 3357              	.LFE419:
 3358              		.size	mavlink_msg_process_vcp, .-mavlink_msg_process_vcp
 3359              		.global	gMsg
 3360              		.global	boot_revision
 3361              		.global	boot_version
 3362              		.global	board_name
 3363              		.section	.bss.m_mavlink_status.10569,"aw",%nobits
ARM GAS  C:\Users\IDONNO~1\AppData\Local\Temp\ccY27Fyg.s 			page 60


 3364              		.align	2
 3365              		.set	.LANCHOR0,. + 0
 3366              		.type	m_mavlink_status.10569, %object
 3367              		.size	m_mavlink_status.10569, 48
 3368              	m_mavlink_status.10569:
 3369 0000 00000000 		.space	48
 3369      00000000 
 3369      00000000 
 3369      00000000 
 3369      00000000 
 3370              		.section	.bss.gMsg,"aw",%nobits
 3371              		.align	2
 3372              		.type	gMsg, %object
 3373              		.size	gMsg, 8
 3374              	gMsg:
 3375 0000 00000000 		.space	8
 3375      00000000 
 3376              		.section	.rodata.str1.4,"aMS",%progbits,1
 3377              		.align	2
 3378              	.LC0:
 3379 0000 4D61764C 		.ascii	"MavLink ready...\015\012\000"
 3379      696E6B20 
 3379      72656164 
 3379      792E2E2E 
 3379      0D0A00
 3380 0013 00       		.space	1
 3381              	.LC1:
 3382 0014 50726F6A 		.ascii	"Project : OROCA BLDC\000"
 3382      65637420 
 3382      3A204F52 
 3382      4F434120 
 3382      424C4443 
 3383 0029 000000   		.space	3
 3384              	.LC2:
 3385 002c 48572076 		.ascii	"HW ver : STM32F405_VESC_R180208\000"
 3385      6572203A 
 3385      2053544D 
 3385      33324634 
 3385      30355F56 
 3386              	.LC3:
 3387 004c 46572076 		.ascii	"FW ver : dev...\000"
 3387      6572203A 
 3387      20646576 
 3387      2E2E2E00 
 3388              	.LC4:
 3389 005c 62792042 		.ascii	"by BakChaJang\000"
 3389      616B4368 
 3389      614A616E 
 3389      6700
 3390 006a 0000     		.space	2
 3391              	.LC5:
 3392 006c 64617465 		.ascii	"date : 2018/06/21\015\012\000"
 3392      203A2032 
 3392      3031382F 
 3392      30362F32 
 3392      310D0A00 
 3393              	.LC6:
ARM GAS  C:\Users\IDONNO~1\AppData\Local\Temp\ccY27Fyg.s 			page 61


 3394 0080 424C4443 		.ascii	"BLDC R10\000"
 3394      20523130 
 3394      00
 3395              		.section	.rodata.mavlink_message_crcs.10621,"a",%progbits
 3396              		.align	2
 3397              		.set	.LANCHOR5,. + 0
 3398              		.type	mavlink_message_crcs.10621, %object
 3399              		.size	mavlink_message_crcs.10621, 256
 3400              	mavlink_message_crcs.10621:
 3401 0000 32       		.byte	50
 3402 0001 C0       		.byte	-64
 3403 0002 00       		.byte	0
 3404 0003 00       		.byte	0
 3405 0004 00       		.byte	0
 3406 0005 00       		.byte	0
 3407 0006 00       		.byte	0
 3408 0007 00       		.byte	0
 3409 0008 00       		.byte	0
 3410 0009 00       		.byte	0
 3411 000a 00       		.byte	0
 3412 000b A6       		.byte	-90
 3413 000c 8C       		.byte	-116
 3414 000d 7E       		.byte	126
 3415 000e 00       		.byte	0
 3416 000f 00       		.byte	0
 3417 0010 00       		.byte	0
 3418 0011 00       		.byte	0
 3419 0012 00       		.byte	0
 3420 0013 00       		.byte	0
 3421 0014 EB       		.byte	-21
 3422 0015 00       		.byte	0
 3423 0016 00       		.byte	0
 3424 0017 00       		.byte	0
 3425 0018 00       		.byte	0
 3426 0019 00       		.byte	0
 3427 001a 00       		.byte	0
 3428 001b 00       		.byte	0
 3429 001c 00       		.byte	0
 3430 001d 00       		.byte	0
 3431 001e 00       		.byte	0
 3432 001f 00       		.byte	0
 3433 0020 00       		.byte	0
 3434 0021 00       		.byte	0
 3435 0022 00       		.byte	0
 3436 0023 00       		.byte	0
 3437 0024 00       		.byte	0
 3438 0025 00       		.byte	0
 3439 0026 00       		.byte	0
 3440 0027 00       		.byte	0
 3441 0028 00       		.byte	0
 3442 0029 00       		.byte	0
 3443 002a 00       		.byte	0
 3444 002b 00       		.byte	0
 3445 002c 00       		.byte	0
 3446 002d 00       		.byte	0
 3447 002e 00       		.byte	0
 3448 002f 00       		.byte	0
ARM GAS  C:\Users\IDONNO~1\AppData\Local\Temp\ccY27Fyg.s 			page 62


 3449 0030 00       		.byte	0
 3450 0031 00       		.byte	0
 3451 0032 00       		.byte	0
 3452 0033 00       		.byte	0
 3453 0034 00       		.byte	0
 3454 0035 00       		.byte	0
 3455 0036 00       		.byte	0
 3456 0037 00       		.byte	0
 3457 0038 00       		.byte	0
 3458 0039 00       		.byte	0
 3459 003a 00       		.byte	0
 3460 003b 00       		.byte	0
 3461 003c 00       		.byte	0
 3462 003d 00       		.byte	0
 3463 003e 00       		.byte	0
 3464 003f 00       		.byte	0
 3465 0040 00       		.byte	0
 3466 0041 00       		.byte	0
 3467 0042 00       		.byte	0
 3468 0043 00       		.byte	0
 3469 0044 00       		.byte	0
 3470 0045 00       		.byte	0
 3471 0046 00       		.byte	0
 3472 0047 00       		.byte	0
 3473 0048 00       		.byte	0
 3474 0049 00       		.byte	0
 3475 004a 00       		.byte	0
 3476 004b 00       		.byte	0
 3477 004c 00       		.byte	0
 3478 004d 00       		.byte	0
 3479 004e 00       		.byte	0
 3480 004f 00       		.byte	0
 3481 0050 00       		.byte	0
 3482 0051 00       		.byte	0
 3483 0052 00       		.byte	0
 3484 0053 00       		.byte	0
 3485 0054 00       		.byte	0
 3486 0055 00       		.byte	0
 3487 0056 00       		.byte	0
 3488 0057 00       		.byte	0
 3489 0058 00       		.byte	0
 3490 0059 00       		.byte	0
 3491 005a 00       		.byte	0
 3492 005b 00       		.byte	0
 3493 005c 00       		.byte	0
 3494 005d 00       		.byte	0
 3495 005e 00       		.byte	0
 3496 005f 00       		.byte	0
 3497 0060 00       		.byte	0
 3498 0061 00       		.byte	0
 3499 0062 00       		.byte	0
 3500 0063 00       		.byte	0
 3501 0064 00       		.byte	0
 3502 0065 00       		.byte	0
 3503 0066 00       		.byte	0
 3504 0067 00       		.byte	0
 3505 0068 00       		.byte	0
ARM GAS  C:\Users\IDONNO~1\AppData\Local\Temp\ccY27Fyg.s 			page 63


 3506 0069 00       		.byte	0
 3507 006a 00       		.byte	0
 3508 006b 00       		.byte	0
 3509 006c 00       		.byte	0
 3510 006d 00       		.byte	0
 3511 006e 00       		.byte	0
 3512 006f 00       		.byte	0
 3513 0070 00       		.byte	0
 3514 0071 00       		.byte	0
 3515 0072 00       		.byte	0
 3516 0073 00       		.byte	0
 3517 0074 00       		.byte	0
 3518 0075 00       		.byte	0
 3519 0076 00       		.byte	0
 3520 0077 00       		.byte	0
 3521 0078 00       		.byte	0
 3522 0079 6B       		.byte	107
 3523 007a 21       		.byte	33
 3524 007b 00       		.byte	0
 3525 007c 00       		.byte	0
 3526 007d 00       		.byte	0
 3527 007e 00       		.byte	0
 3528 007f 00       		.byte	0
 3529 0080 00       		.byte	0
 3530 0081 00       		.byte	0
 3531 0082 00       		.byte	0
 3532 0083 00       		.byte	0
 3533 0084 00       		.byte	0
 3534 0085 00       		.byte	0
 3535 0086 00       		.byte	0
 3536 0087 00       		.byte	0
 3537 0088 00       		.byte	0
 3538 0089 00       		.byte	0
 3539 008a 00       		.byte	0
 3540 008b 00       		.byte	0
 3541 008c 00       		.byte	0
 3542 008d 00       		.byte	0
 3543 008e 00       		.byte	0
 3544 008f 00       		.byte	0
 3545 0090 00       		.byte	0
 3546 0091 00       		.byte	0
 3547 0092 00       		.byte	0
 3548 0093 00       		.byte	0
 3549 0094 00       		.byte	0
 3550 0095 00       		.byte	0
 3551 0096 00       		.byte	0
 3552 0097 00       		.byte	0
 3553 0098 00       		.byte	0
 3554 0099 00       		.byte	0
 3555 009a 00       		.byte	0
 3556 009b 00       		.byte	0
 3557 009c 00       		.byte	0
 3558 009d 00       		.byte	0
 3559 009e 00       		.byte	0
 3560 009f 00       		.byte	0
 3561 00a0 00       		.byte	0
 3562 00a1 00       		.byte	0
ARM GAS  C:\Users\IDONNO~1\AppData\Local\Temp\ccY27Fyg.s 			page 64


 3563 00a2 00       		.byte	0
 3564 00a3 00       		.byte	0
 3565 00a4 00       		.byte	0
 3566 00a5 00       		.byte	0
 3567 00a6 00       		.byte	0
 3568 00a7 00       		.byte	0
 3569 00a8 00       		.byte	0
 3570 00a9 00       		.byte	0
 3571 00aa 00       		.byte	0
 3572 00ab 00       		.byte	0
 3573 00ac 00       		.byte	0
 3574 00ad 00       		.byte	0
 3575 00ae 00       		.byte	0
 3576 00af 00       		.byte	0
 3577 00b0 00       		.byte	0
 3578 00b1 00       		.byte	0
 3579 00b2 00       		.byte	0
 3580 00b3 00       		.byte	0
 3581 00b4 00       		.byte	0
 3582 00b5 00       		.byte	0
 3583 00b6 00       		.byte	0
 3584 00b7 00       		.byte	0
 3585 00b8 00       		.byte	0
 3586 00b9 00       		.byte	0
 3587 00ba 00       		.byte	0
 3588 00bb 00       		.byte	0
 3589 00bc 00       		.byte	0
 3590 00bd 00       		.byte	0
 3591 00be 00       		.byte	0
 3592 00bf 00       		.byte	0
 3593 00c0 00       		.byte	0
 3594 00c1 00       		.byte	0
 3595 00c2 00       		.byte	0
 3596 00c3 00       		.byte	0
 3597 00c4 00       		.byte	0
 3598 00c5 00       		.byte	0
 3599 00c6 00       		.byte	0
 3600 00c7 00       		.byte	0
 3601 00c8 00       		.byte	0
 3602 00c9 00       		.byte	0
 3603 00ca 00       		.byte	0
 3604 00cb 00       		.byte	0
 3605 00cc 00       		.byte	0
 3606 00cd 00       		.byte	0
 3607 00ce 00       		.byte	0
 3608 00cf 00       		.byte	0
 3609 00d0 00       		.byte	0
 3610 00d1 00       		.byte	0
 3611 00d2 00       		.byte	0
 3612 00d3 00       		.byte	0
 3613 00d4 00       		.byte	0
 3614 00d5 00       		.byte	0
 3615 00d6 00       		.byte	0
 3616 00d7 00       		.byte	0
 3617 00d8 00       		.byte	0
 3618 00d9 00       		.byte	0
 3619 00da 00       		.byte	0
ARM GAS  C:\Users\IDONNO~1\AppData\Local\Temp\ccY27Fyg.s 			page 65


 3620 00db 00       		.byte	0
 3621 00dc F9       		.byte	-7
 3622 00dd 54       		.byte	84
 3623 00de 15       		.byte	21
 3624 00df 00       		.byte	0
 3625 00e0 00       		.byte	0
 3626 00e1 00       		.byte	0
 3627 00e2 00       		.byte	0
 3628 00e3 00       		.byte	0
 3629 00e4 00       		.byte	0
 3630 00e5 00       		.byte	0
 3631 00e6 00       		.byte	0
 3632 00e7 00       		.byte	0
 3633 00e8 00       		.byte	0
 3634 00e9 00       		.byte	0
 3635 00ea 00       		.byte	0
 3636 00eb 00       		.byte	0
 3637 00ec 00       		.byte	0
 3638 00ed 00       		.byte	0
 3639 00ee 00       		.byte	0
 3640 00ef 00       		.byte	0
 3641 00f0 00       		.byte	0
 3642 00f1 00       		.byte	0
 3643 00f2 00       		.byte	0
 3644 00f3 00       		.byte	0
 3645 00f4 00       		.byte	0
 3646 00f5 00       		.byte	0
 3647 00f6 00       		.byte	0
 3648 00f7 00       		.byte	0
 3649 00f8 00       		.byte	0
 3650 00f9 00       		.byte	0
 3651 00fa 00       		.byte	0
 3652 00fb 00       		.byte	0
 3653 00fc 00       		.byte	0
 3654 00fd 00       		.byte	0
 3655 00fe 00       		.byte	0
 3656 00ff 00       		.byte	0
 3657              		.section	.data.board_name,"aw",%progbits
 3658              		.align	2
 3659              		.set	.LANCHOR3,. + 0
 3660              		.type	board_name, %object
 3661              		.size	board_name, 4
 3662              	board_name:
 3663 0000 80000000 		.word	.LC6
 3664              		.section	.bss.msg.11562,"aw",%nobits
 3665              		.align	2
 3666              		.set	.LANCHOR6,. + 0
 3667              		.type	msg.11562, %object
 3668              		.size	msg.11562, 272
 3669              	msg.11562:
 3670 0000 00000000 		.space	272
 3670      00000000 
 3670      00000000 
 3670      00000000 
 3670      00000000 
 3671              		.section	.data.boot_version,"aw",%progbits
 3672              		.align	2
ARM GAS  C:\Users\IDONNO~1\AppData\Local\Temp\ccY27Fyg.s 			page 66


 3673              		.set	.LANCHOR1,. + 0
 3674              		.type	boot_version, %object
 3675              		.size	boot_version, 4
 3676              	boot_version:
 3677 0000 00080217 		.word	386009088
 3678              		.section	.bss.m_mavlink_buffer.10573,"aw",%nobits
 3679              		.align	2
 3680              		.set	.LANCHOR4,. + 0
 3681              		.type	m_mavlink_buffer.10573, %object
 3682              		.size	m_mavlink_buffer.10573, 1088
 3683              	m_mavlink_buffer.10573:
 3684 0000 00000000 		.space	1088
 3684      00000000 
 3684      00000000 
 3684      00000000 
 3684      00000000 
 3685              		.section	.bss.boot_revision,"aw",%nobits
 3686              		.align	2
 3687              		.set	.LANCHOR2,. + 0
 3688              		.type	boot_revision, %object
 3689              		.size	boot_revision, 4
 3690              	boot_revision:
 3691 0000 00000000 		.space	4
 3692              		.text
 3693              	.Letext0:
 3694              		.file 12 "c:\\program files (x86)\\gnu tools arm embedded\\5.4 2016q3\\lib\\gcc\\arm-none-eabi\\5.
 3695              		.file 13 "c:\\program files (x86)\\gnu tools arm embedded\\5.4 2016q3\\arm-none-eabi\\include\\mac
 3696              		.file 14 "c:\\program files (x86)\\gnu tools arm embedded\\5.4 2016q3\\arm-none-eabi\\include\\sys
 3697              		.file 15 "src/ChibiOS_3.0.2/os/rt/ports/ARMCMx/compilers/GCC/chtypes.h"
 3698              		.file 16 "src/ChibiOS_3.0.2/os/rt/include/chsystypes.h"
 3699              		.file 17 "src/ChibiOS_3.0.2/os/rt/include/chschd.h"
 3700              		.file 18 "src/ChibiOS_3.0.2/os/rt/ports/ARMCMx/chcore.h"
 3701              		.file 19 "src/ChibiOS_3.0.2/os/rt/ports/ARMCMx/chcore_v7m.h"
 3702              		.file 20 "src/ChibiOS_3.0.2/os/rt/include/chtm.h"
 3703              		.file 21 "src/ChibiOS_3.0.2/os/rt/include/chsem.h"
 3704              		.file 22 "src/ChibiOS_3.0.2/os/rt/include/chmtx.h"
 3705              		.file 23 "src/mc/mc_typedef.h"
 3706              		.file 24 "src/core/../mavlink/oroca_bldc/../mavlink_types.h"
 3707              		.file 25 "src/core/../mavlink/oroca_bldc/./mavlink_msg_read_version.h"
 3708              		.file 26 "src/core/mavlink_proc.h"
 3709              		.file 27 "src/ChibiOS_3.0.2/os/ext/CMSIS/include/core_cm4.h"
 3710              		.file 28 "src/core/comm_usb.h"
 3711              		.file 29 "c:\\program files (x86)\\gnu tools arm embedded\\5.4 2016q3\\arm-none-eabi\\include\\str
 3712              		.file 30 "src/mc/mc_interface.h"
 3713              		.file 31 "src/conf_general.h"
 3714              		.file 32 "src/ChibiOS_3.0.2/os/rt/include/chthreads.h"
 3715              		.section	.debug_info,"",%progbits
 3716              	.Ldebug_info0:
 3717 0000 622C0000 		.4byte	0x2c62
 3718 0004 0400     		.2byte	0x4
 3719 0006 00000000 		.4byte	.Ldebug_abbrev0
 3720 000a 04       		.byte	0x4
 3721 000b 01       		.uleb128 0x1
 3722 000c B4060000 		.4byte	.LASF338
 3723 0010 0C       		.byte	0xc
 3724 0011 45020000 		.4byte	.LASF339
 3725 0015 B5110000 		.4byte	.LASF340
ARM GAS  C:\Users\IDONNO~1\AppData\Local\Temp\ccY27Fyg.s 			page 67


 3726 0019 70060000 		.4byte	.Ldebug_ranges0+0x670
 3727 001d 00000000 		.4byte	0
 3728 0021 00000000 		.4byte	.Ldebug_line0
 3729 0025 02       		.uleb128 0x2
 3730 0026 04       		.byte	0x4
 3731 0027 05       		.byte	0x5
 3732 0028 696E7400 		.ascii	"int\000"
 3733 002c 03       		.uleb128 0x3
 3734 002d 4D0D0000 		.4byte	.LASF2
 3735 0031 0C       		.byte	0xc
 3736 0032 D8       		.byte	0xd8
 3737 0033 37000000 		.4byte	0x37
 3738 0037 04       		.uleb128 0x4
 3739 0038 04       		.byte	0x4
 3740 0039 07       		.byte	0x7
 3741 003a 8C0F0000 		.4byte	.LASF0
 3742 003e 04       		.uleb128 0x4
 3743 003f 01       		.byte	0x1
 3744 0040 06       		.byte	0x6
 3745 0041 69120000 		.4byte	.LASF1
 3746 0045 03       		.uleb128 0x3
 3747 0046 620F0000 		.4byte	.LASF3
 3748 004a 0D       		.byte	0xd
 3749 004b 1D       		.byte	0x1d
 3750 004c 50000000 		.4byte	0x50
 3751 0050 04       		.uleb128 0x4
 3752 0051 01       		.byte	0x1
 3753 0052 08       		.byte	0x8
 3754 0053 B9100000 		.4byte	.LASF4
 3755 0057 04       		.uleb128 0x4
 3756 0058 02       		.byte	0x2
 3757 0059 05       		.byte	0x5
 3758 005a 84020000 		.4byte	.LASF5
 3759 005e 03       		.uleb128 0x3
 3760 005f 85050000 		.4byte	.LASF6
 3761 0063 0D       		.byte	0xd
 3762 0064 2B       		.byte	0x2b
 3763 0065 69000000 		.4byte	0x69
 3764 0069 04       		.uleb128 0x4
 3765 006a 02       		.byte	0x2
 3766 006b 07       		.byte	0x7
 3767 006c 80120000 		.4byte	.LASF7
 3768 0070 03       		.uleb128 0x3
 3769 0071 1B020000 		.4byte	.LASF8
 3770 0075 0D       		.byte	0xd
 3771 0076 3F       		.byte	0x3f
 3772 0077 7B000000 		.4byte	0x7b
 3773 007b 04       		.uleb128 0x4
 3774 007c 04       		.byte	0x4
 3775 007d 05       		.byte	0x5
 3776 007e 30000000 		.4byte	.LASF9
 3777 0082 03       		.uleb128 0x3
 3778 0083 E6100000 		.4byte	.LASF10
 3779 0087 0D       		.byte	0xd
 3780 0088 41       		.byte	0x41
 3781 0089 8D000000 		.4byte	0x8d
 3782 008d 04       		.uleb128 0x4
ARM GAS  C:\Users\IDONNO~1\AppData\Local\Temp\ccY27Fyg.s 			page 68


 3783 008e 04       		.byte	0x4
 3784 008f 07       		.byte	0x7
 3785 0090 E80F0000 		.4byte	.LASF11
 3786 0094 04       		.uleb128 0x4
 3787 0095 08       		.byte	0x8
 3788 0096 05       		.byte	0x5
 3789 0097 BB090000 		.4byte	.LASF12
 3790 009b 03       		.uleb128 0x3
 3791 009c 2A080000 		.4byte	.LASF13
 3792 00a0 0D       		.byte	0xd
 3793 00a1 5B       		.byte	0x5b
 3794 00a2 A6000000 		.4byte	0xa6
 3795 00a6 04       		.uleb128 0x4
 3796 00a7 08       		.byte	0x8
 3797 00a8 07       		.byte	0x7
 3798 00a9 1D050000 		.4byte	.LASF14
 3799 00ad 03       		.uleb128 0x3
 3800 00ae 010A0000 		.4byte	.LASF15
 3801 00b2 0E       		.byte	0xe
 3802 00b3 18       		.byte	0x18
 3803 00b4 45000000 		.4byte	0x45
 3804 00b8 03       		.uleb128 0x3
 3805 00b9 250D0000 		.4byte	.LASF16
 3806 00bd 0E       		.byte	0xe
 3807 00be 24       		.byte	0x24
 3808 00bf 5E000000 		.4byte	0x5e
 3809 00c3 03       		.uleb128 0x3
 3810 00c4 1E100000 		.4byte	.LASF17
 3811 00c8 0E       		.byte	0xe
 3812 00c9 2C       		.byte	0x2c
 3813 00ca 70000000 		.4byte	0x70
 3814 00ce 03       		.uleb128 0x3
 3815 00cf 3F040000 		.4byte	.LASF18
 3816 00d3 0E       		.byte	0xe
 3817 00d4 30       		.byte	0x30
 3818 00d5 82000000 		.4byte	0x82
 3819 00d9 03       		.uleb128 0x3
 3820 00da C90E0000 		.4byte	.LASF19
 3821 00de 0E       		.byte	0xe
 3822 00df 3C       		.byte	0x3c
 3823 00e0 9B000000 		.4byte	0x9b
 3824 00e4 05       		.uleb128 0x5
 3825 00e5 C3000000 		.4byte	0xc3
 3826 00e9 03       		.uleb128 0x3
 3827 00ea 540D0000 		.4byte	.LASF20
 3828 00ee 0F       		.byte	0xf
 3829 00ef 45       		.byte	0x45
 3830 00f0 CE000000 		.4byte	0xce
 3831 00f4 03       		.uleb128 0x3
 3832 00f5 B70C0000 		.4byte	.LASF21
 3833 00f9 0F       		.byte	0xf
 3834 00fa 48       		.byte	0x48
 3835 00fb AD000000 		.4byte	0xad
 3836 00ff 03       		.uleb128 0x3
 3837 0100 AD090000 		.4byte	.LASF22
 3838 0104 0F       		.byte	0xf
 3839 0105 49       		.byte	0x49
ARM GAS  C:\Users\IDONNO~1\AppData\Local\Temp\ccY27Fyg.s 			page 69


 3840 0106 AD000000 		.4byte	0xad
 3841 010a 03       		.uleb128 0x3
 3842 010b AD0D0000 		.4byte	.LASF23
 3843 010f 0F       		.byte	0xf
 3844 0110 4A       		.byte	0x4a
 3845 0111 AD000000 		.4byte	0xad
 3846 0115 03       		.uleb128 0x3
 3847 0116 F60B0000 		.4byte	.LASF24
 3848 011a 0F       		.byte	0xf
 3849 011b 4B       		.byte	0x4b
 3850 011c AD000000 		.4byte	0xad
 3851 0120 03       		.uleb128 0x3
 3852 0121 C0040000 		.4byte	.LASF25
 3853 0125 0F       		.byte	0xf
 3854 0126 4C       		.byte	0x4c
 3855 0127 CE000000 		.4byte	0xce
 3856 012b 03       		.uleb128 0x3
 3857 012c 1A0B0000 		.4byte	.LASF26
 3858 0130 0F       		.byte	0xf
 3859 0131 4D       		.byte	0x4d
 3860 0132 C3000000 		.4byte	0xc3
 3861 0136 03       		.uleb128 0x3
 3862 0137 5B040000 		.4byte	.LASF27
 3863 013b 0F       		.byte	0xf
 3864 013c 4F       		.byte	0x4f
 3865 013d CE000000 		.4byte	0xce
 3866 0141 03       		.uleb128 0x3
 3867 0142 90050000 		.4byte	.LASF28
 3868 0146 0F       		.byte	0xf
 3869 0147 51       		.byte	0x51
 3870 0148 C3000000 		.4byte	0xc3
 3871 014c 03       		.uleb128 0x3
 3872 014d 67010000 		.4byte	.LASF29
 3873 0151 10       		.byte	0x10
 3874 0152 33       		.byte	0x33
 3875 0153 CE000000 		.4byte	0xce
 3876 0157 03       		.uleb128 0x3
 3877 0158 21060000 		.4byte	.LASF30
 3878 015c 10       		.byte	0x10
 3879 015d 3F       		.byte	0x3f
 3880 015e 62010000 		.4byte	0x162
 3881 0162 06       		.uleb128 0x6
 3882 0163 690A0000 		.4byte	.LASF52
 3883 0167 48       		.byte	0x48
 3884 0168 11       		.byte	0x11
 3885 0169 C2       		.byte	0xc2
 3886 016a 67020000 		.4byte	0x267
 3887 016e 07       		.uleb128 0x7
 3888 016f C20E0000 		.4byte	.LASF31
 3889 0173 11       		.byte	0x11
 3890 0174 C3       		.byte	0xc3
 3891 0175 72020000 		.4byte	0x272
 3892 0179 00       		.byte	0
 3893 017a 07       		.uleb128 0x7
 3894 017b CC0F0000 		.4byte	.LASF32
 3895 017f 11       		.byte	0x11
 3896 0180 C5       		.byte	0xc5
ARM GAS  C:\Users\IDONNO~1\AppData\Local\Temp\ccY27Fyg.s 			page 70


 3897 0181 72020000 		.4byte	0x272
 3898 0185 04       		.byte	0x4
 3899 0186 07       		.uleb128 0x7
 3900 0187 F6000000 		.4byte	.LASF33
 3901 018b 11       		.byte	0x11
 3902 018c C7       		.byte	0xc7
 3903 018d 20010000 		.4byte	0x120
 3904 0191 08       		.byte	0x8
 3905 0192 07       		.uleb128 0x7
 3906 0193 D20E0000 		.4byte	.LASF34
 3907 0197 11       		.byte	0x11
 3908 0198 C8       		.byte	0xc8
 3909 0199 A2040000 		.4byte	0x4a2
 3910 019d 0C       		.byte	0xc
 3911 019e 07       		.uleb128 0x7
 3912 019f E8050000 		.4byte	.LASF35
 3913 01a3 11       		.byte	0x11
 3914 01a4 CA       		.byte	0xca
 3915 01a5 72020000 		.4byte	0x272
 3916 01a9 10       		.byte	0x10
 3917 01aa 07       		.uleb128 0x7
 3918 01ab D8090000 		.4byte	.LASF36
 3919 01af 11       		.byte	0x11
 3920 01b0 CB       		.byte	0xcb
 3921 01b1 72020000 		.4byte	0x272
 3922 01b5 14       		.byte	0x14
 3923 01b6 07       		.uleb128 0x7
 3924 01b7 39090000 		.4byte	.LASF37
 3925 01bb 11       		.byte	0x11
 3926 01bc D2       		.byte	0xd2
 3927 01bd E7060000 		.4byte	0x6e7
 3928 01c1 18       		.byte	0x18
 3929 01c2 07       		.uleb128 0x7
 3930 01c3 E0090000 		.4byte	.LASF38
 3931 01c7 11       		.byte	0x11
 3932 01c8 DD       		.byte	0xdd
 3933 01c9 FF000000 		.4byte	0xff
 3934 01cd 1C       		.byte	0x1c
 3935 01ce 07       		.uleb128 0x7
 3936 01cf 5F0B0000 		.4byte	.LASF39
 3937 01d3 11       		.byte	0x11
 3938 01d4 E1       		.byte	0xe1
 3939 01d5 F4000000 		.4byte	0xf4
 3940 01d9 1D       		.byte	0x1d
 3941 01da 07       		.uleb128 0x7
 3942 01db 26110000 		.4byte	.LASF40
 3943 01df 11       		.byte	0x11
 3944 01e0 E6       		.byte	0xe6
 3945 01e1 0A010000 		.4byte	0x10a
 3946 01e5 1E       		.byte	0x1e
 3947 01e6 07       		.uleb128 0x7
 3948 01e7 70110000 		.4byte	.LASF41
 3949 01eb 11       		.byte	0x11
 3950 01ec EC       		.byte	0xec
 3951 01ed 15010000 		.4byte	0x115
 3952 01f1 1F       		.byte	0x1f
 3953 01f2 07       		.uleb128 0x7
ARM GAS  C:\Users\IDONNO~1\AppData\Local\Temp\ccY27Fyg.s 			page 71


 3954 01f3 A3000000 		.4byte	.LASF42
 3955 01f7 11       		.byte	0x11
 3956 01f8 F3       		.byte	0xf3
 3957 01f9 F9060000 		.4byte	0x6f9
 3958 01fd 20       		.byte	0x20
 3959 01fe 08       		.uleb128 0x8
 3960 01ff 705F7500 		.ascii	"p_u\000"
 3961 0203 11       		.byte	0x11
 3962 0204 3101     		.2byte	0x131
 3963 0206 22060000 		.4byte	0x622
 3964 020a 24       		.byte	0x24
 3965 020b 09       		.uleb128 0x9
 3966 020c 07020000 		.4byte	.LASF43
 3967 0210 11       		.byte	0x11
 3968 0211 3601     		.2byte	0x136
 3969 0213 78020000 		.4byte	0x278
 3970 0217 28       		.byte	0x28
 3971 0218 09       		.uleb128 0x9
 3972 0219 BA010000 		.4byte	.LASF44
 3973 021d 11       		.byte	0x11
 3974 021e 3C01     		.2byte	0x13c
 3975 0220 9C020000 		.4byte	0x29c
 3976 0224 2C       		.byte	0x2c
 3977 0225 09       		.uleb128 0x9
 3978 0226 7F0C0000 		.4byte	.LASF45
 3979 022a 11       		.byte	0x11
 3980 022b 4001     		.2byte	0x140
 3981 022d 2B010000 		.4byte	0x12b
 3982 0231 34       		.byte	0x34
 3983 0232 09       		.uleb128 0x9
 3984 0233 120E0000 		.4byte	.LASF46
 3985 0237 11       		.byte	0x11
 3986 0238 4601     		.2byte	0x146
 3987 023a 36010000 		.4byte	0x136
 3988 023e 38       		.byte	0x38
 3989 023f 09       		.uleb128 0x9
 3990 0240 5A0A0000 		.4byte	.LASF47
 3991 0244 11       		.byte	0x11
 3992 0245 4D01     		.2byte	0x14d
 3993 0247 E1060000 		.4byte	0x6e1
 3994 024b 3C       		.byte	0x3c
 3995 024c 09       		.uleb128 0x9
 3996 024d CC0B0000 		.4byte	.LASF48
 3997 0251 11       		.byte	0x11
 3998 0252 5101     		.2byte	0x151
 3999 0254 20010000 		.4byte	0x120
 4000 0258 40       		.byte	0x40
 4001 0259 09       		.uleb128 0x9
 4002 025a 2F0A0000 		.4byte	.LASF49
 4003 025e 11       		.byte	0x11
 4004 025f 5801     		.2byte	0x158
 4005 0261 4F030000 		.4byte	0x34f
 4006 0265 44       		.byte	0x44
 4007 0266 00       		.byte	0
 4008 0267 03       		.uleb128 0x3
 4009 0268 3A0D0000 		.4byte	.LASF50
 4010 026c 10       		.byte	0x10
ARM GAS  C:\Users\IDONNO~1\AppData\Local\Temp\ccY27Fyg.s 			page 72


 4011 026d 44       		.byte	0x44
 4012 026e 72020000 		.4byte	0x272
 4013 0272 0A       		.uleb128 0xa
 4014 0273 04       		.byte	0x4
 4015 0274 57010000 		.4byte	0x157
 4016 0278 03       		.uleb128 0x3
 4017 0279 E7010000 		.4byte	.LASF51
 4018 027d 10       		.byte	0x10
 4019 027e 49       		.byte	0x49
 4020 027f 83020000 		.4byte	0x283
 4021 0283 06       		.uleb128 0x6
 4022 0284 96050000 		.4byte	.LASF53
 4023 0288 04       		.byte	0x4
 4024 0289 11       		.byte	0x11
 4025 028a B0       		.byte	0xb0
 4026 028b 9C020000 		.4byte	0x29c
 4027 028f 07       		.uleb128 0x7
 4028 0290 C20E0000 		.4byte	.LASF31
 4029 0294 11       		.byte	0x11
 4030 0295 B1       		.byte	0xb1
 4031 0296 72020000 		.4byte	0x272
 4032 029a 00       		.byte	0
 4033 029b 00       		.byte	0
 4034 029c 03       		.uleb128 0x3
 4035 029d 39000000 		.4byte	.LASF54
 4036 02a1 10       		.byte	0x10
 4037 02a2 50       		.byte	0x50
 4038 02a3 A7020000 		.4byte	0x2a7
 4039 02a7 06       		.uleb128 0x6
 4040 02a8 A90A0000 		.4byte	.LASF55
 4041 02ac 08       		.byte	0x8
 4042 02ad 11       		.byte	0x11
 4043 02ae B7       		.byte	0xb7
 4044 02af CC020000 		.4byte	0x2cc
 4045 02b3 07       		.uleb128 0x7
 4046 02b4 C20E0000 		.4byte	.LASF31
 4047 02b8 11       		.byte	0x11
 4048 02b9 B8       		.byte	0xb8
 4049 02ba 72020000 		.4byte	0x272
 4050 02be 00       		.byte	0
 4051 02bf 07       		.uleb128 0x7
 4052 02c0 CC0F0000 		.4byte	.LASF32
 4053 02c4 11       		.byte	0x11
 4054 02c5 B9       		.byte	0xb9
 4055 02c6 72020000 		.4byte	0x272
 4056 02ca 04       		.byte	0x4
 4057 02cb 00       		.byte	0
 4058 02cc 03       		.uleb128 0x3
 4059 02cd 01100000 		.4byte	.LASF56
 4060 02d1 10       		.byte	0x10
 4061 02d2 57       		.byte	0x57
 4062 02d3 D7020000 		.4byte	0x2d7
 4063 02d7 0B       		.uleb128 0xb
 4064 02d8 8E020000 		.4byte	.LASF57
 4065 02dc 1C       		.byte	0x1c
 4066 02dd 11       		.byte	0x11
 4067 02de 9001     		.2byte	0x190
ARM GAS  C:\Users\IDONNO~1\AppData\Local\Temp\ccY27Fyg.s 			page 73


 4068 02e0 33030000 		.4byte	0x333
 4069 02e4 09       		.uleb128 0x9
 4070 02e5 F9090000 		.4byte	.LASF58
 4071 02e9 11       		.byte	0x11
 4072 02ea 9101     		.2byte	0x191
 4073 02ec 9C020000 		.4byte	0x29c
 4074 02f0 00       		.byte	0
 4075 02f1 09       		.uleb128 0x9
 4076 02f2 67040000 		.4byte	.LASF59
 4077 02f6 11       		.byte	0x11
 4078 02f7 9201     		.2byte	0x192
 4079 02f9 20010000 		.4byte	0x120
 4080 02fd 08       		.byte	0x8
 4081 02fe 09       		.uleb128 0x9
 4082 02ff 93120000 		.4byte	.LASF60
 4083 0303 11       		.byte	0x11
 4084 0304 9401     		.2byte	0x194
 4085 0306 A2040000 		.4byte	0x4a2
 4086 030a 0C       		.byte	0xc
 4087 030b 09       		.uleb128 0x9
 4088 030c 94090000 		.4byte	.LASF61
 4089 0310 11       		.byte	0x11
 4090 0311 9701     		.2byte	0x197
 4091 0313 72020000 		.4byte	0x272
 4092 0317 10       		.byte	0x10
 4093 0318 09       		.uleb128 0x9
 4094 0319 000C0000 		.4byte	.LASF62
 4095 031d 11       		.byte	0x11
 4096 031e 9801     		.2byte	0x198
 4097 0320 72020000 		.4byte	0x272
 4098 0324 14       		.byte	0x14
 4099 0325 09       		.uleb128 0x9
 4100 0326 F60D0000 		.4byte	.LASF63
 4101 032a 11       		.byte	0x11
 4102 032b 9B01     		.2byte	0x19b
 4103 032d 72020000 		.4byte	0x272
 4104 0331 18       		.byte	0x18
 4105 0332 00       		.byte	0
 4106 0333 03       		.uleb128 0x3
 4107 0334 6E030000 		.4byte	.LASF64
 4108 0338 10       		.byte	0x10
 4109 0339 5C       		.byte	0x5c
 4110 033a 3E030000 		.4byte	0x33e
 4111 033e 0A       		.uleb128 0xa
 4112 033f 04       		.byte	0x4
 4113 0340 44030000 		.4byte	0x344
 4114 0344 0C       		.uleb128 0xc
 4115 0345 4F030000 		.4byte	0x34f
 4116 0349 0D       		.uleb128 0xd
 4117 034a 4F030000 		.4byte	0x34f
 4118 034e 00       		.byte	0
 4119 034f 0E       		.uleb128 0xe
 4120 0350 04       		.byte	0x4
 4121 0351 03       		.uleb128 0x3
 4122 0352 670B0000 		.4byte	.LASF65
 4123 0356 10       		.byte	0x10
 4124 0357 61       		.byte	0x61
ARM GAS  C:\Users\IDONNO~1\AppData\Local\Temp\ccY27Fyg.s 			page 74


 4125 0358 5C030000 		.4byte	0x35c
 4126 035c 0B       		.uleb128 0xb
 4127 035d C8040000 		.4byte	.LASF66
 4128 0361 14       		.byte	0x14
 4129 0362 11       		.byte	0x11
 4130 0363 6B01     		.2byte	0x16b
 4131 0365 AB030000 		.4byte	0x3ab
 4132 0369 09       		.uleb128 0x9
 4133 036a EC110000 		.4byte	.LASF67
 4134 036e 11       		.byte	0x11
 4135 036f 6C01     		.2byte	0x16c
 4136 0371 FE060000 		.4byte	0x6fe
 4137 0375 00       		.byte	0
 4138 0376 09       		.uleb128 0x9
 4139 0377 FF120000 		.4byte	.LASF68
 4140 037b 11       		.byte	0x11
 4141 037c 6D01     		.2byte	0x16d
 4142 037e FE060000 		.4byte	0x6fe
 4143 0382 04       		.byte	0x4
 4144 0383 09       		.uleb128 0x9
 4145 0384 72090000 		.4byte	.LASF69
 4146 0388 11       		.byte	0x11
 4147 0389 6E01     		.2byte	0x16e
 4148 038b 4C010000 		.4byte	0x14c
 4149 038f 08       		.byte	0x8
 4150 0390 09       		.uleb128 0x9
 4151 0391 15050000 		.4byte	.LASF70
 4152 0395 11       		.byte	0x11
 4153 0396 6F01     		.2byte	0x16f
 4154 0398 33030000 		.4byte	0x333
 4155 039c 0C       		.byte	0xc
 4156 039d 09       		.uleb128 0x9
 4157 039e 6E040000 		.4byte	.LASF71
 4158 03a2 11       		.byte	0x11
 4159 03a3 7101     		.2byte	0x171
 4160 03a5 4F030000 		.4byte	0x34f
 4161 03a9 10       		.byte	0x10
 4162 03aa 00       		.byte	0
 4163 03ab 03       		.uleb128 0x3
 4164 03ac 10110000 		.4byte	.LASF72
 4165 03b0 10       		.byte	0x10
 4166 03b1 66       		.byte	0x66
 4167 03b2 B6030000 		.4byte	0x3b6
 4168 03b6 0B       		.uleb128 0xb
 4169 03b7 F0050000 		.4byte	.LASF73
 4170 03bb 10       		.byte	0x10
 4171 03bc 11       		.byte	0x11
 4172 03bd 7B01     		.2byte	0x17b
 4173 03bf F8030000 		.4byte	0x3f8
 4174 03c3 09       		.uleb128 0x9
 4175 03c4 EC110000 		.4byte	.LASF67
 4176 03c8 11       		.byte	0x11
 4177 03c9 7C01     		.2byte	0x17c
 4178 03cb FE060000 		.4byte	0x6fe
 4179 03cf 00       		.byte	0
 4180 03d0 09       		.uleb128 0x9
 4181 03d1 FF120000 		.4byte	.LASF68
ARM GAS  C:\Users\IDONNO~1\AppData\Local\Temp\ccY27Fyg.s 			page 75


 4182 03d5 11       		.byte	0x11
 4183 03d6 7E01     		.2byte	0x17e
 4184 03d8 FE060000 		.4byte	0x6fe
 4185 03dc 04       		.byte	0x4
 4186 03dd 09       		.uleb128 0x9
 4187 03de 72090000 		.4byte	.LASF69
 4188 03e2 11       		.byte	0x11
 4189 03e3 8001     		.2byte	0x180
 4190 03e5 4C010000 		.4byte	0x14c
 4191 03e9 08       		.byte	0x8
 4192 03ea 09       		.uleb128 0x9
 4193 03eb AF010000 		.4byte	.LASF74
 4194 03ef 11       		.byte	0x11
 4195 03f0 8201     		.2byte	0x182
 4196 03f2 F9060000 		.4byte	0x6f9
 4197 03f6 0C       		.byte	0xc
 4198 03f7 00       		.byte	0
 4199 03f8 03       		.uleb128 0x3
 4200 03f9 8C0A0000 		.4byte	.LASF75
 4201 03fd 10       		.byte	0x10
 4202 03fe 6B       		.byte	0x6b
 4203 03ff 03040000 		.4byte	0x403
 4204 0403 0B       		.uleb128 0xb
 4205 0404 50030000 		.4byte	.LASF76
 4206 0408 04       		.byte	0x4
 4207 0409 11       		.byte	0x11
 4208 040a A201     		.2byte	0x1a2
 4209 040c 1E040000 		.4byte	0x41e
 4210 0410 09       		.uleb128 0x9
 4211 0411 2D110000 		.4byte	.LASF77
 4212 0415 11       		.byte	0x11
 4213 0416 AA01     		.2byte	0x1aa
 4214 0418 04070000 		.4byte	0x704
 4215 041c 00       		.byte	0
 4216 041d 00       		.byte	0
 4217 041e 03       		.uleb128 0x3
 4218 041f 01120000 		.4byte	.LASF78
 4219 0423 10       		.byte	0x10
 4220 0424 70       		.byte	0x70
 4221 0425 29040000 		.4byte	0x429
 4222 0429 0F       		.uleb128 0xf
 4223 042a AE0E0000 		.4byte	.LASF79
 4224 042e 5802     		.2byte	0x258
 4225 0430 11       		.byte	0x11
 4226 0431 C201     		.2byte	0x1c2
 4227 0433 85040000 		.4byte	0x485
 4228 0437 09       		.uleb128 0x9
 4229 0438 0E0F0000 		.4byte	.LASF80
 4230 043c 11       		.byte	0x11
 4231 043d C601     		.2byte	0x1c6
 4232 043f CC020000 		.4byte	0x2cc
 4233 0443 00       		.byte	0
 4234 0444 09       		.uleb128 0x9
 4235 0445 75020000 		.4byte	.LASF81
 4236 0449 11       		.byte	0x11
 4237 044a CA01     		.2byte	0x1ca
 4238 044c AB030000 		.4byte	0x3ab
ARM GAS  C:\Users\IDONNO~1\AppData\Local\Temp\ccY27Fyg.s 			page 76


 4239 0450 1C       		.byte	0x1c
 4240 0451 08       		.uleb128 0x8
 4241 0452 64626700 		.ascii	"dbg\000"
 4242 0456 11       		.byte	0x11
 4243 0457 CE01     		.2byte	0x1ce
 4244 0459 F8030000 		.4byte	0x3f8
 4245 045d 2C       		.byte	0x2c
 4246 045e 09       		.uleb128 0x9
 4247 045f D10C0000 		.4byte	.LASF82
 4248 0463 11       		.byte	0x11
 4249 0464 D201     		.2byte	0x1d2
 4250 0466 57010000 		.4byte	0x157
 4251 046a 30       		.byte	0x30
 4252 046b 08       		.uleb128 0x8
 4253 046c 746D00   		.ascii	"tm\000"
 4254 046f 11       		.byte	0x11
 4255 0470 D701     		.2byte	0x1d7
 4256 0472 17060000 		.4byte	0x617
 4257 0476 78       		.byte	0x78
 4258 0477 09       		.uleb128 0x9
 4259 0478 9C020000 		.4byte	.LASF83
 4260 047c 11       		.byte	0x11
 4261 047d E301     		.2byte	0x1e3
 4262 047f 09070000 		.4byte	0x709
 4263 0483 80       		.byte	0x80
 4264 0484 00       		.byte	0
 4265 0485 04       		.uleb128 0x4
 4266 0486 04       		.byte	0x4
 4267 0487 07       		.byte	0x7
 4268 0488 D30F0000 		.4byte	.LASF84
 4269 048c 03       		.uleb128 0x3
 4270 048d C2000000 		.4byte	.LASF85
 4271 0491 12       		.byte	0x12
 4272 0492 65       		.byte	0x65
 4273 0493 4F030000 		.4byte	0x34f
 4274 0497 03       		.uleb128 0x3
 4275 0498 9E120000 		.4byte	.LASF86
 4276 049c 12       		.byte	0x12
 4277 049d 6D       		.byte	0x6d
 4278 049e D9000000 		.4byte	0xd9
 4279 04a2 06       		.uleb128 0x6
 4280 04a3 300B0000 		.4byte	.LASF87
 4281 04a7 04       		.byte	0x4
 4282 04a8 12       		.byte	0x12
 4283 04a9 89       		.byte	0x89
 4284 04aa BB040000 		.4byte	0x4bb
 4285 04ae 10       		.uleb128 0x10
 4286 04af 72313300 		.ascii	"r13\000"
 4287 04b3 12       		.byte	0x12
 4288 04b4 8A       		.byte	0x8a
 4289 04b5 FC050000 		.4byte	0x5fc
 4290 04b9 00       		.byte	0
 4291 04ba 00       		.byte	0
 4292 04bb 06       		.uleb128 0x6
 4293 04bc 690E0000 		.4byte	.LASF88
 4294 04c0 64       		.byte	0x64
 4295 04c1 13       		.byte	0x13
ARM GAS  C:\Users\IDONNO~1\AppData\Local\Temp\ccY27Fyg.s 			page 77


 4296 04c2 F4       		.byte	0xf4
 4297 04c3 FC050000 		.4byte	0x5fc
 4298 04c7 10       		.uleb128 0x10
 4299 04c8 73313600 		.ascii	"s16\000"
 4300 04cc 13       		.byte	0x13
 4301 04cd F6       		.byte	0xf6
 4302 04ce 8C040000 		.4byte	0x48c
 4303 04d2 00       		.byte	0
 4304 04d3 10       		.uleb128 0x10
 4305 04d4 73313700 		.ascii	"s17\000"
 4306 04d8 13       		.byte	0x13
 4307 04d9 F7       		.byte	0xf7
 4308 04da 8C040000 		.4byte	0x48c
 4309 04de 04       		.byte	0x4
 4310 04df 10       		.uleb128 0x10
 4311 04e0 73313800 		.ascii	"s18\000"
 4312 04e4 13       		.byte	0x13
 4313 04e5 F8       		.byte	0xf8
 4314 04e6 8C040000 		.4byte	0x48c
 4315 04ea 08       		.byte	0x8
 4316 04eb 10       		.uleb128 0x10
 4317 04ec 73313900 		.ascii	"s19\000"
 4318 04f0 13       		.byte	0x13
 4319 04f1 F9       		.byte	0xf9
 4320 04f2 8C040000 		.4byte	0x48c
 4321 04f6 0C       		.byte	0xc
 4322 04f7 10       		.uleb128 0x10
 4323 04f8 73323000 		.ascii	"s20\000"
 4324 04fc 13       		.byte	0x13
 4325 04fd FA       		.byte	0xfa
 4326 04fe 8C040000 		.4byte	0x48c
 4327 0502 10       		.byte	0x10
 4328 0503 10       		.uleb128 0x10
 4329 0504 73323100 		.ascii	"s21\000"
 4330 0508 13       		.byte	0x13
 4331 0509 FB       		.byte	0xfb
 4332 050a 8C040000 		.4byte	0x48c
 4333 050e 14       		.byte	0x14
 4334 050f 10       		.uleb128 0x10
 4335 0510 73323200 		.ascii	"s22\000"
 4336 0514 13       		.byte	0x13
 4337 0515 FC       		.byte	0xfc
 4338 0516 8C040000 		.4byte	0x48c
 4339 051a 18       		.byte	0x18
 4340 051b 10       		.uleb128 0x10
 4341 051c 73323300 		.ascii	"s23\000"
 4342 0520 13       		.byte	0x13
 4343 0521 FD       		.byte	0xfd
 4344 0522 8C040000 		.4byte	0x48c
 4345 0526 1C       		.byte	0x1c
 4346 0527 10       		.uleb128 0x10
 4347 0528 73323400 		.ascii	"s24\000"
 4348 052c 13       		.byte	0x13
 4349 052d FE       		.byte	0xfe
 4350 052e 8C040000 		.4byte	0x48c
 4351 0532 20       		.byte	0x20
 4352 0533 10       		.uleb128 0x10
ARM GAS  C:\Users\IDONNO~1\AppData\Local\Temp\ccY27Fyg.s 			page 78


 4353 0534 73323500 		.ascii	"s25\000"
 4354 0538 13       		.byte	0x13
 4355 0539 FF       		.byte	0xff
 4356 053a 8C040000 		.4byte	0x48c
 4357 053e 24       		.byte	0x24
 4358 053f 08       		.uleb128 0x8
 4359 0540 73323600 		.ascii	"s26\000"
 4360 0544 13       		.byte	0x13
 4361 0545 0001     		.2byte	0x100
 4362 0547 8C040000 		.4byte	0x48c
 4363 054b 28       		.byte	0x28
 4364 054c 08       		.uleb128 0x8
 4365 054d 73323700 		.ascii	"s27\000"
 4366 0551 13       		.byte	0x13
 4367 0552 0101     		.2byte	0x101
 4368 0554 8C040000 		.4byte	0x48c
 4369 0558 2C       		.byte	0x2c
 4370 0559 08       		.uleb128 0x8
 4371 055a 73323800 		.ascii	"s28\000"
 4372 055e 13       		.byte	0x13
 4373 055f 0201     		.2byte	0x102
 4374 0561 8C040000 		.4byte	0x48c
 4375 0565 30       		.byte	0x30
 4376 0566 08       		.uleb128 0x8
 4377 0567 73323900 		.ascii	"s29\000"
 4378 056b 13       		.byte	0x13
 4379 056c 0301     		.2byte	0x103
 4380 056e 8C040000 		.4byte	0x48c
 4381 0572 34       		.byte	0x34
 4382 0573 08       		.uleb128 0x8
 4383 0574 73333000 		.ascii	"s30\000"
 4384 0578 13       		.byte	0x13
 4385 0579 0401     		.2byte	0x104
 4386 057b 8C040000 		.4byte	0x48c
 4387 057f 38       		.byte	0x38
 4388 0580 08       		.uleb128 0x8
 4389 0581 73333100 		.ascii	"s31\000"
 4390 0585 13       		.byte	0x13
 4391 0586 0501     		.2byte	0x105
 4392 0588 8C040000 		.4byte	0x48c
 4393 058c 3C       		.byte	0x3c
 4394 058d 08       		.uleb128 0x8
 4395 058e 723400   		.ascii	"r4\000"
 4396 0591 13       		.byte	0x13
 4397 0592 0701     		.2byte	0x107
 4398 0594 8C040000 		.4byte	0x48c
 4399 0598 40       		.byte	0x40
 4400 0599 08       		.uleb128 0x8
 4401 059a 723500   		.ascii	"r5\000"
 4402 059d 13       		.byte	0x13
 4403 059e 0801     		.2byte	0x108
 4404 05a0 8C040000 		.4byte	0x48c
 4405 05a4 44       		.byte	0x44
 4406 05a5 08       		.uleb128 0x8
 4407 05a6 723600   		.ascii	"r6\000"
 4408 05a9 13       		.byte	0x13
 4409 05aa 0901     		.2byte	0x109
ARM GAS  C:\Users\IDONNO~1\AppData\Local\Temp\ccY27Fyg.s 			page 79


 4410 05ac 8C040000 		.4byte	0x48c
 4411 05b0 48       		.byte	0x48
 4412 05b1 08       		.uleb128 0x8
 4413 05b2 723700   		.ascii	"r7\000"
 4414 05b5 13       		.byte	0x13
 4415 05b6 0A01     		.2byte	0x10a
 4416 05b8 8C040000 		.4byte	0x48c
 4417 05bc 4C       		.byte	0x4c
 4418 05bd 08       		.uleb128 0x8
 4419 05be 723800   		.ascii	"r8\000"
 4420 05c1 13       		.byte	0x13
 4421 05c2 0B01     		.2byte	0x10b
 4422 05c4 8C040000 		.4byte	0x48c
 4423 05c8 50       		.byte	0x50
 4424 05c9 08       		.uleb128 0x8
 4425 05ca 723900   		.ascii	"r9\000"
 4426 05cd 13       		.byte	0x13
 4427 05ce 0C01     		.2byte	0x10c
 4428 05d0 8C040000 		.4byte	0x48c
 4429 05d4 54       		.byte	0x54
 4430 05d5 08       		.uleb128 0x8
 4431 05d6 72313000 		.ascii	"r10\000"
 4432 05da 13       		.byte	0x13
 4433 05db 0D01     		.2byte	0x10d
 4434 05dd 8C040000 		.4byte	0x48c
 4435 05e1 58       		.byte	0x58
 4436 05e2 08       		.uleb128 0x8
 4437 05e3 72313100 		.ascii	"r11\000"
 4438 05e7 13       		.byte	0x13
 4439 05e8 0E01     		.2byte	0x10e
 4440 05ea 8C040000 		.4byte	0x48c
 4441 05ee 5C       		.byte	0x5c
 4442 05ef 08       		.uleb128 0x8
 4443 05f0 6C7200   		.ascii	"lr\000"
 4444 05f3 13       		.byte	0x13
 4445 05f4 0F01     		.2byte	0x10f
 4446 05f6 8C040000 		.4byte	0x48c
 4447 05fa 60       		.byte	0x60
 4448 05fb 00       		.byte	0
 4449 05fc 0A       		.uleb128 0xa
 4450 05fd 04       		.byte	0x4
 4451 05fe BB040000 		.4byte	0x4bb
 4452 0602 11       		.uleb128 0x11
 4453 0603 04       		.byte	0x4
 4454 0604 14       		.byte	0x14
 4455 0605 38       		.byte	0x38
 4456 0606 17060000 		.4byte	0x617
 4457 060a 07       		.uleb128 0x7
 4458 060b 7A060000 		.4byte	.LASF89
 4459 060f 14       		.byte	0x14
 4460 0610 3C       		.byte	0x3c
 4461 0611 E9000000 		.4byte	0xe9
 4462 0615 00       		.byte	0
 4463 0616 00       		.byte	0
 4464 0617 03       		.uleb128 0x3
 4465 0618 92000000 		.4byte	.LASF90
 4466 061c 14       		.byte	0x14
ARM GAS  C:\Users\IDONNO~1\AppData\Local\Temp\ccY27Fyg.s 			page 80


 4467 061d 3D       		.byte	0x3d
 4468 061e 02060000 		.4byte	0x602
 4469 0622 12       		.uleb128 0x12
 4470 0623 04       		.byte	0x4
 4471 0624 11       		.byte	0x11
 4472 0625 FA       		.byte	0xfa
 4473 0626 7F060000 		.4byte	0x67f
 4474 062a 13       		.uleb128 0x13
 4475 062b 73060000 		.4byte	.LASF91
 4476 062f 11       		.byte	0x11
 4477 0630 0101     		.2byte	0x101
 4478 0632 2B010000 		.4byte	0x12b
 4479 0636 13       		.uleb128 0x13
 4480 0637 87130000 		.4byte	.LASF92
 4481 063b 11       		.byte	0x11
 4482 063c 0801     		.2byte	0x108
 4483 063e 2B010000 		.4byte	0x12b
 4484 0642 13       		.uleb128 0x13
 4485 0643 6E020000 		.4byte	.LASF93
 4486 0647 11       		.byte	0x11
 4487 0648 0F01     		.2byte	0x10f
 4488 064a 4F030000 		.4byte	0x34f
 4489 064e 13       		.uleb128 0x13
 4490 064f 20120000 		.4byte	.LASF94
 4491 0653 11       		.byte	0x11
 4492 0654 1601     		.2byte	0x116
 4493 0656 7F060000 		.4byte	0x67f
 4494 065a 13       		.uleb128 0x13
 4495 065b 55100000 		.4byte	.LASF95
 4496 065f 11       		.byte	0x11
 4497 0660 1E01     		.2byte	0x11e
 4498 0662 AA060000 		.4byte	0x6aa
 4499 0666 13       		.uleb128 0x13
 4500 0667 7B000000 		.4byte	.LASF96
 4501 066b 11       		.byte	0x11
 4502 066c 2701     		.2byte	0x127
 4503 066e E1060000 		.4byte	0x6e1
 4504 0672 13       		.uleb128 0x13
 4505 0673 D6020000 		.4byte	.LASF97
 4506 0677 11       		.byte	0x11
 4507 0678 2F01     		.2byte	0x12f
 4508 067a 36010000 		.4byte	0x136
 4509 067e 00       		.byte	0
 4510 067f 0A       		.uleb128 0xa
 4511 0680 04       		.byte	0x4
 4512 0681 67020000 		.4byte	0x267
 4513 0685 06       		.uleb128 0x6
 4514 0686 B3040000 		.4byte	.LASF98
 4515 068a 0C       		.byte	0xc
 4516 068b 15       		.byte	0x15
 4517 068c 34       		.byte	0x34
 4518 068d AA060000 		.4byte	0x6aa
 4519 0691 07       		.uleb128 0x7
 4520 0692 450F0000 		.4byte	.LASF99
 4521 0696 15       		.byte	0x15
 4522 0697 35       		.byte	0x35
 4523 0698 9C020000 		.4byte	0x29c
ARM GAS  C:\Users\IDONNO~1\AppData\Local\Temp\ccY27Fyg.s 			page 81


 4524 069c 00       		.byte	0
 4525 069d 07       		.uleb128 0x7
 4526 069e 9E030000 		.4byte	.LASF100
 4527 06a2 15       		.byte	0x15
 4528 06a3 37       		.byte	0x37
 4529 06a4 41010000 		.4byte	0x141
 4530 06a8 08       		.byte	0x8
 4531 06a9 00       		.byte	0
 4532 06aa 0A       		.uleb128 0xa
 4533 06ab 04       		.byte	0x4
 4534 06ac 85060000 		.4byte	0x685
 4535 06b0 06       		.uleb128 0x6
 4536 06b1 21080000 		.4byte	.LASF101
 4537 06b5 10       		.byte	0x10
 4538 06b6 16       		.byte	0x16
 4539 06b7 39       		.byte	0x39
 4540 06b8 E1060000 		.4byte	0x6e1
 4541 06bc 07       		.uleb128 0x7
 4542 06bd 300E0000 		.4byte	.LASF102
 4543 06c1 16       		.byte	0x16
 4544 06c2 3A       		.byte	0x3a
 4545 06c3 9C020000 		.4byte	0x29c
 4546 06c7 00       		.byte	0
 4547 06c8 07       		.uleb128 0x7
 4548 06c9 9C010000 		.4byte	.LASF103
 4549 06cd 16       		.byte	0x16
 4550 06ce 3C       		.byte	0x3c
 4551 06cf 72020000 		.4byte	0x272
 4552 06d3 08       		.byte	0x8
 4553 06d4 07       		.uleb128 0x7
 4554 06d5 62120000 		.4byte	.LASF104
 4555 06d9 16       		.byte	0x16
 4556 06da 3E       		.byte	0x3e
 4557 06db 24070000 		.4byte	0x724
 4558 06df 0C       		.byte	0xc
 4559 06e0 00       		.byte	0
 4560 06e1 0A       		.uleb128 0xa
 4561 06e2 04       		.byte	0x4
 4562 06e3 B0060000 		.4byte	0x6b0
 4563 06e7 0A       		.uleb128 0xa
 4564 06e8 04       		.byte	0x4
 4565 06e9 F4060000 		.4byte	0x6f4
 4566 06ed 04       		.uleb128 0x4
 4567 06ee 01       		.byte	0x1
 4568 06ef 08       		.byte	0x8
 4569 06f0 7F0D0000 		.4byte	.LASF105
 4570 06f4 14       		.uleb128 0x14
 4571 06f5 ED060000 		.4byte	0x6ed
 4572 06f9 05       		.uleb128 0x5
 4573 06fa 4C010000 		.4byte	0x14c
 4574 06fe 0A       		.uleb128 0xa
 4575 06ff 04       		.byte	0x4
 4576 0700 51030000 		.4byte	0x351
 4577 0704 05       		.uleb128 0x5
 4578 0705 E7060000 		.4byte	0x6e7
 4579 0709 15       		.uleb128 0x15
 4580 070a 97040000 		.4byte	0x497
ARM GAS  C:\Users\IDONNO~1\AppData\Local\Temp\ccY27Fyg.s 			page 82


 4581 070e 19070000 		.4byte	0x719
 4582 0712 16       		.uleb128 0x16
 4583 0713 85040000 		.4byte	0x485
 4584 0717 3A       		.byte	0x3a
 4585 0718 00       		.byte	0
 4586 0719 03       		.uleb128 0x3
 4587 071a FC0A0000 		.4byte	.LASF106
 4588 071e 16       		.byte	0x16
 4589 071f 34       		.byte	0x34
 4590 0720 B0060000 		.4byte	0x6b0
 4591 0724 0A       		.uleb128 0xa
 4592 0725 04       		.byte	0x4
 4593 0726 19070000 		.4byte	0x719
 4594 072a 0A       		.uleb128 0xa
 4595 072b 04       		.byte	0x4
 4596 072c AD000000 		.4byte	0xad
 4597 0730 0A       		.uleb128 0xa
 4598 0731 04       		.byte	0x4
 4599 0732 36070000 		.4byte	0x736
 4600 0736 14       		.uleb128 0x14
 4601 0737 AD000000 		.4byte	0xad
 4602 073b 04       		.uleb128 0x4
 4603 073c 01       		.byte	0x1
 4604 073d 02       		.byte	0x2
 4605 073e AE060000 		.4byte	.LASF107
 4606 0742 15       		.uleb128 0x15
 4607 0743 AD000000 		.4byte	0xad
 4608 0747 52070000 		.4byte	0x752
 4609 074b 16       		.uleb128 0x16
 4610 074c 85040000 		.4byte	0x485
 4611 0750 07       		.byte	0x7
 4612 0751 00       		.byte	0
 4613 0752 15       		.uleb128 0x15
 4614 0753 AD000000 		.4byte	0xad
 4615 0757 62070000 		.4byte	0x762
 4616 075b 16       		.uleb128 0x16
 4617 075c 85040000 		.4byte	0x485
 4618 0760 0F       		.byte	0xf
 4619 0761 00       		.byte	0
 4620 0762 0A       		.uleb128 0xa
 4621 0763 04       		.byte	0x4
 4622 0764 ED060000 		.4byte	0x6ed
 4623 0768 04       		.uleb128 0x4
 4624 0769 08       		.byte	0x8
 4625 076a 04       		.byte	0x4
 4626 076b EE120000 		.4byte	.LASF108
 4627 076f 04       		.uleb128 0x4
 4628 0770 04       		.byte	0x4
 4629 0771 04       		.byte	0x4
 4630 0772 A4040000 		.4byte	.LASF109
 4631 0776 04       		.uleb128 0x4
 4632 0777 08       		.byte	0x8
 4633 0778 04       		.byte	0x4
 4634 0779 190D0000 		.4byte	.LASF110
 4635 077d 17       		.uleb128 0x17
 4636 077e 01       		.byte	0x1
 4637 077f 50000000 		.4byte	0x50
ARM GAS  C:\Users\IDONNO~1\AppData\Local\Temp\ccY27Fyg.s 			page 83


 4638 0783 17       		.byte	0x17
 4639 0784 23       		.byte	0x23
 4640 0785 9C070000 		.4byte	0x79c
 4641 0789 18       		.uleb128 0x18
 4642 078a 9F080000 		.4byte	.LASF111
 4643 078e 00       		.byte	0
 4644 078f 18       		.uleb128 0x18
 4645 0790 25020000 		.4byte	.LASF112
 4646 0794 01       		.byte	0x1
 4647 0795 18       		.uleb128 0x18
 4648 0796 07060000 		.4byte	.LASF113
 4649 079a 02       		.byte	0x2
 4650 079b 00       		.byte	0
 4651 079c 03       		.uleb128 0x3
 4652 079d 33040000 		.4byte	.LASF114
 4653 07a1 17       		.byte	0x17
 4654 07a2 27       		.byte	0x27
 4655 07a3 7D070000 		.4byte	0x77d
 4656 07a7 17       		.uleb128 0x17
 4657 07a8 01       		.byte	0x1
 4658 07a9 50000000 		.4byte	0x50
 4659 07ad 17       		.byte	0x17
 4660 07ae 29       		.byte	0x29
 4661 07af C0070000 		.4byte	0x7c0
 4662 07b3 18       		.uleb128 0x18
 4663 07b4 2E120000 		.4byte	.LASF115
 4664 07b8 00       		.byte	0
 4665 07b9 18       		.uleb128 0x18
 4666 07ba 21090000 		.4byte	.LASF116
 4667 07be 01       		.byte	0x1
 4668 07bf 00       		.byte	0
 4669 07c0 03       		.uleb128 0x3
 4670 07c1 EC0E0000 		.4byte	.LASF117
 4671 07c5 17       		.byte	0x17
 4672 07c6 2C       		.byte	0x2c
 4673 07c7 A7070000 		.4byte	0x7a7
 4674 07cb 17       		.uleb128 0x17
 4675 07cc 01       		.byte	0x1
 4676 07cd 50000000 		.4byte	0x50
 4677 07d1 17       		.byte	0x17
 4678 07d2 2E       		.byte	0x2e
 4679 07d3 EA070000 		.4byte	0x7ea
 4680 07d7 18       		.uleb128 0x18
 4681 07d8 840D0000 		.4byte	.LASF118
 4682 07dc 00       		.byte	0
 4683 07dd 18       		.uleb128 0x18
 4684 07de 380B0000 		.4byte	.LASF119
 4685 07e2 01       		.byte	0x1
 4686 07e3 18       		.uleb128 0x18
 4687 07e4 0D120000 		.4byte	.LASF120
 4688 07e8 02       		.byte	0x2
 4689 07e9 00       		.byte	0
 4690 07ea 03       		.uleb128 0x3
 4691 07eb 5E090000 		.4byte	.LASF121
 4692 07ef 17       		.byte	0x17
 4693 07f0 32       		.byte	0x32
 4694 07f1 CB070000 		.4byte	0x7cb
ARM GAS  C:\Users\IDONNO~1\AppData\Local\Temp\ccY27Fyg.s 			page 84


 4695 07f5 17       		.uleb128 0x17
 4696 07f6 01       		.byte	0x1
 4697 07f7 50000000 		.4byte	0x50
 4698 07fb 17       		.byte	0x17
 4699 07fc 3A       		.byte	0x3a
 4700 07fd 14080000 		.4byte	0x814
 4701 0801 18       		.uleb128 0x18
 4702 0802 82000000 		.4byte	.LASF122
 4703 0806 00       		.byte	0
 4704 0807 18       		.uleb128 0x18
 4705 0808 DA050000 		.4byte	.LASF123
 4706 080c 01       		.byte	0x1
 4707 080d 18       		.uleb128 0x18
 4708 080e C6120000 		.4byte	.LASF124
 4709 0812 02       		.byte	0x2
 4710 0813 00       		.byte	0
 4711 0814 03       		.uleb128 0x3
 4712 0815 9B0A0000 		.4byte	.LASF125
 4713 0819 17       		.byte	0x17
 4714 081a 3E       		.byte	0x3e
 4715 081b F5070000 		.4byte	0x7f5
 4716 081f 17       		.uleb128 0x17
 4717 0820 01       		.byte	0x1
 4718 0821 50000000 		.4byte	0x50
 4719 0825 17       		.byte	0x17
 4720 0826 5C       		.byte	0x5c
 4721 0827 3E080000 		.4byte	0x83e
 4722 082b 18       		.uleb128 0x18
 4723 082c 690C0000 		.4byte	.LASF126
 4724 0830 00       		.byte	0
 4725 0831 18       		.uleb128 0x18
 4726 0832 F90E0000 		.4byte	.LASF127
 4727 0836 01       		.byte	0x1
 4728 0837 18       		.uleb128 0x18
 4729 0838 CB0A0000 		.4byte	.LASF128
 4730 083c 02       		.byte	0x2
 4731 083d 00       		.byte	0
 4732 083e 03       		.uleb128 0x3
 4733 083f AC0F0000 		.4byte	.LASF129
 4734 0843 17       		.byte	0x17
 4735 0844 60       		.byte	0x60
 4736 0845 1F080000 		.4byte	0x81f
 4737 0849 11       		.uleb128 0x11
 4738 084a D4       		.byte	0xd4
 4739 084b 17       		.byte	0x17
 4740 084c 75       		.byte	0x75
 4741 084d F20A0000 		.4byte	0xaf2
 4742 0851 10       		.uleb128 0x10
 4743 0852 76646400 		.ascii	"vdd\000"
 4744 0856 17       		.byte	0x17
 4745 0857 76       		.byte	0x76
 4746 0858 6F070000 		.4byte	0x76f
 4747 085c 00       		.byte	0
 4748 085d 07       		.uleb128 0x7
 4749 085e EA020000 		.4byte	.LASF130
 4750 0862 17       		.byte	0x17
 4751 0863 77       		.byte	0x77
ARM GAS  C:\Users\IDONNO~1\AppData\Local\Temp\ccY27Fyg.s 			page 85


 4752 0864 6F070000 		.4byte	0x76f
 4753 0868 04       		.byte	0x4
 4754 0869 07       		.uleb128 0x7
 4755 086a 35080000 		.4byte	.LASF131
 4756 086e 17       		.byte	0x17
 4757 086f 78       		.byte	0x78
 4758 0870 B8000000 		.4byte	0xb8
 4759 0874 08       		.byte	0x8
 4760 0875 07       		.uleb128 0x7
 4761 0876 79130000 		.4byte	.LASF132
 4762 087a 17       		.byte	0x17
 4763 087b 7A       		.byte	0x7a
 4764 087c 9C070000 		.4byte	0x79c
 4765 0880 0A       		.byte	0xa
 4766 0881 07       		.uleb128 0x7
 4767 0882 F5120000 		.4byte	.LASF133
 4768 0886 17       		.byte	0x17
 4769 0887 7B       		.byte	0x7b
 4770 0888 C0070000 		.4byte	0x7c0
 4771 088c 0B       		.byte	0xb
 4772 088d 07       		.uleb128 0x7
 4773 088e 52050000 		.4byte	.LASF134
 4774 0892 17       		.byte	0x17
 4775 0893 7C       		.byte	0x7c
 4776 0894 14080000 		.4byte	0x814
 4777 0898 0C       		.byte	0xc
 4778 0899 07       		.uleb128 0x7
 4779 089a F6010000 		.4byte	.LASF135
 4780 089e 17       		.byte	0x17
 4781 089f 7D       		.byte	0x7d
 4782 08a0 EA070000 		.4byte	0x7ea
 4783 08a4 0D       		.byte	0xd
 4784 08a5 07       		.uleb128 0x7
 4785 08a6 7E0F0000 		.4byte	.LASF136
 4786 08aa 17       		.byte	0x17
 4787 08ab 80       		.byte	0x80
 4788 08ac 6F070000 		.4byte	0x76f
 4789 08b0 10       		.byte	0x10
 4790 08b1 07       		.uleb128 0x7
 4791 08b2 A6050000 		.4byte	.LASF137
 4792 08b6 17       		.byte	0x17
 4793 08b7 81       		.byte	0x81
 4794 08b8 6F070000 		.4byte	0x76f
 4795 08bc 14       		.byte	0x14
 4796 08bd 07       		.uleb128 0x7
 4797 08be 9C090000 		.4byte	.LASF138
 4798 08c2 17       		.byte	0x17
 4799 08c3 82       		.byte	0x82
 4800 08c4 6F070000 		.4byte	0x76f
 4801 08c8 18       		.byte	0x18
 4802 08c9 07       		.uleb128 0x7
 4803 08ca F1020000 		.4byte	.LASF139
 4804 08ce 17       		.byte	0x17
 4805 08cf 83       		.byte	0x83
 4806 08d0 6F070000 		.4byte	0x76f
 4807 08d4 1C       		.byte	0x1c
 4808 08d5 07       		.uleb128 0x7
ARM GAS  C:\Users\IDONNO~1\AppData\Local\Temp\ccY27Fyg.s 			page 86


 4809 08d6 000E0000 		.4byte	.LASF140
 4810 08da 17       		.byte	0x17
 4811 08db 84       		.byte	0x84
 4812 08dc 6F070000 		.4byte	0x76f
 4813 08e0 20       		.byte	0x20
 4814 08e1 07       		.uleb128 0x7
 4815 08e2 9B0D0000 		.4byte	.LASF141
 4816 08e6 17       		.byte	0x17
 4817 08e7 85       		.byte	0x85
 4818 08e8 6F070000 		.4byte	0x76f
 4819 08ec 24       		.byte	0x24
 4820 08ed 07       		.uleb128 0x7
 4821 08ee C5010000 		.4byte	.LASF142
 4822 08f2 17       		.byte	0x17
 4823 08f3 86       		.byte	0x86
 4824 08f4 6F070000 		.4byte	0x76f
 4825 08f8 28       		.byte	0x28
 4826 08f9 07       		.uleb128 0x7
 4827 08fa DD020000 		.4byte	.LASF143
 4828 08fe 17       		.byte	0x17
 4829 08ff 87       		.byte	0x87
 4830 0900 6F070000 		.4byte	0x76f
 4831 0904 2C       		.byte	0x2c
 4832 0905 07       		.uleb128 0x7
 4833 0906 9E130000 		.4byte	.LASF144
 4834 090a 17       		.byte	0x17
 4835 090b 88       		.byte	0x88
 4836 090c 6F070000 		.4byte	0x76f
 4837 0910 30       		.byte	0x30
 4838 0911 07       		.uleb128 0x7
 4839 0912 E70A0000 		.4byte	.LASF145
 4840 0916 17       		.byte	0x17
 4841 0917 89       		.byte	0x89
 4842 0918 6F070000 		.4byte	0x76f
 4843 091c 34       		.byte	0x34
 4844 091d 07       		.uleb128 0x7
 4845 091e 11020000 		.4byte	.LASF146
 4846 0922 17       		.byte	0x17
 4847 0923 8A       		.byte	0x8a
 4848 0924 6F070000 		.4byte	0x76f
 4849 0928 38       		.byte	0x38
 4850 0929 07       		.uleb128 0x7
 4851 092a 63100000 		.4byte	.LASF147
 4852 092e 17       		.byte	0x17
 4853 092f 8B       		.byte	0x8b
 4854 0930 6F070000 		.4byte	0x76f
 4855 0934 3C       		.byte	0x3c
 4856 0935 07       		.uleb128 0x7
 4857 0936 90040000 		.4byte	.LASF148
 4858 093a 17       		.byte	0x17
 4859 093b 8C       		.byte	0x8c
 4860 093c 6F070000 		.4byte	0x76f
 4861 0940 40       		.byte	0x40
 4862 0941 07       		.uleb128 0x7
 4863 0942 05090000 		.4byte	.LASF149
 4864 0946 17       		.byte	0x17
 4865 0947 8D       		.byte	0x8d
ARM GAS  C:\Users\IDONNO~1\AppData\Local\Temp\ccY27Fyg.s 			page 87


 4866 0948 6F070000 		.4byte	0x76f
 4867 094c 44       		.byte	0x44
 4868 094d 07       		.uleb128 0x7
 4869 094e B1030000 		.4byte	.LASF150
 4870 0952 17       		.byte	0x17
 4871 0953 8E       		.byte	0x8e
 4872 0954 3B070000 		.4byte	0x73b
 4873 0958 48       		.byte	0x48
 4874 0959 07       		.uleb128 0x7
 4875 095a E8090000 		.4byte	.LASF151
 4876 095e 17       		.byte	0x17
 4877 095f 8F       		.byte	0x8f
 4878 0960 6F070000 		.4byte	0x76f
 4879 0964 4C       		.byte	0x4c
 4880 0965 07       		.uleb128 0x7
 4881 0966 26100000 		.4byte	.LASF152
 4882 096a 17       		.byte	0x17
 4883 096b 90       		.byte	0x90
 4884 096c 6F070000 		.4byte	0x76f
 4885 0970 50       		.byte	0x50
 4886 0971 07       		.uleb128 0x7
 4887 0972 B0130000 		.4byte	.LASF153
 4888 0976 17       		.byte	0x17
 4889 0977 91       		.byte	0x91
 4890 0978 6F070000 		.4byte	0x76f
 4891 097c 54       		.byte	0x54
 4892 097d 07       		.uleb128 0x7
 4893 097e 81060000 		.4byte	.LASF154
 4894 0982 17       		.byte	0x17
 4895 0983 92       		.byte	0x92
 4896 0984 6F070000 		.4byte	0x76f
 4897 0988 58       		.byte	0x58
 4898 0989 07       		.uleb128 0x7
 4899 098a 2F030000 		.4byte	.LASF155
 4900 098e 17       		.byte	0x17
 4901 098f 93       		.byte	0x93
 4902 0990 6F070000 		.4byte	0x76f
 4903 0994 5C       		.byte	0x5c
 4904 0995 07       		.uleb128 0x7
 4905 0996 3A020000 		.4byte	.LASF156
 4906 099a 17       		.byte	0x17
 4907 099b 94       		.byte	0x94
 4908 099c 6F070000 		.4byte	0x76f
 4909 09a0 60       		.byte	0x60
 4910 09a1 07       		.uleb128 0x7
 4911 09a2 D40D0000 		.4byte	.LASF157
 4912 09a6 17       		.byte	0x17
 4913 09a7 95       		.byte	0x95
 4914 09a8 6F070000 		.4byte	0x76f
 4915 09ac 64       		.byte	0x64
 4916 09ad 07       		.uleb128 0x7
 4917 09ae 13040000 		.4byte	.LASF158
 4918 09b2 17       		.byte	0x17
 4919 09b3 96       		.byte	0x96
 4920 09b4 6F070000 		.4byte	0x76f
 4921 09b8 68       		.byte	0x68
 4922 09b9 07       		.uleb128 0x7
ARM GAS  C:\Users\IDONNO~1\AppData\Local\Temp\ccY27Fyg.s 			page 88


 4923 09ba 64060000 		.4byte	.LASF159
 4924 09be 17       		.byte	0x17
 4925 09bf 98       		.byte	0x98
 4926 09c0 6F070000 		.4byte	0x76f
 4927 09c4 6C       		.byte	0x6c
 4928 09c5 07       		.uleb128 0x7
 4929 09c6 F1100000 		.4byte	.LASF160
 4930 09ca 17       		.byte	0x17
 4931 09cb 99       		.byte	0x99
 4932 09cc 6F070000 		.4byte	0x76f
 4933 09d0 70       		.byte	0x70
 4934 09d1 07       		.uleb128 0x7
 4935 09d2 C4020000 		.4byte	.LASF161
 4936 09d6 17       		.byte	0x17
 4937 09d7 9A       		.byte	0x9a
 4938 09d8 6F070000 		.4byte	0x76f
 4939 09dc 74       		.byte	0x74
 4940 09dd 07       		.uleb128 0x7
 4941 09de 5C0D0000 		.4byte	.LASF162
 4942 09e2 17       		.byte	0x17
 4943 09e3 9B       		.byte	0x9b
 4944 09e4 6F070000 		.4byte	0x76f
 4945 09e8 78       		.byte	0x78
 4946 09e9 07       		.uleb128 0x7
 4947 09ea B30B0000 		.4byte	.LASF163
 4948 09ee 17       		.byte	0x17
 4949 09ef 9C       		.byte	0x9c
 4950 09f0 6F070000 		.4byte	0x76f
 4951 09f4 7C       		.byte	0x7c
 4952 09f5 07       		.uleb128 0x7
 4953 09f6 7B090000 		.4byte	.LASF164
 4954 09fa 17       		.byte	0x17
 4955 09fb 9D       		.byte	0x9d
 4956 09fc 6F070000 		.4byte	0x76f
 4957 0a00 80       		.byte	0x80
 4958 0a01 07       		.uleb128 0x7
 4959 0a02 49000000 		.4byte	.LASF165
 4960 0a06 17       		.byte	0x17
 4961 0a07 A0       		.byte	0xa0
 4962 0a08 3E080000 		.4byte	0x83e
 4963 0a0c 84       		.byte	0x84
 4964 0a0d 07       		.uleb128 0x7
 4965 0a0e A20B0000 		.4byte	.LASF166
 4966 0a12 17       		.byte	0x17
 4967 0a13 A1       		.byte	0xa1
 4968 0a14 CE000000 		.4byte	0xce
 4969 0a18 88       		.byte	0x88
 4970 0a19 10       		.uleb128 0x10
 4971 0a1a 646B7000 		.ascii	"dkp\000"
 4972 0a1e 17       		.byte	0x17
 4973 0a1f A4       		.byte	0xa4
 4974 0a20 6F070000 		.4byte	0x76f
 4975 0a24 8C       		.byte	0x8c
 4976 0a25 10       		.uleb128 0x10
 4977 0a26 646B6900 		.ascii	"dki\000"
 4978 0a2a 17       		.byte	0x17
 4979 0a2b A5       		.byte	0xa5
ARM GAS  C:\Users\IDONNO~1\AppData\Local\Temp\ccY27Fyg.s 			page 89


 4980 0a2c 6F070000 		.4byte	0x76f
 4981 0a30 90       		.byte	0x90
 4982 0a31 10       		.uleb128 0x10
 4983 0a32 646B6300 		.ascii	"dkc\000"
 4984 0a36 17       		.byte	0x17
 4985 0a37 A6       		.byte	0xa6
 4986 0a38 6F070000 		.4byte	0x76f
 4987 0a3c 94       		.byte	0x94
 4988 0a3d 07       		.uleb128 0x7
 4989 0a3e B0100000 		.4byte	.LASF167
 4990 0a42 17       		.byte	0x17
 4991 0a43 A7       		.byte	0xa7
 4992 0a44 6F070000 		.4byte	0x76f
 4993 0a48 98       		.byte	0x98
 4994 0a49 10       		.uleb128 0x10
 4995 0a4a 716B7000 		.ascii	"qkp\000"
 4996 0a4e 17       		.byte	0x17
 4997 0a4f A9       		.byte	0xa9
 4998 0a50 6F070000 		.4byte	0x76f
 4999 0a54 9C       		.byte	0x9c
 5000 0a55 10       		.uleb128 0x10
 5001 0a56 716B6900 		.ascii	"qki\000"
 5002 0a5a 17       		.byte	0x17
 5003 0a5b AA       		.byte	0xaa
 5004 0a5c 6F070000 		.4byte	0x76f
 5005 0a60 A0       		.byte	0xa0
 5006 0a61 10       		.uleb128 0x10
 5007 0a62 716B6300 		.ascii	"qkc\000"
 5008 0a66 17       		.byte	0x17
 5009 0a67 AB       		.byte	0xab
 5010 0a68 6F070000 		.4byte	0x76f
 5011 0a6c A4       		.byte	0xa4
 5012 0a6d 07       		.uleb128 0x7
 5013 0a6e 0C050000 		.4byte	.LASF168
 5014 0a72 17       		.byte	0x17
 5015 0a73 AC       		.byte	0xac
 5016 0a74 6F070000 		.4byte	0x76f
 5017 0a78 A8       		.byte	0xa8
 5018 0a79 10       		.uleb128 0x10
 5019 0a7a 776B7000 		.ascii	"wkp\000"
 5020 0a7e 17       		.byte	0x17
 5021 0a7f AF       		.byte	0xaf
 5022 0a80 6F070000 		.4byte	0x76f
 5023 0a84 AC       		.byte	0xac
 5024 0a85 10       		.uleb128 0x10
 5025 0a86 776B6900 		.ascii	"wki\000"
 5026 0a8a 17       		.byte	0x17
 5027 0a8b B0       		.byte	0xb0
 5028 0a8c 6F070000 		.4byte	0x76f
 5029 0a90 B0       		.byte	0xb0
 5030 0a91 10       		.uleb128 0x10
 5031 0a92 776B6300 		.ascii	"wkc\000"
 5032 0a96 17       		.byte	0x17
 5033 0a97 B1       		.byte	0xb1
 5034 0a98 6F070000 		.4byte	0x76f
 5035 0a9c B4       		.byte	0xb4
 5036 0a9d 07       		.uleb128 0x7
ARM GAS  C:\Users\IDONNO~1\AppData\Local\Temp\ccY27Fyg.s 			page 90


 5037 0a9e 200B0000 		.4byte	.LASF169
 5038 0aa2 17       		.byte	0x17
 5039 0aa3 B2       		.byte	0xb2
 5040 0aa4 6F070000 		.4byte	0x76f
 5041 0aa8 B8       		.byte	0xb8
 5042 0aa9 07       		.uleb128 0x7
 5043 0aaa FA0F0000 		.4byte	.LASF170
 5044 0aae 17       		.byte	0x17
 5045 0aaf B5       		.byte	0xb5
 5046 0ab0 6F070000 		.4byte	0x76f
 5047 0ab4 BC       		.byte	0xbc
 5048 0ab5 07       		.uleb128 0x7
 5049 0ab6 A4100000 		.4byte	.LASF171
 5050 0aba 17       		.byte	0x17
 5051 0abb B6       		.byte	0xb6
 5052 0abc 6F070000 		.4byte	0x76f
 5053 0ac0 C0       		.byte	0xc0
 5054 0ac1 07       		.uleb128 0x7
 5055 0ac2 5C100000 		.4byte	.LASF172
 5056 0ac6 17       		.byte	0x17
 5057 0ac7 B7       		.byte	0xb7
 5058 0ac8 6F070000 		.4byte	0x76f
 5059 0acc C4       		.byte	0xc4
 5060 0acd 07       		.uleb128 0x7
 5061 0ace 3C100000 		.4byte	.LASF173
 5062 0ad2 17       		.byte	0x17
 5063 0ad3 B8       		.byte	0xb8
 5064 0ad4 6F070000 		.4byte	0x76f
 5065 0ad8 C8       		.byte	0xc8
 5066 0ad9 07       		.uleb128 0x7
 5067 0ada 94110000 		.4byte	.LASF174
 5068 0ade 17       		.byte	0x17
 5069 0adf BB       		.byte	0xbb
 5070 0ae0 6F070000 		.4byte	0x76f
 5071 0ae4 CC       		.byte	0xcc
 5072 0ae5 07       		.uleb128 0x7
 5073 0ae6 81010000 		.4byte	.LASF175
 5074 0aea 17       		.byte	0x17
 5075 0aeb BC       		.byte	0xbc
 5076 0aec 6F070000 		.4byte	0x76f
 5077 0af0 D0       		.byte	0xd0
 5078 0af1 00       		.byte	0
 5079 0af2 03       		.uleb128 0x3
 5080 0af3 BF0C0000 		.4byte	.LASF176
 5081 0af7 17       		.byte	0x17
 5082 0af8 BE       		.byte	0xbe
 5083 0af9 49080000 		.4byte	0x849
 5084 0afd 19       		.uleb128 0x19
 5085 0afe 6C0F0000 		.4byte	.LASF177
 5086 0b02 1001     		.2byte	0x110
 5087 0b04 18       		.byte	0x18
 5088 0b05 72       		.byte	0x72
 5089 0b06 6B0B0000 		.4byte	0xb6b
 5090 0b0a 07       		.uleb128 0x7
 5091 0b0b AA040000 		.4byte	.LASF178
 5092 0b0f 18       		.byte	0x18
 5093 0b10 72       		.byte	0x72
ARM GAS  C:\Users\IDONNO~1\AppData\Local\Temp\ccY27Fyg.s 			page 91


 5094 0b11 B8000000 		.4byte	0xb8
 5095 0b15 00       		.byte	0
 5096 0b16 07       		.uleb128 0x7
 5097 0b17 A10F0000 		.4byte	.LASF179
 5098 0b1b 18       		.byte	0x18
 5099 0b1c 72       		.byte	0x72
 5100 0b1d AD000000 		.4byte	0xad
 5101 0b21 02       		.byte	0x2
 5102 0b22 10       		.uleb128 0x10
 5103 0b23 6C656E00 		.ascii	"len\000"
 5104 0b27 18       		.byte	0x18
 5105 0b28 72       		.byte	0x72
 5106 0b29 AD000000 		.4byte	0xad
 5107 0b2d 03       		.byte	0x3
 5108 0b2e 10       		.uleb128 0x10
 5109 0b2f 73657100 		.ascii	"seq\000"
 5110 0b33 18       		.byte	0x18
 5111 0b34 72       		.byte	0x72
 5112 0b35 AD000000 		.4byte	0xad
 5113 0b39 04       		.byte	0x4
 5114 0b3a 07       		.uleb128 0x7
 5115 0b3b 290A0000 		.4byte	.LASF180
 5116 0b3f 18       		.byte	0x18
 5117 0b40 72       		.byte	0x72
 5118 0b41 AD000000 		.4byte	0xad
 5119 0b45 05       		.byte	0x5
 5120 0b46 07       		.uleb128 0x7
 5121 0b47 FD000000 		.4byte	.LASF181
 5122 0b4b 18       		.byte	0x18
 5123 0b4c 72       		.byte	0x72
 5124 0b4d AD000000 		.4byte	0xad
 5125 0b51 06       		.byte	0x6
 5126 0b52 07       		.uleb128 0x7
 5127 0b53 02030000 		.4byte	.LASF182
 5128 0b57 18       		.byte	0x18
 5129 0b58 72       		.byte	0x72
 5130 0b59 AD000000 		.4byte	0xad
 5131 0b5d 07       		.byte	0x7
 5132 0b5e 07       		.uleb128 0x7
 5133 0b5f 17090000 		.4byte	.LASF183
 5134 0b63 18       		.byte	0x18
 5135 0b64 72       		.byte	0x72
 5136 0b65 6B0B0000 		.4byte	0xb6b
 5137 0b69 08       		.byte	0x8
 5138 0b6a 00       		.byte	0
 5139 0b6b 15       		.uleb128 0x15
 5140 0b6c D9000000 		.4byte	0xd9
 5141 0b70 7B0B0000 		.4byte	0xb7b
 5142 0b74 16       		.uleb128 0x16
 5143 0b75 85040000 		.4byte	0x485
 5144 0b79 20       		.byte	0x20
 5145 0b7a 00       		.byte	0
 5146 0b7b 03       		.uleb128 0x3
 5147 0b7c 4D0B0000 		.4byte	.LASF184
 5148 0b80 18       		.byte	0x18
 5149 0b81 7C       		.byte	0x7c
 5150 0b82 FD0A0000 		.4byte	0xafd
ARM GAS  C:\Users\IDONNO~1\AppData\Local\Temp\ccY27Fyg.s 			page 92


 5151 0b86 17       		.uleb128 0x17
 5152 0b87 01       		.byte	0x1
 5153 0b88 50000000 		.4byte	0x50
 5154 0b8c 18       		.byte	0x18
 5155 0b8d AD       		.byte	0xad
 5156 0b8e AB0B0000 		.4byte	0xbab
 5157 0b92 18       		.uleb128 0x18
 5158 0b93 C9080000 		.4byte	.LASF185
 5159 0b97 00       		.byte	0
 5160 0b98 18       		.uleb128 0x18
 5161 0b99 D8080000 		.4byte	.LASF186
 5162 0b9d 01       		.byte	0x1
 5163 0b9e 18       		.uleb128 0x18
 5164 0b9f E7080000 		.4byte	.LASF187
 5165 0ba3 02       		.byte	0x2
 5166 0ba4 18       		.uleb128 0x18
 5167 0ba5 F6080000 		.4byte	.LASF188
 5168 0ba9 03       		.byte	0x3
 5169 0baa 00       		.byte	0
 5170 0bab 17       		.uleb128 0x17
 5171 0bac 01       		.byte	0x1
 5172 0bad 50000000 		.4byte	0x50
 5173 0bb1 18       		.byte	0x18
 5174 0bb2 C1       		.byte	0xc1
 5175 0bb3 FA0B0000 		.4byte	0xbfa
 5176 0bb7 18       		.uleb128 0x18
 5177 0bb8 9A110000 		.4byte	.LASF189
 5178 0bbc 00       		.byte	0
 5179 0bbd 18       		.uleb128 0x18
 5180 0bbe AB020000 		.4byte	.LASF190
 5181 0bc2 01       		.byte	0x1
 5182 0bc3 18       		.uleb128 0x18
 5183 0bc4 92060000 		.4byte	.LASF191
 5184 0bc8 02       		.byte	0x2
 5185 0bc9 18       		.uleb128 0x18
 5186 0bca F8070000 		.4byte	.LASF192
 5187 0bce 03       		.byte	0x3
 5188 0bcf 18       		.uleb128 0x18
 5189 0bd0 B50D0000 		.4byte	.LASF193
 5190 0bd4 04       		.byte	0x4
 5191 0bd5 18       		.uleb128 0x18
 5192 0bd6 DE030000 		.4byte	.LASF194
 5193 0bda 05       		.byte	0x5
 5194 0bdb 18       		.uleb128 0x18
 5195 0bdc 5C000000 		.4byte	.LASF195
 5196 0be0 06       		.byte	0x6
 5197 0be1 18       		.uleb128 0x18
 5198 0be2 37010000 		.4byte	.LASF196
 5199 0be6 07       		.byte	0x7
 5200 0be7 18       		.uleb128 0x18
 5201 0be8 D8070000 		.4byte	.LASF197
 5202 0bec 08       		.byte	0x8
 5203 0bed 18       		.uleb128 0x18
 5204 0bee B4050000 		.4byte	.LASF198
 5205 0bf2 09       		.byte	0x9
 5206 0bf3 18       		.uleb128 0x18
 5207 0bf4 11130000 		.4byte	.LASF199
ARM GAS  C:\Users\IDONNO~1\AppData\Local\Temp\ccY27Fyg.s 			page 93


 5208 0bf8 0A       		.byte	0xa
 5209 0bf9 00       		.byte	0
 5210 0bfa 03       		.uleb128 0x3
 5211 0bfb 040B0000 		.4byte	.LASF200
 5212 0bff 18       		.byte	0x18
 5213 0c00 CD       		.byte	0xcd
 5214 0c01 AB0B0000 		.4byte	0xbab
 5215 0c05 17       		.uleb128 0x17
 5216 0c06 01       		.byte	0x1
 5217 0c07 50000000 		.4byte	0x50
 5218 0c0b 18       		.byte	0x18
 5219 0c0c CF       		.byte	0xcf
 5220 0c0d 240C0000 		.4byte	0xc24
 5221 0c11 18       		.uleb128 0x18
 5222 0c12 00000000 		.4byte	.LASF201
 5223 0c16 00       		.byte	0
 5224 0c17 18       		.uleb128 0x18
 5225 0c18 1D0E0000 		.4byte	.LASF202
 5226 0c1c 01       		.byte	0x1
 5227 0c1d 18       		.uleb128 0x18
 5228 0c1e 510C0000 		.4byte	.LASF203
 5229 0c22 02       		.byte	0x2
 5230 0c23 00       		.byte	0
 5231 0c24 06       		.uleb128 0x6
 5232 0c25 B0120000 		.4byte	.LASF204
 5233 0c29 0C       		.byte	0xc
 5234 0c2a 18       		.byte	0x18
 5235 0c2b D5       		.byte	0xd5
 5236 0c2c 9D0C0000 		.4byte	0xc9d
 5237 0c30 07       		.uleb128 0x7
 5238 0c31 BC080000 		.4byte	.LASF205
 5239 0c35 18       		.byte	0x18
 5240 0c36 D6       		.byte	0xd6
 5241 0c37 AD000000 		.4byte	0xad
 5242 0c3b 00       		.byte	0
 5243 0c3c 07       		.uleb128 0x7
 5244 0c3d 210C0000 		.4byte	.LASF206
 5245 0c41 18       		.byte	0x18
 5246 0c42 D7       		.byte	0xd7
 5247 0c43 AD000000 		.4byte	0xad
 5248 0c47 01       		.byte	0x1
 5249 0c48 07       		.uleb128 0x7
 5250 0c49 E2120000 		.4byte	.LASF207
 5251 0c4d 18       		.byte	0x18
 5252 0c4e D8       		.byte	0xd8
 5253 0c4f AD000000 		.4byte	0xad
 5254 0c53 02       		.byte	0x2
 5255 0c54 07       		.uleb128 0x7
 5256 0c55 DC0F0000 		.4byte	.LASF208
 5257 0c59 18       		.byte	0x18
 5258 0c5a D9       		.byte	0xd9
 5259 0c5b FA0B0000 		.4byte	0xbfa
 5260 0c5f 03       		.byte	0x3
 5261 0c60 07       		.uleb128 0x7
 5262 0c61 A4010000 		.4byte	.LASF209
 5263 0c65 18       		.byte	0x18
 5264 0c66 DA       		.byte	0xda
ARM GAS  C:\Users\IDONNO~1\AppData\Local\Temp\ccY27Fyg.s 			page 94


 5265 0c67 AD000000 		.4byte	0xad
 5266 0c6b 04       		.byte	0x4
 5267 0c6c 07       		.uleb128 0x7
 5268 0c6d A80C0000 		.4byte	.LASF210
 5269 0c71 18       		.byte	0x18
 5270 0c72 DB       		.byte	0xdb
 5271 0c73 AD000000 		.4byte	0xad
 5272 0c77 05       		.byte	0x5
 5273 0c78 07       		.uleb128 0x7
 5274 0c79 BD0F0000 		.4byte	.LASF211
 5275 0c7d 18       		.byte	0x18
 5276 0c7e DC       		.byte	0xdc
 5277 0c7f AD000000 		.4byte	0xad
 5278 0c83 06       		.byte	0x6
 5279 0c84 07       		.uleb128 0x7
 5280 0c85 AA000000 		.4byte	.LASF212
 5281 0c89 18       		.byte	0x18
 5282 0c8a DD       		.byte	0xdd
 5283 0c8b B8000000 		.4byte	0xb8
 5284 0c8f 08       		.byte	0x8
 5285 0c90 07       		.uleb128 0x7
 5286 0c91 4D0F0000 		.4byte	.LASF213
 5287 0c95 18       		.byte	0x18
 5288 0c96 DE       		.byte	0xde
 5289 0c97 B8000000 		.4byte	0xb8
 5290 0c9b 0A       		.byte	0xa
 5291 0c9c 00       		.byte	0
 5292 0c9d 03       		.uleb128 0x3
 5293 0c9e D70B0000 		.4byte	.LASF214
 5294 0ca2 18       		.byte	0x18
 5295 0ca3 DF       		.byte	0xdf
 5296 0ca4 240C0000 		.4byte	0xc24
 5297 0ca8 06       		.uleb128 0x6
 5298 0ca9 08030000 		.4byte	.LASF215
 5299 0cad FA       		.byte	0xfa
 5300 0cae 0A       		.byte	0xa
 5301 0caf 06       		.byte	0x6
 5302 0cb0 C10C0000 		.4byte	0xcc1
 5303 0cb4 07       		.uleb128 0x7
 5304 0cb5 31090000 		.4byte	.LASF216
 5305 0cb9 0A       		.byte	0xa
 5306 0cba 06       		.byte	0x6
 5307 0cbb C10C0000 		.4byte	0xcc1
 5308 0cbf 00       		.byte	0
 5309 0cc0 00       		.byte	0
 5310 0cc1 15       		.uleb128 0x15
 5311 0cc2 ED060000 		.4byte	0x6ed
 5312 0cc6 D10C0000 		.4byte	0xcd1
 5313 0cca 16       		.uleb128 0x16
 5314 0ccb 85040000 		.4byte	0x485
 5315 0ccf F9       		.byte	0xf9
 5316 0cd0 00       		.byte	0
 5317 0cd1 03       		.uleb128 0x3
 5318 0cd2 59110000 		.4byte	.LASF217
 5319 0cd6 0A       		.byte	0xa
 5320 0cd7 09       		.byte	0x9
 5321 0cd8 A80C0000 		.4byte	0xca8
ARM GAS  C:\Users\IDONNO~1\AppData\Local\Temp\ccY27Fyg.s 			page 95


 5322 0cdc 06       		.uleb128 0x6
 5323 0cdd 730A0000 		.4byte	.LASF218
 5324 0ce1 14       		.byte	0x14
 5325 0ce2 04       		.byte	0x4
 5326 0ce3 06       		.byte	0x6
 5327 0ce4 190D0000 		.4byte	0xd19
 5328 0ce8 07       		.uleb128 0x7
 5329 0ce9 090A0000 		.4byte	.LASF219
 5330 0ced 04       		.byte	0x4
 5331 0cee 06       		.byte	0x6
 5332 0cef B8000000 		.4byte	0xb8
 5333 0cf3 00       		.byte	0
 5334 0cf4 07       		.uleb128 0x7
 5335 0cf5 290B0000 		.4byte	.LASF220
 5336 0cf9 04       		.byte	0x4
 5337 0cfa 06       		.byte	0x6
 5338 0cfb AD000000 		.4byte	0xad
 5339 0cff 02       		.byte	0x2
 5340 0d00 07       		.uleb128 0x7
 5341 0d01 850E0000 		.4byte	.LASF221
 5342 0d05 04       		.byte	0x4
 5343 0d06 06       		.byte	0x6
 5344 0d07 AD000000 		.4byte	0xad
 5345 0d0b 03       		.byte	0x3
 5346 0d0c 07       		.uleb128 0x7
 5347 0d0d B6090000 		.4byte	.LASF222
 5348 0d11 04       		.byte	0x4
 5349 0d12 06       		.byte	0x6
 5350 0d13 52070000 		.4byte	0x752
 5351 0d17 04       		.byte	0x4
 5352 0d18 00       		.byte	0
 5353 0d19 03       		.uleb128 0x3
 5354 0d1a 370F0000 		.4byte	.LASF223
 5355 0d1e 04       		.byte	0x4
 5356 0d1f 0C       		.byte	0xc
 5357 0d20 DC0C0000 		.4byte	0xcdc
 5358 0d24 06       		.uleb128 0x6
 5359 0d25 1E010000 		.4byte	.LASF224
 5360 0d29 09       		.byte	0x9
 5361 0d2a 19       		.byte	0x19
 5362 0d2b 06       		.byte	0x6
 5363 0d2c 490D0000 		.4byte	0xd49
 5364 0d30 07       		.uleb128 0x7
 5365 0d31 07130000 		.4byte	.LASF225
 5366 0d35 19       		.byte	0x19
 5367 0d36 06       		.byte	0x6
 5368 0d37 AD000000 		.4byte	0xad
 5369 0d3b 00       		.byte	0
 5370 0d3c 07       		.uleb128 0x7
 5371 0d3d E80B0000 		.4byte	.LASF226
 5372 0d41 19       		.byte	0x19
 5373 0d42 06       		.byte	0x6
 5374 0d43 42070000 		.4byte	0x742
 5375 0d47 01       		.byte	0x1
 5376 0d48 00       		.byte	0
 5377 0d49 03       		.uleb128 0x3
 5378 0d4a FC030000 		.4byte	.LASF227
ARM GAS  C:\Users\IDONNO~1\AppData\Local\Temp\ccY27Fyg.s 			page 96


 5379 0d4e 19       		.byte	0x19
 5380 0d4f 0A       		.byte	0xa
 5381 0d50 240D0000 		.4byte	0xd24
 5382 0d54 06       		.uleb128 0x6
 5383 0d55 88100000 		.4byte	.LASF228
 5384 0d59 09       		.byte	0x9
 5385 0d5a 06       		.byte	0x6
 5386 0d5b 06       		.byte	0x6
 5387 0d5c 790D0000 		.4byte	0xd79
 5388 0d60 07       		.uleb128 0x7
 5389 0d61 07130000 		.4byte	.LASF225
 5390 0d65 06       		.byte	0x6
 5391 0d66 06       		.byte	0x6
 5392 0d67 AD000000 		.4byte	0xad
 5393 0d6b 00       		.byte	0
 5394 0d6c 07       		.uleb128 0x7
 5395 0d6d E80B0000 		.4byte	.LASF226
 5396 0d71 06       		.byte	0x6
 5397 0d72 06       		.byte	0x6
 5398 0d73 42070000 		.4byte	0x742
 5399 0d77 01       		.byte	0x1
 5400 0d78 00       		.byte	0
 5401 0d79 03       		.uleb128 0x3
 5402 0d7a 04010000 		.4byte	.LASF229
 5403 0d7e 06       		.byte	0x6
 5404 0d7f 0A       		.byte	0xa
 5405 0d80 540D0000 		.4byte	0xd54
 5406 0d84 06       		.uleb128 0x6
 5407 0d85 87010000 		.4byte	.LASF230
 5408 0d89 0A       		.byte	0xa
 5409 0d8a 0B       		.byte	0xb
 5410 0d8b 06       		.byte	0x6
 5411 0d8c B50D0000 		.4byte	0xdb5
 5412 0d90 07       		.uleb128 0x7
 5413 0d91 07130000 		.4byte	.LASF225
 5414 0d95 0B       		.byte	0xb
 5415 0d96 06       		.byte	0x6
 5416 0d97 AD000000 		.4byte	0xad
 5417 0d9b 00       		.byte	0
 5418 0d9c 07       		.uleb128 0x7
 5419 0d9d AB100000 		.4byte	.LASF231
 5420 0da1 0B       		.byte	0xb
 5421 0da2 06       		.byte	0x6
 5422 0da3 AD000000 		.4byte	0xad
 5423 0da7 01       		.byte	0x1
 5424 0da8 07       		.uleb128 0x7
 5425 0da9 E80B0000 		.4byte	.LASF226
 5426 0dad 0B       		.byte	0xb
 5427 0dae 06       		.byte	0x6
 5428 0daf 42070000 		.4byte	0x742
 5429 0db3 02       		.byte	0x2
 5430 0db4 00       		.byte	0
 5431 0db5 03       		.uleb128 0x3
 5432 0db6 5F080000 		.4byte	.LASF232
 5433 0dba 0B       		.byte	0xb
 5434 0dbb 0B       		.byte	0xb
 5435 0dbc 840D0000 		.4byte	0xd84
ARM GAS  C:\Users\IDONNO~1\AppData\Local\Temp\ccY27Fyg.s 			page 97


 5436 0dc0 06       		.uleb128 0x6
 5437 0dc1 080C0000 		.4byte	.LASF233
 5438 0dc5 02       		.byte	0x2
 5439 0dc6 07       		.byte	0x7
 5440 0dc7 06       		.byte	0x6
 5441 0dc8 E50D0000 		.4byte	0xde5
 5442 0dcc 07       		.uleb128 0x7
 5443 0dcd 07130000 		.4byte	.LASF225
 5444 0dd1 07       		.byte	0x7
 5445 0dd2 06       		.byte	0x6
 5446 0dd3 AD000000 		.4byte	0xad
 5447 0dd7 00       		.byte	0
 5448 0dd8 07       		.uleb128 0x7
 5449 0dd9 E80B0000 		.4byte	.LASF226
 5450 0ddd 07       		.byte	0x7
 5451 0dde 06       		.byte	0x6
 5452 0ddf AD000000 		.4byte	0xad
 5453 0de3 01       		.byte	0x1
 5454 0de4 00       		.byte	0
 5455 0de5 03       		.uleb128 0x3
 5456 0de6 5D050000 		.4byte	.LASF234
 5457 0dea 07       		.byte	0x7
 5458 0deb 0A       		.byte	0xa
 5459 0dec C00D0000 		.4byte	0xdc0
 5460 0df0 06       		.uleb128 0x6
 5461 0df1 DF0D0000 		.4byte	.LASF235
 5462 0df5 26       		.byte	0x26
 5463 0df6 09       		.byte	0x9
 5464 0df7 06       		.byte	0x6
 5465 0df8 ED0E0000 		.4byte	0xeed
 5466 0dfc 07       		.uleb128 0x7
 5467 0dfd 26120000 		.4byte	.LASF236
 5468 0e01 09       		.byte	0x9
 5469 0e02 06       		.byte	0x6
 5470 0e03 B8000000 		.4byte	0xb8
 5471 0e07 00       		.byte	0
 5472 0e08 07       		.uleb128 0x7
 5473 0e09 47100000 		.4byte	.LASF237
 5474 0e0d 09       		.byte	0x9
 5475 0e0e 06       		.byte	0x6
 5476 0e0f B8000000 		.4byte	0xb8
 5477 0e13 02       		.byte	0x2
 5478 0e14 07       		.uleb128 0x7
 5479 0e15 C1120000 		.4byte	.LASF238
 5480 0e19 09       		.byte	0x9
 5481 0e1a 06       		.byte	0x6
 5482 0e1b B8000000 		.4byte	0xb8
 5483 0e1f 04       		.byte	0x4
 5484 0e20 07       		.uleb128 0x7
 5485 0e21 A70F0000 		.4byte	.LASF239
 5486 0e25 09       		.byte	0x9
 5487 0e26 06       		.byte	0x6
 5488 0e27 B8000000 		.4byte	0xb8
 5489 0e2b 06       		.byte	0x6
 5490 0e2c 07       		.uleb128 0x7
 5491 0e2d 99120000 		.4byte	.LASF240
 5492 0e31 09       		.byte	0x9
ARM GAS  C:\Users\IDONNO~1\AppData\Local\Temp\ccY27Fyg.s 			page 98


 5493 0e32 06       		.byte	0x6
 5494 0e33 B8000000 		.4byte	0xb8
 5495 0e37 08       		.byte	0x8
 5496 0e38 07       		.uleb128 0x7
 5497 0e39 40090000 		.4byte	.LASF241
 5498 0e3d 09       		.byte	0x9
 5499 0e3e 06       		.byte	0x6
 5500 0e3f B8000000 		.4byte	0xb8
 5501 0e43 0A       		.byte	0xa
 5502 0e44 07       		.uleb128 0x7
 5503 0e45 02020000 		.4byte	.LASF242
 5504 0e49 09       		.byte	0x9
 5505 0e4a 06       		.byte	0x6
 5506 0e4b B8000000 		.4byte	0xb8
 5507 0e4f 0C       		.byte	0xc
 5508 0e50 07       		.uleb128 0x7
 5509 0e51 E2010000 		.4byte	.LASF243
 5510 0e55 09       		.byte	0x9
 5511 0e56 06       		.byte	0x6
 5512 0e57 B8000000 		.4byte	0xb8
 5513 0e5b 0E       		.byte	0xe
 5514 0e5c 07       		.uleb128 0x7
 5515 0e5d D0010000 		.4byte	.LASF244
 5516 0e61 09       		.byte	0x9
 5517 0e62 06       		.byte	0x6
 5518 0e63 B8000000 		.4byte	0xb8
 5519 0e67 10       		.byte	0x10
 5520 0e68 07       		.uleb128 0x7
 5521 0e69 7C0E0000 		.4byte	.LASF245
 5522 0e6d 09       		.byte	0x9
 5523 0e6e 06       		.byte	0x6
 5524 0e6f B8000000 		.4byte	0xb8
 5525 0e73 12       		.byte	0x12
 5526 0e74 07       		.uleb128 0x7
 5527 0e75 640A0000 		.4byte	.LASF246
 5528 0e79 09       		.byte	0x9
 5529 0e7a 06       		.byte	0x6
 5530 0e7b B8000000 		.4byte	0xb8
 5531 0e7f 14       		.byte	0x14
 5532 0e80 07       		.uleb128 0x7
 5533 0e81 240A0000 		.4byte	.LASF247
 5534 0e85 09       		.byte	0x9
 5535 0e86 06       		.byte	0x6
 5536 0e87 B8000000 		.4byte	0xb8
 5537 0e8b 16       		.byte	0x16
 5538 0e8c 07       		.uleb128 0x7
 5539 0e8d 99130000 		.4byte	.LASF248
 5540 0e91 09       		.byte	0x9
 5541 0e92 06       		.byte	0x6
 5542 0e93 B8000000 		.4byte	0xb8
 5543 0e97 18       		.byte	0x18
 5544 0e98 07       		.uleb128 0x7
 5545 0e99 56130000 		.4byte	.LASF249
 5546 0e9d 09       		.byte	0x9
 5547 0e9e 06       		.byte	0x6
 5548 0e9f B8000000 		.4byte	0xb8
 5549 0ea3 1A       		.byte	0x1a
ARM GAS  C:\Users\IDONNO~1\AppData\Local\Temp\ccY27Fyg.s 			page 99


 5550 0ea4 07       		.uleb128 0x7
 5551 0ea5 750E0000 		.4byte	.LASF250
 5552 0ea9 09       		.byte	0x9
 5553 0eaa 06       		.byte	0x6
 5554 0eab B8000000 		.4byte	0xb8
 5555 0eaf 1C       		.byte	0x1c
 5556 0eb0 07       		.uleb128 0x7
 5557 0eb1 57090000 		.4byte	.LASF251
 5558 0eb5 09       		.byte	0x9
 5559 0eb6 06       		.byte	0x6
 5560 0eb7 B8000000 		.4byte	0xb8
 5561 0ebb 1E       		.byte	0x1e
 5562 0ebc 07       		.uleb128 0x7
 5563 0ebd 49090000 		.4byte	.LASF252
 5564 0ec1 09       		.byte	0x9
 5565 0ec2 06       		.byte	0x6
 5566 0ec3 B8000000 		.4byte	0xb8
 5567 0ec7 20       		.byte	0x20
 5568 0ec8 07       		.uleb128 0x7
 5569 0ec9 190A0000 		.4byte	.LASF253
 5570 0ecd 09       		.byte	0x9
 5571 0ece 06       		.byte	0x6
 5572 0ecf B8000000 		.4byte	0xb8
 5573 0ed3 22       		.byte	0x22
 5574 0ed4 07       		.uleb128 0x7
 5575 0ed5 07130000 		.4byte	.LASF225
 5576 0ed9 09       		.byte	0x9
 5577 0eda 06       		.byte	0x6
 5578 0edb AD000000 		.4byte	0xad
 5579 0edf 24       		.byte	0x24
 5580 0ee0 07       		.uleb128 0x7
 5581 0ee1 0C130000 		.4byte	.LASF254
 5582 0ee5 09       		.byte	0x9
 5583 0ee6 06       		.byte	0x6
 5584 0ee7 AD000000 		.4byte	0xad
 5585 0eeb 25       		.byte	0x25
 5586 0eec 00       		.byte	0
 5587 0eed 03       		.uleb128 0x3
 5588 0eee C4030000 		.4byte	.LASF255
 5589 0ef2 09       		.byte	0x9
 5590 0ef3 1C       		.byte	0x1c
 5591 0ef4 F00D0000 		.4byte	0xdf0
 5592 0ef8 06       		.uleb128 0x6
 5593 0ef9 890B0000 		.4byte	.LASF256
 5594 0efd 03       		.byte	0x3
 5595 0efe 08       		.byte	0x8
 5596 0eff 06       		.byte	0x6
 5597 0f00 1D0F0000 		.4byte	0xf1d
 5598 0f04 07       		.uleb128 0x7
 5599 0f05 1E040000 		.4byte	.LASF257
 5600 0f09 08       		.byte	0x8
 5601 0f0a 06       		.byte	0x6
 5602 0f0b B8000000 		.4byte	0xb8
 5603 0f0f 00       		.byte	0
 5604 0f10 07       		.uleb128 0x7
 5605 0f11 07130000 		.4byte	.LASF225
 5606 0f15 08       		.byte	0x8
ARM GAS  C:\Users\IDONNO~1\AppData\Local\Temp\ccY27Fyg.s 			page 100


 5607 0f16 06       		.byte	0x6
 5608 0f17 AD000000 		.4byte	0xad
 5609 0f1b 02       		.byte	0x2
 5610 0f1c 00       		.byte	0
 5611 0f1d 03       		.uleb128 0x3
 5612 0f1e 520E0000 		.4byte	.LASF258
 5613 0f22 08       		.byte	0x8
 5614 0f23 0A       		.byte	0xa
 5615 0f24 F80E0000 		.4byte	0xef8
 5616 0f28 11       		.uleb128 0x11
 5617 0f29 08       		.byte	0x8
 5618 0f2a 1A       		.byte	0x1a
 5619 0f2b 21       		.byte	0x21
 5620 0f2c 480F0000 		.4byte	0xf48
 5621 0f30 10       		.uleb128 0x10
 5622 0f31 636800   		.ascii	"ch\000"
 5623 0f34 1A       		.byte	0x1a
 5624 0f35 23       		.byte	0x23
 5625 0f36 AD000000 		.4byte	0xad
 5626 0f3a 00       		.byte	0
 5627 0f3b 07       		.uleb128 0x7
 5628 0f3c 7F0C0000 		.4byte	.LASF45
 5629 0f40 1A       		.byte	0x1a
 5630 0f41 24       		.byte	0x24
 5631 0f42 480F0000 		.4byte	0xf48
 5632 0f46 04       		.byte	0x4
 5633 0f47 00       		.byte	0
 5634 0f48 0A       		.uleb128 0xa
 5635 0f49 04       		.byte	0x4
 5636 0f4a 7B0B0000 		.4byte	0xb7b
 5637 0f4e 03       		.uleb128 0x3
 5638 0f4f 4E040000 		.4byte	.LASF259
 5639 0f53 1A       		.byte	0x1a
 5640 0f54 25       		.byte	0x25
 5641 0f55 280F0000 		.4byte	0xf28
 5642 0f59 03       		.uleb128 0x3
 5643 0f5a 75120000 		.4byte	.LASF260
 5644 0f5e 1A       		.byte	0x1a
 5645 0f5f 29       		.byte	0x29
 5646 0f60 B8000000 		.4byte	0xb8
 5647 0f64 1A       		.uleb128 0x1a
 5648 0f65 78010000 		.4byte	.LASF261
 5649 0f69 05       		.byte	0x5
 5650 0f6a 33       		.byte	0x33
 5651 0f6b 03       		.byte	0x3
 5652 0f6c 7C0F0000 		.4byte	0xf7c
 5653 0f70 1B       		.uleb128 0x1b
 5654 0f71 830A0000 		.4byte	.LASF263
 5655 0f75 05       		.byte	0x5
 5656 0f76 33       		.byte	0x33
 5657 0f77 7C0F0000 		.4byte	0xf7c
 5658 0f7b 00       		.byte	0
 5659 0f7c 0A       		.uleb128 0xa
 5660 0f7d 04       		.byte	0x4
 5661 0f7e B8000000 		.4byte	0xb8
 5662 0f82 1A       		.uleb128 0x1a
 5663 0f83 C9090000 		.4byte	.LASF262
ARM GAS  C:\Users\IDONNO~1\AppData\Local\Temp\ccY27Fyg.s 			page 101


 5664 0f87 05       		.byte	0x5
 5665 0f88 22       		.byte	0x22
 5666 0f89 03       		.byte	0x3
 5667 0f8a B00F0000 		.4byte	0xfb0
 5668 0f8e 1B       		.uleb128 0x1b
 5669 0f8f B6090000 		.4byte	.LASF222
 5670 0f93 05       		.byte	0x5
 5671 0f94 22       		.byte	0x22
 5672 0f95 AD000000 		.4byte	0xad
 5673 0f99 1B       		.uleb128 0x1b
 5674 0f9a 830A0000 		.4byte	.LASF263
 5675 0f9e 05       		.byte	0x5
 5676 0f9f 22       		.byte	0x22
 5677 0fa0 7C0F0000 		.4byte	0xf7c
 5678 0fa4 1C       		.uleb128 0x1c
 5679 0fa5 746D7000 		.ascii	"tmp\000"
 5680 0fa9 05       		.byte	0x5
 5681 0faa 25       		.byte	0x25
 5682 0fab AD000000 		.4byte	0xad
 5683 0faf 00       		.byte	0
 5684 0fb0 1A       		.uleb128 0x1a
 5685 0fb1 3A030000 		.4byte	.LASF264
 5686 0fb5 05       		.byte	0x5
 5687 0fb6 54       		.byte	0x54
 5688 0fb7 03       		.byte	0x3
 5689 0fb8 E70F0000 		.4byte	0xfe7
 5690 0fbc 1B       		.uleb128 0x1b
 5691 0fbd 830A0000 		.4byte	.LASF263
 5692 0fc1 05       		.byte	0x5
 5693 0fc2 54       		.byte	0x54
 5694 0fc3 7C0F0000 		.4byte	0xf7c
 5695 0fc7 1B       		.uleb128 0x1b
 5696 0fc8 7C020000 		.4byte	.LASF265
 5697 0fcc 05       		.byte	0x5
 5698 0fcd 54       		.byte	0x54
 5699 0fce E7060000 		.4byte	0x6e7
 5700 0fd2 1B       		.uleb128 0x1b
 5701 0fd3 850E0000 		.4byte	.LASF221
 5702 0fd7 05       		.byte	0x5
 5703 0fd8 54       		.byte	0x54
 5704 0fd9 B8000000 		.4byte	0xb8
 5705 0fdd 1C       		.uleb128 0x1c
 5706 0fde 7000     		.ascii	"p\000"
 5707 0fe0 05       		.byte	0x5
 5708 0fe1 56       		.byte	0x56
 5709 0fe2 30070000 		.4byte	0x730
 5710 0fe6 00       		.byte	0
 5711 0fe7 1D       		.uleb128 0x1d
 5712 0fe8 60030000 		.4byte	.LASF267
 5713 0fec 05       		.byte	0x5
 5714 0fed 40       		.byte	0x40
 5715 0fee B8000000 		.4byte	0xb8
 5716 0ff2 03       		.byte	0x3
 5717 0ff3 19100000 		.4byte	0x1019
 5718 0ff7 1B       		.uleb128 0x1b
 5719 0ff8 7C020000 		.4byte	.LASF265
 5720 0ffc 05       		.byte	0x5
ARM GAS  C:\Users\IDONNO~1\AppData\Local\Temp\ccY27Fyg.s 			page 102


 5721 0ffd 40       		.byte	0x40
 5722 0ffe 30070000 		.4byte	0x730
 5723 1002 1B       		.uleb128 0x1b
 5724 1003 850E0000 		.4byte	.LASF221
 5725 1007 05       		.byte	0x5
 5726 1008 40       		.byte	0x40
 5727 1009 B8000000 		.4byte	0xb8
 5728 100d 1E       		.uleb128 0x1e
 5729 100e 50090000 		.4byte	.LASF266
 5730 1012 05       		.byte	0x5
 5731 1013 42       		.byte	0x42
 5732 1014 B8000000 		.4byte	0xb8
 5733 1018 00       		.byte	0
 5734 1019 1D       		.uleb128 0x1d
 5735 101a 75040000 		.4byte	.LASF268
 5736 101e 02       		.byte	0x2
 5737 101f 11       		.byte	0x11
 5738 1020 40100000 		.4byte	0x1040
 5739 1024 03       		.byte	0x3
 5740 1025 40100000 		.4byte	0x1040
 5741 1029 1B       		.uleb128 0x1b
 5742 102a 6D090000 		.4byte	.LASF269
 5743 102e 02       		.byte	0x2
 5744 102f 11       		.byte	0x11
 5745 1030 AD000000 		.4byte	0xad
 5746 1034 1E       		.uleb128 0x1e
 5747 1035 4E080000 		.4byte	.LASF270
 5748 1039 02       		.byte	0x2
 5749 103a 17       		.byte	0x17
 5750 103b 46100000 		.4byte	0x1046
 5751 103f 00       		.byte	0
 5752 1040 0A       		.uleb128 0xa
 5753 1041 04       		.byte	0x4
 5754 1042 9D0C0000 		.4byte	0xc9d
 5755 1046 15       		.uleb128 0x15
 5756 1047 9D0C0000 		.4byte	0xc9d
 5757 104b 56100000 		.4byte	0x1056
 5758 104f 16       		.uleb128 0x16
 5759 1050 85040000 		.4byte	0x485
 5760 1054 03       		.byte	0x3
 5761 1055 00       		.byte	0
 5762 1056 1D       		.uleb128 0x1d
 5763 1057 DC0C0000 		.4byte	.LASF271
 5764 105b 02       		.byte	0x2
 5765 105c 44       		.byte	0x44
 5766 105d B8000000 		.4byte	0xb8
 5767 1061 03       		.byte	0x3
 5768 1062 B4100000 		.4byte	0x10b4
 5769 1066 1F       		.uleb128 0x1f
 5770 1067 6D736700 		.ascii	"msg\000"
 5771 106b 02       		.byte	0x2
 5772 106c 44       		.byte	0x44
 5773 106d 480F0000 		.4byte	0xf48
 5774 1071 1B       		.uleb128 0x1b
 5775 1072 B80E0000 		.4byte	.LASF272
 5776 1076 02       		.byte	0x2
 5777 1077 44       		.byte	0x44
ARM GAS  C:\Users\IDONNO~1\AppData\Local\Temp\ccY27Fyg.s 			page 103


 5778 1078 AD000000 		.4byte	0xad
 5779 107c 1B       		.uleb128 0x1b
 5780 107d F4110000 		.4byte	.LASF273
 5781 1081 02       		.byte	0x2
 5782 1082 44       		.byte	0x44
 5783 1083 AD000000 		.4byte	0xad
 5784 1087 1B       		.uleb128 0x1b
 5785 1088 6D090000 		.4byte	.LASF269
 5786 108c 02       		.byte	0x2
 5787 108d 45       		.byte	0x45
 5788 108e AD000000 		.4byte	0xad
 5789 1092 1B       		.uleb128 0x1b
 5790 1093 4A060000 		.4byte	.LASF274
 5791 1097 02       		.byte	0x2
 5792 1098 45       		.byte	0x45
 5793 1099 AD000000 		.4byte	0xad
 5794 109d 1B       		.uleb128 0x1b
 5795 109e 850E0000 		.4byte	.LASF221
 5796 10a2 02       		.byte	0x2
 5797 10a3 45       		.byte	0x45
 5798 10a4 AD000000 		.4byte	0xad
 5799 10a8 1B       		.uleb128 0x1b
 5800 10a9 84030000 		.4byte	.LASF275
 5801 10ad 02       		.byte	0x2
 5802 10ae 45       		.byte	0x45
 5803 10af AD000000 		.4byte	0xad
 5804 10b3 00       		.byte	0
 5805 10b4 1A       		.uleb128 0x1a
 5806 10b5 37110000 		.4byte	.LASF276
 5807 10b9 02       		.byte	0x2
 5808 10ba C6       		.byte	0xc6
 5809 10bb 03       		.byte	0x3
 5810 10bc CC100000 		.4byte	0x10cc
 5811 10c0 1F       		.uleb128 0x1f
 5812 10c1 6D736700 		.ascii	"msg\000"
 5813 10c5 02       		.byte	0x2
 5814 10c6 C6       		.byte	0xc6
 5815 10c7 480F0000 		.4byte	0xf48
 5816 10cb 00       		.byte	0
 5817 10cc 1A       		.uleb128 0x1a
 5818 10cd 140F0000 		.4byte	.LASF277
 5819 10d1 02       		.byte	0x2
 5820 10d2 CB       		.byte	0xcb
 5821 10d3 03       		.byte	0x3
 5822 10d4 ED100000 		.4byte	0x10ed
 5823 10d8 1F       		.uleb128 0x1f
 5824 10d9 6D736700 		.ascii	"msg\000"
 5825 10dd 02       		.byte	0x2
 5826 10de CB       		.byte	0xcb
 5827 10df 480F0000 		.4byte	0xf48
 5828 10e3 1F       		.uleb128 0x1f
 5829 10e4 6300     		.ascii	"c\000"
 5830 10e6 02       		.byte	0x2
 5831 10e7 CB       		.byte	0xcb
 5832 10e8 AD000000 		.4byte	0xad
 5833 10ec 00       		.byte	0
 5834 10ed 1D       		.uleb128 0x1d
ARM GAS  C:\Users\IDONNO~1\AppData\Local\Temp\ccY27Fyg.s 			page 104


 5835 10ee 6D100000 		.4byte	.LASF278
 5836 10f2 02       		.byte	0x2
 5837 10f3 21       		.byte	0x21
 5838 10f4 480F0000 		.4byte	0xf48
 5839 10f8 03       		.byte	0x3
 5840 10f9 14110000 		.4byte	0x1114
 5841 10fd 1B       		.uleb128 0x1b
 5842 10fe 6D090000 		.4byte	.LASF269
 5843 1102 02       		.byte	0x2
 5844 1103 21       		.byte	0x21
 5845 1104 AD000000 		.4byte	0xad
 5846 1108 1E       		.uleb128 0x1e
 5847 1109 45130000 		.4byte	.LASF279
 5848 110d 02       		.byte	0x2
 5849 110e 28       		.byte	0x28
 5850 110f 14110000 		.4byte	0x1114
 5851 1113 00       		.byte	0
 5852 1114 15       		.uleb128 0x15
 5853 1115 7B0B0000 		.4byte	0xb7b
 5854 1119 24110000 		.4byte	0x1124
 5855 111d 16       		.uleb128 0x16
 5856 111e 85040000 		.4byte	0x485
 5857 1122 03       		.byte	0x3
 5858 1123 00       		.byte	0
 5859 1124 20       		.uleb128 0x20
 5860 1125 32130000 		.4byte	.LASF280
 5861 1129 02       		.byte	0x2
 5862 112a D301     		.2byte	0x1d3
 5863 112c AD000000 		.4byte	0xad
 5864 1130 03       		.byte	0x3
 5865 1131 64110000 		.4byte	0x1164
 5866 1135 21       		.uleb128 0x21
 5867 1136 6D090000 		.4byte	.LASF269
 5868 113a 02       		.byte	0x2
 5869 113b D301     		.2byte	0x1d3
 5870 113d AD000000 		.4byte	0xad
 5871 1141 22       		.uleb128 0x22
 5872 1142 6300     		.ascii	"c\000"
 5873 1144 02       		.byte	0x2
 5874 1145 D301     		.2byte	0x1d3
 5875 1147 AD000000 		.4byte	0xad
 5876 114b 21       		.uleb128 0x21
 5877 114c 0E100000 		.4byte	.LASF281
 5878 1150 02       		.byte	0x2
 5879 1151 D301     		.2byte	0x1d3
 5880 1153 480F0000 		.4byte	0xf48
 5881 1157 21       		.uleb128 0x21
 5882 1158 BA0A0000 		.4byte	.LASF282
 5883 115c 02       		.byte	0x2
 5884 115d D301     		.2byte	0x1d3
 5885 115f 40100000 		.4byte	0x1040
 5886 1163 00       		.byte	0
 5887 1164 23       		.uleb128 0x23
 5888 1165 5D020000 		.4byte	.LASF285
 5889 1169 01       		.byte	0x1
 5890 116a 5D       		.byte	0x5d
 5891 116b 01       		.byte	0x1
ARM GAS  C:\Users\IDONNO~1\AppData\Local\Temp\ccY27Fyg.s 			page 105


 5892 116c 9D110000 		.4byte	0x119d
 5893 1170 1B       		.uleb128 0x1b
 5894 1171 7F0C0000 		.4byte	.LASF45
 5895 1175 01       		.byte	0x1
 5896 1176 5D       		.byte	0x5d
 5897 1177 9D110000 		.4byte	0x119d
 5898 117b 1E       		.uleb128 0x1e
 5899 117c 090A0000 		.4byte	.LASF219
 5900 1180 01       		.byte	0x1
 5901 1181 5F       		.byte	0x5f
 5902 1182 590F0000 		.4byte	0xf59
 5903 1186 1E       		.uleb128 0x1e
 5904 1187 990F0000 		.4byte	.LASF283
 5905 118b 01       		.byte	0x1
 5906 118c 60       		.byte	0x60
 5907 118d 190D0000 		.4byte	0xd19
 5908 1191 1E       		.uleb128 0x1e
 5909 1192 D1050000 		.4byte	.LASF284
 5910 1196 01       		.byte	0x1
 5911 1197 61       		.byte	0x61
 5912 1198 490D0000 		.4byte	0xd49
 5913 119c 00       		.byte	0
 5914 119d 0A       		.uleb128 0xa
 5915 119e 04       		.byte	0x4
 5916 119f 4E0F0000 		.4byte	0xf4e
 5917 11a3 23       		.uleb128 0x23
 5918 11a4 D80E0000 		.4byte	.LASF286
 5919 11a8 01       		.byte	0x1
 5920 11a9 7E       		.byte	0x7e
 5921 11aa 01       		.byte	0x1
 5922 11ab E5110000 		.4byte	0x11e5
 5923 11af 1B       		.uleb128 0x1b
 5924 11b0 7F0C0000 		.4byte	.LASF45
 5925 11b4 01       		.byte	0x1
 5926 11b5 7E       		.byte	0x7e
 5927 11b6 9D110000 		.4byte	0x119d
 5928 11ba 1E       		.uleb128 0x1e
 5929 11bb 090A0000 		.4byte	.LASF219
 5930 11bf 01       		.byte	0x1
 5931 11c0 80       		.byte	0x80
 5932 11c1 590F0000 		.4byte	0xf59
 5933 11c5 1E       		.uleb128 0x1e
 5934 11c6 990F0000 		.4byte	.LASF283
 5935 11ca 01       		.byte	0x1
 5936 11cb 81       		.byte	0x81
 5937 11cc 190D0000 		.4byte	0xd19
 5938 11d0 1E       		.uleb128 0x1e
 5939 11d1 D1050000 		.4byte	.LASF284
 5940 11d5 01       		.byte	0x1
 5941 11d6 82       		.byte	0x82
 5942 11d7 790D0000 		.4byte	0xd79
 5943 11db 1C       		.uleb128 0x1c
 5944 11dc 6900     		.ascii	"i\000"
 5945 11de 01       		.byte	0x1
 5946 11df 83       		.byte	0x83
 5947 11e0 AD000000 		.4byte	0xad
 5948 11e4 00       		.byte	0
ARM GAS  C:\Users\IDONNO~1\AppData\Local\Temp\ccY27Fyg.s 			page 106


 5949 11e5 24       		.uleb128 0x24
 5950 11e6 8E030000 		.4byte	.LASF287
 5951 11ea 01       		.byte	0x1
 5952 11eb 2301     		.2byte	0x123
 5953 11ed 01       		.byte	0x1
 5954 11ee 23120000 		.4byte	0x1223
 5955 11f2 21       		.uleb128 0x21
 5956 11f3 7F0C0000 		.4byte	.LASF45
 5957 11f7 01       		.byte	0x1
 5958 11f8 2301     		.2byte	0x123
 5959 11fa 9D110000 		.4byte	0x119d
 5960 11fe 25       		.uleb128 0x25
 5961 11ff 090A0000 		.4byte	.LASF219
 5962 1203 01       		.byte	0x1
 5963 1204 2501     		.2byte	0x125
 5964 1206 590F0000 		.4byte	0xf59
 5965 120a 25       		.uleb128 0x25
 5966 120b 990F0000 		.4byte	.LASF283
 5967 120f 01       		.byte	0x1
 5968 1210 2601     		.2byte	0x126
 5969 1212 190D0000 		.4byte	0xd19
 5970 1216 25       		.uleb128 0x25
 5971 1217 D1050000 		.4byte	.LASF284
 5972 121b 01       		.byte	0x1
 5973 121c 2701     		.2byte	0x127
 5974 121e 490D0000 		.4byte	0xd49
 5975 1222 00       		.byte	0
 5976 1223 1D       		.uleb128 0x1d
 5977 1224 5F130000 		.4byte	.LASF288
 5978 1228 04       		.byte	0x4
 5979 1229 5E       		.byte	0x5e
 5980 122a B8000000 		.4byte	0xb8
 5981 122e 03       		.byte	0x3
 5982 122f 97120000 		.4byte	0x1297
 5983 1233 1B       		.uleb128 0x1b
 5984 1234 B80E0000 		.4byte	.LASF272
 5985 1238 04       		.byte	0x4
 5986 1239 5E       		.byte	0x5e
 5987 123a AD000000 		.4byte	0xad
 5988 123e 1B       		.uleb128 0x1b
 5989 123f F4110000 		.4byte	.LASF273
 5990 1243 04       		.byte	0x4
 5991 1244 5E       		.byte	0x5e
 5992 1245 AD000000 		.4byte	0xad
 5993 1249 1B       		.uleb128 0x1b
 5994 124a 6D090000 		.4byte	.LASF269
 5995 124e 04       		.byte	0x4
 5996 124f 5E       		.byte	0x5e
 5997 1250 AD000000 		.4byte	0xad
 5998 1254 1F       		.uleb128 0x1f
 5999 1255 6D736700 		.ascii	"msg\000"
 6000 1259 04       		.byte	0x4
 6001 125a 5F       		.byte	0x5f
 6002 125b 480F0000 		.4byte	0xf48
 6003 125f 1B       		.uleb128 0x1b
 6004 1260 290B0000 		.4byte	.LASF220
 6005 1264 04       		.byte	0x4
ARM GAS  C:\Users\IDONNO~1\AppData\Local\Temp\ccY27Fyg.s 			page 107


 6006 1265 60       		.byte	0x60
 6007 1266 AD000000 		.4byte	0xad
 6008 126a 1B       		.uleb128 0x1b
 6009 126b 090A0000 		.4byte	.LASF219
 6010 126f 04       		.byte	0x4
 6011 1270 60       		.byte	0x60
 6012 1271 B8000000 		.4byte	0xb8
 6013 1275 1B       		.uleb128 0x1b
 6014 1276 850E0000 		.4byte	.LASF221
 6015 127a 04       		.byte	0x4
 6016 127b 60       		.byte	0x60
 6017 127c AD000000 		.4byte	0xad
 6018 1280 1B       		.uleb128 0x1b
 6019 1281 B6090000 		.4byte	.LASF222
 6020 1285 04       		.byte	0x4
 6021 1286 60       		.byte	0x60
 6022 1287 30070000 		.4byte	0x730
 6023 128b 1E       		.uleb128 0x1e
 6024 128c 35100000 		.4byte	.LASF289
 6025 1290 04       		.byte	0x4
 6026 1291 6A       		.byte	0x6a
 6027 1292 190D0000 		.4byte	0xd19
 6028 1296 00       		.byte	0
 6029 1297 1D       		.uleb128 0x1d
 6030 1298 850C0000 		.4byte	.LASF290
 6031 129c 0A       		.byte	0xa
 6032 129d 4B       		.byte	0x4b
 6033 129e B8000000 		.4byte	0xb8
 6034 12a2 03       		.byte	0x3
 6035 12a3 EA120000 		.4byte	0x12ea
 6036 12a7 1B       		.uleb128 0x1b
 6037 12a8 B80E0000 		.4byte	.LASF272
 6038 12ac 0A       		.byte	0xa
 6039 12ad 4B       		.byte	0x4b
 6040 12ae AD000000 		.4byte	0xad
 6041 12b2 1B       		.uleb128 0x1b
 6042 12b3 F4110000 		.4byte	.LASF273
 6043 12b7 0A       		.byte	0xa
 6044 12b8 4B       		.byte	0x4b
 6045 12b9 AD000000 		.4byte	0xad
 6046 12bd 1B       		.uleb128 0x1b
 6047 12be 6D090000 		.4byte	.LASF269
 6048 12c2 0A       		.byte	0xa
 6049 12c3 4B       		.byte	0x4b
 6050 12c4 AD000000 		.4byte	0xad
 6051 12c8 1F       		.uleb128 0x1f
 6052 12c9 6D736700 		.ascii	"msg\000"
 6053 12cd 0A       		.byte	0xa
 6054 12ce 4C       		.byte	0x4c
 6055 12cf 480F0000 		.4byte	0xf48
 6056 12d3 1B       		.uleb128 0x1b
 6057 12d4 31090000 		.4byte	.LASF216
 6058 12d8 0A       		.byte	0xa
 6059 12d9 4D       		.byte	0x4d
 6060 12da E7060000 		.4byte	0x6e7
 6061 12de 1E       		.uleb128 0x1e
 6062 12df 35100000 		.4byte	.LASF289
ARM GAS  C:\Users\IDONNO~1\AppData\Local\Temp\ccY27Fyg.s 			page 108


 6063 12e3 0A       		.byte	0xa
 6064 12e4 55       		.byte	0x55
 6065 12e5 D10C0000 		.4byte	0xcd1
 6066 12e9 00       		.byte	0
 6067 12ea 1D       		.uleb128 0x1d
 6068 12eb F1040000 		.4byte	.LASF291
 6069 12ef 02       		.byte	0x2
 6070 12f0 B0       		.byte	0xb0
 6071 12f1 B8000000 		.4byte	0xb8
 6072 12f5 03       		.byte	0x3
 6073 12f6 1B130000 		.4byte	0x131b
 6074 12fa 1B       		.uleb128 0x1b
 6075 12fb 71010000 		.4byte	.LASF292
 6076 12ff 02       		.byte	0x2
 6077 1300 B0       		.byte	0xb0
 6078 1301 2A070000 		.4byte	0x72a
 6079 1305 1F       		.uleb128 0x1f
 6080 1306 6D736700 		.ascii	"msg\000"
 6081 130a 02       		.byte	0x2
 6082 130b B0       		.byte	0xb0
 6083 130c 1B130000 		.4byte	0x131b
 6084 1310 1C       		.uleb128 0x1c
 6085 1311 636B00   		.ascii	"ck\000"
 6086 1314 02       		.byte	0x2
 6087 1315 B4       		.byte	0xb4
 6088 1316 2A070000 		.4byte	0x72a
 6089 131a 00       		.byte	0
 6090 131b 0A       		.uleb128 0xa
 6091 131c 04       		.byte	0x4
 6092 131d 21130000 		.4byte	0x1321
 6093 1321 14       		.uleb128 0x14
 6094 1322 7B0B0000 		.4byte	0xb7b
 6095 1326 26       		.uleb128 0x26
 6096 1327 6E0D0000 		.4byte	.LASF295
 6097 132b 01       		.byte	0x1
 6098 132c 4801     		.2byte	0x148
 6099 132e 00000000 		.4byte	.LFB417
 6100 1332 36000000 		.4byte	.LFE417-.LFB417
 6101 1336 01       		.uleb128 0x1
 6102 1337 9C       		.byte	0x9c
 6103 1338 E0130000 		.4byte	0x13e0
 6104 133c 27       		.uleb128 0x27
 6105 133d 636800   		.ascii	"ch\000"
 6106 1340 01       		.byte	0x1
 6107 1341 4801     		.2byte	0x148
 6108 1343 AD000000 		.4byte	0xad
 6109 1347 00000000 		.4byte	.LLST0
 6110 134b 28       		.uleb128 0x28
 6111 134c 7F0C0000 		.4byte	.LASF45
 6112 1350 01       		.byte	0x1
 6113 1351 4801     		.2byte	0x148
 6114 1353 480F0000 		.4byte	0xf48
 6115 1357 21000000 		.4byte	.LLST1
 6116 135b 29       		.uleb128 0x29
 6117 135c 62756600 		.ascii	"buf\000"
 6118 1360 01       		.byte	0x1
 6119 1361 4A01     		.2byte	0x14a
ARM GAS  C:\Users\IDONNO~1\AppData\Local\Temp\ccY27Fyg.s 			page 109


 6120 1363 E0130000 		.4byte	0x13e0
 6121 1367 03       		.uleb128 0x3
 6122 1368 91       		.byte	0x91
 6123 1369 E877     		.sleb128 -1048
 6124 136b 2A       		.uleb128 0x2a
 6125 136c 6C656E00 		.ascii	"len\000"
 6126 1370 01       		.byte	0x1
 6127 1371 4E01     		.2byte	0x14e
 6128 1373 25000000 		.4byte	0x25
 6129 1377 2B       		.uleb128 0x2b
 6130 1378 EA120000 		.4byte	0x12ea
 6131 137c 02000000 		.4byte	.LBB116
 6132 1380 00000000 		.4byte	.Ldebug_ranges0+0
 6133 1384 01       		.byte	0x1
 6134 1385 4E01     		.2byte	0x14e
 6135 1387 C9130000 		.4byte	0x13c9
 6136 138b 2C       		.uleb128 0x2c
 6137 138c 05130000 		.4byte	0x1305
 6138 1390 3F000000 		.4byte	.LLST2
 6139 1394 2C       		.uleb128 0x2c
 6140 1395 FA120000 		.4byte	0x12fa
 6141 1399 5D000000 		.4byte	.LLST3
 6142 139d 2D       		.uleb128 0x2d
 6143 139e 00000000 		.4byte	.Ldebug_ranges0+0
 6144 13a2 2E       		.uleb128 0x2e
 6145 13a3 10130000 		.4byte	0x1310
 6146 13a7 70000000 		.4byte	.LLST4
 6147 13ab 2F       		.uleb128 0x2f
 6148 13ac 18000000 		.4byte	.LVL5
 6149 13b0 062C0000 		.4byte	0x2c06
 6150 13b4 30       		.uleb128 0x30
 6151 13b5 01       		.uleb128 0x1
 6152 13b6 50       		.byte	0x50
 6153 13b7 02       		.uleb128 0x2
 6154 13b8 7D       		.byte	0x7d
 6155 13b9 00       		.sleb128 0
 6156 13ba 30       		.uleb128 0x30
 6157 13bb 01       		.uleb128 0x1
 6158 13bc 51       		.byte	0x51
 6159 13bd 02       		.uleb128 0x2
 6160 13be 75       		.byte	0x75
 6161 13bf 02       		.sleb128 2
 6162 13c0 30       		.uleb128 0x30
 6163 13c1 01       		.uleb128 0x1
 6164 13c2 52       		.byte	0x52
 6165 13c3 02       		.uleb128 0x2
 6166 13c4 74       		.byte	0x74
 6167 13c5 00       		.sleb128 0
 6168 13c6 00       		.byte	0
 6169 13c7 00       		.byte	0
 6170 13c8 00       		.byte	0
 6171 13c9 2F       		.uleb128 0x2f
 6172 13ca 30000000 		.4byte	.LVL8
 6173 13ce 0F2C0000 		.4byte	0x2c0f
 6174 13d2 30       		.uleb128 0x30
 6175 13d3 01       		.uleb128 0x1
 6176 13d4 50       		.byte	0x50
ARM GAS  C:\Users\IDONNO~1\AppData\Local\Temp\ccY27Fyg.s 			page 110


 6177 13d5 02       		.uleb128 0x2
 6178 13d6 7D       		.byte	0x7d
 6179 13d7 00       		.sleb128 0
 6180 13d8 30       		.uleb128 0x30
 6181 13d9 01       		.uleb128 0x1
 6182 13da 51       		.byte	0x51
 6183 13db 02       		.uleb128 0x2
 6184 13dc 76       		.byte	0x76
 6185 13dd 08       		.sleb128 8
 6186 13de 00       		.byte	0
 6187 13df 00       		.byte	0
 6188 13e0 15       		.uleb128 0x15
 6189 13e1 AD000000 		.4byte	0xad
 6190 13e5 F1130000 		.4byte	0x13f1
 6191 13e9 31       		.uleb128 0x31
 6192 13ea 85040000 		.4byte	0x485
 6193 13ee FF03     		.2byte	0x3ff
 6194 13f0 00       		.byte	0
 6195 13f1 1A       		.uleb128 0x1a
 6196 13f2 400C0000 		.4byte	.LASF293
 6197 13f6 03       		.byte	0x3
 6198 13f7 B0       		.byte	0xb0
 6199 13f8 03       		.byte	0x3
 6200 13f9 1D140000 		.4byte	0x141d
 6201 13fd 1B       		.uleb128 0x1b
 6202 13fe 82130000 		.4byte	.LASF294
 6203 1402 03       		.byte	0x3
 6204 1403 B0       		.byte	0xb0
 6205 1404 4F030000 		.4byte	0x34f
 6206 1408 1F       		.uleb128 0x1f
 6207 1409 73726300 		.ascii	"src\000"
 6208 140d 03       		.byte	0x3
 6209 140e B0       		.byte	0xb0
 6210 140f 1D140000 		.4byte	0x141d
 6211 1413 1F       		.uleb128 0x1f
 6212 1414 6E00     		.ascii	"n\000"
 6213 1416 03       		.byte	0x3
 6214 1417 B0       		.byte	0xb0
 6215 1418 2C000000 		.4byte	0x2c
 6216 141c 00       		.byte	0
 6217 141d 0A       		.uleb128 0xa
 6218 141e 04       		.byte	0x4
 6219 141f 23140000 		.4byte	0x1423
 6220 1423 32       		.uleb128 0x32
 6221 1424 33       		.uleb128 0x33
 6222 1425 90130000 		.4byte	.LASF296
 6223 1429 01       		.byte	0x1
 6224 142a 3C       		.byte	0x3c
 6225 142b 00000000 		.4byte	.LFB407
 6226 142f 04010000 		.4byte	.LFE407-.LFB407
 6227 1433 01       		.uleb128 0x1
 6228 1434 9C       		.byte	0x9c
 6229 1435 7B160000 		.4byte	0x167b
 6230 1439 34       		.uleb128 0x34
 6231 143a 636800   		.ascii	"ch\000"
 6232 143d 01       		.byte	0x1
 6233 143e 3C       		.byte	0x3c
ARM GAS  C:\Users\IDONNO~1\AppData\Local\Temp\ccY27Fyg.s 			page 111


 6234 143f AD000000 		.4byte	0xad
 6235 1443 83000000 		.4byte	.LLST5
 6236 1447 35       		.uleb128 0x35
 6237 1448 18100000 		.4byte	.LASF297
 6238 144c 01       		.byte	0x1
 6239 144d 3C       		.byte	0x3c
 6240 144e 7B160000 		.4byte	0x167b
 6241 1452 A4000000 		.4byte	.LLST6
 6242 1456 36       		.uleb128 0x36
 6243 1457 EE0B0000 		.4byte	.LASF298
 6244 145b 01       		.byte	0x1
 6245 145c 3E       		.byte	0x3e
 6246 145d 7B0B0000 		.4byte	0xb7b
 6247 1461 03       		.uleb128 0x3
 6248 1462 91       		.byte	0x91
 6249 1463 D87D     		.sleb128 -296
 6250 1465 37       		.uleb128 0x37
 6251 1466 23120000 		.4byte	0x1223
 6252 146a 02000000 		.4byte	.LBB145
 6253 146e 28000000 		.4byte	.Ldebug_ranges0+0x28
 6254 1472 01       		.byte	0x1
 6255 1473 40       		.byte	0x40
 6256 1474 69160000 		.4byte	0x1669
 6257 1478 2C       		.uleb128 0x2c
 6258 1479 33120000 		.4byte	0x1233
 6259 147d D0000000 		.4byte	.LLST7
 6260 1481 2C       		.uleb128 0x2c
 6261 1482 3E120000 		.4byte	0x123e
 6262 1486 D0000000 		.4byte	.LLST7
 6263 148a 2C       		.uleb128 0x2c
 6264 148b 80120000 		.4byte	0x1280
 6265 148f E4000000 		.4byte	.LLST9
 6266 1493 2C       		.uleb128 0x2c
 6267 1494 75120000 		.4byte	0x1275
 6268 1498 09010000 		.4byte	.LLST10
 6269 149c 2C       		.uleb128 0x2c
 6270 149d 6A120000 		.4byte	0x126a
 6271 14a1 29010000 		.4byte	.LLST11
 6272 14a5 2C       		.uleb128 0x2c
 6273 14a6 5F120000 		.4byte	0x125f
 6274 14aa 4A010000 		.4byte	.LLST12
 6275 14ae 2C       		.uleb128 0x2c
 6276 14af 54120000 		.4byte	0x1254
 6277 14b3 6A010000 		.4byte	.LLST13
 6278 14b7 2C       		.uleb128 0x2c
 6279 14b8 49120000 		.4byte	0x1249
 6280 14bc 8B010000 		.4byte	.LLST14
 6281 14c0 2D       		.uleb128 0x2d
 6282 14c1 28000000 		.4byte	.Ldebug_ranges0+0x28
 6283 14c5 38       		.uleb128 0x38
 6284 14c6 8B120000 		.4byte	0x128b
 6285 14ca 03       		.uleb128 0x3
 6286 14cb 91       		.byte	0x91
 6287 14cc C47D     		.sleb128 -316
 6288 14ce 37       		.uleb128 0x37
 6289 14cf F1130000 		.4byte	0x13f1
 6290 14d3 02000000 		.4byte	.LBB147
ARM GAS  C:\Users\IDONNO~1\AppData\Local\Temp\ccY27Fyg.s 			page 112


 6291 14d7 68000000 		.4byte	.Ldebug_ranges0+0x68
 6292 14db 04       		.byte	0x4
 6293 14dc 6E       		.byte	0x6e
 6294 14dd F1140000 		.4byte	0x14f1
 6295 14e1 39       		.uleb128 0x39
 6296 14e2 13140000 		.4byte	0x1413
 6297 14e6 39       		.uleb128 0x39
 6298 14e7 08140000 		.4byte	0x1408
 6299 14eb 39       		.uleb128 0x39
 6300 14ec FD130000 		.4byte	0x13fd
 6301 14f0 00       		.byte	0
 6302 14f1 3A       		.uleb128 0x3a
 6303 14f2 56100000 		.4byte	0x1056
 6304 14f6 36000000 		.4byte	.LBB157
 6305 14fa 98000000 		.4byte	.Ldebug_ranges0+0x98
 6306 14fe 04       		.byte	0x4
 6307 14ff 73       		.byte	0x73
 6308 1500 2C       		.uleb128 0x2c
 6309 1501 71100000 		.4byte	0x1071
 6310 1505 9E010000 		.4byte	.LLST15
 6311 1509 2C       		.uleb128 0x2c
 6312 150a 7C100000 		.4byte	0x107c
 6313 150e 9E010000 		.4byte	.LLST15
 6314 1512 3B       		.uleb128 0x3b
 6315 1513 92100000 		.4byte	0x1092
 6316 1517 14       		.byte	0x14
 6317 1518 2C       		.uleb128 0x2c
 6318 1519 A8100000 		.4byte	0x10a8
 6319 151d B2010000 		.4byte	.LLST17
 6320 1521 2C       		.uleb128 0x2c
 6321 1522 9D100000 		.4byte	0x109d
 6322 1526 C7010000 		.4byte	.LLST18
 6323 152a 2C       		.uleb128 0x2c
 6324 152b 87100000 		.4byte	0x1087
 6325 152f DB010000 		.4byte	.LLST19
 6326 1533 2C       		.uleb128 0x2c
 6327 1534 66100000 		.4byte	0x1066
 6328 1538 EE010000 		.4byte	.LLST20
 6329 153c 3C       		.uleb128 0x3c
 6330 153d E70F0000 		.4byte	0xfe7
 6331 1541 72000000 		.4byte	.LBB159
 6332 1545 28000000 		.4byte	.LBE159-.LBB159
 6333 1549 02       		.byte	0x2
 6334 154a 55       		.byte	0x55
 6335 154b C2150000 		.4byte	0x15c2
 6336 154f 2C       		.uleb128 0x2c
 6337 1550 02100000 		.4byte	0x1002
 6338 1554 0F020000 		.4byte	.LLST21
 6339 1558 2C       		.uleb128 0x2c
 6340 1559 F70F0000 		.4byte	0xff7
 6341 155d 5C020000 		.4byte	.LLST22
 6342 1561 3D       		.uleb128 0x3d
 6343 1562 72000000 		.4byte	.LBB160
 6344 1566 28000000 		.4byte	.LBE160-.LBB160
 6345 156a 2E       		.uleb128 0x2e
 6346 156b 0D100000 		.4byte	0x100d
 6347 156f 7C020000 		.4byte	.LLST23
ARM GAS  C:\Users\IDONNO~1\AppData\Local\Temp\ccY27Fyg.s 			page 113


 6348 1573 3C       		.uleb128 0x3c
 6349 1574 640F0000 		.4byte	0xf64
 6350 1578 72000000 		.4byte	.LBB161
 6351 157c 0E000000 		.4byte	.LBE161-.LBB161
 6352 1580 05       		.byte	0x5
 6353 1581 43       		.byte	0x43
 6354 1582 8C150000 		.4byte	0x158c
 6355 1586 39       		.uleb128 0x39
 6356 1587 700F0000 		.4byte	0xf70
 6357 158b 00       		.byte	0
 6358 158c 3A       		.uleb128 0x3a
 6359 158d 820F0000 		.4byte	0xf82
 6360 1591 80000000 		.4byte	.LBB163
 6361 1595 D0000000 		.4byte	.Ldebug_ranges0+0xd0
 6362 1599 05       		.byte	0x5
 6363 159a 45       		.byte	0x45
 6364 159b 3E       		.uleb128 0x3e
 6365 159c 990F0000 		.4byte	0xf99
 6366 15a0 06       		.uleb128 0x6
 6367 15a1 F2       		.byte	0xf2
 6368 15a2 6A150000 		.4byte	.Ldebug_info0+5482
 6369 15a6 00       		.sleb128 0
 6370 15a7 2C       		.uleb128 0x2c
 6371 15a8 8E0F0000 		.4byte	0xf8e
 6372 15ac A7020000 		.4byte	.LLST24
 6373 15b0 2D       		.uleb128 0x2d
 6374 15b1 D0000000 		.4byte	.Ldebug_ranges0+0xd0
 6375 15b5 2E       		.uleb128 0x2e
 6376 15b6 A40F0000 		.4byte	0xfa4
 6377 15ba BB020000 		.4byte	.LLST25
 6378 15be 00       		.byte	0
 6379 15bf 00       		.byte	0
 6380 15c0 00       		.byte	0
 6381 15c1 00       		.byte	0
 6382 15c2 3C       		.uleb128 0x3c
 6383 15c3 B00F0000 		.4byte	0xfb0
 6384 15c7 9E000000 		.4byte	.LBB167
 6385 15cb 2A000000 		.4byte	.LBE167-.LBB167
 6386 15cf 02       		.byte	0x2
 6387 15d0 56       		.byte	0x56
 6388 15d1 35160000 		.4byte	0x1635
 6389 15d5 2C       		.uleb128 0x2c
 6390 15d6 D20F0000 		.4byte	0xfd2
 6391 15da E4020000 		.4byte	.LLST26
 6392 15de 2C       		.uleb128 0x2c
 6393 15df C70F0000 		.4byte	0xfc7
 6394 15e3 1E030000 		.4byte	.LLST27
 6395 15e7 2C       		.uleb128 0x2c
 6396 15e8 BC0F0000 		.4byte	0xfbc
 6397 15ec 4D030000 		.4byte	.LLST28
 6398 15f0 3D       		.uleb128 0x3d
 6399 15f1 9E000000 		.4byte	.LBB168
 6400 15f5 2A000000 		.4byte	.LBE168-.LBB168
 6401 15f9 2E       		.uleb128 0x2e
 6402 15fa DD0F0000 		.4byte	0xfdd
 6403 15fe 63030000 		.4byte	.LLST29
 6404 1602 3A       		.uleb128 0x3a
ARM GAS  C:\Users\IDONNO~1\AppData\Local\Temp\ccY27Fyg.s 			page 114


 6405 1603 820F0000 		.4byte	0xf82
 6406 1607 A2000000 		.4byte	.LBB169
 6407 160b E8000000 		.4byte	.Ldebug_ranges0+0xe8
 6408 160f 05       		.byte	0x5
 6409 1610 58       		.byte	0x58
 6410 1611 2C       		.uleb128 0x2c
 6411 1612 990F0000 		.4byte	0xf99
 6412 1616 9C030000 		.4byte	.LLST30
 6413 161a 2C       		.uleb128 0x2c
 6414 161b 8E0F0000 		.4byte	0xf8e
 6415 161f D9030000 		.4byte	.LLST31
 6416 1623 2D       		.uleb128 0x2d
 6417 1624 E8000000 		.4byte	.Ldebug_ranges0+0xe8
 6418 1628 2E       		.uleb128 0x2e
 6419 1629 A40F0000 		.4byte	0xfa4
 6420 162d F9030000 		.4byte	.LLST32
 6421 1631 00       		.byte	0
 6422 1632 00       		.byte	0
 6423 1633 00       		.byte	0
 6424 1634 00       		.byte	0
 6425 1635 3A       		.uleb128 0x3a
 6426 1636 820F0000 		.4byte	0xf82
 6427 163a C8000000 		.4byte	.LBB173
 6428 163e 00010000 		.4byte	.Ldebug_ranges0+0x100
 6429 1642 02       		.byte	0x2
 6430 1643 58       		.byte	0x58
 6431 1644 2C       		.uleb128 0x2c
 6432 1645 990F0000 		.4byte	0xf99
 6433 1649 2C040000 		.4byte	.LLST33
 6434 164d 2C       		.uleb128 0x2c
 6435 164e 8E0F0000 		.4byte	0xf8e
 6436 1652 4D040000 		.4byte	.LLST34
 6437 1656 2D       		.uleb128 0x2d
 6438 1657 00010000 		.4byte	.Ldebug_ranges0+0x100
 6439 165b 2E       		.uleb128 0x2e
 6440 165c A40F0000 		.4byte	0xfa4
 6441 1660 62040000 		.4byte	.LLST35
 6442 1664 00       		.byte	0
 6443 1665 00       		.byte	0
 6444 1666 00       		.byte	0
 6445 1667 00       		.byte	0
 6446 1668 00       		.byte	0
 6447 1669 2F       		.uleb128 0x2f
 6448 166a FA000000 		.4byte	.LVL43
 6449 166e 26130000 		.4byte	0x1326
 6450 1672 30       		.uleb128 0x30
 6451 1673 01       		.uleb128 0x1
 6452 1674 51       		.byte	0x51
 6453 1675 03       		.uleb128 0x3
 6454 1676 91       		.byte	0x91
 6455 1677 D87D     		.sleb128 -296
 6456 1679 00       		.byte	0
 6457 167a 00       		.byte	0
 6458 167b 0A       		.uleb128 0xa
 6459 167c 04       		.byte	0x4
 6460 167d 190D0000 		.4byte	0xd19
 6461 1681 1A       		.uleb128 0x1a
ARM GAS  C:\Users\IDONNO~1\AppData\Local\Temp\ccY27Fyg.s 			page 115


 6462 1682 370A0000 		.4byte	.LASF299
 6463 1686 06       		.byte	0x6
 6464 1687 DC       		.byte	0xdc
 6465 1688 03       		.byte	0x3
 6466 1689 AF160000 		.4byte	0x16af
 6467 168d 1F       		.uleb128 0x1f
 6468 168e 6D736700 		.ascii	"msg\000"
 6469 1692 06       		.byte	0x6
 6470 1693 DC       		.byte	0xdc
 6471 1694 1B130000 		.4byte	0x131b
 6472 1698 1B       		.uleb128 0x1b
 6473 1699 300C0000 		.4byte	.LASF300
 6474 169d 06       		.byte	0x6
 6475 169e DC       		.byte	0xdc
 6476 169f AF160000 		.4byte	0x16af
 6477 16a3 1C       		.uleb128 0x1c
 6478 16a4 6C656E00 		.ascii	"len\000"
 6479 16a8 06       		.byte	0x6
 6480 16a9 E2       		.byte	0xe2
 6481 16aa AD000000 		.4byte	0xad
 6482 16ae 00       		.byte	0
 6483 16af 0A       		.uleb128 0xa
 6484 16b0 04       		.byte	0x4
 6485 16b1 790D0000 		.4byte	0xd79
 6486 16b5 33       		.uleb128 0x33
 6487 16b6 8C0E0000 		.4byte	.LASF301
 6488 16ba 01       		.byte	0x1
 6489 16bb 49       		.byte	0x49
 6490 16bc 00000000 		.4byte	.LFB408
 6491 16c0 20000000 		.4byte	.LFE408-.LFB408
 6492 16c4 01       		.uleb128 0x1
 6493 16c5 9C       		.byte	0x9c
 6494 16c6 12170000 		.4byte	0x1712
 6495 16ca 35       		.uleb128 0x35
 6496 16cb 7F0C0000 		.4byte	.LASF45
 6497 16cf 01       		.byte	0x1
 6498 16d0 49       		.byte	0x49
 6499 16d1 9D110000 		.4byte	0x119d
 6500 16d5 90040000 		.4byte	.LLST36
 6501 16d9 35       		.uleb128 0x35
 6502 16da 090A0000 		.4byte	.LASF219
 6503 16de 01       		.byte	0x1
 6504 16df 49       		.byte	0x49
 6505 16e0 590F0000 		.4byte	0xf59
 6506 16e4 B1040000 		.4byte	.LLST37
 6507 16e8 36       		.uleb128 0x36
 6508 16e9 990F0000 		.4byte	.LASF283
 6509 16ed 01       		.byte	0x1
 6510 16ee 4C       		.byte	0x4c
 6511 16ef 190D0000 		.4byte	0xd19
 6512 16f3 02       		.uleb128 0x2
 6513 16f4 91       		.byte	0x91
 6514 16f5 64       		.sleb128 -28
 6515 16f6 1E       		.uleb128 0x1e
 6516 16f7 D1050000 		.4byte	.LASF284
 6517 16fb 01       		.byte	0x1
 6518 16fc 4D       		.byte	0x4d
ARM GAS  C:\Users\IDONNO~1\AppData\Local\Temp\ccY27Fyg.s 			page 116


 6519 16fd 490D0000 		.4byte	0xd49
 6520 1701 2F       		.uleb128 0x2f
 6521 1702 1A000000 		.4byte	.LVL48
 6522 1706 24140000 		.4byte	0x1424
 6523 170a 30       		.uleb128 0x30
 6524 170b 01       		.uleb128 0x1
 6525 170c 51       		.byte	0x51
 6526 170d 02       		.uleb128 0x2
 6527 170e 91       		.byte	0x91
 6528 170f 64       		.sleb128 -28
 6529 1710 00       		.byte	0
 6530 1711 00       		.byte	0
 6531 1712 3F       		.uleb128 0x3f
 6532 1713 64110000 		.4byte	0x1164
 6533 1717 00000000 		.4byte	.LFB409
 6534 171b 8C000000 		.4byte	.LFE409-.LFB409
 6535 171f 01       		.uleb128 0x1
 6536 1720 9C       		.byte	0x9c
 6537 1721 CC170000 		.4byte	0x17cc
 6538 1725 2C       		.uleb128 0x2c
 6539 1726 70110000 		.4byte	0x1170
 6540 172a DE040000 		.4byte	.LLST38
 6541 172e 40       		.uleb128 0x40
 6542 172f 7B110000 		.4byte	0x117b
 6543 1733 00       		.byte	0
 6544 1734 41       		.uleb128 0x41
 6545 1735 86110000 		.4byte	0x1186
 6546 1739 38       		.uleb128 0x38
 6547 173a 91110000 		.4byte	0x1191
 6548 173e 02       		.uleb128 0x2
 6549 173f 91       		.byte	0x91
 6550 1740 48       		.sleb128 -56
 6551 1741 37       		.uleb128 0x37
 6552 1742 81160000 		.4byte	0x1681
 6553 1746 04000000 		.4byte	.LBB205
 6554 174a 18010000 		.4byte	.Ldebug_ranges0+0x118
 6555 174e 01       		.byte	0x1
 6556 174f 63       		.byte	0x63
 6557 1750 8C170000 		.4byte	0x178c
 6558 1754 2C       		.uleb128 0x2c
 6559 1755 98160000 		.4byte	0x1698
 6560 1759 0A050000 		.4byte	.LLST39
 6561 175d 2C       		.uleb128 0x2c
 6562 175e 8D160000 		.4byte	0x168d
 6563 1762 1D050000 		.4byte	.LLST40
 6564 1766 2D       		.uleb128 0x2d
 6565 1767 18010000 		.4byte	.Ldebug_ranges0+0x118
 6566 176b 2E       		.uleb128 0x2e
 6567 176c A3160000 		.4byte	0x16a3
 6568 1770 30050000 		.4byte	.LLST41
 6569 1774 2F       		.uleb128 0x2f
 6570 1775 26000000 		.4byte	.LVL54
 6571 1779 062C0000 		.4byte	0x2c06
 6572 177d 30       		.uleb128 0x30
 6573 177e 01       		.uleb128 0x1
 6574 177f 50       		.byte	0x50
 6575 1780 02       		.uleb128 0x2
ARM GAS  C:\Users\IDONNO~1\AppData\Local\Temp\ccY27Fyg.s 			page 117


 6576 1781 7D       		.byte	0x7d
 6577 1782 00       		.sleb128 0
 6578 1783 30       		.uleb128 0x30
 6579 1784 01       		.uleb128 0x1
 6580 1785 51       		.byte	0x51
 6581 1786 02       		.uleb128 0x2
 6582 1787 75       		.byte	0x75
 6583 1788 08       		.sleb128 8
 6584 1789 00       		.byte	0
 6585 178a 00       		.byte	0
 6586 178b 00       		.byte	0
 6587 178c 3D       		.uleb128 0x3d
 6588 178d 32000000 		.4byte	.LBB211
 6589 1791 4E000000 		.4byte	.LBE211-.LBB211
 6590 1795 2C       		.uleb128 0x2c
 6591 1796 70110000 		.4byte	0x1170
 6592 179a 7B050000 		.4byte	.LLST42
 6593 179e 3D       		.uleb128 0x3d
 6594 179f 32000000 		.4byte	.LBB212
 6595 17a3 4E000000 		.4byte	.LBE212-.LBB212
 6596 17a7 41       		.uleb128 0x41
 6597 17a8 7B110000 		.4byte	0x117b
 6598 17ac 38       		.uleb128 0x38
 6599 17ad 86110000 		.4byte	0x1186
 6600 17b1 02       		.uleb128 0x2
 6601 17b2 91       		.byte	0x91
 6602 17b3 54       		.sleb128 -44
 6603 17b4 41       		.uleb128 0x41
 6604 17b5 91110000 		.4byte	0x1191
 6605 17b9 2F       		.uleb128 0x2f
 6606 17ba 80000000 		.4byte	.LVL57
 6607 17be 24140000 		.4byte	0x1424
 6608 17c2 30       		.uleb128 0x30
 6609 17c3 01       		.uleb128 0x1
 6610 17c4 51       		.byte	0x51
 6611 17c5 02       		.uleb128 0x2
 6612 17c6 91       		.byte	0x91
 6613 17c7 54       		.sleb128 -44
 6614 17c8 00       		.byte	0
 6615 17c9 00       		.byte	0
 6616 17ca 00       		.byte	0
 6617 17cb 00       		.byte	0
 6618 17cc 3F       		.uleb128 0x3f
 6619 17cd A3110000 		.4byte	0x11a3
 6620 17d1 00000000 		.4byte	.LFB410
 6621 17d5 78000000 		.4byte	.LFE410-.LFB410
 6622 17d9 01       		.uleb128 0x1
 6623 17da 9C       		.byte	0x9c
 6624 17db A8180000 		.4byte	0x18a8
 6625 17df 2C       		.uleb128 0x2c
 6626 17e0 AF110000 		.4byte	0x11af
 6627 17e4 9C050000 		.4byte	.LLST43
 6628 17e8 40       		.uleb128 0x40
 6629 17e9 BA110000 		.4byte	0x11ba
 6630 17ed 00       		.byte	0
 6631 17ee 41       		.uleb128 0x41
 6632 17ef C5110000 		.4byte	0x11c5
ARM GAS  C:\Users\IDONNO~1\AppData\Local\Temp\ccY27Fyg.s 			page 118


 6633 17f3 38       		.uleb128 0x38
 6634 17f4 D0110000 		.4byte	0x11d0
 6635 17f8 02       		.uleb128 0x2
 6636 17f9 91       		.byte	0x91
 6637 17fa 50       		.sleb128 -48
 6638 17fb 41       		.uleb128 0x41
 6639 17fc DB110000 		.4byte	0x11db
 6640 1800 37       		.uleb128 0x37
 6641 1801 81160000 		.4byte	0x1681
 6642 1805 04000000 		.4byte	.LBB217
 6643 1809 38010000 		.4byte	.Ldebug_ranges0+0x138
 6644 180d 01       		.byte	0x1
 6645 180e 85       		.byte	0x85
 6646 180f 4B180000 		.4byte	0x184b
 6647 1813 2C       		.uleb128 0x2c
 6648 1814 98160000 		.4byte	0x1698
 6649 1818 C8050000 		.4byte	.LLST44
 6650 181c 2C       		.uleb128 0x2c
 6651 181d 8D160000 		.4byte	0x168d
 6652 1821 DB050000 		.4byte	.LLST45
 6653 1825 2D       		.uleb128 0x2d
 6654 1826 38010000 		.4byte	.Ldebug_ranges0+0x138
 6655 182a 2E       		.uleb128 0x2e
 6656 182b A3160000 		.4byte	0x16a3
 6657 182f EE050000 		.4byte	.LLST46
 6658 1833 2F       		.uleb128 0x2f
 6659 1834 26000000 		.4byte	.LVL63
 6660 1838 062C0000 		.4byte	0x2c06
 6661 183c 30       		.uleb128 0x30
 6662 183d 01       		.uleb128 0x1
 6663 183e 50       		.byte	0x50
 6664 183f 02       		.uleb128 0x2
 6665 1840 7D       		.byte	0x7d
 6666 1841 00       		.sleb128 0
 6667 1842 30       		.uleb128 0x30
 6668 1843 01       		.uleb128 0x1
 6669 1844 51       		.byte	0x51
 6670 1845 02       		.uleb128 0x2
 6671 1846 75       		.byte	0x75
 6672 1847 08       		.sleb128 8
 6673 1848 00       		.byte	0
 6674 1849 00       		.byte	0
 6675 184a 00       		.byte	0
 6676 184b 3D       		.uleb128 0x3d
 6677 184c 34000000 		.4byte	.LBB223
 6678 1850 3A000000 		.4byte	.LBE223-.LBB223
 6679 1854 2C       		.uleb128 0x2c
 6680 1855 AF110000 		.4byte	0x11af
 6681 1859 39060000 		.4byte	.LLST47
 6682 185d 3D       		.uleb128 0x3d
 6683 185e 34000000 		.4byte	.LBB224
 6684 1862 3A000000 		.4byte	.LBE224-.LBB224
 6685 1866 41       		.uleb128 0x41
 6686 1867 BA110000 		.4byte	0x11ba
 6687 186b 38       		.uleb128 0x38
 6688 186c C5110000 		.4byte	0x11c5
 6689 1870 02       		.uleb128 0x2
ARM GAS  C:\Users\IDONNO~1\AppData\Local\Temp\ccY27Fyg.s 			page 119


 6690 1871 91       		.byte	0x91
 6691 1872 5C       		.sleb128 -36
 6692 1873 41       		.uleb128 0x41
 6693 1874 D0110000 		.4byte	0x11d0
 6694 1878 2E       		.uleb128 0x2e
 6695 1879 DB110000 		.4byte	0x11db
 6696 187d 5A060000 		.4byte	.LLST48
 6697 1881 42       		.uleb128 0x42
 6698 1882 4E000000 		.4byte	.LVL69
 6699 1886 1A2C0000 		.4byte	0x2c1a
 6700 188a 95180000 		.4byte	0x1895
 6701 188e 30       		.uleb128 0x30
 6702 188f 01       		.uleb128 0x1
 6703 1890 50       		.byte	0x50
 6704 1891 02       		.uleb128 0x2
 6705 1892 75       		.byte	0x75
 6706 1893 00       		.sleb128 0
 6707 1894 00       		.byte	0
 6708 1895 2F       		.uleb128 0x2f
 6709 1896 6E000000 		.4byte	.LVL72
 6710 189a 24140000 		.4byte	0x1424
 6711 189e 30       		.uleb128 0x30
 6712 189f 01       		.uleb128 0x1
 6713 18a0 51       		.byte	0x51
 6714 18a1 02       		.uleb128 0x2
 6715 18a2 91       		.byte	0x91
 6716 18a3 5C       		.sleb128 -36
 6717 18a4 00       		.byte	0
 6718 18a5 00       		.byte	0
 6719 18a6 00       		.byte	0
 6720 18a7 00       		.byte	0
 6721 18a8 1A       		.uleb128 0x1a
 6722 18a9 2A060000 		.4byte	.LASF302
 6723 18ad 07       		.byte	0x7
 6724 18ae E4       		.byte	0xe4
 6725 18af 03       		.byte	0x3
 6726 18b0 D6180000 		.4byte	0x18d6
 6727 18b4 1F       		.uleb128 0x1f
 6728 18b5 6D736700 		.ascii	"msg\000"
 6729 18b9 07       		.byte	0x7
 6730 18ba E4       		.byte	0xe4
 6731 18bb 1B130000 		.4byte	0x131b
 6732 18bf 1B       		.uleb128 0x1b
 6733 18c0 77030000 		.4byte	.LASF303
 6734 18c4 07       		.byte	0x7
 6735 18c5 E4       		.byte	0xe4
 6736 18c6 D6180000 		.4byte	0x18d6
 6737 18ca 1C       		.uleb128 0x1c
 6738 18cb 6C656E00 		.ascii	"len\000"
 6739 18cf 07       		.byte	0x7
 6740 18d0 EA       		.byte	0xea
 6741 18d1 AD000000 		.4byte	0xad
 6742 18d5 00       		.byte	0
 6743 18d6 0A       		.uleb128 0xa
 6744 18d7 04       		.byte	0x4
 6745 18d8 E50D0000 		.4byte	0xde5
 6746 18dc 33       		.uleb128 0x33
ARM GAS  C:\Users\IDONNO~1\AppData\Local\Temp\ccY27Fyg.s 			page 120


 6747 18dd 3D080000 		.4byte	.LASF304
 6748 18e1 01       		.byte	0x1
 6749 18e2 BB       		.byte	0xbb
 6750 18e3 00000000 		.4byte	.LFB412
 6751 18e7 60000000 		.4byte	.LFE412-.LFB412
 6752 18eb 01       		.uleb128 0x1
 6753 18ec 9C       		.byte	0x9c
 6754 18ed E9190000 		.4byte	0x19e9
 6755 18f1 35       		.uleb128 0x35
 6756 18f2 7F0C0000 		.4byte	.LASF45
 6757 18f6 01       		.byte	0x1
 6758 18f7 BB       		.byte	0xbb
 6759 18f8 9D110000 		.4byte	0x119d
 6760 18fc 90060000 		.4byte	.LLST49
 6761 1900 43       		.uleb128 0x43
 6762 1901 090A0000 		.4byte	.LASF219
 6763 1905 01       		.byte	0x1
 6764 1906 BD       		.byte	0xbd
 6765 1907 590F0000 		.4byte	0xf59
 6766 190b 00       		.byte	0
 6767 190c 36       		.uleb128 0x36
 6768 190d 990F0000 		.4byte	.LASF283
 6769 1911 01       		.byte	0x1
 6770 1912 BE       		.byte	0xbe
 6771 1913 190D0000 		.4byte	0xd19
 6772 1917 03       		.uleb128 0x3
 6773 1918 91       		.byte	0x91
 6774 1919 887E     		.sleb128 -248
 6775 191b 36       		.uleb128 0x36
 6776 191c D1050000 		.4byte	.LASF284
 6777 1920 01       		.byte	0x1
 6778 1921 BF       		.byte	0xbf
 6779 1922 B50D0000 		.4byte	0xdb5
 6780 1926 03       		.uleb128 0x3
 6781 1927 91       		.byte	0x91
 6782 1928 FC7D     		.sleb128 -260
 6783 192a 36       		.uleb128 0x36
 6784 192b A60D0000 		.4byte	.LASF305
 6785 192f 01       		.byte	0x1
 6786 1930 C1       		.byte	0xc1
 6787 1931 F20A0000 		.4byte	0xaf2
 6788 1935 03       		.uleb128 0x3
 6789 1936 91       		.byte	0x91
 6790 1937 9C7E     		.sleb128 -228
 6791 1939 3C       		.uleb128 0x3c
 6792 193a A8180000 		.4byte	0x18a8
 6793 193e 16000000 		.4byte	.LBB227
 6794 1942 18000000 		.4byte	.LBE227-.LBB227
 6795 1946 01       		.byte	0x1
 6796 1947 C5       		.byte	0xc5
 6797 1948 89190000 		.4byte	0x1989
 6798 194c 2C       		.uleb128 0x2c
 6799 194d BF180000 		.4byte	0x18bf
 6800 1951 AE060000 		.4byte	.LLST50
 6801 1955 2C       		.uleb128 0x2c
 6802 1956 B4180000 		.4byte	0x18b4
 6803 195a DD060000 		.4byte	.LLST51
ARM GAS  C:\Users\IDONNO~1\AppData\Local\Temp\ccY27Fyg.s 			page 121


 6804 195e 3D       		.uleb128 0x3d
 6805 195f 16000000 		.4byte	.LBB228
 6806 1963 18000000 		.4byte	.LBE228-.LBB228
 6807 1967 2E       		.uleb128 0x2e
 6808 1968 CA180000 		.4byte	0x18ca
 6809 196c F0060000 		.4byte	.LLST52
 6810 1970 2F       		.uleb128 0x2f
 6811 1971 2E000000 		.4byte	.LVL81
 6812 1975 062C0000 		.4byte	0x2c06
 6813 1979 30       		.uleb128 0x30
 6814 197a 01       		.uleb128 0x1
 6815 197b 50       		.byte	0x50
 6816 197c 03       		.uleb128 0x3
 6817 197d 91       		.byte	0x91
 6818 197e FC7D     		.sleb128 -260
 6819 1980 30       		.uleb128 0x30
 6820 1981 01       		.uleb128 0x1
 6821 1982 51       		.byte	0x51
 6822 1983 02       		.uleb128 0x2
 6823 1984 74       		.byte	0x74
 6824 1985 08       		.sleb128 8
 6825 1986 00       		.byte	0
 6826 1987 00       		.byte	0
 6827 1988 00       		.byte	0
 6828 1989 44       		.uleb128 0x44
 6829 198a 0A000000 		.4byte	.LVL75
 6830 198e 252C0000 		.4byte	0x2c25
 6831 1992 42       		.uleb128 0x42
 6832 1993 14000000 		.4byte	.LVL76
 6833 1997 062C0000 		.4byte	0x2c06
 6834 199b AD190000 		.4byte	0x19ad
 6835 199f 30       		.uleb128 0x30
 6836 19a0 01       		.uleb128 0x1
 6837 19a1 50       		.byte	0x50
 6838 19a2 03       		.uleb128 0x3
 6839 19a3 91       		.byte	0x91
 6840 19a4 9C7E     		.sleb128 -228
 6841 19a6 30       		.uleb128 0x30
 6842 19a7 01       		.uleb128 0x1
 6843 19a8 52       		.byte	0x52
 6844 19a9 02       		.uleb128 0x2
 6845 19aa 08       		.byte	0x8
 6846 19ab D4       		.byte	0xd4
 6847 19ac 00       		.byte	0
 6848 19ad 42       		.uleb128 0x42
 6849 19ae 3C000000 		.4byte	.LVL82
 6850 19b2 302C0000 		.4byte	0x2c30
 6851 19b6 C2190000 		.4byte	0x19c2
 6852 19ba 30       		.uleb128 0x30
 6853 19bb 01       		.uleb128 0x1
 6854 19bc 50       		.byte	0x50
 6855 19bd 03       		.uleb128 0x3
 6856 19be 91       		.byte	0x91
 6857 19bf 9C7E     		.sleb128 -228
 6858 19c1 00       		.byte	0
 6859 19c2 42       		.uleb128 0x42
 6860 19c3 44000000 		.4byte	.LVL83
ARM GAS  C:\Users\IDONNO~1\AppData\Local\Temp\ccY27Fyg.s 			page 122


 6861 19c7 3B2C0000 		.4byte	0x2c3b
 6862 19cb D7190000 		.4byte	0x19d7
 6863 19cf 30       		.uleb128 0x30
 6864 19d0 01       		.uleb128 0x1
 6865 19d1 50       		.byte	0x50
 6866 19d2 03       		.uleb128 0x3
 6867 19d3 0A       		.byte	0xa
 6868 19d4 D007     		.2byte	0x7d0
 6869 19d6 00       		.byte	0
 6870 19d7 2F       		.uleb128 0x2f
 6871 19d8 5E000000 		.4byte	.LVL85
 6872 19dc 24140000 		.4byte	0x1424
 6873 19e0 30       		.uleb128 0x30
 6874 19e1 01       		.uleb128 0x1
 6875 19e2 51       		.byte	0x51
 6876 19e3 03       		.uleb128 0x3
 6877 19e4 91       		.byte	0x91
 6878 19e5 887E     		.sleb128 -248
 6879 19e7 00       		.byte	0
 6880 19e8 00       		.byte	0
 6881 19e9 1A       		.uleb128 0x1a
 6882 19ea 42120000 		.4byte	.LASF306
 6883 19ee 08       		.byte	0x8
 6884 19ef E4       		.byte	0xe4
 6885 19f0 03       		.byte	0x3
 6886 19f1 171A0000 		.4byte	0x1a17
 6887 19f5 1F       		.uleb128 0x1f
 6888 19f6 6D736700 		.ascii	"msg\000"
 6889 19fa 08       		.byte	0x8
 6890 19fb E4       		.byte	0xe4
 6891 19fc 1B130000 		.4byte	0x131b
 6892 1a00 1B       		.uleb128 0x1b
 6893 1a01 A4030000 		.4byte	.LASF307
 6894 1a05 08       		.byte	0x8
 6895 1a06 E4       		.byte	0xe4
 6896 1a07 171A0000 		.4byte	0x1a17
 6897 1a0b 1C       		.uleb128 0x1c
 6898 1a0c 6C656E00 		.ascii	"len\000"
 6899 1a10 08       		.byte	0x8
 6900 1a11 EA       		.byte	0xea
 6901 1a12 AD000000 		.4byte	0xad
 6902 1a16 00       		.byte	0
 6903 1a17 0A       		.uleb128 0xa
 6904 1a18 04       		.byte	0x4
 6905 1a19 1D0F0000 		.4byte	0xf1d
 6906 1a1d 45       		.uleb128 0x45
 6907 1a1e 74050000 		.4byte	.LASF322
 6908 1a22 01       		.byte	0x1
 6909 1a23 DB       		.byte	0xdb
 6910 1a24 25000000 		.4byte	0x25
 6911 1a28 00000000 		.4byte	.LFB413
 6912 1a2c 5A000000 		.4byte	.LFE413-.LFB413
 6913 1a30 01       		.uleb128 0x1
 6914 1a31 9C       		.byte	0x9c
 6915 1a32 F81A0000 		.4byte	0x1af8
 6916 1a36 35       		.uleb128 0x35
 6917 1a37 7F0C0000 		.4byte	.LASF45
ARM GAS  C:\Users\IDONNO~1\AppData\Local\Temp\ccY27Fyg.s 			page 123


 6918 1a3b 01       		.byte	0x1
 6919 1a3c DB       		.byte	0xdb
 6920 1a3d 9D110000 		.4byte	0x119d
 6921 1a41 3B070000 		.4byte	.LLST53
 6922 1a45 43       		.uleb128 0x43
 6923 1a46 090A0000 		.4byte	.LASF219
 6924 1a4a 01       		.byte	0x1
 6925 1a4b DD       		.byte	0xdd
 6926 1a4c 590F0000 		.4byte	0xf59
 6927 1a50 00       		.byte	0
 6928 1a51 36       		.uleb128 0x36
 6929 1a52 990F0000 		.4byte	.LASF283
 6930 1a56 01       		.byte	0x1
 6931 1a57 DE       		.byte	0xde
 6932 1a58 190D0000 		.4byte	0xd19
 6933 1a5c 02       		.uleb128 0x2
 6934 1a5d 91       		.byte	0x91
 6935 1a5e 5C       		.sleb128 -36
 6936 1a5f 36       		.uleb128 0x36
 6937 1a60 D1050000 		.4byte	.LASF284
 6938 1a64 01       		.byte	0x1
 6939 1a65 DF       		.byte	0xdf
 6940 1a66 1D0F0000 		.4byte	0xf1d
 6941 1a6a 02       		.uleb128 0x2
 6942 1a6b 91       		.byte	0x91
 6943 1a6c 58       		.sleb128 -40
 6944 1a6d 46       		.uleb128 0x46
 6945 1a6e 380E0000 		.4byte	.LASF308
 6946 1a72 01       		.byte	0x1
 6947 1a73 EC       		.byte	0xec
 6948 1a74 25000000 		.4byte	0x25
 6949 1a78 7E1A0000 		.4byte	0x1a7e
 6950 1a7c 47       		.uleb128 0x47
 6951 1a7d 00       		.byte	0
 6952 1a7e 37       		.uleb128 0x37
 6953 1a7f E9190000 		.4byte	0x19e9
 6954 1a83 04000000 		.4byte	.LBB231
 6955 1a87 58010000 		.4byte	.Ldebug_ranges0+0x158
 6956 1a8b 01       		.byte	0x1
 6957 1a8c E1       		.byte	0xe1
 6958 1a8d C91A0000 		.4byte	0x1ac9
 6959 1a91 2C       		.uleb128 0x2c
 6960 1a92 001A0000 		.4byte	0x1a00
 6961 1a96 59070000 		.4byte	.LLST54
 6962 1a9a 2C       		.uleb128 0x2c
 6963 1a9b F5190000 		.4byte	0x19f5
 6964 1a9f 6C070000 		.4byte	.LLST55
 6965 1aa3 2D       		.uleb128 0x2d
 6966 1aa4 58010000 		.4byte	.Ldebug_ranges0+0x158
 6967 1aa8 2E       		.uleb128 0x2e
 6968 1aa9 0B1A0000 		.4byte	0x1a0b
 6969 1aad 7F070000 		.4byte	.LLST56
 6970 1ab1 2F       		.uleb128 0x2f
 6971 1ab2 24000000 		.4byte	.LVL91
 6972 1ab6 062C0000 		.4byte	0x2c06
 6973 1aba 30       		.uleb128 0x30
 6974 1abb 01       		.uleb128 0x1
ARM GAS  C:\Users\IDONNO~1\AppData\Local\Temp\ccY27Fyg.s 			page 124


 6975 1abc 50       		.byte	0x50
 6976 1abd 02       		.uleb128 0x2
 6977 1abe 7D       		.byte	0x7d
 6978 1abf 00       		.sleb128 0
 6979 1ac0 30       		.uleb128 0x30
 6980 1ac1 01       		.uleb128 0x1
 6981 1ac2 51       		.byte	0x51
 6982 1ac3 02       		.uleb128 0x2
 6983 1ac4 75       		.byte	0x75
 6984 1ac5 08       		.sleb128 8
 6985 1ac6 00       		.byte	0
 6986 1ac7 00       		.byte	0
 6987 1ac8 00       		.byte	0
 6988 1ac9 44       		.uleb128 0x44
 6989 1aca 34000000 		.4byte	.LVL92
 6990 1ace 462C0000 		.4byte	0x2c46
 6991 1ad2 42       		.uleb128 0x42
 6992 1ad3 3C000000 		.4byte	.LVL93
 6993 1ad7 3B2C0000 		.4byte	0x2c3b
 6994 1adb E71A0000 		.4byte	0x1ae7
 6995 1adf 30       		.uleb128 0x30
 6996 1ae0 01       		.uleb128 0x1
 6997 1ae1 50       		.byte	0x50
 6998 1ae2 03       		.uleb128 0x3
 6999 1ae3 0A       		.byte	0xa
 7000 1ae4 D007     		.2byte	0x7d0
 7001 1ae6 00       		.byte	0
 7002 1ae7 2F       		.uleb128 0x2f
 7003 1ae8 58000000 		.4byte	.LVL95
 7004 1aec 24140000 		.4byte	0x1424
 7005 1af0 30       		.uleb128 0x30
 7006 1af1 01       		.uleb128 0x1
 7007 1af2 51       		.byte	0x51
 7008 1af3 02       		.uleb128 0x2
 7009 1af4 91       		.byte	0x91
 7010 1af5 5C       		.sleb128 -36
 7011 1af6 00       		.byte	0
 7012 1af7 00       		.byte	0
 7013 1af8 48       		.uleb128 0x48
 7014 1af9 34050000 		.4byte	.LASF309
 7015 1afd 09       		.byte	0x9
 7016 1afe 9402     		.2byte	0x294
 7017 1b00 03       		.byte	0x3
 7018 1b01 2A1B0000 		.4byte	0x1b2a
 7019 1b05 22       		.uleb128 0x22
 7020 1b06 6D736700 		.ascii	"msg\000"
 7021 1b0a 09       		.byte	0x9
 7022 1b0b 9402     		.2byte	0x294
 7023 1b0d 1B130000 		.4byte	0x131b
 7024 1b11 21       		.uleb128 0x21
 7025 1b12 7E0B0000 		.4byte	.LASF310
 7026 1b16 09       		.byte	0x9
 7027 1b17 9402     		.2byte	0x294
 7028 1b19 2A1B0000 		.4byte	0x1b2a
 7029 1b1d 2A       		.uleb128 0x2a
 7030 1b1e 6C656E00 		.ascii	"len\000"
 7031 1b22 09       		.byte	0x9
ARM GAS  C:\Users\IDONNO~1\AppData\Local\Temp\ccY27Fyg.s 			page 125


 7032 1b23 AC02     		.2byte	0x2ac
 7033 1b25 AD000000 		.4byte	0xad
 7034 1b29 00       		.byte	0
 7035 1b2a 0A       		.uleb128 0xa
 7036 1b2b 04       		.byte	0x4
 7037 1b2c ED0E0000 		.4byte	0xeed
 7038 1b30 33       		.uleb128 0x33
 7039 1b31 55060000 		.4byte	.LASF311
 7040 1b35 01       		.byte	0x1
 7041 1b36 F4       		.byte	0xf4
 7042 1b37 00000000 		.4byte	.LFB414
 7043 1b3b 92010000 		.4byte	.LFE414-.LFB414
 7044 1b3f 01       		.uleb128 0x1
 7045 1b40 9C       		.byte	0x9c
 7046 1b41 5E1C0000 		.4byte	0x1c5e
 7047 1b45 35       		.uleb128 0x35
 7048 1b46 7F0C0000 		.4byte	.LASF45
 7049 1b4a 01       		.byte	0x1
 7050 1b4b F4       		.byte	0xf4
 7051 1b4c 9D110000 		.4byte	0x119d
 7052 1b50 CA070000 		.4byte	.LLST57
 7053 1b54 43       		.uleb128 0x43
 7054 1b55 090A0000 		.4byte	.LASF219
 7055 1b59 01       		.byte	0x1
 7056 1b5a F6       		.byte	0xf6
 7057 1b5b 590F0000 		.4byte	0xf59
 7058 1b5f 00       		.byte	0
 7059 1b60 36       		.uleb128 0x36
 7060 1b61 990F0000 		.4byte	.LASF283
 7061 1b65 01       		.byte	0x1
 7062 1b66 F7       		.byte	0xf7
 7063 1b67 190D0000 		.4byte	0xd19
 7064 1b6b 03       		.uleb128 0x3
 7065 1b6c 91       		.byte	0x91
 7066 1b6d E07D     		.sleb128 -288
 7067 1b6f 36       		.uleb128 0x36
 7068 1b70 D1050000 		.4byte	.LASF284
 7069 1b74 01       		.byte	0x1
 7070 1b75 F8       		.byte	0xf8
 7071 1b76 ED0E0000 		.4byte	0xeed
 7072 1b7a 03       		.uleb128 0x3
 7073 1b7b 91       		.byte	0x91
 7074 1b7c F47D     		.sleb128 -268
 7075 1b7e 36       		.uleb128 0x36
 7076 1b7f A60D0000 		.4byte	.LASF305
 7077 1b83 01       		.byte	0x1
 7078 1b84 F9       		.byte	0xf9
 7079 1b85 F20A0000 		.4byte	0xaf2
 7080 1b89 03       		.uleb128 0x3
 7081 1b8a 91       		.byte	0x91
 7082 1b8b 9C7E     		.sleb128 -228
 7083 1b8d 37       		.uleb128 0x37
 7084 1b8e F81A0000 		.4byte	0x1af8
 7085 1b92 04000000 		.4byte	.LBB239
 7086 1b96 78010000 		.4byte	.Ldebug_ranges0+0x178
 7087 1b9a 01       		.byte	0x1
 7088 1b9b FB       		.byte	0xfb
ARM GAS  C:\Users\IDONNO~1\AppData\Local\Temp\ccY27Fyg.s 			page 126


 7089 1b9c FF1B0000 		.4byte	0x1bff
 7090 1ba0 2C       		.uleb128 0x2c
 7091 1ba1 111B0000 		.4byte	0x1b11
 7092 1ba5 E8070000 		.4byte	.LLST58
 7093 1ba9 2C       		.uleb128 0x2c
 7094 1baa 051B0000 		.4byte	0x1b05
 7095 1bae 30080000 		.4byte	.LLST59
 7096 1bb2 2D       		.uleb128 0x2d
 7097 1bb3 78010000 		.4byte	.Ldebug_ranges0+0x178
 7098 1bb7 2E       		.uleb128 0x2e
 7099 1bb8 1D1B0000 		.4byte	0x1b1d
 7100 1bbc 43080000 		.4byte	.LLST60
 7101 1bc0 42       		.uleb128 0x42
 7102 1bc1 1A000000 		.4byte	.LVL101
 7103 1bc5 512C0000 		.4byte	0x2c51
 7104 1bc9 E01B0000 		.4byte	0x1be0
 7105 1bcd 30       		.uleb128 0x30
 7106 1bce 01       		.uleb128 0x1
 7107 1bcf 50       		.byte	0x50
 7108 1bd0 03       		.uleb128 0x3
 7109 1bd1 91       		.byte	0x91
 7110 1bd2 F47D     		.sleb128 -268
 7111 1bd4 30       		.uleb128 0x30
 7112 1bd5 01       		.uleb128 0x1
 7113 1bd6 51       		.byte	0x51
 7114 1bd7 01       		.uleb128 0x1
 7115 1bd8 30       		.byte	0x30
 7116 1bd9 30       		.uleb128 0x30
 7117 1bda 01       		.uleb128 0x1
 7118 1bdb 52       		.byte	0x52
 7119 1bdc 02       		.uleb128 0x2
 7120 1bdd 08       		.byte	0x8
 7121 1bde 26       		.byte	0x26
 7122 1bdf 00       		.byte	0
 7123 1be0 2F       		.uleb128 0x2f
 7124 1be1 26000000 		.4byte	.LVL103
 7125 1be5 062C0000 		.4byte	0x2c06
 7126 1be9 30       		.uleb128 0x30
 7127 1bea 01       		.uleb128 0x1
 7128 1beb 50       		.byte	0x50
 7129 1bec 03       		.uleb128 0x3
 7130 1bed 91       		.byte	0x91
 7131 1bee F47D     		.sleb128 -268
 7132 1bf0 30       		.uleb128 0x30
 7133 1bf1 01       		.uleb128 0x1
 7134 1bf2 51       		.byte	0x51
 7135 1bf3 02       		.uleb128 0x2
 7136 1bf4 75       		.byte	0x75
 7137 1bf5 08       		.sleb128 8
 7138 1bf6 30       		.uleb128 0x30
 7139 1bf7 01       		.uleb128 0x1
 7140 1bf8 52       		.byte	0x52
 7141 1bf9 02       		.uleb128 0x2
 7142 1bfa 74       		.byte	0x74
 7143 1bfb 00       		.sleb128 0
 7144 1bfc 00       		.byte	0
 7145 1bfd 00       		.byte	0
ARM GAS  C:\Users\IDONNO~1\AppData\Local\Temp\ccY27Fyg.s 			page 127


 7146 1bfe 00       		.byte	0
 7147 1bff 44       		.uleb128 0x44
 7148 1c00 34000000 		.4byte	.LVL104
 7149 1c04 252C0000 		.4byte	0x2c25
 7150 1c08 42       		.uleb128 0x42
 7151 1c09 3E000000 		.4byte	.LVL105
 7152 1c0d 062C0000 		.4byte	0x2c06
 7153 1c11 231C0000 		.4byte	0x1c23
 7154 1c15 30       		.uleb128 0x30
 7155 1c16 01       		.uleb128 0x1
 7156 1c17 50       		.byte	0x50
 7157 1c18 03       		.uleb128 0x3
 7158 1c19 91       		.byte	0x91
 7159 1c1a 9C7E     		.sleb128 -228
 7160 1c1c 30       		.uleb128 0x30
 7161 1c1d 01       		.uleb128 0x1
 7162 1c1e 52       		.byte	0x52
 7163 1c1f 02       		.uleb128 0x2
 7164 1c20 08       		.byte	0x8
 7165 1c21 D4       		.byte	0xd4
 7166 1c22 00       		.byte	0
 7167 1c23 42       		.uleb128 0x42
 7168 1c24 6C010000 		.4byte	.LVL106
 7169 1c28 5A2C0000 		.4byte	0x2c5a
 7170 1c2c 381C0000 		.4byte	0x1c38
 7171 1c30 30       		.uleb128 0x30
 7172 1c31 01       		.uleb128 0x1
 7173 1c32 50       		.byte	0x50
 7174 1c33 03       		.uleb128 0x3
 7175 1c34 91       		.byte	0x91
 7176 1c35 9C7E     		.sleb128 -228
 7177 1c37 00       		.byte	0
 7178 1c38 42       		.uleb128 0x42
 7179 1c39 74010000 		.4byte	.LVL107
 7180 1c3d 3B2C0000 		.4byte	0x2c3b
 7181 1c41 4D1C0000 		.4byte	0x1c4d
 7182 1c45 30       		.uleb128 0x30
 7183 1c46 01       		.uleb128 0x1
 7184 1c47 50       		.byte	0x50
 7185 1c48 03       		.uleb128 0x3
 7186 1c49 0A       		.byte	0xa
 7187 1c4a D007     		.2byte	0x7d0
 7188 1c4c 00       		.byte	0
 7189 1c4d 2F       		.uleb128 0x2f
 7190 1c4e 90010000 		.4byte	.LVL109
 7191 1c52 24140000 		.4byte	0x1424
 7192 1c56 30       		.uleb128 0x30
 7193 1c57 01       		.uleb128 0x1
 7194 1c58 51       		.byte	0x51
 7195 1c59 02       		.uleb128 0x2
 7196 1c5a 7D       		.byte	0x7d
 7197 1c5b 00       		.sleb128 0
 7198 1c5c 00       		.byte	0
 7199 1c5d 00       		.byte	0
 7200 1c5e 3F       		.uleb128 0x3f
 7201 1c5f E5110000 		.4byte	0x11e5
 7202 1c63 00000000 		.4byte	.LFB415
ARM GAS  C:\Users\IDONNO~1\AppData\Local\Temp\ccY27Fyg.s 			page 128


 7203 1c67 4C000000 		.4byte	.LFE415-.LFB415
 7204 1c6b 01       		.uleb128 0x1
 7205 1c6c 9C       		.byte	0x9c
 7206 1c6d 171D0000 		.4byte	0x1d17
 7207 1c71 2C       		.uleb128 0x2c
 7208 1c72 F2110000 		.4byte	0x11f2
 7209 1c76 56080000 		.4byte	.LLST61
 7210 1c7a 40       		.uleb128 0x40
 7211 1c7b FE110000 		.4byte	0x11fe
 7212 1c7f 00       		.byte	0
 7213 1c80 41       		.uleb128 0x41
 7214 1c81 0A120000 		.4byte	0x120a
 7215 1c85 38       		.uleb128 0x38
 7216 1c86 16120000 		.4byte	0x1216
 7217 1c8a 02       		.uleb128 0x2
 7218 1c8b 91       		.byte	0x91
 7219 1c8c 50       		.sleb128 -48
 7220 1c8d 2B       		.uleb128 0x2b
 7221 1c8e 81160000 		.4byte	0x1681
 7222 1c92 04000000 		.4byte	.LBB249
 7223 1c96 98010000 		.4byte	.Ldebug_ranges0+0x198
 7224 1c9a 01       		.byte	0x1
 7225 1c9b 2901     		.2byte	0x129
 7226 1c9d D91C0000 		.4byte	0x1cd9
 7227 1ca1 2C       		.uleb128 0x2c
 7228 1ca2 98160000 		.4byte	0x1698
 7229 1ca6 74080000 		.4byte	.LLST62
 7230 1caa 2C       		.uleb128 0x2c
 7231 1cab 8D160000 		.4byte	0x168d
 7232 1caf 87080000 		.4byte	.LLST63
 7233 1cb3 2D       		.uleb128 0x2d
 7234 1cb4 98010000 		.4byte	.Ldebug_ranges0+0x198
 7235 1cb8 2E       		.uleb128 0x2e
 7236 1cb9 A3160000 		.4byte	0x16a3
 7237 1cbd 9A080000 		.4byte	.LLST64
 7238 1cc1 2F       		.uleb128 0x2f
 7239 1cc2 26000000 		.4byte	.LVL115
 7240 1cc6 062C0000 		.4byte	0x2c06
 7241 1cca 30       		.uleb128 0x30
 7242 1ccb 01       		.uleb128 0x1
 7243 1ccc 50       		.byte	0x50
 7244 1ccd 02       		.uleb128 0x2
 7245 1cce 7D       		.byte	0x7d
 7246 1ccf 00       		.sleb128 0
 7247 1cd0 30       		.uleb128 0x30
 7248 1cd1 01       		.uleb128 0x1
 7249 1cd2 51       		.byte	0x51
 7250 1cd3 02       		.uleb128 0x2
 7251 1cd4 75       		.byte	0x75
 7252 1cd5 08       		.sleb128 8
 7253 1cd6 00       		.byte	0
 7254 1cd7 00       		.byte	0
 7255 1cd8 00       		.byte	0
 7256 1cd9 3D       		.uleb128 0x3d
 7257 1cda 32000000 		.4byte	.LBB255
 7258 1cde 16000000 		.4byte	.LBE255-.LBB255
 7259 1ce2 3E       		.uleb128 0x3e
ARM GAS  C:\Users\IDONNO~1\AppData\Local\Temp\ccY27Fyg.s 			page 129


 7260 1ce3 F2110000 		.4byte	0x11f2
 7261 1ce7 01       		.uleb128 0x1
 7262 1ce8 56       		.byte	0x56
 7263 1ce9 3D       		.uleb128 0x3d
 7264 1cea 32000000 		.4byte	.LBB256
 7265 1cee 16000000 		.4byte	.LBE256-.LBB256
 7266 1cf2 41       		.uleb128 0x41
 7267 1cf3 FE110000 		.4byte	0x11fe
 7268 1cf7 38       		.uleb128 0x38
 7269 1cf8 0A120000 		.4byte	0x120a
 7270 1cfc 02       		.uleb128 0x2
 7271 1cfd 91       		.byte	0x91
 7272 1cfe 5C       		.sleb128 -36
 7273 1cff 41       		.uleb128 0x41
 7274 1d00 16120000 		.4byte	0x1216
 7275 1d04 2F       		.uleb128 0x2f
 7276 1d05 48000000 		.4byte	.LVL117
 7277 1d09 24140000 		.4byte	0x1424
 7278 1d0d 30       		.uleb128 0x30
 7279 1d0e 01       		.uleb128 0x1
 7280 1d0f 51       		.byte	0x51
 7281 1d10 02       		.uleb128 0x2
 7282 1d11 91       		.byte	0x91
 7283 1d12 5C       		.sleb128 -36
 7284 1d13 00       		.byte	0
 7285 1d14 00       		.byte	0
 7286 1d15 00       		.byte	0
 7287 1d16 00       		.byte	0
 7288 1d17 26       		.uleb128 0x26
 7289 1d18 55010000 		.4byte	.LASF312
 7290 1d1c 01       		.byte	0x1
 7291 1d1d 3601     		.2byte	0x136
 7292 1d1f 00000000 		.4byte	.LFB416
 7293 1d23 F0000000 		.4byte	.LFE416-.LFB416
 7294 1d27 01       		.uleb128 0x1
 7295 1d28 9C       		.byte	0x9c
 7296 1d29 AF1F0000 		.4byte	0x1faf
 7297 1d2d 27       		.uleb128 0x27
 7298 1d2e 636800   		.ascii	"ch\000"
 7299 1d31 01       		.byte	0x1
 7300 1d32 3601     		.2byte	0x136
 7301 1d34 AD000000 		.4byte	0xad
 7302 1d38 E5080000 		.4byte	.LLST65
 7303 1d3c 28       		.uleb128 0x28
 7304 1d3d 31090000 		.4byte	.LASF216
 7305 1d41 01       		.byte	0x1
 7306 1d42 3601     		.2byte	0x136
 7307 1d44 62070000 		.4byte	0x762
 7308 1d48 06090000 		.4byte	.LLST66
 7309 1d4c 49       		.uleb128 0x49
 7310 1d4d EE0B0000 		.4byte	.LASF298
 7311 1d51 01       		.byte	0x1
 7312 1d52 3801     		.2byte	0x138
 7313 1d54 7B0B0000 		.4byte	0xb7b
 7314 1d58 03       		.uleb128 0x3
 7315 1d59 91       		.byte	0x91
 7316 1d5a E07D     		.sleb128 -288
ARM GAS  C:\Users\IDONNO~1\AppData\Local\Temp\ccY27Fyg.s 			page 130


 7317 1d5c 2B       		.uleb128 0x2b
 7318 1d5d 97120000 		.4byte	0x1297
 7319 1d61 06000000 		.4byte	.LBB278
 7320 1d65 B8010000 		.4byte	.Ldebug_ranges0+0x1b8
 7321 1d69 01       		.byte	0x1
 7322 1d6a 3A01     		.2byte	0x13a
 7323 1d6c 9D1F0000 		.4byte	0x1f9d
 7324 1d70 2C       		.uleb128 0x2c
 7325 1d71 A7120000 		.4byte	0x12a7
 7326 1d75 40090000 		.4byte	.LLST67
 7327 1d79 2C       		.uleb128 0x2c
 7328 1d7a B2120000 		.4byte	0x12b2
 7329 1d7e 40090000 		.4byte	.LLST67
 7330 1d82 2C       		.uleb128 0x2c
 7331 1d83 D3120000 		.4byte	0x12d3
 7332 1d87 60090000 		.4byte	.LLST69
 7333 1d8b 2C       		.uleb128 0x2c
 7334 1d8c C8120000 		.4byte	0x12c8
 7335 1d90 9A090000 		.4byte	.LLST70
 7336 1d94 2C       		.uleb128 0x2c
 7337 1d95 BD120000 		.4byte	0x12bd
 7338 1d99 C9090000 		.4byte	.LLST71
 7339 1d9d 2D       		.uleb128 0x2d
 7340 1d9e B8010000 		.4byte	.Ldebug_ranges0+0x1b8
 7341 1da2 38       		.uleb128 0x38
 7342 1da3 DE120000 		.4byte	0x12de
 7343 1da7 03       		.uleb128 0x3
 7344 1da8 91       		.byte	0x91
 7345 1da9 E47B     		.sleb128 -540
 7346 1dab 37       		.uleb128 0x37
 7347 1dac F1130000 		.4byte	0x13f1
 7348 1db0 06000000 		.4byte	.LBB280
 7349 1db4 E0010000 		.4byte	.Ldebug_ranges0+0x1e0
 7350 1db8 0A       		.byte	0xa
 7351 1db9 57       		.byte	0x57
 7352 1dba 041E0000 		.4byte	0x1e04
 7353 1dbe 2C       		.uleb128 0x2c
 7354 1dbf 13140000 		.4byte	0x1413
 7355 1dc3 E7090000 		.4byte	.LLST72
 7356 1dc7 2C       		.uleb128 0x2c
 7357 1dc8 08140000 		.4byte	0x1408
 7358 1dcc 090A0000 		.4byte	.LLST73
 7359 1dd0 2C       		.uleb128 0x2c
 7360 1dd1 FD130000 		.4byte	0x13fd
 7361 1dd5 430A0000 		.4byte	.LLST74
 7362 1dd9 42       		.uleb128 0x42
 7363 1dda 16000000 		.4byte	.LVL121
 7364 1dde 062C0000 		.4byte	0x2c06
 7365 1de2 FA1D0000 		.4byte	0x1dfa
 7366 1de6 30       		.uleb128 0x30
 7367 1de7 01       		.uleb128 0x1
 7368 1de8 50       		.byte	0x50
 7369 1de9 02       		.uleb128 0x2
 7370 1dea 76       		.byte	0x76
 7371 1deb 00       		.sleb128 0
 7372 1dec 30       		.uleb128 0x30
 7373 1ded 01       		.uleb128 0x1
ARM GAS  C:\Users\IDONNO~1\AppData\Local\Temp\ccY27Fyg.s 			page 131


 7374 1dee 51       		.byte	0x51
 7375 1def 03       		.uleb128 0x3
 7376 1df0 F3       		.byte	0xf3
 7377 1df1 01       		.uleb128 0x1
 7378 1df2 51       		.byte	0x51
 7379 1df3 30       		.uleb128 0x30
 7380 1df4 01       		.uleb128 0x1
 7381 1df5 52       		.byte	0x52
 7382 1df6 02       		.uleb128 0x2
 7383 1df7 08       		.byte	0x8
 7384 1df8 FA       		.byte	0xfa
 7385 1df9 00       		.byte	0
 7386 1dfa 44       		.uleb128 0x44
 7387 1dfb E8000000 		.4byte	.LVL154
 7388 1dff 512C0000 		.4byte	0x2c51
 7389 1e03 00       		.byte	0
 7390 1e04 37       		.uleb128 0x37
 7391 1e05 56100000 		.4byte	0x1056
 7392 1e09 22000000 		.4byte	.LBB285
 7393 1e0d 00020000 		.4byte	.Ldebug_ranges0+0x200
 7394 1e11 0A       		.byte	0xa
 7395 1e12 5C       		.byte	0x5c
 7396 1e13 7E1F0000 		.4byte	0x1f7e
 7397 1e17 2C       		.uleb128 0x2c
 7398 1e18 71100000 		.4byte	0x1071
 7399 1e1c 6C0A0000 		.4byte	.LLST75
 7400 1e20 2C       		.uleb128 0x2c
 7401 1e21 7C100000 		.4byte	0x107c
 7402 1e25 6C0A0000 		.4byte	.LLST75
 7403 1e29 2C       		.uleb128 0x2c
 7404 1e2a 92100000 		.4byte	0x1092
 7405 1e2e 800A0000 		.4byte	.LLST77
 7406 1e32 2C       		.uleb128 0x2c
 7407 1e33 A8100000 		.4byte	0x10a8
 7408 1e37 950A0000 		.4byte	.LLST78
 7409 1e3b 2C       		.uleb128 0x2c
 7410 1e3c 9D100000 		.4byte	0x109d
 7411 1e40 AA0A0000 		.4byte	.LLST79
 7412 1e44 2C       		.uleb128 0x2c
 7413 1e45 87100000 		.4byte	0x1087
 7414 1e49 BF0A0000 		.4byte	.LLST80
 7415 1e4d 2C       		.uleb128 0x2c
 7416 1e4e 66100000 		.4byte	0x1066
 7417 1e52 D20A0000 		.4byte	.LLST81
 7418 1e56 3C       		.uleb128 0x3c
 7419 1e57 E70F0000 		.4byte	0xfe7
 7420 1e5b 58000000 		.4byte	.LBB287
 7421 1e5f 24000000 		.4byte	.LBE287-.LBB287
 7422 1e63 02       		.byte	0x2
 7423 1e64 55       		.byte	0x55
 7424 1e65 D91E0000 		.4byte	0x1ed9
 7425 1e69 2C       		.uleb128 0x2c
 7426 1e6a 02100000 		.4byte	0x1002
 7427 1e6e F30A0000 		.4byte	.LLST82
 7428 1e72 2C       		.uleb128 0x2c
 7429 1e73 F70F0000 		.4byte	0xff7
 7430 1e77 400B0000 		.4byte	.LLST83
ARM GAS  C:\Users\IDONNO~1\AppData\Local\Temp\ccY27Fyg.s 			page 132


 7431 1e7b 3D       		.uleb128 0x3d
 7432 1e7c 58000000 		.4byte	.LBB288
 7433 1e80 24000000 		.4byte	.LBE288-.LBB288
 7434 1e84 2E       		.uleb128 0x2e
 7435 1e85 0D100000 		.4byte	0x100d
 7436 1e89 6E0B0000 		.4byte	.LLST84
 7437 1e8d 3C       		.uleb128 0x3c
 7438 1e8e 640F0000 		.4byte	0xf64
 7439 1e92 58000000 		.4byte	.LBB289
 7440 1e96 0A000000 		.4byte	.LBE289-.LBB289
 7441 1e9a 05       		.byte	0x5
 7442 1e9b 43       		.byte	0x43
 7443 1e9c A61E0000 		.4byte	0x1ea6
 7444 1ea0 39       		.uleb128 0x39
 7445 1ea1 700F0000 		.4byte	0xf70
 7446 1ea5 00       		.byte	0
 7447 1ea6 3A       		.uleb128 0x3a
 7448 1ea7 820F0000 		.4byte	0xf82
 7449 1eab 62000000 		.4byte	.LBB291
 7450 1eaf 28020000 		.4byte	.Ldebug_ranges0+0x228
 7451 1eb3 05       		.byte	0x5
 7452 1eb4 45       		.byte	0x45
 7453 1eb5 2C       		.uleb128 0x2c
 7454 1eb6 990F0000 		.4byte	0xf99
 7455 1eba 990B0000 		.4byte	.LLST85
 7456 1ebe 2C       		.uleb128 0x2c
 7457 1ebf 8E0F0000 		.4byte	0xf8e
 7458 1ec3 B10B0000 		.4byte	.LLST86
 7459 1ec7 2D       		.uleb128 0x2d
 7460 1ec8 28020000 		.4byte	.Ldebug_ranges0+0x228
 7461 1ecc 2E       		.uleb128 0x2e
 7462 1ecd A40F0000 		.4byte	0xfa4
 7463 1ed1 C50B0000 		.4byte	.LLST87
 7464 1ed5 00       		.byte	0
 7465 1ed6 00       		.byte	0
 7466 1ed7 00       		.byte	0
 7467 1ed8 00       		.byte	0
 7468 1ed9 3C       		.uleb128 0x3c
 7469 1eda B00F0000 		.4byte	0xfb0
 7470 1ede 80000000 		.4byte	.LBB295
 7471 1ee2 2C000000 		.4byte	.LBE295-.LBB295
 7472 1ee6 02       		.byte	0x2
 7473 1ee7 56       		.byte	0x56
 7474 1ee8 4C1F0000 		.4byte	0x1f4c
 7475 1eec 2C       		.uleb128 0x2c
 7476 1eed D20F0000 		.4byte	0xfd2
 7477 1ef1 EE0B0000 		.4byte	.LLST88
 7478 1ef5 2C       		.uleb128 0x2c
 7479 1ef6 C70F0000 		.4byte	0xfc7
 7480 1efa 2B0C0000 		.4byte	.LLST89
 7481 1efe 2C       		.uleb128 0x2c
 7482 1eff BC0F0000 		.4byte	0xfbc
 7483 1f03 5A0C0000 		.4byte	.LLST90
 7484 1f07 3D       		.uleb128 0x3d
 7485 1f08 80000000 		.4byte	.LBB296
 7486 1f0c 2C000000 		.4byte	.LBE296-.LBB296
 7487 1f10 2E       		.uleb128 0x2e
ARM GAS  C:\Users\IDONNO~1\AppData\Local\Temp\ccY27Fyg.s 			page 133


 7488 1f11 DD0F0000 		.4byte	0xfdd
 7489 1f15 700C0000 		.4byte	.LLST91
 7490 1f19 3A       		.uleb128 0x3a
 7491 1f1a 820F0000 		.4byte	0xf82
 7492 1f1e 86000000 		.4byte	.LBB297
 7493 1f22 40020000 		.4byte	.Ldebug_ranges0+0x240
 7494 1f26 05       		.byte	0x5
 7495 1f27 58       		.byte	0x58
 7496 1f28 2C       		.uleb128 0x2c
 7497 1f29 990F0000 		.4byte	0xf99
 7498 1f2d A90C0000 		.4byte	.LLST92
 7499 1f31 2C       		.uleb128 0x2c
 7500 1f32 8E0F0000 		.4byte	0xf8e
 7501 1f36 D80C0000 		.4byte	.LLST93
 7502 1f3a 2D       		.uleb128 0x2d
 7503 1f3b 40020000 		.4byte	.Ldebug_ranges0+0x240
 7504 1f3f 2E       		.uleb128 0x2e
 7505 1f40 A40F0000 		.4byte	0xfa4
 7506 1f44 F80C0000 		.4byte	.LLST94
 7507 1f48 00       		.byte	0
 7508 1f49 00       		.byte	0
 7509 1f4a 00       		.byte	0
 7510 1f4b 00       		.byte	0
 7511 1f4c 3A       		.uleb128 0x3a
 7512 1f4d 820F0000 		.4byte	0xf82
 7513 1f51 AC000000 		.4byte	.LBB301
 7514 1f55 58020000 		.4byte	.Ldebug_ranges0+0x258
 7515 1f59 02       		.byte	0x2
 7516 1f5a 58       		.byte	0x58
 7517 1f5b 2C       		.uleb128 0x2c
 7518 1f5c 990F0000 		.4byte	0xf99
 7519 1f60 2B0D0000 		.4byte	.LLST95
 7520 1f64 2C       		.uleb128 0x2c
 7521 1f65 8E0F0000 		.4byte	0xf8e
 7522 1f69 4C0D0000 		.4byte	.LLST96
 7523 1f6d 2D       		.uleb128 0x2d
 7524 1f6e 58020000 		.4byte	.Ldebug_ranges0+0x258
 7525 1f72 2E       		.uleb128 0x2e
 7526 1f73 A40F0000 		.4byte	0xfa4
 7527 1f77 610D0000 		.4byte	.LLST97
 7528 1f7b 00       		.byte	0
 7529 1f7c 00       		.byte	0
 7530 1f7d 00       		.byte	0
 7531 1f7e 2F       		.uleb128 0x2f
 7532 1f7f 22000000 		.4byte	.LVL122
 7533 1f83 062C0000 		.4byte	0x2c06
 7534 1f87 30       		.uleb128 0x30
 7535 1f88 01       		.uleb128 0x1
 7536 1f89 50       		.byte	0x50
 7537 1f8a 03       		.uleb128 0x3
 7538 1f8b 91       		.byte	0x91
 7539 1f8c E87D     		.sleb128 -280
 7540 1f8e 30       		.uleb128 0x30
 7541 1f8f 01       		.uleb128 0x1
 7542 1f90 51       		.byte	0x51
 7543 1f91 02       		.uleb128 0x2
 7544 1f92 76       		.byte	0x76
ARM GAS  C:\Users\IDONNO~1\AppData\Local\Temp\ccY27Fyg.s 			page 134


 7545 1f93 00       		.sleb128 0
 7546 1f94 30       		.uleb128 0x30
 7547 1f95 01       		.uleb128 0x1
 7548 1f96 52       		.byte	0x52
 7549 1f97 02       		.uleb128 0x2
 7550 1f98 75       		.byte	0x75
 7551 1f99 00       		.sleb128 0
 7552 1f9a 00       		.byte	0
 7553 1f9b 00       		.byte	0
 7554 1f9c 00       		.byte	0
 7555 1f9d 2F       		.uleb128 0x2f
 7556 1f9e DE000000 		.4byte	.LVL152
 7557 1fa2 26130000 		.4byte	0x1326
 7558 1fa6 30       		.uleb128 0x30
 7559 1fa7 01       		.uleb128 0x1
 7560 1fa8 51       		.byte	0x51
 7561 1fa9 03       		.uleb128 0x3
 7562 1faa 91       		.byte	0x91
 7563 1fab E07D     		.sleb128 -288
 7564 1fad 00       		.byte	0
 7565 1fae 00       		.byte	0
 7566 1faf 1A       		.uleb128 0x1a
 7567 1fb0 83080000 		.4byte	.LASF313
 7568 1fb4 0B       		.byte	0xb
 7569 1fb5 F4       		.byte	0xf4
 7570 1fb6 03       		.byte	0x3
 7571 1fb7 DD1F0000 		.4byte	0x1fdd
 7572 1fbb 1F       		.uleb128 0x1f
 7573 1fbc 6D736700 		.ascii	"msg\000"
 7574 1fc0 0B       		.byte	0xb
 7575 1fc1 F4       		.byte	0xf4
 7576 1fc2 1B130000 		.4byte	0x131b
 7577 1fc6 1B       		.uleb128 0x1b
 7578 1fc7 18060000 		.4byte	.LASF314
 7579 1fcb 0B       		.byte	0xb
 7580 1fcc F4       		.byte	0xf4
 7581 1fcd DD1F0000 		.4byte	0x1fdd
 7582 1fd1 1C       		.uleb128 0x1c
 7583 1fd2 6C656E00 		.ascii	"len\000"
 7584 1fd6 0B       		.byte	0xb
 7585 1fd7 FB       		.byte	0xfb
 7586 1fd8 AD000000 		.4byte	0xad
 7587 1fdc 00       		.byte	0
 7588 1fdd 0A       		.uleb128 0xa
 7589 1fde 04       		.byte	0x4
 7590 1fdf B50D0000 		.4byte	0xdb5
 7591 1fe3 33       		.uleb128 0x33
 7592 1fe4 D5120000 		.4byte	.LASF315
 7593 1fe8 01       		.byte	0x1
 7594 1fe9 9D       		.byte	0x9d
 7595 1fea 00000000 		.4byte	.LFB411
 7596 1fee 94000000 		.4byte	.LFE411-.LFB411
 7597 1ff2 01       		.uleb128 0x1
 7598 1ff3 9C       		.byte	0x9c
 7599 1ff4 39210000 		.4byte	0x2139
 7600 1ff8 35       		.uleb128 0x35
 7601 1ff9 7F0C0000 		.4byte	.LASF45
ARM GAS  C:\Users\IDONNO~1\AppData\Local\Temp\ccY27Fyg.s 			page 135


 7602 1ffd 01       		.byte	0x1
 7603 1ffe 9D       		.byte	0x9d
 7604 1fff 9D110000 		.4byte	0x119d
 7605 2003 8F0D0000 		.4byte	.LLST98
 7606 2007 43       		.uleb128 0x43
 7607 2008 090A0000 		.4byte	.LASF219
 7608 200c 01       		.byte	0x1
 7609 200d 9F       		.byte	0x9f
 7610 200e 590F0000 		.4byte	0xf59
 7611 2012 00       		.byte	0
 7612 2013 36       		.uleb128 0x36
 7613 2014 990F0000 		.4byte	.LASF283
 7614 2018 01       		.byte	0x1
 7615 2019 A0       		.byte	0xa0
 7616 201a 190D0000 		.4byte	0xd19
 7617 201e 02       		.uleb128 0x2
 7618 201f 91       		.byte	0x91
 7619 2020 5C       		.sleb128 -36
 7620 2021 36       		.uleb128 0x36
 7621 2022 D1050000 		.4byte	.LASF284
 7622 2026 01       		.byte	0x1
 7623 2027 A1       		.byte	0xa1
 7624 2028 B50D0000 		.4byte	0xdb5
 7625 202c 02       		.uleb128 0x2
 7626 202d 91       		.byte	0x91
 7627 202e 50       		.sleb128 -48
 7628 202f 37       		.uleb128 0x37
 7629 2030 AF1F0000 		.4byte	0x1faf
 7630 2034 04000000 		.4byte	.LBB320
 7631 2038 70020000 		.4byte	.Ldebug_ranges0+0x270
 7632 203c 01       		.byte	0x1
 7633 203d A3       		.byte	0xa3
 7634 203e 7A200000 		.4byte	0x207a
 7635 2042 2C       		.uleb128 0x2c
 7636 2043 C61F0000 		.4byte	0x1fc6
 7637 2047 AD0D0000 		.4byte	.LLST99
 7638 204b 2C       		.uleb128 0x2c
 7639 204c BB1F0000 		.4byte	0x1fbb
 7640 2050 C00D0000 		.4byte	.LLST100
 7641 2054 2D       		.uleb128 0x2d
 7642 2055 70020000 		.4byte	.Ldebug_ranges0+0x270
 7643 2059 2E       		.uleb128 0x2e
 7644 205a D11F0000 		.4byte	0x1fd1
 7645 205e D30D0000 		.4byte	.LLST101
 7646 2062 2F       		.uleb128 0x2f
 7647 2063 26000000 		.4byte	.LVL160
 7648 2067 062C0000 		.4byte	0x2c06
 7649 206b 30       		.uleb128 0x30
 7650 206c 01       		.uleb128 0x1
 7651 206d 50       		.byte	0x50
 7652 206e 02       		.uleb128 0x2
 7653 206f 7D       		.byte	0x7d
 7654 2070 00       		.sleb128 0
 7655 2071 30       		.uleb128 0x30
 7656 2072 01       		.uleb128 0x1
 7657 2073 51       		.byte	0x51
 7658 2074 02       		.uleb128 0x2
ARM GAS  C:\Users\IDONNO~1\AppData\Local\Temp\ccY27Fyg.s 			page 136


 7659 2075 75       		.byte	0x75
 7660 2076 08       		.sleb128 8
 7661 2077 00       		.byte	0
 7662 2078 00       		.byte	0
 7663 2079 00       		.byte	0
 7664 207a 42       		.uleb128 0x42
 7665 207b 36000000 		.4byte	.LVL161
 7666 207f 171D0000 		.4byte	0x1d17
 7667 2083 97200000 		.4byte	0x2097
 7668 2087 30       		.uleb128 0x30
 7669 2088 01       		.uleb128 0x1
 7670 2089 50       		.byte	0x50
 7671 208a 02       		.uleb128 0x2
 7672 208b 74       		.byte	0x74
 7673 208c 00       		.sleb128 0
 7674 208d 30       		.uleb128 0x30
 7675 208e 01       		.uleb128 0x1
 7676 208f 51       		.byte	0x51
 7677 2090 05       		.uleb128 0x5
 7678 2091 03       		.byte	0x3
 7679 2092 00000000 		.4byte	.LC0
 7680 2096 00       		.byte	0
 7681 2097 42       		.uleb128 0x42
 7682 2098 3E000000 		.4byte	.LVL162
 7683 209c 171D0000 		.4byte	0x1d17
 7684 20a0 B4200000 		.4byte	0x20b4
 7685 20a4 30       		.uleb128 0x30
 7686 20a5 01       		.uleb128 0x1
 7687 20a6 50       		.byte	0x50
 7688 20a7 02       		.uleb128 0x2
 7689 20a8 74       		.byte	0x74
 7690 20a9 00       		.sleb128 0
 7691 20aa 30       		.uleb128 0x30
 7692 20ab 01       		.uleb128 0x1
 7693 20ac 51       		.byte	0x51
 7694 20ad 05       		.uleb128 0x5
 7695 20ae 03       		.byte	0x3
 7696 20af 14000000 		.4byte	.LC1
 7697 20b3 00       		.byte	0
 7698 20b4 42       		.uleb128 0x42
 7699 20b5 46000000 		.4byte	.LVL163
 7700 20b9 171D0000 		.4byte	0x1d17
 7701 20bd D1200000 		.4byte	0x20d1
 7702 20c1 30       		.uleb128 0x30
 7703 20c2 01       		.uleb128 0x1
 7704 20c3 50       		.byte	0x50
 7705 20c4 02       		.uleb128 0x2
 7706 20c5 74       		.byte	0x74
 7707 20c6 00       		.sleb128 0
 7708 20c7 30       		.uleb128 0x30
 7709 20c8 01       		.uleb128 0x1
 7710 20c9 51       		.byte	0x51
 7711 20ca 05       		.uleb128 0x5
 7712 20cb 03       		.byte	0x3
 7713 20cc 2C000000 		.4byte	.LC2
 7714 20d0 00       		.byte	0
 7715 20d1 42       		.uleb128 0x42
ARM GAS  C:\Users\IDONNO~1\AppData\Local\Temp\ccY27Fyg.s 			page 137


 7716 20d2 4E000000 		.4byte	.LVL164
 7717 20d6 171D0000 		.4byte	0x1d17
 7718 20da EE200000 		.4byte	0x20ee
 7719 20de 30       		.uleb128 0x30
 7720 20df 01       		.uleb128 0x1
 7721 20e0 50       		.byte	0x50
 7722 20e1 02       		.uleb128 0x2
 7723 20e2 74       		.byte	0x74
 7724 20e3 00       		.sleb128 0
 7725 20e4 30       		.uleb128 0x30
 7726 20e5 01       		.uleb128 0x1
 7727 20e6 51       		.byte	0x51
 7728 20e7 05       		.uleb128 0x5
 7729 20e8 03       		.byte	0x3
 7730 20e9 4C000000 		.4byte	.LC3
 7731 20ed 00       		.byte	0
 7732 20ee 42       		.uleb128 0x42
 7733 20ef 56000000 		.4byte	.LVL165
 7734 20f3 171D0000 		.4byte	0x1d17
 7735 20f7 0B210000 		.4byte	0x210b
 7736 20fb 30       		.uleb128 0x30
 7737 20fc 01       		.uleb128 0x1
 7738 20fd 50       		.byte	0x50
 7739 20fe 02       		.uleb128 0x2
 7740 20ff 74       		.byte	0x74
 7741 2100 00       		.sleb128 0
 7742 2101 30       		.uleb128 0x30
 7743 2102 01       		.uleb128 0x1
 7744 2103 51       		.byte	0x51
 7745 2104 05       		.uleb128 0x5
 7746 2105 03       		.byte	0x3
 7747 2106 5C000000 		.4byte	.LC4
 7748 210a 00       		.byte	0
 7749 210b 42       		.uleb128 0x42
 7750 210c 5E000000 		.4byte	.LVL166
 7751 2110 171D0000 		.4byte	0x1d17
 7752 2114 28210000 		.4byte	0x2128
 7753 2118 30       		.uleb128 0x30
 7754 2119 01       		.uleb128 0x1
 7755 211a 50       		.byte	0x50
 7756 211b 02       		.uleb128 0x2
 7757 211c 74       		.byte	0x74
 7758 211d 00       		.sleb128 0
 7759 211e 30       		.uleb128 0x30
 7760 211f 01       		.uleb128 0x1
 7761 2120 51       		.byte	0x51
 7762 2121 05       		.uleb128 0x5
 7763 2122 03       		.byte	0x3
 7764 2123 6C000000 		.4byte	.LC5
 7765 2127 00       		.byte	0
 7766 2128 2F       		.uleb128 0x2f
 7767 2129 78000000 		.4byte	.LVL168
 7768 212d 24140000 		.4byte	0x1424
 7769 2131 30       		.uleb128 0x30
 7770 2132 01       		.uleb128 0x1
 7771 2133 51       		.byte	0x51
 7772 2134 02       		.uleb128 0x2
ARM GAS  C:\Users\IDONNO~1\AppData\Local\Temp\ccY27Fyg.s 			page 138


 7773 2135 91       		.byte	0x91
 7774 2136 5C       		.sleb128 -36
 7775 2137 00       		.byte	0
 7776 2138 00       		.byte	0
 7777 2139 20       		.uleb128 0x20
 7778 213a 9B0E0000 		.4byte	.LASF316
 7779 213e 02       		.byte	0x2
 7780 213f 0502     		.2byte	0x205
 7781 2141 AD000000 		.4byte	0xad
 7782 2145 03       		.byte	0x3
 7783 2146 9F210000 		.4byte	0x219f
 7784 214a 21       		.uleb128 0x21
 7785 214b 6D090000 		.4byte	.LASF269
 7786 214f 02       		.byte	0x2
 7787 2150 0502     		.2byte	0x205
 7788 2152 AD000000 		.4byte	0xad
 7789 2156 22       		.uleb128 0x22
 7790 2157 6300     		.ascii	"c\000"
 7791 2159 02       		.byte	0x2
 7792 215a 0502     		.2byte	0x205
 7793 215c AD000000 		.4byte	0xad
 7794 2160 21       		.uleb128 0x21
 7795 2161 0E100000 		.4byte	.LASF281
 7796 2165 02       		.byte	0x2
 7797 2166 0502     		.2byte	0x205
 7798 2168 480F0000 		.4byte	0xf48
 7799 216c 21       		.uleb128 0x21
 7800 216d BA0A0000 		.4byte	.LASF282
 7801 2171 02       		.byte	0x2
 7802 2172 0502     		.2byte	0x205
 7803 2174 40100000 		.4byte	0x1040
 7804 2178 25       		.uleb128 0x25
 7805 2179 BC080000 		.4byte	.LASF205
 7806 217d 02       		.byte	0x2
 7807 217e 0702     		.2byte	0x207
 7808 2180 AD000000 		.4byte	0xad
 7809 2184 4A       		.uleb128 0x4a
 7810 2185 25       		.uleb128 0x25
 7811 2186 48040000 		.4byte	.LASF317
 7812 218a 02       		.byte	0x2
 7813 218b 0A02     		.2byte	0x20a
 7814 218d 480F0000 		.4byte	0xf48
 7815 2191 25       		.uleb128 0x25
 7816 2192 120A0000 		.4byte	.LASF318
 7817 2196 02       		.byte	0x2
 7818 2197 0B02     		.2byte	0x20b
 7819 2199 40100000 		.4byte	0x1040
 7820 219d 00       		.byte	0
 7821 219e 00       		.byte	0
 7822 219f 1D       		.uleb128 0x1d
 7823 21a0 7A110000 		.4byte	.LASF319
 7824 21a4 02       		.byte	0x2
 7825 21a5 F2       		.byte	0xf2
 7826 21a6 AD000000 		.4byte	0xad
 7827 21aa 03       		.byte	0x3
 7828 21ab FE220000 		.4byte	0x22fe
 7829 21af 1B       		.uleb128 0x1b
ARM GAS  C:\Users\IDONNO~1\AppData\Local\Temp\ccY27Fyg.s 			page 139


 7830 21b0 48040000 		.4byte	.LASF317
 7831 21b4 02       		.byte	0x2
 7832 21b5 F2       		.byte	0xf2
 7833 21b6 480F0000 		.4byte	0xf48
 7834 21ba 1B       		.uleb128 0x1b
 7835 21bb 120A0000 		.4byte	.LASF318
 7836 21bf 02       		.byte	0x2
 7837 21c0 F3       		.byte	0xf3
 7838 21c1 40100000 		.4byte	0x1040
 7839 21c5 1F       		.uleb128 0x1f
 7840 21c6 6300     		.ascii	"c\000"
 7841 21c8 02       		.byte	0x2
 7842 21c9 F4       		.byte	0xf4
 7843 21ca AD000000 		.4byte	0xad
 7844 21ce 1B       		.uleb128 0x1b
 7845 21cf 0E100000 		.4byte	.LASF281
 7846 21d3 02       		.byte	0x2
 7847 21d4 F5       		.byte	0xf5
 7848 21d5 480F0000 		.4byte	0xf48
 7849 21d9 1B       		.uleb128 0x1b
 7850 21da BA0A0000 		.4byte	.LASF282
 7851 21de 02       		.byte	0x2
 7852 21df F6       		.byte	0xf6
 7853 21e0 40100000 		.4byte	0x1040
 7854 21e4 4B       		.uleb128 0x4b
 7855 21e5 1B000000 		.4byte	.LASF320
 7856 21e9 02       		.byte	0x2
 7857 21ea FE       		.byte	0xfe
 7858 21eb 0E230000 		.4byte	0x230e
 7859 21ef 0001     		.2byte	0x100
 7860 21f1 32       		.byte	0x32
 7861 21f2 C0       		.byte	0xc0
 7862 21f3 00       		.byte	0
 7863 21f4 00       		.byte	0
 7864 21f5 00       		.byte	0
 7865 21f6 00       		.byte	0
 7866 21f7 00       		.byte	0
 7867 21f8 00       		.byte	0
 7868 21f9 00       		.byte	0
 7869 21fa 00       		.byte	0
 7870 21fb 00       		.byte	0
 7871 21fc A6       		.byte	0xa6
 7872 21fd 8C       		.byte	0x8c
 7873 21fe 7E       		.byte	0x7e
 7874 21ff 00       		.byte	0
 7875 2200 00       		.byte	0
 7876 2201 00       		.byte	0
 7877 2202 00       		.byte	0
 7878 2203 00       		.byte	0
 7879 2204 00       		.byte	0
 7880 2205 EB       		.byte	0xeb
 7881 2206 00       		.byte	0
 7882 2207 00       		.byte	0
 7883 2208 00       		.byte	0
 7884 2209 00       		.byte	0
 7885 220a 00       		.byte	0
 7886 220b 00       		.byte	0
ARM GAS  C:\Users\IDONNO~1\AppData\Local\Temp\ccY27Fyg.s 			page 140


 7887 220c 00       		.byte	0
 7888 220d 00       		.byte	0
 7889 220e 00       		.byte	0
 7890 220f 00       		.byte	0
 7891 2210 00       		.byte	0
 7892 2211 00       		.byte	0
 7893 2212 00       		.byte	0
 7894 2213 00       		.byte	0
 7895 2214 00       		.byte	0
 7896 2215 00       		.byte	0
 7897 2216 00       		.byte	0
 7898 2217 00       		.byte	0
 7899 2218 00       		.byte	0
 7900 2219 00       		.byte	0
 7901 221a 00       		.byte	0
 7902 221b 00       		.byte	0
 7903 221c 00       		.byte	0
 7904 221d 00       		.byte	0
 7905 221e 00       		.byte	0
 7906 221f 00       		.byte	0
 7907 2220 00       		.byte	0
 7908 2221 00       		.byte	0
 7909 2222 00       		.byte	0
 7910 2223 00       		.byte	0
 7911 2224 00       		.byte	0
 7912 2225 00       		.byte	0
 7913 2226 00       		.byte	0
 7914 2227 00       		.byte	0
 7915 2228 00       		.byte	0
 7916 2229 00       		.byte	0
 7917 222a 00       		.byte	0
 7918 222b 00       		.byte	0
 7919 222c 00       		.byte	0
 7920 222d 00       		.byte	0
 7921 222e 00       		.byte	0
 7922 222f 00       		.byte	0
 7923 2230 00       		.byte	0
 7924 2231 00       		.byte	0
 7925 2232 00       		.byte	0
 7926 2233 00       		.byte	0
 7927 2234 00       		.byte	0
 7928 2235 00       		.byte	0
 7929 2236 00       		.byte	0
 7930 2237 00       		.byte	0
 7931 2238 00       		.byte	0
 7932 2239 00       		.byte	0
 7933 223a 00       		.byte	0
 7934 223b 00       		.byte	0
 7935 223c 00       		.byte	0
 7936 223d 00       		.byte	0
 7937 223e 00       		.byte	0
 7938 223f 00       		.byte	0
 7939 2240 00       		.byte	0
 7940 2241 00       		.byte	0
 7941 2242 00       		.byte	0
 7942 2243 00       		.byte	0
 7943 2244 00       		.byte	0
ARM GAS  C:\Users\IDONNO~1\AppData\Local\Temp\ccY27Fyg.s 			page 141


 7944 2245 00       		.byte	0
 7945 2246 00       		.byte	0
 7946 2247 00       		.byte	0
 7947 2248 00       		.byte	0
 7948 2249 00       		.byte	0
 7949 224a 00       		.byte	0
 7950 224b 00       		.byte	0
 7951 224c 00       		.byte	0
 7952 224d 00       		.byte	0
 7953 224e 00       		.byte	0
 7954 224f 00       		.byte	0
 7955 2250 00       		.byte	0
 7956 2251 00       		.byte	0
 7957 2252 00       		.byte	0
 7958 2253 00       		.byte	0
 7959 2254 00       		.byte	0
 7960 2255 00       		.byte	0
 7961 2256 00       		.byte	0
 7962 2257 00       		.byte	0
 7963 2258 00       		.byte	0
 7964 2259 00       		.byte	0
 7965 225a 00       		.byte	0
 7966 225b 00       		.byte	0
 7967 225c 00       		.byte	0
 7968 225d 00       		.byte	0
 7969 225e 00       		.byte	0
 7970 225f 00       		.byte	0
 7971 2260 00       		.byte	0
 7972 2261 00       		.byte	0
 7973 2262 00       		.byte	0
 7974 2263 00       		.byte	0
 7975 2264 00       		.byte	0
 7976 2265 00       		.byte	0
 7977 2266 00       		.byte	0
 7978 2267 00       		.byte	0
 7979 2268 00       		.byte	0
 7980 2269 00       		.byte	0
 7981 226a 6B       		.byte	0x6b
 7982 226b 21       		.byte	0x21
 7983 226c 00       		.byte	0
 7984 226d 00       		.byte	0
 7985 226e 00       		.byte	0
 7986 226f 00       		.byte	0
 7987 2270 00       		.byte	0
 7988 2271 00       		.byte	0
 7989 2272 00       		.byte	0
 7990 2273 00       		.byte	0
 7991 2274 00       		.byte	0
 7992 2275 00       		.byte	0
 7993 2276 00       		.byte	0
 7994 2277 00       		.byte	0
 7995 2278 00       		.byte	0
 7996 2279 00       		.byte	0
 7997 227a 00       		.byte	0
 7998 227b 00       		.byte	0
 7999 227c 00       		.byte	0
 8000 227d 00       		.byte	0
ARM GAS  C:\Users\IDONNO~1\AppData\Local\Temp\ccY27Fyg.s 			page 142


 8001 227e 00       		.byte	0
 8002 227f 00       		.byte	0
 8003 2280 00       		.byte	0
 8004 2281 00       		.byte	0
 8005 2282 00       		.byte	0
 8006 2283 00       		.byte	0
 8007 2284 00       		.byte	0
 8008 2285 00       		.byte	0
 8009 2286 00       		.byte	0
 8010 2287 00       		.byte	0
 8011 2288 00       		.byte	0
 8012 2289 00       		.byte	0
 8013 228a 00       		.byte	0
 8014 228b 00       		.byte	0
 8015 228c 00       		.byte	0
 8016 228d 00       		.byte	0
 8017 228e 00       		.byte	0
 8018 228f 00       		.byte	0
 8019 2290 00       		.byte	0
 8020 2291 00       		.byte	0
 8021 2292 00       		.byte	0
 8022 2293 00       		.byte	0
 8023 2294 00       		.byte	0
 8024 2295 00       		.byte	0
 8025 2296 00       		.byte	0
 8026 2297 00       		.byte	0
 8027 2298 00       		.byte	0
 8028 2299 00       		.byte	0
 8029 229a 00       		.byte	0
 8030 229b 00       		.byte	0
 8031 229c 00       		.byte	0
 8032 229d 00       		.byte	0
 8033 229e 00       		.byte	0
 8034 229f 00       		.byte	0
 8035 22a0 00       		.byte	0
 8036 22a1 00       		.byte	0
 8037 22a2 00       		.byte	0
 8038 22a3 00       		.byte	0
 8039 22a4 00       		.byte	0
 8040 22a5 00       		.byte	0
 8041 22a6 00       		.byte	0
 8042 22a7 00       		.byte	0
 8043 22a8 00       		.byte	0
 8044 22a9 00       		.byte	0
 8045 22aa 00       		.byte	0
 8046 22ab 00       		.byte	0
 8047 22ac 00       		.byte	0
 8048 22ad 00       		.byte	0
 8049 22ae 00       		.byte	0
 8050 22af 00       		.byte	0
 8051 22b0 00       		.byte	0
 8052 22b1 00       		.byte	0
 8053 22b2 00       		.byte	0
 8054 22b3 00       		.byte	0
 8055 22b4 00       		.byte	0
 8056 22b5 00       		.byte	0
 8057 22b6 00       		.byte	0
ARM GAS  C:\Users\IDONNO~1\AppData\Local\Temp\ccY27Fyg.s 			page 143


 8058 22b7 00       		.byte	0
 8059 22b8 00       		.byte	0
 8060 22b9 00       		.byte	0
 8061 22ba 00       		.byte	0
 8062 22bb 00       		.byte	0
 8063 22bc 00       		.byte	0
 8064 22bd 00       		.byte	0
 8065 22be 00       		.byte	0
 8066 22bf 00       		.byte	0
 8067 22c0 00       		.byte	0
 8068 22c1 00       		.byte	0
 8069 22c2 00       		.byte	0
 8070 22c3 00       		.byte	0
 8071 22c4 00       		.byte	0
 8072 22c5 00       		.byte	0
 8073 22c6 00       		.byte	0
 8074 22c7 00       		.byte	0
 8075 22c8 00       		.byte	0
 8076 22c9 00       		.byte	0
 8077 22ca 00       		.byte	0
 8078 22cb 00       		.byte	0
 8079 22cc 00       		.byte	0
 8080 22cd F9       		.byte	0xf9
 8081 22ce 54       		.byte	0x54
 8082 22cf 15       		.byte	0x15
 8083 22d0 00       		.byte	0
 8084 22d1 00       		.byte	0
 8085 22d2 00       		.byte	0
 8086 22d3 00       		.byte	0
 8087 22d4 00       		.byte	0
 8088 22d5 00       		.byte	0
 8089 22d6 00       		.byte	0
 8090 22d7 00       		.byte	0
 8091 22d8 00       		.byte	0
 8092 22d9 00       		.byte	0
 8093 22da 00       		.byte	0
 8094 22db 00       		.byte	0
 8095 22dc 00       		.byte	0
 8096 22dd 00       		.byte	0
 8097 22de 00       		.byte	0
 8098 22df 00       		.byte	0
 8099 22e0 00       		.byte	0
 8100 22e1 00       		.byte	0
 8101 22e2 00       		.byte	0
 8102 22e3 00       		.byte	0
 8103 22e4 00       		.byte	0
 8104 22e5 00       		.byte	0
 8105 22e6 00       		.byte	0
 8106 22e7 00       		.byte	0
 8107 22e8 00       		.byte	0
 8108 22e9 00       		.byte	0
 8109 22ea 00       		.byte	0
 8110 22eb 00       		.byte	0
 8111 22ec 00       		.byte	0
 8112 22ed 00       		.byte	0
 8113 22ee 00       		.byte	0
 8114 22ef 00       		.byte	0
ARM GAS  C:\Users\IDONNO~1\AppData\Local\Temp\ccY27Fyg.s 			page 144


 8115 22f0 00       		.byte	0
 8116 22f1 25       		.uleb128 0x25
 8117 22f2 2E0D0000 		.4byte	.LASF321
 8118 22f6 02       		.byte	0x2
 8119 22f7 1001     		.2byte	0x110
 8120 22f9 25000000 		.4byte	0x25
 8121 22fd 00       		.byte	0
 8122 22fe 15       		.uleb128 0x15
 8123 22ff 36070000 		.4byte	0x736
 8124 2303 0E230000 		.4byte	0x230e
 8125 2307 16       		.uleb128 0x16
 8126 2308 85040000 		.4byte	0x485
 8127 230c FF       		.byte	0xff
 8128 230d 00       		.byte	0
 8129 230e 14       		.uleb128 0x14
 8130 230f FE220000 		.4byte	0x22fe
 8131 2313 4C       		.uleb128 0x4c
 8132 2314 72080000 		.4byte	.LASF323
 8133 2318 01       		.byte	0x1
 8134 2319 5B01     		.2byte	0x15b
 8135 231b 3B070000 		.4byte	0x73b
 8136 231f 00000000 		.4byte	.LFB418
 8137 2323 84050000 		.4byte	.LFE418-.LFB418
 8138 2327 01       		.uleb128 0x1
 8139 2328 9C       		.byte	0x9c
 8140 2329 0B2B0000 		.4byte	0x2b0b
 8141 232d 27       		.uleb128 0x27
 8142 232e 636800   		.ascii	"ch\000"
 8143 2331 01       		.byte	0x1
 8144 2332 5B01     		.2byte	0x15b
 8145 2334 AD000000 		.4byte	0xad
 8146 2338 1E0E0000 		.4byte	.LLST102
 8147 233c 28       		.uleb128 0x28
 8148 233d B6090000 		.4byte	.LASF222
 8149 2341 01       		.byte	0x1
 8150 2342 5B01     		.2byte	0x15b
 8151 2344 AD000000 		.4byte	0xad
 8152 2348 290F0000 		.4byte	.LLST103
 8153 234c 28       		.uleb128 0x28
 8154 234d 7F0C0000 		.4byte	.LASF45
 8155 2351 01       		.byte	0x1
 8156 2352 5B01     		.2byte	0x15b
 8157 2354 9D110000 		.4byte	0x119d
 8158 2358 87100000 		.4byte	.LLST104
 8159 235c 4D       		.uleb128 0x4d
 8160 235d 72657400 		.ascii	"ret\000"
 8161 2361 01       		.byte	0x1
 8162 2362 5D01     		.2byte	0x15d
 8163 2364 3B070000 		.4byte	0x73b
 8164 2368 FB100000 		.4byte	.LLST105
 8165 236c 29       		.uleb128 0x29
 8166 236d 6D736700 		.ascii	"msg\000"
 8167 2371 01       		.byte	0x1
 8168 2372 5E01     		.2byte	0x15e
 8169 2374 0B2B0000 		.4byte	0x2b0b
 8170 2378 05       		.uleb128 0x5
 8171 2379 03       		.byte	0x3
ARM GAS  C:\Users\IDONNO~1\AppData\Local\Temp\ccY27Fyg.s 			page 145


 8172 237a 00000000 		.4byte	msg.11562
 8173 237e 25       		.uleb128 0x25
 8174 237f 120A0000 		.4byte	.LASF318
 8175 2383 01       		.byte	0x1
 8176 2384 5F01     		.2byte	0x15f
 8177 2386 1B2B0000 		.4byte	0x2b1b
 8178 238a 2B       		.uleb128 0x2b
 8179 238b 39210000 		.4byte	0x2139
 8180 238f 0E000000 		.4byte	.LBB406
 8181 2393 90020000 		.4byte	.Ldebug_ranges0+0x290
 8182 2397 01       		.byte	0x1
 8183 2398 6801     		.2byte	0x168
 8184 239a 4D270000 		.4byte	0x274d
 8185 239e 2C       		.uleb128 0x2c
 8186 239f 6C210000 		.4byte	0x216c
 8187 23a3 56110000 		.4byte	.LLST106
 8188 23a7 2C       		.uleb128 0x2c
 8189 23a8 60210000 		.4byte	0x2160
 8190 23ac CE110000 		.4byte	.LLST107
 8191 23b0 2C       		.uleb128 0x2c
 8192 23b1 56210000 		.4byte	0x2156
 8193 23b5 46120000 		.4byte	.LLST108
 8194 23b9 2C       		.uleb128 0x2c
 8195 23ba 4A210000 		.4byte	0x214a
 8196 23be A4130000 		.4byte	.LLST109
 8197 23c2 2D       		.uleb128 0x2d
 8198 23c3 90020000 		.4byte	.Ldebug_ranges0+0x290
 8199 23c7 41       		.uleb128 0x41
 8200 23c8 78210000 		.4byte	0x2178
 8201 23cc 2B       		.uleb128 0x2b
 8202 23cd 24110000 		.4byte	0x1124
 8203 23d1 0E000000 		.4byte	.LBB408
 8204 23d5 E0020000 		.4byte	.Ldebug_ranges0+0x2e0
 8205 23d9 02       		.byte	0x2
 8206 23da 0702     		.2byte	0x207
 8207 23dc 08270000 		.4byte	0x2708
 8208 23e0 2C       		.uleb128 0x2c
 8209 23e1 57110000 		.4byte	0x1157
 8210 23e5 00140000 		.4byte	.LLST110
 8211 23e9 2C       		.uleb128 0x2c
 8212 23ea 4B110000 		.4byte	0x114b
 8213 23ee 78140000 		.4byte	.LLST111
 8214 23f2 2C       		.uleb128 0x2c
 8215 23f3 41110000 		.4byte	0x1141
 8216 23f7 F0140000 		.4byte	.LLST112
 8217 23fb 2C       		.uleb128 0x2c
 8218 23fc 35110000 		.4byte	0x1135
 8219 2400 4E160000 		.4byte	.LLST113
 8220 2404 4E       		.uleb128 0x4e
 8221 2405 9F210000 		.4byte	0x219f
 8222 2409 0E000000 		.4byte	.LBB409
 8223 240d E0020000 		.4byte	.Ldebug_ranges0+0x2e0
 8224 2411 02       		.byte	0x2
 8225 2412 D501     		.2byte	0x1d5
 8226 2414 2C       		.uleb128 0x2c
 8227 2415 D9210000 		.4byte	0x21d9
 8228 2419 00140000 		.4byte	.LLST110
ARM GAS  C:\Users\IDONNO~1\AppData\Local\Temp\ccY27Fyg.s 			page 146


 8229 241d 2C       		.uleb128 0x2c
 8230 241e CE210000 		.4byte	0x21ce
 8231 2422 78140000 		.4byte	.LLST111
 8232 2426 2C       		.uleb128 0x2c
 8233 2427 C5210000 		.4byte	0x21c5
 8234 242b AA160000 		.4byte	.LLST116
 8235 242f 2C       		.uleb128 0x2c
 8236 2430 BA210000 		.4byte	0x21ba
 8237 2434 08180000 		.4byte	.LLST117
 8238 2438 2C       		.uleb128 0x2c
 8239 2439 AF210000 		.4byte	0x21af
 8240 243d 80180000 		.4byte	.LLST118
 8241 2441 2D       		.uleb128 0x2d
 8242 2442 E0020000 		.4byte	.Ldebug_ranges0+0x2e0
 8243 2446 2E       		.uleb128 0x2e
 8244 2447 F1220000 		.4byte	0x22f1
 8245 244b F8180000 		.4byte	.LLST119
 8246 244f 38       		.uleb128 0x38
 8247 2450 E4210000 		.4byte	0x21e4
 8248 2454 05       		.uleb128 0x5
 8249 2455 03       		.byte	0x3
 8250 2456 00000000 		.4byte	mavlink_message_crcs.10621
 8251 245a 2B       		.uleb128 0x2b
 8252 245b CC100000 		.4byte	0x10cc
 8253 245f FC000000 		.4byte	.LBB411
 8254 2463 48030000 		.4byte	.Ldebug_ranges0+0x348
 8255 2467 02       		.byte	0x2
 8256 2468 3401     		.2byte	0x134
 8257 246a 9E240000 		.4byte	0x249e
 8258 246e 39       		.uleb128 0x39
 8259 246f E3100000 		.4byte	0x10e3
 8260 2473 39       		.uleb128 0x39
 8261 2474 D8100000 		.4byte	0x10d8
 8262 2478 3A       		.uleb128 0x3a
 8263 2479 820F0000 		.4byte	0xf82
 8264 247d FC000000 		.4byte	.LBB412
 8265 2481 48030000 		.4byte	.Ldebug_ranges0+0x348
 8266 2485 02       		.byte	0x2
 8267 2486 CD       		.byte	0xcd
 8268 2487 39       		.uleb128 0x39
 8269 2488 990F0000 		.4byte	0xf99
 8270 248c 39       		.uleb128 0x39
 8271 248d 8E0F0000 		.4byte	0xf8e
 8272 2491 2D       		.uleb128 0x2d
 8273 2492 48030000 		.4byte	.Ldebug_ranges0+0x348
 8274 2496 41       		.uleb128 0x41
 8275 2497 A40F0000 		.4byte	0xfa4
 8276 249b 00       		.byte	0
 8277 249c 00       		.byte	0
 8278 249d 00       		.byte	0
 8279 249e 2B       		.uleb128 0x2b
 8280 249f CC100000 		.4byte	0x10cc
 8281 24a3 36010000 		.4byte	.LBB420
 8282 24a7 68030000 		.4byte	.Ldebug_ranges0+0x368
 8283 24ab 02       		.byte	0x2
 8284 24ac 4101     		.2byte	0x141
 8285 24ae F6240000 		.4byte	0x24f6
ARM GAS  C:\Users\IDONNO~1\AppData\Local\Temp\ccY27Fyg.s 			page 147


 8286 24b2 2C       		.uleb128 0x2c
 8287 24b3 E3100000 		.4byte	0x10e3
 8288 24b7 78190000 		.4byte	.LLST120
 8289 24bb 2C       		.uleb128 0x2c
 8290 24bc D8100000 		.4byte	0x10d8
 8291 24c0 9A190000 		.4byte	.LLST121
 8292 24c4 3A       		.uleb128 0x3a
 8293 24c5 820F0000 		.4byte	0xf82
 8294 24c9 36010000 		.4byte	.LBB421
 8295 24cd 68030000 		.4byte	.Ldebug_ranges0+0x368
 8296 24d1 02       		.byte	0x2
 8297 24d2 CD       		.byte	0xcd
 8298 24d3 2C       		.uleb128 0x2c
 8299 24d4 990F0000 		.4byte	0xf99
 8300 24d8 9A190000 		.4byte	.LLST121
 8301 24dc 2C       		.uleb128 0x2c
 8302 24dd 8E0F0000 		.4byte	0xf8e
 8303 24e1 78190000 		.4byte	.LLST120
 8304 24e5 2D       		.uleb128 0x2d
 8305 24e6 68030000 		.4byte	.Ldebug_ranges0+0x368
 8306 24ea 2E       		.uleb128 0x2e
 8307 24eb A40F0000 		.4byte	0xfa4
 8308 24ef B2190000 		.4byte	.LLST124
 8309 24f3 00       		.byte	0
 8310 24f4 00       		.byte	0
 8311 24f5 00       		.byte	0
 8312 24f6 2B       		.uleb128 0x2b
 8313 24f7 CC100000 		.4byte	0x10cc
 8314 24fb 5C010000 		.4byte	.LBB429
 8315 24ff 88030000 		.4byte	.Ldebug_ranges0+0x388
 8316 2503 02       		.byte	0x2
 8317 2504 3B01     		.2byte	0x13b
 8318 2506 4E250000 		.4byte	0x254e
 8319 250a 2C       		.uleb128 0x2c
 8320 250b E3100000 		.4byte	0x10e3
 8321 250f D0190000 		.4byte	.LLST125
 8322 2513 2C       		.uleb128 0x2c
 8323 2514 D8100000 		.4byte	0x10d8
 8324 2518 F2190000 		.4byte	.LLST126
 8325 251c 3A       		.uleb128 0x3a
 8326 251d 820F0000 		.4byte	0xf82
 8327 2521 5C010000 		.4byte	.LBB430
 8328 2525 88030000 		.4byte	.Ldebug_ranges0+0x388
 8329 2529 02       		.byte	0x2
 8330 252a CD       		.byte	0xcd
 8331 252b 2C       		.uleb128 0x2c
 8332 252c 990F0000 		.4byte	0xf99
 8333 2530 F2190000 		.4byte	.LLST126
 8334 2534 2C       		.uleb128 0x2c
 8335 2535 8E0F0000 		.4byte	0xf8e
 8336 2539 D0190000 		.4byte	.LLST125
 8337 253d 2D       		.uleb128 0x2d
 8338 253e 88030000 		.4byte	.Ldebug_ranges0+0x388
 8339 2542 2E       		.uleb128 0x2e
 8340 2543 A40F0000 		.4byte	0xfa4
 8341 2547 0A1A0000 		.4byte	.LLST129
 8342 254b 00       		.byte	0
ARM GAS  C:\Users\IDONNO~1\AppData\Local\Temp\ccY27Fyg.s 			page 148


 8343 254c 00       		.byte	0
 8344 254d 00       		.byte	0
 8345 254e 2B       		.uleb128 0x2b
 8346 254f CC100000 		.4byte	0x10cc
 8347 2553 82010000 		.4byte	.LBB438
 8348 2557 A8030000 		.4byte	.Ldebug_ranges0+0x3a8
 8349 255b 02       		.byte	0x2
 8350 255c 4701     		.2byte	0x147
 8351 255e A6250000 		.4byte	0x25a6
 8352 2562 2C       		.uleb128 0x2c
 8353 2563 E3100000 		.4byte	0x10e3
 8354 2567 281A0000 		.4byte	.LLST130
 8355 256b 2C       		.uleb128 0x2c
 8356 256c D8100000 		.4byte	0x10d8
 8357 2570 4A1A0000 		.4byte	.LLST131
 8358 2574 3A       		.uleb128 0x3a
 8359 2575 820F0000 		.4byte	0xf82
 8360 2579 82010000 		.4byte	.LBB439
 8361 257d A8030000 		.4byte	.Ldebug_ranges0+0x3a8
 8362 2581 02       		.byte	0x2
 8363 2582 CD       		.byte	0xcd
 8364 2583 2C       		.uleb128 0x2c
 8365 2584 990F0000 		.4byte	0xf99
 8366 2588 4A1A0000 		.4byte	.LLST131
 8367 258c 2C       		.uleb128 0x2c
 8368 258d 8E0F0000 		.4byte	0xf8e
 8369 2591 281A0000 		.4byte	.LLST130
 8370 2595 2D       		.uleb128 0x2d
 8371 2596 A8030000 		.4byte	.Ldebug_ranges0+0x3a8
 8372 259a 2E       		.uleb128 0x2e
 8373 259b A40F0000 		.4byte	0xfa4
 8374 259f 621A0000 		.4byte	.LLST134
 8375 25a3 00       		.byte	0
 8376 25a4 00       		.byte	0
 8377 25a5 00       		.byte	0
 8378 25a6 2B       		.uleb128 0x2b
 8379 25a7 CC100000 		.4byte	0x10cc
 8380 25ab A8010000 		.4byte	.LBB447
 8381 25af C8030000 		.4byte	.Ldebug_ranges0+0x3c8
 8382 25b3 02       		.byte	0x2
 8383 25b4 5501     		.2byte	0x155
 8384 25b6 FE250000 		.4byte	0x25fe
 8385 25ba 2C       		.uleb128 0x2c
 8386 25bb E3100000 		.4byte	0x10e3
 8387 25bf 801A0000 		.4byte	.LLST135
 8388 25c3 2C       		.uleb128 0x2c
 8389 25c4 D8100000 		.4byte	0x10d8
 8390 25c8 A21A0000 		.4byte	.LLST136
 8391 25cc 3A       		.uleb128 0x3a
 8392 25cd 820F0000 		.4byte	0xf82
 8393 25d1 A8010000 		.4byte	.LBB448
 8394 25d5 C8030000 		.4byte	.Ldebug_ranges0+0x3c8
 8395 25d9 02       		.byte	0x2
 8396 25da CD       		.byte	0xcd
 8397 25db 2C       		.uleb128 0x2c
 8398 25dc 990F0000 		.4byte	0xf99
 8399 25e0 A21A0000 		.4byte	.LLST136
ARM GAS  C:\Users\IDONNO~1\AppData\Local\Temp\ccY27Fyg.s 			page 149


 8400 25e4 2C       		.uleb128 0x2c
 8401 25e5 8E0F0000 		.4byte	0xf8e
 8402 25e9 801A0000 		.4byte	.LLST135
 8403 25ed 2D       		.uleb128 0x2d
 8404 25ee C8030000 		.4byte	.Ldebug_ranges0+0x3c8
 8405 25f2 2E       		.uleb128 0x2e
 8406 25f3 A40F0000 		.4byte	0xfa4
 8407 25f7 BA1A0000 		.4byte	.LLST139
 8408 25fb 00       		.byte	0
 8409 25fc 00       		.byte	0
 8410 25fd 00       		.byte	0
 8411 25fe 2B       		.uleb128 0x2b
 8412 25ff CC100000 		.4byte	0x10cc
 8413 2603 DE010000 		.4byte	.LBB456
 8414 2607 E8030000 		.4byte	.Ldebug_ranges0+0x3e8
 8415 260b 02       		.byte	0x2
 8416 260c 6201     		.2byte	0x162
 8417 260e 56260000 		.4byte	0x2656
 8418 2612 2C       		.uleb128 0x2c
 8419 2613 E3100000 		.4byte	0x10e3
 8420 2617 D81A0000 		.4byte	.LLST140
 8421 261b 2C       		.uleb128 0x2c
 8422 261c D8100000 		.4byte	0x10d8
 8423 2620 EB1A0000 		.4byte	.LLST141
 8424 2624 3A       		.uleb128 0x3a
 8425 2625 820F0000 		.4byte	0xf82
 8426 2629 DE010000 		.4byte	.LBB457
 8427 262d E8030000 		.4byte	.Ldebug_ranges0+0x3e8
 8428 2631 02       		.byte	0x2
 8429 2632 CD       		.byte	0xcd
 8430 2633 2C       		.uleb128 0x2c
 8431 2634 990F0000 		.4byte	0xf99
 8432 2638 EB1A0000 		.4byte	.LLST141
 8433 263c 2C       		.uleb128 0x2c
 8434 263d 8E0F0000 		.4byte	0xf8e
 8435 2641 D81A0000 		.4byte	.LLST140
 8436 2645 2D       		.uleb128 0x2d
 8437 2646 E8030000 		.4byte	.Ldebug_ranges0+0x3e8
 8438 264a 2E       		.uleb128 0x2e
 8439 264b A40F0000 		.4byte	0xfa4
 8440 264f 031B0000 		.4byte	.LLST144
 8441 2653 00       		.byte	0
 8442 2654 00       		.byte	0
 8443 2655 00       		.byte	0
 8444 2656 2B       		.uleb128 0x2b
 8445 2657 CC100000 		.4byte	0x10cc
 8446 265b 08020000 		.4byte	.LBB468
 8447 265f 10040000 		.4byte	.Ldebug_ranges0+0x410
 8448 2663 02       		.byte	0x2
 8449 2664 6B01     		.2byte	0x16b
 8450 2666 AE260000 		.4byte	0x26ae
 8451 266a 2C       		.uleb128 0x2c
 8452 266b E3100000 		.4byte	0x10e3
 8453 266f 311B0000 		.4byte	.LLST145
 8454 2673 2C       		.uleb128 0x2c
 8455 2674 D8100000 		.4byte	0x10d8
 8456 2678 531B0000 		.4byte	.LLST146
ARM GAS  C:\Users\IDONNO~1\AppData\Local\Temp\ccY27Fyg.s 			page 150


 8457 267c 3A       		.uleb128 0x3a
 8458 267d 820F0000 		.4byte	0xf82
 8459 2681 08020000 		.4byte	.LBB469
 8460 2685 10040000 		.4byte	.Ldebug_ranges0+0x410
 8461 2689 02       		.byte	0x2
 8462 268a CD       		.byte	0xcd
 8463 268b 2C       		.uleb128 0x2c
 8464 268c 990F0000 		.4byte	0xf99
 8465 2690 531B0000 		.4byte	.LLST146
 8466 2694 2C       		.uleb128 0x2c
 8467 2695 8E0F0000 		.4byte	0xf8e
 8468 2699 311B0000 		.4byte	.LLST145
 8469 269d 2D       		.uleb128 0x2d
 8470 269e 10040000 		.4byte	.Ldebug_ranges0+0x410
 8471 26a2 2E       		.uleb128 0x2e
 8472 26a3 A40F0000 		.4byte	0xfa4
 8473 26a7 6B1B0000 		.4byte	.LLST149
 8474 26ab 00       		.byte	0
 8475 26ac 00       		.byte	0
 8476 26ad 00       		.byte	0
 8477 26ae 2B       		.uleb128 0x2b
 8478 26af B4100000 		.4byte	0x10b4
 8479 26b3 42050000 		.4byte	.LBB477
 8480 26b7 30040000 		.4byte	.Ldebug_ranges0+0x430
 8481 26bb 02       		.byte	0x2
 8482 26bc 1D01     		.2byte	0x11d
 8483 26be E5260000 		.4byte	0x26e5
 8484 26c2 2C       		.uleb128 0x2c
 8485 26c3 C0100000 		.4byte	0x10c0
 8486 26c7 E71B0000 		.4byte	.LLST150
 8487 26cb 3A       		.uleb128 0x3a
 8488 26cc 640F0000 		.4byte	0xf64
 8489 26d0 42050000 		.4byte	.LBB478
 8490 26d4 30040000 		.4byte	.Ldebug_ranges0+0x430
 8491 26d8 02       		.byte	0x2
 8492 26d9 C8       		.byte	0xc8
 8493 26da 2C       		.uleb128 0x2c
 8494 26db 700F0000 		.4byte	0xf70
 8495 26df FF1B0000 		.4byte	.LLST151
 8496 26e3 00       		.byte	0
 8497 26e4 00       		.byte	0
 8498 26e5 2F       		.uleb128 0x2f
 8499 26e6 82020000 		.4byte	.LVL239
 8500 26ea 062C0000 		.4byte	0x2c06
 8501 26ee 30       		.uleb128 0x30
 8502 26ef 01       		.uleb128 0x1
 8503 26f0 50       		.byte	0x50
 8504 26f1 05       		.uleb128 0x5
 8505 26f2 03       		.byte	0x3
 8506 26f3 00000000 		.4byte	.LANCHOR6
 8507 26f7 30       		.uleb128 0x30
 8508 26f8 01       		.uleb128 0x1
 8509 26f9 51       		.byte	0x51
 8510 26fa 02       		.uleb128 0x2
 8511 26fb 79       		.byte	0x79
 8512 26fc 00       		.sleb128 0
 8513 26fd 30       		.uleb128 0x30
ARM GAS  C:\Users\IDONNO~1\AppData\Local\Temp\ccY27Fyg.s 			page 151


 8514 26fe 01       		.uleb128 0x1
 8515 26ff 52       		.byte	0x52
 8516 2700 03       		.uleb128 0x3
 8517 2701 0A       		.byte	0xa
 8518 2702 1001     		.2byte	0x110
 8519 2704 00       		.byte	0
 8520 2705 00       		.byte	0
 8521 2706 00       		.byte	0
 8522 2707 00       		.byte	0
 8523 2708 2D       		.uleb128 0x2d
 8524 2709 48040000 		.4byte	.Ldebug_ranges0+0x448
 8525 270d 41       		.uleb128 0x41
 8526 270e 85210000 		.4byte	0x2185
 8527 2712 41       		.uleb128 0x41
 8528 2713 91210000 		.4byte	0x2191
 8529 2717 4E       		.uleb128 0x4e
 8530 2718 B4100000 		.4byte	0x10b4
 8531 271c A8040000 		.4byte	.LBB511
 8532 2720 70040000 		.4byte	.Ldebug_ranges0+0x470
 8533 2724 02       		.byte	0x2
 8534 2725 1302     		.2byte	0x213
 8535 2727 2C       		.uleb128 0x2c
 8536 2728 C0100000 		.4byte	0x10c0
 8537 272c 171C0000 		.4byte	.LLST152
 8538 2730 3A       		.uleb128 0x3a
 8539 2731 640F0000 		.4byte	0xf64
 8540 2735 A8040000 		.4byte	.LBB512
 8541 2739 70040000 		.4byte	.Ldebug_ranges0+0x470
 8542 273d 02       		.byte	0x2
 8543 273e C8       		.byte	0xc8
 8544 273f 2C       		.uleb128 0x2c
 8545 2740 700F0000 		.4byte	0xf70
 8546 2744 2F1C0000 		.4byte	.LLST153
 8547 2748 00       		.byte	0
 8548 2749 00       		.byte	0
 8549 274a 00       		.byte	0
 8550 274b 00       		.byte	0
 8551 274c 00       		.byte	0
 8552 274d 4E       		.uleb128 0x4e
 8553 274e 39210000 		.4byte	0x2139
 8554 2752 38000000 		.4byte	.LBB535
 8555 2756 88040000 		.4byte	.Ldebug_ranges0+0x488
 8556 275a 01       		.byte	0x1
 8557 275b 7001     		.2byte	0x170
 8558 275d 2C       		.uleb128 0x2c
 8559 275e 6C210000 		.4byte	0x216c
 8560 2762 471C0000 		.4byte	.LLST154
 8561 2766 2C       		.uleb128 0x2c
 8562 2767 60210000 		.4byte	0x2160
 8563 276b AF1C0000 		.4byte	.LLST155
 8564 276f 2C       		.uleb128 0x2c
 8565 2770 56210000 		.4byte	0x2156
 8566 2774 F91C0000 		.4byte	.LLST156
 8567 2778 2C       		.uleb128 0x2c
 8568 2779 4A210000 		.4byte	0x214a
 8569 277d 231E0000 		.4byte	.LLST157
 8570 2781 2D       		.uleb128 0x2d
ARM GAS  C:\Users\IDONNO~1\AppData\Local\Temp\ccY27Fyg.s 			page 152


 8571 2782 88040000 		.4byte	.Ldebug_ranges0+0x488
 8572 2786 41       		.uleb128 0x41
 8573 2787 78210000 		.4byte	0x2178
 8574 278b 2B       		.uleb128 0x2b
 8575 278c 24110000 		.4byte	0x1124
 8576 2790 38000000 		.4byte	.LBB537
 8577 2794 D8040000 		.4byte	.Ldebug_ranges0+0x4d8
 8578 2798 02       		.byte	0x2
 8579 2799 0702     		.2byte	0x207
 8580 279b C52A0000 		.4byte	0x2ac5
 8581 279f 2C       		.uleb128 0x2c
 8582 27a0 57110000 		.4byte	0x1157
 8583 27a4 731E0000 		.4byte	.LLST158
 8584 27a8 2C       		.uleb128 0x2c
 8585 27a9 4B110000 		.4byte	0x114b
 8586 27ad DB1E0000 		.4byte	.LLST159
 8587 27b1 2C       		.uleb128 0x2c
 8588 27b2 41110000 		.4byte	0x1141
 8589 27b6 251F0000 		.4byte	.LLST160
 8590 27ba 2C       		.uleb128 0x2c
 8591 27bb 35110000 		.4byte	0x1135
 8592 27bf 4F200000 		.4byte	.LLST161
 8593 27c3 4E       		.uleb128 0x4e
 8594 27c4 9F210000 		.4byte	0x219f
 8595 27c8 38000000 		.4byte	.LBB538
 8596 27cc D8040000 		.4byte	.Ldebug_ranges0+0x4d8
 8597 27d0 02       		.byte	0x2
 8598 27d1 D501     		.2byte	0x1d5
 8599 27d3 2C       		.uleb128 0x2c
 8600 27d4 D9210000 		.4byte	0x21d9
 8601 27d8 731E0000 		.4byte	.LLST158
 8602 27dc 2C       		.uleb128 0x2c
 8603 27dd CE210000 		.4byte	0x21ce
 8604 27e1 DB1E0000 		.4byte	.LLST159
 8605 27e5 2C       		.uleb128 0x2c
 8606 27e6 C5210000 		.4byte	0x21c5
 8607 27ea 251F0000 		.4byte	.LLST160
 8608 27ee 2C       		.uleb128 0x2c
 8609 27ef BA210000 		.4byte	0x21ba
 8610 27f3 9F200000 		.4byte	.LLST165
 8611 27f7 2C       		.uleb128 0x2c
 8612 27f8 AF210000 		.4byte	0x21af
 8613 27fc 07210000 		.4byte	.LLST166
 8614 2800 2D       		.uleb128 0x2d
 8615 2801 D8040000 		.4byte	.Ldebug_ranges0+0x4d8
 8616 2805 2E       		.uleb128 0x2e
 8617 2806 F1220000 		.4byte	0x22f1
 8618 280a 6F210000 		.4byte	.LLST167
 8619 280e 38       		.uleb128 0x38
 8620 280f E4210000 		.4byte	0x21e4
 8621 2813 05       		.uleb128 0x5
 8622 2814 03       		.byte	0x3
 8623 2815 00000000 		.4byte	mavlink_message_crcs.10621
 8624 2819 2B       		.uleb128 0x2b
 8625 281a CC100000 		.4byte	0x10cc
 8626 281e C4020000 		.4byte	.LBB540
 8627 2822 38050000 		.4byte	.Ldebug_ranges0+0x538
ARM GAS  C:\Users\IDONNO~1\AppData\Local\Temp\ccY27Fyg.s 			page 153


 8628 2826 02       		.byte	0x2
 8629 2827 3401     		.2byte	0x134
 8630 2829 5D280000 		.4byte	0x285d
 8631 282d 39       		.uleb128 0x39
 8632 282e E3100000 		.4byte	0x10e3
 8633 2832 39       		.uleb128 0x39
 8634 2833 D8100000 		.4byte	0x10d8
 8635 2837 3A       		.uleb128 0x3a
 8636 2838 820F0000 		.4byte	0xf82
 8637 283c C4020000 		.4byte	.LBB541
 8638 2840 38050000 		.4byte	.Ldebug_ranges0+0x538
 8639 2844 02       		.byte	0x2
 8640 2845 CD       		.byte	0xcd
 8641 2846 39       		.uleb128 0x39
 8642 2847 990F0000 		.4byte	0xf99
 8643 284b 39       		.uleb128 0x39
 8644 284c 8E0F0000 		.4byte	0xf8e
 8645 2850 2D       		.uleb128 0x2d
 8646 2851 38050000 		.4byte	.Ldebug_ranges0+0x538
 8647 2855 41       		.uleb128 0x41
 8648 2856 A40F0000 		.4byte	0xfa4
 8649 285a 00       		.byte	0
 8650 285b 00       		.byte	0
 8651 285c 00       		.byte	0
 8652 285d 2B       		.uleb128 0x2b
 8653 285e CC100000 		.4byte	0x10cc
 8654 2862 12030000 		.4byte	.LBB549
 8655 2866 58050000 		.4byte	.Ldebug_ranges0+0x558
 8656 286a 02       		.byte	0x2
 8657 286b 4101     		.2byte	0x141
 8658 286d B5280000 		.4byte	0x28b5
 8659 2871 2C       		.uleb128 0x2c
 8660 2872 E3100000 		.4byte	0x10e3
 8661 2876 EF210000 		.4byte	.LLST168
 8662 287a 2C       		.uleb128 0x2c
 8663 287b D8100000 		.4byte	0x10d8
 8664 287f 06220000 		.4byte	.LLST169
 8665 2883 3A       		.uleb128 0x3a
 8666 2884 820F0000 		.4byte	0xf82
 8667 2888 12030000 		.4byte	.LBB550
 8668 288c 58050000 		.4byte	.Ldebug_ranges0+0x558
 8669 2890 02       		.byte	0x2
 8670 2891 CD       		.byte	0xcd
 8671 2892 2C       		.uleb128 0x2c
 8672 2893 990F0000 		.4byte	0xf99
 8673 2897 06220000 		.4byte	.LLST169
 8674 289b 2C       		.uleb128 0x2c
 8675 289c 8E0F0000 		.4byte	0xf8e
 8676 28a0 EF210000 		.4byte	.LLST168
 8677 28a4 2D       		.uleb128 0x2d
 8678 28a5 58050000 		.4byte	.Ldebug_ranges0+0x558
 8679 28a9 2E       		.uleb128 0x2e
 8680 28aa A40F0000 		.4byte	0xfa4
 8681 28ae 1E220000 		.4byte	.LLST172
 8682 28b2 00       		.byte	0
 8683 28b3 00       		.byte	0
 8684 28b4 00       		.byte	0
ARM GAS  C:\Users\IDONNO~1\AppData\Local\Temp\ccY27Fyg.s 			page 154


 8685 28b5 2B       		.uleb128 0x2b
 8686 28b6 CC100000 		.4byte	0x10cc
 8687 28ba 40030000 		.4byte	.LBB558
 8688 28be 78050000 		.4byte	.Ldebug_ranges0+0x578
 8689 28c2 02       		.byte	0x2
 8690 28c3 3B01     		.2byte	0x13b
 8691 28c5 0D290000 		.4byte	0x290d
 8692 28c9 2C       		.uleb128 0x2c
 8693 28ca E3100000 		.4byte	0x10e3
 8694 28ce 3C220000 		.4byte	.LLST173
 8695 28d2 2C       		.uleb128 0x2c
 8696 28d3 D8100000 		.4byte	0x10d8
 8697 28d7 53220000 		.4byte	.LLST174
 8698 28db 3A       		.uleb128 0x3a
 8699 28dc 820F0000 		.4byte	0xf82
 8700 28e0 40030000 		.4byte	.LBB559
 8701 28e4 78050000 		.4byte	.Ldebug_ranges0+0x578
 8702 28e8 02       		.byte	0x2
 8703 28e9 CD       		.byte	0xcd
 8704 28ea 2C       		.uleb128 0x2c
 8705 28eb 990F0000 		.4byte	0xf99
 8706 28ef 53220000 		.4byte	.LLST174
 8707 28f3 2C       		.uleb128 0x2c
 8708 28f4 8E0F0000 		.4byte	0xf8e
 8709 28f8 3C220000 		.4byte	.LLST173
 8710 28fc 2D       		.uleb128 0x2d
 8711 28fd 78050000 		.4byte	.Ldebug_ranges0+0x578
 8712 2901 2E       		.uleb128 0x2e
 8713 2902 A40F0000 		.4byte	0xfa4
 8714 2906 6B220000 		.4byte	.LLST177
 8715 290a 00       		.byte	0
 8716 290b 00       		.byte	0
 8717 290c 00       		.byte	0
 8718 290d 2B       		.uleb128 0x2b
 8719 290e CC100000 		.4byte	0x10cc
 8720 2912 6E030000 		.4byte	.LBB567
 8721 2916 98050000 		.4byte	.Ldebug_ranges0+0x598
 8722 291a 02       		.byte	0x2
 8723 291b 4701     		.2byte	0x147
 8724 291d 65290000 		.4byte	0x2965
 8725 2921 2C       		.uleb128 0x2c
 8726 2922 E3100000 		.4byte	0x10e3
 8727 2926 89220000 		.4byte	.LLST178
 8728 292a 2C       		.uleb128 0x2c
 8729 292b D8100000 		.4byte	0x10d8
 8730 292f A0220000 		.4byte	.LLST179
 8731 2933 3A       		.uleb128 0x3a
 8732 2934 820F0000 		.4byte	0xf82
 8733 2938 6E030000 		.4byte	.LBB568
 8734 293c 98050000 		.4byte	.Ldebug_ranges0+0x598
 8735 2940 02       		.byte	0x2
 8736 2941 CD       		.byte	0xcd
 8737 2942 2C       		.uleb128 0x2c
 8738 2943 990F0000 		.4byte	0xf99
 8739 2947 A0220000 		.4byte	.LLST179
 8740 294b 2C       		.uleb128 0x2c
 8741 294c 8E0F0000 		.4byte	0xf8e
ARM GAS  C:\Users\IDONNO~1\AppData\Local\Temp\ccY27Fyg.s 			page 155


 8742 2950 89220000 		.4byte	.LLST178
 8743 2954 2D       		.uleb128 0x2d
 8744 2955 98050000 		.4byte	.Ldebug_ranges0+0x598
 8745 2959 2E       		.uleb128 0x2e
 8746 295a A40F0000 		.4byte	0xfa4
 8747 295e B8220000 		.4byte	.LLST182
 8748 2962 00       		.byte	0
 8749 2963 00       		.byte	0
 8750 2964 00       		.byte	0
 8751 2965 2B       		.uleb128 0x2b
 8752 2966 CC100000 		.4byte	0x10cc
 8753 296a 9C030000 		.4byte	.LBB576
 8754 296e B8050000 		.4byte	.Ldebug_ranges0+0x5b8
 8755 2972 02       		.byte	0x2
 8756 2973 5501     		.2byte	0x155
 8757 2975 BD290000 		.4byte	0x29bd
 8758 2979 2C       		.uleb128 0x2c
 8759 297a E3100000 		.4byte	0x10e3
 8760 297e D6220000 		.4byte	.LLST183
 8761 2982 2C       		.uleb128 0x2c
 8762 2983 D8100000 		.4byte	0x10d8
 8763 2987 ED220000 		.4byte	.LLST184
 8764 298b 3A       		.uleb128 0x3a
 8765 298c 820F0000 		.4byte	0xf82
 8766 2990 9C030000 		.4byte	.LBB577
 8767 2994 B8050000 		.4byte	.Ldebug_ranges0+0x5b8
 8768 2998 02       		.byte	0x2
 8769 2999 CD       		.byte	0xcd
 8770 299a 2C       		.uleb128 0x2c
 8771 299b 990F0000 		.4byte	0xf99
 8772 299f ED220000 		.4byte	.LLST184
 8773 29a3 2C       		.uleb128 0x2c
 8774 29a4 8E0F0000 		.4byte	0xf8e
 8775 29a8 D6220000 		.4byte	.LLST183
 8776 29ac 2D       		.uleb128 0x2d
 8777 29ad B8050000 		.4byte	.Ldebug_ranges0+0x5b8
 8778 29b1 2E       		.uleb128 0x2e
 8779 29b2 A40F0000 		.4byte	0xfa4
 8780 29b6 05230000 		.4byte	.LLST187
 8781 29ba 00       		.byte	0
 8782 29bb 00       		.byte	0
 8783 29bc 00       		.byte	0
 8784 29bd 2B       		.uleb128 0x2b
 8785 29be CC100000 		.4byte	0x10cc
 8786 29c2 E6030000 		.4byte	.LBB585
 8787 29c6 D8050000 		.4byte	.Ldebug_ranges0+0x5d8
 8788 29ca 02       		.byte	0x2
 8789 29cb 6201     		.2byte	0x162
 8790 29cd 152A0000 		.4byte	0x2a15
 8791 29d1 2C       		.uleb128 0x2c
 8792 29d2 E3100000 		.4byte	0x10e3
 8793 29d6 33230000 		.4byte	.LLST188
 8794 29da 2C       		.uleb128 0x2c
 8795 29db D8100000 		.4byte	0x10d8
 8796 29df 74230000 		.4byte	.LLST189
 8797 29e3 3A       		.uleb128 0x3a
 8798 29e4 820F0000 		.4byte	0xf82
ARM GAS  C:\Users\IDONNO~1\AppData\Local\Temp\ccY27Fyg.s 			page 156


 8799 29e8 E6030000 		.4byte	.LBB586
 8800 29ec D8050000 		.4byte	.Ldebug_ranges0+0x5d8
 8801 29f0 02       		.byte	0x2
 8802 29f1 CD       		.byte	0xcd
 8803 29f2 2C       		.uleb128 0x2c
 8804 29f3 990F0000 		.4byte	0xf99
 8805 29f7 74230000 		.4byte	.LLST189
 8806 29fb 2C       		.uleb128 0x2c
 8807 29fc 8E0F0000 		.4byte	0xf8e
 8808 2a00 33230000 		.4byte	.LLST188
 8809 2a04 2D       		.uleb128 0x2d
 8810 2a05 D8050000 		.4byte	.Ldebug_ranges0+0x5d8
 8811 2a09 2E       		.uleb128 0x2e
 8812 2a0a A40F0000 		.4byte	0xfa4
 8813 2a0e 8C230000 		.4byte	.LLST192
 8814 2a12 00       		.byte	0
 8815 2a13 00       		.byte	0
 8816 2a14 00       		.byte	0
 8817 2a15 2B       		.uleb128 0x2b
 8818 2a16 CC100000 		.4byte	0x10cc
 8819 2a1a 20040000 		.4byte	.LBB594
 8820 2a1e F8050000 		.4byte	.Ldebug_ranges0+0x5f8
 8821 2a22 02       		.byte	0x2
 8822 2a23 6B01     		.2byte	0x16b
 8823 2a25 6D2A0000 		.4byte	0x2a6d
 8824 2a29 2C       		.uleb128 0x2c
 8825 2a2a E3100000 		.4byte	0x10e3
 8826 2a2e BA230000 		.4byte	.LLST193
 8827 2a32 2C       		.uleb128 0x2c
 8828 2a33 D8100000 		.4byte	0x10d8
 8829 2a37 DC230000 		.4byte	.LLST194
 8830 2a3b 3A       		.uleb128 0x3a
 8831 2a3c 820F0000 		.4byte	0xf82
 8832 2a40 20040000 		.4byte	.LBB595
 8833 2a44 F8050000 		.4byte	.Ldebug_ranges0+0x5f8
 8834 2a48 02       		.byte	0x2
 8835 2a49 CD       		.byte	0xcd
 8836 2a4a 2C       		.uleb128 0x2c
 8837 2a4b 990F0000 		.4byte	0xf99
 8838 2a4f DC230000 		.4byte	.LLST194
 8839 2a53 2C       		.uleb128 0x2c
 8840 2a54 8E0F0000 		.4byte	0xf8e
 8841 2a58 BA230000 		.4byte	.LLST193
 8842 2a5c 2D       		.uleb128 0x2d
 8843 2a5d F8050000 		.4byte	.Ldebug_ranges0+0x5f8
 8844 2a61 2E       		.uleb128 0x2e
 8845 2a62 A40F0000 		.4byte	0xfa4
 8846 2a66 F4230000 		.4byte	.LLST197
 8847 2a6a 00       		.byte	0
 8848 2a6b 00       		.byte	0
 8849 2a6c 00       		.byte	0
 8850 2a6d 2B       		.uleb128 0x2b
 8851 2a6e B4100000 		.4byte	0x10b4
 8852 2a72 28050000 		.4byte	.LBB603
 8853 2a76 18060000 		.4byte	.Ldebug_ranges0+0x618
 8854 2a7a 02       		.byte	0x2
 8855 2a7b 1D01     		.2byte	0x11d
ARM GAS  C:\Users\IDONNO~1\AppData\Local\Temp\ccY27Fyg.s 			page 157


 8856 2a7d A42A0000 		.4byte	0x2aa4
 8857 2a81 2C       		.uleb128 0x2c
 8858 2a82 C0100000 		.4byte	0x10c0
 8859 2a86 70240000 		.4byte	.LLST198
 8860 2a8a 3A       		.uleb128 0x3a
 8861 2a8b 640F0000 		.4byte	0xf64
 8862 2a8f 28050000 		.4byte	.LBB604
 8863 2a93 18060000 		.4byte	.Ldebug_ranges0+0x618
 8864 2a97 02       		.byte	0x2
 8865 2a98 C8       		.byte	0xc8
 8866 2a99 2C       		.uleb128 0x2c
 8867 2a9a 700F0000 		.4byte	0xf70
 8868 2a9e 88240000 		.4byte	.LLST199
 8869 2aa2 00       		.byte	0
 8870 2aa3 00       		.byte	0
 8871 2aa4 2F       		.uleb128 0x2f
 8872 2aa5 AC000000 		.4byte	.LVL177
 8873 2aa9 062C0000 		.4byte	0x2c06
 8874 2aad 30       		.uleb128 0x30
 8875 2aae 01       		.uleb128 0x1
 8876 2aaf 50       		.byte	0x50
 8877 2ab0 02       		.uleb128 0x2
 8878 2ab1 7B       		.byte	0x7b
 8879 2ab2 00       		.sleb128 0
 8880 2ab3 30       		.uleb128 0x30
 8881 2ab4 01       		.uleb128 0x1
 8882 2ab5 51       		.byte	0x51
 8883 2ab6 03       		.uleb128 0x3
 8884 2ab7 79       		.byte	0x79
 8885 2ab8 9002     		.sleb128 272
 8886 2aba 30       		.uleb128 0x30
 8887 2abb 01       		.uleb128 0x1
 8888 2abc 52       		.byte	0x52
 8889 2abd 03       		.uleb128 0x3
 8890 2abe 0A       		.byte	0xa
 8891 2abf 1001     		.2byte	0x110
 8892 2ac1 00       		.byte	0
 8893 2ac2 00       		.byte	0
 8894 2ac3 00       		.byte	0
 8895 2ac4 00       		.byte	0
 8896 2ac5 2D       		.uleb128 0x2d
 8897 2ac6 38060000 		.4byte	.Ldebug_ranges0+0x638
 8898 2aca 41       		.uleb128 0x41
 8899 2acb 85210000 		.4byte	0x2185
 8900 2acf 41       		.uleb128 0x41
 8901 2ad0 91210000 		.4byte	0x2191
 8902 2ad4 4E       		.uleb128 0x4e
 8903 2ad5 B4100000 		.4byte	0x10b4
 8904 2ad9 0A050000 		.4byte	.LBB638
 8905 2add 58060000 		.4byte	.Ldebug_ranges0+0x658
 8906 2ae1 02       		.byte	0x2
 8907 2ae2 1302     		.2byte	0x213
 8908 2ae4 2C       		.uleb128 0x2c
 8909 2ae5 C0100000 		.4byte	0x10c0
 8910 2ae9 A0240000 		.4byte	.LLST200
 8911 2aed 3A       		.uleb128 0x3a
 8912 2aee 640F0000 		.4byte	0xf64
ARM GAS  C:\Users\IDONNO~1\AppData\Local\Temp\ccY27Fyg.s 			page 158


 8913 2af2 0A050000 		.4byte	.LBB639
 8914 2af6 58060000 		.4byte	.Ldebug_ranges0+0x658
 8915 2afa 02       		.byte	0x2
 8916 2afb C8       		.byte	0xc8
 8917 2afc 2C       		.uleb128 0x2c
 8918 2afd 700F0000 		.4byte	0xf70
 8919 2b01 B8240000 		.4byte	.LLST201
 8920 2b05 00       		.byte	0
 8921 2b06 00       		.byte	0
 8922 2b07 00       		.byte	0
 8923 2b08 00       		.byte	0
 8924 2b09 00       		.byte	0
 8925 2b0a 00       		.byte	0
 8926 2b0b 15       		.uleb128 0x15
 8927 2b0c 7B0B0000 		.4byte	0xb7b
 8928 2b10 1B2B0000 		.4byte	0x2b1b
 8929 2b14 16       		.uleb128 0x16
 8930 2b15 85040000 		.4byte	0x485
 8931 2b19 00       		.byte	0
 8932 2b1a 00       		.byte	0
 8933 2b1b 15       		.uleb128 0x15
 8934 2b1c 9D0C0000 		.4byte	0xc9d
 8935 2b20 2B2B0000 		.4byte	0x2b2b
 8936 2b24 16       		.uleb128 0x16
 8937 2b25 85040000 		.4byte	0x485
 8938 2b29 00       		.byte	0
 8939 2b2a 00       		.byte	0
 8940 2b2b 26       		.uleb128 0x26
 8941 2b2c D9040000 		.4byte	.LASF324
 8942 2b30 01       		.byte	0x1
 8943 2b31 7E01     		.2byte	0x17e
 8944 2b33 00000000 		.4byte	.LFB419
 8945 2b37 48000000 		.4byte	.LFE419-.LFB419
 8946 2b3b 01       		.uleb128 0x1
 8947 2b3c 9C       		.byte	0x9c
 8948 2b3d AB2B0000 		.4byte	0x2bab
 8949 2b41 28       		.uleb128 0x28
 8950 2b42 7F0C0000 		.4byte	.LASF45
 8951 2b46 01       		.byte	0x1
 8952 2b47 7E01     		.2byte	0x17e
 8953 2b49 9D110000 		.4byte	0x119d
 8954 2b4d D0240000 		.4byte	.LLST202
 8955 2b51 4F       		.uleb128 0x4f
 8956 2b52 20000000 		.4byte	.LVL320
 8957 2b56 B5160000 		.4byte	0x16b5
 8958 2b5a 6B2B0000 		.4byte	0x2b6b
 8959 2b5e 30       		.uleb128 0x30
 8960 2b5f 01       		.uleb128 0x1
 8961 2b60 50       		.byte	0x50
 8962 2b61 03       		.uleb128 0x3
 8963 2b62 F3       		.byte	0xf3
 8964 2b63 01       		.uleb128 0x1
 8965 2b64 50       		.byte	0x50
 8966 2b65 30       		.uleb128 0x30
 8967 2b66 01       		.uleb128 0x1
 8968 2b67 51       		.byte	0x51
 8969 2b68 01       		.uleb128 0x1
ARM GAS  C:\Users\IDONNO~1\AppData\Local\Temp\ccY27Fyg.s 			page 159


 8970 2b69 31       		.byte	0x31
 8971 2b6a 00       		.byte	0
 8972 2b6b 50       		.uleb128 0x50
 8973 2b6c 30000000 		.4byte	.LVL321
 8974 2b70 64110000 		.4byte	0x1164
 8975 2b74 50       		.uleb128 0x50
 8976 2b75 34000000 		.4byte	.LVL322
 8977 2b79 1D1A0000 		.4byte	0x1a1d
 8978 2b7d 50       		.uleb128 0x50
 8979 2b7e 38000000 		.4byte	.LVL323
 8980 2b82 E31F0000 		.4byte	0x1fe3
 8981 2b86 50       		.uleb128 0x50
 8982 2b87 3C000000 		.4byte	.LVL324
 8983 2b8b E5110000 		.4byte	0x11e5
 8984 2b8f 50       		.uleb128 0x50
 8985 2b90 40000000 		.4byte	.LVL325
 8986 2b94 301B0000 		.4byte	0x1b30
 8987 2b98 50       		.uleb128 0x50
 8988 2b99 44000000 		.4byte	.LVL326
 8989 2b9d A3110000 		.4byte	0x11a3
 8990 2ba1 50       		.uleb128 0x50
 8991 2ba2 48000000 		.4byte	.LVL327
 8992 2ba6 DC180000 		.4byte	0x18dc
 8993 2baa 00       		.byte	0
 8994 2bab 51       		.uleb128 0x51
 8995 2bac 14080000 		.4byte	.LASF325
 8996 2bb0 1B       		.byte	0x1b
 8997 2bb1 A706     		.2byte	0x6a7
 8998 2bb3 E4000000 		.4byte	0xe4
 8999 2bb7 52       		.uleb128 0x52
 9000 2bb8 636800   		.ascii	"ch\000"
 9001 2bbb 11       		.byte	0x11
 9002 2bbc 0902     		.2byte	0x209
 9003 2bbe 1E040000 		.4byte	0x41e
 9004 2bc2 53       		.uleb128 0x53
 9005 2bc3 D9030000 		.4byte	.LASF326
 9006 2bc7 01       		.byte	0x1
 9007 2bc8 35       		.byte	0x35
 9008 2bc9 4E0F0000 		.4byte	0xf4e
 9009 2bcd 05       		.uleb128 0x5
 9010 2bce 03       		.byte	0x3
 9011 2bcf 00000000 		.4byte	gMsg
 9012 2bd3 53       		.uleb128 0x53
 9013 2bd4 2C0F0000 		.4byte	.LASF327
 9014 2bd8 01       		.byte	0x1
 9015 2bd9 30       		.byte	0x30
 9016 2bda 30070000 		.4byte	0x730
 9017 2bde 05       		.uleb128 0x5
 9018 2bdf 03       		.byte	0x3
 9019 2be0 00000000 		.4byte	board_name
 9020 2be4 53       		.uleb128 0x53
 9021 2be5 D5010000 		.4byte	.LASF328
 9022 2be9 01       		.byte	0x1
 9023 2bea 31       		.byte	0x31
 9024 2beb CE000000 		.4byte	0xce
 9025 2bef 05       		.uleb128 0x5
 9026 2bf0 03       		.byte	0x3
ARM GAS  C:\Users\IDONNO~1\AppData\Local\Temp\ccY27Fyg.s 			page 160


 9027 2bf1 00000000 		.4byte	boot_version
 9028 2bf5 53       		.uleb128 0x53
 9029 2bf6 21030000 		.4byte	.LASF329
 9030 2bfa 01       		.byte	0x1
 9031 2bfb 32       		.byte	0x32
 9032 2bfc CE000000 		.4byte	0xce
 9033 2c00 05       		.uleb128 0x5
 9034 2c01 03       		.byte	0x3
 9035 2c02 00000000 		.4byte	boot_revision
 9036 2c06 54       		.uleb128 0x54
 9037 2c07 A9120000 		.4byte	.LASF335
 9038 2c0b A9120000 		.4byte	.LASF335
 9039 2c0f 55       		.uleb128 0x55
 9040 2c10 00110000 		.4byte	.LASF330
 9041 2c14 00110000 		.4byte	.LASF330
 9042 2c18 1C       		.byte	0x1c
 9043 2c19 20       		.byte	0x20
 9044 2c1a 55       		.uleb128 0x55
 9045 2c1b CB000000 		.4byte	.LASF331
 9046 2c1f CB000000 		.4byte	.LASF331
 9047 2c23 1D       		.byte	0x1d
 9048 2c24 25       		.byte	0x25
 9049 2c25 55       		.uleb128 0x55
 9050 2c26 FA0C0000 		.4byte	.LASF332
 9051 2c2a FA0C0000 		.4byte	.LASF332
 9052 2c2e 1E       		.byte	0x1e
 9053 2c2f 79       		.byte	0x79
 9054 2c30 55       		.uleb128 0x55
 9055 2c31 D2000000 		.4byte	.LASF333
 9056 2c35 D2000000 		.4byte	.LASF333
 9057 2c39 1F       		.byte	0x1f
 9058 2c3a 8A       		.byte	0x8a
 9059 2c3b 55       		.uleb128 0x55
 9060 2c3c 4E110000 		.4byte	.LASF334
 9061 2c40 4E110000 		.4byte	.LASF334
 9062 2c44 20       		.byte	0x20
 9063 2c45 96       		.byte	0x96
 9064 2c46 55       		.uleb128 0x55
 9065 2c47 380E0000 		.4byte	.LASF308
 9066 2c4b 380E0000 		.4byte	.LASF308
 9067 2c4f 01       		.byte	0x1
 9068 2c50 EC       		.byte	0xec
 9069 2c51 54       		.uleb128 0x54
 9070 2c52 770B0000 		.4byte	.LASF336
 9071 2c56 770B0000 		.4byte	.LASF336
 9072 2c5a 55       		.uleb128 0x55
 9073 2c5b C7100000 		.4byte	.LASF337
 9074 2c5f C7100000 		.4byte	.LASF337
 9075 2c63 1E       		.byte	0x1e
 9076 2c64 7A       		.byte	0x7a
 9077 2c65 00       		.byte	0
 9078              		.section	.debug_abbrev,"",%progbits
 9079              	.Ldebug_abbrev0:
 9080 0000 01       		.uleb128 0x1
 9081 0001 11       		.uleb128 0x11
 9082 0002 01       		.byte	0x1
 9083 0003 25       		.uleb128 0x25
ARM GAS  C:\Users\IDONNO~1\AppData\Local\Temp\ccY27Fyg.s 			page 161


 9084 0004 0E       		.uleb128 0xe
 9085 0005 13       		.uleb128 0x13
 9086 0006 0B       		.uleb128 0xb
 9087 0007 03       		.uleb128 0x3
 9088 0008 0E       		.uleb128 0xe
 9089 0009 1B       		.uleb128 0x1b
 9090 000a 0E       		.uleb128 0xe
 9091 000b 55       		.uleb128 0x55
 9092 000c 17       		.uleb128 0x17
 9093 000d 11       		.uleb128 0x11
 9094 000e 01       		.uleb128 0x1
 9095 000f 10       		.uleb128 0x10
 9096 0010 17       		.uleb128 0x17
 9097 0011 00       		.byte	0
 9098 0012 00       		.byte	0
 9099 0013 02       		.uleb128 0x2
 9100 0014 24       		.uleb128 0x24
 9101 0015 00       		.byte	0
 9102 0016 0B       		.uleb128 0xb
 9103 0017 0B       		.uleb128 0xb
 9104 0018 3E       		.uleb128 0x3e
 9105 0019 0B       		.uleb128 0xb
 9106 001a 03       		.uleb128 0x3
 9107 001b 08       		.uleb128 0x8
 9108 001c 00       		.byte	0
 9109 001d 00       		.byte	0
 9110 001e 03       		.uleb128 0x3
 9111 001f 16       		.uleb128 0x16
 9112 0020 00       		.byte	0
 9113 0021 03       		.uleb128 0x3
 9114 0022 0E       		.uleb128 0xe
 9115 0023 3A       		.uleb128 0x3a
 9116 0024 0B       		.uleb128 0xb
 9117 0025 3B       		.uleb128 0x3b
 9118 0026 0B       		.uleb128 0xb
 9119 0027 49       		.uleb128 0x49
 9120 0028 13       		.uleb128 0x13
 9121 0029 00       		.byte	0
 9122 002a 00       		.byte	0
 9123 002b 04       		.uleb128 0x4
 9124 002c 24       		.uleb128 0x24
 9125 002d 00       		.byte	0
 9126 002e 0B       		.uleb128 0xb
 9127 002f 0B       		.uleb128 0xb
 9128 0030 3E       		.uleb128 0x3e
 9129 0031 0B       		.uleb128 0xb
 9130 0032 03       		.uleb128 0x3
 9131 0033 0E       		.uleb128 0xe
 9132 0034 00       		.byte	0
 9133 0035 00       		.byte	0
 9134 0036 05       		.uleb128 0x5
 9135 0037 35       		.uleb128 0x35
 9136 0038 00       		.byte	0
 9137 0039 49       		.uleb128 0x49
 9138 003a 13       		.uleb128 0x13
 9139 003b 00       		.byte	0
 9140 003c 00       		.byte	0
ARM GAS  C:\Users\IDONNO~1\AppData\Local\Temp\ccY27Fyg.s 			page 162


 9141 003d 06       		.uleb128 0x6
 9142 003e 13       		.uleb128 0x13
 9143 003f 01       		.byte	0x1
 9144 0040 03       		.uleb128 0x3
 9145 0041 0E       		.uleb128 0xe
 9146 0042 0B       		.uleb128 0xb
 9147 0043 0B       		.uleb128 0xb
 9148 0044 3A       		.uleb128 0x3a
 9149 0045 0B       		.uleb128 0xb
 9150 0046 3B       		.uleb128 0x3b
 9151 0047 0B       		.uleb128 0xb
 9152 0048 01       		.uleb128 0x1
 9153 0049 13       		.uleb128 0x13
 9154 004a 00       		.byte	0
 9155 004b 00       		.byte	0
 9156 004c 07       		.uleb128 0x7
 9157 004d 0D       		.uleb128 0xd
 9158 004e 00       		.byte	0
 9159 004f 03       		.uleb128 0x3
 9160 0050 0E       		.uleb128 0xe
 9161 0051 3A       		.uleb128 0x3a
 9162 0052 0B       		.uleb128 0xb
 9163 0053 3B       		.uleb128 0x3b
 9164 0054 0B       		.uleb128 0xb
 9165 0055 49       		.uleb128 0x49
 9166 0056 13       		.uleb128 0x13
 9167 0057 38       		.uleb128 0x38
 9168 0058 0B       		.uleb128 0xb
 9169 0059 00       		.byte	0
 9170 005a 00       		.byte	0
 9171 005b 08       		.uleb128 0x8
 9172 005c 0D       		.uleb128 0xd
 9173 005d 00       		.byte	0
 9174 005e 03       		.uleb128 0x3
 9175 005f 08       		.uleb128 0x8
 9176 0060 3A       		.uleb128 0x3a
 9177 0061 0B       		.uleb128 0xb
 9178 0062 3B       		.uleb128 0x3b
 9179 0063 05       		.uleb128 0x5
 9180 0064 49       		.uleb128 0x49
 9181 0065 13       		.uleb128 0x13
 9182 0066 38       		.uleb128 0x38
 9183 0067 0B       		.uleb128 0xb
 9184 0068 00       		.byte	0
 9185 0069 00       		.byte	0
 9186 006a 09       		.uleb128 0x9
 9187 006b 0D       		.uleb128 0xd
 9188 006c 00       		.byte	0
 9189 006d 03       		.uleb128 0x3
 9190 006e 0E       		.uleb128 0xe
 9191 006f 3A       		.uleb128 0x3a
 9192 0070 0B       		.uleb128 0xb
 9193 0071 3B       		.uleb128 0x3b
 9194 0072 05       		.uleb128 0x5
 9195 0073 49       		.uleb128 0x49
 9196 0074 13       		.uleb128 0x13
 9197 0075 38       		.uleb128 0x38
ARM GAS  C:\Users\IDONNO~1\AppData\Local\Temp\ccY27Fyg.s 			page 163


 9198 0076 0B       		.uleb128 0xb
 9199 0077 00       		.byte	0
 9200 0078 00       		.byte	0
 9201 0079 0A       		.uleb128 0xa
 9202 007a 0F       		.uleb128 0xf
 9203 007b 00       		.byte	0
 9204 007c 0B       		.uleb128 0xb
 9205 007d 0B       		.uleb128 0xb
 9206 007e 49       		.uleb128 0x49
 9207 007f 13       		.uleb128 0x13
 9208 0080 00       		.byte	0
 9209 0081 00       		.byte	0
 9210 0082 0B       		.uleb128 0xb
 9211 0083 13       		.uleb128 0x13
 9212 0084 01       		.byte	0x1
 9213 0085 03       		.uleb128 0x3
 9214 0086 0E       		.uleb128 0xe
 9215 0087 0B       		.uleb128 0xb
 9216 0088 0B       		.uleb128 0xb
 9217 0089 3A       		.uleb128 0x3a
 9218 008a 0B       		.uleb128 0xb
 9219 008b 3B       		.uleb128 0x3b
 9220 008c 05       		.uleb128 0x5
 9221 008d 01       		.uleb128 0x1
 9222 008e 13       		.uleb128 0x13
 9223 008f 00       		.byte	0
 9224 0090 00       		.byte	0
 9225 0091 0C       		.uleb128 0xc
 9226 0092 15       		.uleb128 0x15
 9227 0093 01       		.byte	0x1
 9228 0094 27       		.uleb128 0x27
 9229 0095 19       		.uleb128 0x19
 9230 0096 01       		.uleb128 0x1
 9231 0097 13       		.uleb128 0x13
 9232 0098 00       		.byte	0
 9233 0099 00       		.byte	0
 9234 009a 0D       		.uleb128 0xd
 9235 009b 05       		.uleb128 0x5
 9236 009c 00       		.byte	0
 9237 009d 49       		.uleb128 0x49
 9238 009e 13       		.uleb128 0x13
 9239 009f 00       		.byte	0
 9240 00a0 00       		.byte	0
 9241 00a1 0E       		.uleb128 0xe
 9242 00a2 0F       		.uleb128 0xf
 9243 00a3 00       		.byte	0
 9244 00a4 0B       		.uleb128 0xb
 9245 00a5 0B       		.uleb128 0xb
 9246 00a6 00       		.byte	0
 9247 00a7 00       		.byte	0
 9248 00a8 0F       		.uleb128 0xf
 9249 00a9 13       		.uleb128 0x13
 9250 00aa 01       		.byte	0x1
 9251 00ab 03       		.uleb128 0x3
 9252 00ac 0E       		.uleb128 0xe
 9253 00ad 0B       		.uleb128 0xb
 9254 00ae 05       		.uleb128 0x5
ARM GAS  C:\Users\IDONNO~1\AppData\Local\Temp\ccY27Fyg.s 			page 164


 9255 00af 3A       		.uleb128 0x3a
 9256 00b0 0B       		.uleb128 0xb
 9257 00b1 3B       		.uleb128 0x3b
 9258 00b2 05       		.uleb128 0x5
 9259 00b3 01       		.uleb128 0x1
 9260 00b4 13       		.uleb128 0x13
 9261 00b5 00       		.byte	0
 9262 00b6 00       		.byte	0
 9263 00b7 10       		.uleb128 0x10
 9264 00b8 0D       		.uleb128 0xd
 9265 00b9 00       		.byte	0
 9266 00ba 03       		.uleb128 0x3
 9267 00bb 08       		.uleb128 0x8
 9268 00bc 3A       		.uleb128 0x3a
 9269 00bd 0B       		.uleb128 0xb
 9270 00be 3B       		.uleb128 0x3b
 9271 00bf 0B       		.uleb128 0xb
 9272 00c0 49       		.uleb128 0x49
 9273 00c1 13       		.uleb128 0x13
 9274 00c2 38       		.uleb128 0x38
 9275 00c3 0B       		.uleb128 0xb
 9276 00c4 00       		.byte	0
 9277 00c5 00       		.byte	0
 9278 00c6 11       		.uleb128 0x11
 9279 00c7 13       		.uleb128 0x13
 9280 00c8 01       		.byte	0x1
 9281 00c9 0B       		.uleb128 0xb
 9282 00ca 0B       		.uleb128 0xb
 9283 00cb 3A       		.uleb128 0x3a
 9284 00cc 0B       		.uleb128 0xb
 9285 00cd 3B       		.uleb128 0x3b
 9286 00ce 0B       		.uleb128 0xb
 9287 00cf 01       		.uleb128 0x1
 9288 00d0 13       		.uleb128 0x13
 9289 00d1 00       		.byte	0
 9290 00d2 00       		.byte	0
 9291 00d3 12       		.uleb128 0x12
 9292 00d4 17       		.uleb128 0x17
 9293 00d5 01       		.byte	0x1
 9294 00d6 0B       		.uleb128 0xb
 9295 00d7 0B       		.uleb128 0xb
 9296 00d8 3A       		.uleb128 0x3a
 9297 00d9 0B       		.uleb128 0xb
 9298 00da 3B       		.uleb128 0x3b
 9299 00db 0B       		.uleb128 0xb
 9300 00dc 01       		.uleb128 0x1
 9301 00dd 13       		.uleb128 0x13
 9302 00de 00       		.byte	0
 9303 00df 00       		.byte	0
 9304 00e0 13       		.uleb128 0x13
 9305 00e1 0D       		.uleb128 0xd
 9306 00e2 00       		.byte	0
 9307 00e3 03       		.uleb128 0x3
 9308 00e4 0E       		.uleb128 0xe
 9309 00e5 3A       		.uleb128 0x3a
 9310 00e6 0B       		.uleb128 0xb
 9311 00e7 3B       		.uleb128 0x3b
ARM GAS  C:\Users\IDONNO~1\AppData\Local\Temp\ccY27Fyg.s 			page 165


 9312 00e8 05       		.uleb128 0x5
 9313 00e9 49       		.uleb128 0x49
 9314 00ea 13       		.uleb128 0x13
 9315 00eb 00       		.byte	0
 9316 00ec 00       		.byte	0
 9317 00ed 14       		.uleb128 0x14
 9318 00ee 26       		.uleb128 0x26
 9319 00ef 00       		.byte	0
 9320 00f0 49       		.uleb128 0x49
 9321 00f1 13       		.uleb128 0x13
 9322 00f2 00       		.byte	0
 9323 00f3 00       		.byte	0
 9324 00f4 15       		.uleb128 0x15
 9325 00f5 01       		.uleb128 0x1
 9326 00f6 01       		.byte	0x1
 9327 00f7 49       		.uleb128 0x49
 9328 00f8 13       		.uleb128 0x13
 9329 00f9 01       		.uleb128 0x1
 9330 00fa 13       		.uleb128 0x13
 9331 00fb 00       		.byte	0
 9332 00fc 00       		.byte	0
 9333 00fd 16       		.uleb128 0x16
 9334 00fe 21       		.uleb128 0x21
 9335 00ff 00       		.byte	0
 9336 0100 49       		.uleb128 0x49
 9337 0101 13       		.uleb128 0x13
 9338 0102 2F       		.uleb128 0x2f
 9339 0103 0B       		.uleb128 0xb
 9340 0104 00       		.byte	0
 9341 0105 00       		.byte	0
 9342 0106 17       		.uleb128 0x17
 9343 0107 04       		.uleb128 0x4
 9344 0108 01       		.byte	0x1
 9345 0109 0B       		.uleb128 0xb
 9346 010a 0B       		.uleb128 0xb
 9347 010b 49       		.uleb128 0x49
 9348 010c 13       		.uleb128 0x13
 9349 010d 3A       		.uleb128 0x3a
 9350 010e 0B       		.uleb128 0xb
 9351 010f 3B       		.uleb128 0x3b
 9352 0110 0B       		.uleb128 0xb
 9353 0111 01       		.uleb128 0x1
 9354 0112 13       		.uleb128 0x13
 9355 0113 00       		.byte	0
 9356 0114 00       		.byte	0
 9357 0115 18       		.uleb128 0x18
 9358 0116 28       		.uleb128 0x28
 9359 0117 00       		.byte	0
 9360 0118 03       		.uleb128 0x3
 9361 0119 0E       		.uleb128 0xe
 9362 011a 1C       		.uleb128 0x1c
 9363 011b 0B       		.uleb128 0xb
 9364 011c 00       		.byte	0
 9365 011d 00       		.byte	0
 9366 011e 19       		.uleb128 0x19
 9367 011f 13       		.uleb128 0x13
 9368 0120 01       		.byte	0x1
ARM GAS  C:\Users\IDONNO~1\AppData\Local\Temp\ccY27Fyg.s 			page 166


 9369 0121 03       		.uleb128 0x3
 9370 0122 0E       		.uleb128 0xe
 9371 0123 0B       		.uleb128 0xb
 9372 0124 05       		.uleb128 0x5
 9373 0125 3A       		.uleb128 0x3a
 9374 0126 0B       		.uleb128 0xb
 9375 0127 3B       		.uleb128 0x3b
 9376 0128 0B       		.uleb128 0xb
 9377 0129 01       		.uleb128 0x1
 9378 012a 13       		.uleb128 0x13
 9379 012b 00       		.byte	0
 9380 012c 00       		.byte	0
 9381 012d 1A       		.uleb128 0x1a
 9382 012e 2E       		.uleb128 0x2e
 9383 012f 01       		.byte	0x1
 9384 0130 03       		.uleb128 0x3
 9385 0131 0E       		.uleb128 0xe
 9386 0132 3A       		.uleb128 0x3a
 9387 0133 0B       		.uleb128 0xb
 9388 0134 3B       		.uleb128 0x3b
 9389 0135 0B       		.uleb128 0xb
 9390 0136 27       		.uleb128 0x27
 9391 0137 19       		.uleb128 0x19
 9392 0138 20       		.uleb128 0x20
 9393 0139 0B       		.uleb128 0xb
 9394 013a 01       		.uleb128 0x1
 9395 013b 13       		.uleb128 0x13
 9396 013c 00       		.byte	0
 9397 013d 00       		.byte	0
 9398 013e 1B       		.uleb128 0x1b
 9399 013f 05       		.uleb128 0x5
 9400 0140 00       		.byte	0
 9401 0141 03       		.uleb128 0x3
 9402 0142 0E       		.uleb128 0xe
 9403 0143 3A       		.uleb128 0x3a
 9404 0144 0B       		.uleb128 0xb
 9405 0145 3B       		.uleb128 0x3b
 9406 0146 0B       		.uleb128 0xb
 9407 0147 49       		.uleb128 0x49
 9408 0148 13       		.uleb128 0x13
 9409 0149 00       		.byte	0
 9410 014a 00       		.byte	0
 9411 014b 1C       		.uleb128 0x1c
 9412 014c 34       		.uleb128 0x34
 9413 014d 00       		.byte	0
 9414 014e 03       		.uleb128 0x3
 9415 014f 08       		.uleb128 0x8
 9416 0150 3A       		.uleb128 0x3a
 9417 0151 0B       		.uleb128 0xb
 9418 0152 3B       		.uleb128 0x3b
 9419 0153 0B       		.uleb128 0xb
 9420 0154 49       		.uleb128 0x49
 9421 0155 13       		.uleb128 0x13
 9422 0156 00       		.byte	0
 9423 0157 00       		.byte	0
 9424 0158 1D       		.uleb128 0x1d
 9425 0159 2E       		.uleb128 0x2e
ARM GAS  C:\Users\IDONNO~1\AppData\Local\Temp\ccY27Fyg.s 			page 167


 9426 015a 01       		.byte	0x1
 9427 015b 03       		.uleb128 0x3
 9428 015c 0E       		.uleb128 0xe
 9429 015d 3A       		.uleb128 0x3a
 9430 015e 0B       		.uleb128 0xb
 9431 015f 3B       		.uleb128 0x3b
 9432 0160 0B       		.uleb128 0xb
 9433 0161 27       		.uleb128 0x27
 9434 0162 19       		.uleb128 0x19
 9435 0163 49       		.uleb128 0x49
 9436 0164 13       		.uleb128 0x13
 9437 0165 20       		.uleb128 0x20
 9438 0166 0B       		.uleb128 0xb
 9439 0167 01       		.uleb128 0x1
 9440 0168 13       		.uleb128 0x13
 9441 0169 00       		.byte	0
 9442 016a 00       		.byte	0
 9443 016b 1E       		.uleb128 0x1e
 9444 016c 34       		.uleb128 0x34
 9445 016d 00       		.byte	0
 9446 016e 03       		.uleb128 0x3
 9447 016f 0E       		.uleb128 0xe
 9448 0170 3A       		.uleb128 0x3a
 9449 0171 0B       		.uleb128 0xb
 9450 0172 3B       		.uleb128 0x3b
 9451 0173 0B       		.uleb128 0xb
 9452 0174 49       		.uleb128 0x49
 9453 0175 13       		.uleb128 0x13
 9454 0176 00       		.byte	0
 9455 0177 00       		.byte	0
 9456 0178 1F       		.uleb128 0x1f
 9457 0179 05       		.uleb128 0x5
 9458 017a 00       		.byte	0
 9459 017b 03       		.uleb128 0x3
 9460 017c 08       		.uleb128 0x8
 9461 017d 3A       		.uleb128 0x3a
 9462 017e 0B       		.uleb128 0xb
 9463 017f 3B       		.uleb128 0x3b
 9464 0180 0B       		.uleb128 0xb
 9465 0181 49       		.uleb128 0x49
 9466 0182 13       		.uleb128 0x13
 9467 0183 00       		.byte	0
 9468 0184 00       		.byte	0
 9469 0185 20       		.uleb128 0x20
 9470 0186 2E       		.uleb128 0x2e
 9471 0187 01       		.byte	0x1
 9472 0188 03       		.uleb128 0x3
 9473 0189 0E       		.uleb128 0xe
 9474 018a 3A       		.uleb128 0x3a
 9475 018b 0B       		.uleb128 0xb
 9476 018c 3B       		.uleb128 0x3b
 9477 018d 05       		.uleb128 0x5
 9478 018e 27       		.uleb128 0x27
 9479 018f 19       		.uleb128 0x19
 9480 0190 49       		.uleb128 0x49
 9481 0191 13       		.uleb128 0x13
 9482 0192 20       		.uleb128 0x20
ARM GAS  C:\Users\IDONNO~1\AppData\Local\Temp\ccY27Fyg.s 			page 168


 9483 0193 0B       		.uleb128 0xb
 9484 0194 01       		.uleb128 0x1
 9485 0195 13       		.uleb128 0x13
 9486 0196 00       		.byte	0
 9487 0197 00       		.byte	0
 9488 0198 21       		.uleb128 0x21
 9489 0199 05       		.uleb128 0x5
 9490 019a 00       		.byte	0
 9491 019b 03       		.uleb128 0x3
 9492 019c 0E       		.uleb128 0xe
 9493 019d 3A       		.uleb128 0x3a
 9494 019e 0B       		.uleb128 0xb
 9495 019f 3B       		.uleb128 0x3b
 9496 01a0 05       		.uleb128 0x5
 9497 01a1 49       		.uleb128 0x49
 9498 01a2 13       		.uleb128 0x13
 9499 01a3 00       		.byte	0
 9500 01a4 00       		.byte	0
 9501 01a5 22       		.uleb128 0x22
 9502 01a6 05       		.uleb128 0x5
 9503 01a7 00       		.byte	0
 9504 01a8 03       		.uleb128 0x3
 9505 01a9 08       		.uleb128 0x8
 9506 01aa 3A       		.uleb128 0x3a
 9507 01ab 0B       		.uleb128 0xb
 9508 01ac 3B       		.uleb128 0x3b
 9509 01ad 05       		.uleb128 0x5
 9510 01ae 49       		.uleb128 0x49
 9511 01af 13       		.uleb128 0x13
 9512 01b0 00       		.byte	0
 9513 01b1 00       		.byte	0
 9514 01b2 23       		.uleb128 0x23
 9515 01b3 2E       		.uleb128 0x2e
 9516 01b4 01       		.byte	0x1
 9517 01b5 3F       		.uleb128 0x3f
 9518 01b6 19       		.uleb128 0x19
 9519 01b7 03       		.uleb128 0x3
 9520 01b8 0E       		.uleb128 0xe
 9521 01b9 3A       		.uleb128 0x3a
 9522 01ba 0B       		.uleb128 0xb
 9523 01bb 3B       		.uleb128 0x3b
 9524 01bc 0B       		.uleb128 0xb
 9525 01bd 27       		.uleb128 0x27
 9526 01be 19       		.uleb128 0x19
 9527 01bf 20       		.uleb128 0x20
 9528 01c0 0B       		.uleb128 0xb
 9529 01c1 01       		.uleb128 0x1
 9530 01c2 13       		.uleb128 0x13
 9531 01c3 00       		.byte	0
 9532 01c4 00       		.byte	0
 9533 01c5 24       		.uleb128 0x24
 9534 01c6 2E       		.uleb128 0x2e
 9535 01c7 01       		.byte	0x1
 9536 01c8 3F       		.uleb128 0x3f
 9537 01c9 19       		.uleb128 0x19
 9538 01ca 03       		.uleb128 0x3
 9539 01cb 0E       		.uleb128 0xe
ARM GAS  C:\Users\IDONNO~1\AppData\Local\Temp\ccY27Fyg.s 			page 169


 9540 01cc 3A       		.uleb128 0x3a
 9541 01cd 0B       		.uleb128 0xb
 9542 01ce 3B       		.uleb128 0x3b
 9543 01cf 05       		.uleb128 0x5
 9544 01d0 27       		.uleb128 0x27
 9545 01d1 19       		.uleb128 0x19
 9546 01d2 20       		.uleb128 0x20
 9547 01d3 0B       		.uleb128 0xb
 9548 01d4 01       		.uleb128 0x1
 9549 01d5 13       		.uleb128 0x13
 9550 01d6 00       		.byte	0
 9551 01d7 00       		.byte	0
 9552 01d8 25       		.uleb128 0x25
 9553 01d9 34       		.uleb128 0x34
 9554 01da 00       		.byte	0
 9555 01db 03       		.uleb128 0x3
 9556 01dc 0E       		.uleb128 0xe
 9557 01dd 3A       		.uleb128 0x3a
 9558 01de 0B       		.uleb128 0xb
 9559 01df 3B       		.uleb128 0x3b
 9560 01e0 05       		.uleb128 0x5
 9561 01e1 49       		.uleb128 0x49
 9562 01e2 13       		.uleb128 0x13
 9563 01e3 00       		.byte	0
 9564 01e4 00       		.byte	0
 9565 01e5 26       		.uleb128 0x26
 9566 01e6 2E       		.uleb128 0x2e
 9567 01e7 01       		.byte	0x1
 9568 01e8 3F       		.uleb128 0x3f
 9569 01e9 19       		.uleb128 0x19
 9570 01ea 03       		.uleb128 0x3
 9571 01eb 0E       		.uleb128 0xe
 9572 01ec 3A       		.uleb128 0x3a
 9573 01ed 0B       		.uleb128 0xb
 9574 01ee 3B       		.uleb128 0x3b
 9575 01ef 05       		.uleb128 0x5
 9576 01f0 27       		.uleb128 0x27
 9577 01f1 19       		.uleb128 0x19
 9578 01f2 11       		.uleb128 0x11
 9579 01f3 01       		.uleb128 0x1
 9580 01f4 12       		.uleb128 0x12
 9581 01f5 06       		.uleb128 0x6
 9582 01f6 40       		.uleb128 0x40
 9583 01f7 18       		.uleb128 0x18
 9584 01f8 9742     		.uleb128 0x2117
 9585 01fa 19       		.uleb128 0x19
 9586 01fb 01       		.uleb128 0x1
 9587 01fc 13       		.uleb128 0x13
 9588 01fd 00       		.byte	0
 9589 01fe 00       		.byte	0
 9590 01ff 27       		.uleb128 0x27
 9591 0200 05       		.uleb128 0x5
 9592 0201 00       		.byte	0
 9593 0202 03       		.uleb128 0x3
 9594 0203 08       		.uleb128 0x8
 9595 0204 3A       		.uleb128 0x3a
 9596 0205 0B       		.uleb128 0xb
ARM GAS  C:\Users\IDONNO~1\AppData\Local\Temp\ccY27Fyg.s 			page 170


 9597 0206 3B       		.uleb128 0x3b
 9598 0207 05       		.uleb128 0x5
 9599 0208 49       		.uleb128 0x49
 9600 0209 13       		.uleb128 0x13
 9601 020a 02       		.uleb128 0x2
 9602 020b 17       		.uleb128 0x17
 9603 020c 00       		.byte	0
 9604 020d 00       		.byte	0
 9605 020e 28       		.uleb128 0x28
 9606 020f 05       		.uleb128 0x5
 9607 0210 00       		.byte	0
 9608 0211 03       		.uleb128 0x3
 9609 0212 0E       		.uleb128 0xe
 9610 0213 3A       		.uleb128 0x3a
 9611 0214 0B       		.uleb128 0xb
 9612 0215 3B       		.uleb128 0x3b
 9613 0216 05       		.uleb128 0x5
 9614 0217 49       		.uleb128 0x49
 9615 0218 13       		.uleb128 0x13
 9616 0219 02       		.uleb128 0x2
 9617 021a 17       		.uleb128 0x17
 9618 021b 00       		.byte	0
 9619 021c 00       		.byte	0
 9620 021d 29       		.uleb128 0x29
 9621 021e 34       		.uleb128 0x34
 9622 021f 00       		.byte	0
 9623 0220 03       		.uleb128 0x3
 9624 0221 08       		.uleb128 0x8
 9625 0222 3A       		.uleb128 0x3a
 9626 0223 0B       		.uleb128 0xb
 9627 0224 3B       		.uleb128 0x3b
 9628 0225 05       		.uleb128 0x5
 9629 0226 49       		.uleb128 0x49
 9630 0227 13       		.uleb128 0x13
 9631 0228 02       		.uleb128 0x2
 9632 0229 18       		.uleb128 0x18
 9633 022a 00       		.byte	0
 9634 022b 00       		.byte	0
 9635 022c 2A       		.uleb128 0x2a
 9636 022d 34       		.uleb128 0x34
 9637 022e 00       		.byte	0
 9638 022f 03       		.uleb128 0x3
 9639 0230 08       		.uleb128 0x8
 9640 0231 3A       		.uleb128 0x3a
 9641 0232 0B       		.uleb128 0xb
 9642 0233 3B       		.uleb128 0x3b
 9643 0234 05       		.uleb128 0x5
 9644 0235 49       		.uleb128 0x49
 9645 0236 13       		.uleb128 0x13
 9646 0237 00       		.byte	0
 9647 0238 00       		.byte	0
 9648 0239 2B       		.uleb128 0x2b
 9649 023a 1D       		.uleb128 0x1d
 9650 023b 01       		.byte	0x1
 9651 023c 31       		.uleb128 0x31
 9652 023d 13       		.uleb128 0x13
 9653 023e 52       		.uleb128 0x52
ARM GAS  C:\Users\IDONNO~1\AppData\Local\Temp\ccY27Fyg.s 			page 171


 9654 023f 01       		.uleb128 0x1
 9655 0240 55       		.uleb128 0x55
 9656 0241 17       		.uleb128 0x17
 9657 0242 58       		.uleb128 0x58
 9658 0243 0B       		.uleb128 0xb
 9659 0244 59       		.uleb128 0x59
 9660 0245 05       		.uleb128 0x5
 9661 0246 01       		.uleb128 0x1
 9662 0247 13       		.uleb128 0x13
 9663 0248 00       		.byte	0
 9664 0249 00       		.byte	0
 9665 024a 2C       		.uleb128 0x2c
 9666 024b 05       		.uleb128 0x5
 9667 024c 00       		.byte	0
 9668 024d 31       		.uleb128 0x31
 9669 024e 13       		.uleb128 0x13
 9670 024f 02       		.uleb128 0x2
 9671 0250 17       		.uleb128 0x17
 9672 0251 00       		.byte	0
 9673 0252 00       		.byte	0
 9674 0253 2D       		.uleb128 0x2d
 9675 0254 0B       		.uleb128 0xb
 9676 0255 01       		.byte	0x1
 9677 0256 55       		.uleb128 0x55
 9678 0257 17       		.uleb128 0x17
 9679 0258 00       		.byte	0
 9680 0259 00       		.byte	0
 9681 025a 2E       		.uleb128 0x2e
 9682 025b 34       		.uleb128 0x34
 9683 025c 00       		.byte	0
 9684 025d 31       		.uleb128 0x31
 9685 025e 13       		.uleb128 0x13
 9686 025f 02       		.uleb128 0x2
 9687 0260 17       		.uleb128 0x17
 9688 0261 00       		.byte	0
 9689 0262 00       		.byte	0
 9690 0263 2F       		.uleb128 0x2f
 9691 0264 898201   		.uleb128 0x4109
 9692 0267 01       		.byte	0x1
 9693 0268 11       		.uleb128 0x11
 9694 0269 01       		.uleb128 0x1
 9695 026a 31       		.uleb128 0x31
 9696 026b 13       		.uleb128 0x13
 9697 026c 00       		.byte	0
 9698 026d 00       		.byte	0
 9699 026e 30       		.uleb128 0x30
 9700 026f 8A8201   		.uleb128 0x410a
 9701 0272 00       		.byte	0
 9702 0273 02       		.uleb128 0x2
 9703 0274 18       		.uleb128 0x18
 9704 0275 9142     		.uleb128 0x2111
 9705 0277 18       		.uleb128 0x18
 9706 0278 00       		.byte	0
 9707 0279 00       		.byte	0
 9708 027a 31       		.uleb128 0x31
 9709 027b 21       		.uleb128 0x21
 9710 027c 00       		.byte	0
ARM GAS  C:\Users\IDONNO~1\AppData\Local\Temp\ccY27Fyg.s 			page 172


 9711 027d 49       		.uleb128 0x49
 9712 027e 13       		.uleb128 0x13
 9713 027f 2F       		.uleb128 0x2f
 9714 0280 05       		.uleb128 0x5
 9715 0281 00       		.byte	0
 9716 0282 00       		.byte	0
 9717 0283 32       		.uleb128 0x32
 9718 0284 26       		.uleb128 0x26
 9719 0285 00       		.byte	0
 9720 0286 00       		.byte	0
 9721 0287 00       		.byte	0
 9722 0288 33       		.uleb128 0x33
 9723 0289 2E       		.uleb128 0x2e
 9724 028a 01       		.byte	0x1
 9725 028b 3F       		.uleb128 0x3f
 9726 028c 19       		.uleb128 0x19
 9727 028d 03       		.uleb128 0x3
 9728 028e 0E       		.uleb128 0xe
 9729 028f 3A       		.uleb128 0x3a
 9730 0290 0B       		.uleb128 0xb
 9731 0291 3B       		.uleb128 0x3b
 9732 0292 0B       		.uleb128 0xb
 9733 0293 27       		.uleb128 0x27
 9734 0294 19       		.uleb128 0x19
 9735 0295 11       		.uleb128 0x11
 9736 0296 01       		.uleb128 0x1
 9737 0297 12       		.uleb128 0x12
 9738 0298 06       		.uleb128 0x6
 9739 0299 40       		.uleb128 0x40
 9740 029a 18       		.uleb128 0x18
 9741 029b 9742     		.uleb128 0x2117
 9742 029d 19       		.uleb128 0x19
 9743 029e 01       		.uleb128 0x1
 9744 029f 13       		.uleb128 0x13
 9745 02a0 00       		.byte	0
 9746 02a1 00       		.byte	0
 9747 02a2 34       		.uleb128 0x34
 9748 02a3 05       		.uleb128 0x5
 9749 02a4 00       		.byte	0
 9750 02a5 03       		.uleb128 0x3
 9751 02a6 08       		.uleb128 0x8
 9752 02a7 3A       		.uleb128 0x3a
 9753 02a8 0B       		.uleb128 0xb
 9754 02a9 3B       		.uleb128 0x3b
 9755 02aa 0B       		.uleb128 0xb
 9756 02ab 49       		.uleb128 0x49
 9757 02ac 13       		.uleb128 0x13
 9758 02ad 02       		.uleb128 0x2
 9759 02ae 17       		.uleb128 0x17
 9760 02af 00       		.byte	0
 9761 02b0 00       		.byte	0
 9762 02b1 35       		.uleb128 0x35
 9763 02b2 05       		.uleb128 0x5
 9764 02b3 00       		.byte	0
 9765 02b4 03       		.uleb128 0x3
 9766 02b5 0E       		.uleb128 0xe
 9767 02b6 3A       		.uleb128 0x3a
ARM GAS  C:\Users\IDONNO~1\AppData\Local\Temp\ccY27Fyg.s 			page 173


 9768 02b7 0B       		.uleb128 0xb
 9769 02b8 3B       		.uleb128 0x3b
 9770 02b9 0B       		.uleb128 0xb
 9771 02ba 49       		.uleb128 0x49
 9772 02bb 13       		.uleb128 0x13
 9773 02bc 02       		.uleb128 0x2
 9774 02bd 17       		.uleb128 0x17
 9775 02be 00       		.byte	0
 9776 02bf 00       		.byte	0
 9777 02c0 36       		.uleb128 0x36
 9778 02c1 34       		.uleb128 0x34
 9779 02c2 00       		.byte	0
 9780 02c3 03       		.uleb128 0x3
 9781 02c4 0E       		.uleb128 0xe
 9782 02c5 3A       		.uleb128 0x3a
 9783 02c6 0B       		.uleb128 0xb
 9784 02c7 3B       		.uleb128 0x3b
 9785 02c8 0B       		.uleb128 0xb
 9786 02c9 49       		.uleb128 0x49
 9787 02ca 13       		.uleb128 0x13
 9788 02cb 02       		.uleb128 0x2
 9789 02cc 18       		.uleb128 0x18
 9790 02cd 00       		.byte	0
 9791 02ce 00       		.byte	0
 9792 02cf 37       		.uleb128 0x37
 9793 02d0 1D       		.uleb128 0x1d
 9794 02d1 01       		.byte	0x1
 9795 02d2 31       		.uleb128 0x31
 9796 02d3 13       		.uleb128 0x13
 9797 02d4 52       		.uleb128 0x52
 9798 02d5 01       		.uleb128 0x1
 9799 02d6 55       		.uleb128 0x55
 9800 02d7 17       		.uleb128 0x17
 9801 02d8 58       		.uleb128 0x58
 9802 02d9 0B       		.uleb128 0xb
 9803 02da 59       		.uleb128 0x59
 9804 02db 0B       		.uleb128 0xb
 9805 02dc 01       		.uleb128 0x1
 9806 02dd 13       		.uleb128 0x13
 9807 02de 00       		.byte	0
 9808 02df 00       		.byte	0
 9809 02e0 38       		.uleb128 0x38
 9810 02e1 34       		.uleb128 0x34
 9811 02e2 00       		.byte	0
 9812 02e3 31       		.uleb128 0x31
 9813 02e4 13       		.uleb128 0x13
 9814 02e5 02       		.uleb128 0x2
 9815 02e6 18       		.uleb128 0x18
 9816 02e7 00       		.byte	0
 9817 02e8 00       		.byte	0
 9818 02e9 39       		.uleb128 0x39
 9819 02ea 05       		.uleb128 0x5
 9820 02eb 00       		.byte	0
 9821 02ec 31       		.uleb128 0x31
 9822 02ed 13       		.uleb128 0x13
 9823 02ee 00       		.byte	0
 9824 02ef 00       		.byte	0
ARM GAS  C:\Users\IDONNO~1\AppData\Local\Temp\ccY27Fyg.s 			page 174


 9825 02f0 3A       		.uleb128 0x3a
 9826 02f1 1D       		.uleb128 0x1d
 9827 02f2 01       		.byte	0x1
 9828 02f3 31       		.uleb128 0x31
 9829 02f4 13       		.uleb128 0x13
 9830 02f5 52       		.uleb128 0x52
 9831 02f6 01       		.uleb128 0x1
 9832 02f7 55       		.uleb128 0x55
 9833 02f8 17       		.uleb128 0x17
 9834 02f9 58       		.uleb128 0x58
 9835 02fa 0B       		.uleb128 0xb
 9836 02fb 59       		.uleb128 0x59
 9837 02fc 0B       		.uleb128 0xb
 9838 02fd 00       		.byte	0
 9839 02fe 00       		.byte	0
 9840 02ff 3B       		.uleb128 0x3b
 9841 0300 05       		.uleb128 0x5
 9842 0301 00       		.byte	0
 9843 0302 31       		.uleb128 0x31
 9844 0303 13       		.uleb128 0x13
 9845 0304 1C       		.uleb128 0x1c
 9846 0305 0B       		.uleb128 0xb
 9847 0306 00       		.byte	0
 9848 0307 00       		.byte	0
 9849 0308 3C       		.uleb128 0x3c
 9850 0309 1D       		.uleb128 0x1d
 9851 030a 01       		.byte	0x1
 9852 030b 31       		.uleb128 0x31
 9853 030c 13       		.uleb128 0x13
 9854 030d 11       		.uleb128 0x11
 9855 030e 01       		.uleb128 0x1
 9856 030f 12       		.uleb128 0x12
 9857 0310 06       		.uleb128 0x6
 9858 0311 58       		.uleb128 0x58
 9859 0312 0B       		.uleb128 0xb
 9860 0313 59       		.uleb128 0x59
 9861 0314 0B       		.uleb128 0xb
 9862 0315 01       		.uleb128 0x1
 9863 0316 13       		.uleb128 0x13
 9864 0317 00       		.byte	0
 9865 0318 00       		.byte	0
 9866 0319 3D       		.uleb128 0x3d
 9867 031a 0B       		.uleb128 0xb
 9868 031b 01       		.byte	0x1
 9869 031c 11       		.uleb128 0x11
 9870 031d 01       		.uleb128 0x1
 9871 031e 12       		.uleb128 0x12
 9872 031f 06       		.uleb128 0x6
 9873 0320 00       		.byte	0
 9874 0321 00       		.byte	0
 9875 0322 3E       		.uleb128 0x3e
 9876 0323 05       		.uleb128 0x5
 9877 0324 00       		.byte	0
 9878 0325 31       		.uleb128 0x31
 9879 0326 13       		.uleb128 0x13
 9880 0327 02       		.uleb128 0x2
 9881 0328 18       		.uleb128 0x18
ARM GAS  C:\Users\IDONNO~1\AppData\Local\Temp\ccY27Fyg.s 			page 175


 9882 0329 00       		.byte	0
 9883 032a 00       		.byte	0
 9884 032b 3F       		.uleb128 0x3f
 9885 032c 2E       		.uleb128 0x2e
 9886 032d 01       		.byte	0x1
 9887 032e 31       		.uleb128 0x31
 9888 032f 13       		.uleb128 0x13
 9889 0330 11       		.uleb128 0x11
 9890 0331 01       		.uleb128 0x1
 9891 0332 12       		.uleb128 0x12
 9892 0333 06       		.uleb128 0x6
 9893 0334 40       		.uleb128 0x40
 9894 0335 18       		.uleb128 0x18
 9895 0336 9742     		.uleb128 0x2117
 9896 0338 19       		.uleb128 0x19
 9897 0339 01       		.uleb128 0x1
 9898 033a 13       		.uleb128 0x13
 9899 033b 00       		.byte	0
 9900 033c 00       		.byte	0
 9901 033d 40       		.uleb128 0x40
 9902 033e 34       		.uleb128 0x34
 9903 033f 00       		.byte	0
 9904 0340 31       		.uleb128 0x31
 9905 0341 13       		.uleb128 0x13
 9906 0342 1C       		.uleb128 0x1c
 9907 0343 0B       		.uleb128 0xb
 9908 0344 00       		.byte	0
 9909 0345 00       		.byte	0
 9910 0346 41       		.uleb128 0x41
 9911 0347 34       		.uleb128 0x34
 9912 0348 00       		.byte	0
 9913 0349 31       		.uleb128 0x31
 9914 034a 13       		.uleb128 0x13
 9915 034b 00       		.byte	0
 9916 034c 00       		.byte	0
 9917 034d 42       		.uleb128 0x42
 9918 034e 898201   		.uleb128 0x4109
 9919 0351 01       		.byte	0x1
 9920 0352 11       		.uleb128 0x11
 9921 0353 01       		.uleb128 0x1
 9922 0354 31       		.uleb128 0x31
 9923 0355 13       		.uleb128 0x13
 9924 0356 01       		.uleb128 0x1
 9925 0357 13       		.uleb128 0x13
 9926 0358 00       		.byte	0
 9927 0359 00       		.byte	0
 9928 035a 43       		.uleb128 0x43
 9929 035b 34       		.uleb128 0x34
 9930 035c 00       		.byte	0
 9931 035d 03       		.uleb128 0x3
 9932 035e 0E       		.uleb128 0xe
 9933 035f 3A       		.uleb128 0x3a
 9934 0360 0B       		.uleb128 0xb
 9935 0361 3B       		.uleb128 0x3b
 9936 0362 0B       		.uleb128 0xb
 9937 0363 49       		.uleb128 0x49
 9938 0364 13       		.uleb128 0x13
ARM GAS  C:\Users\IDONNO~1\AppData\Local\Temp\ccY27Fyg.s 			page 176


 9939 0365 1C       		.uleb128 0x1c
 9940 0366 0B       		.uleb128 0xb
 9941 0367 00       		.byte	0
 9942 0368 00       		.byte	0
 9943 0369 44       		.uleb128 0x44
 9944 036a 898201   		.uleb128 0x4109
 9945 036d 00       		.byte	0
 9946 036e 11       		.uleb128 0x11
 9947 036f 01       		.uleb128 0x1
 9948 0370 31       		.uleb128 0x31
 9949 0371 13       		.uleb128 0x13
 9950 0372 00       		.byte	0
 9951 0373 00       		.byte	0
 9952 0374 45       		.uleb128 0x45
 9953 0375 2E       		.uleb128 0x2e
 9954 0376 01       		.byte	0x1
 9955 0377 3F       		.uleb128 0x3f
 9956 0378 19       		.uleb128 0x19
 9957 0379 03       		.uleb128 0x3
 9958 037a 0E       		.uleb128 0xe
 9959 037b 3A       		.uleb128 0x3a
 9960 037c 0B       		.uleb128 0xb
 9961 037d 3B       		.uleb128 0x3b
 9962 037e 0B       		.uleb128 0xb
 9963 037f 27       		.uleb128 0x27
 9964 0380 19       		.uleb128 0x19
 9965 0381 49       		.uleb128 0x49
 9966 0382 13       		.uleb128 0x13
 9967 0383 11       		.uleb128 0x11
 9968 0384 01       		.uleb128 0x1
 9969 0385 12       		.uleb128 0x12
 9970 0386 06       		.uleb128 0x6
 9971 0387 40       		.uleb128 0x40
 9972 0388 18       		.uleb128 0x18
 9973 0389 9742     		.uleb128 0x2117
 9974 038b 19       		.uleb128 0x19
 9975 038c 01       		.uleb128 0x1
 9976 038d 13       		.uleb128 0x13
 9977 038e 00       		.byte	0
 9978 038f 00       		.byte	0
 9979 0390 46       		.uleb128 0x46
 9980 0391 2E       		.uleb128 0x2e
 9981 0392 01       		.byte	0x1
 9982 0393 3F       		.uleb128 0x3f
 9983 0394 19       		.uleb128 0x19
 9984 0395 03       		.uleb128 0x3
 9985 0396 0E       		.uleb128 0xe
 9986 0397 3A       		.uleb128 0x3a
 9987 0398 0B       		.uleb128 0xb
 9988 0399 3B       		.uleb128 0x3b
 9989 039a 0B       		.uleb128 0xb
 9990 039b 49       		.uleb128 0x49
 9991 039c 13       		.uleb128 0x13
 9992 039d 3C       		.uleb128 0x3c
 9993 039e 19       		.uleb128 0x19
 9994 039f 01       		.uleb128 0x1
 9995 03a0 13       		.uleb128 0x13
ARM GAS  C:\Users\IDONNO~1\AppData\Local\Temp\ccY27Fyg.s 			page 177


 9996 03a1 00       		.byte	0
 9997 03a2 00       		.byte	0
 9998 03a3 47       		.uleb128 0x47
 9999 03a4 18       		.uleb128 0x18
 10000 03a5 00       		.byte	0
 10001 03a6 00       		.byte	0
 10002 03a7 00       		.byte	0
 10003 03a8 48       		.uleb128 0x48
 10004 03a9 2E       		.uleb128 0x2e
 10005 03aa 01       		.byte	0x1
 10006 03ab 03       		.uleb128 0x3
 10007 03ac 0E       		.uleb128 0xe
 10008 03ad 3A       		.uleb128 0x3a
 10009 03ae 0B       		.uleb128 0xb
 10010 03af 3B       		.uleb128 0x3b
 10011 03b0 05       		.uleb128 0x5
 10012 03b1 27       		.uleb128 0x27
 10013 03b2 19       		.uleb128 0x19
 10014 03b3 20       		.uleb128 0x20
 10015 03b4 0B       		.uleb128 0xb
 10016 03b5 01       		.uleb128 0x1
 10017 03b6 13       		.uleb128 0x13
 10018 03b7 00       		.byte	0
 10019 03b8 00       		.byte	0
 10020 03b9 49       		.uleb128 0x49
 10021 03ba 34       		.uleb128 0x34
 10022 03bb 00       		.byte	0
 10023 03bc 03       		.uleb128 0x3
 10024 03bd 0E       		.uleb128 0xe
 10025 03be 3A       		.uleb128 0x3a
 10026 03bf 0B       		.uleb128 0xb
 10027 03c0 3B       		.uleb128 0x3b
 10028 03c1 05       		.uleb128 0x5
 10029 03c2 49       		.uleb128 0x49
 10030 03c3 13       		.uleb128 0x13
 10031 03c4 02       		.uleb128 0x2
 10032 03c5 18       		.uleb128 0x18
 10033 03c6 00       		.byte	0
 10034 03c7 00       		.byte	0
 10035 03c8 4A       		.uleb128 0x4a
 10036 03c9 0B       		.uleb128 0xb
 10037 03ca 01       		.byte	0x1
 10038 03cb 00       		.byte	0
 10039 03cc 00       		.byte	0
 10040 03cd 4B       		.uleb128 0x4b
 10041 03ce 34       		.uleb128 0x34
 10042 03cf 00       		.byte	0
 10043 03d0 03       		.uleb128 0x3
 10044 03d1 0E       		.uleb128 0xe
 10045 03d2 3A       		.uleb128 0x3a
 10046 03d3 0B       		.uleb128 0xb
 10047 03d4 3B       		.uleb128 0x3b
 10048 03d5 0B       		.uleb128 0xb
 10049 03d6 49       		.uleb128 0x49
 10050 03d7 13       		.uleb128 0x13
 10051 03d8 1C       		.uleb128 0x1c
 10052 03d9 03       		.uleb128 0x3
ARM GAS  C:\Users\IDONNO~1\AppData\Local\Temp\ccY27Fyg.s 			page 178


 10053 03da 00       		.byte	0
 10054 03db 00       		.byte	0
 10055 03dc 4C       		.uleb128 0x4c
 10056 03dd 2E       		.uleb128 0x2e
 10057 03de 01       		.byte	0x1
 10058 03df 3F       		.uleb128 0x3f
 10059 03e0 19       		.uleb128 0x19
 10060 03e1 03       		.uleb128 0x3
 10061 03e2 0E       		.uleb128 0xe
 10062 03e3 3A       		.uleb128 0x3a
 10063 03e4 0B       		.uleb128 0xb
 10064 03e5 3B       		.uleb128 0x3b
 10065 03e6 05       		.uleb128 0x5
 10066 03e7 27       		.uleb128 0x27
 10067 03e8 19       		.uleb128 0x19
 10068 03e9 49       		.uleb128 0x49
 10069 03ea 13       		.uleb128 0x13
 10070 03eb 11       		.uleb128 0x11
 10071 03ec 01       		.uleb128 0x1
 10072 03ed 12       		.uleb128 0x12
 10073 03ee 06       		.uleb128 0x6
 10074 03ef 40       		.uleb128 0x40
 10075 03f0 18       		.uleb128 0x18
 10076 03f1 9742     		.uleb128 0x2117
 10077 03f3 19       		.uleb128 0x19
 10078 03f4 01       		.uleb128 0x1
 10079 03f5 13       		.uleb128 0x13
 10080 03f6 00       		.byte	0
 10081 03f7 00       		.byte	0
 10082 03f8 4D       		.uleb128 0x4d
 10083 03f9 34       		.uleb128 0x34
 10084 03fa 00       		.byte	0
 10085 03fb 03       		.uleb128 0x3
 10086 03fc 08       		.uleb128 0x8
 10087 03fd 3A       		.uleb128 0x3a
 10088 03fe 0B       		.uleb128 0xb
 10089 03ff 3B       		.uleb128 0x3b
 10090 0400 05       		.uleb128 0x5
 10091 0401 49       		.uleb128 0x49
 10092 0402 13       		.uleb128 0x13
 10093 0403 02       		.uleb128 0x2
 10094 0404 17       		.uleb128 0x17
 10095 0405 00       		.byte	0
 10096 0406 00       		.byte	0
 10097 0407 4E       		.uleb128 0x4e
 10098 0408 1D       		.uleb128 0x1d
 10099 0409 01       		.byte	0x1
 10100 040a 31       		.uleb128 0x31
 10101 040b 13       		.uleb128 0x13
 10102 040c 52       		.uleb128 0x52
 10103 040d 01       		.uleb128 0x1
 10104 040e 55       		.uleb128 0x55
 10105 040f 17       		.uleb128 0x17
 10106 0410 58       		.uleb128 0x58
 10107 0411 0B       		.uleb128 0xb
 10108 0412 59       		.uleb128 0x59
 10109 0413 05       		.uleb128 0x5
ARM GAS  C:\Users\IDONNO~1\AppData\Local\Temp\ccY27Fyg.s 			page 179


 10110 0414 00       		.byte	0
 10111 0415 00       		.byte	0
 10112 0416 4F       		.uleb128 0x4f
 10113 0417 898201   		.uleb128 0x4109
 10114 041a 01       		.byte	0x1
 10115 041b 11       		.uleb128 0x11
 10116 041c 01       		.uleb128 0x1
 10117 041d 9542     		.uleb128 0x2115
 10118 041f 19       		.uleb128 0x19
 10119 0420 31       		.uleb128 0x31
 10120 0421 13       		.uleb128 0x13
 10121 0422 01       		.uleb128 0x1
 10122 0423 13       		.uleb128 0x13
 10123 0424 00       		.byte	0
 10124 0425 00       		.byte	0
 10125 0426 50       		.uleb128 0x50
 10126 0427 898201   		.uleb128 0x4109
 10127 042a 00       		.byte	0
 10128 042b 11       		.uleb128 0x11
 10129 042c 01       		.uleb128 0x1
 10130 042d 9542     		.uleb128 0x2115
 10131 042f 19       		.uleb128 0x19
 10132 0430 31       		.uleb128 0x31
 10133 0431 13       		.uleb128 0x13
 10134 0432 00       		.byte	0
 10135 0433 00       		.byte	0
 10136 0434 51       		.uleb128 0x51
 10137 0435 34       		.uleb128 0x34
 10138 0436 00       		.byte	0
 10139 0437 03       		.uleb128 0x3
 10140 0438 0E       		.uleb128 0xe
 10141 0439 3A       		.uleb128 0x3a
 10142 043a 0B       		.uleb128 0xb
 10143 043b 3B       		.uleb128 0x3b
 10144 043c 05       		.uleb128 0x5
 10145 043d 49       		.uleb128 0x49
 10146 043e 13       		.uleb128 0x13
 10147 043f 3F       		.uleb128 0x3f
 10148 0440 19       		.uleb128 0x19
 10149 0441 3C       		.uleb128 0x3c
 10150 0442 19       		.uleb128 0x19
 10151 0443 00       		.byte	0
 10152 0444 00       		.byte	0
 10153 0445 52       		.uleb128 0x52
 10154 0446 34       		.uleb128 0x34
 10155 0447 00       		.byte	0
 10156 0448 03       		.uleb128 0x3
 10157 0449 08       		.uleb128 0x8
 10158 044a 3A       		.uleb128 0x3a
 10159 044b 0B       		.uleb128 0xb
 10160 044c 3B       		.uleb128 0x3b
 10161 044d 05       		.uleb128 0x5
 10162 044e 49       		.uleb128 0x49
 10163 044f 13       		.uleb128 0x13
 10164 0450 3F       		.uleb128 0x3f
 10165 0451 19       		.uleb128 0x19
 10166 0452 3C       		.uleb128 0x3c
ARM GAS  C:\Users\IDONNO~1\AppData\Local\Temp\ccY27Fyg.s 			page 180


 10167 0453 19       		.uleb128 0x19
 10168 0454 00       		.byte	0
 10169 0455 00       		.byte	0
 10170 0456 53       		.uleb128 0x53
 10171 0457 34       		.uleb128 0x34
 10172 0458 00       		.byte	0
 10173 0459 03       		.uleb128 0x3
 10174 045a 0E       		.uleb128 0xe
 10175 045b 3A       		.uleb128 0x3a
 10176 045c 0B       		.uleb128 0xb
 10177 045d 3B       		.uleb128 0x3b
 10178 045e 0B       		.uleb128 0xb
 10179 045f 49       		.uleb128 0x49
 10180 0460 13       		.uleb128 0x13
 10181 0461 3F       		.uleb128 0x3f
 10182 0462 19       		.uleb128 0x19
 10183 0463 02       		.uleb128 0x2
 10184 0464 18       		.uleb128 0x18
 10185 0465 00       		.byte	0
 10186 0466 00       		.byte	0
 10187 0467 54       		.uleb128 0x54
 10188 0468 2E       		.uleb128 0x2e
 10189 0469 00       		.byte	0
 10190 046a 3F       		.uleb128 0x3f
 10191 046b 19       		.uleb128 0x19
 10192 046c 3C       		.uleb128 0x3c
 10193 046d 19       		.uleb128 0x19
 10194 046e 6E       		.uleb128 0x6e
 10195 046f 0E       		.uleb128 0xe
 10196 0470 03       		.uleb128 0x3
 10197 0471 0E       		.uleb128 0xe
 10198 0472 00       		.byte	0
 10199 0473 00       		.byte	0
 10200 0474 55       		.uleb128 0x55
 10201 0475 2E       		.uleb128 0x2e
 10202 0476 00       		.byte	0
 10203 0477 3F       		.uleb128 0x3f
 10204 0478 19       		.uleb128 0x19
 10205 0479 3C       		.uleb128 0x3c
 10206 047a 19       		.uleb128 0x19
 10207 047b 6E       		.uleb128 0x6e
 10208 047c 0E       		.uleb128 0xe
 10209 047d 03       		.uleb128 0x3
 10210 047e 0E       		.uleb128 0xe
 10211 047f 3A       		.uleb128 0x3a
 10212 0480 0B       		.uleb128 0xb
 10213 0481 3B       		.uleb128 0x3b
 10214 0482 0B       		.uleb128 0xb
 10215 0483 00       		.byte	0
 10216 0484 00       		.byte	0
 10217 0485 00       		.byte	0
 10218              		.section	.debug_loc,"",%progbits
 10219              	.Ldebug_loc0:
 10220              	.LLST0:
 10221 0000 00000000 		.4byte	.LVL0
 10222 0004 14000000 		.4byte	.LVL4
 10223 0008 0100     		.2byte	0x1
ARM GAS  C:\Users\IDONNO~1\AppData\Local\Temp\ccY27Fyg.s 			page 181


 10224 000a 50       		.byte	0x50
 10225 000b 14000000 		.4byte	.LVL4
 10226 000f 36000000 		.4byte	.LFE417
 10227 0013 0400     		.2byte	0x4
 10228 0015 F3       		.byte	0xf3
 10229 0016 01       		.uleb128 0x1
 10230 0017 50       		.byte	0x50
 10231 0018 9F       		.byte	0x9f
 10232 0019 00000000 		.4byte	0
 10233 001d 00000000 		.4byte	0
 10234              	.LLST1:
 10235 0021 00000000 		.4byte	.LVL0
 10236 0025 12000000 		.4byte	.LVL3
 10237 0029 0100     		.2byte	0x1
 10238 002b 51       		.byte	0x51
 10239 002c 12000000 		.4byte	.LVL3
 10240 0030 36000000 		.4byte	.LFE417
 10241 0034 0100     		.2byte	0x1
 10242 0036 55       		.byte	0x55
 10243 0037 00000000 		.4byte	0
 10244 003b 00000000 		.4byte	0
 10245              	.LLST2:
 10246 003f 0C000000 		.4byte	.LVL2
 10247 0043 12000000 		.4byte	.LVL3
 10248 0047 0100     		.2byte	0x1
 10249 0049 51       		.byte	0x51
 10250 004a 12000000 		.4byte	.LVL3
 10251 004e 24000000 		.4byte	.LVL7
 10252 0052 0100     		.2byte	0x1
 10253 0054 55       		.byte	0x55
 10254 0055 00000000 		.4byte	0
 10255 0059 00000000 		.4byte	0
 10256              	.LLST3:
 10257 005d 08000000 		.4byte	.LVL1
 10258 0061 24000000 		.4byte	.LVL7
 10259 0065 0100     		.2byte	0x1
 10260 0067 5D       		.byte	0x5d
 10261 0068 00000000 		.4byte	0
 10262 006c 00000000 		.4byte	0
 10263              	.LLST4:
 10264 0070 20000000 		.4byte	.LVL6
 10265 0074 24000000 		.4byte	.LVL7
 10266 0078 0100     		.2byte	0x1
 10267 007a 54       		.byte	0x54
 10268 007b 00000000 		.4byte	0
 10269 007f 00000000 		.4byte	0
 10270              	.LLST5:
 10271 0083 00000000 		.4byte	.LVL9
 10272 0087 0A000000 		.4byte	.LVL10
 10273 008b 0100     		.2byte	0x1
 10274 008d 50       		.byte	0x50
 10275 008e 0A000000 		.4byte	.LVL10
 10276 0092 04010000 		.4byte	.LFE407
 10277 0096 0400     		.2byte	0x4
 10278 0098 F3       		.byte	0xf3
 10279 0099 01       		.uleb128 0x1
 10280 009a 50       		.byte	0x50
ARM GAS  C:\Users\IDONNO~1\AppData\Local\Temp\ccY27Fyg.s 			page 182


 10281 009b 9F       		.byte	0x9f
 10282 009c 00000000 		.4byte	0
 10283 00a0 00000000 		.4byte	0
 10284              	.LLST6:
 10285 00a4 00000000 		.4byte	.LVL9
 10286 00a8 14000000 		.4byte	.LVL11
 10287 00ac 0100     		.2byte	0x1
 10288 00ae 51       		.byte	0x51
 10289 00af 14000000 		.4byte	.LVL11
 10290 00b3 38000000 		.4byte	.LVL14
 10291 00b7 0100     		.2byte	0x1
 10292 00b9 56       		.byte	0x56
 10293 00ba 38000000 		.4byte	.LVL14
 10294 00be 04010000 		.4byte	.LFE407
 10295 00c2 0400     		.2byte	0x4
 10296 00c4 F3       		.byte	0xf3
 10297 00c5 01       		.uleb128 0x1
 10298 00c6 51       		.byte	0x51
 10299 00c7 9F       		.byte	0x9f
 10300 00c8 00000000 		.4byte	0
 10301 00cc 00000000 		.4byte	0
 10302              	.LLST7:
 10303 00d0 26000000 		.4byte	.LVL12
 10304 00d4 F6000000 		.4byte	.LVL42
 10305 00d8 0200     		.2byte	0x2
 10306 00da 30       		.byte	0x30
 10307 00db 9F       		.byte	0x9f
 10308 00dc 00000000 		.4byte	0
 10309 00e0 00000000 		.4byte	0
 10310              	.LLST9:
 10311 00e4 26000000 		.4byte	.LVL12
 10312 00e8 38000000 		.4byte	.LVL14
 10313 00ec 0300     		.2byte	0x3
 10314 00ee 76       		.byte	0x76
 10315 00ef 04       		.sleb128 4
 10316 00f0 9F       		.byte	0x9f
 10317 00f1 38000000 		.4byte	.LVL14
 10318 00f5 F6000000 		.4byte	.LVL42
 10319 00f9 0600     		.2byte	0x6
 10320 00fb F3       		.byte	0xf3
 10321 00fc 01       		.uleb128 0x1
 10322 00fd 51       		.byte	0x51
 10323 00fe 23       		.byte	0x23
 10324 00ff 04       		.uleb128 0x4
 10325 0100 9F       		.byte	0x9f
 10326 0101 00000000 		.4byte	0
 10327 0105 00000000 		.4byte	0
 10328              	.LLST10:
 10329 0109 26000000 		.4byte	.LVL12
 10330 010d 36000000 		.4byte	.LVL13
 10331 0111 0100     		.2byte	0x1
 10332 0113 53       		.byte	0x53
 10333 0114 36000000 		.4byte	.LVL13
 10334 0118 F6000000 		.4byte	.LVL42
 10335 011c 0300     		.2byte	0x3
 10336 011e 91       		.byte	0x91
 10337 011f C77D     		.sleb128 -313
ARM GAS  C:\Users\IDONNO~1\AppData\Local\Temp\ccY27Fyg.s 			page 183


 10338 0121 00000000 		.4byte	0
 10339 0125 00000000 		.4byte	0
 10340              	.LLST11:
 10341 0129 26000000 		.4byte	.LVL12
 10342 012d 38000000 		.4byte	.LVL14
 10343 0131 0200     		.2byte	0x2
 10344 0133 76       		.byte	0x76
 10345 0134 00       		.sleb128 0
 10346 0135 38000000 		.4byte	.LVL14
 10347 0139 72000000 		.4byte	.LVL16
 10348 013d 0300     		.2byte	0x3
 10349 013f F3       		.byte	0xf3
 10350 0140 01       		.uleb128 0x1
 10351 0141 51       		.byte	0x51
 10352 0142 00000000 		.4byte	0
 10353 0146 00000000 		.4byte	0
 10354              	.LLST12:
 10355 014a 26000000 		.4byte	.LVL12
 10356 014e 36000000 		.4byte	.LVL13
 10357 0152 0100     		.2byte	0x1
 10358 0154 52       		.byte	0x52
 10359 0155 36000000 		.4byte	.LVL13
 10360 0159 F6000000 		.4byte	.LVL42
 10361 015d 0300     		.2byte	0x3
 10362 015f 91       		.byte	0x91
 10363 0160 C67D     		.sleb128 -314
 10364 0162 00000000 		.4byte	0
 10365 0166 00000000 		.4byte	0
 10366              	.LLST13:
 10367 016a 26000000 		.4byte	.LVL12
 10368 016e E8000000 		.4byte	.LVL39
 10369 0172 0400     		.2byte	0x4
 10370 0174 91       		.byte	0x91
 10371 0175 D87D     		.sleb128 -296
 10372 0177 9F       		.byte	0x9f
 10373 0178 E8000000 		.4byte	.LVL39
 10374 017c F6000000 		.4byte	.LVL42
 10375 0180 0100     		.2byte	0x1
 10376 0182 51       		.byte	0x51
 10377 0183 00000000 		.4byte	0
 10378 0187 00000000 		.4byte	0
 10379              	.LLST14:
 10380 018b 26000000 		.4byte	.LVL12
 10381 018f EA000000 		.4byte	.LVL40
 10382 0193 0100     		.2byte	0x1
 10383 0195 54       		.byte	0x54
 10384 0196 00000000 		.4byte	0
 10385 019a 00000000 		.4byte	0
 10386              	.LLST15:
 10387 019e 64000000 		.4byte	.LVL15
 10388 01a2 F6000000 		.4byte	.LVL42
 10389 01a6 0200     		.2byte	0x2
 10390 01a8 30       		.byte	0x30
 10391 01a9 9F       		.byte	0x9f
 10392 01aa 00000000 		.4byte	0
 10393 01ae 00000000 		.4byte	0
 10394              	.LLST17:
ARM GAS  C:\Users\IDONNO~1\AppData\Local\Temp\ccY27Fyg.s 			page 184


 10395 01b2 64000000 		.4byte	.LVL15
 10396 01b6 F6000000 		.4byte	.LVL42
 10397 01ba 0300     		.2byte	0x3
 10398 01bc 09       		.byte	0x9
 10399 01bd C0       		.byte	0xc0
 10400 01be 9F       		.byte	0x9f
 10401 01bf 00000000 		.4byte	0
 10402 01c3 00000000 		.4byte	0
 10403              	.LLST18:
 10404 01c7 64000000 		.4byte	.LVL15
 10405 01cb F6000000 		.4byte	.LVL42
 10406 01cf 0200     		.2byte	0x2
 10407 01d1 44       		.byte	0x44
 10408 01d2 9F       		.byte	0x9f
 10409 01d3 00000000 		.4byte	0
 10410 01d7 00000000 		.4byte	0
 10411              	.LLST19:
 10412 01db 64000000 		.4byte	.LVL15
 10413 01df EA000000 		.4byte	.LVL40
 10414 01e3 0100     		.2byte	0x1
 10415 01e5 54       		.byte	0x54
 10416 01e6 00000000 		.4byte	0
 10417 01ea 00000000 		.4byte	0
 10418              	.LLST20:
 10419 01ee 64000000 		.4byte	.LVL15
 10420 01f2 E8000000 		.4byte	.LVL39
 10421 01f6 0400     		.2byte	0x4
 10422 01f8 91       		.byte	0x91
 10423 01f9 D87D     		.sleb128 -296
 10424 01fb 9F       		.byte	0x9f
 10425 01fc E8000000 		.4byte	.LVL39
 10426 0200 F6000000 		.4byte	.LVL42
 10427 0204 0100     		.2byte	0x1
 10428 0206 51       		.byte	0x51
 10429 0207 00000000 		.4byte	0
 10430 020b 00000000 		.4byte	0
 10431              	.LLST21:
 10432 020f 72000000 		.4byte	.LVL16
 10433 0213 7C000000 		.4byte	.LVL17
 10434 0217 0200     		.2byte	0x2
 10435 0219 34       		.byte	0x34
 10436 021a 9F       		.byte	0x9f
 10437 021b 7C000000 		.4byte	.LVL17
 10438 021f 80000000 		.4byte	.LVL18
 10439 0223 0900     		.2byte	0x9
 10440 0225 91       		.byte	0x91
 10441 0226 DB7D     		.sleb128 -293
 10442 0228 70       		.byte	0x70
 10443 0229 00       		.sleb128 0
 10444 022a 1C       		.byte	0x1c
 10445 022b 23       		.byte	0x23
 10446 022c 03       		.uleb128 0x3
 10447 022d 9F       		.byte	0x9f
 10448 022e 80000000 		.4byte	.LVL18
 10449 0232 98000000 		.4byte	.LVL23
 10450 0236 0900     		.2byte	0x9
 10451 0238 91       		.byte	0x91
ARM GAS  C:\Users\IDONNO~1\AppData\Local\Temp\ccY27Fyg.s 			page 185


 10452 0239 DB7D     		.sleb128 -293
 10453 023b 70       		.byte	0x70
 10454 023c 00       		.sleb128 0
 10455 023d 1C       		.byte	0x1c
 10456 023e 23       		.byte	0x23
 10457 023f 04       		.uleb128 0x4
 10458 0240 9F       		.byte	0x9f
 10459 0241 98000000 		.4byte	.LVL23
 10460 0245 9A000000 		.4byte	.LVL24
 10461 0249 0900     		.2byte	0x9
 10462 024b 91       		.byte	0x91
 10463 024c DB7D     		.sleb128 -293
 10464 024e 70       		.byte	0x70
 10465 024f 00       		.sleb128 0
 10466 0250 1C       		.byte	0x1c
 10467 0251 23       		.byte	0x23
 10468 0252 03       		.uleb128 0x3
 10469 0253 9F       		.byte	0x9f
 10470 0254 00000000 		.4byte	0
 10471 0258 00000000 		.4byte	0
 10472              	.LLST22:
 10473 025c 72000000 		.4byte	.LVL16
 10474 0260 7C000000 		.4byte	.LVL17
 10475 0264 0100     		.2byte	0x1
 10476 0266 50       		.byte	0x50
 10477 0267 7C000000 		.4byte	.LVL17
 10478 026b 9A000000 		.4byte	.LVL24
 10479 026f 0300     		.2byte	0x3
 10480 0271 70       		.byte	0x70
 10481 0272 01       		.sleb128 1
 10482 0273 9F       		.byte	0x9f
 10483 0274 00000000 		.4byte	0
 10484 0278 00000000 		.4byte	0
 10485              	.LLST23:
 10486 027c 72000000 		.4byte	.LVL16
 10487 0280 7C000000 		.4byte	.LVL17
 10488 0284 0300     		.2byte	0x3
 10489 0286 09       		.byte	0x9
 10490 0287 FF       		.byte	0xff
 10491 0288 9F       		.byte	0x9f
 10492 0289 7C000000 		.4byte	.LVL17
 10493 028d 8E000000 		.4byte	.LVL22
 10494 0291 0100     		.2byte	0x1
 10495 0293 52       		.byte	0x52
 10496 0294 98000000 		.4byte	.LVL23
 10497 0298 9A000000 		.4byte	.LVL24
 10498 029c 0100     		.2byte	0x1
 10499 029e 52       		.byte	0x52
 10500 029f 00000000 		.4byte	0
 10501 02a3 00000000 		.4byte	0
 10502              	.LLST24:
 10503 02a7 7C000000 		.4byte	.LVL17
 10504 02ab 9E000000 		.4byte	.LVL25
 10505 02af 0200     		.2byte	0x2
 10506 02b1 70       		.byte	0x70
 10507 02b2 00       		.sleb128 0
 10508 02b3 00000000 		.4byte	0
ARM GAS  C:\Users\IDONNO~1\AppData\Local\Temp\ccY27Fyg.s 			page 186


 10509 02b7 00000000 		.4byte	0
 10510              	.LLST25:
 10511 02bb 7C000000 		.4byte	.LVL17
 10512 02bf 80000000 		.4byte	.LVL18
 10513 02c3 0100     		.2byte	0x1
 10514 02c5 51       		.byte	0x51
 10515 02c6 82000000 		.4byte	.LVL19
 10516 02ca 86000000 		.4byte	.LVL20
 10517 02ce 0100     		.2byte	0x1
 10518 02d0 51       		.byte	0x51
 10519 02d1 88000000 		.4byte	.LVL21
 10520 02d5 9A000000 		.4byte	.LVL24
 10521 02d9 0100     		.2byte	0x1
 10522 02db 51       		.byte	0x51
 10523 02dc 00000000 		.4byte	0
 10524 02e0 00000000 		.4byte	0
 10525              	.LLST26:
 10526 02e4 9E000000 		.4byte	.LVL25
 10527 02e8 A2000000 		.4byte	.LVL27
 10528 02ec 0200     		.2byte	0x2
 10529 02ee 43       		.byte	0x43
 10530 02ef 9F       		.byte	0x9f
 10531 02f0 A2000000 		.4byte	.LVL27
 10532 02f4 A6000000 		.4byte	.LVL28
 10533 02f8 0900     		.2byte	0x9
 10534 02fa 91       		.byte	0x91
 10535 02fb E07D     		.sleb128 -288
 10536 02fd 70       		.byte	0x70
 10537 02fe 00       		.sleb128 0
 10538 02ff 1C       		.byte	0x1c
 10539 0300 23       		.byte	0x23
 10540 0301 13       		.uleb128 0x13
 10541 0302 9F       		.byte	0x9f
 10542 0303 C6000000 		.4byte	.LVL33
 10543 0307 C8000000 		.4byte	.LVL34
 10544 030b 0900     		.2byte	0x9
 10545 030d 91       		.byte	0x91
 10546 030e E07D     		.sleb128 -288
 10547 0310 70       		.byte	0x70
 10548 0311 00       		.sleb128 0
 10549 0312 1C       		.byte	0x1c
 10550 0313 23       		.byte	0x23
 10551 0314 13       		.uleb128 0x13
 10552 0315 9F       		.byte	0x9f
 10553 0316 00000000 		.4byte	0
 10554 031a 00000000 		.4byte	0
 10555              	.LLST27:
 10556 031e 9E000000 		.4byte	.LVL25
 10557 0322 A0000000 		.4byte	.LVL26
 10558 0326 0400     		.2byte	0x4
 10559 0328 91       		.byte	0x91
 10560 0329 E07D     		.sleb128 -288
 10561 032b 9F       		.byte	0x9f
 10562 032c A0000000 		.4byte	.LVL26
 10563 0330 A2000000 		.4byte	.LVL27
 10564 0334 0100     		.2byte	0x1
 10565 0336 50       		.byte	0x50
ARM GAS  C:\Users\IDONNO~1\AppData\Local\Temp\ccY27Fyg.s 			page 187


 10566 0337 A2000000 		.4byte	.LVL27
 10567 033b C8000000 		.4byte	.LVL34
 10568 033f 0400     		.2byte	0x4
 10569 0341 91       		.byte	0x91
 10570 0342 E07D     		.sleb128 -288
 10571 0344 9F       		.byte	0x9f
 10572 0345 00000000 		.4byte	0
 10573 0349 00000000 		.4byte	0
 10574              	.LLST28:
 10575 034d 9E000000 		.4byte	.LVL25
 10576 0351 C8000000 		.4byte	.LVL34
 10577 0355 0400     		.2byte	0x4
 10578 0357 91       		.byte	0x91
 10579 0358 D87D     		.sleb128 -296
 10580 035a 9F       		.byte	0x9f
 10581 035b 00000000 		.4byte	0
 10582 035f 00000000 		.4byte	0
 10583              	.LLST29:
 10584 0363 9E000000 		.4byte	.LVL25
 10585 0367 A0000000 		.4byte	.LVL26
 10586 036b 0400     		.2byte	0x4
 10587 036d 91       		.byte	0x91
 10588 036e E07D     		.sleb128 -288
 10589 0370 9F       		.byte	0x9f
 10590 0371 A0000000 		.4byte	.LVL26
 10591 0375 A6000000 		.4byte	.LVL28
 10592 0379 0100     		.2byte	0x1
 10593 037b 50       		.byte	0x50
 10594 037c A6000000 		.4byte	.LVL28
 10595 0380 C6000000 		.4byte	.LVL33
 10596 0384 0300     		.2byte	0x3
 10597 0386 70       		.byte	0x70
 10598 0387 7F       		.sleb128 -1
 10599 0388 9F       		.byte	0x9f
 10600 0389 C6000000 		.4byte	.LVL33
 10601 038d E6000000 		.4byte	.LVL38
 10602 0391 0100     		.2byte	0x1
 10603 0393 50       		.byte	0x50
 10604 0394 00000000 		.4byte	0
 10605 0398 00000000 		.4byte	0
 10606              	.LLST30:
 10607 039c A2000000 		.4byte	.LVL27
 10608 03a0 E8000000 		.4byte	.LVL39
 10609 03a4 0400     		.2byte	0x4
 10610 03a6 91       		.byte	0x91
 10611 03a7 D87D     		.sleb128 -296
 10612 03a9 9F       		.byte	0x9f
 10613 03aa E8000000 		.4byte	.LVL39
 10614 03ae F9000000 		.4byte	.LVL43-1
 10615 03b2 0100     		.2byte	0x1
 10616 03b4 51       		.byte	0x51
 10617 03b5 F9000000 		.4byte	.LVL43-1
 10618 03b9 FE000000 		.4byte	.LVL44
 10619 03bd 0400     		.2byte	0x4
 10620 03bf 91       		.byte	0x91
 10621 03c0 D87D     		.sleb128 -296
 10622 03c2 9F       		.byte	0x9f
ARM GAS  C:\Users\IDONNO~1\AppData\Local\Temp\ccY27Fyg.s 			page 188


 10623 03c3 FE000000 		.4byte	.LVL44
 10624 03c7 04010000 		.4byte	.LFE407
 10625 03cb 0400     		.2byte	0x4
 10626 03cd 7D       		.byte	0x7d
 10627 03ce D87D     		.sleb128 -296
 10628 03d0 9F       		.byte	0x9f
 10629 03d1 00000000 		.4byte	0
 10630 03d5 00000000 		.4byte	0
 10631              	.LLST31:
 10632 03d9 A2000000 		.4byte	.LVL27
 10633 03dd A6000000 		.4byte	.LVL28
 10634 03e1 0200     		.2byte	0x2
 10635 03e3 70       		.byte	0x70
 10636 03e4 7F       		.sleb128 -1
 10637 03e5 A6000000 		.4byte	.LVL28
 10638 03e9 C6000000 		.4byte	.LVL33
 10639 03ed 0200     		.2byte	0x2
 10640 03ef 70       		.byte	0x70
 10641 03f0 7E       		.sleb128 -2
 10642 03f1 00000000 		.4byte	0
 10643 03f5 00000000 		.4byte	0
 10644              	.LLST32:
 10645 03f9 A8000000 		.4byte	.LVL29
 10646 03fd AC000000 		.4byte	.LVL30
 10647 0401 0100     		.2byte	0x1
 10648 0403 53       		.byte	0x53
 10649 0404 AC000000 		.4byte	.LVL30
 10650 0408 AE000000 		.4byte	.LVL31
 10651 040c 0B00     		.2byte	0xb
 10652 040e 70       		.byte	0x70
 10653 040f 7F       		.sleb128 -1
 10654 0410 94       		.byte	0x94
 10655 0411 01       		.byte	0x1
 10656 0412 08       		.byte	0x8
 10657 0413 FF       		.byte	0xff
 10658 0414 1A       		.byte	0x1a
 10659 0415 72       		.byte	0x72
 10660 0416 00       		.sleb128 0
 10661 0417 27       		.byte	0x27
 10662 0418 9F       		.byte	0x9f
 10663 0419 AE000000 		.4byte	.LVL31
 10664 041d BC000000 		.4byte	.LVL32
 10665 0421 0100     		.2byte	0x1
 10666 0423 53       		.byte	0x53
 10667 0424 00000000 		.4byte	0
 10668 0428 00000000 		.4byte	0
 10669              	.LLST33:
 10670 042c C8000000 		.4byte	.LVL34
 10671 0430 E8000000 		.4byte	.LVL39
 10672 0434 0400     		.2byte	0x4
 10673 0436 91       		.byte	0x91
 10674 0437 D87D     		.sleb128 -296
 10675 0439 9F       		.byte	0x9f
 10676 043a E8000000 		.4byte	.LVL39
 10677 043e F2000000 		.4byte	.LVL41
 10678 0442 0100     		.2byte	0x1
 10679 0444 51       		.byte	0x51
ARM GAS  C:\Users\IDONNO~1\AppData\Local\Temp\ccY27Fyg.s 			page 189


 10680 0445 00000000 		.4byte	0
 10681 0449 00000000 		.4byte	0
 10682              	.LLST34:
 10683 044d C8000000 		.4byte	.LVL34
 10684 0451 F2000000 		.4byte	.LVL41
 10685 0455 0300     		.2byte	0x3
 10686 0457 09       		.byte	0x9
 10687 0458 C0       		.byte	0xc0
 10688 0459 9F       		.byte	0x9f
 10689 045a 00000000 		.4byte	0
 10690 045e 00000000 		.4byte	0
 10691              	.LLST35:
 10692 0462 CC000000 		.4byte	.LVL35
 10693 0466 D0000000 		.4byte	.LVL36
 10694 046a 0100     		.2byte	0x1
 10695 046c 51       		.byte	0x51
 10696 046d D0000000 		.4byte	.LVL36
 10697 0471 D2000000 		.4byte	.LVL37
 10698 0475 0600     		.2byte	0x6
 10699 0477 73       		.byte	0x73
 10700 0478 00       		.sleb128 0
 10701 0479 08       		.byte	0x8
 10702 047a C0       		.byte	0xc0
 10703 047b 27       		.byte	0x27
 10704 047c 9F       		.byte	0x9f
 10705 047d D2000000 		.4byte	.LVL37
 10706 0481 E8000000 		.4byte	.LVL39
 10707 0485 0100     		.2byte	0x1
 10708 0487 51       		.byte	0x51
 10709 0488 00000000 		.4byte	0
 10710 048c 00000000 		.4byte	0
 10711              	.LLST36:
 10712 0490 00000000 		.4byte	.LVL45
 10713 0494 10000000 		.4byte	.LVL46
 10714 0498 0100     		.2byte	0x1
 10715 049a 50       		.byte	0x50
 10716 049b 10000000 		.4byte	.LVL46
 10717 049f 20000000 		.4byte	.LFE408
 10718 04a3 0400     		.2byte	0x4
 10719 04a5 F3       		.byte	0xf3
 10720 04a6 01       		.uleb128 0x1
 10721 04a7 50       		.byte	0x50
 10722 04a8 9F       		.byte	0x9f
 10723 04a9 00000000 		.4byte	0
 10724 04ad 00000000 		.4byte	0
 10725              	.LLST37:
 10726 04b1 00000000 		.4byte	.LVL45
 10727 04b5 16000000 		.4byte	.LVL47
 10728 04b9 0100     		.2byte	0x1
 10729 04bb 51       		.byte	0x51
 10730 04bc 16000000 		.4byte	.LVL47
 10731 04c0 19000000 		.4byte	.LVL48-1
 10732 04c4 0200     		.2byte	0x2
 10733 04c6 71       		.byte	0x71
 10734 04c7 00       		.sleb128 0
 10735 04c8 19000000 		.4byte	.LVL48-1
 10736 04cc 20000000 		.4byte	.LFE408
ARM GAS  C:\Users\IDONNO~1\AppData\Local\Temp\ccY27Fyg.s 			page 190


 10737 04d0 0400     		.2byte	0x4
 10738 04d2 F3       		.byte	0xf3
 10739 04d3 01       		.uleb128 0x1
 10740 04d4 51       		.byte	0x51
 10741 04d5 9F       		.byte	0x9f
 10742 04d6 00000000 		.4byte	0
 10743 04da 00000000 		.4byte	0
 10744              	.LLST38:
 10745 04de 00000000 		.4byte	.LVL49
 10746 04e2 1A000000 		.4byte	.LVL53
 10747 04e6 0100     		.2byte	0x1
 10748 04e8 50       		.byte	0x50
 10749 04e9 1A000000 		.4byte	.LVL53
 10750 04ed 50000000 		.4byte	.LVL56
 10751 04f1 0100     		.2byte	0x1
 10752 04f3 56       		.byte	0x56
 10753 04f4 50000000 		.4byte	.LVL56
 10754 04f8 8C000000 		.4byte	.LFE409
 10755 04fc 0400     		.2byte	0x4
 10756 04fe F3       		.byte	0xf3
 10757 04ff 01       		.uleb128 0x1
 10758 0500 50       		.byte	0x50
 10759 0501 9F       		.byte	0x9f
 10760 0502 00000000 		.4byte	0
 10761 0506 00000000 		.4byte	0
 10762              	.LLST39:
 10763 050a 08000000 		.4byte	.LVL51
 10764 050e 26000000 		.4byte	.LVL54
 10765 0512 0100     		.2byte	0x1
 10766 0514 5D       		.byte	0x5d
 10767 0515 00000000 		.4byte	0
 10768 0519 00000000 		.4byte	0
 10769              	.LLST40:
 10770 051d 04000000 		.4byte	.LVL50
 10771 0521 26000000 		.4byte	.LVL54
 10772 0525 0100     		.2byte	0x1
 10773 0527 55       		.byte	0x55
 10774 0528 00000000 		.4byte	0
 10775 052c 00000000 		.4byte	0
 10776              	.LLST41:
 10777 0530 08000000 		.4byte	.LVL51
 10778 0534 12000000 		.4byte	.LVL52
 10779 0538 1500     		.2byte	0x15
 10780 053a 72       		.byte	0x72
 10781 053b 00       		.sleb128 0
 10782 053c 12       		.byte	0x12
 10783 053d 40       		.byte	0x40
 10784 053e 4B       		.byte	0x4b
 10785 053f 24       		.byte	0x24
 10786 0540 22       		.byte	0x22
 10787 0541 39       		.byte	0x39
 10788 0542 16       		.byte	0x16
 10789 0543 14       		.byte	0x14
 10790 0544 40       		.byte	0x40
 10791 0545 4B       		.byte	0x4b
 10792 0546 24       		.byte	0x24
 10793 0547 22       		.byte	0x22
ARM GAS  C:\Users\IDONNO~1\AppData\Local\Temp\ccY27Fyg.s 			page 191


 10794 0548 2D       		.byte	0x2d
 10795 0549 28       		.byte	0x28
 10796 054a 0100     		.2byte	0x1
 10797 054c 16       		.byte	0x16
 10798 054d 13       		.byte	0x13
 10799 054e 9F       		.byte	0x9f
 10800 054f 12000000 		.4byte	.LVL52
 10801 0553 25000000 		.4byte	.LVL54-1
 10802 0557 1A00     		.2byte	0x1a
 10803 0559 75       		.byte	0x75
 10804 055a 03       		.sleb128 3
 10805 055b 94       		.byte	0x94
 10806 055c 01       		.byte	0x1
 10807 055d 08       		.byte	0x8
 10808 055e FF       		.byte	0xff
 10809 055f 1A       		.byte	0x1a
 10810 0560 12       		.byte	0x12
 10811 0561 40       		.byte	0x40
 10812 0562 4B       		.byte	0x4b
 10813 0563 24       		.byte	0x24
 10814 0564 22       		.byte	0x22
 10815 0565 39       		.byte	0x39
 10816 0566 16       		.byte	0x16
 10817 0567 14       		.byte	0x14
 10818 0568 40       		.byte	0x40
 10819 0569 4B       		.byte	0x4b
 10820 056a 24       		.byte	0x24
 10821 056b 22       		.byte	0x22
 10822 056c 2D       		.byte	0x2d
 10823 056d 28       		.byte	0x28
 10824 056e 0100     		.2byte	0x1
 10825 0570 16       		.byte	0x16
 10826 0571 13       		.byte	0x13
 10827 0572 9F       		.byte	0x9f
 10828 0573 00000000 		.4byte	0
 10829 0577 00000000 		.4byte	0
 10830              	.LLST42:
 10831 057b 32000000 		.4byte	.LVL55
 10832 057f 50000000 		.4byte	.LVL56
 10833 0583 0100     		.2byte	0x1
 10834 0585 56       		.byte	0x56
 10835 0586 50000000 		.4byte	.LVL56
 10836 058a 8C000000 		.4byte	.LFE409
 10837 058e 0400     		.2byte	0x4
 10838 0590 F3       		.byte	0xf3
 10839 0591 01       		.uleb128 0x1
 10840 0592 50       		.byte	0x50
 10841 0593 9F       		.byte	0x9f
 10842 0594 00000000 		.4byte	0
 10843 0598 00000000 		.4byte	0
 10844              	.LLST43:
 10845 059c 00000000 		.4byte	.LVL58
 10846 05a0 1A000000 		.4byte	.LVL62
 10847 05a4 0100     		.2byte	0x1
 10848 05a6 50       		.byte	0x50
 10849 05a7 1A000000 		.4byte	.LVL62
 10850 05ab 72000000 		.4byte	.LVL73
ARM GAS  C:\Users\IDONNO~1\AppData\Local\Temp\ccY27Fyg.s 			page 192


 10851 05af 0100     		.2byte	0x1
 10852 05b1 56       		.byte	0x56
 10853 05b2 72000000 		.4byte	.LVL73
 10854 05b6 78000000 		.4byte	.LFE410
 10855 05ba 0400     		.2byte	0x4
 10856 05bc F3       		.byte	0xf3
 10857 05bd 01       		.uleb128 0x1
 10858 05be 50       		.byte	0x50
 10859 05bf 9F       		.byte	0x9f
 10860 05c0 00000000 		.4byte	0
 10861 05c4 00000000 		.4byte	0
 10862              	.LLST44:
 10863 05c8 08000000 		.4byte	.LVL60
 10864 05cc 26000000 		.4byte	.LVL63
 10865 05d0 0100     		.2byte	0x1
 10866 05d2 5D       		.byte	0x5d
 10867 05d3 00000000 		.4byte	0
 10868 05d7 00000000 		.4byte	0
 10869              	.LLST45:
 10870 05db 04000000 		.4byte	.LVL59
 10871 05df 26000000 		.4byte	.LVL63
 10872 05e3 0100     		.2byte	0x1
 10873 05e5 55       		.byte	0x55
 10874 05e6 00000000 		.4byte	0
 10875 05ea 00000000 		.4byte	0
 10876              	.LLST46:
 10877 05ee 08000000 		.4byte	.LVL60
 10878 05f2 12000000 		.4byte	.LVL61
 10879 05f6 1500     		.2byte	0x15
 10880 05f8 72       		.byte	0x72
 10881 05f9 00       		.sleb128 0
 10882 05fa 12       		.byte	0x12
 10883 05fb 40       		.byte	0x40
 10884 05fc 4B       		.byte	0x4b
 10885 05fd 24       		.byte	0x24
 10886 05fe 22       		.byte	0x22
 10887 05ff 39       		.byte	0x39
 10888 0600 16       		.byte	0x16
 10889 0601 14       		.byte	0x14
 10890 0602 40       		.byte	0x40
 10891 0603 4B       		.byte	0x4b
 10892 0604 24       		.byte	0x24
 10893 0605 22       		.byte	0x22
 10894 0606 2D       		.byte	0x2d
 10895 0607 28       		.byte	0x28
 10896 0608 0100     		.2byte	0x1
 10897 060a 16       		.byte	0x16
 10898 060b 13       		.byte	0x13
 10899 060c 9F       		.byte	0x9f
 10900 060d 12000000 		.4byte	.LVL61
 10901 0611 25000000 		.4byte	.LVL63-1
 10902 0615 1A00     		.2byte	0x1a
 10903 0617 75       		.byte	0x75
 10904 0618 03       		.sleb128 3
 10905 0619 94       		.byte	0x94
 10906 061a 01       		.byte	0x1
 10907 061b 08       		.byte	0x8
ARM GAS  C:\Users\IDONNO~1\AppData\Local\Temp\ccY27Fyg.s 			page 193


 10908 061c FF       		.byte	0xff
 10909 061d 1A       		.byte	0x1a
 10910 061e 12       		.byte	0x12
 10911 061f 40       		.byte	0x40
 10912 0620 4B       		.byte	0x4b
 10913 0621 24       		.byte	0x24
 10914 0622 22       		.byte	0x22
 10915 0623 39       		.byte	0x39
 10916 0624 16       		.byte	0x16
 10917 0625 14       		.byte	0x14
 10918 0626 40       		.byte	0x40
 10919 0627 4B       		.byte	0x4b
 10920 0628 24       		.byte	0x24
 10921 0629 22       		.byte	0x22
 10922 062a 2D       		.byte	0x2d
 10923 062b 28       		.byte	0x28
 10924 062c 0100     		.2byte	0x1
 10925 062e 16       		.byte	0x16
 10926 062f 13       		.byte	0x13
 10927 0630 9F       		.byte	0x9f
 10928 0631 00000000 		.4byte	0
 10929 0635 00000000 		.4byte	0
 10930              	.LLST47:
 10931 0639 32000000 		.4byte	.LVL64
 10932 063d 72000000 		.4byte	.LVL73
 10933 0641 0100     		.2byte	0x1
 10934 0643 56       		.byte	0x56
 10935 0644 72000000 		.4byte	.LVL73
 10936 0648 78000000 		.4byte	.LFE410
 10937 064c 0400     		.2byte	0x4
 10938 064e F3       		.byte	0xf3
 10939 064f 01       		.uleb128 0x1
 10940 0650 50       		.byte	0x50
 10941 0651 9F       		.byte	0x9f
 10942 0652 00000000 		.4byte	0
 10943 0656 00000000 		.4byte	0
 10944              	.LLST48:
 10945 065a 3E000000 		.4byte	.LVL65
 10946 065e 42000000 		.4byte	.LVL66
 10947 0662 0200     		.2byte	0x2
 10948 0664 30       		.byte	0x30
 10949 0665 9F       		.byte	0x9f
 10950 0666 42000000 		.4byte	.LVL66
 10951 066a 44000000 		.4byte	.LVL67
 10952 066e 0100     		.2byte	0x1
 10953 0670 53       		.byte	0x53
 10954 0671 50000000 		.4byte	.LVL70
 10955 0675 64000000 		.4byte	.LVL71
 10956 0679 0100     		.2byte	0x1
 10957 067b 53       		.byte	0x53
 10958 067c 64000000 		.4byte	.LVL71
 10959 0680 6D000000 		.4byte	.LVL72-1
 10960 0684 0200     		.2byte	0x2
 10961 0686 91       		.byte	0x91
 10962 0687 5F       		.sleb128 -33
 10963 0688 00000000 		.4byte	0
 10964 068c 00000000 		.4byte	0
ARM GAS  C:\Users\IDONNO~1\AppData\Local\Temp\ccY27Fyg.s 			page 194


 10965              	.LLST49:
 10966 0690 00000000 		.4byte	.LVL74
 10967 0694 09000000 		.4byte	.LVL75-1
 10968 0698 0100     		.2byte	0x1
 10969 069a 50       		.byte	0x50
 10970 069b 09000000 		.4byte	.LVL75-1
 10971 069f 60000000 		.4byte	.LFE412
 10972 06a3 0100     		.2byte	0x1
 10973 06a5 56       		.byte	0x56
 10974 06a6 00000000 		.4byte	0
 10975 06aa 00000000 		.4byte	0
 10976              	.LLST50:
 10977 06ae 16000000 		.4byte	.LVL77
 10978 06b2 26000000 		.4byte	.LVL80
 10979 06b6 0400     		.2byte	0x4
 10980 06b8 91       		.byte	0x91
 10981 06b9 FC7D     		.sleb128 -260
 10982 06bb 9F       		.byte	0x9f
 10983 06bc 26000000 		.4byte	.LVL80
 10984 06c0 2D000000 		.4byte	.LVL81-1
 10985 06c4 0100     		.2byte	0x1
 10986 06c6 50       		.byte	0x50
 10987 06c7 2D000000 		.4byte	.LVL81-1
 10988 06cb 2E000000 		.4byte	.LVL81
 10989 06cf 0400     		.2byte	0x4
 10990 06d1 91       		.byte	0x91
 10991 06d2 FC7D     		.sleb128 -260
 10992 06d4 9F       		.byte	0x9f
 10993 06d5 00000000 		.4byte	0
 10994 06d9 00000000 		.4byte	0
 10995              	.LLST51:
 10996 06dd 16000000 		.4byte	.LVL77
 10997 06e1 2E000000 		.4byte	.LVL81
 10998 06e5 0100     		.2byte	0x1
 10999 06e7 54       		.byte	0x54
 11000 06e8 00000000 		.4byte	0
 11001 06ec 00000000 		.4byte	0
 11002              	.LLST52:
 11003 06f0 18000000 		.4byte	.LVL78
 11004 06f4 1E000000 		.4byte	.LVL79
 11005 06f8 1500     		.2byte	0x15
 11006 06fa 72       		.byte	0x72
 11007 06fb 00       		.sleb128 0
 11008 06fc 12       		.byte	0x12
 11009 06fd 40       		.byte	0x40
 11010 06fe 4B       		.byte	0x4b
 11011 06ff 24       		.byte	0x24
 11012 0700 22       		.byte	0x22
 11013 0701 32       		.byte	0x32
 11014 0702 16       		.byte	0x16
 11015 0703 14       		.byte	0x14
 11016 0704 40       		.byte	0x40
 11017 0705 4B       		.byte	0x4b
 11018 0706 24       		.byte	0x24
 11019 0707 22       		.byte	0x22
 11020 0708 2D       		.byte	0x2d
 11021 0709 28       		.byte	0x28
ARM GAS  C:\Users\IDONNO~1\AppData\Local\Temp\ccY27Fyg.s 			page 195


 11022 070a 0100     		.2byte	0x1
 11023 070c 16       		.byte	0x16
 11024 070d 13       		.byte	0x13
 11025 070e 9F       		.byte	0x9f
 11026 070f 1E000000 		.4byte	.LVL79
 11027 0713 2D000000 		.4byte	.LVL81-1
 11028 0717 1A00     		.2byte	0x1a
 11029 0719 74       		.byte	0x74
 11030 071a 03       		.sleb128 3
 11031 071b 94       		.byte	0x94
 11032 071c 01       		.byte	0x1
 11033 071d 08       		.byte	0x8
 11034 071e FF       		.byte	0xff
 11035 071f 1A       		.byte	0x1a
 11036 0720 12       		.byte	0x12
 11037 0721 40       		.byte	0x40
 11038 0722 4B       		.byte	0x4b
 11039 0723 24       		.byte	0x24
 11040 0724 22       		.byte	0x22
 11041 0725 32       		.byte	0x32
 11042 0726 16       		.byte	0x16
 11043 0727 14       		.byte	0x14
 11044 0728 40       		.byte	0x40
 11045 0729 4B       		.byte	0x4b
 11046 072a 24       		.byte	0x24
 11047 072b 22       		.byte	0x22
 11048 072c 2D       		.byte	0x2d
 11049 072d 28       		.byte	0x28
 11050 072e 0100     		.2byte	0x1
 11051 0730 16       		.byte	0x16
 11052 0731 13       		.byte	0x13
 11053 0732 9F       		.byte	0x9f
 11054 0733 00000000 		.4byte	0
 11055 0737 00000000 		.4byte	0
 11056              	.LLST53:
 11057 073b 00000000 		.4byte	.LVL86
 11058 073f 18000000 		.4byte	.LVL90
 11059 0743 0100     		.2byte	0x1
 11060 0745 50       		.byte	0x50
 11061 0746 18000000 		.4byte	.LVL90
 11062 074a 5A000000 		.4byte	.LFE413
 11063 074e 0100     		.2byte	0x1
 11064 0750 56       		.byte	0x56
 11065 0751 00000000 		.4byte	0
 11066 0755 00000000 		.4byte	0
 11067              	.LLST54:
 11068 0759 08000000 		.4byte	.LVL88
 11069 075d 24000000 		.4byte	.LVL91
 11070 0761 0100     		.2byte	0x1
 11071 0763 5D       		.byte	0x5d
 11072 0764 00000000 		.4byte	0
 11073 0768 00000000 		.4byte	0
 11074              	.LLST55:
 11075 076c 04000000 		.4byte	.LVL87
 11076 0770 24000000 		.4byte	.LVL91
 11077 0774 0100     		.2byte	0x1
 11078 0776 55       		.byte	0x55
ARM GAS  C:\Users\IDONNO~1\AppData\Local\Temp\ccY27Fyg.s 			page 196


 11079 0777 00000000 		.4byte	0
 11080 077b 00000000 		.4byte	0
 11081              	.LLST56:
 11082 077f 08000000 		.4byte	.LVL88
 11083 0783 0E000000 		.4byte	.LVL89
 11084 0787 1500     		.2byte	0x15
 11085 0789 72       		.byte	0x72
 11086 078a 00       		.sleb128 0
 11087 078b 12       		.byte	0x12
 11088 078c 40       		.byte	0x40
 11089 078d 4B       		.byte	0x4b
 11090 078e 24       		.byte	0x24
 11091 078f 22       		.byte	0x22
 11092 0790 33       		.byte	0x33
 11093 0791 16       		.byte	0x16
 11094 0792 14       		.byte	0x14
 11095 0793 40       		.byte	0x40
 11096 0794 4B       		.byte	0x4b
 11097 0795 24       		.byte	0x24
 11098 0796 22       		.byte	0x22
 11099 0797 2D       		.byte	0x2d
 11100 0798 28       		.byte	0x28
 11101 0799 0100     		.2byte	0x1
 11102 079b 16       		.byte	0x16
 11103 079c 13       		.byte	0x13
 11104 079d 9F       		.byte	0x9f
 11105 079e 0E000000 		.4byte	.LVL89
 11106 07a2 23000000 		.4byte	.LVL91-1
 11107 07a6 1A00     		.2byte	0x1a
 11108 07a8 75       		.byte	0x75
 11109 07a9 03       		.sleb128 3
 11110 07aa 94       		.byte	0x94
 11111 07ab 01       		.byte	0x1
 11112 07ac 08       		.byte	0x8
 11113 07ad FF       		.byte	0xff
 11114 07ae 1A       		.byte	0x1a
 11115 07af 12       		.byte	0x12
 11116 07b0 40       		.byte	0x40
 11117 07b1 4B       		.byte	0x4b
 11118 07b2 24       		.byte	0x24
 11119 07b3 22       		.byte	0x22
 11120 07b4 33       		.byte	0x33
 11121 07b5 16       		.byte	0x16
 11122 07b6 14       		.byte	0x14
 11123 07b7 40       		.byte	0x40
 11124 07b8 4B       		.byte	0x4b
 11125 07b9 24       		.byte	0x24
 11126 07ba 22       		.byte	0x22
 11127 07bb 2D       		.byte	0x2d
 11128 07bc 28       		.byte	0x28
 11129 07bd 0100     		.2byte	0x1
 11130 07bf 16       		.byte	0x16
 11131 07c0 13       		.byte	0x13
 11132 07c1 9F       		.byte	0x9f
 11133 07c2 00000000 		.4byte	0
 11134 07c6 00000000 		.4byte	0
 11135              	.LLST57:
ARM GAS  C:\Users\IDONNO~1\AppData\Local\Temp\ccY27Fyg.s 			page 197


 11136 07ca 00000000 		.4byte	.LVL96
 11137 07ce 16000000 		.4byte	.LVL100
 11138 07d2 0100     		.2byte	0x1
 11139 07d4 50       		.byte	0x50
 11140 07d5 16000000 		.4byte	.LVL100
 11141 07d9 92010000 		.4byte	.LFE414
 11142 07dd 0100     		.2byte	0x1
 11143 07df 56       		.byte	0x56
 11144 07e0 00000000 		.4byte	0
 11145 07e4 00000000 		.4byte	0
 11146              	.LLST58:
 11147 07e8 08000000 		.4byte	.LVL98
 11148 07ec 16000000 		.4byte	.LVL100
 11149 07f0 0400     		.2byte	0x4
 11150 07f2 91       		.byte	0x91
 11151 07f3 F47D     		.sleb128 -268
 11152 07f5 9F       		.byte	0x9f
 11153 07f6 16000000 		.4byte	.LVL100
 11154 07fa 19000000 		.4byte	.LVL101-1
 11155 07fe 0100     		.2byte	0x1
 11156 0800 50       		.byte	0x50
 11157 0801 19000000 		.4byte	.LVL101-1
 11158 0805 1E000000 		.4byte	.LVL102
 11159 0809 0400     		.2byte	0x4
 11160 080b 91       		.byte	0x91
 11161 080c F47D     		.sleb128 -268
 11162 080e 9F       		.byte	0x9f
 11163 080f 1E000000 		.4byte	.LVL102
 11164 0813 25000000 		.4byte	.LVL103-1
 11165 0817 0100     		.2byte	0x1
 11166 0819 50       		.byte	0x50
 11167 081a 25000000 		.4byte	.LVL103-1
 11168 081e 26000000 		.4byte	.LVL103
 11169 0822 0400     		.2byte	0x4
 11170 0824 91       		.byte	0x91
 11171 0825 F47D     		.sleb128 -268
 11172 0827 9F       		.byte	0x9f
 11173 0828 00000000 		.4byte	0
 11174 082c 00000000 		.4byte	0
 11175              	.LLST59:
 11176 0830 04000000 		.4byte	.LVL97
 11177 0834 26000000 		.4byte	.LVL103
 11178 0838 0100     		.2byte	0x1
 11179 083a 55       		.byte	0x55
 11180 083b 00000000 		.4byte	0
 11181 083f 00000000 		.4byte	0
 11182              	.LLST60:
 11183 0843 0E000000 		.4byte	.LVL99
 11184 0847 26000000 		.4byte	.LVL103
 11185 084b 0100     		.2byte	0x1
 11186 084d 54       		.byte	0x54
 11187 084e 00000000 		.4byte	0
 11188 0852 00000000 		.4byte	0
 11189              	.LLST61:
 11190 0856 00000000 		.4byte	.LVL110
 11191 085a 1A000000 		.4byte	.LVL114
 11192 085e 0100     		.2byte	0x1
ARM GAS  C:\Users\IDONNO~1\AppData\Local\Temp\ccY27Fyg.s 			page 198


 11193 0860 50       		.byte	0x50
 11194 0861 1A000000 		.4byte	.LVL114
 11195 0865 4C000000 		.4byte	.LFE415
 11196 0869 0100     		.2byte	0x1
 11197 086b 56       		.byte	0x56
 11198 086c 00000000 		.4byte	0
 11199 0870 00000000 		.4byte	0
 11200              	.LLST62:
 11201 0874 08000000 		.4byte	.LVL112
 11202 0878 26000000 		.4byte	.LVL115
 11203 087c 0100     		.2byte	0x1
 11204 087e 5D       		.byte	0x5d
 11205 087f 00000000 		.4byte	0
 11206 0883 00000000 		.4byte	0
 11207              	.LLST63:
 11208 0887 04000000 		.4byte	.LVL111
 11209 088b 26000000 		.4byte	.LVL115
 11210 088f 0100     		.2byte	0x1
 11211 0891 55       		.byte	0x55
 11212 0892 00000000 		.4byte	0
 11213 0896 00000000 		.4byte	0
 11214              	.LLST64:
 11215 089a 08000000 		.4byte	.LVL112
 11216 089e 12000000 		.4byte	.LVL113
 11217 08a2 1500     		.2byte	0x15
 11218 08a4 72       		.byte	0x72
 11219 08a5 00       		.sleb128 0
 11220 08a6 12       		.byte	0x12
 11221 08a7 40       		.byte	0x40
 11222 08a8 4B       		.byte	0x4b
 11223 08a9 24       		.byte	0x24
 11224 08aa 22       		.byte	0x22
 11225 08ab 39       		.byte	0x39
 11226 08ac 16       		.byte	0x16
 11227 08ad 14       		.byte	0x14
 11228 08ae 40       		.byte	0x40
 11229 08af 4B       		.byte	0x4b
 11230 08b0 24       		.byte	0x24
 11231 08b1 22       		.byte	0x22
 11232 08b2 2D       		.byte	0x2d
 11233 08b3 28       		.byte	0x28
 11234 08b4 0100     		.2byte	0x1
 11235 08b6 16       		.byte	0x16
 11236 08b7 13       		.byte	0x13
 11237 08b8 9F       		.byte	0x9f
 11238 08b9 12000000 		.4byte	.LVL113
 11239 08bd 25000000 		.4byte	.LVL115-1
 11240 08c1 1A00     		.2byte	0x1a
 11241 08c3 75       		.byte	0x75
 11242 08c4 03       		.sleb128 3
 11243 08c5 94       		.byte	0x94
 11244 08c6 01       		.byte	0x1
 11245 08c7 08       		.byte	0x8
 11246 08c8 FF       		.byte	0xff
 11247 08c9 1A       		.byte	0x1a
 11248 08ca 12       		.byte	0x12
 11249 08cb 40       		.byte	0x40
ARM GAS  C:\Users\IDONNO~1\AppData\Local\Temp\ccY27Fyg.s 			page 199


 11250 08cc 4B       		.byte	0x4b
 11251 08cd 24       		.byte	0x24
 11252 08ce 22       		.byte	0x22
 11253 08cf 39       		.byte	0x39
 11254 08d0 16       		.byte	0x16
 11255 08d1 14       		.byte	0x14
 11256 08d2 40       		.byte	0x40
 11257 08d3 4B       		.byte	0x4b
 11258 08d4 24       		.byte	0x24
 11259 08d5 22       		.byte	0x22
 11260 08d6 2D       		.byte	0x2d
 11261 08d7 28       		.byte	0x28
 11262 08d8 0100     		.2byte	0x1
 11263 08da 16       		.byte	0x16
 11264 08db 13       		.byte	0x13
 11265 08dc 9F       		.byte	0x9f
 11266 08dd 00000000 		.4byte	0
 11267 08e1 00000000 		.4byte	0
 11268              	.LLST65:
 11269 08e5 00000000 		.4byte	.LVL118
 11270 08e9 0E000000 		.4byte	.LVL120
 11271 08ed 0100     		.2byte	0x1
 11272 08ef 50       		.byte	0x50
 11273 08f0 0E000000 		.4byte	.LVL120
 11274 08f4 F0000000 		.4byte	.LFE416
 11275 08f8 0400     		.2byte	0x4
 11276 08fa F3       		.byte	0xf3
 11277 08fb 01       		.uleb128 0x1
 11278 08fc 50       		.byte	0x50
 11279 08fd 9F       		.byte	0x9f
 11280 08fe 00000000 		.4byte	0
 11281 0902 00000000 		.4byte	0
 11282              	.LLST66:
 11283 0906 00000000 		.4byte	.LVL118
 11284 090a 15000000 		.4byte	.LVL121-1
 11285 090e 0100     		.2byte	0x1
 11286 0910 51       		.byte	0x51
 11287 0911 15000000 		.4byte	.LVL121-1
 11288 0915 E4000000 		.4byte	.LVL153
 11289 0919 0400     		.2byte	0x4
 11290 091b F3       		.byte	0xf3
 11291 091c 01       		.uleb128 0x1
 11292 091d 51       		.byte	0x51
 11293 091e 9F       		.byte	0x9f
 11294 091f E4000000 		.4byte	.LVL153
 11295 0923 E7000000 		.4byte	.LVL154-1
 11296 0927 0100     		.2byte	0x1
 11297 0929 51       		.byte	0x51
 11298 092a E7000000 		.4byte	.LVL154-1
 11299 092e F0000000 		.4byte	.LFE416
 11300 0932 0400     		.2byte	0x4
 11301 0934 F3       		.byte	0xf3
 11302 0935 01       		.uleb128 0x1
 11303 0936 51       		.byte	0x51
 11304 0937 9F       		.byte	0x9f
 11305 0938 00000000 		.4byte	0
 11306 093c 00000000 		.4byte	0
ARM GAS  C:\Users\IDONNO~1\AppData\Local\Temp\ccY27Fyg.s 			page 200


 11307              	.LLST67:
 11308 0940 0A000000 		.4byte	.LVL119
 11309 0944 DA000000 		.4byte	.LVL151
 11310 0948 0200     		.2byte	0x2
 11311 094a 30       		.byte	0x30
 11312 094b 9F       		.byte	0x9f
 11313 094c E4000000 		.4byte	.LVL153
 11314 0950 F0000000 		.4byte	.LFE416
 11315 0954 0200     		.2byte	0x2
 11316 0956 30       		.byte	0x30
 11317 0957 9F       		.byte	0x9f
 11318 0958 00000000 		.4byte	0
 11319 095c 00000000 		.4byte	0
 11320              	.LLST69:
 11321 0960 0A000000 		.4byte	.LVL119
 11322 0964 15000000 		.4byte	.LVL121-1
 11323 0968 0100     		.2byte	0x1
 11324 096a 51       		.byte	0x51
 11325 096b 15000000 		.4byte	.LVL121-1
 11326 096f DA000000 		.4byte	.LVL151
 11327 0973 0400     		.2byte	0x4
 11328 0975 F3       		.byte	0xf3
 11329 0976 01       		.uleb128 0x1
 11330 0977 51       		.byte	0x51
 11331 0978 9F       		.byte	0x9f
 11332 0979 E4000000 		.4byte	.LVL153
 11333 097d E7000000 		.4byte	.LVL154-1
 11334 0981 0100     		.2byte	0x1
 11335 0983 51       		.byte	0x51
 11336 0984 E7000000 		.4byte	.LVL154-1
 11337 0988 F0000000 		.4byte	.LFE416
 11338 098c 0400     		.2byte	0x4
 11339 098e F3       		.byte	0xf3
 11340 098f 01       		.uleb128 0x1
 11341 0990 51       		.byte	0x51
 11342 0991 9F       		.byte	0x9f
 11343 0992 00000000 		.4byte	0
 11344 0996 00000000 		.4byte	0
 11345              	.LLST70:
 11346 099a 0A000000 		.4byte	.LVL119
 11347 099e CC000000 		.4byte	.LVL148
 11348 09a2 0400     		.2byte	0x4
 11349 09a4 91       		.byte	0x91
 11350 09a5 E07D     		.sleb128 -288
 11351 09a7 9F       		.byte	0x9f
 11352 09a8 CC000000 		.4byte	.LVL148
 11353 09ac DA000000 		.4byte	.LVL151
 11354 09b0 0100     		.2byte	0x1
 11355 09b2 51       		.byte	0x51
 11356 09b3 E4000000 		.4byte	.LVL153
 11357 09b7 F0000000 		.4byte	.LFE416
 11358 09bb 0400     		.2byte	0x4
 11359 09bd 91       		.byte	0x91
 11360 09be E07D     		.sleb128 -288
 11361 09c0 9F       		.byte	0x9f
 11362 09c1 00000000 		.4byte	0
 11363 09c5 00000000 		.4byte	0
ARM GAS  C:\Users\IDONNO~1\AppData\Local\Temp\ccY27Fyg.s 			page 201


 11364              	.LLST71:
 11365 09c9 0A000000 		.4byte	.LVL119
 11366 09cd CE000000 		.4byte	.LVL149
 11367 09d1 0100     		.2byte	0x1
 11368 09d3 54       		.byte	0x54
 11369 09d4 E4000000 		.4byte	.LVL153
 11370 09d8 F0000000 		.4byte	.LFE416
 11371 09dc 0100     		.2byte	0x1
 11372 09de 54       		.byte	0x54
 11373 09df 00000000 		.4byte	0
 11374 09e3 00000000 		.4byte	0
 11375              	.LLST72:
 11376 09e7 0A000000 		.4byte	.LVL119
 11377 09eb 16000000 		.4byte	.LVL121
 11378 09ef 0300     		.2byte	0x3
 11379 09f1 08       		.byte	0x8
 11380 09f2 FA       		.byte	0xfa
 11381 09f3 9F       		.byte	0x9f
 11382 09f4 E4000000 		.4byte	.LVL153
 11383 09f8 F0000000 		.4byte	.LFE416
 11384 09fc 0300     		.2byte	0x3
 11385 09fe 08       		.byte	0x8
 11386 09ff FA       		.byte	0xfa
 11387 0a00 9F       		.byte	0x9f
 11388 0a01 00000000 		.4byte	0
 11389 0a05 00000000 		.4byte	0
 11390              	.LLST73:
 11391 0a09 0A000000 		.4byte	.LVL119
 11392 0a0d 15000000 		.4byte	.LVL121-1
 11393 0a11 0100     		.2byte	0x1
 11394 0a13 51       		.byte	0x51
 11395 0a14 15000000 		.4byte	.LVL121-1
 11396 0a18 16000000 		.4byte	.LVL121
 11397 0a1c 0400     		.2byte	0x4
 11398 0a1e F3       		.byte	0xf3
 11399 0a1f 01       		.uleb128 0x1
 11400 0a20 51       		.byte	0x51
 11401 0a21 9F       		.byte	0x9f
 11402 0a22 E4000000 		.4byte	.LVL153
 11403 0a26 E7000000 		.4byte	.LVL154-1
 11404 0a2a 0100     		.2byte	0x1
 11405 0a2c 51       		.byte	0x51
 11406 0a2d E7000000 		.4byte	.LVL154-1
 11407 0a31 F0000000 		.4byte	.LFE416
 11408 0a35 0400     		.2byte	0x4
 11409 0a37 F3       		.byte	0xf3
 11410 0a38 01       		.uleb128 0x1
 11411 0a39 51       		.byte	0x51
 11412 0a3a 9F       		.byte	0x9f
 11413 0a3b 00000000 		.4byte	0
 11414 0a3f 00000000 		.4byte	0
 11415              	.LLST74:
 11416 0a43 0A000000 		.4byte	.LVL119
 11417 0a47 16000000 		.4byte	.LVL121
 11418 0a4b 0100     		.2byte	0x1
 11419 0a4d 56       		.byte	0x56
 11420 0a4e E4000000 		.4byte	.LVL153
ARM GAS  C:\Users\IDONNO~1\AppData\Local\Temp\ccY27Fyg.s 			page 202


 11421 0a52 E7000000 		.4byte	.LVL154-1
 11422 0a56 0100     		.2byte	0x1
 11423 0a58 50       		.byte	0x50
 11424 0a59 E7000000 		.4byte	.LVL154-1
 11425 0a5d F0000000 		.4byte	.LFE416
 11426 0a61 0100     		.2byte	0x1
 11427 0a63 56       		.byte	0x56
 11428 0a64 00000000 		.4byte	0
 11429 0a68 00000000 		.4byte	0
 11430              	.LLST75:
 11431 0a6c 44000000 		.4byte	.LVL123
 11432 0a70 DA000000 		.4byte	.LVL151
 11433 0a74 0200     		.2byte	0x2
 11434 0a76 30       		.byte	0x30
 11435 0a77 9F       		.byte	0x9f
 11436 0a78 00000000 		.4byte	0
 11437 0a7c 00000000 		.4byte	0
 11438              	.LLST77:
 11439 0a80 44000000 		.4byte	.LVL123
 11440 0a84 E4000000 		.4byte	.LVL153
 11441 0a88 0300     		.2byte	0x3
 11442 0a8a 09       		.byte	0x9
 11443 0a8b FA       		.byte	0xfa
 11444 0a8c 9F       		.byte	0x9f
 11445 0a8d 00000000 		.4byte	0
 11446 0a91 00000000 		.4byte	0
 11447              	.LLST78:
 11448 0a95 44000000 		.4byte	.LVL123
 11449 0a99 DA000000 		.4byte	.LVL151
 11450 0a9d 0300     		.2byte	0x3
 11451 0a9f 08       		.byte	0x8
 11452 0aa0 32       		.byte	0x32
 11453 0aa1 9F       		.byte	0x9f
 11454 0aa2 00000000 		.4byte	0
 11455 0aa6 00000000 		.4byte	0
 11456              	.LLST79:
 11457 0aaa 44000000 		.4byte	.LVL123
 11458 0aae DA000000 		.4byte	.LVL151
 11459 0ab2 0300     		.2byte	0x3
 11460 0ab4 09       		.byte	0x9
 11461 0ab5 FA       		.byte	0xfa
 11462 0ab6 9F       		.byte	0x9f
 11463 0ab7 00000000 		.4byte	0
 11464 0abb 00000000 		.4byte	0
 11465              	.LLST80:
 11466 0abf 44000000 		.4byte	.LVL123
 11467 0ac3 CE000000 		.4byte	.LVL149
 11468 0ac7 0100     		.2byte	0x1
 11469 0ac9 54       		.byte	0x54
 11470 0aca 00000000 		.4byte	0
 11471 0ace 00000000 		.4byte	0
 11472              	.LLST81:
 11473 0ad2 44000000 		.4byte	.LVL123
 11474 0ad6 CC000000 		.4byte	.LVL148
 11475 0ada 0400     		.2byte	0x4
 11476 0adc 91       		.byte	0x91
 11477 0add E07D     		.sleb128 -288
ARM GAS  C:\Users\IDONNO~1\AppData\Local\Temp\ccY27Fyg.s 			page 203


 11478 0adf 9F       		.byte	0x9f
 11479 0ae0 CC000000 		.4byte	.LVL148
 11480 0ae4 DA000000 		.4byte	.LVL151
 11481 0ae8 0100     		.2byte	0x1
 11482 0aea 51       		.byte	0x51
 11483 0aeb 00000000 		.4byte	0
 11484 0aef 00000000 		.4byte	0
 11485              	.LLST82:
 11486 0af3 4C000000 		.4byte	.LVL124
 11487 0af7 5E000000 		.4byte	.LVL126
 11488 0afb 0200     		.2byte	0x2
 11489 0afd 34       		.byte	0x34
 11490 0afe 9F       		.byte	0x9f
 11491 0aff 5E000000 		.4byte	.LVL126
 11492 0b03 62000000 		.4byte	.LVL127
 11493 0b07 0900     		.2byte	0x9
 11494 0b09 91       		.byte	0x91
 11495 0b0a E37D     		.sleb128 -285
 11496 0b0c 70       		.byte	0x70
 11497 0b0d 00       		.sleb128 0
 11498 0b0e 1C       		.byte	0x1c
 11499 0b0f 23       		.byte	0x23
 11500 0b10 03       		.uleb128 0x3
 11501 0b11 9F       		.byte	0x9f
 11502 0b12 62000000 		.4byte	.LVL127
 11503 0b16 7A000000 		.4byte	.LVL132
 11504 0b1a 0900     		.2byte	0x9
 11505 0b1c 91       		.byte	0x91
 11506 0b1d E37D     		.sleb128 -285
 11507 0b1f 70       		.byte	0x70
 11508 0b20 00       		.sleb128 0
 11509 0b21 1C       		.byte	0x1c
 11510 0b22 23       		.byte	0x23
 11511 0b23 04       		.uleb128 0x4
 11512 0b24 9F       		.byte	0x9f
 11513 0b25 7A000000 		.4byte	.LVL132
 11514 0b29 7C000000 		.4byte	.LVL133
 11515 0b2d 0900     		.2byte	0x9
 11516 0b2f 91       		.byte	0x91
 11517 0b30 E37D     		.sleb128 -285
 11518 0b32 70       		.byte	0x70
 11519 0b33 00       		.sleb128 0
 11520 0b34 1C       		.byte	0x1c
 11521 0b35 23       		.byte	0x23
 11522 0b36 03       		.uleb128 0x3
 11523 0b37 9F       		.byte	0x9f
 11524 0b38 00000000 		.4byte	0
 11525 0b3c 00000000 		.4byte	0
 11526              	.LLST83:
 11527 0b40 4C000000 		.4byte	.LVL124
 11528 0b44 54000000 		.4byte	.LVL125
 11529 0b48 0400     		.2byte	0x4
 11530 0b4a 91       		.byte	0x91
 11531 0b4b E37D     		.sleb128 -285
 11532 0b4d 9F       		.byte	0x9f
 11533 0b4e 54000000 		.4byte	.LVL125
 11534 0b52 5E000000 		.4byte	.LVL126
ARM GAS  C:\Users\IDONNO~1\AppData\Local\Temp\ccY27Fyg.s 			page 204


 11535 0b56 0100     		.2byte	0x1
 11536 0b58 50       		.byte	0x50
 11537 0b59 5E000000 		.4byte	.LVL126
 11538 0b5d 7C000000 		.4byte	.LVL133
 11539 0b61 0300     		.2byte	0x3
 11540 0b63 70       		.byte	0x70
 11541 0b64 01       		.sleb128 1
 11542 0b65 9F       		.byte	0x9f
 11543 0b66 00000000 		.4byte	0
 11544 0b6a 00000000 		.4byte	0
 11545              	.LLST84:
 11546 0b6e 4C000000 		.4byte	.LVL124
 11547 0b72 5E000000 		.4byte	.LVL126
 11548 0b76 0300     		.2byte	0x3
 11549 0b78 09       		.byte	0x9
 11550 0b79 FF       		.byte	0xff
 11551 0b7a 9F       		.byte	0x9f
 11552 0b7b 5E000000 		.4byte	.LVL126
 11553 0b7f 70000000 		.4byte	.LVL131
 11554 0b83 0100     		.2byte	0x1
 11555 0b85 52       		.byte	0x52
 11556 0b86 7A000000 		.4byte	.LVL132
 11557 0b8a 7C000000 		.4byte	.LVL133
 11558 0b8e 0100     		.2byte	0x1
 11559 0b90 52       		.byte	0x52
 11560 0b91 00000000 		.4byte	0
 11561 0b95 00000000 		.4byte	0
 11562              	.LLST85:
 11563 0b99 5E000000 		.4byte	.LVL126
 11564 0b9d E4000000 		.4byte	.LVL153
 11565 0ba1 0600     		.2byte	0x6
 11566 0ba3 F2       		.byte	0xf2
 11567 0ba4 841E0000 		.4byte	.Ldebug_info0+7812
 11568 0ba8 00       		.sleb128 0
 11569 0ba9 00000000 		.4byte	0
 11570 0bad 00000000 		.4byte	0
 11571              	.LLST86:
 11572 0bb1 5E000000 		.4byte	.LVL126
 11573 0bb5 80000000 		.4byte	.LVL134
 11574 0bb9 0200     		.2byte	0x2
 11575 0bbb 70       		.byte	0x70
 11576 0bbc 00       		.sleb128 0
 11577 0bbd 00000000 		.4byte	0
 11578 0bc1 00000000 		.4byte	0
 11579              	.LLST87:
 11580 0bc5 5E000000 		.4byte	.LVL126
 11581 0bc9 62000000 		.4byte	.LVL127
 11582 0bcd 0100     		.2byte	0x1
 11583 0bcf 51       		.byte	0x51
 11584 0bd0 64000000 		.4byte	.LVL128
 11585 0bd4 68000000 		.4byte	.LVL129
 11586 0bd8 0100     		.2byte	0x1
 11587 0bda 51       		.byte	0x51
 11588 0bdb 6A000000 		.4byte	.LVL130
 11589 0bdf 7C000000 		.4byte	.LVL133
 11590 0be3 0100     		.2byte	0x1
 11591 0be5 51       		.byte	0x51
ARM GAS  C:\Users\IDONNO~1\AppData\Local\Temp\ccY27Fyg.s 			page 205


 11592 0be6 00000000 		.4byte	0
 11593 0bea 00000000 		.4byte	0
 11594              	.LLST88:
 11595 0bee 80000000 		.4byte	.LVL134
 11596 0bf2 86000000 		.4byte	.LVL136
 11597 0bf6 0300     		.2byte	0x3
 11598 0bf8 08       		.byte	0x8
 11599 0bf9 F9       		.byte	0xf9
 11600 0bfa 9F       		.byte	0x9f
 11601 0bfb 86000000 		.4byte	.LVL136
 11602 0bff 8A000000 		.4byte	.LVL137
 11603 0c03 0A00     		.2byte	0xa
 11604 0c05 91       		.byte	0x91
 11605 0c06 E87D     		.sleb128 -280
 11606 0c08 70       		.byte	0x70
 11607 0c09 00       		.sleb128 0
 11608 0c0a 1C       		.byte	0x1c
 11609 0c0b 23       		.byte	0x23
 11610 0c0c F901     		.uleb128 0xf9
 11611 0c0e 9F       		.byte	0x9f
 11612 0c0f AA000000 		.4byte	.LVL142
 11613 0c13 AC000000 		.4byte	.LVL143
 11614 0c17 0A00     		.2byte	0xa
 11615 0c19 91       		.byte	0x91
 11616 0c1a E87D     		.sleb128 -280
 11617 0c1c 70       		.byte	0x70
 11618 0c1d 00       		.sleb128 0
 11619 0c1e 1C       		.byte	0x1c
 11620 0c1f 23       		.byte	0x23
 11621 0c20 F901     		.uleb128 0xf9
 11622 0c22 9F       		.byte	0x9f
 11623 0c23 00000000 		.4byte	0
 11624 0c27 00000000 		.4byte	0
 11625              	.LLST89:
 11626 0c2b 80000000 		.4byte	.LVL134
 11627 0c2f 82000000 		.4byte	.LVL135
 11628 0c33 0400     		.2byte	0x4
 11629 0c35 91       		.byte	0x91
 11630 0c36 E87D     		.sleb128 -280
 11631 0c38 9F       		.byte	0x9f
 11632 0c39 82000000 		.4byte	.LVL135
 11633 0c3d 86000000 		.4byte	.LVL136
 11634 0c41 0100     		.2byte	0x1
 11635 0c43 50       		.byte	0x50
 11636 0c44 86000000 		.4byte	.LVL136
 11637 0c48 AC000000 		.4byte	.LVL143
 11638 0c4c 0400     		.2byte	0x4
 11639 0c4e 91       		.byte	0x91
 11640 0c4f E87D     		.sleb128 -280
 11641 0c51 9F       		.byte	0x9f
 11642 0c52 00000000 		.4byte	0
 11643 0c56 00000000 		.4byte	0
 11644              	.LLST90:
 11645 0c5a 80000000 		.4byte	.LVL134
 11646 0c5e AC000000 		.4byte	.LVL143
 11647 0c62 0400     		.2byte	0x4
 11648 0c64 91       		.byte	0x91
ARM GAS  C:\Users\IDONNO~1\AppData\Local\Temp\ccY27Fyg.s 			page 206


 11649 0c65 E07D     		.sleb128 -288
 11650 0c67 9F       		.byte	0x9f
 11651 0c68 00000000 		.4byte	0
 11652 0c6c 00000000 		.4byte	0
 11653              	.LLST91:
 11654 0c70 80000000 		.4byte	.LVL134
 11655 0c74 82000000 		.4byte	.LVL135
 11656 0c78 0400     		.2byte	0x4
 11657 0c7a 91       		.byte	0x91
 11658 0c7b E87D     		.sleb128 -280
 11659 0c7d 9F       		.byte	0x9f
 11660 0c7e 82000000 		.4byte	.LVL135
 11661 0c82 8A000000 		.4byte	.LVL137
 11662 0c86 0100     		.2byte	0x1
 11663 0c88 50       		.byte	0x50
 11664 0c89 8A000000 		.4byte	.LVL137
 11665 0c8d AA000000 		.4byte	.LVL142
 11666 0c91 0300     		.2byte	0x3
 11667 0c93 70       		.byte	0x70
 11668 0c94 7F       		.sleb128 -1
 11669 0c95 9F       		.byte	0x9f
 11670 0c96 AA000000 		.4byte	.LVL142
 11671 0c9a CA000000 		.4byte	.LVL147
 11672 0c9e 0100     		.2byte	0x1
 11673 0ca0 50       		.byte	0x50
 11674 0ca1 00000000 		.4byte	0
 11675 0ca5 00000000 		.4byte	0
 11676              	.LLST92:
 11677 0ca9 86000000 		.4byte	.LVL136
 11678 0cad CC000000 		.4byte	.LVL148
 11679 0cb1 0400     		.2byte	0x4
 11680 0cb3 91       		.byte	0x91
 11681 0cb4 E07D     		.sleb128 -288
 11682 0cb6 9F       		.byte	0x9f
 11683 0cb7 CC000000 		.4byte	.LVL148
 11684 0cbb DD000000 		.4byte	.LVL152-1
 11685 0cbf 0100     		.2byte	0x1
 11686 0cc1 51       		.byte	0x51
 11687 0cc2 DD000000 		.4byte	.LVL152-1
 11688 0cc6 E4000000 		.4byte	.LVL153
 11689 0cca 0400     		.2byte	0x4
 11690 0ccc 91       		.byte	0x91
 11691 0ccd E07D     		.sleb128 -288
 11692 0ccf 9F       		.byte	0x9f
 11693 0cd0 00000000 		.4byte	0
 11694 0cd4 00000000 		.4byte	0
 11695              	.LLST93:
 11696 0cd8 86000000 		.4byte	.LVL136
 11697 0cdc 8A000000 		.4byte	.LVL137
 11698 0ce0 0200     		.2byte	0x2
 11699 0ce2 70       		.byte	0x70
 11700 0ce3 7F       		.sleb128 -1
 11701 0ce4 8A000000 		.4byte	.LVL137
 11702 0ce8 AA000000 		.4byte	.LVL142
 11703 0cec 0200     		.2byte	0x2
 11704 0cee 70       		.byte	0x70
 11705 0cef 7E       		.sleb128 -2
ARM GAS  C:\Users\IDONNO~1\AppData\Local\Temp\ccY27Fyg.s 			page 207


 11706 0cf0 00000000 		.4byte	0
 11707 0cf4 00000000 		.4byte	0
 11708              	.LLST94:
 11709 0cf8 8C000000 		.4byte	.LVL138
 11710 0cfc 90000000 		.4byte	.LVL139
 11711 0d00 0100     		.2byte	0x1
 11712 0d02 53       		.byte	0x53
 11713 0d03 90000000 		.4byte	.LVL139
 11714 0d07 92000000 		.4byte	.LVL140
 11715 0d0b 0B00     		.2byte	0xb
 11716 0d0d 70       		.byte	0x70
 11717 0d0e 7F       		.sleb128 -1
 11718 0d0f 94       		.byte	0x94
 11719 0d10 01       		.byte	0x1
 11720 0d11 08       		.byte	0x8
 11721 0d12 FF       		.byte	0xff
 11722 0d13 1A       		.byte	0x1a
 11723 0d14 72       		.byte	0x72
 11724 0d15 00       		.sleb128 0
 11725 0d16 27       		.byte	0x27
 11726 0d17 9F       		.byte	0x9f
 11727 0d18 92000000 		.4byte	.LVL140
 11728 0d1c A0000000 		.4byte	.LVL141
 11729 0d20 0100     		.2byte	0x1
 11730 0d22 53       		.byte	0x53
 11731 0d23 00000000 		.4byte	0
 11732 0d27 00000000 		.4byte	0
 11733              	.LLST95:
 11734 0d2b AC000000 		.4byte	.LVL143
 11735 0d2f CC000000 		.4byte	.LVL148
 11736 0d33 0400     		.2byte	0x4
 11737 0d35 91       		.byte	0x91
 11738 0d36 E07D     		.sleb128 -288
 11739 0d38 9F       		.byte	0x9f
 11740 0d39 CC000000 		.4byte	.LVL148
 11741 0d3d D6000000 		.4byte	.LVL150
 11742 0d41 0100     		.2byte	0x1
 11743 0d43 51       		.byte	0x51
 11744 0d44 00000000 		.4byte	0
 11745 0d48 00000000 		.4byte	0
 11746              	.LLST96:
 11747 0d4c AC000000 		.4byte	.LVL143
 11748 0d50 D6000000 		.4byte	.LVL150
 11749 0d54 0300     		.2byte	0x3
 11750 0d56 08       		.byte	0x8
 11751 0d57 32       		.byte	0x32
 11752 0d58 9F       		.byte	0x9f
 11753 0d59 00000000 		.4byte	0
 11754 0d5d 00000000 		.4byte	0
 11755              	.LLST97:
 11756 0d61 B0000000 		.4byte	.LVL144
 11757 0d65 B4000000 		.4byte	.LVL145
 11758 0d69 0100     		.2byte	0x1
 11759 0d6b 51       		.byte	0x51
 11760 0d6c B4000000 		.4byte	.LVL145
 11761 0d70 B6000000 		.4byte	.LVL146
 11762 0d74 0600     		.2byte	0x6
ARM GAS  C:\Users\IDONNO~1\AppData\Local\Temp\ccY27Fyg.s 			page 208


 11763 0d76 73       		.byte	0x73
 11764 0d77 00       		.sleb128 0
 11765 0d78 08       		.byte	0x8
 11766 0d79 32       		.byte	0x32
 11767 0d7a 27       		.byte	0x27
 11768 0d7b 9F       		.byte	0x9f
 11769 0d7c B6000000 		.4byte	.LVL146
 11770 0d80 CC000000 		.4byte	.LVL148
 11771 0d84 0100     		.2byte	0x1
 11772 0d86 51       		.byte	0x51
 11773 0d87 00000000 		.4byte	0
 11774 0d8b 00000000 		.4byte	0
 11775              	.LLST98:
 11776 0d8f 00000000 		.4byte	.LVL155
 11777 0d93 1A000000 		.4byte	.LVL159
 11778 0d97 0100     		.2byte	0x1
 11779 0d99 50       		.byte	0x50
 11780 0d9a 1A000000 		.4byte	.LVL159
 11781 0d9e 94000000 		.4byte	.LFE411
 11782 0da2 0100     		.2byte	0x1
 11783 0da4 56       		.byte	0x56
 11784 0da5 00000000 		.4byte	0
 11785 0da9 00000000 		.4byte	0
 11786              	.LLST99:
 11787 0dad 08000000 		.4byte	.LVL157
 11788 0db1 26000000 		.4byte	.LVL160
 11789 0db5 0100     		.2byte	0x1
 11790 0db7 5D       		.byte	0x5d
 11791 0db8 00000000 		.4byte	0
 11792 0dbc 00000000 		.4byte	0
 11793              	.LLST100:
 11794 0dc0 04000000 		.4byte	.LVL156
 11795 0dc4 26000000 		.4byte	.LVL160
 11796 0dc8 0100     		.2byte	0x1
 11797 0dca 55       		.byte	0x55
 11798 0dcb 00000000 		.4byte	0
 11799 0dcf 00000000 		.4byte	0
 11800              	.LLST101:
 11801 0dd3 08000000 		.4byte	.LVL157
 11802 0dd7 12000000 		.4byte	.LVL158
 11803 0ddb 1500     		.2byte	0x15
 11804 0ddd 72       		.byte	0x72
 11805 0dde 00       		.sleb128 0
 11806 0ddf 12       		.byte	0x12
 11807 0de0 40       		.byte	0x40
 11808 0de1 4B       		.byte	0x4b
 11809 0de2 24       		.byte	0x24
 11810 0de3 22       		.byte	0x22
 11811 0de4 3A       		.byte	0x3a
 11812 0de5 16       		.byte	0x16
 11813 0de6 14       		.byte	0x14
 11814 0de7 40       		.byte	0x40
 11815 0de8 4B       		.byte	0x4b
 11816 0de9 24       		.byte	0x24
 11817 0dea 22       		.byte	0x22
 11818 0deb 2D       		.byte	0x2d
 11819 0dec 28       		.byte	0x28
ARM GAS  C:\Users\IDONNO~1\AppData\Local\Temp\ccY27Fyg.s 			page 209


 11820 0ded 0100     		.2byte	0x1
 11821 0def 16       		.byte	0x16
 11822 0df0 13       		.byte	0x13
 11823 0df1 9F       		.byte	0x9f
 11824 0df2 12000000 		.4byte	.LVL158
 11825 0df6 25000000 		.4byte	.LVL160-1
 11826 0dfa 1A00     		.2byte	0x1a
 11827 0dfc 75       		.byte	0x75
 11828 0dfd 03       		.sleb128 3
 11829 0dfe 94       		.byte	0x94
 11830 0dff 01       		.byte	0x1
 11831 0e00 08       		.byte	0x8
 11832 0e01 FF       		.byte	0xff
 11833 0e02 1A       		.byte	0x1a
 11834 0e03 12       		.byte	0x12
 11835 0e04 40       		.byte	0x40
 11836 0e05 4B       		.byte	0x4b
 11837 0e06 24       		.byte	0x24
 11838 0e07 22       		.byte	0x22
 11839 0e08 3A       		.byte	0x3a
 11840 0e09 16       		.byte	0x16
 11841 0e0a 14       		.byte	0x14
 11842 0e0b 40       		.byte	0x40
 11843 0e0c 4B       		.byte	0x4b
 11844 0e0d 24       		.byte	0x24
 11845 0e0e 22       		.byte	0x22
 11846 0e0f 2D       		.byte	0x2d
 11847 0e10 28       		.byte	0x28
 11848 0e11 0100     		.2byte	0x1
 11849 0e13 16       		.byte	0x16
 11850 0e14 13       		.byte	0x13
 11851 0e15 9F       		.byte	0x9f
 11852 0e16 00000000 		.4byte	0
 11853 0e1a 00000000 		.4byte	0
 11854              	.LLST102:
 11855 0e1e 00000000 		.4byte	.LVL169
 11856 0e22 3E000000 		.4byte	.LVL173
 11857 0e26 0100     		.2byte	0x1
 11858 0e28 50       		.byte	0x50
 11859 0e29 3E000000 		.4byte	.LVL173
 11860 0e2d 46000000 		.4byte	.LVL176
 11861 0e31 0200     		.2byte	0x2
 11862 0e33 78       		.byte	0x78
 11863 0e34 00       		.sleb128 0
 11864 0e35 46000000 		.4byte	.LVL176
 11865 0e39 EE000000 		.4byte	.LVL180
 11866 0e3d 0400     		.2byte	0x4
 11867 0e3f F3       		.byte	0xf3
 11868 0e40 01       		.uleb128 0x1
 11869 0e41 50       		.byte	0x50
 11870 0e42 9F       		.byte	0x9f
 11871 0e43 EE000000 		.4byte	.LVL180
 11872 0e47 FE000000 		.4byte	.LVL182
 11873 0e4b 0100     		.2byte	0x1
 11874 0e4d 50       		.byte	0x50
 11875 0e4e FE000000 		.4byte	.LVL182
 11876 0e52 2C010000 		.4byte	.LVL184
ARM GAS  C:\Users\IDONNO~1\AppData\Local\Temp\ccY27Fyg.s 			page 210


 11877 0e56 0500     		.2byte	0x5
 11878 0e58 03       		.byte	0x3
 11879 0e59 00000000 		.4byte	m_mavlink_status.10569
 11880 0e5d 2C010000 		.4byte	.LVL184
 11881 0e61 34010000 		.4byte	.LVL186
 11882 0e65 0400     		.2byte	0x4
 11883 0e67 F3       		.byte	0xf3
 11884 0e68 01       		.uleb128 0x1
 11885 0e69 50       		.byte	0x50
 11886 0e6a 9F       		.byte	0x9f
 11887 0e6b 34010000 		.4byte	.LVL186
 11888 0e6f AA010000 		.4byte	.LVL212
 11889 0e73 0100     		.2byte	0x1
 11890 0e75 50       		.byte	0x50
 11891 0e76 AA010000 		.4byte	.LVL212
 11892 0e7a D2010000 		.4byte	.LVL219
 11893 0e7e 0500     		.2byte	0x5
 11894 0e80 03       		.byte	0x3
 11895 0e81 00000000 		.4byte	m_mavlink_status.10569
 11896 0e85 D2010000 		.4byte	.LVL219
 11897 0e89 D4010000 		.4byte	.LVL220
 11898 0e8d 0100     		.2byte	0x1
 11899 0e8f 50       		.byte	0x50
 11900 0e90 D4010000 		.4byte	.LVL220
 11901 0e94 08020000 		.4byte	.LVL229
 11902 0e98 0500     		.2byte	0x5
 11903 0e9a 03       		.byte	0x3
 11904 0e9b 00000000 		.4byte	m_mavlink_status.10569
 11905 0e9f 08020000 		.4byte	.LVL229
 11906 0ea3 6C020000 		.4byte	.LVL237
 11907 0ea7 0100     		.2byte	0x1
 11908 0ea9 50       		.byte	0x50
 11909 0eaa 6C020000 		.4byte	.LVL237
 11910 0eae 64040000 		.4byte	.LVL292
 11911 0eb2 0400     		.2byte	0x4
 11912 0eb4 F3       		.byte	0xf3
 11913 0eb5 01       		.uleb128 0x1
 11914 0eb6 50       		.byte	0x50
 11915 0eb7 9F       		.byte	0x9f
 11916 0eb8 64040000 		.4byte	.LVL292
 11917 0ebc 6E040000 		.4byte	.LVL294
 11918 0ec0 0100     		.2byte	0x1
 11919 0ec2 50       		.byte	0x50
 11920 0ec3 6E040000 		.4byte	.LVL294
 11921 0ec7 1A050000 		.4byte	.LVL303
 11922 0ecb 0400     		.2byte	0x4
 11923 0ecd F3       		.byte	0xf3
 11924 0ece 01       		.uleb128 0x1
 11925 0ecf 50       		.byte	0x50
 11926 0ed0 9F       		.byte	0x9f
 11927 0ed1 1A050000 		.4byte	.LVL303
 11928 0ed5 20050000 		.4byte	.LVL304
 11929 0ed9 0500     		.2byte	0x5
 11930 0edb 03       		.byte	0x3
 11931 0edc 00000000 		.4byte	m_mavlink_status.10569
 11932 0ee0 20050000 		.4byte	.LVL304
 11933 0ee4 40050000 		.4byte	.LVL309
ARM GAS  C:\Users\IDONNO~1\AppData\Local\Temp\ccY27Fyg.s 			page 211


 11934 0ee8 0400     		.2byte	0x4
 11935 0eea F3       		.byte	0xf3
 11936 0eeb 01       		.uleb128 0x1
 11937 0eec 50       		.byte	0x50
 11938 0eed 9F       		.byte	0x9f
 11939 0eee 40050000 		.4byte	.LVL309
 11940 0ef2 46050000 		.4byte	.LVL310
 11941 0ef6 0100     		.2byte	0x1
 11942 0ef8 50       		.byte	0x50
 11943 0ef9 46050000 		.4byte	.LVL310
 11944 0efd 54050000 		.4byte	.LVL314
 11945 0f01 0500     		.2byte	0x5
 11946 0f03 03       		.byte	0x3
 11947 0f04 00000000 		.4byte	m_mavlink_status.10569
 11948 0f08 54050000 		.4byte	.LVL314
 11949 0f0c 5C050000 		.4byte	.LVL315
 11950 0f10 0100     		.2byte	0x1
 11951 0f12 50       		.byte	0x50
 11952 0f13 5C050000 		.4byte	.LVL315
 11953 0f17 84050000 		.4byte	.LFE418
 11954 0f1b 0400     		.2byte	0x4
 11955 0f1d F3       		.byte	0xf3
 11956 0f1e 01       		.uleb128 0x1
 11957 0f1f 50       		.byte	0x50
 11958 0f20 9F       		.byte	0x9f
 11959 0f21 00000000 		.4byte	0
 11960 0f25 00000000 		.4byte	0
 11961              	.LLST103:
 11962 0f29 00000000 		.4byte	.LVL169
 11963 0f2d 40000000 		.4byte	.LVL174
 11964 0f31 0100     		.2byte	0x1
 11965 0f33 51       		.byte	0x51
 11966 0f34 40000000 		.4byte	.LVL174
 11967 0f38 EE000000 		.4byte	.LVL180
 11968 0f3c 0400     		.2byte	0x4
 11969 0f3e F3       		.byte	0xf3
 11970 0f3f 01       		.uleb128 0x1
 11971 0f40 51       		.byte	0x51
 11972 0f41 9F       		.byte	0x9f
 11973 0f42 EE000000 		.4byte	.LVL180
 11974 0f46 FC000000 		.4byte	.LVL181
 11975 0f4a 0100     		.2byte	0x1
 11976 0f4c 51       		.byte	0x51
 11977 0f4d FC000000 		.4byte	.LVL181
 11978 0f51 34010000 		.4byte	.LVL186
 11979 0f55 0400     		.2byte	0x4
 11980 0f57 F3       		.byte	0xf3
 11981 0f58 01       		.uleb128 0x1
 11982 0f59 51       		.byte	0x51
 11983 0f5a 9F       		.byte	0x9f
 11984 0f5b 34010000 		.4byte	.LVL186
 11985 0f5f 38010000 		.4byte	.LVL187
 11986 0f63 0100     		.2byte	0x1
 11987 0f65 51       		.byte	0x51
 11988 0f66 38010000 		.4byte	.LVL187
 11989 0f6a 5A010000 		.4byte	.LVL194
 11990 0f6e 0400     		.2byte	0x4
ARM GAS  C:\Users\IDONNO~1\AppData\Local\Temp\ccY27Fyg.s 			page 212


 11991 0f70 F3       		.byte	0xf3
 11992 0f71 01       		.uleb128 0x1
 11993 0f72 51       		.byte	0x51
 11994 0f73 9F       		.byte	0x9f
 11995 0f74 5A010000 		.4byte	.LVL194
 11996 0f78 5E010000 		.4byte	.LVL195
 11997 0f7c 0100     		.2byte	0x1
 11998 0f7e 51       		.byte	0x51
 11999 0f7f 5E010000 		.4byte	.LVL195
 12000 0f83 80010000 		.4byte	.LVL202
 12001 0f87 0400     		.2byte	0x4
 12002 0f89 F3       		.byte	0xf3
 12003 0f8a 01       		.uleb128 0x1
 12004 0f8b 51       		.byte	0x51
 12005 0f8c 9F       		.byte	0x9f
 12006 0f8d 80010000 		.4byte	.LVL202
 12007 0f91 84010000 		.4byte	.LVL203
 12008 0f95 0100     		.2byte	0x1
 12009 0f97 51       		.byte	0x51
 12010 0f98 84010000 		.4byte	.LVL203
 12011 0f9c A6010000 		.4byte	.LVL210
 12012 0fa0 0400     		.2byte	0x4
 12013 0fa2 F3       		.byte	0xf3
 12014 0fa3 01       		.uleb128 0x1
 12015 0fa4 51       		.byte	0x51
 12016 0fa5 9F       		.byte	0x9f
 12017 0fa6 A6010000 		.4byte	.LVL210
 12018 0faa A8010000 		.4byte	.LVL211
 12019 0fae 0100     		.2byte	0x1
 12020 0fb0 51       		.byte	0x51
 12021 0fb1 A8010000 		.4byte	.LVL211
 12022 0fb5 D2010000 		.4byte	.LVL219
 12023 0fb9 0400     		.2byte	0x4
 12024 0fbb F3       		.byte	0xf3
 12025 0fbc 01       		.uleb128 0x1
 12026 0fbd 51       		.byte	0x51
 12027 0fbe 9F       		.byte	0x9f
 12028 0fbf D2010000 		.4byte	.LVL219
 12029 0fc3 EC010000 		.4byte	.LVL225
 12030 0fc7 0100     		.2byte	0x1
 12031 0fc9 51       		.byte	0x51
 12032 0fca EC010000 		.4byte	.LVL225
 12033 0fce F2010000 		.4byte	.LVL226
 12034 0fd2 0700     		.2byte	0x7
 12035 0fd4 70       		.byte	0x70
 12036 0fd5 00       		.sleb128 0
 12037 0fd6 72       		.byte	0x72
 12038 0fd7 00       		.sleb128 0
 12039 0fd8 22       		.byte	0x22
 12040 0fd9 23       		.byte	0x23
 12041 0fda 07       		.uleb128 0x7
 12042 0fdb F2010000 		.4byte	.LVL226
 12043 0fdf 00020000 		.4byte	.LVL228
 12044 0fe3 0F00     		.2byte	0xf
 12045 0fe5 03       		.byte	0x3
 12046 0fe6 04000000 		.4byte	m_mavlink_status.10569+4
 12047 0fea 94       		.byte	0x94
ARM GAS  C:\Users\IDONNO~1\AppData\Local\Temp\ccY27Fyg.s 			page 213


 12048 0feb 01       		.byte	0x1
 12049 0fec 08       		.byte	0x8
 12050 0fed FF       		.byte	0xff
 12051 0fee 1A       		.byte	0x1a
 12052 0fef 70       		.byte	0x70
 12053 0ff0 00       		.sleb128 0
 12054 0ff1 22       		.byte	0x22
 12055 0ff2 23       		.byte	0x23
 12056 0ff3 08       		.uleb128 0x8
 12057 0ff4 00020000 		.4byte	.LVL228
 12058 0ff8 08020000 		.4byte	.LVL229
 12059 0ffc 0400     		.2byte	0x4
 12060 0ffe F3       		.byte	0xf3
 12061 0fff 01       		.uleb128 0x1
 12062 1000 51       		.byte	0x51
 12063 1001 9F       		.byte	0x9f
 12064 1002 08020000 		.4byte	.LVL229
 12065 1006 16020000 		.4byte	.LVL230
 12066 100a 0100     		.2byte	0x1
 12067 100c 51       		.byte	0x51
 12068 100d 16020000 		.4byte	.LVL230
 12069 1011 4A020000 		.4byte	.LVL236
 12070 1015 0400     		.2byte	0x4
 12071 1017 F3       		.byte	0xf3
 12072 1018 01       		.uleb128 0x1
 12073 1019 51       		.byte	0x51
 12074 101a 9F       		.byte	0x9f
 12075 101b 4A020000 		.4byte	.LVL236
 12076 101f 78020000 		.4byte	.LVL238
 12077 1023 0100     		.2byte	0x1
 12078 1025 51       		.byte	0x51
 12079 1026 78020000 		.4byte	.LVL238
 12080 102a 64040000 		.4byte	.LVL292
 12081 102e 0400     		.2byte	0x4
 12082 1030 F3       		.byte	0xf3
 12083 1031 01       		.uleb128 0x1
 12084 1032 51       		.byte	0x51
 12085 1033 9F       		.byte	0x9f
 12086 1034 64040000 		.4byte	.LVL292
 12087 1038 6E040000 		.4byte	.LVL294
 12088 103c 0100     		.2byte	0x1
 12089 103e 51       		.byte	0x51
 12090 103f 6E040000 		.4byte	.LVL294
 12091 1043 40050000 		.4byte	.LVL309
 12092 1047 0400     		.2byte	0x4
 12093 1049 F3       		.byte	0xf3
 12094 104a 01       		.uleb128 0x1
 12095 104b 51       		.byte	0x51
 12096 104c 9F       		.byte	0x9f
 12097 104d 40050000 		.4byte	.LVL309
 12098 1051 4A050000 		.4byte	.LVL311
 12099 1055 0100     		.2byte	0x1
 12100 1057 51       		.byte	0x51
 12101 1058 4A050000 		.4byte	.LVL311
 12102 105c 54050000 		.4byte	.LVL314
 12103 1060 0400     		.2byte	0x4
 12104 1062 F3       		.byte	0xf3
ARM GAS  C:\Users\IDONNO~1\AppData\Local\Temp\ccY27Fyg.s 			page 214


 12105 1063 01       		.uleb128 0x1
 12106 1064 51       		.byte	0x51
 12107 1065 9F       		.byte	0x9f
 12108 1066 54050000 		.4byte	.LVL314
 12109 106a 5C050000 		.4byte	.LVL315
 12110 106e 0100     		.2byte	0x1
 12111 1070 51       		.byte	0x51
 12112 1071 5C050000 		.4byte	.LVL315
 12113 1075 84050000 		.4byte	.LFE418
 12114 1079 0400     		.2byte	0x4
 12115 107b F3       		.byte	0xf3
 12116 107c 01       		.uleb128 0x1
 12117 107d 51       		.byte	0x51
 12118 107e 9F       		.byte	0x9f
 12119 107f 00000000 		.4byte	0
 12120 1083 00000000 		.4byte	0
 12121              	.LLST104:
 12122 1087 00000000 		.4byte	.LVL169
 12123 108b 20000000 		.4byte	.LVL171
 12124 108f 0100     		.2byte	0x1
 12125 1091 52       		.byte	0x52
 12126 1092 20000000 		.4byte	.LVL171
 12127 1096 3A000000 		.4byte	.LVL172
 12128 109a 0100     		.2byte	0x1
 12129 109c 52       		.byte	0x52
 12130 109d 3A000000 		.4byte	.LVL172
 12131 10a1 2C010000 		.4byte	.LVL184
 12132 10a5 0100     		.2byte	0x1
 12133 10a7 58       		.byte	0x58
 12134 10a8 2C010000 		.4byte	.LVL184
 12135 10ac 34010000 		.4byte	.LVL186
 12136 10b0 0400     		.2byte	0x4
 12137 10b2 F3       		.byte	0xf3
 12138 10b3 01       		.uleb128 0x1
 12139 10b4 52       		.byte	0x52
 12140 10b5 9F       		.byte	0x9f
 12141 10b6 34010000 		.4byte	.LVL186
 12142 10ba F0020000 		.4byte	.LVL245
 12143 10be 0100     		.2byte	0x1
 12144 10c0 58       		.byte	0x58
 12145 10c1 F0020000 		.4byte	.LVL245
 12146 10c5 10030000 		.4byte	.LVL246
 12147 10c9 0400     		.2byte	0x4
 12148 10cb F3       		.byte	0xf3
 12149 10cc 01       		.uleb128 0x1
 12150 10cd 52       		.byte	0x52
 12151 10ce 9F       		.byte	0x9f
 12152 10cf 10030000 		.4byte	.LVL246
 12153 10d3 EA030000 		.4byte	.LVL277
 12154 10d7 0100     		.2byte	0x1
 12155 10d9 58       		.byte	0x58
 12156 10da EA030000 		.4byte	.LVL277
 12157 10de 20040000 		.4byte	.LVL285
 12158 10e2 0400     		.2byte	0x4
 12159 10e4 F3       		.byte	0xf3
 12160 10e5 01       		.uleb128 0x1
 12161 10e6 52       		.byte	0x52
ARM GAS  C:\Users\IDONNO~1\AppData\Local\Temp\ccY27Fyg.s 			page 215


 12162 10e7 9F       		.byte	0x9f
 12163 10e8 20040000 		.4byte	.LVL285
 12164 10ec 84050000 		.4byte	.LFE418
 12165 10f0 0100     		.2byte	0x1
 12166 10f2 58       		.byte	0x58
 12167 10f3 00000000 		.4byte	0
 12168 10f7 00000000 		.4byte	0
 12169              	.LLST105:
 12170 10fb 00000000 		.4byte	.LVL169
 12171 10ff E8000000 		.4byte	.LVL179
 12172 1103 0200     		.2byte	0x2
 12173 1105 30       		.byte	0x30
 12174 1106 9F       		.byte	0x9f
 12175 1107 E8000000 		.4byte	.LVL179
 12176 110b EE000000 		.4byte	.LVL180
 12177 110f 0200     		.2byte	0x2
 12178 1111 31       		.byte	0x31
 12179 1112 9F       		.byte	0x9f
 12180 1113 EE000000 		.4byte	.LVL180
 12181 1117 2E010000 		.4byte	.LVL185
 12182 111b 0200     		.2byte	0x2
 12183 111d 30       		.byte	0x30
 12184 111e 9F       		.byte	0x9f
 12185 111f 2E010000 		.4byte	.LVL185
 12186 1123 34010000 		.4byte	.LVL186
 12187 1127 0100     		.2byte	0x1
 12188 1129 50       		.byte	0x50
 12189 112a 34010000 		.4byte	.LVL186
 12190 112e AC020000 		.4byte	.LVL241
 12191 1132 0200     		.2byte	0x2
 12192 1134 30       		.byte	0x30
 12193 1135 9F       		.byte	0x9f
 12194 1136 AC020000 		.4byte	.LVL241
 12195 113a B2020000 		.4byte	.LVL242
 12196 113e 0200     		.2byte	0x2
 12197 1140 31       		.byte	0x31
 12198 1141 9F       		.byte	0x9f
 12199 1142 B2020000 		.4byte	.LVL242
 12200 1146 84050000 		.4byte	.LFE418
 12201 114a 0200     		.2byte	0x2
 12202 114c 30       		.byte	0x30
 12203 114d 9F       		.byte	0x9f
 12204 114e 00000000 		.4byte	0
 12205 1152 00000000 		.4byte	0
 12206              	.LLST106:
 12207 1156 12000000 		.4byte	.LVL170
 12208 115a 20000000 		.4byte	.LVL171
 12209 115e 0600     		.2byte	0x6
 12210 1160 F2       		.byte	0xf2
 12211 1161 7E230000 		.4byte	.Ldebug_info0+9086
 12212 1165 00       		.sleb128 0
 12213 1166 EE000000 		.4byte	.LVL180
 12214 116a 2C010000 		.4byte	.LVL184
 12215 116e 0600     		.2byte	0x6
 12216 1170 F2       		.byte	0xf2
 12217 1171 7E230000 		.4byte	.Ldebug_info0+9086
 12218 1175 00       		.sleb128 0
ARM GAS  C:\Users\IDONNO~1\AppData\Local\Temp\ccY27Fyg.s 			page 216


 12219 1176 34010000 		.4byte	.LVL186
 12220 117a A8020000 		.4byte	.LVL240
 12221 117e 0600     		.2byte	0x6
 12222 1180 F2       		.byte	0xf2
 12223 1181 7E230000 		.4byte	.Ldebug_info0+9086
 12224 1185 00       		.sleb128 0
 12225 1186 64040000 		.4byte	.LVL292
 12226 118a B6040000 		.4byte	.LVL298
 12227 118e 0600     		.2byte	0x6
 12228 1190 F2       		.byte	0xf2
 12229 1191 7E230000 		.4byte	.Ldebug_info0+9086
 12230 1195 00       		.sleb128 0
 12231 1196 1A050000 		.4byte	.LVL303
 12232 119a 20050000 		.4byte	.LVL304
 12233 119e 0600     		.2byte	0x6
 12234 11a0 F2       		.byte	0xf2
 12235 11a1 7E230000 		.4byte	.Ldebug_info0+9086
 12236 11a5 00       		.sleb128 0
 12237 11a6 40050000 		.4byte	.LVL309
 12238 11aa 5C050000 		.4byte	.LVL315
 12239 11ae 0600     		.2byte	0x6
 12240 11b0 F2       		.byte	0xf2
 12241 11b1 7E230000 		.4byte	.Ldebug_info0+9086
 12242 11b5 00       		.sleb128 0
 12243 11b6 6A050000 		.4byte	.LVL316
 12244 11ba 70050000 		.4byte	.LVL317
 12245 11be 0600     		.2byte	0x6
 12246 11c0 F2       		.byte	0xf2
 12247 11c1 7E230000 		.4byte	.Ldebug_info0+9086
 12248 11c5 00       		.sleb128 0
 12249 11c6 00000000 		.4byte	0
 12250 11ca 00000000 		.4byte	0
 12251              	.LLST107:
 12252 11ce 12000000 		.4byte	.LVL170
 12253 11d2 20000000 		.4byte	.LVL171
 12254 11d6 0600     		.2byte	0x6
 12255 11d8 03       		.byte	0x3
 12256 11d9 00000000 		.4byte	msg.11562
 12257 11dd 9F       		.byte	0x9f
 12258 11de EE000000 		.4byte	.LVL180
 12259 11e2 2C010000 		.4byte	.LVL184
 12260 11e6 0600     		.2byte	0x6
 12261 11e8 03       		.byte	0x3
 12262 11e9 00000000 		.4byte	msg.11562
 12263 11ed 9F       		.byte	0x9f
 12264 11ee 34010000 		.4byte	.LVL186
 12265 11f2 A8020000 		.4byte	.LVL240
 12266 11f6 0600     		.2byte	0x6
 12267 11f8 03       		.byte	0x3
 12268 11f9 00000000 		.4byte	msg.11562
 12269 11fd 9F       		.byte	0x9f
 12270 11fe 64040000 		.4byte	.LVL292
 12271 1202 B6040000 		.4byte	.LVL298
 12272 1206 0600     		.2byte	0x6
 12273 1208 03       		.byte	0x3
 12274 1209 00000000 		.4byte	msg.11562
 12275 120d 9F       		.byte	0x9f
ARM GAS  C:\Users\IDONNO~1\AppData\Local\Temp\ccY27Fyg.s 			page 217


 12276 120e 1A050000 		.4byte	.LVL303
 12277 1212 20050000 		.4byte	.LVL304
 12278 1216 0600     		.2byte	0x6
 12279 1218 03       		.byte	0x3
 12280 1219 00000000 		.4byte	msg.11562
 12281 121d 9F       		.byte	0x9f
 12282 121e 40050000 		.4byte	.LVL309
 12283 1222 5C050000 		.4byte	.LVL315
 12284 1226 0600     		.2byte	0x6
 12285 1228 03       		.byte	0x3
 12286 1229 00000000 		.4byte	msg.11562
 12287 122d 9F       		.byte	0x9f
 12288 122e 6A050000 		.4byte	.LVL316
 12289 1232 70050000 		.4byte	.LVL317
 12290 1236 0600     		.2byte	0x6
 12291 1238 03       		.byte	0x3
 12292 1239 00000000 		.4byte	msg.11562
 12293 123d 9F       		.byte	0x9f
 12294 123e 00000000 		.4byte	0
 12295 1242 00000000 		.4byte	0
 12296              	.LLST108:
 12297 1246 12000000 		.4byte	.LVL170
 12298 124a 20000000 		.4byte	.LVL171
 12299 124e 0100     		.2byte	0x1
 12300 1250 51       		.byte	0x51
 12301 1251 EE000000 		.4byte	.LVL180
 12302 1255 FC000000 		.4byte	.LVL181
 12303 1259 0100     		.2byte	0x1
 12304 125b 51       		.byte	0x51
 12305 125c FC000000 		.4byte	.LVL181
 12306 1260 2C010000 		.4byte	.LVL184
 12307 1264 0400     		.2byte	0x4
 12308 1266 F3       		.byte	0xf3
 12309 1267 01       		.uleb128 0x1
 12310 1268 51       		.byte	0x51
 12311 1269 9F       		.byte	0x9f
 12312 126a 34010000 		.4byte	.LVL186
 12313 126e 38010000 		.4byte	.LVL187
 12314 1272 0100     		.2byte	0x1
 12315 1274 51       		.byte	0x51
 12316 1275 38010000 		.4byte	.LVL187
 12317 1279 5A010000 		.4byte	.LVL194
 12318 127d 0400     		.2byte	0x4
 12319 127f F3       		.byte	0xf3
 12320 1280 01       		.uleb128 0x1
 12321 1281 51       		.byte	0x51
 12322 1282 9F       		.byte	0x9f
 12323 1283 5A010000 		.4byte	.LVL194
 12324 1287 5E010000 		.4byte	.LVL195
 12325 128b 0100     		.2byte	0x1
 12326 128d 51       		.byte	0x51
 12327 128e 5E010000 		.4byte	.LVL195
 12328 1292 80010000 		.4byte	.LVL202
 12329 1296 0400     		.2byte	0x4
 12330 1298 F3       		.byte	0xf3
 12331 1299 01       		.uleb128 0x1
 12332 129a 51       		.byte	0x51
ARM GAS  C:\Users\IDONNO~1\AppData\Local\Temp\ccY27Fyg.s 			page 218


 12333 129b 9F       		.byte	0x9f
 12334 129c 80010000 		.4byte	.LVL202
 12335 12a0 84010000 		.4byte	.LVL203
 12336 12a4 0100     		.2byte	0x1
 12337 12a6 51       		.byte	0x51
 12338 12a7 84010000 		.4byte	.LVL203
 12339 12ab A6010000 		.4byte	.LVL210
 12340 12af 0400     		.2byte	0x4
 12341 12b1 F3       		.byte	0xf3
 12342 12b2 01       		.uleb128 0x1
 12343 12b3 51       		.byte	0x51
 12344 12b4 9F       		.byte	0x9f
 12345 12b5 A6010000 		.4byte	.LVL210
 12346 12b9 A8010000 		.4byte	.LVL211
 12347 12bd 0100     		.2byte	0x1
 12348 12bf 51       		.byte	0x51
 12349 12c0 A8010000 		.4byte	.LVL211
 12350 12c4 D2010000 		.4byte	.LVL219
 12351 12c8 0400     		.2byte	0x4
 12352 12ca F3       		.byte	0xf3
 12353 12cb 01       		.uleb128 0x1
 12354 12cc 51       		.byte	0x51
 12355 12cd 9F       		.byte	0x9f
 12356 12ce D2010000 		.4byte	.LVL219
 12357 12d2 EC010000 		.4byte	.LVL225
 12358 12d6 0100     		.2byte	0x1
 12359 12d8 51       		.byte	0x51
 12360 12d9 EC010000 		.4byte	.LVL225
 12361 12dd F2010000 		.4byte	.LVL226
 12362 12e1 0700     		.2byte	0x7
 12363 12e3 70       		.byte	0x70
 12364 12e4 00       		.sleb128 0
 12365 12e5 72       		.byte	0x72
 12366 12e6 00       		.sleb128 0
 12367 12e7 22       		.byte	0x22
 12368 12e8 23       		.byte	0x23
 12369 12e9 07       		.uleb128 0x7
 12370 12ea F2010000 		.4byte	.LVL226
 12371 12ee 00020000 		.4byte	.LVL228
 12372 12f2 0F00     		.2byte	0xf
 12373 12f4 03       		.byte	0x3
 12374 12f5 04000000 		.4byte	m_mavlink_status.10569+4
 12375 12f9 94       		.byte	0x94
 12376 12fa 01       		.byte	0x1
 12377 12fb 08       		.byte	0x8
 12378 12fc FF       		.byte	0xff
 12379 12fd 1A       		.byte	0x1a
 12380 12fe 70       		.byte	0x70
 12381 12ff 00       		.sleb128 0
 12382 1300 22       		.byte	0x22
 12383 1301 23       		.byte	0x23
 12384 1302 08       		.uleb128 0x8
 12385 1303 00020000 		.4byte	.LVL228
 12386 1307 08020000 		.4byte	.LVL229
 12387 130b 0400     		.2byte	0x4
 12388 130d F3       		.byte	0xf3
 12389 130e 01       		.uleb128 0x1
ARM GAS  C:\Users\IDONNO~1\AppData\Local\Temp\ccY27Fyg.s 			page 219


 12390 130f 51       		.byte	0x51
 12391 1310 9F       		.byte	0x9f
 12392 1311 08020000 		.4byte	.LVL229
 12393 1315 16020000 		.4byte	.LVL230
 12394 1319 0100     		.2byte	0x1
 12395 131b 51       		.byte	0x51
 12396 131c 16020000 		.4byte	.LVL230
 12397 1320 4A020000 		.4byte	.LVL236
 12398 1324 0400     		.2byte	0x4
 12399 1326 F3       		.byte	0xf3
 12400 1327 01       		.uleb128 0x1
 12401 1328 51       		.byte	0x51
 12402 1329 9F       		.byte	0x9f
 12403 132a 4A020000 		.4byte	.LVL236
 12404 132e 78020000 		.4byte	.LVL238
 12405 1332 0100     		.2byte	0x1
 12406 1334 51       		.byte	0x51
 12407 1335 78020000 		.4byte	.LVL238
 12408 1339 A8020000 		.4byte	.LVL240
 12409 133d 0400     		.2byte	0x4
 12410 133f F3       		.byte	0xf3
 12411 1340 01       		.uleb128 0x1
 12412 1341 51       		.byte	0x51
 12413 1342 9F       		.byte	0x9f
 12414 1343 64040000 		.4byte	.LVL292
 12415 1347 6E040000 		.4byte	.LVL294
 12416 134b 0100     		.2byte	0x1
 12417 134d 51       		.byte	0x51
 12418 134e 6E040000 		.4byte	.LVL294
 12419 1352 B6040000 		.4byte	.LVL298
 12420 1356 0400     		.2byte	0x4
 12421 1358 F3       		.byte	0xf3
 12422 1359 01       		.uleb128 0x1
 12423 135a 51       		.byte	0x51
 12424 135b 9F       		.byte	0x9f
 12425 135c 1A050000 		.4byte	.LVL303
 12426 1360 20050000 		.4byte	.LVL304
 12427 1364 0400     		.2byte	0x4
 12428 1366 F3       		.byte	0xf3
 12429 1367 01       		.uleb128 0x1
 12430 1368 51       		.byte	0x51
 12431 1369 9F       		.byte	0x9f
 12432 136a 40050000 		.4byte	.LVL309
 12433 136e 4A050000 		.4byte	.LVL311
 12434 1372 0100     		.2byte	0x1
 12435 1374 51       		.byte	0x51
 12436 1375 4A050000 		.4byte	.LVL311
 12437 1379 54050000 		.4byte	.LVL314
 12438 137d 0400     		.2byte	0x4
 12439 137f F3       		.byte	0xf3
 12440 1380 01       		.uleb128 0x1
 12441 1381 51       		.byte	0x51
 12442 1382 9F       		.byte	0x9f
 12443 1383 54050000 		.4byte	.LVL314
 12444 1387 5C050000 		.4byte	.LVL315
 12445 138b 0100     		.2byte	0x1
 12446 138d 51       		.byte	0x51
ARM GAS  C:\Users\IDONNO~1\AppData\Local\Temp\ccY27Fyg.s 			page 220


 12447 138e 6A050000 		.4byte	.LVL316
 12448 1392 70050000 		.4byte	.LVL317
 12449 1396 0400     		.2byte	0x4
 12450 1398 F3       		.byte	0xf3
 12451 1399 01       		.uleb128 0x1
 12452 139a 51       		.byte	0x51
 12453 139b 9F       		.byte	0x9f
 12454 139c 00000000 		.4byte	0
 12455 13a0 00000000 		.4byte	0
 12456              	.LLST109:
 12457 13a4 12000000 		.4byte	.LVL170
 12458 13a8 20000000 		.4byte	.LVL171
 12459 13ac 0200     		.2byte	0x2
 12460 13ae 30       		.byte	0x30
 12461 13af 9F       		.byte	0x9f
 12462 13b0 EE000000 		.4byte	.LVL180
 12463 13b4 2C010000 		.4byte	.LVL184
 12464 13b8 0200     		.2byte	0x2
 12465 13ba 30       		.byte	0x30
 12466 13bb 9F       		.byte	0x9f
 12467 13bc 34010000 		.4byte	.LVL186
 12468 13c0 A8020000 		.4byte	.LVL240
 12469 13c4 0200     		.2byte	0x2
 12470 13c6 30       		.byte	0x30
 12471 13c7 9F       		.byte	0x9f
 12472 13c8 64040000 		.4byte	.LVL292
 12473 13cc B6040000 		.4byte	.LVL298
 12474 13d0 0200     		.2byte	0x2
 12475 13d2 30       		.byte	0x30
 12476 13d3 9F       		.byte	0x9f
 12477 13d4 1A050000 		.4byte	.LVL303
 12478 13d8 20050000 		.4byte	.LVL304
 12479 13dc 0200     		.2byte	0x2
 12480 13de 30       		.byte	0x30
 12481 13df 9F       		.byte	0x9f
 12482 13e0 40050000 		.4byte	.LVL309
 12483 13e4 5C050000 		.4byte	.LVL315
 12484 13e8 0200     		.2byte	0x2
 12485 13ea 30       		.byte	0x30
 12486 13eb 9F       		.byte	0x9f
 12487 13ec 6A050000 		.4byte	.LVL316
 12488 13f0 70050000 		.4byte	.LVL317
 12489 13f4 0200     		.2byte	0x2
 12490 13f6 30       		.byte	0x30
 12491 13f7 9F       		.byte	0x9f
 12492 13f8 00000000 		.4byte	0
 12493 13fc 00000000 		.4byte	0
 12494              	.LLST110:
 12495 1400 12000000 		.4byte	.LVL170
 12496 1404 20000000 		.4byte	.LVL171
 12497 1408 0600     		.2byte	0x6
 12498 140a F2       		.byte	0xf2
 12499 140b 7E230000 		.4byte	.Ldebug_info0+9086
 12500 140f 00       		.sleb128 0
 12501 1410 EE000000 		.4byte	.LVL180
 12502 1414 2C010000 		.4byte	.LVL184
 12503 1418 0600     		.2byte	0x6
ARM GAS  C:\Users\IDONNO~1\AppData\Local\Temp\ccY27Fyg.s 			page 221


 12504 141a F2       		.byte	0xf2
 12505 141b 7E230000 		.4byte	.Ldebug_info0+9086
 12506 141f 00       		.sleb128 0
 12507 1420 34010000 		.4byte	.LVL186
 12508 1424 A8020000 		.4byte	.LVL240
 12509 1428 0600     		.2byte	0x6
 12510 142a F2       		.byte	0xf2
 12511 142b 7E230000 		.4byte	.Ldebug_info0+9086
 12512 142f 00       		.sleb128 0
 12513 1430 64040000 		.4byte	.LVL292
 12514 1434 A0040000 		.4byte	.LVL295
 12515 1438 0600     		.2byte	0x6
 12516 143a F2       		.byte	0xf2
 12517 143b 7E230000 		.4byte	.Ldebug_info0+9086
 12518 143f 00       		.sleb128 0
 12519 1440 1A050000 		.4byte	.LVL303
 12520 1444 20050000 		.4byte	.LVL304
 12521 1448 0600     		.2byte	0x6
 12522 144a F2       		.byte	0xf2
 12523 144b 7E230000 		.4byte	.Ldebug_info0+9086
 12524 144f 00       		.sleb128 0
 12525 1450 40050000 		.4byte	.LVL309
 12526 1454 5C050000 		.4byte	.LVL315
 12527 1458 0600     		.2byte	0x6
 12528 145a F2       		.byte	0xf2
 12529 145b 7E230000 		.4byte	.Ldebug_info0+9086
 12530 145f 00       		.sleb128 0
 12531 1460 6A050000 		.4byte	.LVL316
 12532 1464 70050000 		.4byte	.LVL317
 12533 1468 0600     		.2byte	0x6
 12534 146a F2       		.byte	0xf2
 12535 146b 7E230000 		.4byte	.Ldebug_info0+9086
 12536 146f 00       		.sleb128 0
 12537 1470 00000000 		.4byte	0
 12538 1474 00000000 		.4byte	0
 12539              	.LLST111:
 12540 1478 12000000 		.4byte	.LVL170
 12541 147c 20000000 		.4byte	.LVL171
 12542 1480 0600     		.2byte	0x6
 12543 1482 03       		.byte	0x3
 12544 1483 00000000 		.4byte	msg.11562
 12545 1487 9F       		.byte	0x9f
 12546 1488 EE000000 		.4byte	.LVL180
 12547 148c 2C010000 		.4byte	.LVL184
 12548 1490 0600     		.2byte	0x6
 12549 1492 03       		.byte	0x3
 12550 1493 00000000 		.4byte	msg.11562
 12551 1497 9F       		.byte	0x9f
 12552 1498 34010000 		.4byte	.LVL186
 12553 149c A8020000 		.4byte	.LVL240
 12554 14a0 0600     		.2byte	0x6
 12555 14a2 03       		.byte	0x3
 12556 14a3 00000000 		.4byte	msg.11562
 12557 14a7 9F       		.byte	0x9f
 12558 14a8 64040000 		.4byte	.LVL292
 12559 14ac A0040000 		.4byte	.LVL295
 12560 14b0 0600     		.2byte	0x6
ARM GAS  C:\Users\IDONNO~1\AppData\Local\Temp\ccY27Fyg.s 			page 222


 12561 14b2 03       		.byte	0x3
 12562 14b3 00000000 		.4byte	msg.11562
 12563 14b7 9F       		.byte	0x9f
 12564 14b8 1A050000 		.4byte	.LVL303
 12565 14bc 20050000 		.4byte	.LVL304
 12566 14c0 0600     		.2byte	0x6
 12567 14c2 03       		.byte	0x3
 12568 14c3 00000000 		.4byte	msg.11562
 12569 14c7 9F       		.byte	0x9f
 12570 14c8 40050000 		.4byte	.LVL309
 12571 14cc 5C050000 		.4byte	.LVL315
 12572 14d0 0600     		.2byte	0x6
 12573 14d2 03       		.byte	0x3
 12574 14d3 00000000 		.4byte	msg.11562
 12575 14d7 9F       		.byte	0x9f
 12576 14d8 6A050000 		.4byte	.LVL316
 12577 14dc 70050000 		.4byte	.LVL317
 12578 14e0 0600     		.2byte	0x6
 12579 14e2 03       		.byte	0x3
 12580 14e3 00000000 		.4byte	msg.11562
 12581 14e7 9F       		.byte	0x9f
 12582 14e8 00000000 		.4byte	0
 12583 14ec 00000000 		.4byte	0
 12584              	.LLST112:
 12585 14f0 12000000 		.4byte	.LVL170
 12586 14f4 20000000 		.4byte	.LVL171
 12587 14f8 0100     		.2byte	0x1
 12588 14fa 51       		.byte	0x51
 12589 14fb EE000000 		.4byte	.LVL180
 12590 14ff FC000000 		.4byte	.LVL181
 12591 1503 0100     		.2byte	0x1
 12592 1505 51       		.byte	0x51
 12593 1506 FC000000 		.4byte	.LVL181
 12594 150a 2C010000 		.4byte	.LVL184
 12595 150e 0400     		.2byte	0x4
 12596 1510 F3       		.byte	0xf3
 12597 1511 01       		.uleb128 0x1
 12598 1512 51       		.byte	0x51
 12599 1513 9F       		.byte	0x9f
 12600 1514 34010000 		.4byte	.LVL186
 12601 1518 38010000 		.4byte	.LVL187
 12602 151c 0100     		.2byte	0x1
 12603 151e 51       		.byte	0x51
 12604 151f 38010000 		.4byte	.LVL187
 12605 1523 5A010000 		.4byte	.LVL194
 12606 1527 0400     		.2byte	0x4
 12607 1529 F3       		.byte	0xf3
 12608 152a 01       		.uleb128 0x1
 12609 152b 51       		.byte	0x51
 12610 152c 9F       		.byte	0x9f
 12611 152d 5A010000 		.4byte	.LVL194
 12612 1531 5E010000 		.4byte	.LVL195
 12613 1535 0100     		.2byte	0x1
 12614 1537 51       		.byte	0x51
 12615 1538 5E010000 		.4byte	.LVL195
 12616 153c 80010000 		.4byte	.LVL202
 12617 1540 0400     		.2byte	0x4
ARM GAS  C:\Users\IDONNO~1\AppData\Local\Temp\ccY27Fyg.s 			page 223


 12618 1542 F3       		.byte	0xf3
 12619 1543 01       		.uleb128 0x1
 12620 1544 51       		.byte	0x51
 12621 1545 9F       		.byte	0x9f
 12622 1546 80010000 		.4byte	.LVL202
 12623 154a 84010000 		.4byte	.LVL203
 12624 154e 0100     		.2byte	0x1
 12625 1550 51       		.byte	0x51
 12626 1551 84010000 		.4byte	.LVL203
 12627 1555 A6010000 		.4byte	.LVL210
 12628 1559 0400     		.2byte	0x4
 12629 155b F3       		.byte	0xf3
 12630 155c 01       		.uleb128 0x1
 12631 155d 51       		.byte	0x51
 12632 155e 9F       		.byte	0x9f
 12633 155f A6010000 		.4byte	.LVL210
 12634 1563 A8010000 		.4byte	.LVL211
 12635 1567 0100     		.2byte	0x1
 12636 1569 51       		.byte	0x51
 12637 156a A8010000 		.4byte	.LVL211
 12638 156e D2010000 		.4byte	.LVL219
 12639 1572 0400     		.2byte	0x4
 12640 1574 F3       		.byte	0xf3
 12641 1575 01       		.uleb128 0x1
 12642 1576 51       		.byte	0x51
 12643 1577 9F       		.byte	0x9f
 12644 1578 D2010000 		.4byte	.LVL219
 12645 157c EC010000 		.4byte	.LVL225
 12646 1580 0100     		.2byte	0x1
 12647 1582 51       		.byte	0x51
 12648 1583 EC010000 		.4byte	.LVL225
 12649 1587 F2010000 		.4byte	.LVL226
 12650 158b 0700     		.2byte	0x7
 12651 158d 70       		.byte	0x70
 12652 158e 00       		.sleb128 0
 12653 158f 72       		.byte	0x72
 12654 1590 00       		.sleb128 0
 12655 1591 22       		.byte	0x22
 12656 1592 23       		.byte	0x23
 12657 1593 07       		.uleb128 0x7
 12658 1594 F2010000 		.4byte	.LVL226
 12659 1598 00020000 		.4byte	.LVL228
 12660 159c 0F00     		.2byte	0xf
 12661 159e 03       		.byte	0x3
 12662 159f 04000000 		.4byte	m_mavlink_status.10569+4
 12663 15a3 94       		.byte	0x94
 12664 15a4 01       		.byte	0x1
 12665 15a5 08       		.byte	0x8
 12666 15a6 FF       		.byte	0xff
 12667 15a7 1A       		.byte	0x1a
 12668 15a8 70       		.byte	0x70
 12669 15a9 00       		.sleb128 0
 12670 15aa 22       		.byte	0x22
 12671 15ab 23       		.byte	0x23
 12672 15ac 08       		.uleb128 0x8
 12673 15ad 00020000 		.4byte	.LVL228
 12674 15b1 08020000 		.4byte	.LVL229
ARM GAS  C:\Users\IDONNO~1\AppData\Local\Temp\ccY27Fyg.s 			page 224


 12675 15b5 0400     		.2byte	0x4
 12676 15b7 F3       		.byte	0xf3
 12677 15b8 01       		.uleb128 0x1
 12678 15b9 51       		.byte	0x51
 12679 15ba 9F       		.byte	0x9f
 12680 15bb 08020000 		.4byte	.LVL229
 12681 15bf 16020000 		.4byte	.LVL230
 12682 15c3 0100     		.2byte	0x1
 12683 15c5 51       		.byte	0x51
 12684 15c6 16020000 		.4byte	.LVL230
 12685 15ca 4A020000 		.4byte	.LVL236
 12686 15ce 0400     		.2byte	0x4
 12687 15d0 F3       		.byte	0xf3
 12688 15d1 01       		.uleb128 0x1
 12689 15d2 51       		.byte	0x51
 12690 15d3 9F       		.byte	0x9f
 12691 15d4 4A020000 		.4byte	.LVL236
 12692 15d8 78020000 		.4byte	.LVL238
 12693 15dc 0100     		.2byte	0x1
 12694 15de 51       		.byte	0x51
 12695 15df 78020000 		.4byte	.LVL238
 12696 15e3 A8020000 		.4byte	.LVL240
 12697 15e7 0400     		.2byte	0x4
 12698 15e9 F3       		.byte	0xf3
 12699 15ea 01       		.uleb128 0x1
 12700 15eb 51       		.byte	0x51
 12701 15ec 9F       		.byte	0x9f
 12702 15ed 64040000 		.4byte	.LVL292
 12703 15f1 6E040000 		.4byte	.LVL294
 12704 15f5 0100     		.2byte	0x1
 12705 15f7 51       		.byte	0x51
 12706 15f8 6E040000 		.4byte	.LVL294
 12707 15fc A0040000 		.4byte	.LVL295
 12708 1600 0400     		.2byte	0x4
 12709 1602 F3       		.byte	0xf3
 12710 1603 01       		.uleb128 0x1
 12711 1604 51       		.byte	0x51
 12712 1605 9F       		.byte	0x9f
 12713 1606 1A050000 		.4byte	.LVL303
 12714 160a 20050000 		.4byte	.LVL304
 12715 160e 0400     		.2byte	0x4
 12716 1610 F3       		.byte	0xf3
 12717 1611 01       		.uleb128 0x1
 12718 1612 51       		.byte	0x51
 12719 1613 9F       		.byte	0x9f
 12720 1614 40050000 		.4byte	.LVL309
 12721 1618 4A050000 		.4byte	.LVL311
 12722 161c 0100     		.2byte	0x1
 12723 161e 51       		.byte	0x51
 12724 161f 4A050000 		.4byte	.LVL311
 12725 1623 54050000 		.4byte	.LVL314
 12726 1627 0400     		.2byte	0x4
 12727 1629 F3       		.byte	0xf3
 12728 162a 01       		.uleb128 0x1
 12729 162b 51       		.byte	0x51
 12730 162c 9F       		.byte	0x9f
 12731 162d 54050000 		.4byte	.LVL314
ARM GAS  C:\Users\IDONNO~1\AppData\Local\Temp\ccY27Fyg.s 			page 225


 12732 1631 5C050000 		.4byte	.LVL315
 12733 1635 0100     		.2byte	0x1
 12734 1637 51       		.byte	0x51
 12735 1638 6A050000 		.4byte	.LVL316
 12736 163c 70050000 		.4byte	.LVL317
 12737 1640 0400     		.2byte	0x4
 12738 1642 F3       		.byte	0xf3
 12739 1643 01       		.uleb128 0x1
 12740 1644 51       		.byte	0x51
 12741 1645 9F       		.byte	0x9f
 12742 1646 00000000 		.4byte	0
 12743 164a 00000000 		.4byte	0
 12744              	.LLST113:
 12745 164e 12000000 		.4byte	.LVL170
 12746 1652 20000000 		.4byte	.LVL171
 12747 1656 0200     		.2byte	0x2
 12748 1658 30       		.byte	0x30
 12749 1659 9F       		.byte	0x9f
 12750 165a EE000000 		.4byte	.LVL180
 12751 165e 2C010000 		.4byte	.LVL184
 12752 1662 0200     		.2byte	0x2
 12753 1664 30       		.byte	0x30
 12754 1665 9F       		.byte	0x9f
 12755 1666 34010000 		.4byte	.LVL186
 12756 166a A8020000 		.4byte	.LVL240
 12757 166e 0200     		.2byte	0x2
 12758 1670 30       		.byte	0x30
 12759 1671 9F       		.byte	0x9f
 12760 1672 64040000 		.4byte	.LVL292
 12761 1676 A0040000 		.4byte	.LVL295
 12762 167a 0200     		.2byte	0x2
 12763 167c 30       		.byte	0x30
 12764 167d 9F       		.byte	0x9f
 12765 167e 1A050000 		.4byte	.LVL303
 12766 1682 20050000 		.4byte	.LVL304
 12767 1686 0200     		.2byte	0x2
 12768 1688 30       		.byte	0x30
 12769 1689 9F       		.byte	0x9f
 12770 168a 40050000 		.4byte	.LVL309
 12771 168e 5C050000 		.4byte	.LVL315
 12772 1692 0200     		.2byte	0x2
 12773 1694 30       		.byte	0x30
 12774 1695 9F       		.byte	0x9f
 12775 1696 6A050000 		.4byte	.LVL316
 12776 169a 70050000 		.4byte	.LVL317
 12777 169e 0200     		.2byte	0x2
 12778 16a0 30       		.byte	0x30
 12779 16a1 9F       		.byte	0x9f
 12780 16a2 00000000 		.4byte	0
 12781 16a6 00000000 		.4byte	0
 12782              	.LLST116:
 12783 16aa 12000000 		.4byte	.LVL170
 12784 16ae 20000000 		.4byte	.LVL171
 12785 16b2 0100     		.2byte	0x1
 12786 16b4 51       		.byte	0x51
 12787 16b5 EE000000 		.4byte	.LVL180
 12788 16b9 FC000000 		.4byte	.LVL181
ARM GAS  C:\Users\IDONNO~1\AppData\Local\Temp\ccY27Fyg.s 			page 226


 12789 16bd 0100     		.2byte	0x1
 12790 16bf 51       		.byte	0x51
 12791 16c0 FC000000 		.4byte	.LVL181
 12792 16c4 2C010000 		.4byte	.LVL184
 12793 16c8 0400     		.2byte	0x4
 12794 16ca F3       		.byte	0xf3
 12795 16cb 01       		.uleb128 0x1
 12796 16cc 51       		.byte	0x51
 12797 16cd 9F       		.byte	0x9f
 12798 16ce 34010000 		.4byte	.LVL186
 12799 16d2 38010000 		.4byte	.LVL187
 12800 16d6 0100     		.2byte	0x1
 12801 16d8 51       		.byte	0x51
 12802 16d9 38010000 		.4byte	.LVL187
 12803 16dd 5A010000 		.4byte	.LVL194
 12804 16e1 0400     		.2byte	0x4
 12805 16e3 F3       		.byte	0xf3
 12806 16e4 01       		.uleb128 0x1
 12807 16e5 51       		.byte	0x51
 12808 16e6 9F       		.byte	0x9f
 12809 16e7 5A010000 		.4byte	.LVL194
 12810 16eb 5E010000 		.4byte	.LVL195
 12811 16ef 0100     		.2byte	0x1
 12812 16f1 51       		.byte	0x51
 12813 16f2 5E010000 		.4byte	.LVL195
 12814 16f6 80010000 		.4byte	.LVL202
 12815 16fa 0400     		.2byte	0x4
 12816 16fc F3       		.byte	0xf3
 12817 16fd 01       		.uleb128 0x1
 12818 16fe 51       		.byte	0x51
 12819 16ff 9F       		.byte	0x9f
 12820 1700 80010000 		.4byte	.LVL202
 12821 1704 84010000 		.4byte	.LVL203
 12822 1708 0100     		.2byte	0x1
 12823 170a 51       		.byte	0x51
 12824 170b 84010000 		.4byte	.LVL203
 12825 170f A6010000 		.4byte	.LVL210
 12826 1713 0400     		.2byte	0x4
 12827 1715 F3       		.byte	0xf3
 12828 1716 01       		.uleb128 0x1
 12829 1717 51       		.byte	0x51
 12830 1718 9F       		.byte	0x9f
 12831 1719 A6010000 		.4byte	.LVL210
 12832 171d A8010000 		.4byte	.LVL211
 12833 1721 0100     		.2byte	0x1
 12834 1723 51       		.byte	0x51
 12835 1724 A8010000 		.4byte	.LVL211
 12836 1728 D2010000 		.4byte	.LVL219
 12837 172c 0400     		.2byte	0x4
 12838 172e F3       		.byte	0xf3
 12839 172f 01       		.uleb128 0x1
 12840 1730 51       		.byte	0x51
 12841 1731 9F       		.byte	0x9f
 12842 1732 D2010000 		.4byte	.LVL219
 12843 1736 EC010000 		.4byte	.LVL225
 12844 173a 0100     		.2byte	0x1
 12845 173c 51       		.byte	0x51
ARM GAS  C:\Users\IDONNO~1\AppData\Local\Temp\ccY27Fyg.s 			page 227


 12846 173d EC010000 		.4byte	.LVL225
 12847 1741 F2010000 		.4byte	.LVL226
 12848 1745 0700     		.2byte	0x7
 12849 1747 70       		.byte	0x70
 12850 1748 00       		.sleb128 0
 12851 1749 72       		.byte	0x72
 12852 174a 00       		.sleb128 0
 12853 174b 22       		.byte	0x22
 12854 174c 23       		.byte	0x23
 12855 174d 07       		.uleb128 0x7
 12856 174e F2010000 		.4byte	.LVL226
 12857 1752 00020000 		.4byte	.LVL228
 12858 1756 0F00     		.2byte	0xf
 12859 1758 03       		.byte	0x3
 12860 1759 04000000 		.4byte	m_mavlink_status.10569+4
 12861 175d 94       		.byte	0x94
 12862 175e 01       		.byte	0x1
 12863 175f 08       		.byte	0x8
 12864 1760 FF       		.byte	0xff
 12865 1761 1A       		.byte	0x1a
 12866 1762 70       		.byte	0x70
 12867 1763 00       		.sleb128 0
 12868 1764 22       		.byte	0x22
 12869 1765 23       		.byte	0x23
 12870 1766 08       		.uleb128 0x8
 12871 1767 00020000 		.4byte	.LVL228
 12872 176b 08020000 		.4byte	.LVL229
 12873 176f 0400     		.2byte	0x4
 12874 1771 F3       		.byte	0xf3
 12875 1772 01       		.uleb128 0x1
 12876 1773 51       		.byte	0x51
 12877 1774 9F       		.byte	0x9f
 12878 1775 08020000 		.4byte	.LVL229
 12879 1779 16020000 		.4byte	.LVL230
 12880 177d 0100     		.2byte	0x1
 12881 177f 51       		.byte	0x51
 12882 1780 16020000 		.4byte	.LVL230
 12883 1784 4A020000 		.4byte	.LVL236
 12884 1788 0400     		.2byte	0x4
 12885 178a F3       		.byte	0xf3
 12886 178b 01       		.uleb128 0x1
 12887 178c 51       		.byte	0x51
 12888 178d 9F       		.byte	0x9f
 12889 178e 4A020000 		.4byte	.LVL236
 12890 1792 78020000 		.4byte	.LVL238
 12891 1796 0100     		.2byte	0x1
 12892 1798 51       		.byte	0x51
 12893 1799 78020000 		.4byte	.LVL238
 12894 179d A8020000 		.4byte	.LVL240
 12895 17a1 0400     		.2byte	0x4
 12896 17a3 F3       		.byte	0xf3
 12897 17a4 01       		.uleb128 0x1
 12898 17a5 51       		.byte	0x51
 12899 17a6 9F       		.byte	0x9f
 12900 17a7 64040000 		.4byte	.LVL292
 12901 17ab 6E040000 		.4byte	.LVL294
 12902 17af 0100     		.2byte	0x1
ARM GAS  C:\Users\IDONNO~1\AppData\Local\Temp\ccY27Fyg.s 			page 228


 12903 17b1 51       		.byte	0x51
 12904 17b2 6E040000 		.4byte	.LVL294
 12905 17b6 A0040000 		.4byte	.LVL295
 12906 17ba 0400     		.2byte	0x4
 12907 17bc F3       		.byte	0xf3
 12908 17bd 01       		.uleb128 0x1
 12909 17be 51       		.byte	0x51
 12910 17bf 9F       		.byte	0x9f
 12911 17c0 1A050000 		.4byte	.LVL303
 12912 17c4 20050000 		.4byte	.LVL304
 12913 17c8 0400     		.2byte	0x4
 12914 17ca F3       		.byte	0xf3
 12915 17cb 01       		.uleb128 0x1
 12916 17cc 51       		.byte	0x51
 12917 17cd 9F       		.byte	0x9f
 12918 17ce 40050000 		.4byte	.LVL309
 12919 17d2 4A050000 		.4byte	.LVL311
 12920 17d6 0100     		.2byte	0x1
 12921 17d8 51       		.byte	0x51
 12922 17d9 4A050000 		.4byte	.LVL311
 12923 17dd 54050000 		.4byte	.LVL314
 12924 17e1 0400     		.2byte	0x4
 12925 17e3 F3       		.byte	0xf3
 12926 17e4 01       		.uleb128 0x1
 12927 17e5 51       		.byte	0x51
 12928 17e6 9F       		.byte	0x9f
 12929 17e7 54050000 		.4byte	.LVL314
 12930 17eb 5C050000 		.4byte	.LVL315
 12931 17ef 0100     		.2byte	0x1
 12932 17f1 51       		.byte	0x51
 12933 17f2 6A050000 		.4byte	.LVL316
 12934 17f6 70050000 		.4byte	.LVL317
 12935 17fa 0400     		.2byte	0x4
 12936 17fc F3       		.byte	0xf3
 12937 17fd 01       		.uleb128 0x1
 12938 17fe 51       		.byte	0x51
 12939 17ff 9F       		.byte	0x9f
 12940 1800 00000000 		.4byte	0
 12941 1804 00000000 		.4byte	0
 12942              	.LLST117:
 12943 1808 12000000 		.4byte	.LVL170
 12944 180c 20000000 		.4byte	.LVL171
 12945 1810 0600     		.2byte	0x6
 12946 1812 03       		.byte	0x3
 12947 1813 00000000 		.4byte	m_mavlink_status.10569
 12948 1817 9F       		.byte	0x9f
 12949 1818 EE000000 		.4byte	.LVL180
 12950 181c 2C010000 		.4byte	.LVL184
 12951 1820 0600     		.2byte	0x6
 12952 1822 03       		.byte	0x3
 12953 1823 00000000 		.4byte	m_mavlink_status.10569
 12954 1827 9F       		.byte	0x9f
 12955 1828 34010000 		.4byte	.LVL186
 12956 182c A8020000 		.4byte	.LVL240
 12957 1830 0600     		.2byte	0x6
 12958 1832 03       		.byte	0x3
 12959 1833 00000000 		.4byte	m_mavlink_status.10569
ARM GAS  C:\Users\IDONNO~1\AppData\Local\Temp\ccY27Fyg.s 			page 229


 12960 1837 9F       		.byte	0x9f
 12961 1838 64040000 		.4byte	.LVL292
 12962 183c A0040000 		.4byte	.LVL295
 12963 1840 0600     		.2byte	0x6
 12964 1842 03       		.byte	0x3
 12965 1843 00000000 		.4byte	m_mavlink_status.10569
 12966 1847 9F       		.byte	0x9f
 12967 1848 1A050000 		.4byte	.LVL303
 12968 184c 20050000 		.4byte	.LVL304
 12969 1850 0600     		.2byte	0x6
 12970 1852 03       		.byte	0x3
 12971 1853 00000000 		.4byte	m_mavlink_status.10569
 12972 1857 9F       		.byte	0x9f
 12973 1858 40050000 		.4byte	.LVL309
 12974 185c 5C050000 		.4byte	.LVL315
 12975 1860 0600     		.2byte	0x6
 12976 1862 03       		.byte	0x3
 12977 1863 00000000 		.4byte	m_mavlink_status.10569
 12978 1867 9F       		.byte	0x9f
 12979 1868 6A050000 		.4byte	.LVL316
 12980 186c 70050000 		.4byte	.LVL317
 12981 1870 0600     		.2byte	0x6
 12982 1872 03       		.byte	0x3
 12983 1873 00000000 		.4byte	m_mavlink_status.10569
 12984 1877 9F       		.byte	0x9f
 12985 1878 00000000 		.4byte	0
 12986 187c 00000000 		.4byte	0
 12987              	.LLST118:
 12988 1880 12000000 		.4byte	.LVL170
 12989 1884 20000000 		.4byte	.LVL171
 12990 1888 0600     		.2byte	0x6
 12991 188a 03       		.byte	0x3
 12992 188b 00000000 		.4byte	m_mavlink_buffer.10573
 12993 188f 9F       		.byte	0x9f
 12994 1890 EE000000 		.4byte	.LVL180
 12995 1894 2C010000 		.4byte	.LVL184
 12996 1898 0600     		.2byte	0x6
 12997 189a 03       		.byte	0x3
 12998 189b 00000000 		.4byte	m_mavlink_buffer.10573
 12999 189f 9F       		.byte	0x9f
 13000 18a0 34010000 		.4byte	.LVL186
 13001 18a4 A8020000 		.4byte	.LVL240
 13002 18a8 0600     		.2byte	0x6
 13003 18aa 03       		.byte	0x3
 13004 18ab 00000000 		.4byte	m_mavlink_buffer.10573
 13005 18af 9F       		.byte	0x9f
 13006 18b0 64040000 		.4byte	.LVL292
 13007 18b4 A0040000 		.4byte	.LVL295
 13008 18b8 0600     		.2byte	0x6
 13009 18ba 03       		.byte	0x3
 13010 18bb 00000000 		.4byte	m_mavlink_buffer.10573
 13011 18bf 9F       		.byte	0x9f
 13012 18c0 1A050000 		.4byte	.LVL303
 13013 18c4 20050000 		.4byte	.LVL304
 13014 18c8 0600     		.2byte	0x6
 13015 18ca 03       		.byte	0x3
 13016 18cb 00000000 		.4byte	m_mavlink_buffer.10573
ARM GAS  C:\Users\IDONNO~1\AppData\Local\Temp\ccY27Fyg.s 			page 230


 13017 18cf 9F       		.byte	0x9f
 13018 18d0 40050000 		.4byte	.LVL309
 13019 18d4 5C050000 		.4byte	.LVL315
 13020 18d8 0600     		.2byte	0x6
 13021 18da 03       		.byte	0x3
 13022 18db 00000000 		.4byte	m_mavlink_buffer.10573
 13023 18df 9F       		.byte	0x9f
 13024 18e0 6A050000 		.4byte	.LVL316
 13025 18e4 70050000 		.4byte	.LVL317
 13026 18e8 0600     		.2byte	0x6
 13027 18ea 03       		.byte	0x3
 13028 18eb 00000000 		.4byte	m_mavlink_buffer.10573
 13029 18ef 9F       		.byte	0x9f
 13030 18f0 00000000 		.4byte	0
 13031 18f4 00000000 		.4byte	0
 13032              	.LLST119:
 13033 18f8 12000000 		.4byte	.LVL170
 13034 18fc 20000000 		.4byte	.LVL171
 13035 1900 0200     		.2byte	0x2
 13036 1902 30       		.byte	0x30
 13037 1903 9F       		.byte	0x9f
 13038 1904 EE000000 		.4byte	.LVL180
 13039 1908 24010000 		.4byte	.LVL183
 13040 190c 0200     		.2byte	0x2
 13041 190e 30       		.byte	0x30
 13042 190f 9F       		.byte	0x9f
 13043 1910 24010000 		.4byte	.LVL183
 13044 1914 2C010000 		.4byte	.LVL184
 13045 1918 0200     		.2byte	0x2
 13046 191a 31       		.byte	0x31
 13047 191b 9F       		.byte	0x9f
 13048 191c 34010000 		.4byte	.LVL186
 13049 1920 82020000 		.4byte	.LVL239
 13050 1924 0200     		.2byte	0x2
 13051 1926 30       		.byte	0x30
 13052 1927 9F       		.byte	0x9f
 13053 1928 82020000 		.4byte	.LVL239
 13054 192c B2020000 		.4byte	.LVL242
 13055 1930 0200     		.2byte	0x2
 13056 1932 31       		.byte	0x31
 13057 1933 9F       		.byte	0x9f
 13058 1934 64040000 		.4byte	.LVL292
 13059 1938 66040000 		.4byte	.LVL293
 13060 193c 0200     		.2byte	0x2
 13061 193e 30       		.byte	0x30
 13062 193f 9F       		.byte	0x9f
 13063 1940 66040000 		.4byte	.LVL293
 13064 1944 B6040000 		.4byte	.LVL298
 13065 1948 0200     		.2byte	0x2
 13066 194a 31       		.byte	0x31
 13067 194b 9F       		.byte	0x9f
 13068 194c 1A050000 		.4byte	.LVL303
 13069 1950 20050000 		.4byte	.LVL304
 13070 1954 0200     		.2byte	0x2
 13071 1956 30       		.byte	0x30
 13072 1957 9F       		.byte	0x9f
 13073 1958 40050000 		.4byte	.LVL309
ARM GAS  C:\Users\IDONNO~1\AppData\Local\Temp\ccY27Fyg.s 			page 231


 13074 195c 5C050000 		.4byte	.LVL315
 13075 1960 0200     		.2byte	0x2
 13076 1962 30       		.byte	0x30
 13077 1963 9F       		.byte	0x9f
 13078 1964 6A050000 		.4byte	.LVL316
 13079 1968 70050000 		.4byte	.LVL317
 13080 196c 0200     		.2byte	0x2
 13081 196e 31       		.byte	0x31
 13082 196f 9F       		.byte	0x9f
 13083 1970 00000000 		.4byte	0
 13084 1974 00000000 		.4byte	0
 13085              	.LLST120:
 13086 1978 3A010000 		.4byte	.LVL188
 13087 197c 3C010000 		.4byte	.LVL189
 13088 1980 0100     		.2byte	0x1
 13089 1982 54       		.byte	0x54
 13090 1983 3C010000 		.4byte	.LVL189
 13091 1987 54010000 		.4byte	.LVL193
 13092 198b 0500     		.2byte	0x5
 13093 198d 03       		.byte	0x3
 13094 198e 05000000 		.4byte	m_mavlink_buffer.10573+5
 13095 1992 00000000 		.4byte	0
 13096 1996 00000000 		.4byte	0
 13097              	.LLST121:
 13098 199a 3A010000 		.4byte	.LVL188
 13099 199e 54010000 		.4byte	.LVL193
 13100 19a2 0600     		.2byte	0x6
 13101 19a4 03       		.byte	0x3
 13102 19a5 00000000 		.4byte	m_mavlink_buffer.10573
 13103 19a9 9F       		.byte	0x9f
 13104 19aa 00000000 		.4byte	0
 13105 19ae 00000000 		.4byte	0
 13106              	.LLST124:
 13107 19b2 3C010000 		.4byte	.LVL189
 13108 19b6 40010000 		.4byte	.LVL190
 13109 19ba 0100     		.2byte	0x1
 13110 19bc 54       		.byte	0x54
 13111 19bd 42010000 		.4byte	.LVL191
 13112 19c1 50010000 		.4byte	.LVL192
 13113 19c5 0100     		.2byte	0x1
 13114 19c7 54       		.byte	0x54
 13115 19c8 00000000 		.4byte	0
 13116 19cc 00000000 		.4byte	0
 13117              	.LLST125:
 13118 19d0 60010000 		.4byte	.LVL196
 13119 19d4 62010000 		.4byte	.LVL197
 13120 19d8 0100     		.2byte	0x1
 13121 19da 54       		.byte	0x54
 13122 19db 62010000 		.4byte	.LVL197
 13123 19df 7A010000 		.4byte	.LVL201
 13124 19e3 0500     		.2byte	0x5
 13125 19e5 03       		.byte	0x3
 13126 19e6 04000000 		.4byte	m_mavlink_buffer.10573+4
 13127 19ea 00000000 		.4byte	0
 13128 19ee 00000000 		.4byte	0
 13129              	.LLST126:
 13130 19f2 60010000 		.4byte	.LVL196
ARM GAS  C:\Users\IDONNO~1\AppData\Local\Temp\ccY27Fyg.s 			page 232


 13131 19f6 7A010000 		.4byte	.LVL201
 13132 19fa 0600     		.2byte	0x6
 13133 19fc 03       		.byte	0x3
 13134 19fd 00000000 		.4byte	m_mavlink_buffer.10573
 13135 1a01 9F       		.byte	0x9f
 13136 1a02 00000000 		.4byte	0
 13137 1a06 00000000 		.4byte	0
 13138              	.LLST129:
 13139 1a0a 62010000 		.4byte	.LVL197
 13140 1a0e 66010000 		.4byte	.LVL198
 13141 1a12 0100     		.2byte	0x1
 13142 1a14 54       		.byte	0x54
 13143 1a15 68010000 		.4byte	.LVL199
 13144 1a19 76010000 		.4byte	.LVL200
 13145 1a1d 0100     		.2byte	0x1
 13146 1a1f 54       		.byte	0x54
 13147 1a20 00000000 		.4byte	0
 13148 1a24 00000000 		.4byte	0
 13149              	.LLST130:
 13150 1a28 86010000 		.4byte	.LVL204
 13151 1a2c 88010000 		.4byte	.LVL205
 13152 1a30 0100     		.2byte	0x1
 13153 1a32 54       		.byte	0x54
 13154 1a33 88010000 		.4byte	.LVL205
 13155 1a37 A0010000 		.4byte	.LVL209
 13156 1a3b 0500     		.2byte	0x5
 13157 1a3d 03       		.byte	0x3
 13158 1a3e 06000000 		.4byte	m_mavlink_buffer.10573+6
 13159 1a42 00000000 		.4byte	0
 13160 1a46 00000000 		.4byte	0
 13161              	.LLST131:
 13162 1a4a 86010000 		.4byte	.LVL204
 13163 1a4e A0010000 		.4byte	.LVL209
 13164 1a52 0600     		.2byte	0x6
 13165 1a54 03       		.byte	0x3
 13166 1a55 00000000 		.4byte	m_mavlink_buffer.10573
 13167 1a59 9F       		.byte	0x9f
 13168 1a5a 00000000 		.4byte	0
 13169 1a5e 00000000 		.4byte	0
 13170              	.LLST134:
 13171 1a62 88010000 		.4byte	.LVL205
 13172 1a66 8C010000 		.4byte	.LVL206
 13173 1a6a 0100     		.2byte	0x1
 13174 1a6c 54       		.byte	0x54
 13175 1a6d 8E010000 		.4byte	.LVL207
 13176 1a71 9C010000 		.4byte	.LVL208
 13177 1a75 0100     		.2byte	0x1
 13178 1a77 54       		.byte	0x54
 13179 1a78 00000000 		.4byte	0
 13180 1a7c 00000000 		.4byte	0
 13181              	.LLST135:
 13182 1a80 AC010000 		.4byte	.LVL213
 13183 1a84 AE010000 		.4byte	.LVL214
 13184 1a88 0100     		.2byte	0x1
 13185 1a8a 54       		.byte	0x54
 13186 1a8b AE010000 		.4byte	.LVL214
 13187 1a8f C6010000 		.4byte	.LVL218
ARM GAS  C:\Users\IDONNO~1\AppData\Local\Temp\ccY27Fyg.s 			page 233


 13188 1a93 0500     		.2byte	0x5
 13189 1a95 03       		.byte	0x3
 13190 1a96 07000000 		.4byte	m_mavlink_buffer.10573+7
 13191 1a9a 00000000 		.4byte	0
 13192 1a9e 00000000 		.4byte	0
 13193              	.LLST136:
 13194 1aa2 AC010000 		.4byte	.LVL213
 13195 1aa6 C6010000 		.4byte	.LVL218
 13196 1aaa 0600     		.2byte	0x6
 13197 1aac 03       		.byte	0x3
 13198 1aad 00000000 		.4byte	m_mavlink_buffer.10573
 13199 1ab1 9F       		.byte	0x9f
 13200 1ab2 00000000 		.4byte	0
 13201 1ab6 00000000 		.4byte	0
 13202              	.LLST139:
 13203 1aba AE010000 		.4byte	.LVL214
 13204 1abe B2010000 		.4byte	.LVL215
 13205 1ac2 0100     		.2byte	0x1
 13206 1ac4 54       		.byte	0x54
 13207 1ac5 B4010000 		.4byte	.LVL216
 13208 1ac9 C4010000 		.4byte	.LVL217
 13209 1acd 0100     		.2byte	0x1
 13210 1acf 54       		.byte	0x54
 13211 1ad0 00000000 		.4byte	0
 13212 1ad4 00000000 		.4byte	0
 13213              	.LLST140:
 13214 1ad8 DE010000 		.4byte	.LVL221
 13215 1adc E4010000 		.4byte	.LVL222
 13216 1ae0 0100     		.2byte	0x1
 13217 1ae2 54       		.byte	0x54
 13218 1ae3 00000000 		.4byte	0
 13219 1ae7 00000000 		.4byte	0
 13220              	.LLST141:
 13221 1aeb DE010000 		.4byte	.LVL221
 13222 1aef 00020000 		.4byte	.LVL228
 13223 1af3 0600     		.2byte	0x6
 13224 1af5 03       		.byte	0x3
 13225 1af6 00000000 		.4byte	m_mavlink_buffer.10573
 13226 1afa 9F       		.byte	0x9f
 13227 1afb 00000000 		.4byte	0
 13228 1aff 00000000 		.4byte	0
 13229              	.LLST144:
 13230 1b03 E4010000 		.4byte	.LVL222
 13231 1b07 E8010000 		.4byte	.LVL223
 13232 1b0b 0100     		.2byte	0x1
 13233 1b0d 54       		.byte	0x54
 13234 1b0e E8010000 		.4byte	.LVL223
 13235 1b12 EA010000 		.4byte	.LVL224
 13236 1b16 0600     		.2byte	0x6
 13237 1b18 71       		.byte	0x71
 13238 1b19 00       		.sleb128 0
 13239 1b1a 77       		.byte	0x77
 13240 1b1b 00       		.sleb128 0
 13241 1b1c 27       		.byte	0x27
 13242 1b1d 9F       		.byte	0x9f
 13243 1b1e EA010000 		.4byte	.LVL224
 13244 1b22 FA010000 		.4byte	.LVL227
ARM GAS  C:\Users\IDONNO~1\AppData\Local\Temp\ccY27Fyg.s 			page 234


 13245 1b26 0100     		.2byte	0x1
 13246 1b28 54       		.byte	0x54
 13247 1b29 00000000 		.4byte	0
 13248 1b2d 00000000 		.4byte	0
 13249              	.LLST145:
 13250 1b31 08020000 		.4byte	.LVL229
 13251 1b35 36020000 		.4byte	.LVL235
 13252 1b39 1000     		.2byte	0x10
 13253 1b3b 03       		.byte	0x3
 13254 1b3c 07000000 		.4byte	m_mavlink_buffer.10573+7
 13255 1b40 94       		.byte	0x94
 13256 1b41 01       		.byte	0x1
 13257 1b42 08       		.byte	0x8
 13258 1b43 FF       		.byte	0xff
 13259 1b44 1A       		.byte	0x1a
 13260 1b45 03       		.byte	0x3
 13261 1b46 00000000 		.4byte	mavlink_message_crcs.10621
 13262 1b4a 22       		.byte	0x22
 13263 1b4b 00000000 		.4byte	0
 13264 1b4f 00000000 		.4byte	0
 13265              	.LLST146:
 13266 1b53 08020000 		.4byte	.LVL229
 13267 1b57 36020000 		.4byte	.LVL235
 13268 1b5b 0600     		.2byte	0x6
 13269 1b5d 03       		.byte	0x3
 13270 1b5e 00000000 		.4byte	m_mavlink_buffer.10573
 13271 1b62 9F       		.byte	0x9f
 13272 1b63 00000000 		.4byte	0
 13273 1b67 00000000 		.4byte	0
 13274              	.LLST149:
 13275 1b6b 1A020000 		.4byte	.LVL231
 13276 1b6f 1E020000 		.4byte	.LVL232
 13277 1b73 0100     		.2byte	0x1
 13278 1b75 53       		.byte	0x53
 13279 1b76 1E020000 		.4byte	.LVL232
 13280 1b7a 20020000 		.4byte	.LVL233
 13281 1b7e 1600     		.2byte	0x16
 13282 1b80 03       		.byte	0x3
 13283 1b81 07000000 		.4byte	m_mavlink_buffer.10573+7
 13284 1b85 94       		.byte	0x94
 13285 1b86 01       		.byte	0x1
 13286 1b87 08       		.byte	0x8
 13287 1b88 FF       		.byte	0xff
 13288 1b89 1A       		.byte	0x1a
 13289 1b8a 72       		.byte	0x72
 13290 1b8b 00       		.sleb128 0
 13291 1b8c 22       		.byte	0x22
 13292 1b8d 94       		.byte	0x94
 13293 1b8e 01       		.byte	0x1
 13294 1b8f 08       		.byte	0x8
 13295 1b90 FF       		.byte	0xff
 13296 1b91 1A       		.byte	0x1a
 13297 1b92 71       		.byte	0x71
 13298 1b93 00       		.sleb128 0
 13299 1b94 27       		.byte	0x27
 13300 1b95 9F       		.byte	0x9f
 13301 1b96 20020000 		.4byte	.LVL233
ARM GAS  C:\Users\IDONNO~1\AppData\Local\Temp\ccY27Fyg.s 			page 235


 13302 1b9a 2E020000 		.4byte	.LVL234
 13303 1b9e 0100     		.2byte	0x1
 13304 1ba0 53       		.byte	0x53
 13305 1ba1 2E020000 		.4byte	.LVL234
 13306 1ba5 36020000 		.4byte	.LVL235
 13307 1ba9 3400     		.2byte	0x34
 13308 1bab 03       		.byte	0x3
 13309 1bac 07000000 		.4byte	m_mavlink_buffer.10573+7
 13310 1bb0 94       		.byte	0x94
 13311 1bb1 01       		.byte	0x1
 13312 1bb2 08       		.byte	0x8
 13313 1bb3 FF       		.byte	0xff
 13314 1bb4 1A       		.byte	0x1a
 13315 1bb5 03       		.byte	0x3
 13316 1bb6 00000000 		.4byte	.LANCHOR5
 13317 1bba 22       		.byte	0x22
 13318 1bbb 94       		.byte	0x94
 13319 1bbc 01       		.byte	0x1
 13320 1bbd 08       		.byte	0x8
 13321 1bbe FF       		.byte	0xff
 13322 1bbf 1A       		.byte	0x1a
 13323 1bc0 71       		.byte	0x71
 13324 1bc1 00       		.sleb128 0
 13325 1bc2 27       		.byte	0x27
 13326 1bc3 34       		.byte	0x34
 13327 1bc4 24       		.byte	0x24
 13328 1bc5 03       		.byte	0x3
 13329 1bc6 07000000 		.4byte	m_mavlink_buffer.10573+7
 13330 1bca 94       		.byte	0x94
 13331 1bcb 01       		.byte	0x1
 13332 1bcc 08       		.byte	0x8
 13333 1bcd FF       		.byte	0xff
 13334 1bce 1A       		.byte	0x1a
 13335 1bcf 03       		.byte	0x3
 13336 1bd0 00000000 		.4byte	.LANCHOR5
 13337 1bd4 22       		.byte	0x22
 13338 1bd5 94       		.byte	0x94
 13339 1bd6 01       		.byte	0x1
 13340 1bd7 08       		.byte	0x8
 13341 1bd8 FF       		.byte	0xff
 13342 1bd9 1A       		.byte	0x1a
 13343 1bda 27       		.byte	0x27
 13344 1bdb 71       		.byte	0x71
 13345 1bdc 00       		.sleb128 0
 13346 1bdd 27       		.byte	0x27
 13347 1bde 9F       		.byte	0x9f
 13348 1bdf 00000000 		.4byte	0
 13349 1be3 00000000 		.4byte	0
 13350              	.LLST150:
 13351 1be7 4C050000 		.4byte	.LVL312
 13352 1beb 54050000 		.4byte	.LVL314
 13353 1bef 0600     		.2byte	0x6
 13354 1bf1 03       		.byte	0x3
 13355 1bf2 00000000 		.4byte	m_mavlink_buffer.10573
 13356 1bf6 9F       		.byte	0x9f
 13357 1bf7 00000000 		.4byte	0
 13358 1bfb 00000000 		.4byte	0
ARM GAS  C:\Users\IDONNO~1\AppData\Local\Temp\ccY27Fyg.s 			page 236


 13359              	.LLST151:
 13360 1bff 4C050000 		.4byte	.LVL312
 13361 1c03 4E050000 		.4byte	.LVL313
 13362 1c07 0600     		.2byte	0x6
 13363 1c09 03       		.byte	0x3
 13364 1c0a 00000000 		.4byte	m_mavlink_buffer.10573
 13365 1c0e 9F       		.byte	0x9f
 13366 1c0f 00000000 		.4byte	0
 13367 1c13 00000000 		.4byte	0
 13368              	.LLST152:
 13369 1c17 B2040000 		.4byte	.LVL296
 13370 1c1b B6040000 		.4byte	.LVL298
 13371 1c1f 0600     		.2byte	0x6
 13372 1c21 03       		.byte	0x3
 13373 1c22 00000000 		.4byte	m_mavlink_buffer.10573
 13374 1c26 9F       		.byte	0x9f
 13375 1c27 00000000 		.4byte	0
 13376 1c2b 00000000 		.4byte	0
 13377              	.LLST153:
 13378 1c2f B2040000 		.4byte	.LVL296
 13379 1c33 B4040000 		.4byte	.LVL297
 13380 1c37 0600     		.2byte	0x6
 13381 1c39 03       		.byte	0x3
 13382 1c3a 00000000 		.4byte	m_mavlink_buffer.10573
 13383 1c3e 9F       		.byte	0x9f
 13384 1c3f 00000000 		.4byte	0
 13385 1c43 00000000 		.4byte	0
 13386              	.LLST154:
 13387 1c47 44000000 		.4byte	.LVL175
 13388 1c4b E4000000 		.4byte	.LVL178
 13389 1c4f 0600     		.2byte	0x6
 13390 1c51 F2       		.byte	0xf2
 13391 1c52 7E230000 		.4byte	.Ldebug_info0+9086
 13392 1c56 00       		.sleb128 0
 13393 1c57 B2020000 		.4byte	.LVL242
 13394 1c5b 64040000 		.4byte	.LVL292
 13395 1c5f 0600     		.2byte	0x6
 13396 1c61 F2       		.byte	0xf2
 13397 1c62 7E230000 		.4byte	.Ldebug_info0+9086
 13398 1c66 00       		.sleb128 0
 13399 1c67 B6040000 		.4byte	.LVL298
 13400 1c6b 1A050000 		.4byte	.LVL303
 13401 1c6f 0600     		.2byte	0x6
 13402 1c71 F2       		.byte	0xf2
 13403 1c72 7E230000 		.4byte	.Ldebug_info0+9086
 13404 1c76 00       		.sleb128 0
 13405 1c77 20050000 		.4byte	.LVL304
 13406 1c7b 40050000 		.4byte	.LVL309
 13407 1c7f 0600     		.2byte	0x6
 13408 1c81 F2       		.byte	0xf2
 13409 1c82 7E230000 		.4byte	.Ldebug_info0+9086
 13410 1c86 00       		.sleb128 0
 13411 1c87 5C050000 		.4byte	.LVL315
 13412 1c8b 6A050000 		.4byte	.LVL316
 13413 1c8f 0600     		.2byte	0x6
 13414 1c91 F2       		.byte	0xf2
 13415 1c92 7E230000 		.4byte	.Ldebug_info0+9086
ARM GAS  C:\Users\IDONNO~1\AppData\Local\Temp\ccY27Fyg.s 			page 237


 13416 1c96 00       		.sleb128 0
 13417 1c97 70050000 		.4byte	.LVL317
 13418 1c9b 84050000 		.4byte	.LFE418
 13419 1c9f 0600     		.2byte	0x6
 13420 1ca1 F2       		.byte	0xf2
 13421 1ca2 7E230000 		.4byte	.Ldebug_info0+9086
 13422 1ca6 00       		.sleb128 0
 13423 1ca7 00000000 		.4byte	0
 13424 1cab 00000000 		.4byte	0
 13425              	.LLST155:
 13426 1caf 44000000 		.4byte	.LVL175
 13427 1cb3 E4000000 		.4byte	.LVL178
 13428 1cb7 0100     		.2byte	0x1
 13429 1cb9 5B       		.byte	0x5b
 13430 1cba B2020000 		.4byte	.LVL242
 13431 1cbe 64040000 		.4byte	.LVL292
 13432 1cc2 0100     		.2byte	0x1
 13433 1cc4 5B       		.byte	0x5b
 13434 1cc5 B6040000 		.4byte	.LVL298
 13435 1cc9 1A050000 		.4byte	.LVL303
 13436 1ccd 0100     		.2byte	0x1
 13437 1ccf 5B       		.byte	0x5b
 13438 1cd0 20050000 		.4byte	.LVL304
 13439 1cd4 40050000 		.4byte	.LVL309
 13440 1cd8 0100     		.2byte	0x1
 13441 1cda 5B       		.byte	0x5b
 13442 1cdb 5C050000 		.4byte	.LVL315
 13443 1cdf 6A050000 		.4byte	.LVL316
 13444 1ce3 0100     		.2byte	0x1
 13445 1ce5 5B       		.byte	0x5b
 13446 1ce6 70050000 		.4byte	.LVL317
 13447 1cea 84050000 		.4byte	.LFE418
 13448 1cee 0100     		.2byte	0x1
 13449 1cf0 5B       		.byte	0x5b
 13450 1cf1 00000000 		.4byte	0
 13451 1cf5 00000000 		.4byte	0
 13452              	.LLST156:
 13453 1cf9 44000000 		.4byte	.LVL175
 13454 1cfd E4000000 		.4byte	.LVL178
 13455 1d01 0100     		.2byte	0x1
 13456 1d03 54       		.byte	0x54
 13457 1d04 B2020000 		.4byte	.LVL242
 13458 1d08 BE020000 		.4byte	.LVL243
 13459 1d0c 0100     		.2byte	0x1
 13460 1d0e 54       		.byte	0x54
 13461 1d0f C0020000 		.4byte	.LVL244
 13462 1d13 F0020000 		.4byte	.LVL245
 13463 1d17 0100     		.2byte	0x1
 13464 1d19 54       		.byte	0x54
 13465 1d1a 10030000 		.4byte	.LVL246
 13466 1d1e 1C030000 		.4byte	.LVL248
 13467 1d22 0100     		.2byte	0x1
 13468 1d24 54       		.byte	0x54
 13469 1d25 1C030000 		.4byte	.LVL248
 13470 1d29 3E030000 		.4byte	.LVL253
 13471 1d2d 0500     		.2byte	0x5
 13472 1d2f 03       		.byte	0x3
ARM GAS  C:\Users\IDONNO~1\AppData\Local\Temp\ccY27Fyg.s 			page 238


 13473 1d30 15010000 		.4byte	m_mavlink_buffer.10573+277
 13474 1d34 3E030000 		.4byte	.LVL253
 13475 1d38 4A030000 		.4byte	.LVL255
 13476 1d3c 0100     		.2byte	0x1
 13477 1d3e 54       		.byte	0x54
 13478 1d3f 4A030000 		.4byte	.LVL255
 13479 1d43 6C030000 		.4byte	.LVL260
 13480 1d47 0500     		.2byte	0x5
 13481 1d49 03       		.byte	0x3
 13482 1d4a 14010000 		.4byte	m_mavlink_buffer.10573+276
 13483 1d4e 6C030000 		.4byte	.LVL260
 13484 1d52 78030000 		.4byte	.LVL262
 13485 1d56 0100     		.2byte	0x1
 13486 1d58 54       		.byte	0x54
 13487 1d59 78030000 		.4byte	.LVL262
 13488 1d5d 9A030000 		.4byte	.LVL267
 13489 1d61 0500     		.2byte	0x5
 13490 1d63 03       		.byte	0x3
 13491 1d64 16010000 		.4byte	m_mavlink_buffer.10573+278
 13492 1d68 9A030000 		.4byte	.LVL267
 13493 1d6c BC030000 		.4byte	.LVL272
 13494 1d70 0100     		.2byte	0x1
 13495 1d72 54       		.byte	0x54
 13496 1d73 BC030000 		.4byte	.LVL272
 13497 1d77 D0030000 		.4byte	.LVL275
 13498 1d7b 0500     		.2byte	0x5
 13499 1d7d 03       		.byte	0x3
 13500 1d7e 17010000 		.4byte	m_mavlink_buffer.10573+279
 13501 1d82 D0030000 		.4byte	.LVL275
 13502 1d86 FE030000 		.4byte	.LVL281
 13503 1d8a 0100     		.2byte	0x1
 13504 1d8c 54       		.byte	0x54
 13505 1d8d FE030000 		.4byte	.LVL281
 13506 1d91 02040000 		.4byte	.LVL282
 13507 1d95 0800     		.2byte	0x8
 13508 1d97 70       		.byte	0x70
 13509 1d98 00       		.sleb128 0
 13510 1d99 7C       		.byte	0x7c
 13511 1d9a 00       		.sleb128 0
 13512 1d9b 22       		.byte	0x22
 13513 1d9c 23       		.byte	0x23
 13514 1d9d 9702     		.uleb128 0x117
 13515 1d9f 02040000 		.4byte	.LVL282
 13516 1da3 14040000 		.4byte	.LVL284
 13517 1da7 1000     		.2byte	0x10
 13518 1da9 03       		.byte	0x3
 13519 1daa 10000000 		.4byte	m_mavlink_status.10569+16
 13520 1dae 94       		.byte	0x94
 13521 1daf 01       		.byte	0x1
 13522 1db0 08       		.byte	0x8
 13523 1db1 FF       		.byte	0xff
 13524 1db2 1A       		.byte	0x1a
 13525 1db3 70       		.byte	0x70
 13526 1db4 00       		.sleb128 0
 13527 1db5 22       		.byte	0x22
 13528 1db6 23       		.byte	0x23
 13529 1db7 9802     		.uleb128 0x118
ARM GAS  C:\Users\IDONNO~1\AppData\Local\Temp\ccY27Fyg.s 			page 239


 13530 1db9 20040000 		.4byte	.LVL285
 13531 1dbd 62040000 		.4byte	.LVL291
 13532 1dc1 0100     		.2byte	0x1
 13533 1dc3 54       		.byte	0x54
 13534 1dc4 62040000 		.4byte	.LVL291
 13535 1dc8 64040000 		.4byte	.LVL292
 13536 1dcc 0300     		.2byte	0x3
 13537 1dce 72       		.byte	0x72
 13538 1dcf 9802     		.sleb128 280
 13539 1dd1 B6040000 		.4byte	.LVL298
 13540 1dd5 1A050000 		.4byte	.LVL303
 13541 1dd9 0100     		.2byte	0x1
 13542 1ddb 54       		.byte	0x54
 13543 1ddc 20050000 		.4byte	.LVL304
 13544 1de0 26050000 		.4byte	.LVL305
 13545 1de4 0500     		.2byte	0x5
 13546 1de6 03       		.byte	0x3
 13547 1de7 17010000 		.4byte	m_mavlink_buffer.10573+279
 13548 1deb 26050000 		.4byte	.LVL305
 13549 1def 3C050000 		.4byte	.LVL308
 13550 1df3 0100     		.2byte	0x1
 13551 1df5 54       		.byte	0x54
 13552 1df6 3C050000 		.4byte	.LVL308
 13553 1dfa 40050000 		.4byte	.LVL309
 13554 1dfe 0500     		.2byte	0x5
 13555 1e00 03       		.byte	0x3
 13556 1e01 12010000 		.4byte	m_mavlink_buffer.10573+274
 13557 1e05 5C050000 		.4byte	.LVL315
 13558 1e09 6A050000 		.4byte	.LVL316
 13559 1e0d 0100     		.2byte	0x1
 13560 1e0f 54       		.byte	0x54
 13561 1e10 70050000 		.4byte	.LVL317
 13562 1e14 84050000 		.4byte	.LFE418
 13563 1e18 0100     		.2byte	0x1
 13564 1e1a 54       		.byte	0x54
 13565 1e1b 00000000 		.4byte	0
 13566 1e1f 00000000 		.4byte	0
 13567              	.LLST157:
 13568 1e23 44000000 		.4byte	.LVL175
 13569 1e27 E4000000 		.4byte	.LVL178
 13570 1e2b 0200     		.2byte	0x2
 13571 1e2d 31       		.byte	0x31
 13572 1e2e 9F       		.byte	0x9f
 13573 1e2f B2020000 		.4byte	.LVL242
 13574 1e33 64040000 		.4byte	.LVL292
 13575 1e37 0200     		.2byte	0x2
 13576 1e39 31       		.byte	0x31
 13577 1e3a 9F       		.byte	0x9f
 13578 1e3b B6040000 		.4byte	.LVL298
 13579 1e3f 1A050000 		.4byte	.LVL303
 13580 1e43 0200     		.2byte	0x2
 13581 1e45 31       		.byte	0x31
 13582 1e46 9F       		.byte	0x9f
 13583 1e47 20050000 		.4byte	.LVL304
 13584 1e4b 40050000 		.4byte	.LVL309
 13585 1e4f 0200     		.2byte	0x2
 13586 1e51 31       		.byte	0x31
ARM GAS  C:\Users\IDONNO~1\AppData\Local\Temp\ccY27Fyg.s 			page 240


 13587 1e52 9F       		.byte	0x9f
 13588 1e53 5C050000 		.4byte	.LVL315
 13589 1e57 6A050000 		.4byte	.LVL316
 13590 1e5b 0200     		.2byte	0x2
 13591 1e5d 31       		.byte	0x31
 13592 1e5e 9F       		.byte	0x9f
 13593 1e5f 70050000 		.4byte	.LVL317
 13594 1e63 84050000 		.4byte	.LFE418
 13595 1e67 0200     		.2byte	0x2
 13596 1e69 31       		.byte	0x31
 13597 1e6a 9F       		.byte	0x9f
 13598 1e6b 00000000 		.4byte	0
 13599 1e6f 00000000 		.4byte	0
 13600              	.LLST158:
 13601 1e73 44000000 		.4byte	.LVL175
 13602 1e77 E4000000 		.4byte	.LVL178
 13603 1e7b 0600     		.2byte	0x6
 13604 1e7d F2       		.byte	0xf2
 13605 1e7e 7E230000 		.4byte	.Ldebug_info0+9086
 13606 1e82 00       		.sleb128 0
 13607 1e83 B2020000 		.4byte	.LVL242
 13608 1e87 64040000 		.4byte	.LVL292
 13609 1e8b 0600     		.2byte	0x6
 13610 1e8d F2       		.byte	0xf2
 13611 1e8e 7E230000 		.4byte	.Ldebug_info0+9086
 13612 1e92 00       		.sleb128 0
 13613 1e93 B6040000 		.4byte	.LVL298
 13614 1e97 02050000 		.4byte	.LVL300
 13615 1e9b 0600     		.2byte	0x6
 13616 1e9d F2       		.byte	0xf2
 13617 1e9e 7E230000 		.4byte	.Ldebug_info0+9086
 13618 1ea2 00       		.sleb128 0
 13619 1ea3 20050000 		.4byte	.LVL304
 13620 1ea7 40050000 		.4byte	.LVL309
 13621 1eab 0600     		.2byte	0x6
 13622 1ead F2       		.byte	0xf2
 13623 1eae 7E230000 		.4byte	.Ldebug_info0+9086
 13624 1eb2 00       		.sleb128 0
 13625 1eb3 5C050000 		.4byte	.LVL315
 13626 1eb7 6A050000 		.4byte	.LVL316
 13627 1ebb 0600     		.2byte	0x6
 13628 1ebd F2       		.byte	0xf2
 13629 1ebe 7E230000 		.4byte	.Ldebug_info0+9086
 13630 1ec2 00       		.sleb128 0
 13631 1ec3 70050000 		.4byte	.LVL317
 13632 1ec7 84050000 		.4byte	.LFE418
 13633 1ecb 0600     		.2byte	0x6
 13634 1ecd F2       		.byte	0xf2
 13635 1ece 7E230000 		.4byte	.Ldebug_info0+9086
 13636 1ed2 00       		.sleb128 0
 13637 1ed3 00000000 		.4byte	0
 13638 1ed7 00000000 		.4byte	0
 13639              	.LLST159:
 13640 1edb 44000000 		.4byte	.LVL175
 13641 1edf E4000000 		.4byte	.LVL178
 13642 1ee3 0100     		.2byte	0x1
 13643 1ee5 5B       		.byte	0x5b
ARM GAS  C:\Users\IDONNO~1\AppData\Local\Temp\ccY27Fyg.s 			page 241


 13644 1ee6 B2020000 		.4byte	.LVL242
 13645 1eea 64040000 		.4byte	.LVL292
 13646 1eee 0100     		.2byte	0x1
 13647 1ef0 5B       		.byte	0x5b
 13648 1ef1 B6040000 		.4byte	.LVL298
 13649 1ef5 02050000 		.4byte	.LVL300
 13650 1ef9 0100     		.2byte	0x1
 13651 1efb 5B       		.byte	0x5b
 13652 1efc 20050000 		.4byte	.LVL304
 13653 1f00 40050000 		.4byte	.LVL309
 13654 1f04 0100     		.2byte	0x1
 13655 1f06 5B       		.byte	0x5b
 13656 1f07 5C050000 		.4byte	.LVL315
 13657 1f0b 6A050000 		.4byte	.LVL316
 13658 1f0f 0100     		.2byte	0x1
 13659 1f11 5B       		.byte	0x5b
 13660 1f12 70050000 		.4byte	.LVL317
 13661 1f16 84050000 		.4byte	.LFE418
 13662 1f1a 0100     		.2byte	0x1
 13663 1f1c 5B       		.byte	0x5b
 13664 1f1d 00000000 		.4byte	0
 13665 1f21 00000000 		.4byte	0
 13666              	.LLST160:
 13667 1f25 44000000 		.4byte	.LVL175
 13668 1f29 E4000000 		.4byte	.LVL178
 13669 1f2d 0100     		.2byte	0x1
 13670 1f2f 54       		.byte	0x54
 13671 1f30 B2020000 		.4byte	.LVL242
 13672 1f34 BE020000 		.4byte	.LVL243
 13673 1f38 0100     		.2byte	0x1
 13674 1f3a 54       		.byte	0x54
 13675 1f3b C0020000 		.4byte	.LVL244
 13676 1f3f F0020000 		.4byte	.LVL245
 13677 1f43 0100     		.2byte	0x1
 13678 1f45 54       		.byte	0x54
 13679 1f46 10030000 		.4byte	.LVL246
 13680 1f4a 1C030000 		.4byte	.LVL248
 13681 1f4e 0100     		.2byte	0x1
 13682 1f50 54       		.byte	0x54
 13683 1f51 1C030000 		.4byte	.LVL248
 13684 1f55 3E030000 		.4byte	.LVL253
 13685 1f59 0500     		.2byte	0x5
 13686 1f5b 03       		.byte	0x3
 13687 1f5c 15010000 		.4byte	m_mavlink_buffer.10573+277
 13688 1f60 3E030000 		.4byte	.LVL253
 13689 1f64 4A030000 		.4byte	.LVL255
 13690 1f68 0100     		.2byte	0x1
 13691 1f6a 54       		.byte	0x54
 13692 1f6b 4A030000 		.4byte	.LVL255
 13693 1f6f 6C030000 		.4byte	.LVL260
 13694 1f73 0500     		.2byte	0x5
 13695 1f75 03       		.byte	0x3
 13696 1f76 14010000 		.4byte	m_mavlink_buffer.10573+276
 13697 1f7a 6C030000 		.4byte	.LVL260
 13698 1f7e 78030000 		.4byte	.LVL262
 13699 1f82 0100     		.2byte	0x1
 13700 1f84 54       		.byte	0x54
ARM GAS  C:\Users\IDONNO~1\AppData\Local\Temp\ccY27Fyg.s 			page 242


 13701 1f85 78030000 		.4byte	.LVL262
 13702 1f89 9A030000 		.4byte	.LVL267
 13703 1f8d 0500     		.2byte	0x5
 13704 1f8f 03       		.byte	0x3
 13705 1f90 16010000 		.4byte	m_mavlink_buffer.10573+278
 13706 1f94 9A030000 		.4byte	.LVL267
 13707 1f98 BC030000 		.4byte	.LVL272
 13708 1f9c 0100     		.2byte	0x1
 13709 1f9e 54       		.byte	0x54
 13710 1f9f BC030000 		.4byte	.LVL272
 13711 1fa3 D0030000 		.4byte	.LVL275
 13712 1fa7 0500     		.2byte	0x5
 13713 1fa9 03       		.byte	0x3
 13714 1faa 17010000 		.4byte	m_mavlink_buffer.10573+279
 13715 1fae D0030000 		.4byte	.LVL275
 13716 1fb2 FE030000 		.4byte	.LVL281
 13717 1fb6 0100     		.2byte	0x1
 13718 1fb8 54       		.byte	0x54
 13719 1fb9 FE030000 		.4byte	.LVL281
 13720 1fbd 02040000 		.4byte	.LVL282
 13721 1fc1 0800     		.2byte	0x8
 13722 1fc3 70       		.byte	0x70
 13723 1fc4 00       		.sleb128 0
 13724 1fc5 7C       		.byte	0x7c
 13725 1fc6 00       		.sleb128 0
 13726 1fc7 22       		.byte	0x22
 13727 1fc8 23       		.byte	0x23
 13728 1fc9 9702     		.uleb128 0x117
 13729 1fcb 02040000 		.4byte	.LVL282
 13730 1fcf 14040000 		.4byte	.LVL284
 13731 1fd3 1000     		.2byte	0x10
 13732 1fd5 03       		.byte	0x3
 13733 1fd6 10000000 		.4byte	m_mavlink_status.10569+16
 13734 1fda 94       		.byte	0x94
 13735 1fdb 01       		.byte	0x1
 13736 1fdc 08       		.byte	0x8
 13737 1fdd FF       		.byte	0xff
 13738 1fde 1A       		.byte	0x1a
 13739 1fdf 70       		.byte	0x70
 13740 1fe0 00       		.sleb128 0
 13741 1fe1 22       		.byte	0x22
 13742 1fe2 23       		.byte	0x23
 13743 1fe3 9802     		.uleb128 0x118
 13744 1fe5 20040000 		.4byte	.LVL285
 13745 1fe9 62040000 		.4byte	.LVL291
 13746 1fed 0100     		.2byte	0x1
 13747 1fef 54       		.byte	0x54
 13748 1ff0 62040000 		.4byte	.LVL291
 13749 1ff4 64040000 		.4byte	.LVL292
 13750 1ff8 0300     		.2byte	0x3
 13751 1ffa 72       		.byte	0x72
 13752 1ffb 9802     		.sleb128 280
 13753 1ffd B6040000 		.4byte	.LVL298
 13754 2001 02050000 		.4byte	.LVL300
 13755 2005 0100     		.2byte	0x1
 13756 2007 54       		.byte	0x54
 13757 2008 20050000 		.4byte	.LVL304
ARM GAS  C:\Users\IDONNO~1\AppData\Local\Temp\ccY27Fyg.s 			page 243


 13758 200c 26050000 		.4byte	.LVL305
 13759 2010 0500     		.2byte	0x5
 13760 2012 03       		.byte	0x3
 13761 2013 17010000 		.4byte	m_mavlink_buffer.10573+279
 13762 2017 26050000 		.4byte	.LVL305
 13763 201b 3C050000 		.4byte	.LVL308
 13764 201f 0100     		.2byte	0x1
 13765 2021 54       		.byte	0x54
 13766 2022 3C050000 		.4byte	.LVL308
 13767 2026 40050000 		.4byte	.LVL309
 13768 202a 0500     		.2byte	0x5
 13769 202c 03       		.byte	0x3
 13770 202d 12010000 		.4byte	m_mavlink_buffer.10573+274
 13771 2031 5C050000 		.4byte	.LVL315
 13772 2035 6A050000 		.4byte	.LVL316
 13773 2039 0100     		.2byte	0x1
 13774 203b 54       		.byte	0x54
 13775 203c 70050000 		.4byte	.LVL317
 13776 2040 84050000 		.4byte	.LFE418
 13777 2044 0100     		.2byte	0x1
 13778 2046 54       		.byte	0x54
 13779 2047 00000000 		.4byte	0
 13780 204b 00000000 		.4byte	0
 13781              	.LLST161:
 13782 204f 44000000 		.4byte	.LVL175
 13783 2053 E4000000 		.4byte	.LVL178
 13784 2057 0200     		.2byte	0x2
 13785 2059 31       		.byte	0x31
 13786 205a 9F       		.byte	0x9f
 13787 205b B2020000 		.4byte	.LVL242
 13788 205f 64040000 		.4byte	.LVL292
 13789 2063 0200     		.2byte	0x2
 13790 2065 31       		.byte	0x31
 13791 2066 9F       		.byte	0x9f
 13792 2067 B6040000 		.4byte	.LVL298
 13793 206b 02050000 		.4byte	.LVL300
 13794 206f 0200     		.2byte	0x2
 13795 2071 31       		.byte	0x31
 13796 2072 9F       		.byte	0x9f
 13797 2073 20050000 		.4byte	.LVL304
 13798 2077 40050000 		.4byte	.LVL309
 13799 207b 0200     		.2byte	0x2
 13800 207d 31       		.byte	0x31
 13801 207e 9F       		.byte	0x9f
 13802 207f 5C050000 		.4byte	.LVL315
 13803 2083 6A050000 		.4byte	.LVL316
 13804 2087 0200     		.2byte	0x2
 13805 2089 31       		.byte	0x31
 13806 208a 9F       		.byte	0x9f
 13807 208b 70050000 		.4byte	.LVL317
 13808 208f 84050000 		.4byte	.LFE418
 13809 2093 0200     		.2byte	0x2
 13810 2095 31       		.byte	0x31
 13811 2096 9F       		.byte	0x9f
 13812 2097 00000000 		.4byte	0
 13813 209b 00000000 		.4byte	0
 13814              	.LLST165:
ARM GAS  C:\Users\IDONNO~1\AppData\Local\Temp\ccY27Fyg.s 			page 244


 13815 209f 44000000 		.4byte	.LVL175
 13816 20a3 E4000000 		.4byte	.LVL178
 13817 20a7 0600     		.2byte	0x6
 13818 20a9 03       		.byte	0x3
 13819 20aa 0C000000 		.4byte	m_mavlink_status.10569+12
 13820 20ae 9F       		.byte	0x9f
 13821 20af B2020000 		.4byte	.LVL242
 13822 20b3 64040000 		.4byte	.LVL292
 13823 20b7 0600     		.2byte	0x6
 13824 20b9 03       		.byte	0x3
 13825 20ba 0C000000 		.4byte	m_mavlink_status.10569+12
 13826 20be 9F       		.byte	0x9f
 13827 20bf B6040000 		.4byte	.LVL298
 13828 20c3 02050000 		.4byte	.LVL300
 13829 20c7 0600     		.2byte	0x6
 13830 20c9 03       		.byte	0x3
 13831 20ca 0C000000 		.4byte	m_mavlink_status.10569+12
 13832 20ce 9F       		.byte	0x9f
 13833 20cf 20050000 		.4byte	.LVL304
 13834 20d3 40050000 		.4byte	.LVL309
 13835 20d7 0600     		.2byte	0x6
 13836 20d9 03       		.byte	0x3
 13837 20da 0C000000 		.4byte	m_mavlink_status.10569+12
 13838 20de 9F       		.byte	0x9f
 13839 20df 5C050000 		.4byte	.LVL315
 13840 20e3 6A050000 		.4byte	.LVL316
 13841 20e7 0600     		.2byte	0x6
 13842 20e9 03       		.byte	0x3
 13843 20ea 0C000000 		.4byte	m_mavlink_status.10569+12
 13844 20ee 9F       		.byte	0x9f
 13845 20ef 70050000 		.4byte	.LVL317
 13846 20f3 84050000 		.4byte	.LFE418
 13847 20f7 0600     		.2byte	0x6
 13848 20f9 03       		.byte	0x3
 13849 20fa 0C000000 		.4byte	m_mavlink_status.10569+12
 13850 20fe 9F       		.byte	0x9f
 13851 20ff 00000000 		.4byte	0
 13852 2103 00000000 		.4byte	0
 13853              	.LLST166:
 13854 2107 44000000 		.4byte	.LVL175
 13855 210b E4000000 		.4byte	.LVL178
 13856 210f 0600     		.2byte	0x6
 13857 2111 03       		.byte	0x3
 13858 2112 10010000 		.4byte	m_mavlink_buffer.10573+272
 13859 2116 9F       		.byte	0x9f
 13860 2117 B2020000 		.4byte	.LVL242
 13861 211b 64040000 		.4byte	.LVL292
 13862 211f 0600     		.2byte	0x6
 13863 2121 03       		.byte	0x3
 13864 2122 10010000 		.4byte	m_mavlink_buffer.10573+272
 13865 2126 9F       		.byte	0x9f
 13866 2127 B6040000 		.4byte	.LVL298
 13867 212b 02050000 		.4byte	.LVL300
 13868 212f 0600     		.2byte	0x6
 13869 2131 03       		.byte	0x3
 13870 2132 10010000 		.4byte	m_mavlink_buffer.10573+272
 13871 2136 9F       		.byte	0x9f
ARM GAS  C:\Users\IDONNO~1\AppData\Local\Temp\ccY27Fyg.s 			page 245


 13872 2137 20050000 		.4byte	.LVL304
 13873 213b 40050000 		.4byte	.LVL309
 13874 213f 0600     		.2byte	0x6
 13875 2141 03       		.byte	0x3
 13876 2142 10010000 		.4byte	m_mavlink_buffer.10573+272
 13877 2146 9F       		.byte	0x9f
 13878 2147 5C050000 		.4byte	.LVL315
 13879 214b 6A050000 		.4byte	.LVL316
 13880 214f 0600     		.2byte	0x6
 13881 2151 03       		.byte	0x3
 13882 2152 10010000 		.4byte	m_mavlink_buffer.10573+272
 13883 2156 9F       		.byte	0x9f
 13884 2157 70050000 		.4byte	.LVL317
 13885 215b 84050000 		.4byte	.LFE418
 13886 215f 0600     		.2byte	0x6
 13887 2161 03       		.byte	0x3
 13888 2162 10010000 		.4byte	m_mavlink_buffer.10573+272
 13889 2166 9F       		.byte	0x9f
 13890 2167 00000000 		.4byte	0
 13891 216b 00000000 		.4byte	0
 13892              	.LLST167:
 13893 216f 44000000 		.4byte	.LVL175
 13894 2173 AC000000 		.4byte	.LVL177
 13895 2177 0200     		.2byte	0x2
 13896 2179 30       		.byte	0x30
 13897 217a 9F       		.byte	0x9f
 13898 217b AC000000 		.4byte	.LVL177
 13899 217f EE000000 		.4byte	.LVL180
 13900 2183 0200     		.2byte	0x2
 13901 2185 31       		.byte	0x31
 13902 2186 9F       		.byte	0x9f
 13903 2187 B2020000 		.4byte	.LVL242
 13904 218b F0020000 		.4byte	.LVL245
 13905 218f 0200     		.2byte	0x2
 13906 2191 30       		.byte	0x30
 13907 2192 9F       		.byte	0x9f
 13908 2193 F0020000 		.4byte	.LVL245
 13909 2197 10030000 		.4byte	.LVL246
 13910 219b 0200     		.2byte	0x2
 13911 219d 31       		.byte	0x31
 13912 219e 9F       		.byte	0x9f
 13913 219f 10030000 		.4byte	.LVL246
 13914 21a3 64040000 		.4byte	.LVL292
 13915 21a7 0200     		.2byte	0x2
 13916 21a9 30       		.byte	0x30
 13917 21aa 9F       		.byte	0x9f
 13918 21ab B6040000 		.4byte	.LVL298
 13919 21af BE040000 		.4byte	.LVL299
 13920 21b3 0200     		.2byte	0x2
 13921 21b5 30       		.byte	0x30
 13922 21b6 9F       		.byte	0x9f
 13923 21b7 BE040000 		.4byte	.LVL299
 13924 21bb 1A050000 		.4byte	.LVL303
 13925 21bf 0200     		.2byte	0x2
 13926 21c1 31       		.byte	0x31
 13927 21c2 9F       		.byte	0x9f
 13928 21c3 20050000 		.4byte	.LVL304
ARM GAS  C:\Users\IDONNO~1\AppData\Local\Temp\ccY27Fyg.s 			page 246


 13929 21c7 40050000 		.4byte	.LVL309
 13930 21cb 0200     		.2byte	0x2
 13931 21cd 30       		.byte	0x30
 13932 21ce 9F       		.byte	0x9f
 13933 21cf 5C050000 		.4byte	.LVL315
 13934 21d3 6A050000 		.4byte	.LVL316
 13935 21d7 0200     		.2byte	0x2
 13936 21d9 30       		.byte	0x30
 13937 21da 9F       		.byte	0x9f
 13938 21db 70050000 		.4byte	.LVL317
 13939 21df 84050000 		.4byte	.LFE418
 13940 21e3 0200     		.2byte	0x2
 13941 21e5 31       		.byte	0x31
 13942 21e6 9F       		.byte	0x9f
 13943 21e7 00000000 		.4byte	0
 13944 21eb 00000000 		.4byte	0
 13945              	.LLST168:
 13946 21ef 1A030000 		.4byte	.LVL247
 13947 21f3 36030000 		.4byte	.LVL252
 13948 21f7 0500     		.2byte	0x5
 13949 21f9 03       		.byte	0x3
 13950 21fa 15010000 		.4byte	m_mavlink_buffer.10573+277
 13951 21fe 00000000 		.4byte	0
 13952 2202 00000000 		.4byte	0
 13953              	.LLST169:
 13954 2206 1A030000 		.4byte	.LVL247
 13955 220a 36030000 		.4byte	.LVL252
 13956 220e 0600     		.2byte	0x6
 13957 2210 03       		.byte	0x3
 13958 2211 10010000 		.4byte	m_mavlink_buffer.10573+272
 13959 2215 9F       		.byte	0x9f
 13960 2216 00000000 		.4byte	0
 13961 221a 00000000 		.4byte	0
 13962              	.LLST172:
 13963 221e 1C030000 		.4byte	.LVL248
 13964 2222 20030000 		.4byte	.LVL249
 13965 2226 0100     		.2byte	0x1
 13966 2228 54       		.byte	0x54
 13967 2229 22030000 		.4byte	.LVL250
 13968 222d 30030000 		.4byte	.LVL251
 13969 2231 0100     		.2byte	0x1
 13970 2233 54       		.byte	0x54
 13971 2234 00000000 		.4byte	0
 13972 2238 00000000 		.4byte	0
 13973              	.LLST173:
 13974 223c 48030000 		.4byte	.LVL254
 13975 2240 64030000 		.4byte	.LVL259
 13976 2244 0500     		.2byte	0x5
 13977 2246 03       		.byte	0x3
 13978 2247 14010000 		.4byte	m_mavlink_buffer.10573+276
 13979 224b 00000000 		.4byte	0
 13980 224f 00000000 		.4byte	0
 13981              	.LLST174:
 13982 2253 48030000 		.4byte	.LVL254
 13983 2257 64030000 		.4byte	.LVL259
 13984 225b 0600     		.2byte	0x6
 13985 225d 03       		.byte	0x3
ARM GAS  C:\Users\IDONNO~1\AppData\Local\Temp\ccY27Fyg.s 			page 247


 13986 225e 10010000 		.4byte	m_mavlink_buffer.10573+272
 13987 2262 9F       		.byte	0x9f
 13988 2263 00000000 		.4byte	0
 13989 2267 00000000 		.4byte	0
 13990              	.LLST177:
 13991 226b 4A030000 		.4byte	.LVL255
 13992 226f 4E030000 		.4byte	.LVL256
 13993 2273 0100     		.2byte	0x1
 13994 2275 54       		.byte	0x54
 13995 2276 50030000 		.4byte	.LVL257
 13996 227a 5E030000 		.4byte	.LVL258
 13997 227e 0100     		.2byte	0x1
 13998 2280 54       		.byte	0x54
 13999 2281 00000000 		.4byte	0
 14000 2285 00000000 		.4byte	0
 14001              	.LLST178:
 14002 2289 76030000 		.4byte	.LVL261
 14003 228d 92030000 		.4byte	.LVL266
 14004 2291 0500     		.2byte	0x5
 14005 2293 03       		.byte	0x3
 14006 2294 16010000 		.4byte	m_mavlink_buffer.10573+278
 14007 2298 00000000 		.4byte	0
 14008 229c 00000000 		.4byte	0
 14009              	.LLST179:
 14010 22a0 76030000 		.4byte	.LVL261
 14011 22a4 92030000 		.4byte	.LVL266
 14012 22a8 0600     		.2byte	0x6
 14013 22aa 03       		.byte	0x3
 14014 22ab 10010000 		.4byte	m_mavlink_buffer.10573+272
 14015 22af 9F       		.byte	0x9f
 14016 22b0 00000000 		.4byte	0
 14017 22b4 00000000 		.4byte	0
 14018              	.LLST182:
 14019 22b8 78030000 		.4byte	.LVL262
 14020 22bc 7C030000 		.4byte	.LVL263
 14021 22c0 0100     		.2byte	0x1
 14022 22c2 54       		.byte	0x54
 14023 22c3 7E030000 		.4byte	.LVL264
 14024 22c7 8C030000 		.4byte	.LVL265
 14025 22cb 0100     		.2byte	0x1
 14026 22cd 54       		.byte	0x54
 14027 22ce 00000000 		.4byte	0
 14028 22d2 00000000 		.4byte	0
 14029              	.LLST183:
 14030 22d6 A4030000 		.4byte	.LVL268
 14031 22da C4030000 		.4byte	.LVL274
 14032 22de 0500     		.2byte	0x5
 14033 22e0 03       		.byte	0x3
 14034 22e1 17010000 		.4byte	m_mavlink_buffer.10573+279
 14035 22e5 00000000 		.4byte	0
 14036 22e9 00000000 		.4byte	0
 14037              	.LLST184:
 14038 22ed A4030000 		.4byte	.LVL268
 14039 22f1 C4030000 		.4byte	.LVL274
 14040 22f5 0600     		.2byte	0x6
 14041 22f7 03       		.byte	0x3
 14042 22f8 10010000 		.4byte	m_mavlink_buffer.10573+272
ARM GAS  C:\Users\IDONNO~1\AppData\Local\Temp\ccY27Fyg.s 			page 248


 14043 22fc 9F       		.byte	0x9f
 14044 22fd 00000000 		.4byte	0
 14045 2301 00000000 		.4byte	0
 14046              	.LLST187:
 14047 2305 A8030000 		.4byte	.LVL269
 14048 2309 AC030000 		.4byte	.LVL270
 14049 230d 0100     		.2byte	0x1
 14050 230f 52       		.byte	0x52
 14051 2310 AC030000 		.4byte	.LVL270
 14052 2314 AE030000 		.4byte	.LVL271
 14053 2318 0600     		.2byte	0x6
 14054 231a 74       		.byte	0x74
 14055 231b 00       		.sleb128 0
 14056 231c 7E       		.byte	0x7e
 14057 231d 00       		.sleb128 0
 14058 231e 27       		.byte	0x27
 14059 231f 9F       		.byte	0x9f
 14060 2320 AE030000 		.4byte	.LVL271
 14061 2324 C0030000 		.4byte	.LVL273
 14062 2328 0100     		.2byte	0x1
 14063 232a 52       		.byte	0x52
 14064 232b 00000000 		.4byte	0
 14065 232f 00000000 		.4byte	0
 14066              	.LLST188:
 14067 2333 E6030000 		.4byte	.LVL276
 14068 2337 EE030000 		.4byte	.LVL278
 14069 233b 0300     		.2byte	0x3
 14070 233d 72       		.byte	0x72
 14071 233e 9802     		.sleb128 280
 14072 2340 EE030000 		.4byte	.LVL278
 14073 2344 02040000 		.4byte	.LVL282
 14074 2348 0800     		.2byte	0x8
 14075 234a 70       		.byte	0x70
 14076 234b 00       		.sleb128 0
 14077 234c 7C       		.byte	0x7c
 14078 234d 00       		.sleb128 0
 14079 234e 22       		.byte	0x22
 14080 234f 23       		.byte	0x23
 14081 2350 9702     		.uleb128 0x117
 14082 2352 02040000 		.4byte	.LVL282
 14083 2356 14040000 		.4byte	.LVL284
 14084 235a 1000     		.2byte	0x10
 14085 235c 03       		.byte	0x3
 14086 235d 10000000 		.4byte	m_mavlink_status.10569+16
 14087 2361 94       		.byte	0x94
 14088 2362 01       		.byte	0x1
 14089 2363 08       		.byte	0x8
 14090 2364 FF       		.byte	0xff
 14091 2365 1A       		.byte	0x1a
 14092 2366 70       		.byte	0x70
 14093 2367 00       		.sleb128 0
 14094 2368 22       		.byte	0x22
 14095 2369 23       		.byte	0x23
 14096 236a 9802     		.uleb128 0x118
 14097 236c 00000000 		.4byte	0
 14098 2370 00000000 		.4byte	0
 14099              	.LLST189:
ARM GAS  C:\Users\IDONNO~1\AppData\Local\Temp\ccY27Fyg.s 			page 249


 14100 2374 E6030000 		.4byte	.LVL276
 14101 2378 14040000 		.4byte	.LVL284
 14102 237c 0600     		.2byte	0x6
 14103 237e 03       		.byte	0x3
 14104 237f 10010000 		.4byte	m_mavlink_buffer.10573+272
 14105 2383 9F       		.byte	0x9f
 14106 2384 00000000 		.4byte	0
 14107 2388 00000000 		.4byte	0
 14108              	.LLST192:
 14109 238c EE030000 		.4byte	.LVL278
 14110 2390 F2030000 		.4byte	.LVL279
 14111 2394 0100     		.2byte	0x1
 14112 2396 52       		.byte	0x52
 14113 2397 F2030000 		.4byte	.LVL279
 14114 239b F4030000 		.4byte	.LVL280
 14115 239f 0600     		.2byte	0x6
 14116 23a1 74       		.byte	0x74
 14117 23a2 00       		.sleb128 0
 14118 23a3 78       		.byte	0x78
 14119 23a4 00       		.sleb128 0
 14120 23a5 27       		.byte	0x27
 14121 23a6 9F       		.byte	0x9f
 14122 23a7 F4030000 		.4byte	.LVL280
 14123 23ab 0A040000 		.4byte	.LVL283
 14124 23af 0100     		.2byte	0x1
 14125 23b1 52       		.byte	0x52
 14126 23b2 00000000 		.4byte	0
 14127 23b6 00000000 		.4byte	0
 14128              	.LLST193:
 14129 23ba 20040000 		.4byte	.LVL285
 14130 23be 4E040000 		.4byte	.LVL290
 14131 23c2 1000     		.2byte	0x10
 14132 23c4 03       		.byte	0x3
 14133 23c5 17010000 		.4byte	m_mavlink_buffer.10573+279
 14134 23c9 94       		.byte	0x94
 14135 23ca 01       		.byte	0x1
 14136 23cb 08       		.byte	0x8
 14137 23cc FF       		.byte	0xff
 14138 23cd 1A       		.byte	0x1a
 14139 23ce 03       		.byte	0x3
 14140 23cf 00000000 		.4byte	mavlink_message_crcs.10621
 14141 23d3 22       		.byte	0x22
 14142 23d4 00000000 		.4byte	0
 14143 23d8 00000000 		.4byte	0
 14144              	.LLST194:
 14145 23dc 20040000 		.4byte	.LVL285
 14146 23e0 4E040000 		.4byte	.LVL290
 14147 23e4 0600     		.2byte	0x6
 14148 23e6 03       		.byte	0x3
 14149 23e7 10010000 		.4byte	m_mavlink_buffer.10573+272
 14150 23eb 9F       		.byte	0x9f
 14151 23ec 00000000 		.4byte	0
 14152 23f0 00000000 		.4byte	0
 14153              	.LLST197:
 14154 23f4 32040000 		.4byte	.LVL286
 14155 23f8 36040000 		.4byte	.LVL287
 14156 23fc 0100     		.2byte	0x1
ARM GAS  C:\Users\IDONNO~1\AppData\Local\Temp\ccY27Fyg.s 			page 250


 14157 23fe 52       		.byte	0x52
 14158 23ff 36040000 		.4byte	.LVL287
 14159 2403 38040000 		.4byte	.LVL288
 14160 2407 1600     		.2byte	0x16
 14161 2409 03       		.byte	0x3
 14162 240a 17010000 		.4byte	m_mavlink_buffer.10573+279
 14163 240e 94       		.byte	0x94
 14164 240f 01       		.byte	0x1
 14165 2410 08       		.byte	0x8
 14166 2411 FF       		.byte	0xff
 14167 2412 1A       		.byte	0x1a
 14168 2413 71       		.byte	0x71
 14169 2414 00       		.sleb128 0
 14170 2415 22       		.byte	0x22
 14171 2416 94       		.byte	0x94
 14172 2417 01       		.byte	0x1
 14173 2418 08       		.byte	0x8
 14174 2419 FF       		.byte	0xff
 14175 241a 1A       		.byte	0x1a
 14176 241b 70       		.byte	0x70
 14177 241c 00       		.sleb128 0
 14178 241d 27       		.byte	0x27
 14179 241e 9F       		.byte	0x9f
 14180 241f 38040000 		.4byte	.LVL288
 14181 2423 46040000 		.4byte	.LVL289
 14182 2427 0100     		.2byte	0x1
 14183 2429 52       		.byte	0x52
 14184 242a 46040000 		.4byte	.LVL289
 14185 242e 4E040000 		.4byte	.LVL290
 14186 2432 3400     		.2byte	0x34
 14187 2434 03       		.byte	0x3
 14188 2435 17010000 		.4byte	m_mavlink_buffer.10573+279
 14189 2439 94       		.byte	0x94
 14190 243a 01       		.byte	0x1
 14191 243b 08       		.byte	0x8
 14192 243c FF       		.byte	0xff
 14193 243d 1A       		.byte	0x1a
 14194 243e 03       		.byte	0x3
 14195 243f 00000000 		.4byte	.LANCHOR5
 14196 2443 22       		.byte	0x22
 14197 2444 94       		.byte	0x94
 14198 2445 01       		.byte	0x1
 14199 2446 08       		.byte	0x8
 14200 2447 FF       		.byte	0xff
 14201 2448 1A       		.byte	0x1a
 14202 2449 70       		.byte	0x70
 14203 244a 00       		.sleb128 0
 14204 244b 27       		.byte	0x27
 14205 244c 34       		.byte	0x34
 14206 244d 24       		.byte	0x24
 14207 244e 03       		.byte	0x3
 14208 244f 17010000 		.4byte	m_mavlink_buffer.10573+279
 14209 2453 94       		.byte	0x94
 14210 2454 01       		.byte	0x1
 14211 2455 08       		.byte	0x8
 14212 2456 FF       		.byte	0xff
 14213 2457 1A       		.byte	0x1a
ARM GAS  C:\Users\IDONNO~1\AppData\Local\Temp\ccY27Fyg.s 			page 251


 14214 2458 03       		.byte	0x3
 14215 2459 00000000 		.4byte	.LANCHOR5
 14216 245d 22       		.byte	0x22
 14217 245e 94       		.byte	0x94
 14218 245f 01       		.byte	0x1
 14219 2460 08       		.byte	0x8
 14220 2461 FF       		.byte	0xff
 14221 2462 1A       		.byte	0x1a
 14222 2463 27       		.byte	0x27
 14223 2464 70       		.byte	0x70
 14224 2465 00       		.sleb128 0
 14225 2466 27       		.byte	0x27
 14226 2467 9F       		.byte	0x9f
 14227 2468 00000000 		.4byte	0
 14228 246c 00000000 		.4byte	0
 14229              	.LLST198:
 14230 2470 32050000 		.4byte	.LVL306
 14231 2474 40050000 		.4byte	.LVL309
 14232 2478 0600     		.2byte	0x6
 14233 247a 03       		.byte	0x3
 14234 247b 10010000 		.4byte	m_mavlink_buffer.10573+272
 14235 247f 9F       		.byte	0x9f
 14236 2480 00000000 		.4byte	0
 14237 2484 00000000 		.4byte	0
 14238              	.LLST199:
 14239 2488 32050000 		.4byte	.LVL306
 14240 248c 36050000 		.4byte	.LVL307
 14241 2490 0600     		.2byte	0x6
 14242 2492 03       		.byte	0x3
 14243 2493 10010000 		.4byte	m_mavlink_buffer.10573+272
 14244 2497 9F       		.byte	0x9f
 14245 2498 00000000 		.4byte	0
 14246 249c 00000000 		.4byte	0
 14247              	.LLST200:
 14248 24a0 14050000 		.4byte	.LVL301
 14249 24a4 1A050000 		.4byte	.LVL303
 14250 24a8 0600     		.2byte	0x6
 14251 24aa 03       		.byte	0x3
 14252 24ab 10010000 		.4byte	m_mavlink_buffer.10573+272
 14253 24af 9F       		.byte	0x9f
 14254 24b0 00000000 		.4byte	0
 14255 24b4 00000000 		.4byte	0
 14256              	.LLST201:
 14257 24b8 14050000 		.4byte	.LVL301
 14258 24bc 18050000 		.4byte	.LVL302
 14259 24c0 0600     		.2byte	0x6
 14260 24c2 03       		.byte	0x3
 14261 24c3 10010000 		.4byte	m_mavlink_buffer.10573+272
 14262 24c7 9F       		.byte	0x9f
 14263 24c8 00000000 		.4byte	0
 14264 24cc 00000000 		.4byte	0
 14265              	.LLST202:
 14266 24d0 00000000 		.4byte	.LVL318
 14267 24d4 1A000000 		.4byte	.LVL319
 14268 24d8 0100     		.2byte	0x1
 14269 24da 50       		.byte	0x50
 14270 24db 1A000000 		.4byte	.LVL319
ARM GAS  C:\Users\IDONNO~1\AppData\Local\Temp\ccY27Fyg.s 			page 252


 14271 24df 1F000000 		.4byte	.LVL320-1
 14272 24e3 0100     		.2byte	0x1
 14273 24e5 52       		.byte	0x52
 14274 24e6 1F000000 		.4byte	.LVL320-1
 14275 24ea 20000000 		.4byte	.LVL320
 14276 24ee 0400     		.2byte	0x4
 14277 24f0 F3       		.byte	0xf3
 14278 24f1 01       		.uleb128 0x1
 14279 24f2 50       		.byte	0x50
 14280 24f3 9F       		.byte	0x9f
 14281 24f4 20000000 		.4byte	.LVL320
 14282 24f8 2F000000 		.4byte	.LVL321-1
 14283 24fc 0100     		.2byte	0x1
 14284 24fe 50       		.byte	0x50
 14285 24ff 2F000000 		.4byte	.LVL321-1
 14286 2503 30000000 		.4byte	.LVL321
 14287 2507 0400     		.2byte	0x4
 14288 2509 F3       		.byte	0xf3
 14289 250a 01       		.uleb128 0x1
 14290 250b 50       		.byte	0x50
 14291 250c 9F       		.byte	0x9f
 14292 250d 30000000 		.4byte	.LVL321
 14293 2511 33000000 		.4byte	.LVL322-1
 14294 2515 0100     		.2byte	0x1
 14295 2517 50       		.byte	0x50
 14296 2518 33000000 		.4byte	.LVL322-1
 14297 251c 34000000 		.4byte	.LVL322
 14298 2520 0400     		.2byte	0x4
 14299 2522 F3       		.byte	0xf3
 14300 2523 01       		.uleb128 0x1
 14301 2524 50       		.byte	0x50
 14302 2525 9F       		.byte	0x9f
 14303 2526 34000000 		.4byte	.LVL322
 14304 252a 37000000 		.4byte	.LVL323-1
 14305 252e 0100     		.2byte	0x1
 14306 2530 50       		.byte	0x50
 14307 2531 37000000 		.4byte	.LVL323-1
 14308 2535 38000000 		.4byte	.LVL323
 14309 2539 0400     		.2byte	0x4
 14310 253b F3       		.byte	0xf3
 14311 253c 01       		.uleb128 0x1
 14312 253d 50       		.byte	0x50
 14313 253e 9F       		.byte	0x9f
 14314 253f 38000000 		.4byte	.LVL323
 14315 2543 3B000000 		.4byte	.LVL324-1
 14316 2547 0100     		.2byte	0x1
 14317 2549 50       		.byte	0x50
 14318 254a 3B000000 		.4byte	.LVL324-1
 14319 254e 3C000000 		.4byte	.LVL324
 14320 2552 0400     		.2byte	0x4
 14321 2554 F3       		.byte	0xf3
 14322 2555 01       		.uleb128 0x1
 14323 2556 50       		.byte	0x50
 14324 2557 9F       		.byte	0x9f
 14325 2558 3C000000 		.4byte	.LVL324
 14326 255c 3F000000 		.4byte	.LVL325-1
 14327 2560 0100     		.2byte	0x1
ARM GAS  C:\Users\IDONNO~1\AppData\Local\Temp\ccY27Fyg.s 			page 253


 14328 2562 50       		.byte	0x50
 14329 2563 3F000000 		.4byte	.LVL325-1
 14330 2567 40000000 		.4byte	.LVL325
 14331 256b 0400     		.2byte	0x4
 14332 256d F3       		.byte	0xf3
 14333 256e 01       		.uleb128 0x1
 14334 256f 50       		.byte	0x50
 14335 2570 9F       		.byte	0x9f
 14336 2571 40000000 		.4byte	.LVL325
 14337 2575 43000000 		.4byte	.LVL326-1
 14338 2579 0100     		.2byte	0x1
 14339 257b 50       		.byte	0x50
 14340 257c 43000000 		.4byte	.LVL326-1
 14341 2580 44000000 		.4byte	.LVL326
 14342 2584 0400     		.2byte	0x4
 14343 2586 F3       		.byte	0xf3
 14344 2587 01       		.uleb128 0x1
 14345 2588 50       		.byte	0x50
 14346 2589 9F       		.byte	0x9f
 14347 258a 44000000 		.4byte	.LVL326
 14348 258e 47000000 		.4byte	.LVL327-1
 14349 2592 0100     		.2byte	0x1
 14350 2594 50       		.byte	0x50
 14351 2595 47000000 		.4byte	.LVL327-1
 14352 2599 48000000 		.4byte	.LFE419
 14353 259d 0400     		.2byte	0x4
 14354 259f F3       		.byte	0xf3
 14355 25a0 01       		.uleb128 0x1
 14356 25a1 50       		.byte	0x50
 14357 25a2 9F       		.byte	0x9f
 14358 25a3 00000000 		.4byte	0
 14359 25a7 00000000 		.4byte	0
 14360              		.section	.debug_aranges,"",%progbits
 14361 0000 7C000000 		.4byte	0x7c
 14362 0004 0200     		.2byte	0x2
 14363 0006 00000000 		.4byte	.Ldebug_info0
 14364 000a 04       		.byte	0x4
 14365 000b 00       		.byte	0
 14366 000c 0000     		.2byte	0
 14367 000e 0000     		.2byte	0
 14368 0010 00000000 		.4byte	.LFB417
 14369 0014 36000000 		.4byte	.LFE417-.LFB417
 14370 0018 00000000 		.4byte	.LFB407
 14371 001c 04010000 		.4byte	.LFE407-.LFB407
 14372 0020 00000000 		.4byte	.LFB408
 14373 0024 20000000 		.4byte	.LFE408-.LFB408
 14374 0028 00000000 		.4byte	.LFB409
 14375 002c 8C000000 		.4byte	.LFE409-.LFB409
 14376 0030 00000000 		.4byte	.LFB410
 14377 0034 78000000 		.4byte	.LFE410-.LFB410
 14378 0038 00000000 		.4byte	.LFB412
 14379 003c 60000000 		.4byte	.LFE412-.LFB412
 14380 0040 00000000 		.4byte	.LFB413
 14381 0044 5A000000 		.4byte	.LFE413-.LFB413
 14382 0048 00000000 		.4byte	.LFB414
 14383 004c 92010000 		.4byte	.LFE414-.LFB414
 14384 0050 00000000 		.4byte	.LFB415
ARM GAS  C:\Users\IDONNO~1\AppData\Local\Temp\ccY27Fyg.s 			page 254


 14385 0054 4C000000 		.4byte	.LFE415-.LFB415
 14386 0058 00000000 		.4byte	.LFB416
 14387 005c F0000000 		.4byte	.LFE416-.LFB416
 14388 0060 00000000 		.4byte	.LFB411
 14389 0064 94000000 		.4byte	.LFE411-.LFB411
 14390 0068 00000000 		.4byte	.LFB418
 14391 006c 84050000 		.4byte	.LFE418-.LFB418
 14392 0070 00000000 		.4byte	.LFB419
 14393 0074 48000000 		.4byte	.LFE419-.LFB419
 14394 0078 00000000 		.4byte	0
 14395 007c 00000000 		.4byte	0
 14396              		.section	.debug_ranges,"",%progbits
 14397              	.Ldebug_ranges0:
 14398 0000 02000000 		.4byte	.LBB116
 14399 0004 04000000 		.4byte	.LBE116
 14400 0008 08000000 		.4byte	.LBB121
 14401 000c 0A000000 		.4byte	.LBE121
 14402 0010 0C000000 		.4byte	.LBB122
 14403 0014 0E000000 		.4byte	.LBE122
 14404 0018 10000000 		.4byte	.LBB123
 14405 001c 24000000 		.4byte	.LBE123
 14406 0020 00000000 		.4byte	0
 14407 0024 00000000 		.4byte	0
 14408 0028 02000000 		.4byte	.LBB145
 14409 002c 04000000 		.4byte	.LBE145
 14410 0030 06000000 		.4byte	.LBB193
 14411 0034 0A000000 		.4byte	.LBE193
 14412 0038 0C000000 		.4byte	.LBB194
 14413 003c 0E000000 		.4byte	.LBE194
 14414 0040 12000000 		.4byte	.LBB195
 14415 0044 16000000 		.4byte	.LBE195
 14416 0048 1A000000 		.4byte	.LBB196
 14417 004c 1E000000 		.4byte	.LBE196
 14418 0050 26000000 		.4byte	.LBB197
 14419 0054 E4000000 		.4byte	.LBE197
 14420 0058 E8000000 		.4byte	.LBB198
 14421 005c F6000000 		.4byte	.LBE198
 14422 0060 00000000 		.4byte	0
 14423 0064 00000000 		.4byte	0
 14424 0068 02000000 		.4byte	.LBB147
 14425 006c 04000000 		.4byte	.LBE147
 14426 0070 06000000 		.4byte	.LBB153
 14427 0074 0A000000 		.4byte	.LBE153
 14428 0078 0C000000 		.4byte	.LBB154
 14429 007c 0E000000 		.4byte	.LBE154
 14430 0080 12000000 		.4byte	.LBB155
 14431 0084 16000000 		.4byte	.LBE155
 14432 0088 1A000000 		.4byte	.LBB156
 14433 008c 1E000000 		.4byte	.LBE156
 14434 0090 00000000 		.4byte	0
 14435 0094 00000000 		.4byte	0
 14436 0098 36000000 		.4byte	.LBB157
 14437 009c 38000000 		.4byte	.LBE157
 14438 00a0 3E000000 		.4byte	.LBB182
 14439 00a4 46000000 		.4byte	.LBE182
 14440 00a8 48000000 		.4byte	.LBB183
 14441 00ac 54000000 		.4byte	.LBE183
ARM GAS  C:\Users\IDONNO~1\AppData\Local\Temp\ccY27Fyg.s 			page 255


 14442 00b0 56000000 		.4byte	.LBB184
 14443 00b4 60000000 		.4byte	.LBE184
 14444 00b8 64000000 		.4byte	.LBB185
 14445 00bc E4000000 		.4byte	.LBE185
 14446 00c0 E8000000 		.4byte	.LBB186
 14447 00c4 F6000000 		.4byte	.LBE186
 14448 00c8 00000000 		.4byte	0
 14449 00cc 00000000 		.4byte	0
 14450 00d0 80000000 		.4byte	.LBB163
 14451 00d4 92000000 		.4byte	.LBE163
 14452 00d8 94000000 		.4byte	.LBB166
 14453 00dc 98000000 		.4byte	.LBE166
 14454 00e0 00000000 		.4byte	0
 14455 00e4 00000000 		.4byte	0
 14456 00e8 A2000000 		.4byte	.LBB169
 14457 00ec C0000000 		.4byte	.LBE169
 14458 00f0 C2000000 		.4byte	.LBB172
 14459 00f4 C6000000 		.4byte	.LBE172
 14460 00f8 00000000 		.4byte	0
 14461 00fc 00000000 		.4byte	0
 14462 0100 C8000000 		.4byte	.LBB173
 14463 0104 E4000000 		.4byte	.LBE173
 14464 0108 EE000000 		.4byte	.LBB176
 14465 010c F2000000 		.4byte	.LBE176
 14466 0110 00000000 		.4byte	0
 14467 0114 00000000 		.4byte	0
 14468 0118 04000000 		.4byte	.LBB205
 14469 011c 06000000 		.4byte	.LBE205
 14470 0120 08000000 		.4byte	.LBB209
 14471 0124 12000000 		.4byte	.LBE209
 14472 0128 14000000 		.4byte	.LBB210
 14473 012c 26000000 		.4byte	.LBE210
 14474 0130 00000000 		.4byte	0
 14475 0134 00000000 		.4byte	0
 14476 0138 04000000 		.4byte	.LBB217
 14477 013c 06000000 		.4byte	.LBE217
 14478 0140 08000000 		.4byte	.LBB221
 14479 0144 12000000 		.4byte	.LBE221
 14480 0148 14000000 		.4byte	.LBB222
 14481 014c 26000000 		.4byte	.LBE222
 14482 0150 00000000 		.4byte	0
 14483 0154 00000000 		.4byte	0
 14484 0158 04000000 		.4byte	.LBB231
 14485 015c 06000000 		.4byte	.LBE231
 14486 0160 08000000 		.4byte	.LBB235
 14487 0164 10000000 		.4byte	.LBE235
 14488 0168 12000000 		.4byte	.LBB236
 14489 016c 24000000 		.4byte	.LBE236
 14490 0170 00000000 		.4byte	0
 14491 0174 00000000 		.4byte	0
 14492 0178 04000000 		.4byte	.LBB239
 14493 017c 06000000 		.4byte	.LBE239
 14494 0180 08000000 		.4byte	.LBB243
 14495 0184 12000000 		.4byte	.LBE243
 14496 0188 14000000 		.4byte	.LBB244
 14497 018c 26000000 		.4byte	.LBE244
 14498 0190 00000000 		.4byte	0
ARM GAS  C:\Users\IDONNO~1\AppData\Local\Temp\ccY27Fyg.s 			page 256


 14499 0194 00000000 		.4byte	0
 14500 0198 04000000 		.4byte	.LBB249
 14501 019c 06000000 		.4byte	.LBE249
 14502 01a0 08000000 		.4byte	.LBB253
 14503 01a4 12000000 		.4byte	.LBE253
 14504 01a8 14000000 		.4byte	.LBB254
 14505 01ac 26000000 		.4byte	.LBE254
 14506 01b0 00000000 		.4byte	0
 14507 01b4 00000000 		.4byte	0
 14508 01b8 06000000 		.4byte	.LBB278
 14509 01bc 08000000 		.4byte	.LBE278
 14510 01c0 0A000000 		.4byte	.LBB315
 14511 01c4 C8000000 		.4byte	.LBE315
 14512 01c8 CC000000 		.4byte	.LBB316
 14513 01cc DA000000 		.4byte	.LBE316
 14514 01d0 E4000000 		.4byte	.LBB317
 14515 01d4 F0000000 		.4byte	.LBE317
 14516 01d8 00000000 		.4byte	0
 14517 01dc 00000000 		.4byte	0
 14518 01e0 06000000 		.4byte	.LBB280
 14519 01e4 08000000 		.4byte	.LBE280
 14520 01e8 0A000000 		.4byte	.LBB284
 14521 01ec 16000000 		.4byte	.LBE284
 14522 01f0 E4000000 		.4byte	.LBB311
 14523 01f4 F0000000 		.4byte	.LBE311
 14524 01f8 00000000 		.4byte	0
 14525 01fc 00000000 		.4byte	0
 14526 0200 22000000 		.4byte	.LBB285
 14527 0204 30000000 		.4byte	.LBE285
 14528 0208 32000000 		.4byte	.LBB308
 14529 020c 40000000 		.4byte	.LBE308
 14530 0210 44000000 		.4byte	.LBB309
 14531 0214 C8000000 		.4byte	.LBE309
 14532 0218 CC000000 		.4byte	.LBB310
 14533 021c DA000000 		.4byte	.LBE310
 14534 0220 00000000 		.4byte	0
 14535 0224 00000000 		.4byte	0
 14536 0228 62000000 		.4byte	.LBB291
 14537 022c 74000000 		.4byte	.LBE291
 14538 0230 76000000 		.4byte	.LBB294
 14539 0234 7A000000 		.4byte	.LBE294
 14540 0238 00000000 		.4byte	0
 14541 023c 00000000 		.4byte	0
 14542 0240 86000000 		.4byte	.LBB297
 14543 0244 A4000000 		.4byte	.LBE297
 14544 0248 A6000000 		.4byte	.LBB300
 14545 024c AA000000 		.4byte	.LBE300
 14546 0250 00000000 		.4byte	0
 14547 0254 00000000 		.4byte	0
 14548 0258 AC000000 		.4byte	.LBB301
 14549 025c C8000000 		.4byte	.LBE301
 14550 0260 D2000000 		.4byte	.LBB304
 14551 0264 D6000000 		.4byte	.LBE304
 14552 0268 00000000 		.4byte	0
 14553 026c 00000000 		.4byte	0
 14554 0270 04000000 		.4byte	.LBB320
 14555 0274 06000000 		.4byte	.LBE320
ARM GAS  C:\Users\IDONNO~1\AppData\Local\Temp\ccY27Fyg.s 			page 257


 14556 0278 08000000 		.4byte	.LBB324
 14557 027c 12000000 		.4byte	.LBE324
 14558 0280 14000000 		.4byte	.LBB325
 14559 0284 26000000 		.4byte	.LBE325
 14560 0288 00000000 		.4byte	0
 14561 028c 00000000 		.4byte	0
 14562 0290 0E000000 		.4byte	.LBB406
 14563 0294 10000000 		.4byte	.LBE406
 14564 0298 12000000 		.4byte	.LBB534
 14565 029c 36000000 		.4byte	.LBE534
 14566 02a0 EE000000 		.4byte	.LBB662
 14567 02a4 2C010000 		.4byte	.LBE662
 14568 02a8 34010000 		.4byte	.LBB663
 14569 02ac A2020000 		.4byte	.LBE663
 14570 02b0 A4020000 		.4byte	.LBB664
 14571 02b4 A8020000 		.4byte	.LBE664
 14572 02b8 6A040000 		.4byte	.LBB666
 14573 02bc BE040000 		.4byte	.LBE666
 14574 02c0 1A050000 		.4byte	.LBB668
 14575 02c4 20050000 		.4byte	.LBE668
 14576 02c8 40050000 		.4byte	.LBB670
 14577 02cc 5C050000 		.4byte	.LBE670
 14578 02d0 6A050000 		.4byte	.LBB672
 14579 02d4 70050000 		.4byte	.LBE672
 14580 02d8 00000000 		.4byte	0
 14581 02dc 00000000 		.4byte	0
 14582 02e0 0E000000 		.4byte	.LBB408
 14583 02e4 10000000 		.4byte	.LBE408
 14584 02e8 12000000 		.4byte	.LBB505
 14585 02ec 36000000 		.4byte	.LBE505
 14586 02f0 EE000000 		.4byte	.LBB506
 14587 02f4 2C010000 		.4byte	.LBE506
 14588 02f8 34010000 		.4byte	.LBB507
 14589 02fc A2020000 		.4byte	.LBE507
 14590 0300 A4020000 		.4byte	.LBB508
 14591 0304 A8020000 		.4byte	.LBE508
 14592 0308 6A040000 		.4byte	.LBB509
 14593 030c 8C040000 		.4byte	.LBE509
 14594 0310 8E040000 		.4byte	.LBB517
 14595 0314 92040000 		.4byte	.LBE517
 14596 0318 94040000 		.4byte	.LBB519
 14597 031c 98040000 		.4byte	.LBE519
 14598 0320 9C040000 		.4byte	.LBB521
 14599 0324 A0040000 		.4byte	.LBE521
 14600 0328 1A050000 		.4byte	.LBB523
 14601 032c 20050000 		.4byte	.LBE523
 14602 0330 40050000 		.4byte	.LBB524
 14603 0334 5C050000 		.4byte	.LBE524
 14604 0338 6A050000 		.4byte	.LBB525
 14605 033c 70050000 		.4byte	.LBE525
 14606 0340 00000000 		.4byte	0
 14607 0344 00000000 		.4byte	0
 14608 0348 FC000000 		.4byte	.LBB411
 14609 034c FE000000 		.4byte	.LBE411
 14610 0350 00010000 		.4byte	.LBB418
 14611 0354 18010000 		.4byte	.LBE418
 14612 0358 1E010000 		.4byte	.LBB419
ARM GAS  C:\Users\IDONNO~1\AppData\Local\Temp\ccY27Fyg.s 			page 258


 14613 035c 20010000 		.4byte	.LBE419
 14614 0360 00000000 		.4byte	0
 14615 0364 00000000 		.4byte	0
 14616 0368 36010000 		.4byte	.LBB420
 14617 036c 38010000 		.4byte	.LBE420
 14618 0370 3A010000 		.4byte	.LBB427
 14619 0374 50010000 		.4byte	.LBE427
 14620 0378 52010000 		.4byte	.LBB428
 14621 037c 56010000 		.4byte	.LBE428
 14622 0380 00000000 		.4byte	0
 14623 0384 00000000 		.4byte	0
 14624 0388 5C010000 		.4byte	.LBB429
 14625 038c 5E010000 		.4byte	.LBE429
 14626 0390 60010000 		.4byte	.LBB436
 14627 0394 76010000 		.4byte	.LBE436
 14628 0398 78010000 		.4byte	.LBB437
 14629 039c 7C010000 		.4byte	.LBE437
 14630 03a0 00000000 		.4byte	0
 14631 03a4 00000000 		.4byte	0
 14632 03a8 82010000 		.4byte	.LBB438
 14633 03ac 84010000 		.4byte	.LBE438
 14634 03b0 86010000 		.4byte	.LBB445
 14635 03b4 9C010000 		.4byte	.LBE445
 14636 03b8 9E010000 		.4byte	.LBB446
 14637 03bc A2010000 		.4byte	.LBE446
 14638 03c0 00000000 		.4byte	0
 14639 03c4 00000000 		.4byte	0
 14640 03c8 A8010000 		.4byte	.LBB447
 14641 03cc AA010000 		.4byte	.LBE447
 14642 03d0 AC010000 		.4byte	.LBB454
 14643 03d4 BE010000 		.4byte	.LBE454
 14644 03d8 C0010000 		.4byte	.LBB455
 14645 03dc C6010000 		.4byte	.LBE455
 14646 03e0 00000000 		.4byte	0
 14647 03e4 00000000 		.4byte	0
 14648 03e8 DE010000 		.4byte	.LBB456
 14649 03ec E0010000 		.4byte	.LBE456
 14650 03f0 E2010000 		.4byte	.LBB465
 14651 03f4 F0010000 		.4byte	.LBE465
 14652 03f8 F2010000 		.4byte	.LBB466
 14653 03fc FA010000 		.4byte	.LBE466
 14654 0400 FE010000 		.4byte	.LBB467
 14655 0404 00020000 		.4byte	.LBE467
 14656 0408 00000000 		.4byte	0
 14657 040c 00000000 		.4byte	0
 14658 0410 08020000 		.4byte	.LBB468
 14659 0414 0C020000 		.4byte	.LBE468
 14660 0418 12020000 		.4byte	.LBB475
 14661 041c 2E020000 		.4byte	.LBE475
 14662 0420 32020000 		.4byte	.LBB476
 14663 0424 36020000 		.4byte	.LBE476
 14664 0428 00000000 		.4byte	0
 14665 042c 00000000 		.4byte	0
 14666 0430 42050000 		.4byte	.LBB477
 14667 0434 46050000 		.4byte	.LBE477
 14668 0438 4C050000 		.4byte	.LBB482
 14669 043c 4E050000 		.4byte	.LBE482
ARM GAS  C:\Users\IDONNO~1\AppData\Local\Temp\ccY27Fyg.s 			page 259


 14670 0440 00000000 		.4byte	0
 14671 0444 00000000 		.4byte	0
 14672 0448 8C040000 		.4byte	.LBB510
 14673 044c 8E040000 		.4byte	.LBE510
 14674 0450 92040000 		.4byte	.LBB518
 14675 0454 94040000 		.4byte	.LBE518
 14676 0458 98040000 		.4byte	.LBB520
 14677 045c 9C040000 		.4byte	.LBE520
 14678 0460 A0040000 		.4byte	.LBB522
 14679 0464 BE040000 		.4byte	.LBE522
 14680 0468 00000000 		.4byte	0
 14681 046c 00000000 		.4byte	0
 14682 0470 A8040000 		.4byte	.LBB511
 14683 0474 AC040000 		.4byte	.LBE511
 14684 0478 B2040000 		.4byte	.LBB516
 14685 047c BE040000 		.4byte	.LBE516
 14686 0480 00000000 		.4byte	0
 14687 0484 00000000 		.4byte	0
 14688 0488 38000000 		.4byte	.LBB535
 14689 048c 3A000000 		.4byte	.LBE535
 14690 0490 3E000000 		.4byte	.LBB659
 14691 0494 40000000 		.4byte	.LBE659
 14692 0498 44000000 		.4byte	.LBB660
 14693 049c DC000000 		.4byte	.LBE660
 14694 04a0 DE000000 		.4byte	.LBB661
 14695 04a4 E4000000 		.4byte	.LBE661
 14696 04a8 B2020000 		.4byte	.LBB665
 14697 04ac 6A040000 		.4byte	.LBE665
 14698 04b0 BE040000 		.4byte	.LBB667
 14699 04b4 1A050000 		.4byte	.LBE667
 14700 04b8 20050000 		.4byte	.LBB669
 14701 04bc 40050000 		.4byte	.LBE669
 14702 04c0 5C050000 		.4byte	.LBB671
 14703 04c4 6A050000 		.4byte	.LBE671
 14704 04c8 70050000 		.4byte	.LBB673
 14705 04cc 84050000 		.4byte	.LBE673
 14706 04d0 00000000 		.4byte	0
 14707 04d4 00000000 		.4byte	0
 14708 04d8 38000000 		.4byte	.LBB537
 14709 04dc 3A000000 		.4byte	.LBE537
 14710 04e0 3E000000 		.4byte	.LBB632
 14711 04e4 40000000 		.4byte	.LBE632
 14712 04e8 44000000 		.4byte	.LBB633
 14713 04ec DC000000 		.4byte	.LBE633
 14714 04f0 DE000000 		.4byte	.LBB634
 14715 04f4 E4000000 		.4byte	.LBE634
 14716 04f8 B2020000 		.4byte	.LBB635
 14717 04fc 6A040000 		.4byte	.LBE635
 14718 0500 BE040000 		.4byte	.LBB636
 14719 0504 E4040000 		.4byte	.LBE636
 14720 0508 E8040000 		.4byte	.LBB644
 14721 050c FA040000 		.4byte	.LBE644
 14722 0510 00050000 		.4byte	.LBB646
 14723 0514 02050000 		.4byte	.LBE646
 14724 0518 20050000 		.4byte	.LBB648
 14725 051c 40050000 		.4byte	.LBE648
 14726 0520 5C050000 		.4byte	.LBB649
ARM GAS  C:\Users\IDONNO~1\AppData\Local\Temp\ccY27Fyg.s 			page 260


 14727 0524 6A050000 		.4byte	.LBE649
 14728 0528 70050000 		.4byte	.LBB650
 14729 052c 84050000 		.4byte	.LBE650
 14730 0530 00000000 		.4byte	0
 14731 0534 00000000 		.4byte	0
 14732 0538 C4020000 		.4byte	.LBB540
 14733 053c C8020000 		.4byte	.LBE540
 14734 0540 CC020000 		.4byte	.LBB547
 14735 0544 E4020000 		.4byte	.LBE547
 14736 0548 E8020000 		.4byte	.LBB548
 14737 054c EC020000 		.4byte	.LBE548
 14738 0550 00000000 		.4byte	0
 14739 0554 00000000 		.4byte	0
 14740 0558 12030000 		.4byte	.LBB549
 14741 055c 16030000 		.4byte	.LBE549
 14742 0560 1A030000 		.4byte	.LBB556
 14743 0564 30030000 		.4byte	.LBE556
 14744 0568 32030000 		.4byte	.LBB557
 14745 056c 36030000 		.4byte	.LBE557
 14746 0570 00000000 		.4byte	0
 14747 0574 00000000 		.4byte	0
 14748 0578 40030000 		.4byte	.LBB558
 14749 057c 44030000 		.4byte	.LBE558
 14750 0580 48030000 		.4byte	.LBB565
 14751 0584 5E030000 		.4byte	.LBE565
 14752 0588 60030000 		.4byte	.LBB566
 14753 058c 64030000 		.4byte	.LBE566
 14754 0590 00000000 		.4byte	0
 14755 0594 00000000 		.4byte	0
 14756 0598 6E030000 		.4byte	.LBB567
 14757 059c 72030000 		.4byte	.LBE567
 14758 05a0 76030000 		.4byte	.LBB574
 14759 05a4 8C030000 		.4byte	.LBE574
 14760 05a8 8E030000 		.4byte	.LBB575
 14761 05ac 92030000 		.4byte	.LBE575
 14762 05b0 00000000 		.4byte	0
 14763 05b4 00000000 		.4byte	0
 14764 05b8 9C030000 		.4byte	.LBB576
 14765 05bc A0030000 		.4byte	.LBE576
 14766 05c0 A4030000 		.4byte	.LBB583
 14767 05c4 B8030000 		.4byte	.LBE583
 14768 05c8 BC030000 		.4byte	.LBB584
 14769 05cc C4030000 		.4byte	.LBE584
 14770 05d0 00000000 		.4byte	0
 14771 05d4 00000000 		.4byte	0
 14772 05d8 E6030000 		.4byte	.LBB585
 14773 05dc FA030000 		.4byte	.LBE585
 14774 05e0 02040000 		.4byte	.LBB592
 14775 05e4 0A040000 		.4byte	.LBE592
 14776 05e8 10040000 		.4byte	.LBB593
 14777 05ec 14040000 		.4byte	.LBE593
 14778 05f0 00000000 		.4byte	0
 14779 05f4 00000000 		.4byte	0
 14780 05f8 20040000 		.4byte	.LBB594
 14781 05fc 24040000 		.4byte	.LBE594
 14782 0600 2A040000 		.4byte	.LBB601
 14783 0604 46040000 		.4byte	.LBE601
ARM GAS  C:\Users\IDONNO~1\AppData\Local\Temp\ccY27Fyg.s 			page 261


 14784 0608 4A040000 		.4byte	.LBB602
 14785 060c 4E040000 		.4byte	.LBE602
 14786 0610 00000000 		.4byte	0
 14787 0614 00000000 		.4byte	0
 14788 0618 28050000 		.4byte	.LBB603
 14789 061c 2C050000 		.4byte	.LBE603
 14790 0620 32050000 		.4byte	.LBB610
 14791 0624 36050000 		.4byte	.LBE610
 14792 0628 3A050000 		.4byte	.LBB611
 14793 062c 3C050000 		.4byte	.LBE611
 14794 0630 00000000 		.4byte	0
 14795 0634 00000000 		.4byte	0
 14796 0638 E4040000 		.4byte	.LBB637
 14797 063c E8040000 		.4byte	.LBE637
 14798 0640 FA040000 		.4byte	.LBB645
 14799 0644 00050000 		.4byte	.LBE645
 14800 0648 02050000 		.4byte	.LBB647
 14801 064c 1A050000 		.4byte	.LBE647
 14802 0650 00000000 		.4byte	0
 14803 0654 00000000 		.4byte	0
 14804 0658 0A050000 		.4byte	.LBB638
 14805 065c 0E050000 		.4byte	.LBE638
 14806 0660 14050000 		.4byte	.LBB643
 14807 0664 1A050000 		.4byte	.LBE643
 14808 0668 00000000 		.4byte	0
 14809 066c 00000000 		.4byte	0
 14810 0670 00000000 		.4byte	.LFB417
 14811 0674 36000000 		.4byte	.LFE417
 14812 0678 00000000 		.4byte	.LFB407
 14813 067c 04010000 		.4byte	.LFE407
 14814 0680 00000000 		.4byte	.LFB408
 14815 0684 20000000 		.4byte	.LFE408
 14816 0688 00000000 		.4byte	.LFB409
 14817 068c 8C000000 		.4byte	.LFE409
 14818 0690 00000000 		.4byte	.LFB410
 14819 0694 78000000 		.4byte	.LFE410
 14820 0698 00000000 		.4byte	.LFB412
 14821 069c 60000000 		.4byte	.LFE412
 14822 06a0 00000000 		.4byte	.LFB413
 14823 06a4 5A000000 		.4byte	.LFE413
 14824 06a8 00000000 		.4byte	.LFB414
 14825 06ac 92010000 		.4byte	.LFE414
 14826 06b0 00000000 		.4byte	.LFB415
 14827 06b4 4C000000 		.4byte	.LFE415
 14828 06b8 00000000 		.4byte	.LFB416
 14829 06bc F0000000 		.4byte	.LFE416
 14830 06c0 00000000 		.4byte	.LFB411
 14831 06c4 94000000 		.4byte	.LFE411
 14832 06c8 00000000 		.4byte	.LFB418
 14833 06cc 84050000 		.4byte	.LFE418
 14834 06d0 00000000 		.4byte	.LFB419
 14835 06d4 48000000 		.4byte	.LFE419
 14836 06d8 00000000 		.4byte	0
 14837 06dc 00000000 		.4byte	0
 14838              		.section	.debug_line,"",%progbits
 14839              	.Ldebug_line0:
 14840 0000 C90C0000 		.section	.debug_str,"MS",%progbits,1
ARM GAS  C:\Users\IDONNO~1\AppData\Local\Temp\ccY27Fyg.s 			page 262


 14840      0200A804 
 14840      00000201 
 14840      FB0E0D00 
 14840      01010101 
 14841              	.LASF201:
 14842 0000 4D41564C 		.ascii	"MAVLINK_FRAMING_INCOMPLETE\000"
 14842      494E4B5F 
 14842      4652414D 
 14842      494E475F 
 14842      494E434F 
 14843              	.LASF320:
 14844 001b 6D61766C 		.ascii	"mavlink_message_crcs\000"
 14844      696E6B5F 
 14844      6D657373 
 14844      6167655F 
 14844      63726373 
 14845              	.LASF9:
 14846 0030 6C6F6E67 		.ascii	"long int\000"
 14846      20696E74 
 14846      00
 14847              	.LASF54:
 14848 0039 74687265 		.ascii	"threads_queue_t\000"
 14848      6164735F 
 14848      71756575 
 14848      655F7400 
 14849              	.LASF165:
 14850 0049 6D5F7365 		.ascii	"m_sensor_port_mode\000"
 14850      6E736F72 
 14850      5F706F72 
 14850      745F6D6F 
 14850      646500
 14851              	.LASF195:
 14852 005c 4D41564C 		.ascii	"MAVLINK_PARSE_STATE_GOT_COMPID\000"
 14852      494E4B5F 
 14852      50415253 
 14852      455F5354 
 14852      4154455F 
 14853              	.LASF96:
 14854 007b 77746D74 		.ascii	"wtmtxp\000"
 14854      787000
 14855              	.LASF122:
 14856 0082 4D4F544F 		.ascii	"MOTOR_TYPE_BLDC\000"
 14856      525F5459 
 14856      50455F42 
 14856      4C444300 
 14857              	.LASF90:
 14858 0092 746D5F63 		.ascii	"tm_calibration_t\000"
 14858      616C6962 
 14858      72617469 
 14858      6F6E5F74 
 14858      00
 14859              	.LASF42:
 14860 00a3 705F7469 		.ascii	"p_time\000"
 14860      6D6500
 14861              	.LASF212:
 14862 00aa 7061636B 		.ascii	"packet_rx_success_count\000"
 14862      65745F72 
ARM GAS  C:\Users\IDONNO~1\AppData\Local\Temp\ccY27Fyg.s 			page 263


 14862      785F7375 
 14862      63636573 
 14862      735F636F 
 14863              	.LASF85:
 14864 00c2 72656761 		.ascii	"regarm_t\000"
 14864      726D5F74 
 14864      00
 14865              	.LASF331:
 14866 00cb 7374726C 		.ascii	"strlen\000"
 14866      656E00
 14867              	.LASF333:
 14868 00d2 636F6E66 		.ascii	"conf_general_store_mc_configuration\000"
 14868      5F67656E 
 14868      6572616C 
 14868      5F73746F 
 14868      72655F6D 
 14869              	.LASF33:
 14870 00f6 705F7072 		.ascii	"p_prio\000"
 14870      696F00
 14871              	.LASF181:
 14872 00fd 636F6D70 		.ascii	"compid\000"
 14872      696400
 14873              	.LASF229:
 14874 0104 6D61766C 		.ascii	"mavlink_read_board_name_t\000"
 14874      696E6B5F 
 14874      72656164 
 14874      5F626F61 
 14874      72645F6E 
 14875              	.LASF224:
 14876 011e 5F5F6D61 		.ascii	"__mavlink_read_version_t\000"
 14876      766C696E 
 14876      6B5F7265 
 14876      61645F76 
 14876      65727369 
 14877              	.LASF196:
 14878 0137 4D41564C 		.ascii	"MAVLINK_PARSE_STATE_GOT_MSGID\000"
 14878      494E4B5F 
 14878      50415253 
 14878      455F5354 
 14878      4154455F 
 14879              	.LASF312:
 14880 0155 6D61766C 		.ascii	"mavlink_dbgString\000"
 14880      696E6B5F 
 14880      64626753 
 14880      7472696E 
 14880      6700
 14881              	.LASF29:
 14882 0167 73797374 		.ascii	"systime_t\000"
 14882      696D655F 
 14882      7400
 14883              	.LASF292:
 14884 0171 62756666 		.ascii	"buffer\000"
 14884      657200
 14885              	.LASF261:
 14886 0178 6372635F 		.ascii	"crc_init\000"
 14886      696E6974 
 14886      00
ARM GAS  C:\Users\IDONNO~1\AppData\Local\Temp\ccY27Fyg.s 			page 264


 14887              	.LASF175:
 14888 0181 64716B5F 		.ascii	"dqk_b\000"
 14888      6200
 14889              	.LASF230:
 14890 0187 5F5F6D61 		.ascii	"__mavlink_read_tag_t\000"
 14890      766C696E 
 14890      6B5F7265 
 14890      61645F74 
 14890      61675F74 
 14891              	.LASF103:
 14892 019c 6D5F6F77 		.ascii	"m_owner\000"
 14892      6E657200 
 14893              	.LASF209:
 14894 01a4 7061636B 		.ascii	"packet_idx\000"
 14894      65745F69 
 14894      647800
 14895              	.LASF74:
 14896 01af 76745F73 		.ascii	"vt_systime\000"
 14896      79737469 
 14896      6D6500
 14897              	.LASF44:
 14898 01ba 705F6D73 		.ascii	"p_msgqueue\000"
 14898      67717565 
 14898      756500
 14899              	.LASF142:
 14900 01c5 6C5F6D61 		.ascii	"l_max_erpm\000"
 14900      785F6572 
 14900      706D00
 14901              	.LASF244:
 14902 01d0 75514B43 		.ascii	"uQKC\000"
 14902      00
 14903              	.LASF328:
 14904 01d5 626F6F74 		.ascii	"boot_version\000"
 14904      5F766572 
 14904      73696F6E 
 14904      00
 14905              	.LASF243:
 14906 01e2 75514B49 		.ascii	"uQKI\000"
 14906      00
 14907              	.LASF51:
 14908 01e7 74687265 		.ascii	"threads_list_t\000"
 14908      6164735F 
 14908      6C697374 
 14908      5F7400
 14909              	.LASF135:
 14910 01f6 73656E73 		.ascii	"sensor_mode\000"
 14910      6F725F6D 
 14910      6F646500 
 14911              	.LASF242:
 14912 0202 75514B50 		.ascii	"uQKP\000"
 14912      00
 14913              	.LASF43:
 14914 0207 705F7761 		.ascii	"p_waiting\000"
 14914      6974696E 
 14914      6700
 14915              	.LASF146:
 14916 0211 6C5F6D69 		.ascii	"l_min_vin\000"
ARM GAS  C:\Users\IDONNO~1\AppData\Local\Temp\ccY27Fyg.s 			page 265


 14916      6E5F7669 
 14916      6E00
 14917              	.LASF8:
 14918 021b 5F5F696E 		.ascii	"__int32_t\000"
 14918      7433325F 
 14918      7400
 14919              	.LASF112:
 14920 0225 50574D5F 		.ascii	"PWM_MODE_SYNCHRONOUS\000"
 14920      4D4F4445 
 14920      5F53594E 
 14920      4348524F 
 14920      4E4F5553 
 14921              	.LASF156:
 14922 023a 6C5F6D61 		.ascii	"l_max_duty\000"
 14922      785F6475 
 14922      747900
 14923              	.LASF339:
 14924 0245 7372632F 		.ascii	"src/core/mavlink_proc.c\000"
 14924      636F7265 
 14924      2F6D6176 
 14924      6C696E6B 
 14924      5F70726F 
 14925              	.LASF285:
 14926 025d 636D645F 		.ascii	"cmd_read_version\000"
 14926      72656164 
 14926      5F766572 
 14926      73696F6E 
 14926      00
 14927              	.LASF93:
 14928 026e 77746F62 		.ascii	"wtobjp\000"
 14928      6A7000
 14929              	.LASF81:
 14930 0275 76746C69 		.ascii	"vtlist\000"
 14930      737400
 14931              	.LASF265:
 14932 027c 70427566 		.ascii	"pBuffer\000"
 14932      66657200 
 14933              	.LASF5:
 14934 0284 73686F72 		.ascii	"short int\000"
 14934      7420696E 
 14934      7400
 14935              	.LASF57:
 14936 028e 63685F72 		.ascii	"ch_ready_list\000"
 14936      65616479 
 14936      5F6C6973 
 14936      7400
 14937              	.LASF83:
 14938 029c 69646C65 		.ascii	"idle_thread_wa\000"
 14938      5F746872 
 14938      6561645F 
 14938      776100
 14939              	.LASF190:
 14940 02ab 4D41564C 		.ascii	"MAVLINK_PARSE_STATE_IDLE\000"
 14940      494E4B5F 
 14940      50415253 
 14940      455F5354 
 14940      4154455F 
ARM GAS  C:\Users\IDONNO~1\AppData\Local\Temp\ccY27Fyg.s 			page 266


 14941              	.LASF161:
 14942 02c4 6C6F5F69 		.ascii	"lo_in_current_max\000"
 14942      6E5F6375 
 14942      7272656E 
 14942      745F6D61 
 14942      7800
 14943              	.LASF97:
 14944 02d6 65776D61 		.ascii	"ewmask\000"
 14944      736B00
 14945              	.LASF143:
 14946 02dd 6C5F6572 		.ascii	"l_erpm_start\000"
 14946      706D5F73 
 14946      74617274 
 14946      00
 14947              	.LASF130:
 14948 02ea 72736875 		.ascii	"rshunt\000"
 14948      6E7400
 14949              	.LASF139:
 14950 02f1 6C5F696E 		.ascii	"l_in_current_min\000"
 14950      5F637572 
 14950      72656E74 
 14950      5F6D696E 
 14950      00
 14951              	.LASF182:
 14952 0302 6D736769 		.ascii	"msgid\000"
 14952      6400
 14953              	.LASF215:
 14954 0308 5F5F6D61 		.ascii	"__mavlink_debug_string_t\000"
 14954      766C696E 
 14954      6B5F6465 
 14954      6275675F 
 14954      73747269 
 14955              	.LASF329:
 14956 0321 626F6F74 		.ascii	"boot_revision\000"
 14956      5F726576 
 14956      6973696F 
 14956      6E00
 14957              	.LASF155:
 14958 032f 6C5F6D69 		.ascii	"l_min_duty\000"
 14958      6E5F6475 
 14958      747900
 14959              	.LASF264:
 14960 033a 6372635F 		.ascii	"crc_accumulate_buffer\000"
 14960      61636375 
 14960      6D756C61 
 14960      74655F62 
 14960      75666665 
 14961              	.LASF76:
 14962 0350 63685F73 		.ascii	"ch_system_debug\000"
 14962      79737465 
 14962      6D5F6465 
 14962      62756700 
 14963              	.LASF267:
 14964 0360 6372635F 		.ascii	"crc_calculate\000"
 14964      63616C63 
 14964      756C6174 
 14964      6500
ARM GAS  C:\Users\IDONNO~1\AppData\Local\Temp\ccY27Fyg.s 			page 267


 14965              	.LASF64:
 14966 036e 76746675 		.ascii	"vtfunc_t\000"
 14966      6E635F74 
 14966      00
 14967              	.LASF303:
 14968 0377 77726974 		.ascii	"write_eeprom\000"
 14968      655F6565 
 14968      70726F6D 
 14968      00
 14969              	.LASF275:
 14970 0384 6372635F 		.ascii	"crc_extra\000"
 14970      65787472 
 14970      6100
 14971              	.LASF287:
 14972 038e 636D645F 		.ascii	"cmd_set_appconf\000"
 14972      7365745F 
 14972      61707063 
 14972      6F6E6600 
 14973              	.LASF100:
 14974 039e 735F636E 		.ascii	"s_cnt\000"
 14974      7400
 14975              	.LASF307:
 14976 03a4 7365745F 		.ascii	"set_velocity\000"
 14976      76656C6F 
 14976      63697479 
 14976      00
 14977              	.LASF150:
 14978 03b1 6C5F736C 		.ascii	"l_slow_abs_current\000"
 14978      6F775F61 
 14978      62735F63 
 14978      75727265 
 14978      6E7400
 14979              	.LASF255:
 14980 03c4 6D61766C 		.ascii	"mavlink_set_mcconf_t\000"
 14980      696E6B5F 
 14980      7365745F 
 14980      6D63636F 
 14980      6E665F74 
 14981              	.LASF326:
 14982 03d9 674D7367 		.ascii	"gMsg\000"
 14982      00
 14983              	.LASF194:
 14984 03de 4D41564C 		.ascii	"MAVLINK_PARSE_STATE_GOT_SYSID\000"
 14984      494E4B5F 
 14984      50415253 
 14984      455F5354 
 14984      4154455F 
 14985              	.LASF227:
 14986 03fc 6D61766C 		.ascii	"mavlink_read_version_t\000"
 14986      696E6B5F 
 14986      72656164 
 14986      5F766572 
 14986      73696F6E 
 14987              	.LASF158:
 14988 0413 6C5F7761 		.ascii	"l_watt_min\000"
 14988      74745F6D 
 14988      696E00
ARM GAS  C:\Users\IDONNO~1\AppData\Local\Temp\ccY27Fyg.s 			page 268


 14989              	.LASF257:
 14990 041e 7265665F 		.ascii	"ref_angular_velocity\000"
 14990      616E6775 
 14990      6C61725F 
 14990      76656C6F 
 14990      63697479 
 14991              	.LASF114:
 14992 0433 6D635F70 		.ascii	"mc_pwm_mode\000"
 14992      776D5F6D 
 14992      6F646500 
 14993              	.LASF18:
 14994 043f 75696E74 		.ascii	"uint32_t\000"
 14994      33325F74 
 14994      00
 14995              	.LASF317:
 14996 0448 72786D73 		.ascii	"rxmsg\000"
 14996      6700
 14997              	.LASF259:
 14998 044e 6D73675F 		.ascii	"msg_handle_t\000"
 14998      68616E64 
 14998      6C655F74 
 14998      00
 14999              	.LASF27:
 15000 045b 6576656E 		.ascii	"eventmask_t\000"
 15000      746D6173 
 15000      6B5F7400 
 15001              	.LASF59:
 15002 0467 725F7072 		.ascii	"r_prio\000"
 15002      696F00
 15003              	.LASF71:
 15004 046e 76745F70 		.ascii	"vt_par\000"
 15004      617200
 15005              	.LASF268:
 15006 0475 6D61766C 		.ascii	"mavlink_get_channel_status\000"
 15006      696E6B5F 
 15006      6765745F 
 15006      6368616E 
 15006      6E656C5F 
 15007              	.LASF148:
 15008 0490 6C5F6261 		.ascii	"l_battery_cut_start\000"
 15008      74746572 
 15008      795F6375 
 15008      745F7374 
 15008      61727400 
 15009              	.LASF109:
 15010 04a4 666C6F61 		.ascii	"float\000"
 15010      7400
 15011              	.LASF178:
 15012 04aa 63686563 		.ascii	"checksum\000"
 15012      6B73756D 
 15012      00
 15013              	.LASF98:
 15014 04b3 63685F73 		.ascii	"ch_semaphore\000"
 15014      656D6170 
 15014      686F7265 
 15014      00
 15015              	.LASF25:
ARM GAS  C:\Users\IDONNO~1\AppData\Local\Temp\ccY27Fyg.s 			page 269


 15016 04c0 74707269 		.ascii	"tprio_t\000"
 15016      6F5F7400 
 15017              	.LASF66:
 15018 04c8 63685F76 		.ascii	"ch_virtual_timer\000"
 15018      69727475 
 15018      616C5F74 
 15018      696D6572 
 15018      00
 15019              	.LASF324:
 15020 04d9 6D61766C 		.ascii	"mavlink_msg_process_vcp\000"
 15020      696E6B5F 
 15020      6D73675F 
 15020      70726F63 
 15020      6573735F 
 15021              	.LASF291:
 15022 04f1 6D61766C 		.ascii	"mavlink_msg_to_send_buffer\000"
 15022      696E6B5F 
 15022      6D73675F 
 15022      746F5F73 
 15022      656E645F 
 15023              	.LASF168:
 15024 050c 716F7574 		.ascii	"qout_max\000"
 15024      5F6D6178 
 15024      00
 15025              	.LASF70:
 15026 0515 76745F66 		.ascii	"vt_func\000"
 15026      756E6300 
 15027              	.LASF14:
 15028 051d 6C6F6E67 		.ascii	"long long unsigned int\000"
 15028      206C6F6E 
 15028      6720756E 
 15028      7369676E 
 15028      65642069 
 15029              	.LASF309:
 15030 0534 6D61766C 		.ascii	"mavlink_msg_set_mcconf_decode\000"
 15030      696E6B5F 
 15030      6D73675F 
 15030      7365745F 
 15030      6D63636F 
 15031              	.LASF134:
 15032 0552 6D6F746F 		.ascii	"motor_type\000"
 15032      725F7479 
 15032      706500
 15033              	.LASF234:
 15034 055d 6D61766C 		.ascii	"mavlink_write_eeprom_t\000"
 15034      696E6B5F 
 15034      77726974 
 15034      655F6565 
 15034      70726F6D 
 15035              	.LASF322:
 15036 0574 636D645F 		.ascii	"cmd_set_velocity\000"
 15036      7365745F 
 15036      76656C6F 
 15036      63697479 
 15036      00
 15037              	.LASF6:
 15038 0585 5F5F7569 		.ascii	"__uint16_t\000"
ARM GAS  C:\Users\IDONNO~1\AppData\Local\Temp\ccY27Fyg.s 			page 270


 15038      6E743136 
 15038      5F7400
 15039              	.LASF28:
 15040 0590 636E745F 		.ascii	"cnt_t\000"
 15040      7400
 15041              	.LASF53:
 15042 0596 63685F74 		.ascii	"ch_threads_list\000"
 15042      68726561 
 15042      64735F6C 
 15042      69737400 
 15043              	.LASF137:
 15044 05a6 6C5F6375 		.ascii	"l_current_min\000"
 15044      7272656E 
 15044      745F6D69 
 15044      6E00
 15045              	.LASF198:
 15046 05b4 4D41564C 		.ascii	"MAVLINK_PARSE_STATE_GOT_CRC1\000"
 15046      494E4B5F 
 15046      50415253 
 15046      455F5354 
 15046      4154455F 
 15047              	.LASF284:
 15048 05d1 6D61765F 		.ascii	"mav_data\000"
 15048      64617461 
 15048      00
 15049              	.LASF123:
 15050 05da 4D4F544F 		.ascii	"MOTOR_TYPE_DC\000"
 15050      525F5459 
 15050      50455F44 
 15050      4300
 15051              	.LASF35:
 15052 05e8 705F6E65 		.ascii	"p_newer\000"
 15052      77657200 
 15053              	.LASF73:
 15054 05f0 63685F76 		.ascii	"ch_virtual_timers_list\000"
 15054      69727475 
 15054      616C5F74 
 15054      696D6572 
 15054      735F6C69 
 15055              	.LASF113:
 15056 0607 50574D5F 		.ascii	"PWM_MODE_BIPOLAR\000"
 15056      4D4F4445 
 15056      5F424950 
 15056      4F4C4152 
 15056      00
 15057              	.LASF314:
 15058 0618 72656164 		.ascii	"read_tag\000"
 15058      5F746167 
 15058      00
 15059              	.LASF30:
 15060 0621 74687265 		.ascii	"thread_t\000"
 15060      61645F74 
 15060      00
 15061              	.LASF302:
 15062 062a 6D61766C 		.ascii	"mavlink_msg_write_eeprom_decode\000"
 15062      696E6B5F 
 15062      6D73675F 
ARM GAS  C:\Users\IDONNO~1\AppData\Local\Temp\ccY27Fyg.s 			page 271


 15062      77726974 
 15062      655F6565 
 15063              	.LASF274:
 15064 064a 6D696E5F 		.ascii	"min_length\000"
 15064      6C656E67 
 15064      746800
 15065              	.LASF311:
 15066 0655 636D645F 		.ascii	"cmd_set_mcconf\000"
 15066      7365745F 
 15066      6D63636F 
 15066      6E6600
 15067              	.LASF159:
 15068 0664 6C6F5F63 		.ascii	"lo_current_max\000"
 15068      75727265 
 15068      6E745F6D 
 15068      617800
 15069              	.LASF91:
 15070 0673 7264796D 		.ascii	"rdymsg\000"
 15070      736700
 15071              	.LASF89:
 15072 067a 6F666673 		.ascii	"offset\000"
 15072      657400
 15073              	.LASF154:
 15074 0681 6C5F7465 		.ascii	"l_temp_motor_end\000"
 15074      6D705F6D 
 15074      6F746F72 
 15074      5F656E64 
 15074      00
 15075              	.LASF191:
 15076 0692 4D41564C 		.ascii	"MAVLINK_PARSE_STATE_GOT_STX\000"
 15076      494E4B5F 
 15076      50415253 
 15076      455F5354 
 15076      4154455F 
 15077              	.LASF107:
 15078 06ae 5F426F6F 		.ascii	"_Bool\000"
 15078      6C00
 15079              	.LASF338:
 15080 06b4 474E5520 		.ascii	"GNU C99 5.4.1 20160919 (release) [ARM/embedded-5-br"
 15080      43393920 
 15080      352E342E 
 15080      31203230 
 15080      31363039 
 15081 06e7 616E6368 		.ascii	"anch revision 240496] -mcpu=cortex-m4 -mfloat-abi=h"
 15081      20726576 
 15081      6973696F 
 15081      6E203234 
 15081      30343936 
 15082 071a 61726420 		.ascii	"ard -mfpu=fpv4-sp-d16 -mno-thumb-interwork -mthumb "
 15082      2D6D6670 
 15082      753D6670 
 15082      76342D73 
 15082      702D6431 
 15083 074d 2D676764 		.ascii	"-ggdb -O2 -std=gnu99 -fomit-frame-pointer -falign-f"
 15083      62202D4F 
 15083      32202D73 
 15083      74643D67 
ARM GAS  C:\Users\IDONNO~1\AppData\Local\Temp\ccY27Fyg.s 			page 272


 15083      6E753939 
 15084 0780 756E6374 		.ascii	"unctions=16 -ffunction-sections -fdata-sections -fn"
 15084      696F6E73 
 15084      3D313620 
 15084      2D666675 
 15084      6E637469 
 15085 07b3 6F2D636F 		.ascii	"o-common -fsingle-precision-constant\000"
 15085      6D6D6F6E 
 15085      202D6673 
 15085      696E676C 
 15085      652D7072 
 15086              	.LASF197:
 15087 07d8 4D41564C 		.ascii	"MAVLINK_PARSE_STATE_GOT_PAYLOAD\000"
 15087      494E4B5F 
 15087      50415253 
 15087      455F5354 
 15087      4154455F 
 15088              	.LASF192:
 15089 07f8 4D41564C 		.ascii	"MAVLINK_PARSE_STATE_GOT_SEQ\000"
 15089      494E4B5F 
 15089      50415253 
 15089      455F5354 
 15089      4154455F 
 15090              	.LASF325:
 15091 0814 49544D5F 		.ascii	"ITM_RxBuffer\000"
 15091      52784275 
 15091      66666572 
 15091      00
 15092              	.LASF101:
 15093 0821 63685F6D 		.ascii	"ch_mutex\000"
 15093      75746578 
 15093      00
 15094              	.LASF13:
 15095 082a 5F5F7569 		.ascii	"__uint64_t\000"
 15095      6E743634 
 15095      5F7400
 15096              	.LASF131:
 15097 0835 70776D46 		.ascii	"pwmFreq\000"
 15097      72657100 
 15098              	.LASF304:
 15099 083d 636D645F 		.ascii	"cmd_write_eeprom\000"
 15099      77726974 
 15099      655F6565 
 15099      70726F6D 
 15099      00
 15100              	.LASF270:
 15101 084e 6D5F6D61 		.ascii	"m_mavlink_status\000"
 15101      766C696E 
 15101      6B5F7374 
 15101      61747573 
 15101      00
 15102              	.LASF232:
 15103 085f 6D61766C 		.ascii	"mavlink_read_tag_t\000"
 15103      696E6B5F 
 15103      72656164 
 15103      5F746167 
 15103      5F7400
ARM GAS  C:\Users\IDONNO~1\AppData\Local\Temp\ccY27Fyg.s 			page 273


 15104              	.LASF323:
 15105 0872 6D61766C 		.ascii	"mavlink_msg_recv\000"
 15105      696E6B5F 
 15105      6D73675F 
 15105      72656376 
 15105      00
 15106              	.LASF313:
 15107 0883 6D61766C 		.ascii	"mavlink_msg_read_tag_decode\000"
 15107      696E6B5F 
 15107      6D73675F 
 15107      72656164 
 15107      5F746167 
 15108              	.LASF111:
 15109 089f 50574D5F 		.ascii	"PWM_MODE_NONSYNCHRONOUS_HISW\000"
 15109      4D4F4445 
 15109      5F4E4F4E 
 15109      53594E43 
 15109      48524F4E 
 15110              	.LASF205:
 15111 08bc 6D73675F 		.ascii	"msg_received\000"
 15111      72656365 
 15111      69766564 
 15111      00
 15112              	.LASF185:
 15113 08c9 4D41564C 		.ascii	"MAVLINK_COMM_0\000"
 15113      494E4B5F 
 15113      434F4D4D 
 15113      5F3000
 15114              	.LASF186:
 15115 08d8 4D41564C 		.ascii	"MAVLINK_COMM_1\000"
 15115      494E4B5F 
 15115      434F4D4D 
 15115      5F3100
 15116              	.LASF187:
 15117 08e7 4D41564C 		.ascii	"MAVLINK_COMM_2\000"
 15117      494E4B5F 
 15117      434F4D4D 
 15117      5F3200
 15118              	.LASF188:
 15119 08f6 4D41564C 		.ascii	"MAVLINK_COMM_3\000"
 15119      494E4B5F 
 15119      434F4D4D 
 15119      5F3300
 15120              	.LASF149:
 15121 0905 6C5F6261 		.ascii	"l_battery_cut_end\000"
 15121      74746572 
 15121      795F6375 
 15121      745F656E 
 15121      6400
 15122              	.LASF183:
 15123 0917 7061796C 		.ascii	"payload64\000"
 15123      6F616436 
 15123      3400
 15124              	.LASF116:
 15125 0921 434F4D4D 		.ascii	"COMM_MODE_DELAY\000"
 15125      5F4D4F44 
 15125      455F4445 
ARM GAS  C:\Users\IDONNO~1\AppData\Local\Temp\ccY27Fyg.s 			page 274


 15125      4C415900 
 15126              	.LASF216:
 15127 0931 6462675F 		.ascii	"dbg_str\000"
 15127      73747200 
 15128              	.LASF37:
 15129 0939 705F6E61 		.ascii	"p_name\000"
 15129      6D6500
 15130              	.LASF241:
 15131 0940 75444F55 		.ascii	"uDOUTMAX\000"
 15131      544D4158 
 15131      00
 15132              	.LASF252:
 15133 0949 75504C4C 		.ascii	"uPLLKC\000"
 15133      4B4300
 15134              	.LASF266:
 15135 0950 63726354 		.ascii	"crcTmp\000"
 15135      6D7000
 15136              	.LASF251:
 15137 0957 75504C4C 		.ascii	"uPLLKI\000"
 15137      4B4900
 15138              	.LASF121:
 15139 095e 6D635F73 		.ascii	"mc_sensor_mode\000"
 15139      656E736F 
 15139      725F6D6F 
 15139      646500
 15140              	.LASF269:
 15141 096d 6368616E 		.ascii	"chan\000"
 15141      00
 15142              	.LASF69:
 15143 0972 76745F64 		.ascii	"vt_delta\000"
 15143      656C7461 
 15143      00
 15144              	.LASF164:
 15145 097b 6C6F5F63 		.ascii	"lo_current_motor_min_now\000"
 15145      75727265 
 15145      6E745F6D 
 15145      6F746F72 
 15145      5F6D696E 
 15146              	.LASF61:
 15147 0994 725F6E65 		.ascii	"r_newer\000"
 15147      77657200 
 15148              	.LASF138:
 15149 099c 6C5F696E 		.ascii	"l_in_current_max\000"
 15149      5F637572 
 15149      72656E74 
 15149      5F6D6178 
 15149      00
 15150              	.LASF22:
 15151 09ad 74737461 		.ascii	"tstate_t\000"
 15151      74655F74 
 15151      00
 15152              	.LASF222:
 15153 09b6 64617461 		.ascii	"data\000"
 15153      00
 15154              	.LASF12:
 15155 09bb 6C6F6E67 		.ascii	"long long int\000"
 15155      206C6F6E 
ARM GAS  C:\Users\IDONNO~1\AppData\Local\Temp\ccY27Fyg.s 			page 275


 15155      6720696E 
 15155      7400
 15156              	.LASF262:
 15157 09c9 6372635F 		.ascii	"crc_accumulate\000"
 15157      61636375 
 15157      6D756C61 
 15157      746500
 15158              	.LASF36:
 15159 09d8 705F6F6C 		.ascii	"p_older\000"
 15159      64657200 
 15160              	.LASF38:
 15161 09e0 705F7374 		.ascii	"p_state\000"
 15161      61746500 
 15162              	.LASF151:
 15163 09e8 6C5F7465 		.ascii	"l_temp_fet_start\000"
 15163      6D705F66 
 15163      65745F73 
 15163      74617274 
 15163      00
 15164              	.LASF58:
 15165 09f9 725F7175 		.ascii	"r_queue\000"
 15165      65756500 
 15166              	.LASF15:
 15167 0a01 75696E74 		.ascii	"uint8_t\000"
 15167      385F7400 
 15168              	.LASF219:
 15169 0a09 6572725F 		.ascii	"err_code\000"
 15169      636F6465 
 15169      00
 15170              	.LASF318:
 15171 0a12 73746174 		.ascii	"status\000"
 15171      757300
 15172              	.LASF253:
 15173 0a19 75504C4C 		.ascii	"uPLLOUTMAX\000"
 15173      4F55544D 
 15173      415800
 15174              	.LASF247:
 15175 0a24 75574B49 		.ascii	"uWKI\000"
 15175      00
 15176              	.LASF180:
 15177 0a29 73797369 		.ascii	"sysid\000"
 15177      6400
 15178              	.LASF49:
 15179 0a2f 705F6D70 		.ascii	"p_mpool\000"
 15179      6F6F6C00 
 15180              	.LASF299:
 15181 0a37 6D61766C 		.ascii	"mavlink_msg_read_board_name_decode\000"
 15181      696E6B5F 
 15181      6D73675F 
 15181      72656164 
 15181      5F626F61 
 15182              	.LASF47:
 15183 0a5a 705F6D74 		.ascii	"p_mtxlist\000"
 15183      786C6973 
 15183      7400
 15184              	.LASF246:
 15185 0a64 75574B50 		.ascii	"uWKP\000"
ARM GAS  C:\Users\IDONNO~1\AppData\Local\Temp\ccY27Fyg.s 			page 276


 15185      00
 15186              	.LASF52:
 15187 0a69 63685F74 		.ascii	"ch_thread\000"
 15187      68726561 
 15187      6400
 15188              	.LASF218:
 15189 0a73 5F5F6D61 		.ascii	"__mavlink_ack_t\000"
 15189      766C696E 
 15189      6B5F6163 
 15189      6B5F7400 
 15190              	.LASF263:
 15191 0a83 63726341 		.ascii	"crcAccum\000"
 15191      6363756D 
 15191      00
 15192              	.LASF75:
 15193 0a8c 73797374 		.ascii	"system_debug_t\000"
 15193      656D5F64 
 15193      65627567 
 15193      5F7400
 15194              	.LASF125:
 15195 0a9b 6D635F6D 		.ascii	"mc_motor_type\000"
 15195      6F746F72 
 15195      5F747970 
 15195      6500
 15196              	.LASF55:
 15197 0aa9 63685F74 		.ascii	"ch_threads_queue\000"
 15197      68726561 
 15197      64735F71 
 15197      75657565 
 15197      00
 15198              	.LASF282:
 15199 0aba 725F6D61 		.ascii	"r_mavlink_status\000"
 15199      766C696E 
 15199      6B5F7374 
 15199      61747573 
 15199      00
 15200              	.LASF128:
 15201 0acb 53454E53 		.ascii	"SENSOR_PORT_MODE_AS5047_SPI\000"
 15201      4F525F50 
 15201      4F52545F 
 15201      4D4F4445 
 15201      5F415335 
 15202              	.LASF145:
 15203 0ae7 6C5F6D61 		.ascii	"l_max_erpm_fbrake_cc\000"
 15203      785F6572 
 15203      706D5F66 
 15203      6272616B 
 15203      655F6363 
 15204              	.LASF106:
 15205 0afc 6D757465 		.ascii	"mutex_t\000"
 15205      785F7400 
 15206              	.LASF200:
 15207 0b04 6D61766C 		.ascii	"mavlink_parse_state_t\000"
 15207      696E6B5F 
 15207      70617273 
 15207      655F7374 
 15207      6174655F 
ARM GAS  C:\Users\IDONNO~1\AppData\Local\Temp\ccY27Fyg.s 			page 277


 15208              	.LASF26:
 15209 0b1a 6D73675F 		.ascii	"msg_t\000"
 15209      7400
 15210              	.LASF169:
 15211 0b20 776F7574 		.ascii	"wout_max\000"
 15211      5F6D6178 
 15211      00
 15212              	.LASF220:
 15213 0b29 6D73675F 		.ascii	"msg_id\000"
 15213      696400
 15214              	.LASF87:
 15215 0b30 636F6E74 		.ascii	"context\000"
 15215      65787400 
 15216              	.LASF119:
 15217 0b38 53454E53 		.ascii	"SENSOR_MODE_SENSORED\000"
 15217      4F525F4D 
 15217      4F44455F 
 15217      53454E53 
 15217      4F524544 
 15218              	.LASF184:
 15219 0b4d 6D61766C 		.ascii	"mavlink_message_t\000"
 15219      696E6B5F 
 15219      6D657373 
 15219      6167655F 
 15219      7400
 15220              	.LASF39:
 15221 0b5f 705F666C 		.ascii	"p_flags\000"
 15221      61677300 
 15222              	.LASF65:
 15223 0b67 76697274 		.ascii	"virtual_timer_t\000"
 15223      75616C5F 
 15223      74696D65 
 15223      725F7400 
 15224              	.LASF336:
 15225 0b77 6D656D73 		.ascii	"memset\000"
 15225      657400
 15226              	.LASF310:
 15227 0b7e 7365745F 		.ascii	"set_mcconf\000"
 15227      6D63636F 
 15227      6E6600
 15228              	.LASF256:
 15229 0b89 5F5F6D61 		.ascii	"__mavlink_set_velocity_t\000"
 15229      766C696E 
 15229      6B5F7365 
 15229      745F7665 
 15229      6C6F6369 
 15230              	.LASF166:
 15231 0ba2 6D5F656E 		.ascii	"m_encoder_counts\000"
 15231      636F6465 
 15231      725F636F 
 15231      756E7473 
 15231      00
 15232              	.LASF163:
 15233 0bb3 6C6F5F63 		.ascii	"lo_current_motor_max_now\000"
 15233      75727265 
 15233      6E745F6D 
 15233      6F746F72 
ARM GAS  C:\Users\IDONNO~1\AppData\Local\Temp\ccY27Fyg.s 			page 278


 15233      5F6D6178 
 15234              	.LASF48:
 15235 0bcc 705F7265 		.ascii	"p_realprio\000"
 15235      616C7072 
 15235      696F00
 15236              	.LASF214:
 15237 0bd7 6D61766C 		.ascii	"mavlink_status_t\000"
 15237      696E6B5F 
 15237      73746174 
 15237      75735F74 
 15237      00
 15238              	.LASF226:
 15239 0be8 70617261 		.ascii	"param\000"
 15239      6D00
 15240              	.LASF298:
 15241 0bee 6D61765F 		.ascii	"mav_msg\000"
 15241      6D736700 
 15242              	.LASF24:
 15243 0bf6 74736C69 		.ascii	"tslices_t\000"
 15243      6365735F 
 15243      7400
 15244              	.LASF62:
 15245 0c00 725F6F6C 		.ascii	"r_older\000"
 15245      64657200 
 15246              	.LASF233:
 15247 0c08 5F5F6D61 		.ascii	"__mavlink_write_eeprom_t\000"
 15247      766C696E 
 15247      6B5F7772 
 15247      6974655F 
 15247      65657072 
 15248              	.LASF206:
 15249 0c21 62756666 		.ascii	"buffer_overrun\000"
 15249      65725F6F 
 15249      76657272 
 15249      756E00
 15250              	.LASF300:
 15251 0c30 72656164 		.ascii	"read_board_name\000"
 15251      5F626F61 
 15251      72645F6E 
 15251      616D6500 
 15252              	.LASF293:
 15253 0c40 6D61765F 		.ascii	"mav_array_memcpy\000"
 15253      61727261 
 15253      795F6D65 
 15253      6D637079 
 15253      00
 15254              	.LASF203:
 15255 0c51 4D41564C 		.ascii	"MAVLINK_FRAMING_BAD_CRC\000"
 15255      494E4B5F 
 15255      4652414D 
 15255      494E475F 
 15255      4241445F 
 15256              	.LASF126:
 15257 0c69 53454E53 		.ascii	"SENSOR_PORT_MODE_HALL\000"
 15257      4F525F50 
 15257      4F52545F 
 15257      4D4F4445 
ARM GAS  C:\Users\IDONNO~1\AppData\Local\Temp\ccY27Fyg.s 			page 279


 15257      5F48414C 
 15258              	.LASF45:
 15259 0c7f 705F6D73 		.ascii	"p_msg\000"
 15259      6700
 15260              	.LASF290:
 15261 0c85 6D61766C 		.ascii	"mavlink_msg_debug_string_pack_chan\000"
 15261      696E6B5F 
 15261      6D73675F 
 15261      64656275 
 15261      675F7374 
 15262              	.LASF210:
 15263 0ca8 63757272 		.ascii	"current_rx_seq\000"
 15263      656E745F 
 15263      72785F73 
 15263      657100
 15264              	.LASF21:
 15265 0cb7 746D6F64 		.ascii	"tmode_t\000"
 15265      655F7400 
 15266              	.LASF176:
 15267 0cbf 6D63436F 		.ascii	"mcConfiguration_t\000"
 15267      6E666967 
 15267      75726174 
 15267      696F6E5F 
 15267      7400
 15268              	.LASF82:
 15269 0cd1 6D61696E 		.ascii	"mainthread\000"
 15269      74687265 
 15269      616400
 15270              	.LASF271:
 15271 0cdc 6D61766C 		.ascii	"mavlink_finalize_message_chan\000"
 15271      696E6B5F 
 15271      66696E61 
 15271      6C697A65 
 15271      5F6D6573 
 15272              	.LASF332:
 15273 0cfa 6D635F69 		.ascii	"mc_interface_get_configuration\000"
 15273      6E746572 
 15273      66616365 
 15273      5F676574 
 15273      5F636F6E 
 15274              	.LASF110:
 15275 0d19 6C6F6E67 		.ascii	"long double\000"
 15275      20646F75 
 15275      626C6500 
 15276              	.LASF16:
 15277 0d25 75696E74 		.ascii	"uint16_t\000"
 15277      31365F74 
 15277      00
 15278              	.LASF321:
 15279 0d2e 62756666 		.ascii	"bufferIndex\000"
 15279      6572496E 
 15279      64657800 
 15280              	.LASF50:
 15281 0d3a 74687265 		.ascii	"thread_reference_t\000"
 15281      61645F72 
 15281      65666572 
 15281      656E6365 
ARM GAS  C:\Users\IDONNO~1\AppData\Local\Temp\ccY27Fyg.s 			page 280


 15281      5F7400
 15282              	.LASF2:
 15283 0d4d 73697A65 		.ascii	"size_t\000"
 15283      5F7400
 15284              	.LASF20:
 15285 0d54 7274636E 		.ascii	"rtcnt_t\000"
 15285      745F7400 
 15286              	.LASF162:
 15287 0d5c 6C6F5F69 		.ascii	"lo_in_current_min\000"
 15287      6E5F6375 
 15287      7272656E 
 15287      745F6D69 
 15287      6E00
 15288              	.LASF295:
 15289 0d6e 6D61766C 		.ascii	"mavlink_msg_send\000"
 15289      696E6B5F 
 15289      6D73675F 
 15289      73656E64 
 15289      00
 15290              	.LASF105:
 15291 0d7f 63686172 		.ascii	"char\000"
 15291      00
 15292              	.LASF118:
 15293 0d84 53454E53 		.ascii	"SENSOR_MODE_SENSORLESS\000"
 15293      4F525F4D 
 15293      4F44455F 
 15293      53454E53 
 15293      4F524C45 
 15294              	.LASF141:
 15295 0d9b 6C5F6D69 		.ascii	"l_min_erpm\000"
 15295      6E5F6572 
 15295      706D00
 15296              	.LASF305:
 15297 0da6 6D63636F 		.ascii	"mcconf\000"
 15297      6E6600
 15298              	.LASF23:
 15299 0dad 74726566 		.ascii	"trefs_t\000"
 15299      735F7400 
 15300              	.LASF193:
 15301 0db5 4D41564C 		.ascii	"MAVLINK_PARSE_STATE_GOT_LENGTH\000"
 15301      494E4B5F 
 15301      50415253 
 15301      455F5354 
 15301      4154455F 
 15302              	.LASF157:
 15303 0dd4 6C5F7761 		.ascii	"l_watt_max\000"
 15303      74745F6D 
 15303      617800
 15304              	.LASF235:
 15305 0ddf 5F5F6D61 		.ascii	"__mavlink_set_mcconf_t\000"
 15305      766C696E 
 15305      6B5F7365 
 15305      745F6D63 
 15305      636F6E66 
 15306              	.LASF63:
 15307 0df6 725F6375 		.ascii	"r_current\000"
 15307      7272656E 
ARM GAS  C:\Users\IDONNO~1\AppData\Local\Temp\ccY27Fyg.s 			page 281


 15307      7400
 15308              	.LASF140:
 15309 0e00 6C5F6162 		.ascii	"l_abs_current_max\000"
 15309      735F6375 
 15309      7272656E 
 15309      745F6D61 
 15309      7800
 15310              	.LASF46:
 15311 0e12 705F6570 		.ascii	"p_epending\000"
 15311      656E6469 
 15311      6E6700
 15312              	.LASF202:
 15313 0e1d 4D41564C 		.ascii	"MAVLINK_FRAMING_OK\000"
 15313      494E4B5F 
 15313      4652414D 
 15313      494E475F 
 15313      4F4B00
 15314              	.LASF102:
 15315 0e30 6D5F7175 		.ascii	"m_queue\000"
 15315      65756500 
 15316              	.LASF308:
 15317 0e38 6D635F69 		.ascii	"mc_interface_set_velocity\000"
 15317      6E746572 
 15317      66616365 
 15317      5F736574 
 15317      5F76656C 
 15318              	.LASF258:
 15319 0e52 6D61766C 		.ascii	"mavlink_set_velocity_t\000"
 15319      696E6B5F 
 15319      7365745F 
 15319      76656C6F 
 15319      63697479 
 15320              	.LASF88:
 15321 0e69 706F7274 		.ascii	"port_intctx\000"
 15321      5F696E74 
 15321      63747800 
 15322              	.LASF250:
 15323 0e75 75504C4C 		.ascii	"uPLLKP\000"
 15323      4B5000
 15324              	.LASF245:
 15325 0e7c 75514F55 		.ascii	"uQOUTMAX\000"
 15325      544D4158 
 15325      00
 15326              	.LASF221:
 15327 0e85 6C656E67 		.ascii	"length\000"
 15327      746800
 15328              	.LASF301:
 15329 0e8c 636D645F 		.ascii	"cmd_send_error\000"
 15329      73656E64 
 15329      5F657272 
 15329      6F7200
 15330              	.LASF316:
 15331 0e9b 6D61766C 		.ascii	"mavlink_parse_char\000"
 15331      696E6B5F 
 15331      70617273 
 15331      655F6368 
 15331      617200
ARM GAS  C:\Users\IDONNO~1\AppData\Local\Temp\ccY27Fyg.s 			page 282


 15332              	.LASF79:
 15333 0eae 63685F73 		.ascii	"ch_system\000"
 15333      79737465 
 15333      6D00
 15334              	.LASF272:
 15335 0eb8 73797374 		.ascii	"system_id\000"
 15335      656D5F69 
 15335      6400
 15336              	.LASF31:
 15337 0ec2 705F6E65 		.ascii	"p_next\000"
 15337      787400
 15338              	.LASF19:
 15339 0ec9 75696E74 		.ascii	"uint64_t\000"
 15339      36345F74 
 15339      00
 15340              	.LASF34:
 15341 0ed2 705F6374 		.ascii	"p_ctx\000"
 15341      7800
 15342              	.LASF286:
 15343 0ed8 636D645F 		.ascii	"cmd_read_board_name\000"
 15343      72656164 
 15343      5F626F61 
 15343      72645F6E 
 15343      616D6500 
 15344              	.LASF117:
 15345 0eec 6D635F63 		.ascii	"mc_comm_mode\000"
 15345      6F6D6D5F 
 15345      6D6F6465 
 15345      00
 15346              	.LASF127:
 15347 0ef9 53454E53 		.ascii	"SENSOR_PORT_MODE_ABI\000"
 15347      4F525F50 
 15347      4F52545F 
 15347      4D4F4445 
 15347      5F414249 
 15348              	.LASF80:
 15349 0f0e 726C6973 		.ascii	"rlist\000"
 15349      7400
 15350              	.LASF277:
 15351 0f14 6D61766C 		.ascii	"mavlink_update_checksum\000"
 15351      696E6B5F 
 15351      75706461 
 15351      74655F63 
 15351      6865636B 
 15352              	.LASF327:
 15353 0f2c 626F6172 		.ascii	"board_name\000"
 15353      645F6E61 
 15353      6D6500
 15354              	.LASF223:
 15355 0f37 6D61766C 		.ascii	"mavlink_ack_t\000"
 15355      696E6B5F 
 15355      61636B5F 
 15355      7400
 15356              	.LASF99:
 15357 0f45 735F7175 		.ascii	"s_queue\000"
 15357      65756500 
 15358              	.LASF213:
ARM GAS  C:\Users\IDONNO~1\AppData\Local\Temp\ccY27Fyg.s 			page 283


 15359 0f4d 7061636B 		.ascii	"packet_rx_drop_count\000"
 15359      65745F72 
 15359      785F6472 
 15359      6F705F63 
 15359      6F756E74 
 15360              	.LASF3:
 15361 0f62 5F5F7569 		.ascii	"__uint8_t\000"
 15361      6E74385F 
 15361      7400
 15362              	.LASF177:
 15363 0f6c 5F5F6D61 		.ascii	"__mavlink_message\000"
 15363      766C696E 
 15363      6B5F6D65 
 15363      73736167 
 15363      6500
 15364              	.LASF136:
 15365 0f7e 6C5F6375 		.ascii	"l_current_max\000"
 15365      7272656E 
 15365      745F6D61 
 15365      7800
 15366              	.LASF0:
 15367 0f8c 756E7369 		.ascii	"unsigned int\000"
 15367      676E6564 
 15367      20696E74 
 15367      00
 15368              	.LASF283:
 15369 0f99 6D61765F 		.ascii	"mav_ack\000"
 15369      61636B00 
 15370              	.LASF179:
 15371 0fa1 6D616769 		.ascii	"magic\000"
 15371      6300
 15372              	.LASF239:
 15373 0fa7 75444B49 		.ascii	"uDKI\000"
 15373      00
 15374              	.LASF129:
 15375 0fac 73656E73 		.ascii	"sensor_port_mode\000"
 15375      6F725F70 
 15375      6F72745F 
 15375      6D6F6465 
 15375      00
 15376              	.LASF211:
 15377 0fbd 63757272 		.ascii	"current_tx_seq\000"
 15377      656E745F 
 15377      74785F73 
 15377      657100
 15378              	.LASF32:
 15379 0fcc 705F7072 		.ascii	"p_prev\000"
 15379      657600
 15380              	.LASF84:
 15381 0fd3 73697A65 		.ascii	"sizetype\000"
 15381      74797065 
 15381      00
 15382              	.LASF208:
 15383 0fdc 70617273 		.ascii	"parse_state\000"
 15383      655F7374 
 15383      61746500 
 15384              	.LASF11:
ARM GAS  C:\Users\IDONNO~1\AppData\Local\Temp\ccY27Fyg.s 			page 284


 15385 0fe8 6C6F6E67 		.ascii	"long unsigned int\000"
 15385      20756E73 
 15385      69676E65 
 15385      6420696E 
 15385      7400
 15386              	.LASF170:
 15387 0ffa 706C6C5F 		.ascii	"pll_kp\000"
 15387      6B7000
 15388              	.LASF56:
 15389 1001 72656164 		.ascii	"ready_list_t\000"
 15389      795F6C69 
 15389      73745F74 
 15389      00
 15390              	.LASF281:
 15391 100e 725F6D65 		.ascii	"r_message\000"
 15391      73736167 
 15391      6500
 15392              	.LASF297:
 15393 1018 705F6163 		.ascii	"p_ack\000"
 15393      6B00
 15394              	.LASF17:
 15395 101e 696E7433 		.ascii	"int32_t\000"
 15395      325F7400 
 15396              	.LASF152:
 15397 1026 6C5F7465 		.ascii	"l_temp_fet_end\000"
 15397      6D705F66 
 15397      65745F65 
 15397      6E6400
 15398              	.LASF289:
 15399 1035 7061636B 		.ascii	"packet\000"
 15399      657400
 15400              	.LASF173:
 15401 103c 706C6C6F 		.ascii	"pllout_max\000"
 15401      75745F6D 
 15401      617800
 15402              	.LASF237:
 15403 1047 7550574D 		.ascii	"uPWMFREQUENCY\000"
 15403      46524551 
 15403      55454E43 
 15403      5900
 15404              	.LASF95:
 15405 1055 77747365 		.ascii	"wtsemp\000"
 15405      6D7000
 15406              	.LASF172:
 15407 105c 706C6C5F 		.ascii	"pll_kc\000"
 15407      6B6300
 15408              	.LASF147:
 15409 1063 6C5F6D61 		.ascii	"l_max_vin\000"
 15409      785F7669 
 15409      6E00
 15410              	.LASF278:
 15411 106d 6D61766C 		.ascii	"mavlink_get_channel_buffer\000"
 15411      696E6B5F 
 15411      6765745F 
 15411      6368616E 
 15411      6E656C5F 
 15412              	.LASF228:
ARM GAS  C:\Users\IDONNO~1\AppData\Local\Temp\ccY27Fyg.s 			page 285


 15413 1088 5F5F6D61 		.ascii	"__mavlink_read_board_name_t\000"
 15413      766C696E 
 15413      6B5F7265 
 15413      61645F62 
 15413      6F617264 
 15414              	.LASF171:
 15415 10a4 706C6C5F 		.ascii	"pll_ki\000"
 15415      6B6900
 15416              	.LASF231:
 15417 10ab 74797065 		.ascii	"type\000"
 15417      00
 15418              	.LASF167:
 15419 10b0 646F7574 		.ascii	"dout_max\000"
 15419      5F6D6178 
 15419      00
 15420              	.LASF4:
 15421 10b9 756E7369 		.ascii	"unsigned char\000"
 15421      676E6564 
 15421      20636861 
 15421      7200
 15422              	.LASF337:
 15423 10c7 6D635F69 		.ascii	"mc_interface_set_configuration\000"
 15423      6E746572 
 15423      66616365 
 15423      5F736574 
 15423      5F636F6E 
 15424              	.LASF10:
 15425 10e6 5F5F7569 		.ascii	"__uint32_t\000"
 15425      6E743332 
 15425      5F7400
 15426              	.LASF160:
 15427 10f1 6C6F5F63 		.ascii	"lo_current_min\000"
 15427      75727265 
 15427      6E745F6D 
 15427      696E00
 15428              	.LASF330:
 15429 1100 7573625F 		.ascii	"usb_serial_send\000"
 15429      73657269 
 15429      616C5F73 
 15429      656E6400 
 15430              	.LASF72:
 15431 1110 76697274 		.ascii	"virtual_timers_list_t\000"
 15431      75616C5F 
 15431      74696D65 
 15431      72735F6C 
 15431      6973745F 
 15432              	.LASF40:
 15433 1126 705F7265 		.ascii	"p_refs\000"
 15433      667300
 15434              	.LASF77:
 15435 112d 70616E69 		.ascii	"panic_msg\000"
 15435      635F6D73 
 15435      6700
 15436              	.LASF276:
 15437 1137 6D61766C 		.ascii	"mavlink_start_checksum\000"
 15437      696E6B5F 
 15437      73746172 
ARM GAS  C:\Users\IDONNO~1\AppData\Local\Temp\ccY27Fyg.s 			page 286


 15437      745F6368 
 15437      65636B73 
 15438              	.LASF334:
 15439 114e 63685468 		.ascii	"chThdSleep\000"
 15439      64536C65 
 15439      657000
 15440              	.LASF217:
 15441 1159 6D61766C 		.ascii	"mavlink_debug_string_t\000"
 15441      696E6B5F 
 15441      64656275 
 15441      675F7374 
 15441      72696E67 
 15442              	.LASF41:
 15443 1170 705F7072 		.ascii	"p_preempt\000"
 15443      65656D70 
 15443      7400
 15444              	.LASF319:
 15445 117a 6D61766C 		.ascii	"mavlink_frame_char_buffer\000"
 15445      696E6B5F 
 15445      6672616D 
 15445      655F6368 
 15445      61725F62 
 15446              	.LASF174:
 15447 1194 64716B5F 		.ascii	"dqk_a\000"
 15447      6100
 15448              	.LASF189:
 15449 119a 4D41564C 		.ascii	"MAVLINK_PARSE_STATE_UNINIT\000"
 15449      494E4B5F 
 15449      50415253 
 15449      455F5354 
 15449      4154455F 
 15450              	.LASF340:
 15451 11b5 443A5C67 		.ascii	"D:\\git\\oroca_bldc_dev\\oroca_bldc_fw\\oroca_bldc_"
 15451      69745C6F 
 15451      726F6361 
 15451      5F626C64 
 15451      635F6465 
 15452 11e4 63686962 		.ascii	"chibios\000"
 15452      696F7300 
 15453              	.LASF67:
 15454 11ec 76745F6E 		.ascii	"vt_next\000"
 15454      65787400 
 15455              	.LASF273:
 15456 11f4 636F6D70 		.ascii	"component_id\000"
 15456      6F6E656E 
 15456      745F6964 
 15456      00
 15457              	.LASF78:
 15458 1201 63685F73 		.ascii	"ch_system_t\000"
 15458      79737465 
 15458      6D5F7400 
 15459              	.LASF120:
 15460 120d 53454E53 		.ascii	"SENSOR_MODE_HYBRID\000"
 15460      4F525F4D 
 15460      4F44455F 
 15460      48594252 
 15460      494400
ARM GAS  C:\Users\IDONNO~1\AppData\Local\Temp\ccY27Fyg.s 			page 287


 15461              	.LASF94:
 15462 1220 77747472 		.ascii	"wttrp\000"
 15462      7000
 15463              	.LASF236:
 15464 1226 75525348 		.ascii	"uRSHUNT\000"
 15464      554E5400 
 15465              	.LASF115:
 15466 122e 434F4D4D 		.ascii	"COMM_MODE_INTEGRATE\000"
 15466      5F4D4F44 
 15466      455F494E 
 15466      54454752 
 15466      41544500 
 15467              	.LASF306:
 15468 1242 6D61766C 		.ascii	"mavlink_msg_set_velocity_decode\000"
 15468      696E6B5F 
 15468      6D73675F 
 15468      7365745F 
 15468      76656C6F 
 15469              	.LASF104:
 15470 1262 6D5F6E65 		.ascii	"m_next\000"
 15470      787400
 15471              	.LASF1:
 15472 1269 7369676E 		.ascii	"signed char\000"
 15472      65642063 
 15472      68617200 
 15473              	.LASF260:
 15474 1275 6572725F 		.ascii	"err_code_t\000"
 15474      636F6465 
 15474      5F7400
 15475              	.LASF7:
 15476 1280 73686F72 		.ascii	"short unsigned int\000"
 15476      7420756E 
 15476      7369676E 
 15476      65642069 
 15476      6E7400
 15477              	.LASF60:
 15478 1293 725F6374 		.ascii	"r_ctx\000"
 15478      7800
 15479              	.LASF240:
 15480 1299 75444B43 		.ascii	"uDKC\000"
 15480      00
 15481              	.LASF86:
 15482 129e 73746B61 		.ascii	"stkalign_t\000"
 15482      6C69676E 
 15482      5F7400
 15483              	.LASF335:
 15484 12a9 6D656D63 		.ascii	"memcpy\000"
 15484      707900
 15485              	.LASF204:
 15486 12b0 5F5F6D61 		.ascii	"__mavlink_status\000"
 15486      766C696E 
 15486      6B5F7374 
 15486      61747573 
 15486      00
 15487              	.LASF238:
 15488 12c1 75444B50 		.ascii	"uDKP\000"
 15488      00
ARM GAS  C:\Users\IDONNO~1\AppData\Local\Temp\ccY27Fyg.s 			page 288


 15489              	.LASF124:
 15490 12c6 4D4F544F 		.ascii	"MOTOR_TYPE_FOC\000"
 15490      525F5459 
 15490      50455F46 
 15490      4F4300
 15491              	.LASF315:
 15492 12d5 636D645F 		.ascii	"cmd_read_tag\000"
 15492      72656164 
 15492      5F746167 
 15492      00
 15493              	.LASF207:
 15494 12e2 70617273 		.ascii	"parse_error\000"
 15494      655F6572 
 15494      726F7200 
 15495              	.LASF108:
 15496 12ee 646F7562 		.ascii	"double\000"
 15496      6C6500
 15497              	.LASF133:
 15498 12f5 636F6D6D 		.ascii	"comm_mode\000"
 15498      5F6D6F64 
 15498      6500
 15499              	.LASF68:
 15500 12ff 76745F70 		.ascii	"vt_prev\000"
 15500      72657600 
 15501              	.LASF225:
 15502 1307 72657370 		.ascii	"resp\000"
 15502      00
 15503              	.LASF254:
 15504 130c 75564444 		.ascii	"uVDD\000"
 15504      00
 15505              	.LASF199:
 15506 1311 4D41564C 		.ascii	"MAVLINK_PARSE_STATE_GOT_BAD_CRC1\000"
 15506      494E4B5F 
 15506      50415253 
 15506      455F5354 
 15506      4154455F 
 15507              	.LASF280:
 15508 1332 6D61766C 		.ascii	"mavlink_frame_char\000"
 15508      696E6B5F 
 15508      6672616D 
 15508      655F6368 
 15508      617200
 15509              	.LASF279:
 15510 1345 6D5F6D61 		.ascii	"m_mavlink_buffer\000"
 15510      766C696E 
 15510      6B5F6275 
 15510      66666572 
 15510      00
 15511              	.LASF249:
 15512 1356 75574F55 		.ascii	"uWOUTMAX\000"
 15512      544D4158 
 15512      00
 15513              	.LASF288:
 15514 135f 6D61766C 		.ascii	"mavlink_msg_ack_pack_chan\000"
 15514      696E6B5F 
 15514      6D73675F 
 15514      61636B5F 
ARM GAS  C:\Users\IDONNO~1\AppData\Local\Temp\ccY27Fyg.s 			page 289


 15514      7061636B 
 15515              	.LASF132:
 15516 1379 70776D5F 		.ascii	"pwm_mode\000"
 15516      6D6F6465 
 15516      00
 15517              	.LASF294:
 15518 1382 64657374 		.ascii	"dest\000"
 15518      00
 15519              	.LASF92:
 15520 1387 65786974 		.ascii	"exitcode\000"
 15520      636F6465 
 15520      00
 15521              	.LASF296:
 15522 1390 72657370 		.ascii	"resp_ack\000"
 15522      5F61636B 
 15522      00
 15523              	.LASF248:
 15524 1399 75574B43 		.ascii	"uWKC\000"
 15524      00
 15525              	.LASF144:
 15526 139e 6C5F6D61 		.ascii	"l_max_erpm_fbrake\000"
 15526      785F6572 
 15526      706D5F66 
 15526      6272616B 
 15526      6500
 15527              	.LASF153:
 15528 13b0 6C5F7465 		.ascii	"l_temp_motor_start\000"
 15528      6D705F6D 
 15528      6F746F72 
 15528      5F737461 
 15528      727400
 15529              		.ident	"GCC: (GNU Tools for ARM Embedded Processors) 5.4.1 20160919 (release) [ARM/embedded-5-bran
ARM GAS  C:\Users\IDONNO~1\AppData\Local\Temp\ccY27Fyg.s 			page 290


DEFINED SYMBOLS
                            *ABS*:00000000 mavlink_proc.c
C:\Users\IDONNO~1\AppData\Local\Temp\ccY27Fyg.s:22     .text.mavlink_msg_send:00000000 $t
C:\Users\IDONNO~1\AppData\Local\Temp\ccY27Fyg.s:28     .text.mavlink_msg_send:00000000 mavlink_msg_send
C:\Users\IDONNO~1\AppData\Local\Temp\ccY27Fyg.s:109    .text.resp_ack:00000000 $t
C:\Users\IDONNO~1\AppData\Local\Temp\ccY27Fyg.s:115    .text.resp_ack:00000000 resp_ack
C:\Users\IDONNO~1\AppData\Local\Temp\ccY27Fyg.s:428    .text.resp_ack:00000100 $d
C:\Users\IDONNO~1\AppData\Local\Temp\ccY27Fyg.s:433    .text.cmd_send_error:00000000 $t
C:\Users\IDONNO~1\AppData\Local\Temp\ccY27Fyg.s:439    .text.cmd_send_error:00000000 cmd_send_error
C:\Users\IDONNO~1\AppData\Local\Temp\ccY27Fyg.s:478    .text.cmd_read_version:00000000 $t
C:\Users\IDONNO~1\AppData\Local\Temp\ccY27Fyg.s:484    .text.cmd_read_version:00000000 cmd_read_version
C:\Users\IDONNO~1\AppData\Local\Temp\ccY27Fyg.s:620    .text.cmd_read_version:00000084 $d
C:\Users\IDONNO~1\AppData\Local\Temp\ccY27Fyg.s:626    .text.cmd_read_board_name:00000000 $t
C:\Users\IDONNO~1\AppData\Local\Temp\ccY27Fyg.s:632    .text.cmd_read_board_name:00000000 cmd_read_board_name
C:\Users\IDONNO~1\AppData\Local\Temp\ccY27Fyg.s:759    .text.cmd_read_board_name:00000074 $d
C:\Users\IDONNO~1\AppData\Local\Temp\ccY27Fyg.s:764    .text.cmd_write_eeprom:00000000 $t
C:\Users\IDONNO~1\AppData\Local\Temp\ccY27Fyg.s:770    .text.cmd_write_eeprom:00000000 cmd_write_eeprom
C:\Users\IDONNO~1\AppData\Local\Temp\ccY27Fyg.s:864    .text.cmd_set_velocity:00000000 $t
C:\Users\IDONNO~1\AppData\Local\Temp\ccY27Fyg.s:870    .text.cmd_set_velocity:00000000 cmd_set_velocity
C:\Users\IDONNO~1\AppData\Local\Temp\ccY27Fyg.s:967    .text.cmd_set_mcconf:00000000 $t
C:\Users\IDONNO~1\AppData\Local\Temp\ccY27Fyg.s:973    .text.cmd_set_mcconf:00000000 cmd_set_mcconf
C:\Users\IDONNO~1\AppData\Local\Temp\ccY27Fyg.s:1215   .text.cmd_set_appconf:00000000 $t
C:\Users\IDONNO~1\AppData\Local\Temp\ccY27Fyg.s:1221   .text.cmd_set_appconf:00000000 cmd_set_appconf
C:\Users\IDONNO~1\AppData\Local\Temp\ccY27Fyg.s:1317   .text.mavlink_dbgString:00000000 $t
C:\Users\IDONNO~1\AppData\Local\Temp\ccY27Fyg.s:1323   .text.mavlink_dbgString:00000000 mavlink_dbgString
C:\Users\IDONNO~1\AppData\Local\Temp\ccY27Fyg.s:1583   .text.mavlink_dbgString:000000ec $d
C:\Users\IDONNO~1\AppData\Local\Temp\ccY27Fyg.s:1592   .text.cmd_read_tag:00000000 $t
C:\Users\IDONNO~1\AppData\Local\Temp\ccY27Fyg.s:1598   .text.cmd_read_tag:00000000 cmd_read_tag
C:\Users\IDONNO~1\AppData\Local\Temp\ccY27Fyg.s:1717   .text.cmd_read_tag:0000007c $d
C:\Users\IDONNO~1\AppData\Local\Temp\ccY27Fyg.s:1727   .text.mavlink_msg_recv:00000000 $t
C:\Users\IDONNO~1\AppData\Local\Temp\ccY27Fyg.s:1733   .text.mavlink_msg_recv:00000000 mavlink_msg_recv
C:\Users\IDONNO~1\AppData\Local\Temp\ccY27Fyg.s:1790   .text.mavlink_msg_recv:00000020 $d
C:\Users\IDONNO~1\AppData\Local\Temp\ccY27Fyg.s:1801   .text.mavlink_msg_recv:00000036 $t
C:\Users\IDONNO~1\AppData\Local\Temp\ccY27Fyg.s:1856   .text.mavlink_msg_recv:00000050 $d
C:\Users\IDONNO~1\AppData\Local\Temp\ccY27Fyg.s:1867   .text.mavlink_msg_recv:00000066 $t
C:\Users\IDONNO~1\AppData\Local\Temp\ccY27Fyg.s:2561   .text.mavlink_msg_recv:00000300 $d
C:\Users\IDONNO~1\AppData\Local\Temp\ccY27Fyg.s:2568   .text.mavlink_msg_recv:00000310 $t
C:\Users\IDONNO~1\AppData\Local\Temp\ccY27Fyg.s:3272   .text.mavlink_msg_recv:00000574 $d
C:\Users\IDONNO~1\AppData\Local\Temp\ccY27Fyg.s:3285   .text.mavlink_msg_process_vcp:00000000 $t
C:\Users\IDONNO~1\AppData\Local\Temp\ccY27Fyg.s:3291   .text.mavlink_msg_process_vcp:00000000 mavlink_msg_process_vcp
C:\Users\IDONNO~1\AppData\Local\Temp\ccY27Fyg.s:3374   .bss.gMsg:00000000 gMsg
C:\Users\IDONNO~1\AppData\Local\Temp\ccY27Fyg.s:3690   .bss.boot_revision:00000000 boot_revision
C:\Users\IDONNO~1\AppData\Local\Temp\ccY27Fyg.s:3676   .data.boot_version:00000000 boot_version
C:\Users\IDONNO~1\AppData\Local\Temp\ccY27Fyg.s:3662   .data.board_name:00000000 board_name
C:\Users\IDONNO~1\AppData\Local\Temp\ccY27Fyg.s:3364   .bss.m_mavlink_status.10569:00000000 $d
C:\Users\IDONNO~1\AppData\Local\Temp\ccY27Fyg.s:3368   .bss.m_mavlink_status.10569:00000000 m_mavlink_status.10569
C:\Users\IDONNO~1\AppData\Local\Temp\ccY27Fyg.s:3371   .bss.gMsg:00000000 $d
C:\Users\IDONNO~1\AppData\Local\Temp\ccY27Fyg.s:3377   .rodata.str1.4:00000000 $d
C:\Users\IDONNO~1\AppData\Local\Temp\ccY27Fyg.s:3396   .rodata.mavlink_message_crcs.10621:00000000 $d
C:\Users\IDONNO~1\AppData\Local\Temp\ccY27Fyg.s:3400   .rodata.mavlink_message_crcs.10621:00000000 mavlink_message_crcs.10621
C:\Users\IDONNO~1\AppData\Local\Temp\ccY27Fyg.s:3658   .data.board_name:00000000 $d
C:\Users\IDONNO~1\AppData\Local\Temp\ccY27Fyg.s:3665   .bss.msg.11562:00000000 $d
C:\Users\IDONNO~1\AppData\Local\Temp\ccY27Fyg.s:3669   .bss.msg.11562:00000000 msg.11562
C:\Users\IDONNO~1\AppData\Local\Temp\ccY27Fyg.s:3672   .data.boot_version:00000000 $d
C:\Users\IDONNO~1\AppData\Local\Temp\ccY27Fyg.s:3679   .bss.m_mavlink_buffer.10573:00000000 $d
C:\Users\IDONNO~1\AppData\Local\Temp\ccY27Fyg.s:3683   .bss.m_mavlink_buffer.10573:00000000 m_mavlink_buffer.10573
C:\Users\IDONNO~1\AppData\Local\Temp\ccY27Fyg.s:3686   .bss.boot_revision:00000000 $d
ARM GAS  C:\Users\IDONNO~1\AppData\Local\Temp\ccY27Fyg.s 			page 291


                     .debug_frame:00000010 $d

UNDEFINED SYMBOLS
memcpy
usb_serial_send
strlen
mc_interface_get_configuration
conf_general_store_mc_configuration
chThdSleep
mc_interface_set_velocity
memset
mc_interface_set_configuration
