ARM GAS  C:\Users\IDONNO~1\AppData\Local\Temp\ccbct5ml.s 			page 1


   1              		.syntax unified
   2              		.cpu cortex-m4
   3              		.eabi_attribute 27, 1
   4              		.eabi_attribute 28, 1
   5              		.fpu fpv4-sp-d16
   6              		.eabi_attribute 20, 1
   7              		.eabi_attribute 21, 1
   8              		.eabi_attribute 23, 3
   9              		.eabi_attribute 24, 1
  10              		.eabi_attribute 25, 1
  11              		.eabi_attribute 26, 1
  12              		.eabi_attribute 30, 2
  13              		.eabi_attribute 34, 1
  14              		.eabi_attribute 18, 4
  15              		.thumb
  16              		.syntax unified
  17              		.file	"mc_encoder.c"
  18              		.text
  19              	.Ltext0:
  20              		.cfi_sections	.debug_frame
  21              		.section	.text.encoder_deinit,"ax",%progbits
  22              		.align	2
  23              		.p2align 4,,15
  24              		.global	encoder_deinit
  25              		.thumb
  26              		.thumb_func
  27              		.type	encoder_deinit, %function
  28              	encoder_deinit:
  29              	.LFB256:
  30              		.file 1 "src/mc/mc_encoder.c"
  31              		.loc 1 93 0
  32              		.cfi_startproc
  33              		@ args = 0, pretend = 0, frame = 0
  34              		@ frame_needed = 0, uses_anonymous_args = 0
  35 0000 38B5     		push	{r3, r4, r5, lr}
  36              		.cfi_def_cfa_offset 16
  37              		.cfi_offset 3, -16
  38              		.cfi_offset 4, -12
  39              		.cfi_offset 5, -8
  40              		.cfi_offset 14, -4
  41              		.loc 1 94 0
  42 0002 2820     		movs	r0, #40
  43 0004 FFF7FEFF 		bl	nvicDisableVector
  44              	.LVL0:
  45              		.loc 1 99 0
  46 0008 134C     		ldr	r4, .L3
  47              		.loc 1 103 0
  48 000a 144D     		ldr	r5, .L3+4
  49              		.loc 1 95 0
  50 000c 1E20     		movs	r0, #30
  51 000e FFF7FEFF 		bl	nvicDisableVector
  52              	.LVL1:
  53              		.loc 1 97 0
  54 0012 1348     		ldr	r0, .L3+8
  55 0014 FFF7FEFF 		bl	TIM_DeInit
  56              	.LVL2:
  57              		.loc 1 99 0
ARM GAS  C:\Users\IDONNO~1\AppData\Local\Temp\ccbct5ml.s 			page 2


  58 0018 2046     		mov	r0, r4
  59 001a 2022     		movs	r2, #32
  60 001c 4021     		movs	r1, #64
  61 001e FFF7FEFF 		bl	_pal_lld_setgroupmode
  62              	.LVL3:
  63              		.loc 1 100 0
  64 0022 2022     		movs	r2, #32
  65 0024 1146     		mov	r1, r2
  66 0026 2046     		mov	r0, r4
  67 0028 FFF7FEFF 		bl	_pal_lld_setgroupmode
  68              	.LVL4:
  69              		.loc 1 101 0
  70 002c 2046     		mov	r0, r4
  71 002e 2022     		movs	r2, #32
  72 0030 1021     		movs	r1, #16
  73 0032 FFF7FEFF 		bl	_pal_lld_setgroupmode
  74              	.LVL5:
  75              		.loc 1 103 0
  76 0036 2846     		mov	r0, r5
  77 0038 2022     		movs	r2, #32
  78 003a 4021     		movs	r1, #64
  79 003c FFF7FEFF 		bl	_pal_lld_setgroupmode
  80              	.LVL6:
  81              		.loc 1 104 0
  82 0040 2022     		movs	r2, #32
  83 0042 8021     		movs	r1, #128
  84 0044 2846     		mov	r0, r5
  85 0046 FFF7FEFF 		bl	_pal_lld_setgroupmode
  86              	.LVL7:
  87              		.loc 1 106 0
  88 004a 0649     		ldr	r1, .L3+12
  89              		.loc 1 107 0
  90 004c 064A     		ldr	r2, .L3+16
  91              		.loc 1 106 0
  92 004e 0023     		movs	r3, #0
  93 0050 0B70     		strb	r3, [r1]
  94              		.loc 1 107 0
  95 0052 1370     		strb	r3, [r2]
  96 0054 38BD     		pop	{r3, r4, r5, pc}
  97              	.L4:
  98 0056 00BF     		.align	2
  99              	.L3:
 100 0058 00000240 		.word	1073872896
 101 005c 00040240 		.word	1073873920
 102 0060 00080040 		.word	1073743872
 103 0064 00000000 		.word	.LANCHOR0
 104 0068 00000000 		.word	.LANCHOR1
 105              		.cfi_endproc
 106              	.LFE256:
 107              		.size	encoder_deinit, .-encoder_deinit
 108              		.section	.text.encoder_init_abi,"ax",%progbits
 109              		.align	2
 110              		.p2align 4,,15
 111              		.global	encoder_init_abi
 112              		.thumb
 113              		.thumb_func
 114              		.type	encoder_init_abi, %function
ARM GAS  C:\Users\IDONNO~1\AppData\Local\Temp\ccbct5ml.s 			page 3


 115              	encoder_init_abi:
 116              	.LFB257:
 117              		.loc 1 111 0
 118              		.cfi_startproc
 119              		@ args = 0, pretend = 0, frame = 8
 120              		@ frame_needed = 0, uses_anonymous_args = 0
 121              	.LVL8:
 122 0000 70B5     		push	{r4, r5, r6, lr}
 123              		.cfi_def_cfa_offset 16
 124              		.cfi_offset 4, -16
 125              		.cfi_offset 5, -12
 126              		.cfi_offset 6, -8
 127              		.cfi_offset 14, -4
 128              		.loc 1 116 0
 129 0002 284E     		ldr	r6, .L7
 130              		.loc 1 118 0
 131 0004 284C     		ldr	r4, .L7+4
 132              		.loc 1 115 0
 133 0006 294B     		ldr	r3, .L7+8
 134              		.loc 1 116 0
 135 0008 3060     		str	r0, [r6]
 136              		.loc 1 111 0
 137 000a 82B0     		sub	sp, sp, #8
 138              		.cfi_def_cfa_offset 24
 139              		.loc 1 115 0
 140 000c 0025     		movs	r5, #0
 141              		.loc 1 118 0
 142 000e 2046     		mov	r0, r4
 143              	.LVL9:
 144 0010 4FF48172 		mov	r2, #258
 145 0014 4021     		movs	r1, #64
 146              		.loc 1 115 0
 147 0016 1D70     		strb	r5, [r3]
 148              		.loc 1 118 0
 149 0018 FFF7FEFF 		bl	_pal_lld_setgroupmode
 150              	.LVL10:
 151              		.loc 1 119 0
 152 001c 4FF48172 		mov	r2, #258
 153 0020 2046     		mov	r0, r4
 154 0022 8021     		movs	r1, #128
 155 0024 FFF7FEFF 		bl	_pal_lld_setgroupmode
 156              	.LVL11:
 157              		.loc 1 123 0
 158 0028 0121     		movs	r1, #1
 159 002a 0420     		movs	r0, #4
 160              		.loc 1 128 0
 161 002c A4F5FE34 		sub	r4, r4, #130048
 162              		.loc 1 123 0
 163 0030 FFF7FEFF 		bl	RCC_APB1PeriphClockCmd
 164              	.LVL12:
 165              		.loc 1 126 0
 166 0034 0121     		movs	r1, #1
 167 0036 4FF48040 		mov	r0, #16384
 168 003a FFF7FEFF 		bl	RCC_APB2PeriphClockCmd
 169              	.LVL13:
 170              		.loc 1 128 0
 171 003e 2A46     		mov	r2, r5
ARM GAS  C:\Users\IDONNO~1\AppData\Local\Temp\ccbct5ml.s 			page 4


 172 0040 2B46     		mov	r3, r5
 173 0042 2046     		mov	r0, r4
 174 0044 0321     		movs	r1, #3
 175 0046 FFF7FEFF 		bl	TIM_EncoderInterfaceConfig
 176              	.LVL14:
 177              		.loc 1 129 0
 178 004a 3168     		ldr	r1, [r6]
 179 004c 2046     		mov	r0, r4
 180 004e 0139     		subs	r1, r1, #1
 181 0050 FFF7FEFF 		bl	TIM_SetAutoreload
 182              	.LVL15:
 183              		.loc 1 132 0
 184 0054 A369     		ldr	r3, [r4, #24]
 185 0056 43F4C043 		orr	r3, r3, #24576
 186 005a 43F06003 		orr	r3, r3, #96
 187 005e A361     		str	r3, [r4, #24]
 188              		.loc 1 133 0
 189 0060 E369     		ldr	r3, [r4, #28]
 190 0062 43F06003 		orr	r3, r3, #96
 191 0066 E361     		str	r3, [r4, #28]
 192              		.loc 1 135 0
 193 0068 2046     		mov	r0, r4
 194 006a 0121     		movs	r1, #1
 195 006c FFF7FEFF 		bl	TIM_Cmd
 196              	.LVL16:
 197              		.loc 1 140 0
 198 0070 0B21     		movs	r1, #11
 199 0072 0220     		movs	r0, #2
 200 0074 FFF7FEFF 		bl	SYSCFG_EXTILineConfig
 201              	.LVL17:
 202              		.loc 1 146 0
 203 0078 0124     		movs	r4, #1
 204              		.loc 1 143 0
 205 007a 4FF40062 		mov	r2, #2048
 206              		.loc 1 145 0
 207 007e 0823     		movs	r3, #8
 208              		.loc 1 147 0
 209 0080 6846     		mov	r0, sp
 210              		.loc 1 145 0
 211 0082 8DF80530 		strb	r3, [sp, #5]
 212              		.loc 1 143 0
 213 0086 0092     		str	r2, [sp]
 214              		.loc 1 144 0
 215 0088 8DF80450 		strb	r5, [sp, #4]
 216              		.loc 1 146 0
 217 008c 8DF80640 		strb	r4, [sp, #6]
 218              		.loc 1 147 0
 219 0090 FFF7FEFF 		bl	EXTI_Init
 220              	.LVL18:
 221              		.loc 1 150 0
 222 0094 2946     		mov	r1, r5
 223 0096 2820     		movs	r0, #40
 224 0098 FFF7FEFF 		bl	nvicEnableVector
 225              	.LVL19:
 226              		.loc 1 152 0
 227 009c 044B     		ldr	r3, .L7+12
 228 009e 1C70     		strb	r4, [r3]
ARM GAS  C:\Users\IDONNO~1\AppData\Local\Temp\ccbct5ml.s 			page 5


 229              		.loc 1 154 0
 230 00a0 02B0     		add	sp, sp, #8
 231              		.cfi_def_cfa_offset 16
 232              		@ sp needed
 233 00a2 70BD     		pop	{r4, r5, r6, pc}
 234              	.L8:
 235              		.align	2
 236              	.L7:
 237 00a4 00000000 		.word	.LANCHOR2
 238 00a8 00040240 		.word	1073873920
 239 00ac 00000000 		.word	.LANCHOR0
 240 00b0 00000000 		.word	.LANCHOR1
 241              		.cfi_endproc
 242              	.LFE257:
 243              		.size	encoder_init_abi, .-encoder_init_abi
 244              		.section	.text.encoder_init_as5047p_spi,"ax",%progbits
 245              		.align	2
 246              		.p2align 4,,15
 247              		.global	encoder_init_as5047p_spi
 248              		.thumb
 249              		.thumb_func
 250              		.type	encoder_init_as5047p_spi, %function
 251              	encoder_init_as5047p_spi:
 252              	.LFB258:
 253              		.loc 1 156 0
 254              		.cfi_startproc
 255              		@ args = 0, pretend = 0, frame = 16
 256              		@ frame_needed = 0, uses_anonymous_args = 0
 257 0000 F0B5     		push	{r4, r5, r6, r7, lr}
 258              		.cfi_def_cfa_offset 20
 259              		.cfi_offset 4, -20
 260              		.cfi_offset 5, -16
 261              		.cfi_offset 6, -12
 262              		.cfi_offset 7, -8
 263              		.cfi_offset 14, -4
 264              		.loc 1 159 0
 265 0002 3D4C     		ldr	r4, .L11
 266              		.loc 1 178 0
 267 0004 3D4D     		ldr	r5, .L11+4
 268              		.loc 1 190 0
 269 0006 3E4E     		ldr	r6, .L11+8
 270              		.loc 1 156 0
 271 0008 85B0     		sub	sp, sp, #20
 272              		.cfi_def_cfa_offset 40
 273              		.loc 1 159 0
 274 000a 2046     		mov	r0, r4
 275 000c 0022     		movs	r2, #0
 276 000e 4021     		movs	r1, #64
 277 0010 FFF7FEFF 		bl	_pal_lld_setgroupmode
 278              	.LVL20:
 279              		.loc 1 160 0
 280 0014 2046     		mov	r0, r4
 281 0016 1922     		movs	r2, #25
 282 0018 2021     		movs	r1, #32
 283 001a FFF7FEFF 		bl	_pal_lld_setgroupmode
 284              	.LVL21:
 285              		.loc 1 161 0
ARM GAS  C:\Users\IDONNO~1\AppData\Local\Temp\ccbct5ml.s 			page 6


 286 001e 2046     		mov	r0, r4
 287 0020 1922     		movs	r2, #25
 288 0022 1021     		movs	r1, #16
 289 0024 FFF7FEFF 		bl	_pal_lld_setgroupmode
 290              	.LVL22:
 291              		.loc 1 165 0
 292 0028 2046     		mov	r0, r4
 293 002a 1922     		movs	r2, #25
 294 002c 8021     		movs	r1, #128
 295 002e FFF7FEFF 		bl	_pal_lld_setgroupmode
 296              	.LVL23:
 297              		.loc 1 166 0
 298 0032 8023     		movs	r3, #128
 299 0034 2383     		strh	r3, [r4, #24]	@ movhi
 300              		.loc 1 170 0
 301 0036 0121     		movs	r1, #1
 302 0038 0420     		movs	r0, #4
 303 003a FFF7FEFF 		bl	RCC_APB1PeriphClockCmd
 304              	.LVL24:
 305              		.loc 1 173 0
 306 003e 0023     		movs	r3, #0
 307              		.loc 1 178 0
 308 0040 2846     		mov	r0, r5
 309              		.loc 1 175 0
 310 0042 42F2CF02 		movw	r2, #8399
 311              		.loc 1 178 0
 312 0046 01A9     		add	r1, sp, #4
 313              		.loc 1 173 0
 314 0048 ADF80430 		strh	r3, [sp, #4]	@ movhi
 315              		.loc 1 174 0
 316 004c ADF80630 		strh	r3, [sp, #6]	@ movhi
 317              		.loc 1 176 0
 318 0050 ADF80C30 		strh	r3, [sp, #12]	@ movhi
 319              		.loc 1 177 0
 320 0054 8DF80E30 		strb	r3, [sp, #14]
 321              		.loc 1 175 0
 322 0058 0292     		str	r2, [sp, #8]
 323              		.loc 1 178 0
 324 005a FFF7FEFF 		bl	TIM_TimeBaseInit
 325              	.LVL25:
 326              		.loc 1 181 0
 327 005e 0122     		movs	r2, #1
 328 0060 1146     		mov	r1, r2
 329 0062 2846     		mov	r0, r5
 330 0064 FFF7FEFF 		bl	TIM_ITConfig
 331              	.LVL26:
 332              		.loc 1 184 0
 333 0068 2846     		mov	r0, r5
 334 006a 0121     		movs	r1, #1
 335 006c FFF7FEFF 		bl	TIM_Cmd
 336              	.LVL27:
 337              		.loc 1 186 0
 338 0070 0621     		movs	r1, #6
 339 0072 1E20     		movs	r0, #30
 340 0074 FFF7FEFF 		bl	nvicEnableVector
 341              	.LVL28:
 342              	.LBB145:
ARM GAS  C:\Users\IDONNO~1\AppData\Local\Temp\ccbct5ml.s 			page 7


 343              	.LBB146:
 344              		.loc 1 650 0
 345 0078 224B     		ldr	r3, .L11+12
 346              		.loc 1 663 0
 347 007a 2349     		ldr	r1, .L11+16
 348              		.loc 1 651 0
 349 007c 234C     		ldr	r4, .L11+20
 350              		.loc 1 655 0
 351 007e 2448     		ldr	r0, .L11+24
 352              	.LBE146:
 353              	.LBE145:
 354              		.loc 1 191 0
 355 0080 244D     		ldr	r5, .L11+28
 356              	.LBB150:
 357              	.LBB147:
 358              		.loc 1 663 0
 359 0082 C3F8D410 		str	r1, [r3, #212]	@ float
 360              		.loc 1 650 0
 361 0086 4FF07E51 		mov	r1, #1065353216
 362              		.loc 1 655 0
 363 008a 0022     		movs	r2, #0
 364              	.LBE147:
 365              	.LBE150:
 366              		.loc 1 190 0
 367 008c 0227     		movs	r7, #2
 368              	.LBB151:
 369              	.LBB148:
 370              		.loc 1 650 0
 371 008e 5961     		str	r1, [r3, #20]	@ float
 372              		.loc 1 653 0
 373 0090 C3F88010 		str	r1, [r3, #128]	@ float
 374 0094 C3F88410 		str	r1, [r3, #132]	@ float
 375 0098 C3F88810 		str	r1, [r3, #136]	@ float
 376              		.loc 1 659 0
 377 009c C3F8B010 		str	r1, [r3, #176]	@ float
 378              		.loc 1 661 0
 379 00a0 C3F8CC10 		str	r1, [r3, #204]	@ float
 380              		.loc 1 664 0
 381 00a4 C3F8D810 		str	r1, [r3, #216]	@ float
 382              		.loc 1 667 0
 383 00a8 C3F82011 		str	r1, [r3, #288]	@ float
 384              		.loc 1 668 0
 385 00ac C3F83011 		str	r1, [r3, #304]	@ float
 386              	.LBE148:
 387              	.LBE151:
 388              		.loc 1 191 0
 389 00b0 0121     		movs	r1, #1
 390              	.LBB152:
 391              	.LBB149:
 392              		.loc 1 651 0
 393 00b2 9C61     		str	r4, [r3, #24]	@ float
 394              		.loc 1 665 0
 395 00b4 C3F8DC40 		str	r4, [r3, #220]	@ float
 396              		.loc 1 655 0
 397 00b8 C3F88C00 		str	r0, [r3, #140]	@ float
 398              		.loc 1 657 0
 399 00bc C3F8A800 		str	r0, [r3, #168]	@ float
ARM GAS  C:\Users\IDONNO~1\AppData\Local\Temp\ccbct5ml.s 			page 8


 400              		.loc 1 655 0
 401 00c0 C3F89020 		str	r2, [r3, #144]	@ float
 402              		.loc 1 656 0
 403 00c4 C3F89820 		str	r2, [r3, #152]	@ float
 404 00c8 C3F89C20 		str	r2, [r3, #156]	@ float
 405              		.loc 1 657 0
 406 00cc C3F8A420 		str	r2, [r3, #164]	@ float
 407              		.loc 1 659 0
 408 00d0 C3F8B420 		str	r2, [r3, #180]	@ float
 409              		.loc 1 660 0
 410 00d4 C3F8BC20 		str	r2, [r3, #188]	@ float
 411 00d8 C3F8C020 		str	r2, [r3, #192]	@ float
 412              		.loc 1 661 0
 413 00dc C3F8C820 		str	r2, [r3, #200]	@ float
 414              		.loc 1 667 0
 415 00e0 C3F82421 		str	r2, [r3, #292]	@ float
 416 00e4 C3F82821 		str	r2, [r3, #296]	@ float
 417              		.loc 1 668 0
 418 00e8 C3F82C21 		str	r2, [r3, #300]	@ float
 419 00ec C3F83421 		str	r2, [r3, #308]	@ float
 420              	.LVL29:
 421              	.LBE149:
 422              	.LBE152:
 423              		.loc 1 190 0
 424 00f0 3770     		strb	r7, [r6]
 425              		.loc 1 191 0
 426 00f2 2970     		strb	r1, [r5]
 427              		.loc 1 192 0
 428 00f4 05B0     		add	sp, sp, #20
 429              		.cfi_def_cfa_offset 20
 430              		@ sp needed
 431 00f6 F0BD     		pop	{r4, r5, r6, r7, pc}
 432              	.L12:
 433              		.align	2
 434              	.L11:
 435 00f8 00000240 		.word	1073872896
 436 00fc 00080040 		.word	1073743872
 437 0100 00000000 		.word	.LANCHOR1
 438 0104 00000000 		.word	.LANCHOR3
 439 0108 CDCCCC3D 		.word	1036831949
 440 010c 17B7D138 		.word	953267991
 441 0110 0000C842 		.word	1120403456
 442 0114 00000000 		.word	.LANCHOR0
 443              		.cfi_endproc
 444              	.LFE258:
 445              		.size	encoder_init_as5047p_spi, .-encoder_init_as5047p_spi
 446              		.section	.text.encoder_is_configured,"ax",%progbits
 447              		.align	2
 448              		.p2align 4,,15
 449              		.global	encoder_is_configured
 450              		.thumb
 451              		.thumb_func
 452              		.type	encoder_is_configured, %function
 453              	encoder_is_configured:
 454              	.LFB259:
 455              		.loc 1 194 0
 456              		.cfi_startproc
ARM GAS  C:\Users\IDONNO~1\AppData\Local\Temp\ccbct5ml.s 			page 9


 457              		@ args = 0, pretend = 0, frame = 0
 458              		@ frame_needed = 0, uses_anonymous_args = 0
 459              		@ link register save eliminated.
 460              		.loc 1 195 0
 461 0000 024B     		ldr	r3, .L14
 462 0002 1878     		ldrb	r0, [r3]	@ zero_extendqisi2
 463              		.loc 1 196 0
 464 0004 0030     		adds	r0, r0, #0
 465 0006 18BF     		it	ne
 466 0008 0120     		movne	r0, #1
 467 000a 7047     		bx	lr
 468              	.L15:
 469              		.align	2
 470              	.L14:
 471 000c 00000000 		.word	.LANCHOR1
 472              		.cfi_endproc
 473              	.LFE259:
 474              		.size	encoder_is_configured, .-encoder_is_configured
 475              		.section	.text.encoder_read_deg,"ax",%progbits
 476              		.align	2
 477              		.p2align 4,,15
 478              		.global	encoder_read_deg
 479              		.thumb
 480              		.thumb_func
 481              		.type	encoder_read_deg, %function
 482              	encoder_read_deg:
 483              	.LFB260:
 484              		.loc 1 198 0
 485              		.cfi_startproc
 486              		@ args = 0, pretend = 0, frame = 0
 487              		@ frame_needed = 0, uses_anonymous_args = 0
 488              		@ link register save eliminated.
 489              		.loc 1 201 0
 490 0000 124B     		ldr	r3, .L23
 491 0002 1B78     		ldrb	r3, [r3]	@ zero_extendqisi2
 492 0004 012B     		cmp	r3, #1
 493 0006 0CD0     		beq	.L18
 494 0008 022B     		cmp	r3, #2
 495 000a 06D1     		bne	.L22
 496              		.loc 1 207 0
 497 000c 104A     		ldr	r2, .L23+4
 498 000e 114B     		ldr	r3, .L23+8
 499 0010 92ED5B0A 		vldr.32	s0, [r2, #364]
 500 0014 83ED000A 		vstr.32	s0, [r3]
 501              		.loc 1 215 0
 502 0018 7047     		bx	lr
 503              	.L22:
 504 001a 0E4B     		ldr	r3, .L23+8
 505 001c 93ED000A 		vldr.32	s0, [r3]
 506 0020 7047     		bx	lr
 507              	.L18:
 508              		.loc 1 203 0
 509 0022 0D4A     		ldr	r2, .L23+12
 510 0024 0D4B     		ldr	r3, .L23+16
 511 0026 D2ED097A 		vldr.32	s15, [r2, #36]	@ int
 512 002a 93ED007A 		vldr.32	s14, [r3]	@ int
 513 002e DFED0C6A 		vldr.32	s13, .L23+20
ARM GAS  C:\Users\IDONNO~1\AppData\Local\Temp\ccbct5ml.s 			page 10


 514 0032 084B     		ldr	r3, .L23+8
 515 0034 F8EE677A 		vcvt.f32.u32	s15, s15
 516 0038 B8EE477A 		vcvt.f32.u32	s14, s14
 517 003c 67EEA67A 		vmul.f32	s15, s15, s13
 518 0040 87EE870A 		vdiv.f32	s0, s15, s14
 519 0044 83ED000A 		vstr.32	s0, [r3]
 520              		.loc 1 204 0
 521 0048 7047     		bx	lr
 522              	.L24:
 523 004a 00BF     		.align	2
 524              	.L23:
 525 004c 00000000 		.word	.LANCHOR1
 526 0050 00000000 		.word	.LANCHOR3
 527 0054 00000000 		.word	.LANCHOR4
 528 0058 00080040 		.word	1073743872
 529 005c 00000000 		.word	.LANCHOR2
 530 0060 0000B443 		.word	1135869952
 531              		.cfi_endproc
 532              	.LFE260:
 533              		.size	encoder_read_deg, .-encoder_read_deg
 534              		.section	.text.encoder_reset,"ax",%progbits
 535              		.align	2
 536              		.p2align 4,,15
 537              		.global	encoder_reset
 538              		.thumb
 539              		.thumb_func
 540              		.type	encoder_reset, %function
 541              	encoder_reset:
 542              	.LFB261:
 543              		.loc 1 220 0
 544              		.cfi_startproc
 545              		@ args = 0, pretend = 0, frame = 0
 546              		@ frame_needed = 0, uses_anonymous_args = 0
 547              	.LBB153:
 548              	.LBB154:
 549              		.file 2 "src/ChibiOS_3.0.2/os/ext/CMSIS/include/core_cmInstr.h"
 550              		.loc 2 327 0
 551              		.syntax unified
 552              	@ 327 "src/ChibiOS_3.0.2/os/ext/CMSIS/include/core_cmInstr.h" 1
 553 0000 00BF     		nop
 554              	@ 0 "" 2
 555              		.thumb
 556              		.syntax unified
 557              	.LBE154:
 558              	.LBE153:
 559              	.LBB155:
 560              	.LBB156:
 561              		.syntax unified
 562              	@ 327 "src/ChibiOS_3.0.2/os/ext/CMSIS/include/core_cmInstr.h" 1
 563 0002 00BF     		nop
 564              	@ 0 "" 2
 565              		.thumb
 566              		.syntax unified
 567              	.LBE156:
 568              	.LBE155:
 569              	.LBB157:
 570              	.LBB158:
ARM GAS  C:\Users\IDONNO~1\AppData\Local\Temp\ccbct5ml.s 			page 11


 571              		.syntax unified
 572              	@ 327 "src/ChibiOS_3.0.2/os/ext/CMSIS/include/core_cmInstr.h" 1
 573 0004 00BF     		nop
 574              	@ 0 "" 2
 575              		.thumb
 576              		.syntax unified
 577              	.LBE158:
 578              	.LBE157:
 579              	.LBB159:
 580              	.LBB160:
 581              		.syntax unified
 582              	@ 327 "src/ChibiOS_3.0.2/os/ext/CMSIS/include/core_cmInstr.h" 1
 583 0006 00BF     		nop
 584              	@ 0 "" 2
 585              		.thumb
 586              		.syntax unified
 587              	.LBE160:
 588              	.LBE159:
 589              		.loc 1 227 0
 590 0008 174B     		ldr	r3, .L34
 591 000a 1B69     		ldr	r3, [r3, #16]
 592 000c 1B05     		lsls	r3, r3, #20
 593 000e 1AD5     		bpl	.L33
 594              	.LBB161:
 595              		.loc 1 232 0
 596 0010 164A     		ldr	r2, .L34+4
 597              		.loc 1 228 0
 598 0012 1749     		ldr	r1, .L34+8
 599              		.loc 1 232 0
 600 0014 1378     		ldrb	r3, [r2]	@ zero_extendqisi2
 601              		.loc 1 228 0
 602 0016 486A     		ldr	r0, [r1, #36]
 603              	.LVL30:
 604              		.loc 1 232 0
 605 0018 B3B1     		cbz	r3, .L28
 606              		.loc 1 230 0
 607 001a 1649     		ldr	r1, .L34+12
 608 001c 164B     		ldr	r3, .L34+16
 609 001e 0968     		ldr	r1, [r1]
 610              	.LBE161:
 611              		.loc 1 220 0
 612 0020 00B5     		push	{lr}
 613              		.cfi_def_cfa_offset 4
 614              		.cfi_offset 14, -4
 615              	.LBB162:
 616              		.loc 1 230 0
 617 0022 A3FB01E3 		umull	lr, r3, r3, r1
 618 0026 1B09     		lsrs	r3, r3, #4
 619              		.loc 1 234 0
 620 0028 C91A     		subs	r1, r1, r3
 621 002a 8842     		cmp	r0, r1
 622 002c 12D8     		bhi	.L29
 623              		.loc 1 234 0 is_stmt 0 discriminator 1
 624 002e 9842     		cmp	r0, r3
 625 0030 10D3     		bcc	.L29
 626              		.loc 1 238 0 is_stmt 1
 627 0032 1249     		ldr	r1, .L34+20
ARM GAS  C:\Users\IDONNO~1\AppData\Local\Temp\ccbct5ml.s 			page 12


 628 0034 0B68     		ldr	r3, [r1]
 629 0036 0133     		adds	r3, r3, #1
 630              		.loc 1 240 0
 631 0038 052B     		cmp	r3, #5
 632              		.loc 1 238 0
 633 003a 0B60     		str	r3, [r1]
 634              		.loc 1 240 0
 635 003c 11DD     		ble	.L25
 636              		.loc 1 241 0
 637 003e 0023     		movs	r3, #0
 638 0040 1370     		strb	r3, [r2]
 639 0042 5DF804FB 		ldr	pc, [sp], #4
 640              	.LVL31:
 641              	.L33:
 642              		.cfi_def_cfa_offset 0
 643              		.cfi_restore 14
 644 0046 7047     		bx	lr
 645              	.LVL32:
 646              	.L28:
 647              		.loc 1 247 0
 648 0048 0C48     		ldr	r0, .L34+20
 649              	.LVL33:
 650              		.loc 1 245 0
 651 004a 4B62     		str	r3, [r1, #36]
 652              	.LVL34:
 653              		.loc 1 246 0
 654 004c 0121     		movs	r1, #1
 655              		.loc 1 247 0
 656 004e 0360     		str	r3, [r0]
 657              		.loc 1 246 0
 658 0050 1170     		strb	r1, [r2]
 659              	.LBE162:
 660              		.loc 1 250 0
 661 0052 7047     		bx	lr
 662              	.LVL35:
 663              	.L29:
 664              		.cfi_def_cfa_offset 4
 665              		.cfi_offset 14, -4
 666              	.LBB163:
 667              		.loc 1 235 0
 668 0054 0649     		ldr	r1, .L34+8
 669              		.loc 1 236 0
 670 0056 094A     		ldr	r2, .L34+20
 671              		.loc 1 235 0
 672 0058 0023     		movs	r3, #0
 673 005a 4B62     		str	r3, [r1, #36]
 674              	.LVL36:
 675              		.loc 1 236 0
 676 005c 1360     		str	r3, [r2]
 677 005e 5DF804FB 		ldr	pc, [sp], #4
 678              	.LVL37:
 679              	.L25:
 680 0062 5DF804FB 		ldr	pc, [sp], #4
 681              	.L35:
 682 0066 00BF     		.align	2
 683              	.L34:
 684 0068 00080240 		.word	1073874944
ARM GAS  C:\Users\IDONNO~1\AppData\Local\Temp\ccbct5ml.s 			page 13


 685 006c 00000000 		.word	.LANCHOR0
 686 0070 00080040 		.word	1073743872
 687 0074 00000000 		.word	.LANCHOR2
 688 0078 CDCCCCCC 		.word	-858993459
 689 007c 00000000 		.word	.LANCHOR5
 690              	.LBE163:
 691              		.cfi_endproc
 692              	.LFE261:
 693              		.size	encoder_reset, .-encoder_reset
 694              		.section	.text.encoder_set_counts,"ax",%progbits
 695              		.align	2
 696              		.p2align 4,,15
 697              		.global	encoder_set_counts
 698              		.thumb
 699              		.thumb_func
 700              		.type	encoder_set_counts, %function
 701              	encoder_set_counts:
 702              	.LFB263:
 703              		.loc 1 335 0
 704              		.cfi_startproc
 705              		@ args = 0, pretend = 0, frame = 0
 706              		@ frame_needed = 0, uses_anonymous_args = 0
 707              	.LVL38:
 708              		.loc 1 336 0
 709 0000 074A     		ldr	r2, .L39
 710              		.loc 1 335 0
 711 0002 08B5     		push	{r3, lr}
 712              		.cfi_def_cfa_offset 8
 713              		.cfi_offset 3, -8
 714              		.cfi_offset 14, -4
 715              		.loc 1 336 0
 716 0004 1368     		ldr	r3, [r2]
 717 0006 8342     		cmp	r3, r0
 718 0008 08D0     		beq	.L36
 719 000a 0346     		mov	r3, r0
 720              		.loc 1 338 0
 721 000c 411E     		subs	r1, r0, #1
 722 000e 0548     		ldr	r0, .L39+4
 723              	.LVL39:
 724              		.loc 1 337 0
 725 0010 1360     		str	r3, [r2]
 726              		.loc 1 338 0
 727 0012 FFF7FEFF 		bl	TIM_SetAutoreload
 728              	.LVL40:
 729              		.loc 1 339 0
 730 0016 044B     		ldr	r3, .L39+8
 731 0018 0022     		movs	r2, #0
 732 001a 1A70     		strb	r2, [r3]
 733              	.L36:
 734 001c 08BD     		pop	{r3, pc}
 735              	.L40:
 736 001e 00BF     		.align	2
 737              	.L39:
 738 0020 00000000 		.word	.LANCHOR2
 739 0024 00080040 		.word	1073743872
 740 0028 00000000 		.word	.LANCHOR0
 741              		.cfi_endproc
ARM GAS  C:\Users\IDONNO~1\AppData\Local\Temp\ccbct5ml.s 			page 14


 742              	.LFE263:
 743              		.size	encoder_set_counts, .-encoder_set_counts
 744              		.section	.text.encoder_index_found,"ax",%progbits
 745              		.align	2
 746              		.p2align 4,,15
 747              		.global	encoder_index_found
 748              		.thumb
 749              		.thumb_func
 750              		.type	encoder_index_found, %function
 751              	encoder_index_found:
 752              	.LFB264:
 753              		.loc 1 349 0
 754              		.cfi_startproc
 755              		@ args = 0, pretend = 0, frame = 0
 756              		@ frame_needed = 0, uses_anonymous_args = 0
 757              		@ link register save eliminated.
 758              		.loc 1 350 0
 759 0000 014B     		ldr	r3, .L42
 760              		.loc 1 351 0
 761 0002 1878     		ldrb	r0, [r3]	@ zero_extendqisi2
 762 0004 7047     		bx	lr
 763              	.L43:
 764 0006 00BF     		.align	2
 765              	.L42:
 766 0008 00000000 		.word	.LANCHOR0
 767              		.cfi_endproc
 768              	.LFE264:
 769              		.size	encoder_index_found, .-encoder_index_found
 770              		.section	.text.encoder_init_pwm,"ax",%progbits
 771              		.align	2
 772              		.p2align 4,,15
 773              		.global	encoder_init_pwm
 774              		.thumb
 775              		.thumb_func
 776              		.type	encoder_init_pwm, %function
 777              	encoder_init_pwm:
 778              	.LFB269:
 779              		.loc 1 405 0
 780              		.cfi_startproc
 781              		@ args = 0, pretend = 0, frame = 24
 782              		@ frame_needed = 0, uses_anonymous_args = 0
 783 0000 70B5     		push	{r4, r5, r6, lr}
 784              		.cfi_def_cfa_offset 16
 785              		.cfi_offset 4, -16
 786              		.cfi_offset 5, -12
 787              		.cfi_offset 6, -8
 788              		.cfi_offset 14, -4
 789              		.loc 1 411 0
 790 0002 0121     		movs	r1, #1
 791              		.loc 1 405 0
 792 0004 86B0     		sub	sp, sp, #24
 793              		.cfi_def_cfa_offset 40
 794              		.loc 1 421 0
 795 0006 1E4E     		ldr	r6, .L46
 796              		.loc 1 411 0
 797 0008 0420     		movs	r0, #4
 798 000a FFF7FEFF 		bl	RCC_APB1PeriphClockCmd
ARM GAS  C:\Users\IDONNO~1\AppData\Local\Temp\ccbct5ml.s 			page 15


 799              	.LVL41:
 800              		.loc 1 414 0
 801 000e 4FF48172 		mov	r2, #258
 802 0012 4021     		movs	r1, #64
 803 0014 1B48     		ldr	r0, .L46+4
 804 0016 FFF7FEFF 		bl	_pal_lld_setgroupmode
 805              	.LVL42:
 806              		.loc 1 419 0
 807 001a 0024     		movs	r4, #0
 808              		.loc 1 418 0
 809 001c 4723     		movs	r3, #71
 810              		.loc 1 417 0
 811 001e 4FF6FF72 		movw	r2, #65535
 812              		.loc 1 421 0
 813 0022 3046     		mov	r0, r6
 814 0024 03A9     		add	r1, sp, #12
 815              		.loc 1 418 0
 816 0026 ADF80C30 		strh	r3, [sp, #12]	@ movhi
 817              		.loc 1 417 0
 818 002a 0492     		str	r2, [sp, #16]
 819              		.loc 1 419 0
 820 002c ADF81440 		strh	r4, [sp, #20]	@ movhi
 821              		.loc 1 420 0
 822 0030 ADF80E40 		strh	r4, [sp, #14]	@ movhi
 823              		.loc 1 421 0
 824 0034 FFF7FEFF 		bl	TIM_TimeBaseInit
 825              	.LVL43:
 826              		.loc 1 427 0
 827 0038 06A9     		add	r1, sp, #24
 828              		.loc 1 424 0
 829 003a 0125     		movs	r5, #1
 830              		.loc 1 428 0
 831 003c 3046     		mov	r0, r6
 832              		.loc 1 427 0
 833 003e 21F8184D 		strh	r4, [r1, #-24]!	@ movhi
 834              		.loc 1 423 0
 835 0042 ADF80240 		strh	r4, [sp, #2]	@ movhi
 836              		.loc 1 425 0
 837 0046 ADF80640 		strh	r4, [sp, #6]	@ movhi
 838              		.loc 1 426 0
 839 004a ADF80840 		strh	r4, [sp, #8]	@ movhi
 840              		.loc 1 424 0
 841 004e ADF80450 		strh	r5, [sp, #4]	@ movhi
 842              		.loc 1 428 0
 843 0052 FFF7FEFF 		bl	TIM_ICInit
 844              	.LVL44:
 845              		.loc 1 431 0
 846 0056 2946     		mov	r1, r5
 847 0058 3046     		mov	r0, r6
 848 005a FFF7FEFF 		bl	TIM_Cmd
 849              	.LVL45:
 850              		.loc 1 434 0
 851 005e 2A46     		mov	r2, r5
 852 0060 3046     		mov	r0, r6
 853 0062 0221     		movs	r1, #2
 854 0064 FFF7FEFF 		bl	TIM_ITConfig
 855              	.LVL46:
ARM GAS  C:\Users\IDONNO~1\AppData\Local\Temp\ccbct5ml.s 			page 16


 856              		.loc 1 437 0
 857 0068 0621     		movs	r1, #6
 858 006a 1E20     		movs	r0, #30
 859 006c FFF7FEFF 		bl	nvicEnableVector
 860              	.LVL47:
 861              		.loc 1 440 0
 862 0070 054A     		ldr	r2, .L46+8
 863              		.loc 1 439 0
 864 0072 064B     		ldr	r3, .L46+12
 865              		.loc 1 440 0
 866 0074 1570     		strb	r5, [r2]
 867              		.loc 1 439 0
 868 0076 0222     		movs	r2, #2
 869 0078 1A70     		strb	r2, [r3]
 870              		.loc 1 443 0
 871 007a 06B0     		add	sp, sp, #24
 872              		.cfi_def_cfa_offset 16
 873              		@ sp needed
 874 007c 70BD     		pop	{r4, r5, r6, pc}
 875              	.L47:
 876 007e 00BF     		.align	2
 877              	.L46:
 878 0080 00080040 		.word	1073743872
 879 0084 00040240 		.word	1073873920
 880 0088 00000000 		.word	.LANCHOR0
 881 008c 00000000 		.word	.LANCHOR1
 882              		.cfi_endproc
 883              	.LFE269:
 884              		.size	encoder_init_pwm, .-encoder_init_pwm
 885              		.section	.text.encoder_3HarmonicFilter,"ax",%progbits
 886              		.align	2
 887              		.p2align 4,,15
 888              		.global	encoder_3HarmonicFilter
 889              		.thumb
 890              		.thumb_func
 891              		.type	encoder_3HarmonicFilter, %function
 892              	encoder_3HarmonicFilter:
 893              	.LFB270:
 894              		.loc 1 450 0
 895              		.cfi_startproc
 896              		@ args = 0, pretend = 0, frame = 0
 897              		@ frame_needed = 0, uses_anonymous_args = 0
 898              	.LVL48:
 899 0000 10B5     		push	{r4, lr}
 900              		.cfi_def_cfa_offset 8
 901              		.cfi_offset 4, -8
 902              		.cfi_offset 14, -4
 903 0002 2DED048B 		vpush.64	{d8, d9}
 904              		.cfi_def_cfa_offset 24
 905              		.cfi_offset 80, -24
 906              		.cfi_offset 81, -20
 907              		.cfi_offset 82, -16
 908              		.cfi_offset 83, -12
 909              		.loc 1 451 0
 910 0006 90ED0B9A 		vldr.32	s18, [r0, #44]
 911 000a F0EE088A 		vmov.f32	s17, #3.0e+0
 912 000e 69EE288A 		vmul.f32	s17, s18, s17
ARM GAS  C:\Users\IDONNO~1\AppData\Local\Temp\ccbct5ml.s 			page 17


 913              		.loc 1 450 0
 914 0012 0446     		mov	r4, r0
 915              		.loc 1 451 0
 916 0014 B0EE680A 		vmov.f32	s0, s17
 917 0018 FFF7FEFF 		bl	cosf
 918              	.LVL49:
 919 001c B0EE408A 		vmov.f32	s16, s0
 920 0020 84ED1D8A 		vstr.32	s16, [r4, #116]
 921              		.loc 1 452 0
 922 0024 B0EE680A 		vmov.f32	s0, s17
 923 0028 FFF7FEFF 		bl	sinf
 924              	.LVL50:
 925              		.loc 1 454 0
 926 002c 94ED007A 		vldr.32	s14, [r4]
 927              		.loc 1 457 0
 928 0030 D4ED017A 		vldr.32	s15, [r4, #4]
 929              		.loc 1 454 0
 930 0034 D4ED1F5A 		vldr.32	s11, [r4, #124]
 931              		.loc 1 461 0
 932 0038 94ED1A3A 		vldr.32	s6, [r4, #104]
 933              		.loc 1 463 0
 934 003c 94ED1B5A 		vldr.32	s10, [r4, #108]
 935              		.loc 1 460 0
 936 0040 94ED194A 		vldr.32	s8, [r4, #100]
 937              		.loc 1 464 0
 938 0044 94ED1C6A 		vldr.32	s12, [r4, #112]
 939              		.loc 1 452 0
 940 0048 84ED1E0A 		vstr.32	s0, [r4, #120]
 941              		.loc 1 454 0
 942 004c 60EE072A 		vmul.f32	s5, s0, s14
 943              		.loc 1 458 0
 944 0050 60EE274A 		vmul.f32	s9, s0, s15
 945              		.loc 1 454 0
 946 0054 62EEA52A 		vmul.f32	s5, s5, s11
 947              		.loc 1 458 0
 948 0058 64EEA54A 		vmul.f32	s9, s9, s11
 949              		.loc 1 457 0
 950 005c 68EE276A 		vmul.f32	s13, s16, s15
 951              		.loc 1 455 0
 952 0060 68EE073A 		vmul.f32	s7, s16, s14
 953              		.loc 1 461 0
 954 0064 32EE833A 		vadd.f32	s6, s5, s6
 955              		.loc 1 455 0
 956 0068 63EEA53A 		vmul.f32	s7, s7, s11
 957              		.loc 1 463 0
 958 006c 34EE855A 		vadd.f32	s10, s9, s10
 959              		.loc 1 457 0
 960 0070 66EEA55A 		vmul.f32	s11, s13, s11
 961              		.loc 1 466 0
 962 0074 60EE031A 		vmul.f32	s3, s0, s6
 963              		.loc 1 460 0
 964 0078 33EE844A 		vadd.f32	s8, s7, s8
 965              		.loc 1 469 0
 966 007c 20EE050A 		vmul.f32	s0, s0, s10
 967              		.loc 1 464 0
 968 0080 35EE866A 		vadd.f32	s12, s11, s12
 969              		.loc 1 467 0
ARM GAS  C:\Users\IDONNO~1\AppData\Local\Temp\ccbct5ml.s 			page 18


 970 0084 28EE042A 		vmul.f32	s4, s16, s8
 971              		.loc 1 473 0
 972 0088 77EEC07A 		vsub.f32	s15, s15, s0
 973              		.loc 1 470 0
 974 008c 68EE066A 		vmul.f32	s13, s16, s12
 975              		.loc 1 472 0
 976 0090 37EE617A 		vsub.f32	s14, s14, s3
 977              		.loc 1 473 0
 978 0094 37EEE68A 		vsub.f32	s16, s15, s13
 979              		.loc 1 472 0
 980 0098 77EE428A 		vsub.f32	s17, s14, s4
 981              		.loc 1 454 0
 982 009c C4ED162A 		vstr.32	s5, [r4, #88]
 983              		.loc 1 461 0
 984 00a0 84ED1A3A 		vstr.32	s6, [r4, #104]
 985              		.loc 1 466 0
 986 00a4 C4ED0F1A 		vstr.32	s3, [r4, #60]
 987              		.loc 1 455 0
 988 00a8 C4ED153A 		vstr.32	s7, [r4, #84]
 989              		.loc 1 460 0
 990 00ac 84ED194A 		vstr.32	s8, [r4, #100]
 991              		.loc 1 472 0
 992 00b0 C4ED138A 		vstr.32	s17, [r4, #76]
 993              		.loc 1 467 0
 994 00b4 84ED102A 		vstr.32	s4, [r4, #64]
 995              		.loc 1 458 0
 996 00b8 C4ED174A 		vstr.32	s9, [r4, #92]
 997              		.loc 1 469 0
 998 00bc 84ED110A 		vstr.32	s0, [r4, #68]
 999              		.loc 1 463 0
 1000 00c0 84ED1B5A 		vstr.32	s10, [r4, #108]
 1001              		.loc 1 457 0
 1002 00c4 C4ED185A 		vstr.32	s11, [r4, #96]
 1003              		.loc 1 473 0
 1004 00c8 84ED148A 		vstr.32	s16, [r4, #80]
 1005              		.loc 1 470 0
 1006 00cc C4ED126A 		vstr.32	s13, [r4, #72]
 1007              		.loc 1 464 0
 1008 00d0 84ED1C6A 		vstr.32	s12, [r4, #112]
 1009              		.loc 1 475 0
 1010 00d4 B0EE490A 		vmov.f32	s0, s18
 1011 00d8 FFF7FEFF 		bl	cosf
 1012              	.LVL51:
 1013 00dc F0EE409A 		vmov.f32	s19, s0
 1014 00e0 C4ED039A 		vstr.32	s19, [r4, #12]
 1015              		.loc 1 476 0
 1016 00e4 B0EE490A 		vmov.f32	s0, s18
 1017 00e8 FFF7FEFF 		bl	sinf
 1018              	.LVL52:
 1019              		.loc 1 478 0
 1020 00ec 68EEA98A 		vmul.f32	s17, s17, s19
 1021              		.loc 1 479 0
 1022 00f0 28EE008A 		vmul.f32	s16, s16, s0
 1023              		.loc 1 478 0
 1024 00f4 C4ED098A 		vstr.32	s17, [r4, #36]
 1025              		.loc 1 479 0
 1026 00f8 84ED0A8A 		vstr.32	s16, [r4, #40]
ARM GAS  C:\Users\IDONNO~1\AppData\Local\Temp\ccbct5ml.s 			page 19


 1027              		.loc 1 481 0
 1028 00fc BDEC048B 		vldm	sp!, {d8-d9}
 1029              		.cfi_restore 82
 1030              		.cfi_restore 83
 1031              		.cfi_restore 80
 1032              		.cfi_restore 81
 1033              		.cfi_def_cfa_offset 8
 1034              		.loc 1 476 0
 1035 0100 84ED040A 		vstr.32	s0, [r4, #16]
 1036              		.loc 1 481 0
 1037 0104 10BD     		pop	{r4, pc}
 1038              		.cfi_endproc
 1039              	.LFE270:
 1040              		.size	encoder_3HarmonicFilter, .-encoder_3HarmonicFilter
 1041 0106 00BF     		.section	.text.encoder_ExpendedKalmanFilter,"ax",%progbits
 1042              		.align	2
 1043              		.p2align 4,,15
 1044              		.global	encoder_ExpendedKalmanFilter
 1045              		.thumb
 1046              		.thumb_func
 1047              		.type	encoder_ExpendedKalmanFilter, %function
 1048              	encoder_ExpendedKalmanFilter:
 1049              	.LFB271:
 1050              		.loc 1 528 0
 1051              		.cfi_startproc
 1052              		@ args = 0, pretend = 0, frame = 0
 1053              		@ frame_needed = 0, uses_anonymous_args = 0
 1054              	.LVL53:
 1055 0000 10B5     		push	{r4, lr}
 1056              		.cfi_def_cfa_offset 8
 1057              		.cfi_offset 4, -8
 1058              		.cfi_offset 14, -4
 1059              		.loc 1 548 0
 1060 0002 D0ED367A 		vldr.32	s15, [r0, #216]
 1061              		.loc 1 528 0
 1062 0006 2DED108B 		vpush.64	{d8, d9, d10, d11, d12, d13, d14, d15}
 1063              		.cfi_def_cfa_offset 72
 1064              		.cfi_offset 80, -72
 1065              		.cfi_offset 81, -68
 1066              		.cfi_offset 82, -64
 1067              		.cfi_offset 83, -60
 1068              		.cfi_offset 84, -56
 1069              		.cfi_offset 85, -52
 1070              		.cfi_offset 86, -48
 1071              		.cfi_offset 87, -44
 1072              		.cfi_offset 88, -40
 1073              		.cfi_offset 89, -36
 1074              		.cfi_offset 90, -32
 1075              		.cfi_offset 91, -28
 1076              		.cfi_offset 92, -24
 1077              		.cfi_offset 93, -20
 1078              		.cfi_offset 94, -16
 1079              		.cfi_offset 95, -12
 1080              		.loc 1 548 0
 1081 000a D0ED379A 		vldr.32	s19, [r0, #220]
 1082 000e 90ED229A 		vldr.32	s18, [r0, #136]
 1083              		.loc 1 545 0
ARM GAS  C:\Users\IDONNO~1\AppData\Local\Temp\ccbct5ml.s 			page 20


 1084 0012 D0ED018A 		vldr.32	s17, [r0, #4]
 1085              		.loc 1 544 0
 1086 0016 90ED00AA 		vldr.32	s20, [r0]
 1087              		.loc 1 545 0
 1088 001a C0ED398A 		vstr.32	s17, [r0, #228]
 1089              		.loc 1 548 0
 1090 001e 67EEA99A 		vmul.f32	s19, s15, s19
 1091              		.loc 1 544 0
 1092 0022 80ED38AA 		vstr.32	s20, [r0, #224]
 1093              		.loc 1 548 0
 1094 0026 69EE89AA 		vmul.f32	s21, s19, s18
 1095              		.loc 1 528 0
 1096 002a 0446     		mov	r4, r0
 1097              		.loc 1 548 0
 1098 002c B0EE6A0A 		vmov.f32	s0, s21
 1099 0030 90ED20BA 		vldr.32	s22, [r0, #128]
 1100 0034 FFF7FEFF 		bl	cosf
 1101              	.LVL54:
 1102 0038 B0EE408A 		vmov.f32	s16, s0
 1103 003c B0EE6A0A 		vmov.f32	s0, s21
 1104 0040 FFF7FEFF 		bl	sinf
 1105              	.LVL55:
 1106 0044 94ED216A 		vldr.32	s12, [r4, #132]
 1107              		.loc 1 569 0
 1108 0048 D4ED274A 		vldr.32	s9, [r4, #156]
 1109              		.loc 1 568 0
 1110 004c D4ED245A 		vldr.32	s11, [r4, #144]
 1111              		.loc 1 550 0
 1112 0050 84ED3C9A 		vstr.32	s18, [r4, #240]
 1113              		.loc 1 548 0
 1114 0054 26EE002A 		vmul.f32	s4, s12, s0
 1115              		.loc 1 549 0
 1116 0058 28EE066A 		vmul.f32	s12, s16, s12
 1117              		.loc 1 557 0
 1118 005c F1EE406A 		vneg.f32	s13, s0
 1119              		.loc 1 561 0
 1120 0060 B0EE429A 		vmov.f32	s18, s4
 1121              		.loc 1 558 0
 1122 0064 F0EE467A 		vmov.f32	s15, s12
 1123              		.loc 1 569 0
 1124 0068 68EE244A 		vmul.f32	s9, s16, s9
 1125              		.loc 1 568 0
 1126 006c 66EEA55A 		vmul.f32	s11, s13, s11
 1127              		.loc 1 561 0
 1128 0070 ABEE089A 		vfma.f32	s18, s22, s16
 1129              		.loc 1 564 0
 1130 0074 4FF07E53 		mov	r3, #1065353216
 1131 0078 C4F81C31 		str	r3, [r4, #284]	@ float
 1132              		.loc 1 558 0
 1133 007c DBEE407A 		vfnma.f32	s15, s22, s0
 1134              		.loc 1 569 0
 1135 0080 94ED26EA 		vldr.32	s28, [r4, #152]
 1136              		.loc 1 568 0
 1137 0084 94ED23DA 		vldr.32	s26, [r4, #140]
 1138              		.loc 1 562 0
 1139 0088 DFED8D3A 		vldr.32	s7, .L52
 1140              		.loc 1 569 0
ARM GAS  C:\Users\IDONNO~1\AppData\Local\Temp\ccbct5ml.s 			page 21


 1141 008c D4ED28CA 		vldr.32	s25, [r4, #160]
 1142              		.loc 1 568 0
 1143 0090 D4ED25BA 		vldr.32	s23, [r4, #148]
 1144              		.loc 1 570 0
 1145 0094 D4ED2B1A 		vldr.32	s3, [r4, #172]
 1146 0098 94ED2A5A 		vldr.32	s10, [r4, #168]
 1147              		.loc 1 556 0
 1148 009c 84ED3F8A 		vstr.32	s16, [r4, #252]
 1149              		.loc 1 548 0
 1150 00a0 9BEE082A 		vfnms.f32	s4, s22, s16
 1151              		.loc 1 568 0
 1152 00a4 28EE0DDA 		vmul.f32	s26, s16, s26
 1153              	.LVL56:
 1154              		.loc 1 549 0
 1155 00a8 ABEE006A 		vfma.f32	s12, s22, s0
 1156              		.loc 1 569 0
 1157 00ac 20EE0EEA 		vmul.f32	s28, s0, s28
 1158              		.loc 1 585 0
 1159 00b0 68EE242A 		vmul.f32	s5, s16, s9
 1160              		.loc 1 584 0
 1161 00b4 68EE25AA 		vmul.f32	s21, s16, s11
 1162 00b8 26EEA5BA 		vmul.f32	s22, s13, s11
 1163              		.loc 1 561 0
 1164 00bc 29EE299A 		vmul.f32	s18, s18, s19
 1165              		.loc 1 585 0
 1166 00c0 66EEA40A 		vmul.f32	s1, s13, s9
 1167              		.loc 1 558 0
 1168 00c4 67EEA99A 		vmul.f32	s19, s15, s19
 1169              		.loc 1 584 0
 1170 00c8 A8EE0DBA 		vfma.f32	s22, s16, s26
 1171              		.loc 1 585 0
 1172 00cc E0EE0E2A 		vfma.f32	s5, s0, s28
 1173              		.loc 1 584 0
 1174 00d0 E0EE0DAA 		vfma.f32	s21, s0, s26
 1175              		.loc 1 569 0
 1176 00d4 69EE2CCA 		vmul.f32	s25, s18, s25
 1177              		.loc 1 568 0
 1178 00d8 69EEABBA 		vmul.f32	s23, s19, s23
 1179              	.LVL57:
 1180              		.loc 1 585 0
 1181 00dc E8EE0E0A 		vfma.f32	s1, s16, s28
 1182              		.loc 1 584 0
 1183 00e0 65EEA35A 		vmul.f32	s11, s11, s7
 1184              	.LVL58:
 1185              		.loc 1 585 0
 1186 00e4 E9EE2C2A 		vfma.f32	s5, s18, s25
 1187              		.loc 1 584 0
 1188 00e8 EDEE235A 		vfma.f32	s11, s26, s7
 1189 00ec E9EE2BAA 		vfma.f32	s21, s18, s23
 1190 00f0 A9EEABBA 		vfma.f32	s22, s19, s23
 1191              		.loc 1 585 0
 1192 00f4 64EEA34A 		vmul.f32	s9, s9, s7
 1193              	.LVL59:
 1194 00f8 E9EEAC0A 		vfma.f32	s1, s19, s25
 1195 00fc EEEE234A 		vfma.f32	s9, s28, s7
 1196              		.loc 1 560 0
 1197 0100 84ED438A 		vstr.32	s16, [r4, #268]
ARM GAS  C:\Users\IDONNO~1\AppData\Local\Temp\ccbct5ml.s 			page 22


 1198              		.loc 1 558 0
 1199 0104 C4ED419A 		vstr.32	s19, [r4, #260]
 1200              		.loc 1 549 0
 1201 0108 84ED3B6A 		vstr.32	s12, [r4, #236]
 1202              		.loc 1 553 0
 1203 010c 84ED3E6A 		vstr.32	s12, [r4, #248]
 1204              		.loc 1 548 0
 1205 0110 84ED3A2A 		vstr.32	s4, [r4, #232]
 1206              		.loc 1 552 0
 1207 0114 84ED3D2A 		vstr.32	s4, [r4, #244]
 1208              		.loc 1 561 0
 1209 0118 84ED449A 		vstr.32	s18, [r4, #272]
 1210              		.loc 1 557 0
 1211 011c C4ED406A 		vstr.32	s13, [r4, #256]
 1212              		.loc 1 562 0
 1213 0120 C4ED453A 		vstr.32	s7, [r4, #276]
 1214              		.loc 1 563 0
 1215 0124 C4ED463A 		vstr.32	s7, [r4, #280]
 1216              		.loc 1 570 0
 1217 0128 94ED29CA 		vldr.32	s24, [r4, #164]
 1218              		.loc 1 559 0
 1219 012c 84ED420A 		vstr.32	s0, [r4, #264]
 1220              		.loc 1 584 0
 1221 0130 D4ED2C7A 		vldr.32	s15, [r4, #176]
 1222 0134 D4ED2DDA 		vldr.32	s27, [r4, #180]
 1223              		.loc 1 585 0
 1224 0138 94ED30FA 		vldr.32	s30, [r4, #192]
 1225              		.loc 1 589 0
 1226 013c 94ED4C3A 		vldr.32	s6, [r4, #304]
 1227              		.loc 1 585 0
 1228 0140 D4ED2FEA 		vldr.32	s29, [r4, #188]
 1229              		.loc 1 589 0
 1230 0144 94ED4BEA 		vldr.32	s28, [r4, #300]
 1231              	.LVL60:
 1232 0148 94ED4ADA 		vldr.32	s26, [r4, #296]
 1233              	.LVL61:
 1234              		.loc 1 586 0
 1235 014c 94ED321A 		vldr.32	s2, [r4, #200]
 1236              		.loc 1 584 0
 1237 0150 7AEEADAA 		vadd.f32	s21, s21, s27
 1238 0154 3BEE27BA 		vadd.f32	s22, s22, s15
 1239              		.loc 1 549 0
 1240 0158 B0EE464A 		vmov.f32	s8, s12
 1241              		.loc 1 585 0
 1242 015c 72EE8F2A 		vadd.f32	s5, s5, s30
 1243              		.loc 1 589 0
 1244 0160 94ED496A 		vldr.32	s12, [r4, #292]
 1245              		.loc 1 584 0
 1246 0164 D4ED2E7A 		vldr.32	s15, [r4, #184]
 1247              		.loc 1 589 0
 1248 0168 D4ED48DA 		vldr.32	s27, [r4, #288]
 1249              		.loc 1 584 0
 1250 016c C4ED4FAA 		vstr.32	s21, [r4, #316]
 1251 0170 35EEAB7A 		vadd.f32	s14, s11, s23
 1252              		.loc 1 585 0
 1253 0174 70EEAE0A 		vadd.f32	s1, s1, s29
 1254              		.loc 1 584 0
ARM GAS  C:\Users\IDONNO~1\AppData\Local\Temp\ccbct5ml.s 			page 23


 1255 0178 37EE277A 		vadd.f32	s14, s14, s15
 1256              		.loc 1 589 0
 1257 017c 6AEE86EA 		vmul.f32	s29, s21, s12
 1258              		.loc 1 590 0
 1259 0180 22EE83FA 		vmul.f32	s30, s5, s6
 1260              		.loc 1 585 0
 1261 0184 74EEAC4A 		vadd.f32	s9, s9, s25
 1262 0188 D4ED317A 		vldr.32	s15, [r4, #196]
 1263              		.loc 1 584 0
 1264 018c 84ED4EBA 		vstr.32	s22, [r4, #312]
 1265              		.loc 1 585 0
 1266 0190 74EEA77A 		vadd.f32	s15, s9, s15
 1267              		.loc 1 604 0
 1268 0194 63EE0FCA 		vmul.f32	s25, s6, s30
 1269              	.LVL62:
 1270              		.loc 1 603 0
 1271 0198 6EEE834A 		vmul.f32	s9, s29, s6
 1272 019c 2AEE833A 		vmul.f32	s6, s21, s6
 1273              		.loc 1 604 0
 1274 01a0 62EE86AA 		vmul.f32	s21, s5, s12
 1275              		.loc 1 590 0
 1276 01a4 60EE8EFA 		vmul.f32	s31, s1, s28
 1277              		.loc 1 604 0
 1278 01a8 E0EEADAA 		vfma.f32	s21, s1, s27
 1279              		.loc 1 589 0
 1280 01ac 6BEE2DBA 		vmul.f32	s23, s22, s27
 1281              	.LVL63:
 1282              		.loc 1 603 0
 1283 01b0 66EE2E5A 		vmul.f32	s11, s12, s29
 1284 01b4 ABEE0E3A 		vfma.f32	s6, s22, s28
 1285              		.loc 1 604 0
 1286 01b8 EEEE2FCA 		vfma.f32	s25, s28, s31
 1287              		.loc 1 589 0
 1288 01bc 94ED4DBA 		vldr.32	s22, [r4, #308]
 1289              		.loc 1 585 0
 1290 01c0 C4ED510A 		vstr.32	s1, [r4, #324]
 1291              		.loc 1 603 0
 1292 01c4 EDEEAB5A 		vfma.f32	s11, s27, s23
 1293 01c8 EBEE8E4A 		vfma.f32	s9, s23, s28
 1294              		.loc 1 604 0
 1295 01cc F0EE6A0A 		vmov.f32	s1, s21
 1296 01d0 26EE0F6A 		vmul.f32	s12, s12, s30
 1297              		.loc 1 590 0
 1298 01d4 67EE8BAA 		vmul.f32	s21, s15, s22
 1299              		.loc 1 604 0
 1300 01d8 ADEEAF6A 		vfma.f32	s12, s27, s31
 1301 01dc EBEE2ACA 		vfma.f32	s25, s22, s21
 1302              		.loc 1 589 0
 1303 01e0 67EE0DDA 		vmul.f32	s27, s14, s26
 1304              		.loc 1 603 0
 1305 01e4 A7EE0B3A 		vfma.f32	s6, s14, s22
 1306 01e8 EDEE8B4A 		vfma.f32	s9, s27, s22
 1307              		.loc 1 604 0
 1308 01ec 3FEE8FFA 		vadd.f32	s30, s31, s30
 1309              		.loc 1 600 0
 1310 01f0 94ED35BA 		vldr.32	s22, [r4, #212]
 1311              		.loc 1 584 0
ARM GAS  C:\Users\IDONNO~1\AppData\Local\Temp\ccbct5ml.s 			page 24


 1312 01f4 84ED507A 		vstr.32	s14, [r4, #320]
 1313              		.loc 1 603 0
 1314 01f8 EDEE2D5A 		vfma.f32	s11, s26, s27
 1315              		.loc 1 604 0
 1316 01fc B0EE607A 		vmov.f32	s14, s1
 1317 0200 ADEE2A6A 		vfma.f32	s12, s26, s21
 1318 0204 A7EE8D7A 		vfma.f32	s14, s15, s26
 1319 0208 3FEE2AFA 		vadd.f32	s30, s30, s21
 1320              		.loc 1 603 0
 1321 020c 7BEEAEBA 		vadd.f32	s23, s23, s29
 1322              		.loc 1 604 0
 1323 0210 7CEE8BCA 		vadd.f32	s25, s25, s22
 1324              		.loc 1 603 0
 1325 0214 C3EE240A 		vdiv.f32	s1, s6, s9
 1326 0218 75EE8B5A 		vadd.f32	s11, s11, s22
 1327              		.loc 1 604 0
 1328 021c 8FEE2C3A 		vdiv.f32	s6, s30, s25
 1329              		.loc 1 603 0
 1330 0220 7BEEADBA 		vadd.f32	s23, s23, s27
 1331              		.loc 1 604 0
 1332 0224 C7EE064A 		vdiv.f32	s9, s14, s12
 1333              		.loc 1 603 0
 1334 0228 CBEEA5AA 		vdiv.f32	s21, s23, s11
 1335              		.loc 1 570 0
 1336 022c 25EE237A 		vmul.f32	s14, s10, s7
 1337 0230 2CEE23CA 		vmul.f32	s24, s24, s7
 1338              	.LVL64:
 1339              		.loc 1 586 0
 1340 0234 68EE075A 		vmul.f32	s11, s16, s14
 1341 0238 66EE876A 		vmul.f32	s13, s13, s14
 1342              	.LVL65:
 1343              		.loc 1 608 0
 1344 023c 38EEC46A 		vsub.f32	s12, s17, s8
 1345              		.loc 1 586 0
 1346 0240 E8EE0C6A 		vfma.f32	s13, s16, s24
 1347 0244 E0EE0C5A 		vfma.f32	s11, s0, s24
 1348 0248 27EE237A 		vmul.f32	s14, s14, s7
 1349              	.LVL66:
 1350              		.loc 1 607 0
 1351 024c 3AEE42AA 		vsub.f32	s20, s20, s4
 1352              		.loc 1 586 0
 1353 0250 ACEE237A 		vfma.f32	s14, s24, s7
 1354              		.loc 1 610 0
 1355 0254 20EE865A 		vmul.f32	s10, s1, s12
 1356              	.LVL67:
 1357              		.loc 1 611 0
 1358 0258 23EE066A 		vmul.f32	s12, s6, s12
 1359              		.loc 1 586 0
 1360 025c E9EEA16A 		vfma.f32	s13, s19, s3
 1361 0260 E9EE215A 		vfma.f32	s11, s18, s3
 1362              		.loc 1 610 0
 1363 0264 AAEE8A5A 		vfma.f32	s10, s21, s20
 1364              		.loc 1 611 0
 1365 0268 A4EE8A6A 		vfma.f32	s12, s9, s20
 1366              		.loc 1 586 0
 1367 026c 37EE217A 		vadd.f32	s14, s14, s3
 1368 0270 D4ED343A 		vldr.32	s7, [r4, #208]
ARM GAS  C:\Users\IDONNO~1\AppData\Local\Temp\ccbct5ml.s 			page 25


 1369              	.LVL68:
 1370 0274 D4ED331A 		vldr.32	s3, [r4, #204]
 1371              	.LVL69:
 1372              		.loc 1 603 0
 1373 0278 C4ED57AA 		vstr.32	s21, [r4, #348]
 1374              		.loc 1 586 0
 1375 027c 76EE816A 		vadd.f32	s13, s13, s2
 1376              		.loc 1 610 0
 1377 0280 35EE022A 		vadd.f32	s4, s10, s4
 1378              		.loc 1 611 0
 1379 0284 36EE046A 		vadd.f32	s12, s12, s8
 1380              		.loc 1 586 0
 1381 0288 75EEA15A 		vadd.f32	s11, s11, s3
 1382 028c 37EE237A 		vadd.f32	s14, s14, s7
 1383 0290 C4ED546A 		vstr.32	s13, [r4, #336]
 1384              		.loc 1 603 0
 1385 0294 C4ED580A 		vstr.32	s1, [r4, #352]
 1386              		.loc 1 610 0
 1387 0298 84ED202A 		vstr.32	s4, [r4, #128]
 1388              		.loc 1 585 0
 1389 029c C4ED522A 		vstr.32	s5, [r4, #328]
 1390 02a0 C4ED537A 		vstr.32	s15, [r4, #332]
 1391              		.loc 1 611 0
 1392 02a4 84ED216A 		vstr.32	s12, [r4, #132]
 1393              		.loc 1 604 0
 1394 02a8 84ED5A3A 		vstr.32	s6, [r4, #360]
 1395 02ac C4ED594A 		vstr.32	s9, [r4, #356]
 1396              		.loc 1 586 0
 1397 02b0 C4ED555A 		vstr.32	s11, [r4, #340]
 1398              	.LVL70:
 1399 02b4 84ED567A 		vstr.32	s14, [r4, #344]
 1400              		.loc 1 617 0
 1401 02b8 BDEC108B 		vldm	sp!, {d8-d15}
 1402              		.cfi_restore 94
 1403              		.cfi_restore 95
 1404              		.cfi_restore 92
 1405              		.cfi_restore 93
 1406              		.cfi_restore 90
 1407              		.cfi_restore 91
 1408              		.cfi_restore 88
 1409              		.cfi_restore 89
 1410              		.cfi_restore 86
 1411              		.cfi_restore 87
 1412              		.cfi_restore 84
 1413              		.cfi_restore 85
 1414              		.cfi_restore 82
 1415              		.cfi_restore 83
 1416              		.cfi_restore 80
 1417              		.cfi_restore 81
 1418              		.cfi_def_cfa_offset 8
 1419              	.LVL71:
 1420 02bc 10BD     		pop	{r4, pc}
 1421              	.LVL72:
 1422              	.L53:
 1423 02be 00BF     		.align	2
 1424              	.L52:
 1425 02c0 00000000 		.word	0
ARM GAS  C:\Users\IDONNO~1\AppData\Local\Temp\ccbct5ml.s 			page 26


 1426              		.cfi_endproc
 1427              	.LFE271:
 1428              		.size	encoder_ExpendedKalmanFilter, .-encoder_ExpendedKalmanFilter
 1429              		.section	.text.encoder_PLLThetaEstimation,"ax",%progbits
 1430              		.align	2
 1431              		.p2align 4,,15
 1432              		.global	encoder_PLLThetaEstimation
 1433              		.thumb
 1434              		.thumb_func
 1435              		.type	encoder_PLLThetaEstimation, %function
 1436              	encoder_PLLThetaEstimation:
 1437              	.LFB272:
 1438              		.loc 1 621 0
 1439              		.cfi_startproc
 1440              		@ args = 0, pretend = 0, frame = 0
 1441              		@ frame_needed = 0, uses_anonymous_args = 0
 1442              	.LVL73:
 1443 0000 10B5     		push	{r4, lr}
 1444              		.cfi_def_cfa_offset 8
 1445              		.cfi_offset 4, -8
 1446              		.cfi_offset 14, -4
 1447 0002 2DED028B 		vpush.64	{d8}
 1448              		.cfi_def_cfa_offset 16
 1449              		.cfi_offset 80, -16
 1450              		.cfi_offset 81, -12
 1451              		.loc 1 623 0
 1452 0006 D0ED0D8A 		vldr.32	s17, [r0, #52]
 1453 000a B0EE680A 		vmov.f32	s0, s17
 1454              		.loc 1 621 0
 1455 000e 0446     		mov	r4, r0
 1456              		.loc 1 623 0
 1457 0010 FFF7FEFF 		bl	cosf
 1458              	.LVL74:
 1459 0014 B0EE408A 		vmov.f32	s16, s0
 1460 0018 84ED038A 		vstr.32	s16, [r4, #12]
 1461              		.loc 1 624 0
 1462 001c B0EE680A 		vmov.f32	s0, s17
 1463 0020 FFF7FEFF 		bl	sinf
 1464              	.LVL75:
 1465              		.loc 1 627 0
 1466 0024 94ED016A 		vldr.32	s12, [r4, #4]
 1467              		.loc 1 626 0
 1468 0028 94ED005A 		vldr.32	s10, [r4]
 1469              		.loc 1 630 0
 1470 002c D4ED057A 		vldr.32	s15, [r4, #20]
 1471              	.LVL76:
 1472              		.loc 1 633 0
 1473 0030 94ED087A 		vldr.32	s14, [r4, #32]
 1474 0034 D4ED066A 		vldr.32	s13, [r4, #24]
 1475              		.loc 1 624 0
 1476 0038 84ED040A 		vstr.32	s0, [r4, #16]
 1477              		.loc 1 626 0
 1478 003c 28EE058A 		vmul.f32	s16, s16, s10
 1479              		.loc 1 627 0
 1480 0040 20EE060A 		vmul.f32	s0, s0, s12
 1481              		.loc 1 633 0
 1482 0044 77EEA66A 		vadd.f32	s13, s15, s13
ARM GAS  C:\Users\IDONNO~1\AppData\Local\Temp\ccbct5ml.s 			page 27


 1483              	.LVL77:
 1484              		.loc 1 632 0
 1485 0048 38EE406A 		vsub.f32	s12, s16, s0
 1486              	.LVL78:
 1487              		.loc 1 633 0
 1488 004c 67EE677A 		vnmul.f32	s15, s14, s15
 1489              	.LVL79:
 1490 0050 D4ED075A 		vldr.32	s11, [r4, #28]
 1491              		.loc 1 626 0
 1492 0054 84ED098A 		vstr.32	s16, [r4, #36]
 1493              		.loc 1 633 0
 1494 0058 E6EE867A 		vfma.f32	s15, s13, s12
 1495              		.loc 1 634 0
 1496 005c B2EE047A 		vmov.f32	s14, #1.0e+1
 1497              		.loc 1 633 0
 1498 0060 77EEA57A 		vadd.f32	s15, s15, s11
 1499              		.loc 1 627 0
 1500 0064 84ED0A0A 		vstr.32	s0, [r4, #40]
 1501              		.loc 1 634 0
 1502 0068 F4EEC77A 		vcmpe.f32	s15, s14
 1503 006c F1EE10FA 		vmrs	APSR_nzcv, FPSCR
 1504 0070 27DC     		bgt	.L61
 1505              		.loc 1 634 0 is_stmt 0 discriminator 2
 1506 0072 BAEE047A 		vmov.f32	s14, #-1.0e+1
 1507 0076 F4EE477A 		vcmp.f32	s15, s14
 1508 007a F1EE10FA 		vmrs	APSR_nzcv, FPSCR
 1509 007e 48BF     		it	mi
 1510 0080 F0EE477A 		vmovmi.f32	s15, s14
 1511              	.L55:
 1512              		.loc 1 639 0 is_stmt 1 discriminator 8
 1513 0084 94ED0C7A 		vldr.32	s14, [r4, #48]
 1514              		.loc 1 640 0 discriminator 8
 1515 0088 DFED146A 		vldr.32	s13, .L68
 1516              	.LVL80:
 1517              		.loc 1 634 0 discriminator 8
 1518 008c C4ED077A 		vstr.32	s15, [r4, #28]
 1519              		.loc 1 639 0 discriminator 8
 1520 0090 37EE877A 		vadd.f32	s14, s15, s14
 1521              		.loc 1 635 0 discriminator 8
 1522 0094 84ED086A 		vstr.32	s12, [r4, #32]
 1523              		.loc 1 640 0 discriminator 8
 1524 0098 B4EEE67A 		vcmpe.f32	s14, s13
 1525 009c F1EE10FA 		vmrs	APSR_nzcv, FPSCR
 1526              		.loc 1 637 0 discriminator 8
 1527 00a0 C4ED5D7A 		vstr.32	s15, [r4, #372]
 1528              		.loc 1 640 0 discriminator 8
 1529 00a4 10DC     		bgt	.L67
 1530              		.loc 1 645 0
 1531 00a6 BDEC028B 		vldm	sp!, {d8}
 1532              		.cfi_remember_state
 1533              		.cfi_restore 80
 1534              		.cfi_restore 81
 1535              		.cfi_def_cfa_offset 8
 1536              		.loc 1 641 0
 1537 00aa B5EEC07A 		vcmpe.f32	s14, #0
 1538 00ae F1EE10FA 		vmrs	APSR_nzcv, FPSCR
 1539 00b2 48BF     		it	mi
ARM GAS  C:\Users\IDONNO~1\AppData\Local\Temp\ccbct5ml.s 			page 28


 1540 00b4 37EE267A 		vaddmi.f32	s14, s14, s13
 1541 00b8 84ED0C7A 		vstr.32	s14, [r4, #48]
 1542              		.loc 1 643 0
 1543 00bc 84ED0D7A 		vstr.32	s14, [r4, #52]
 1544              		.loc 1 645 0
 1545 00c0 10BD     		pop	{r4, pc}
 1546              	.LVL81:
 1547              	.L61:
 1548              		.cfi_restore_state
 1549              		.loc 1 634 0
 1550 00c2 F0EE477A 		vmov.f32	s15, s14
 1551 00c6 DDE7     		b	.L55
 1552              	.LVL82:
 1553              	.L67:
 1554              		.loc 1 645 0 discriminator 1
 1555 00c8 BDEC028B 		vldm	sp!, {d8}
 1556              		.cfi_restore 80
 1557              		.cfi_restore 81
 1558              		.cfi_def_cfa_offset 8
 1559              		.loc 1 640 0 discriminator 1
 1560 00cc 37EE667A 		vsub.f32	s14, s14, s13
 1561 00d0 84ED0C7A 		vstr.32	s14, [r4, #48]
 1562              		.loc 1 643 0 discriminator 1
 1563 00d4 84ED0D7A 		vstr.32	s14, [r4, #52]
 1564              		.loc 1 645 0 discriminator 1
 1565 00d8 10BD     		pop	{r4, pc}
 1566              	.LVL83:
 1567              	.L69:
 1568 00da 00BF     		.align	2
 1569              	.L68:
 1570 00dc DB0FC940 		.word	1086918619
 1571              		.cfi_endproc
 1572              	.LFE272:
 1573              		.size	encoder_PLLThetaEstimation, .-encoder_PLLThetaEstimation
 1574              		.section	.text.encoder_tim_isr,"ax",%progbits
 1575              		.align	2
 1576              		.p2align 4,,15
 1577              		.global	encoder_tim_isr
 1578              		.thumb
 1579              		.thumb_func
 1580              		.type	encoder_tim_isr, %function
 1581              	encoder_tim_isr:
 1582              	.LFB262:
 1583              		.loc 1 265 0
 1584              		.cfi_startproc
 1585              		@ args = 0, pretend = 0, frame = 0
 1586              		@ frame_needed = 0, uses_anonymous_args = 0
 1587 0000 2DE9F041 		push	{r4, r5, r6, r7, r8, lr}
 1588              		.cfi_def_cfa_offset 24
 1589              		.cfi_offset 4, -24
 1590              		.cfi_offset 5, -20
 1591              		.cfi_offset 6, -16
 1592              		.cfi_offset 7, -12
 1593              		.cfi_offset 8, -8
 1594              		.cfi_offset 14, -4
 1595              		.loc 1 270 0
 1596 0004 6C4B     		ldr	r3, .L93
ARM GAS  C:\Users\IDONNO~1\AppData\Local\Temp\ccbct5ml.s 			page 29


 1597 0006 1B78     		ldrb	r3, [r3]	@ zero_extendqisi2
 1598 0008 022B     		cmp	r3, #2
 1599              		.loc 1 265 0
 1600 000a 2DED028B 		vpush.64	{d8}
 1601              		.cfi_def_cfa_offset 32
 1602              		.cfi_offset 80, -32
 1603              		.cfi_offset 81, -28
 1604              		.loc 1 270 0
 1605 000e 29D0     		beq	.L89
 1606              		.loc 1 288 0
 1607 0010 032B     		cmp	r3, #3
 1608 0012 00F08480 		beq	.L90
 1609              		.loc 1 299 0
 1610 0016 042B     		cmp	r3, #4
 1611 0018 03D0     		beq	.L91
 1612              	.L70:
 1613              		.loc 1 327 0
 1614 001a BDEC028B 		vldm	sp!, {d8}
 1615              		.cfi_remember_state
 1616              		.cfi_restore 80
 1617              		.cfi_restore 81
 1618              		.cfi_def_cfa_offset 24
 1619 001e BDE8F081 		pop	{r4, r5, r6, r7, r8, pc}
 1620              	.L91:
 1621              		.cfi_restore_state
 1622              		.loc 1 301 0
 1623 0022 664B     		ldr	r3, .L93+4
 1624 0024 1A69     		ldr	r2, [r3, #16]
 1625 0026 9007     		lsls	r0, r2, #30
 1626 0028 F7D5     		bpl	.L70
 1627              		.loc 1 301 0 is_stmt 0 discriminator 1
 1628 002a DA68     		ldr	r2, [r3, #12]
 1629 002c 9107     		lsls	r1, r2, #30
 1630 002e F4D5     		bpl	.L70
 1631              		.loc 1 303 0 is_stmt 1
 1632 0030 6349     		ldr	r1, .L93+8
 1633              		.loc 1 305 0
 1634 0032 6448     		ldr	r0, .L93+12
 1635              		.loc 1 303 0
 1636 0034 0A88     		ldrh	r2, [r1]
 1637              		.loc 1 304 0
 1638 0036 4FF6FD74 		movw	r4, #65533
 1639              		.loc 1 303 0
 1640 003a 0132     		adds	r2, r2, #1
 1641 003c 0A80     		strh	r2, [r1]	@ movhi
 1642              		.loc 1 304 0
 1643 003e 1C61     		str	r4, [r3, #16]
 1644              		.loc 1 305 0
 1645 0040 0269     		ldr	r2, [r0, #16]
 1646 0042 5206     		lsls	r2, r2, #25
 1647 0044 00F1A980 		bmi	.L92
 1648              		.loc 1 316 0
 1649 0048 5F49     		ldr	r1, .L93+16
 1650              		.loc 1 315 0
 1651 004a 5A6B     		ldr	r2, [r3, #52]
 1652              		.loc 1 316 0
 1653 004c 0988     		ldrh	r1, [r1]
ARM GAS  C:\Users\IDONNO~1\AppData\Local\Temp\ccbct5ml.s 			page 30


 1654              		.loc 1 315 0
 1655 004e 5F48     		ldr	r0, .L93+20
 1656              		.loc 1 316 0
 1657 0050 5F4C     		ldr	r4, .L93+24
 1658              		.loc 1 315 0
 1659 0052 92B2     		uxth	r2, r2
 1660              		.loc 1 316 0
 1661 0054 511A     		subs	r1, r2, r1
 1662              		.loc 1 315 0
 1663 0056 0280     		strh	r2, [r0]	@ movhi
 1664              		.loc 1 317 0
 1665 0058 1A6A     		ldr	r2, [r3, #32]
 1666              		.loc 1 316 0
 1667 005a 2180     		strh	r1, [r4]	@ movhi
 1668              		.loc 1 317 0
 1669 005c 42F00202 		orr	r2, r2, #2
 1670 0060 1A62     		str	r2, [r3, #32]
 1671              	.LVL84:
 1672              		.loc 1 327 0
 1673 0062 DAE7     		b	.L70
 1674              	.L89:
 1675              	.LBB206:
 1676              	.LBB207:
 1677              		.loc 1 390 0
 1678 0064 574D     		ldr	r5, .L93+12
 1679 0066 1026     		movs	r6, #16
 1680              	.LBE207:
 1681              	.LBE206:
 1682              	.LBB210:
 1683              	.LBB211:
 1684              	.LBB212:
 1685              	.LBB213:
 1686              	.LBB214:
 1687              		.loc 1 364 0
 1688 0068 2027     		movs	r7, #32
 1689              	.LBE214:
 1690              	.LBE213:
 1691              	.LBE212:
 1692              	.LBE211:
 1693              	.LBE210:
 1694              	.LBB256:
 1695              	.LBB208:
 1696              		.loc 1 390 0
 1697 006a 6E83     		strh	r6, [r5, #26]	@ movhi
 1698              	.LVL85:
 1699              	.LBE208:
 1700              	.LBE256:
 1701              	.LBB257:
 1702              	.LBB254:
 1703              	.LBB252:
 1704              	.LBB250:
 1705              	.LBB248:
 1706              		.loc 1 364 0
 1707 006c B846     		mov	r8, r7	@ movhi
 1708              	.LBE248:
 1709              	.LBE250:
 1710              	.LBE252:
ARM GAS  C:\Users\IDONNO~1\AppData\Local\Temp\ccbct5ml.s 			page 31


 1711              	.LBE254:
 1712              	.LBE257:
 1713              	.LBB258:
 1714              	.LBB209:
 1715              		.loc 1 390 0
 1716 006e 0024     		movs	r4, #0
 1717              	.LVL86:
 1718              	.L73:
 1719              	.LBE209:
 1720              	.LBE258:
 1721              	.LBB259:
 1722              	.LBB255:
 1723              	.LBB253:
 1724              	.LBB251:
 1725              	.LBB249:
 1726              	.LBB215:
 1727              	.LBB216:
 1728              	.LBB217:
 1729              		.loc 2 327 0
 1730              		.syntax unified
 1731              	@ 327 "src/ChibiOS_3.0.2/os/ext/CMSIS/include/core_cmInstr.h" 1
 1732 0070 00BF     		nop
 1733              	@ 0 "" 2
 1734              		.thumb
 1735              		.syntax unified
 1736              	.LBE217:
 1737              	.LBE216:
 1738              	.LBB218:
 1739              	.LBB219:
 1740              		.syntax unified
 1741              	@ 327 "src/ChibiOS_3.0.2/os/ext/CMSIS/include/core_cmInstr.h" 1
 1742 0072 00BF     		nop
 1743              	@ 0 "" 2
 1744              		.thumb
 1745              		.syntax unified
 1746              	.LBE219:
 1747              	.LBE218:
 1748              	.LBB220:
 1749              	.LBB221:
 1750              		.syntax unified
 1751              	@ 327 "src/ChibiOS_3.0.2/os/ext/CMSIS/include/core_cmInstr.h" 1
 1752 0074 00BF     		nop
 1753              	@ 0 "" 2
 1754              		.thumb
 1755              		.syntax unified
 1756              	.LBE221:
 1757              	.LBE220:
 1758              	.LBB222:
 1759              	.LBB223:
 1760              		.syntax unified
 1761              	@ 327 "src/ChibiOS_3.0.2/os/ext/CMSIS/include/core_cmInstr.h" 1
 1762 0076 00BF     		nop
 1763              	@ 0 "" 2
 1764              		.thumb
 1765              		.syntax unified
 1766              	.LBE223:
 1767              	.LBE222:
ARM GAS  C:\Users\IDONNO~1\AppData\Local\Temp\ccbct5ml.s 			page 32


 1768              	.LBE215:
 1769              		.loc 1 364 0
 1770 0078 A5F81880 		strh	r8, [r5, #24]	@ movhi
 1771              	.LBB224:
 1772              	.LBB225:
 1773              	.LBB226:
 1774              		.loc 2 327 0
 1775              		.syntax unified
 1776              	@ 327 "src/ChibiOS_3.0.2/os/ext/CMSIS/include/core_cmInstr.h" 1
 1777 007c 00BF     		nop
 1778              	@ 0 "" 2
 1779              		.thumb
 1780              		.syntax unified
 1781              	.LBE226:
 1782              	.LBE225:
 1783              	.LBB227:
 1784              	.LBB228:
 1785              		.syntax unified
 1786              	@ 327 "src/ChibiOS_3.0.2/os/ext/CMSIS/include/core_cmInstr.h" 1
 1787 007e 00BF     		nop
 1788              	@ 0 "" 2
 1789              		.thumb
 1790              		.syntax unified
 1791              	.LBE228:
 1792              	.LBE227:
 1793              	.LBB229:
 1794              	.LBB230:
 1795              		.syntax unified
 1796              	@ 327 "src/ChibiOS_3.0.2/os/ext/CMSIS/include/core_cmInstr.h" 1
 1797 0080 00BF     		nop
 1798              	@ 0 "" 2
 1799              		.thumb
 1800              		.syntax unified
 1801              	.LBE230:
 1802              	.LBE229:
 1803              	.LBB231:
 1804              	.LBB232:
 1805              		.syntax unified
 1806              	@ 327 "src/ChibiOS_3.0.2/os/ext/CMSIS/include/core_cmInstr.h" 1
 1807 0082 00BF     		nop
 1808              	@ 0 "" 2
 1809              		.thumb
 1810              		.syntax unified
 1811              	.LBE232:
 1812              	.LBE231:
 1813              	.LBE224:
 1814              		.loc 1 368 0
 1815 0084 2869     		ldr	r0, [r5, #16]
 1816              	.LVL87:
 1817              	.LBB233:
 1818              	.LBB234:
 1819              		.loc 2 327 0
 1820              		.syntax unified
 1821              	@ 327 "src/ChibiOS_3.0.2/os/ext/CMSIS/include/core_cmInstr.h" 1
 1822 0086 00BF     		nop
 1823              	@ 0 "" 2
 1824              		.thumb
ARM GAS  C:\Users\IDONNO~1\AppData\Local\Temp\ccbct5ml.s 			page 33


 1825              		.syntax unified
 1826              	.LBE234:
 1827              	.LBE233:
 1828              		.loc 1 370 0
 1829 0088 2969     		ldr	r1, [r5, #16]
 1830              	.LVL88:
 1831              	.LBB235:
 1832              	.LBB236:
 1833              		.loc 2 327 0
 1834              		.syntax unified
 1835              	@ 327 "src/ChibiOS_3.0.2/os/ext/CMSIS/include/core_cmInstr.h" 1
 1836 008a 00BF     		nop
 1837              	@ 0 "" 2
 1838              		.thumb
 1839              		.syntax unified
 1840              	.LBE236:
 1841              	.LBE235:
 1842              		.loc 1 372 0
 1843 008c 2A69     		ldr	r2, [r5, #16]
 1844              	.LVL89:
 1845              		.loc 1 374 0
 1846 008e 6400     		lsls	r4, r4, #1
 1847              	.LVL90:
 1848              	.LBB237:
 1849              		.loc 1 375 0
 1850 0090 C1F38011 		ubfx	r1, r1, #6, #1
 1851              	.LVL91:
 1852 0094 C0F38010 		ubfx	r0, r0, #6, #1
 1853              	.LVL92:
 1854 0098 C2F38012 		ubfx	r2, r2, #6, #1
 1855              	.LVL93:
 1856              	.LBE237:
 1857              		.loc 1 374 0
 1858 009c A4B2     		uxth	r4, r4
 1859              	.LVL94:
 1860              	.LBB238:
 1861              		.loc 1 375 0
 1862 009e FFF7FEFF 		bl	utils_middle_of_3_int
 1863              	.LVL95:
 1864 00a2 08B1     		cbz	r0, .L75
 1865              		.loc 1 376 0
 1866 00a4 44F00104 		orr	r4, r4, #1
 1867              	.LVL96:
 1868              	.L75:
 1869              	.LBE238:
 1870              		.loc 1 379 0
 1871 00a8 6F83     		strh	r7, [r5, #26]	@ movhi
 1872 00aa 464B     		ldr	r3, .L93+12
 1873              	.LBB239:
 1874              	.LBB240:
 1875              	.LBB241:
 1876              		.loc 2 327 0
 1877              		.syntax unified
 1878              	@ 327 "src/ChibiOS_3.0.2/os/ext/CMSIS/include/core_cmInstr.h" 1
 1879 00ac 00BF     		nop
 1880              	@ 0 "" 2
 1881              		.thumb
ARM GAS  C:\Users\IDONNO~1\AppData\Local\Temp\ccbct5ml.s 			page 34


 1882              		.syntax unified
 1883              	.LBE241:
 1884              	.LBE240:
 1885              	.LBB242:
 1886              	.LBB243:
 1887              		.syntax unified
 1888              	@ 327 "src/ChibiOS_3.0.2/os/ext/CMSIS/include/core_cmInstr.h" 1
 1889 00ae 00BF     		nop
 1890              	@ 0 "" 2
 1891              		.thumb
 1892              		.syntax unified
 1893              	.LBE243:
 1894              	.LBE242:
 1895              	.LBB244:
 1896              	.LBB245:
 1897              		.syntax unified
 1898              	@ 327 "src/ChibiOS_3.0.2/os/ext/CMSIS/include/core_cmInstr.h" 1
 1899 00b0 00BF     		nop
 1900              	@ 0 "" 2
 1901              		.thumb
 1902              		.syntax unified
 1903              	.LBE245:
 1904              	.LBE244:
 1905              	.LBB246:
 1906              	.LBB247:
 1907              		.syntax unified
 1908              	@ 327 "src/ChibiOS_3.0.2/os/ext/CMSIS/include/core_cmInstr.h" 1
 1909 00b2 00BF     		nop
 1910              	@ 0 "" 2
 1911              	.LVL97:
 1912              		.thumb
 1913              		.syntax unified
 1914              	.LBE247:
 1915              	.LBE246:
 1916              	.LBE239:
 1917              	.LBE249:
 1918              		.loc 1 359 0
 1919 00b4 013E     		subs	r6, r6, #1
 1920              	.LVL98:
 1921 00b6 DBD1     		bne	.L73
 1922              	.LVL99:
 1923              	.LBE251:
 1924              	.LBE253:
 1925              	.LBE255:
 1926              	.LBE259:
 1927              		.loc 1 277 0
 1928 00b8 C4F30D02 		ubfx	r2, r4, #0, #14
 1929 00bc DFED458A 		vldr.32	s17, .L93+28
 1930              		.loc 1 278 0
 1931 00c0 454D     		ldr	r5, .L93+32
 1932              		.loc 1 277 0
 1933 00c2 00EE102A 		vmov	s0, r2	@ int
 1934              	.LBB260:
 1935              	.LBB261:
 1936              		.loc 1 394 0
 1937 00c6 1022     		movs	r2, #16
 1938              	.LBE261:
ARM GAS  C:\Users\IDONNO~1\AppData\Local\Temp\ccbct5ml.s 			page 35


 1939              	.LBE260:
 1940              		.loc 1 277 0
 1941 00c8 F0EE680A 		vmov.f32	s1, s17
 1942              	.LBB263:
 1943              	.LBB262:
 1944              		.loc 1 394 0
 1945 00cc 1A83     		strh	r2, [r3, #24]	@ movhi
 1946              	.LVL100:
 1947              	.LBE262:
 1948              	.LBE263:
 1949              		.loc 1 277 0
 1950 00ce B8EE400A 		vcvt.f32.u32	s0, s0
 1951 00d2 FFF7FEFF 		bl	fmodf
 1952              	.LVL101:
 1953              		.loc 1 278 0
 1954 00d6 DFED417A 		vldr.32	s15, .L93+36
 1955 00da 20EE270A 		vmul.f32	s0, s0, s15
 1956              	.LVL102:
 1957 00de 80EE288A 		vdiv.f32	s16, s0, s17
 1958              		.loc 1 280 0
 1959 00e2 B0EE480A 		vmov.f32	s0, s16
 1960              		.loc 1 278 0
 1961 00e6 85ED028A 		vstr.32	s16, [r5, #8]
 1962              		.loc 1 280 0
 1963 00ea FFF7FEFF 		bl	sinf
 1964              	.LVL103:
 1965 00ee 85ED000A 		vstr.32	s0, [r5]
 1966              		.loc 1 281 0
 1967 00f2 B0EE480A 		vmov.f32	s0, s16
 1968 00f6 FFF7FEFF 		bl	cosf
 1969              	.LVL104:
 1970              		.loc 1 283 0
 1971 00fa 2846     		mov	r0, r5
 1972              		.loc 1 281 0
 1973 00fc 85ED010A 		vstr.32	s0, [r5, #4]
 1974              		.loc 1 283 0
 1975 0100 FFF7FEFF 		bl	encoder_PLLThetaEstimation
 1976              	.LVL105:
 1977              		.loc 1 285 0
 1978 0104 95ED0C7A 		vldr.32	s14, [r5, #48]
 1979 0108 DFED357A 		vldr.32	s15, .L93+40
 1980 010c DFED356A 		vldr.32	s13, .L93+44
 1981 0110 77EE677A 		vsub.f32	s15, s14, s15
 1982 0114 77EEE67A 		vsub.f32	s15, s15, s13
 1983 0118 C5ED0B7A 		vstr.32	s15, [r5, #44]
 1984 011c 7DE7     		b	.L70
 1985              	.LVL106:
 1986              	.L90:
 1987              		.loc 1 290 0
 1988 011e 324B     		ldr	r3, .L93+48
 1989 0120 9FED326A 		vldr.32	s12, .L93+52
 1990 0124 9A88     		ldrh	r2, [r3, #4]
 1991              		.loc 1 291 0
 1992 0126 5B88     		ldrh	r3, [r3, #2]
 1993              		.loc 1 290 0
 1994 0128 DFED316A 		vldr.32	s13, .L93+56
 1995 012c 2A4C     		ldr	r4, .L93+32
ARM GAS  C:\Users\IDONNO~1\AppData\Local\Temp\ccbct5ml.s 			page 36


 1996 012e 07EE102A 		vmov	s14, r2	@ int
 1997              		.loc 1 291 0
 1998 0132 07EE903A 		vmov	s15, r3	@ int
 1999              		.loc 1 290 0
 2000 0136 B8EE477A 		vcvt.f32.u32	s14, s14
 2001              		.loc 1 291 0
 2002 013a F8EE677A 		vcvt.f32.u32	s15, s15
 2003              		.loc 1 290 0
 2004 013e 37EE467A 		vsub.f32	s14, s14, s12
 2005              		.loc 1 291 0
 2006 0142 77EEC67A 		vsub.f32	s15, s15, s12
 2007              		.loc 1 290 0
 2008 0146 87EE266A 		vdiv.f32	s12, s14, s13
 2009              		.loc 1 293 0
 2010 014a 2046     		mov	r0, r4
 2011              		.loc 1 291 0
 2012 014c 87EEA67A 		vdiv.f32	s14, s15, s13
 2013              		.loc 1 290 0
 2014 0150 84ED006A 		vstr.32	s12, [r4]
 2015              		.loc 1 291 0
 2016 0154 84ED017A 		vstr.32	s14, [r4, #4]
 2017              		.loc 1 293 0
 2018 0158 FFF7FEFF 		bl	encoder_PLLThetaEstimation
 2019              	.LVL107:
 2020              		.loc 1 296 0
 2021 015c 9FED1F6A 		vldr.32	s12, .L93+36
 2022 0160 D4ED074A 		vldr.32	s9, [r4, #28]
 2023 0164 9FED235A 		vldr.32	s10, .L93+60
 2024              		.loc 1 297 0
 2025 0168 9FED237A 		vldr.32	s14, .L93+64
 2026              		.loc 1 295 0
 2027 016c D4ED0C6A 		vldr.32	s13, [r4, #48]
 2028 0170 DFED225A 		vldr.32	s11, .L93+68
 2029              		.loc 1 296 0
 2030 0174 C4EE867A 		vdiv.f32	s15, s9, s12
 2031              		.loc 1 295 0
 2032 0178 76EEA56A 		vadd.f32	s13, s13, s11
 2033              		.loc 1 296 0
 2034 017c 67EE857A 		vmul.f32	s15, s15, s10
 2035              		.loc 1 297 0
 2036 0180 B1EE0C6A 		vmov.f32	s12, #7.0e+0
 2037 0184 27EE877A 		vmul.f32	s14, s15, s14
 2038              		.loc 1 295 0
 2039 0188 C4ED0B6A 		vstr.32	s13, [r4, #44]
 2040              		.loc 1 297 0
 2041 018c C7EE066A 		vdiv.f32	s13, s14, s12
 2042              		.loc 1 296 0
 2043 0190 C4ED5C7A 		vstr.32	s15, [r4, #368]
 2044              		.loc 1 297 0
 2045 0194 C4ED5E6A 		vstr.32	s13, [r4, #376]
 2046 0198 3FE7     		b	.L70
 2047              	.L92:
 2048              		.loc 1 309 0
 2049 019a 1948     		ldr	r0, .L93+72
 2050              		.loc 1 308 0
 2051 019c 5A6B     		ldr	r2, [r3, #52]
 2052              		.loc 1 309 0
ARM GAS  C:\Users\IDONNO~1\AppData\Local\Temp\ccbct5ml.s 			page 37


 2053 019e 0188     		ldrh	r1, [r0]
 2054              		.loc 1 308 0
 2055 01a0 094C     		ldr	r4, .L93+16
 2056              		.loc 1 309 0
 2057 01a2 184D     		ldr	r5, .L93+76
 2058              		.loc 1 308 0
 2059 01a4 92B2     		uxth	r2, r2
 2060              		.loc 1 309 0
 2061 01a6 511A     		subs	r1, r2, r1
 2062              		.loc 1 310 0
 2063 01a8 0280     		strh	r2, [r0]	@ movhi
 2064              		.loc 1 308 0
 2065 01aa 2280     		strh	r2, [r4]	@ movhi
 2066              		.loc 1 311 0
 2067 01ac 1A6A     		ldr	r2, [r3, #32]
 2068              		.loc 1 309 0
 2069 01ae 2980     		strh	r1, [r5]	@ movhi
 2070              		.loc 1 311 0
 2071 01b0 22F00202 		bic	r2, r2, #2
 2072 01b4 1A62     		str	r2, [r3, #32]
 2073 01b6 30E7     		b	.L70
 2074              	.L94:
 2075              		.align	2
 2076              	.L93:
 2077 01b8 00000000 		.word	.LANCHOR1
 2078 01bc 00080040 		.word	1073743872
 2079 01c0 00000000 		.word	.LANCHOR6
 2080 01c4 00000240 		.word	1073872896
 2081 01c8 00000000 		.word	.LANCHOR7
 2082 01cc 00000000 		.word	.LANCHOR10
 2083 01d0 00000000 		.word	.LANCHOR11
 2084 01d4 DB461245 		.word	1158825691
 2085 01d8 00000000 		.word	.LANCHOR3
 2086 01dc DB0FC940 		.word	1086918619
 2087 01e0 DB0F4940 		.word	1078530011
 2088 01e4 F366DF3E 		.word	1054828275
 2089 01e8 00000000 		.word	ADC_Value
 2090 01ec 00209B44 		.word	1151016960
 2091 01f0 00F07F45 		.word	1166012416
 2092 01f4 00409C46 		.word	1184645120
 2093 01f8 0000F042 		.word	1123024896
 2094 01fc 9A99993E 		.word	1050253722
 2095 0200 00000000 		.word	.LANCHOR9
 2096 0204 00000000 		.word	.LANCHOR8
 2097              		.cfi_endproc
 2098              	.LFE262:
 2099              		.size	encoder_tim_isr, .-encoder_tim_isr
 2100              		.section	.text.encoder_tSMCInit,"ax",%progbits
 2101              		.align	2
 2102              		.p2align 4,,15
 2103              		.global	encoder_tSMCInit
 2104              		.thumb
 2105              		.thumb_func
 2106              		.type	encoder_tSMCInit, %function
 2107              	encoder_tSMCInit:
 2108              	.LFB273:
 2109              		.loc 1 649 0
ARM GAS  C:\Users\IDONNO~1\AppData\Local\Temp\ccbct5ml.s 			page 38


 2110              		.cfi_startproc
 2111              		@ args = 0, pretend = 0, frame = 0
 2112              		@ frame_needed = 0, uses_anonymous_args = 0
 2113              		@ link register save eliminated.
 2114              	.LVL108:
 2115 0000 30B4     		push	{r4, r5}
 2116              		.cfi_def_cfa_offset 8
 2117              		.cfi_offset 4, -8
 2118              		.cfi_offset 5, -4
 2119              		.loc 1 655 0
 2120 0002 0023     		movs	r3, #0
 2121              		.loc 1 650 0
 2122 0004 4FF07E52 		mov	r2, #1065353216
 2123              		.loc 1 651 0
 2124 0008 1B4C     		ldr	r4, .L97
 2125              		.loc 1 663 0
 2126 000a 1C4D     		ldr	r5, .L97+4
 2127              		.loc 1 655 0
 2128 000c 1C49     		ldr	r1, .L97+8
 2129              		.loc 1 663 0
 2130 000e C0F8D450 		str	r5, [r0, #212]	@ float
 2131              		.loc 1 651 0
 2132 0012 8461     		str	r4, [r0, #24]	@ float
 2133              		.loc 1 665 0
 2134 0014 C0F8DC40 		str	r4, [r0, #220]	@ float
 2135              		.loc 1 650 0
 2136 0018 4261     		str	r2, [r0, #20]	@ float
 2137              		.loc 1 653 0
 2138 001a C0F88020 		str	r2, [r0, #128]	@ float
 2139 001e C0F88420 		str	r2, [r0, #132]	@ float
 2140 0022 C0F88820 		str	r2, [r0, #136]	@ float
 2141              		.loc 1 659 0
 2142 0026 C0F8B020 		str	r2, [r0, #176]	@ float
 2143              		.loc 1 661 0
 2144 002a C0F8CC20 		str	r2, [r0, #204]	@ float
 2145              		.loc 1 664 0
 2146 002e C0F8D820 		str	r2, [r0, #216]	@ float
 2147              		.loc 1 667 0
 2148 0032 C0F82021 		str	r2, [r0, #288]	@ float
 2149              		.loc 1 668 0
 2150 0036 C0F83021 		str	r2, [r0, #304]	@ float
 2151              		.loc 1 655 0
 2152 003a C0F88C10 		str	r1, [r0, #140]	@ float
 2153              		.loc 1 657 0
 2154 003e C0F8A810 		str	r1, [r0, #168]	@ float
 2155              		.loc 1 655 0
 2156 0042 C0F89030 		str	r3, [r0, #144]	@ float
 2157              		.loc 1 656 0
 2158 0046 C0F89830 		str	r3, [r0, #152]	@ float
 2159 004a C0F89C30 		str	r3, [r0, #156]	@ float
 2160              		.loc 1 657 0
 2161 004e C0F8A430 		str	r3, [r0, #164]	@ float
 2162              		.loc 1 659 0
 2163 0052 C0F8B430 		str	r3, [r0, #180]	@ float
 2164              		.loc 1 660 0
 2165 0056 C0F8BC30 		str	r3, [r0, #188]	@ float
 2166 005a C0F8C030 		str	r3, [r0, #192]	@ float
ARM GAS  C:\Users\IDONNO~1\AppData\Local\Temp\ccbct5ml.s 			page 39


 2167              		.loc 1 661 0
 2168 005e C0F8C830 		str	r3, [r0, #200]	@ float
 2169              		.loc 1 667 0
 2170 0062 C0F82431 		str	r3, [r0, #292]	@ float
 2171 0066 C0F82831 		str	r3, [r0, #296]	@ float
 2172              		.loc 1 668 0
 2173 006a C0F82C31 		str	r3, [r0, #300]	@ float
 2174 006e C0F83431 		str	r3, [r0, #308]	@ float
 2175              		.loc 1 669 0
 2176 0072 30BC     		pop	{r4, r5}
 2177              		.cfi_restore 5
 2178              		.cfi_restore 4
 2179              		.cfi_def_cfa_offset 0
 2180 0074 7047     		bx	lr
 2181              	.L98:
 2182 0076 00BF     		.align	2
 2183              	.L97:
 2184 0078 17B7D138 		.word	953267991
 2185 007c CDCCCC3D 		.word	1036831949
 2186 0080 0000C842 		.word	1120403456
 2187              		.cfi_endproc
 2188              	.LFE273:
 2189              		.size	encoder_tSMCInit, .-encoder_tSMCInit
 2190              		.global	enc_sum_cnt
 2191              		.global	enc_sum
 2192              		.global	delta_pos1
 2193              		.global	delta_pos
 2194              		.global	encpos1
 2195              		.global	encpos
 2196              		.global	pul1_period
 2197              		.global	pul1_width
 2198              		.global	cap1_f
 2199              		.global	cap1_r_old
 2200              		.global	cap1_r_new
 2201              		.global	cap1_cnt
 2202              		.global	smc1
 2203              		.global	EncMode
 2204              		.section	.bss.cap1_cnt,"aw",%nobits
 2205              		.align	1
 2206              		.set	.LANCHOR6,. + 0
 2207              		.type	cap1_cnt, %object
 2208              		.size	cap1_cnt, 2
 2209              	cap1_cnt:
 2210 0000 0000     		.space	2
 2211              		.section	.bss.encpos1,"aw",%nobits
 2212              		.align	1
 2213              		.type	encpos1, %object
 2214              		.size	encpos1, 2
 2215              	encpos1:
 2216 0000 0000     		.space	2
 2217              		.section	.bss.cap1_f,"aw",%nobits
 2218              		.align	1
 2219              		.set	.LANCHOR10,. + 0
 2220              		.type	cap1_f, %object
 2221              		.size	cap1_f, 2
 2222              	cap1_f:
 2223 0000 0000     		.space	2
ARM GAS  C:\Users\IDONNO~1\AppData\Local\Temp\ccbct5ml.s 			page 40


 2224              		.section	.bss.EncMode,"aw",%nobits
 2225              		.set	.LANCHOR1,. + 0
 2226              		.type	EncMode, %object
 2227              		.size	EncMode, 1
 2228              	EncMode:
 2229 0000 00       		.space	1
 2230              		.section	.bss.bad_pulses.10190,"aw",%nobits
 2231              		.align	2
 2232              		.set	.LANCHOR5,. + 0
 2233              		.type	bad_pulses.10190, %object
 2234              		.size	bad_pulses.10190, 4
 2235              	bad_pulses.10190:
 2236 0000 00000000 		.space	4
 2237              		.section	.bss.delta_pos1,"aw",%nobits
 2238              		.align	1
 2239              		.type	delta_pos1, %object
 2240              		.size	delta_pos1, 2
 2241              	delta_pos1:
 2242 0000 0000     		.space	2
 2243              		.section	.bss.angle.10181,"aw",%nobits
 2244              		.align	2
 2245              		.set	.LANCHOR4,. + 0
 2246              		.type	angle.10181, %object
 2247              		.size	angle.10181, 4
 2248              	angle.10181:
 2249 0000 00000000 		.space	4
 2250              		.section	.data.enc_counts,"aw",%progbits
 2251              		.align	2
 2252              		.set	.LANCHOR2,. + 0
 2253              		.type	enc_counts, %object
 2254              		.size	enc_counts, 4
 2255              	enc_counts:
 2256 0000 10270000 		.word	10000
 2257              		.section	.bss.smc1,"aw",%nobits
 2258              		.align	2
 2259              		.set	.LANCHOR3,. + 0
 2260              		.type	smc1, %object
 2261              		.size	smc1, 380
 2262              	smc1:
 2263 0000 00000000 		.space	380
 2263      00000000 
 2263      00000000 
 2263      00000000 
 2263      00000000 
 2264              		.section	.bss.encpos,"aw",%nobits
 2265              		.align	1
 2266              		.type	encpos, %object
 2267              		.size	encpos, 2
 2268              	encpos:
 2269 0000 0000     		.space	2
 2270              		.section	.bss.cap1_r_new,"aw",%nobits
 2271              		.align	1
 2272              		.set	.LANCHOR7,. + 0
 2273              		.type	cap1_r_new, %object
 2274              		.size	cap1_r_new, 2
 2275              	cap1_r_new:
 2276 0000 0000     		.space	2
ARM GAS  C:\Users\IDONNO~1\AppData\Local\Temp\ccbct5ml.s 			page 41


 2277              		.section	.bss.enc_sum,"aw",%nobits
 2278              		.align	2
 2279              		.type	enc_sum, %object
 2280              		.size	enc_sum, 4
 2281              	enc_sum:
 2282 0000 00000000 		.space	4
 2283              		.section	.bss.pul1_width,"aw",%nobits
 2284              		.align	1
 2285              		.set	.LANCHOR11,. + 0
 2286              		.type	pul1_width, %object
 2287              		.size	pul1_width, 2
 2288              	pul1_width:
 2289 0000 0000     		.space	2
 2290              		.section	.bss.index_found,"aw",%nobits
 2291              		.set	.LANCHOR0,. + 0
 2292              		.type	index_found, %object
 2293              		.size	index_found, 1
 2294              	index_found:
 2295 0000 00       		.space	1
 2296              		.section	.bss.pul1_period,"aw",%nobits
 2297              		.align	1
 2298              		.set	.LANCHOR8,. + 0
 2299              		.type	pul1_period, %object
 2300              		.size	pul1_period, 2
 2301              	pul1_period:
 2302 0000 0000     		.space	2
 2303              		.section	.bss.enc_sum_cnt,"aw",%nobits
 2304              		.align	1
 2305              		.type	enc_sum_cnt, %object
 2306              		.size	enc_sum_cnt, 2
 2307              	enc_sum_cnt:
 2308 0000 0000     		.space	2
 2309              		.section	.bss.delta_pos,"aw",%nobits
 2310              		.align	1
 2311              		.type	delta_pos, %object
 2312              		.size	delta_pos, 2
 2313              	delta_pos:
 2314 0000 0000     		.space	2
 2315              		.section	.bss.cap1_r_old,"aw",%nobits
 2316              		.align	1
 2317              		.set	.LANCHOR9,. + 0
 2318              		.type	cap1_r_old, %object
 2319              		.size	cap1_r_old, 2
 2320              	cap1_r_old:
 2321 0000 0000     		.space	2
 2322              		.text
 2323              	.Letext0:
 2324              		.file 3 "c:\\program files (x86)\\gnu tools arm embedded\\5.4 2016q3\\lib\\gcc\\arm-none-eabi\\5.4
 2325              		.file 4 "c:\\program files (x86)\\gnu tools arm embedded\\5.4 2016q3\\arm-none-eabi\\include\\mach
 2326              		.file 5 "c:\\program files (x86)\\gnu tools arm embedded\\5.4 2016q3\\arm-none-eabi\\include\\sys\
 2327              		.file 6 "src/ChibiOS_3.0.2/os/rt/ports/ARMCMx/compilers/GCC/chtypes.h"
 2328              		.file 7 "src/ChibiOS_3.0.2/os/rt/include/chsystypes.h"
 2329              		.file 8 "src/ChibiOS_3.0.2/os/rt/include/chschd.h"
 2330              		.file 9 "src/ChibiOS_3.0.2/os/ext/CMSIS/ST/stm32f407xx.h"
 2331              		.file 10 "src/ChibiOS_3.0.2/os/ext/CMSIS/ST/stm32f4xx.h"
 2332              		.file 11 "src/ChibiOS_3.0.2/os/rt/ports/ARMCMx/chcore.h"
 2333              		.file 12 "src/ChibiOS_3.0.2/os/rt/ports/ARMCMx/chcore_v7m.h"
ARM GAS  C:\Users\IDONNO~1\AppData\Local\Temp\ccbct5ml.s 			page 42


 2334              		.file 13 "src/ChibiOS_3.0.2/os/rt/include/chtm.h"
 2335              		.file 14 "src/ChibiOS_3.0.2/os/rt/include/chsem.h"
 2336              		.file 15 "src/ChibiOS_3.0.2/os/rt/include/chmtx.h"
 2337              		.file 16 "src/ChibiOS_3.0.2/os/hal/ports/STM32/LLD/GPIOv2/pal_lld.h"
 2338              		.file 17 "src/ChibiOS_3.0.2/ext/stdperiph_stm32f4/inc/misc.h"
 2339              		.file 18 "src/ChibiOS_3.0.2/ext/stdperiph_stm32f4/inc/stm32f4xx_exti.h"
 2340              		.file 19 "src/ChibiOS_3.0.2/ext/stdperiph_stm32f4/inc/stm32f4xx_tim.h"
 2341              		.file 20 "src/mc/mc_typedef.h"
 2342              		.file 21 "src/mc/mc_encoder.h"
 2343              		.file 22 "src/ChibiOS_3.0.2/os/ext/CMSIS/include/core_cm4.h"
 2344              		.file 23 "src/hw_oroca.h"
 2345              		.file 24 "src/ChibiOS_3.0.2/os/hal/ports/common/ARMCMx/nvic.h"
 2346              		.file 25 "src/ChibiOS_3.0.2/ext/stdperiph_stm32f4/inc/stm32f4xx_rcc.h"
 2347              		.file 26 "src/ChibiOS_3.0.2/ext/stdperiph_stm32f4/inc/stm32f4xx_syscfg.h"
 2348              		.file 27 "c:\\program files (x86)\\gnu tools arm embedded\\5.4 2016q3\\arm-none-eabi\\include\\mat