ARM GAS  C:\Users\IDONNO~1\AppData\Local\Temp\cc4D8Yvi.s 			page 1


   1              		.syntax unified
   2              		.cpu cortex-m4
   3              		.eabi_attribute 27, 1
   4              		.eabi_attribute 28, 1
   5              		.fpu fpv4-sp-d16
   6              		.eabi_attribute 20, 1
   7              		.eabi_attribute 21, 1
   8              		.eabi_attribute 23, 3
   9              		.eabi_attribute 24, 1
  10              		.eabi_attribute 25, 1
  11              		.eabi_attribute 26, 1
  12              		.eabi_attribute 30, 2
  13              		.eabi_attribute 34, 1
  14              		.eabi_attribute 18, 4
  15              		.thumb
  16              		.syntax unified
  17              		.file	"mc_pwm.c"
  18              		.text
  19              	.Ltext0:
  20              		.cfi_sections	.debug_frame
  21              		.section	.text.timer_thread,"ax",%progbits
  22              		.align	2
  23              		.p2align 4,,15
  24              		.thumb
  25              		.thumb_func
  26              		.type	timer_thread, %function
  27              	timer_thread:
  28              	.LFB261:
  29              		.file 1 "src/mc/mc_pwm.c"
  30              		.loc 1 502 0
  31              		.cfi_startproc
  32              		@ args = 0, pretend = 0, frame = 56
  33              		@ frame_needed = 0, uses_anonymous_args = 0
  34              	.LVL0:
  35 0000 2DE9F04F 		push	{r4, r5, r6, r7, r8, r9, r10, fp, lr}
  36              		.cfi_def_cfa_offset 36
  37              		.cfi_offset 4, -36
  38              		.cfi_offset 5, -32
  39              		.cfi_offset 6, -28
  40              		.cfi_offset 7, -24
  41              		.cfi_offset 8, -20
  42              		.cfi_offset 9, -16
  43              		.cfi_offset 10, -12
  44              		.cfi_offset 11, -8
  45              		.cfi_offset 14, -4
  46              	.LBB5:
  47              	.LBB6:
  48              		.file 2 "src/ChibiOS_3.0.2/os/rt/include/chregistry.h"
  49              		.loc 2 135 0
  50 0004 794B     		ldr	r3, .L5
  51 0006 7A4A     		ldr	r2, .L5+4
  52 0008 9B69     		ldr	r3, [r3, #24]
  53 000a 7A4D     		ldr	r5, .L5+8
  54              	.LBE6:
  55              	.LBE5:
  56              		.loc 1 502 0
  57 000c 2DED068B 		vpush.64	{d8, d9, d10}
ARM GAS  C:\Users\IDONNO~1\AppData\Local\Temp\cc4D8Yvi.s 			page 2


  58              		.cfi_def_cfa_offset 60
  59              		.cfi_offset 80, -60
  60              		.cfi_offset 81, -56
  61              		.cfi_offset 82, -52
  62              		.cfi_offset 83, -48
  63              		.cfi_offset 84, -44
  64              		.cfi_offset 85, -40
  65              	.LBB8:
  66              		.loc 1 530 0
  67 0010 DFED799A 		vldr.32	s19, .L5+12
  68 0014 9FED799A 		vldr.32	s18, .L5+16
  69              		.loc 1 531 0
  70 0018 DFED798A 		vldr.32	s17, .L5+20
  71 001c 9FED798A 		vldr.32	s16, .L5+24
  72              	.LBE8:
  73              	.LBB9:
  74              	.LBB7:
  75              		.loc 2 135 0
  76 0020 9A61     		str	r2, [r3, #24]
  77              	.LBE7:
  78              	.LBE9:
  79              		.loc 1 502 0
  80 0022 8FB0     		sub	sp, sp, #60
  81              		.cfi_def_cfa_offset 120
  82              	.LVL1:
  83              	.L2:
  84              	.LBB10:
  85              		.loc 1 527 0 discriminator 1
  86 0024 4FF47A70 		mov	r0, #1000
  87 0028 FFF7FEFF 		bl	chThdSleep
  88              	.LVL2:
  89              		.loc 1 531 0 discriminator 1
  90 002c 764B     		ldr	r3, .L5+28
  91 002e DFED77AA 		vldr.32	s21, .L5+32
  92 0032 5B89     		ldrh	r3, [r3, #10]
  93 0034 764C     		ldr	r4, .L5+36
  94 0036 07EE103A 		vmov	s14, r3	@ int
  95 003a B8EEC77A 		vcvt.f32.s32	s14, s14
  96              		.loc 1 530 0 discriminator 1
  97 003e 724B     		ldr	r3, .L5+28
  98              		.loc 1 531 0 discriminator 1
  99 0040 88EE870A 		vdiv.f32	s0, s17, s14
 100              		.loc 1 530 0 discriminator 1
 101 0044 1B8A     		ldrh	r3, [r3, #16]
 102 0046 07EE903A 		vmov	s15, r3	@ int
 103 004a F8EE677A 		vcvt.f32.u32	s15, s15
 104              		.loc 1 531 0 discriminator 1
 105 004e 30EE480A 		vsub.f32	s0, s0, s16
 106              		.loc 1 530 0 discriminator 1
 107 0052 67EEA97A 		vmul.f32	s15, s15, s19
 108 0056 6E4B     		ldr	r3, .L5+36
 109 0058 67EE897A 		vmul.f32	s15, s15, s18
 110              		.loc 1 531 0 discriminator 1
 111 005c 80EE080A 		vdiv.f32	s0, s0, s16
 112              		.loc 1 530 0 discriminator 1
 113 0060 C3ED007A 		vstr.32	s15, [r3]
 114              		.loc 1 531 0 discriminator 1
ARM GAS  C:\Users\IDONNO~1\AppData\Local\Temp\cc4D8Yvi.s 			page 3


 115 0064 FFF7FEFF 		bl	logf
 116              	.LVL3:
 117 0068 80EE2A0A 		vdiv.f32	s0, s0, s21
 118              		.loc 1 572 0 discriminator 1
 119 006c 694B     		ldr	r3, .L5+40
 120              		.loc 1 578 0 discriminator 1
 121 006e 6A49     		ldr	r1, .L5+44
 122 0070 6A48     		ldr	r0, .L5+48
 123              		.loc 1 559 0 discriminator 1
 124 0072 DFED6B7A 		vldr.32	s15, .L5+52
 125 0076 D5ED055A 		vldr.32	s11, [r5, #20]
 126              		.loc 1 574 0 discriminator 1
 127 007a 93ED0C7A 		vldr.32	s14, [r3, #48]
 128              		.loc 1 560 0 discriminator 1
 129 007e 95ED06AA 		vldr.32	s20, [r5, #24]
 130              		.loc 1 578 0 discriminator 1
 131 0082 D5ED040A 		vldr.32	s1, [r5, #16]
 132 0086 95ED031A 		vldr.32	s2, [r5, #12]
 133              		.loc 1 562 0 discriminator 1
 134 008a D5ED071A 		vldr.32	s3, [r5, #28]
 135              		.loc 1 563 0 discriminator 1
 136 008e 95ED082A 		vldr.32	s4, [r5, #32]
 137              		.loc 1 565 0 discriminator 1
 138 0092 D5ED092A 		vldr.32	s5, [r5, #36]
 139              		.loc 1 566 0 discriminator 1
 140 0096 95ED0A3A 		vldr.32	s6, [r5, #40]
 141              		.loc 1 568 0 discriminator 1
 142 009a D5ED0B3A 		vldr.32	s7, [r5, #44]
 143              		.loc 1 569 0 discriminator 1
 144 009e 95ED0C4A 		vldr.32	s8, [r5, #48]
 145              		.loc 1 571 0 discriminator 1
 146 00a2 D5ED004A 		vldr.32	s9, [r5]
 147              		.loc 1 572 0 discriminator 1
 148 00a6 93ED025A 		vldr.32	s10, [r3, #8]
 149              		.loc 1 531 0 discriminator 1
 150 00aa 9FED5E6A 		vldr.32	s12, .L5+56
 151 00ae DFED5E6A 		vldr.32	s13, .L5+60
 152              		.loc 1 559 0 discriminator 1
 153 00b2 65EEA75A 		vmul.f32	s11, s11, s15
 154              		.loc 1 578 0 discriminator 1
 155 00b6 60EEA70A 		vmul.f32	s1, s1, s15
 156 00ba 21EE271A 		vmul.f32	s2, s2, s15
 157              		.loc 1 562 0 discriminator 1
 158 00be 61EEA71A 		vmul.f32	s3, s3, s15
 159              		.loc 1 563 0 discriminator 1
 160 00c2 22EE272A 		vmul.f32	s4, s4, s15
 161              		.loc 1 565 0 discriminator 1
 162 00c6 62EEA72A 		vmul.f32	s5, s5, s15
 163              		.loc 1 566 0 discriminator 1
 164 00ca 23EE273A 		vmul.f32	s6, s6, s15
 165              		.loc 1 568 0 discriminator 1
 166 00ce 63EEA73A 		vmul.f32	s7, s7, s15
 167              		.loc 1 569 0 discriminator 1
 168 00d2 24EE274A 		vmul.f32	s8, s8, s15
 169              		.loc 1 571 0 discriminator 1
 170 00d6 64EEA74A 		vmul.f32	s9, s9, s15
 171              		.loc 1 572 0 discriminator 1
ARM GAS  C:\Users\IDONNO~1\AppData\Local\Temp\cc4D8Yvi.s 			page 4


 172 00da 25EE275A 		vmul.f32	s10, s10, s15
 173              		.loc 1 560 0 discriminator 1
 174 00de 2AEE27AA 		vmul.f32	s20, s20, s15
 175              		.loc 1 574 0 discriminator 1
 176 00e2 67EE277A 		vmul.f32	s15, s14, s15
 177              		.loc 1 559 0 discriminator 1
 178 00e6 BDEEE57A 		vcvt.s32.f32	s14, s11
 179              		.loc 1 531 0 discriminator 1
 180 00ea 30EE060A 		vadd.f32	s0, s0, s12
 181              		.loc 1 559 0 discriminator 1
 182 00ee 8DED017A 		vstr.32	s14, [sp, #4]	@ int
 183              		.loc 1 560 0 discriminator 1
 184 00f2 BDEECA7A 		vcvt.s32.f32	s14, s20
 185              		.loc 1 531 0 discriminator 1
 186 00f6 F7EE00AA 		vmov.f32	s21, #1.0e+0
 187              		.loc 1 560 0 discriminator 1
 188 00fa 8DED027A 		vstr.32	s14, [sp, #8]	@ int
 189              		.loc 1 578 0 discriminator 1
 190 00fe BDEEE07A 		vcvt.s32.f32	s14, s1
 191              		.loc 1 531 0 discriminator 1
 192 0102 8AEE806A 		vdiv.f32	s12, s21, s0
 193              		.loc 1 559 0 discriminator 1
 194 0106 BDF904A0 		ldrsh	r10, [sp, #4]
 195              		.loc 1 560 0 discriminator 1
 196 010a BDF908B0 		ldrsh	fp, [sp, #8]
 197              		.loc 1 578 0 discriminator 1
 198 010e 8DED0C7A 		vstr.32	s14, [sp, #48]	@ int
 199 0112 BDEEC17A 		vcvt.s32.f32	s14, s2
 200              		.loc 1 531 0 discriminator 1
 201 0116 76EE666A 		vsub.f32	s13, s12, s13
 202              		.loc 1 578 0 discriminator 1
 203 011a 8DED0D7A 		vstr.32	s14, [sp, #52]	@ int
 204              		.loc 1 562 0 discriminator 1
 205 011e BDEEE17A 		vcvt.s32.f32	s14, s3
 206              		.loc 1 574 0 discriminator 1
 207 0122 FDEEE77A 		vcvt.s32.f32	s15, s15
 208              		.loc 1 562 0 discriminator 1
 209 0126 8DED037A 		vstr.32	s14, [sp, #12]	@ int
 210              		.loc 1 563 0 discriminator 1
 211 012a BDEEC27A 		vcvt.s32.f32	s14, s4
 212              		.loc 1 531 0 discriminator 1
 213 012e C4ED016A 		vstr.32	s13, [r4, #4]
 214              	.LVL4:
 215              		.loc 1 563 0 discriminator 1
 216 0132 8DED047A 		vstr.32	s14, [sp, #16]	@ int
 217              		.loc 1 565 0 discriminator 1
 218 0136 BDEEE27A 		vcvt.s32.f32	s14, s5
 219              		.loc 1 562 0 discriminator 1
 220 013a BDF90C40 		ldrsh	r4, [sp, #12]
 221              		.loc 1 565 0 discriminator 1
 222 013e 8DED057A 		vstr.32	s14, [sp, #20]	@ int
 223              		.loc 1 566 0 discriminator 1
 224 0142 BDEEC37A 		vcvt.s32.f32	s14, s6
 225              		.loc 1 574 0 discriminator 1
 226 0146 CDED0B7A 		vstr.32	s15, [sp, #44]	@ int
 227              		.loc 1 566 0 discriminator 1
 228 014a 8DED067A 		vstr.32	s14, [sp, #24]	@ int
ARM GAS  C:\Users\IDONNO~1\AppData\Local\Temp\cc4D8Yvi.s 			page 5


 229              		.loc 1 568 0 discriminator 1
 230 014e BDEEE37A 		vcvt.s32.f32	s14, s7
 231              		.loc 1 578 0 discriminator 1
 232 0152 BDF93030 		ldrsh	r3, [sp, #48]
 233              		.loc 1 568 0 discriminator 1
 234 0156 8DED077A 		vstr.32	s14, [sp, #28]	@ int
 235              		.loc 1 569 0 discriminator 1
 236 015a BDEEC47A 		vcvt.s32.f32	s14, s8
 237              		.loc 1 578 0 discriminator 1
 238 015e BDF93420 		ldrsh	r2, [sp, #52]
 239              		.loc 1 569 0 discriminator 1
 240 0162 8DED087A 		vstr.32	s14, [sp, #32]	@ int
 241              		.loc 1 571 0 discriminator 1
 242 0166 BDEEE47A 		vcvt.s32.f32	s14, s9
 243 016a 8DED097A 		vstr.32	s14, [sp, #36]	@ int
 244              		.loc 1 572 0 discriminator 1
 245 016e BDEEC57A 		vcvt.s32.f32	s14, s10
 246 0172 8DED0A7A 		vstr.32	s14, [sp, #40]	@ int
 247              		.loc 1 562 0 discriminator 1
 248 0176 0194     		str	r4, [sp, #4]
 249              	.LVL5:
 250              		.loc 1 571 0 discriminator 1
 251 0178 BDF924E0 		ldrsh	lr, [sp, #36]
 252              		.loc 1 563 0 discriminator 1
 253 017c BDF91060 		ldrsh	r6, [sp, #16]
 254              		.loc 1 565 0 discriminator 1
 255 0180 BDF91470 		ldrsh	r7, [sp, #20]
 256              		.loc 1 566 0 discriminator 1
 257 0184 BDF91840 		ldrsh	r4, [sp, #24]
 258              		.loc 1 563 0 discriminator 1
 259 0188 0296     		str	r6, [sp, #8]
 260              	.LVL6:
 261              		.loc 1 565 0 discriminator 1
 262 018a 0397     		str	r7, [sp, #12]
 263              	.LVL7:
 264              		.loc 1 566 0 discriminator 1
 265 018c 0494     		str	r4, [sp, #16]
 266              	.LVL8:
 267              		.loc 1 568 0 discriminator 1
 268 018e BDF91C60 		ldrsh	r6, [sp, #28]
 269              	.LVL9:
 270              		.loc 1 569 0 discriminator 1
 271 0192 BDF92070 		ldrsh	r7, [sp, #32]
 272              	.LVL10:
 273              		.loc 1 572 0 discriminator 1
 274 0196 BDF92890 		ldrsh	r9, [sp, #40]
 275              		.loc 1 574 0 discriminator 1
 276 019a BDF92C80 		ldrsh	r8, [sp, #44]
 277              		.loc 1 571 0 discriminator 1
 278 019e 7446     		mov	r4, lr
 279              	.LVL11:
 280              		.loc 1 578 0 discriminator 1
 281 01a0 FFF7FEFF 		bl	Usart1_printf
 282              	.LVL12:
 283              		.loc 1 579 0 discriminator 1
 284 01a4 5B46     		mov	r3, fp
 285 01a6 5246     		mov	r2, r10
ARM GAS  C:\Users\IDONNO~1\AppData\Local\Temp\cc4D8Yvi.s 			page 6


 286 01a8 1B49     		ldr	r1, .L5+44
 287 01aa 1C48     		ldr	r0, .L5+48
 288 01ac FFF7FEFF 		bl	Usart1_printf
 289              	.LVL13:
 290              		.loc 1 580 0 discriminator 1
 291 01b0 029B     		ldr	r3, [sp, #8]
 292 01b2 019A     		ldr	r2, [sp, #4]
 293 01b4 1849     		ldr	r1, .L5+44
 294 01b6 1948     		ldr	r0, .L5+48
 295 01b8 FFF7FEFF 		bl	Usart1_printf
 296              	.LVL14:
 297              		.loc 1 581 0 discriminator 1
 298 01bc 049B     		ldr	r3, [sp, #16]
 299 01be 039A     		ldr	r2, [sp, #12]
 300 01c0 1549     		ldr	r1, .L5+44
 301 01c2 1648     		ldr	r0, .L5+48
 302 01c4 FFF7FEFF 		bl	Usart1_printf
 303              	.LVL15:
 304              		.loc 1 582 0 discriminator 1
 305 01c8 3B46     		mov	r3, r7
 306 01ca 3246     		mov	r2, r6
 307 01cc 1249     		ldr	r1, .L5+44
 308 01ce 1348     		ldr	r0, .L5+48
 309 01d0 FFF7FEFF 		bl	Usart1_printf
 310              	.LVL16:
 311              		.loc 1 583 0 discriminator 1
 312 01d4 2246     		mov	r2, r4
 313 01d6 4B46     		mov	r3, r9
 314 01d8 0F49     		ldr	r1, .L5+44
 315 01da 1048     		ldr	r0, .L5+48
 316 01dc FFF7FEFF 		bl	Usart1_printf
 317              	.LVL17:
 318              		.loc 1 584 0 discriminator 1
 319 01e0 4246     		mov	r2, r8
 320 01e2 1249     		ldr	r1, .L5+64
 321 01e4 0D48     		ldr	r0, .L5+48
 322 01e6 FFF7FEFF 		bl	Usart1_printf
 323              	.LVL18:
 324 01ea 1BE7     		b	.L2
 325              	.L6:
 326              		.align	2
 327              	.L5:
 328 01ec 00000000 		.word	ch
 329 01f0 00000000 		.word	.LC0
 330 01f4 00000000 		.word	ParkParm
 331 01f8 6740533A 		.word	978534503
 332 01fc 0000CA42 		.word	1120534528
 333 0200 3C361C4C 		.word	1276917308
 334 0204 00401C46 		.word	1176256512
 335 0208 00000000 		.word	ADC_Value
 336 020c 00A05645 		.word	1163304960
 337 0210 00000000 		.word	MeasSensorValue
 338 0214 00000000 		.word	smc1
 339 0218 0C000000 		.word	.LC1
 340 021c 00000000 		.word	SD1
 341 0220 0000C842 		.word	1120403456
 342 0224 0FCF5B3B 		.word	995872527
ARM GAS  C:\Users\IDONNO~1\AppData\Local\Temp\cc4D8Yvi.s 			page 7


 343 0228 33938843 		.word	1133024051
 344 022c 14000000 		.word	.LC2
 345              	.LBE10:
 346              		.cfi_endproc
 347              	.LFE261:
 348              		.size	timer_thread, .-timer_thread
 349              		.section	.text.mcpwm_adc_dma_int_handler,"ax",%progbits
 350              		.align	2
 351              		.p2align 4,,15
 352              		.global	mcpwm_adc_dma_int_handler
 353              		.thumb
 354              		.thumb_func
 355              		.type	mcpwm_adc_dma_int_handler, %function
 356              	mcpwm_adc_dma_int_handler:
 357              	.LFB260:
 358              		.loc 1 368 0
 359              		.cfi_startproc
 360              		@ args = 0, pretend = 0, frame = 0
 361              		@ frame_needed = 0, uses_anonymous_args = 0
 362              	.LVL19:
 363 0000 F8B5     		push	{r3, r4, r5, r6, r7, lr}
 364              		.cfi_def_cfa_offset 24
 365              		.cfi_offset 3, -24
 366              		.cfi_offset 4, -20
 367              		.cfi_offset 5, -16
 368              		.cfi_offset 6, -12
 369              		.cfi_offset 7, -8
 370              		.cfi_offset 14, -4
 371              		.loc 1 376 0
 372 0002 AF4A     		ldr	r2, .L38
 373              		.loc 1 374 0
 374 0004 AF4C     		ldr	r4, .L38+4
 375              		.loc 1 376 0
 376 0006 1278     		ldrb	r2, [r2]	@ zero_extendqisi2
 377              		.loc 1 374 0
 378 0008 2368     		ldr	r3, [r4]
 379              		.loc 1 376 0
 380 000a 032A     		cmp	r2, #3
 381              		.loc 1 374 0
 382 000c 03F10103 		add	r3, r3, #1
 383              		.loc 1 368 0
 384 0010 2DED028B 		vpush.64	{d8}
 385              		.cfi_def_cfa_offset 32
 386              		.cfi_offset 80, -32
 387              		.cfi_offset 81, -28
 388              		.loc 1 374 0
 389 0014 2360     		str	r3, [r4]
 390              		.loc 1 376 0
 391 0016 00F0CC80 		beq	.L31
 392              	.LVL20:
 393              	.L8:
 394              		.loc 1 383 0
 395 001a 1907     		lsls	r1, r3, #28
 396 001c 00F0C580 		beq	.L32
 397              	.LVL21:
 398              	.L9:
 399              		.loc 1 392 0
ARM GAS  C:\Users\IDONNO~1\AppData\Local\Temp\cc4D8Yvi.s 			page 8


 400 0020 13F00103 		ands	r3, r3, #1
 401 0024 40F0A680 		bne	.L10
 402              		.loc 1 399 0
 403 0028 A74A     		ldr	r2, .L38+8
 404              		.loc 1 396 0
 405 002a A849     		ldr	r1, .L38+12
 406              		.loc 1 399 0
 407 002c 1278     		ldrb	r2, [r2]	@ zero_extendqisi2
 408              		.loc 1 396 0
 409 002e 4B62     		str	r3, [r1, #36]
 410              		.loc 1 399 0
 411 0030 5207     		lsls	r2, r2, #29
 412 0032 40F1A680 		bpl	.L33
 413              	.LBB11:
 414              		.loc 1 408 0
 415 0036 A64D     		ldr	r5, .L38+16
 416 0038 2B70     		strb	r3, [r5]
 417              		.loc 1 411 0
 418 003a 2B78     		ldrb	r3, [r5]	@ zero_extendqisi2
 419 003c 002B     		cmp	r3, #0
 420 003e 00F0D580 		beq	.L34
 421              		.loc 1 425 0
 422 0042 2B78     		ldrb	r3, [r5]	@ zero_extendqisi2
 423 0044 012B     		cmp	r3, #1
 424 0046 00F0F280 		beq	.L35
 425              		.loc 1 437 0
 426 004a 2B78     		ldrb	r3, [r5]	@ zero_extendqisi2
 427 004c 022B     		cmp	r3, #2
 428 004e 00F01081 		beq	.L36
 429              		.loc 1 448 0
 430 0052 2B78     		ldrb	r3, [r5]	@ zero_extendqisi2
 431 0054 032B     		cmp	r3, #3
 432 0056 00F02581 		beq	.L37
 433              		.loc 1 455 0
 434 005a DFED9E7A 		vldr.32	s15, .L38+20
 435              		.loc 1 457 0
 436 005e 9E4B     		ldr	r3, .L38+24
 437              		.loc 1 455 0
 438 0060 9E4C     		ldr	r4, .L38+28
 439              		.loc 1 457 0
 440 0062 C3ED017A 		vstr.32	s15, [r3, #4]
 441              		.loc 1 455 0
 442 0066 C4ED007A 		vstr.32	s15, [r4]
 443              		.loc 1 458 0
 444 006a B0EE670A 		vmov.f32	s0, s15
 445 006e C3ED027A 		vstr.32	s15, [r3, #8]
 446 0072 B7EE008A 		vmov.f32	s16, #1.0e+0
 447              	.L15:
 448              		.loc 1 462 0
 449 0076 9A49     		ldr	r1, .L38+32
 450 0078 9A48     		ldr	r0, .L38+36
 451              		.loc 1 463 0
 452 007a 4B8A     		ldrh	r3, [r1, #18]
 453 007c 0289     		ldrh	r2, [r0, #8]
 454              		.loc 1 462 0
 455 007e B1F810E0 		ldrh	lr, [r1, #16]
 456 0082 C088     		ldrh	r0, [r0, #6]
ARM GAS  C:\Users\IDONNO~1\AppData\Local\Temp\cc4D8Yvi.s 			page 9


 457              		.loc 1 475 0
 458 0084 2F78     		ldrb	r7, [r5]	@ zero_extendqisi2
 459              		.loc 1 467 0
 460 0086 D1ED036A 		vldr.32	s13, [r1, #12]
 461              		.loc 1 470 0
 462 008a 9FED976A 		vldr.32	s12, .L38+40
 463              		.loc 1 466 0
 464 008e D1ED025A 		vldr.32	s11, [r1, #8]
 465 0092 924E     		ldr	r6, .L38+28
 466              		.loc 1 463 0
 467 0094 D31A     		subs	r3, r2, r3
 468 0096 9BB2     		uxth	r3, r3
 469 0098 1DB2     		sxth	r5, r3
 470              		.loc 1 467 0
 471 009a 07EE905A 		vmov	s15, r5	@ int
 472              		.loc 1 462 0
 473 009e CEEB0002 		rsb	r2, lr, r0
 474              		.loc 1 467 0
 475 00a2 B8EEE77A 		vcvt.f32.s32	s14, s15
 476              		.loc 1 462 0
 477 00a6 92B2     		uxth	r2, r2
 478 00a8 10B2     		sxth	r0, r2
 479              		.loc 1 467 0
 480 00aa 67EE266A 		vmul.f32	s13, s14, s13
 481              		.loc 1 466 0
 482 00ae 07EE900A 		vmov	s15, r0	@ int
 483              		.loc 1 470 0
 484 00b2 36EEA67A 		vadd.f32	s14, s13, s13
 485              		.loc 1 466 0
 486 00b6 F8EEE77A 		vcvt.f32.s32	s15, s15
 487              		.loc 1 470 0
 488 00ba 27EE067A 		vmul.f32	s14, s14, s12
 489              		.loc 1 466 0
 490 00be 67EEA57A 		vmul.f32	s15, s15, s11
 491              		.loc 1 467 0
 492 00c2 C4ED046A 		vstr.32	s13, [r4, #16]
 493              		.loc 1 470 0
 494 00c6 A7EE867A 		vfma.f32	s14, s15, s12
 495              		.loc 1 464 0
 496 00ca 1344     		add	r3, r3, r2
 497 00cc 5B42     		negs	r3, r3
 498 00ce 8B80     		strh	r3, [r1, #4]	@ movhi
 499              		.loc 1 473 0
 500 00d0 27EE086A 		vmul.f32	s12, s14, s16
 501              		.loc 1 472 0
 502 00d4 67EE005A 		vmul.f32	s11, s14, s0
 503              		.loc 1 473 0
 504 00d8 F0EE466A 		vmov.f32	s13, s12
 505              		.loc 1 472 0
 506 00dc E7EE885A 		vfma.f32	s11, s15, s16
 507              		.loc 1 462 0
 508 00e0 0880     		strh	r0, [r1]	@ movhi
 509              		.loc 1 463 0
 510 00e2 4D80     		strh	r5, [r1, #2]	@ movhi
 511              		.loc 1 473 0
 512 00e4 E7EEC06A 		vfms.f32	s13, s15, s0
 513              		.loc 1 475 0
ARM GAS  C:\Users\IDONNO~1\AppData\Local\Temp\cc4D8Yvi.s 			page 10


 514 00e8 794B     		ldr	r3, .L38+16
 515              		.loc 1 470 0
 516 00ea 84ED067A 		vstr.32	s14, [r4, #24]
 517              		.loc 1 466 0
 518 00ee C4ED037A 		vstr.32	s15, [r4, #12]
 519              		.loc 1 469 0
 520 00f2 C4ED057A 		vstr.32	s15, [r4, #20]
 521              		.loc 1 472 0
 522 00f6 C4ED075A 		vstr.32	s11, [r4, #28]
 523              		.loc 1 473 0
 524 00fa C4ED086A 		vstr.32	s13, [r4, #32]
 525              		.loc 1 475 0
 526 00fe 87B1     		cbz	r7, .L21
 527              		.loc 1 475 0 is_stmt 0 discriminator 1
 528 0100 1B78     		ldrb	r3, [r3]	@ zero_extendqisi2
 529 0102 042B     		cmp	r3, #4
 530 0104 0DD0     		beq	.L21
 531              		.loc 1 477 0 is_stmt 1
 532 0106 FFF7FEFF 		bl	CurrentControl
 533              	.LVL22:
 534 010a D6ED008A 		vldr.32	s17, [r6]
 535 010e B0EE680A 		vmov.f32	s0, s17
 536 0112 FFF7FEFF 		bl	cosf
 537              	.LVL23:
 538 0116 B0EE408A 		vmov.f32	s16, s0
 539 011a B0EE680A 		vmov.f32	s0, s17
 540 011e FFF7FEFF 		bl	sinf
 541              	.LVL24:
 542              	.L21:
 543              		.loc 1 481 0
 544 0122 D4ED0A7A 		vldr.32	s15, [r4, #40]
 545 0126 94ED097A 		vldr.32	s14, [r4, #36]
 546              		.loc 1 486 0
 547 012a DFED705A 		vldr.32	s11, .L38+44
 548              		.loc 1 485 0
 549 012e 704B     		ldr	r3, .L38+48
 550              		.loc 1 482 0
 551 0130 67EE886A 		vmul.f32	s13, s15, s16
 552              		.loc 1 481 0
 553 0134 60EE677A 		vnmul.f32	s15, s0, s15
 554              		.loc 1 482 0
 555 0138 E7EE006A 		vfma.f32	s13, s14, s0
 556              		.loc 1 481 0
 557 013c E7EE087A 		vfma.f32	s15, s14, s16
 558              		.loc 1 486 0
 559 0140 B1EE667A 		vneg.f32	s14, s13
 560 0144 B0EE476A 		vmov.f32	s12, s14
 561 0148 A7EEA56A 		vfma.f32	s12, s15, s11
 562              		.loc 1 487 0
 563 014c A7EEE57A 		vfms.f32	s14, s15, s11
 564              		.loc 1 486 0
 565 0150 F6EE005A 		vmov.f32	s11, #5.0e-1
 566 0154 26EE256A 		vmul.f32	s12, s12, s11
 567              		.loc 1 487 0
 568 0158 27EE257A 		vmul.f32	s14, s14, s11
 569              		.loc 1 481 0
 570 015c C4ED0B7A 		vstr.32	s15, [r4, #44]
ARM GAS  C:\Users\IDONNO~1\AppData\Local\Temp\cc4D8Yvi.s 			page 11


 571              		.loc 1 482 0
 572 0160 C4ED0C6A 		vstr.32	s13, [r4, #48]
 573              		.loc 1 485 0
 574 0164 C3ED016A 		vstr.32	s13, [r3, #4]
 575              		.loc 1 486 0
 576 0168 83ED026A 		vstr.32	s12, [r3, #8]
 577              		.loc 1 487 0
 578 016c 83ED037A 		vstr.32	s14, [r3, #12]
 579              		.loc 1 489 0
 580 0170 FFF7FEFF 		bl	CalcSVGen
 581              	.LVL25:
 582              	.L10:
 583              	.LBE11:
 584              		.loc 1 499 0
 585 0174 BDEC028B 		vldm	sp!, {d8}
 586              		.cfi_remember_state
 587              		.cfi_restore 80
 588              		.cfi_restore 81
 589              		.cfi_def_cfa_offset 24
 590              		.loc 1 497 0
 591 0178 6420     		movs	r0, #100
 592              		.loc 1 499 0
 593 017a BDE8F840 		pop	{r3, r4, r5, r6, r7, lr}
 594              		.cfi_restore 14
 595              		.cfi_restore 7
 596              		.cfi_restore 6
 597              		.cfi_restore 5
 598              		.cfi_restore 4
 599              		.cfi_restore 3
 600              		.cfi_def_cfa_offset 0
 601              		.loc 1 497 0
 602 017e FFF7FEBF 		b	WWDG_SetCounter
 603              	.LVL26:
 604              	.L33:
 605              		.cfi_restore_state
 606              		.loc 1 401 0
 607 0182 574B     		ldr	r3, .L38+32
 608              		.loc 1 402 0
 609 0184 574A     		ldr	r2, .L38+36
 610              		.loc 1 401 0
 611 0186 988B     		ldrh	r0, [r3, #28]
 612              		.loc 1 402 0
 613 0188 5D69     		ldr	r5, [r3, #20]
 614              		.loc 1 403 0
 615 018a 9C69     		ldr	r4, [r3, #24]
 616              		.loc 1 402 0
 617 018c D188     		ldrh	r1, [r2, #6]
 618              		.loc 1 403 0
 619 018e 1289     		ldrh	r2, [r2, #8]
 620              		.loc 1 499 0
 621 0190 BDEC028B 		vldm	sp!, {d8}
 622              		.cfi_remember_state
 623              		.cfi_restore 80
 624              		.cfi_restore 81
 625              		.cfi_def_cfa_offset 24
 626              		.loc 1 401 0
 627 0194 0130     		adds	r0, r0, #1
ARM GAS  C:\Users\IDONNO~1\AppData\Local\Temp\cc4D8Yvi.s 			page 12


 628              		.loc 1 402 0
 629 0196 2944     		add	r1, r1, r5
 630              		.loc 1 403 0
 631 0198 2244     		add	r2, r2, r4
 632              		.loc 1 401 0
 633 019a 9883     		strh	r0, [r3, #28]	@ movhi
 634              		.loc 1 402 0
 635 019c 5961     		str	r1, [r3, #20]
 636              		.loc 1 403 0
 637 019e 9A61     		str	r2, [r3, #24]
 638              		.loc 1 497 0
 639 01a0 6420     		movs	r0, #100
 640              		.loc 1 499 0
 641 01a2 BDE8F840 		pop	{r3, r4, r5, r6, r7, lr}
 642              		.cfi_restore 3
 643              		.cfi_restore 4
 644              		.cfi_restore 5
 645              		.cfi_restore 6
 646              		.cfi_restore 7
 647              		.cfi_restore 14
 648              		.cfi_def_cfa_offset 0
 649              		.loc 1 497 0
 650 01a6 FFF7FEBF 		b	WWDG_SetCounter
 651              	.LVL27:
 652              	.L32:
 653              		.cfi_restore_state
 654              		.loc 1 387 0
 655 01aa FFF7FEFF 		bl	SpeedControl
 656              	.LVL28:
 657 01ae 2368     		ldr	r3, [r4]
 658 01b0 36E7     		b	.L9
 659              	.LVL29:
 660              	.L31:
 661              		.loc 1 378 0
 662 01b2 4C4A     		ldr	r2, .L38+36
 663 01b4 9FED4F6A 		vldr.32	s12, .L38+52
 664 01b8 9188     		ldrh	r1, [r2, #4]
 665              	.LVL30:
 666              		.loc 1 379 0
 667 01ba 5288     		ldrh	r2, [r2, #2]
 668              		.loc 1 378 0
 669 01bc DFED4E6A 		vldr.32	s13, .L38+56
 670              		.loc 1 379 0
 671 01c0 07EE902A 		vmov	s15, r2	@ int
 672              		.loc 1 378 0
 673 01c4 07EE101A 		vmov	s14, r1	@ int
 674              		.loc 1 379 0
 675 01c8 F8EE677A 		vcvt.f32.u32	s15, s15
 676              		.loc 1 378 0
 677 01cc B8EE477A 		vcvt.f32.u32	s14, s14
 678              		.loc 1 379 0
 679 01d0 77EEC67A 		vsub.f32	s15, s15, s12
 680              		.loc 1 378 0
 681 01d4 37EE467A 		vsub.f32	s14, s14, s12
 682 01d8 484A     		ldr	r2, .L38+60
 683 01da 87EE266A 		vdiv.f32	s12, s14, s13
 684              		.loc 1 379 0
ARM GAS  C:\Users\IDONNO~1\AppData\Local\Temp\cc4D8Yvi.s 			page 13


 685 01de 87EEA67A 		vdiv.f32	s14, s15, s13
 686              		.loc 1 378 0
 687 01e2 82ED006A 		vstr.32	s12, [r2]
 688              		.loc 1 379 0
 689 01e6 82ED017A 		vstr.32	s14, [r2, #4]
 690 01ea 16E7     		b	.L8
 691              	.LVL31:
 692              	.L34:
 693              	.LBB12:
 694              		.loc 1 416 0
 695 01ec 3B4C     		ldr	r4, .L38+28
 696 01ee DFED448A 		vldr.32	s17, .L38+64
 697 01f2 D4ED007A 		vldr.32	s15, [r4]
 698              		.loc 1 417 0
 699 01f6 9FED437A 		vldr.32	s14, .L38+68
 700              		.loc 1 421 0
 701 01fa 434A     		ldr	r2, .L38+72
 702 01fc 6262     		str	r2, [r4, #36]	@ float
 703              		.loc 1 416 0
 704 01fe 77EEA88A 		vadd.f32	s17, s15, s17
 705              		.loc 1 422 0
 706 0202 0023     		movs	r3, #0
 707              		.loc 1 417 0
 708 0204 F4EEC78A 		vcmpe.f32	s17, s14
 709 0208 F1EE10FA 		vmrs	APSR_nzcv, FPSCR
 710 020c A8BF     		it	ge
 711 020e 77EE688A 		vsubge.f32	s17, s14, s17
 712              		.loc 1 422 0
 713 0212 A362     		str	r3, [r4, #40]	@ float
 714 0214 B0EE680A 		vmov.f32	s0, s17
 715              		.loc 1 417 0
 716 0218 C4ED008A 		vstr.32	s17, [r4]
 717 021c FFF7FEFF 		bl	cosf
 718              	.LVL32:
 719 0220 B0EE408A 		vmov.f32	s16, s0
 720 0224 B0EE680A 		vmov.f32	s0, s17
 721 0228 FFF7FEFF 		bl	sinf
 722              	.LVL33:
 723 022c 23E7     		b	.L15
 724              	.L35:
 725              		.loc 1 430 0
 726 022e 2B4C     		ldr	r4, .L38+28
 727 0230 DFED338A 		vldr.32	s17, .L38+64
 728 0234 D4ED007A 		vldr.32	s15, [r4]
 729              		.loc 1 431 0
 730 0238 9FED327A 		vldr.32	s14, .L38+68
 731              		.loc 1 433 0
 732 023c 264B     		ldr	r3, .L38+24
 733 023e 3249     		ldr	r1, .L38+72
 734 0240 5960     		str	r1, [r3, #4]	@ float
 735              		.loc 1 430 0
 736 0242 77EEA88A 		vadd.f32	s17, s15, s17
 737              		.loc 1 434 0
 738 0246 0022     		movs	r2, #0
 739              		.loc 1 431 0
 740 0248 F4EEC78A 		vcmpe.f32	s17, s14
 741 024c F1EE10FA 		vmrs	APSR_nzcv, FPSCR
ARM GAS  C:\Users\IDONNO~1\AppData\Local\Temp\cc4D8Yvi.s 			page 14


 742 0250 A8BF     		it	ge
 743 0252 77EE688A 		vsubge.f32	s17, s14, s17
 744              		.loc 1 434 0
 745 0256 9A60     		str	r2, [r3, #8]	@ float
 746 0258 B0EE680A 		vmov.f32	s0, s17
 747              		.loc 1 431 0
 748 025c C4ED008A 		vstr.32	s17, [r4]
 749 0260 FFF7FEFF 		bl	cosf
 750              	.LVL34:
 751 0264 B0EE408A 		vmov.f32	s16, s0
 752 0268 B0EE680A 		vmov.f32	s0, s17
 753 026c FFF7FEFF 		bl	sinf
 754              	.LVL35:
 755 0270 01E7     		b	.L15
 756              	.L36:
 757              		.loc 1 445 0
 758 0272 224A     		ldr	r2, .L38+60
 759              		.loc 1 442 0
 760 0274 254B     		ldr	r3, .L38+76
 761              		.loc 1 445 0
 762 0276 D2ED0B8A 		vldr.32	s17, [r2, #44]
 763              		.loc 1 442 0
 764 027a 186A     		ldr	r0, [r3, #32]	@ float
 765              		.loc 1 445 0
 766 027c 174C     		ldr	r4, .L38+28
 767              		.loc 1 440 0
 768 027e 164B     		ldr	r3, .L38+24
 769 0280 2349     		ldr	r1, .L38+80
 770              		.loc 1 445 0
 771 0282 C4ED008A 		vstr.32	s17, [r4]
 772              		.loc 1 441 0
 773 0286 0022     		movs	r2, #0
 774 0288 B0EE680A 		vmov.f32	s0, s17
 775              		.loc 1 442 0
 776 028c 9860     		str	r0, [r3, #8]	@ float
 777              		.loc 1 440 0
 778 028e 1960     		str	r1, [r3]	@ float
 779              		.loc 1 441 0
 780 0290 5A60     		str	r2, [r3, #4]	@ float
 781 0292 FFF7FEFF 		bl	cosf
 782              	.LVL36:
 783 0296 B0EE408A 		vmov.f32	s16, s0
 784 029a B0EE680A 		vmov.f32	s0, s17
 785 029e FFF7FEFF 		bl	sinf
 786              	.LVL37:
 787 02a2 E8E6     		b	.L15
 788              	.L37:
 789 02a4 0D4C     		ldr	r4, .L38+28
 790 02a6 D4ED008A 		vldr.32	s17, [r4]
 791 02aa B0EE680A 		vmov.f32	s0, s17
 792 02ae FFF7FEFF 		bl	cosf
 793              	.LVL38:
 794 02b2 B0EE408A 		vmov.f32	s16, s0
 795 02b6 B0EE680A 		vmov.f32	s0, s17
 796 02ba FFF7FEFF 		bl	sinf
 797              	.LVL39:
 798 02be DAE6     		b	.L15
ARM GAS  C:\Users\IDONNO~1\AppData\Local\Temp\cc4D8Yvi.s 			page 15


 799              	.L39:
 800              		.align	2
 801              	.L38:
 802 02c0 00000000 		.word	EncMode
 803 02c4 00000000 		.word	.LANCHOR0
 804 02c8 00000000 		.word	McCtrlBits
 805 02cc 00180040 		.word	1073747968
 806 02d0 00000000 		.word	.LANCHOR1
 807 02d4 00000000 		.word	0
 808 02d8 00000000 		.word	CtrlParm
 809 02dc 00000000 		.word	ParkParm
 810 02e0 00000000 		.word	MeasCurrParm
 811 02e4 00000000 		.word	ADC_Value
 812 02e8 3ACD133F 		.word	1058262330
 813 02ec D7B3DD3F 		.word	1071494103
 814 02f0 00000000 		.word	SVGenParm
 815 02f4 00209B44 		.word	1151016960
 816 02f8 00F07F45 		.word	1166012416
 817 02fc 00000000 		.word	smc1
 818 0300 17B75139 		.word	961656599
 819 0304 DB0FC940 		.word	1086918619
 820 0308 CDCC4C3E 		.word	1045220557
 821 030c 00000000 		.word	PIParmW
 822 0310 6F12833A 		.word	981668463
 823              	.LBE12:
 824              		.cfi_endproc
 825              	.LFE260:
 826              		.size	mcpwm_adc_dma_int_handler, .-mcpwm_adc_dma_int_handler
 827              		.section	.text.mcpwm_init,"ax",%progbits
 828              		.align	2
 829              		.p2align 4,,15
 830              		.global	mcpwm_init
 831              		.thumb
 832              		.thumb_func
 833              		.type	mcpwm_init, %function
 834              	mcpwm_init:
 835              	.LFB256:
 836              		.loc 1 59 0
 837              		.cfi_startproc
 838              		@ args = 0, pretend = 0, frame = 160
 839              		@ frame_needed = 0, uses_anonymous_args = 0
 840              	.LVL40:
 841 0000 2DE9F04F 		push	{r4, r5, r6, r7, r8, r9, r10, fp, lr}
 842              		.cfi_def_cfa_offset 36
 843              		.cfi_offset 4, -36
 844              		.cfi_offset 5, -32
 845              		.cfi_offset 6, -28
 846              		.cfi_offset 7, -24
 847              		.cfi_offset 8, -20
 848              		.cfi_offset 9, -16
 849              		.cfi_offset 10, -12
 850              		.cfi_offset 11, -8
 851              		.cfi_offset 14, -4
 852              		.loc 1 70 0
 853 0004 DA4E     		ldr	r6, .L42
 854              		.loc 1 71 0
 855 0006 DB4F     		ldr	r7, .L42+4
ARM GAS  C:\Users\IDONNO~1\AppData\Local\Temp\cc4D8Yvi.s 			page 16


 856              		.loc 1 61 0
 857 0008 DB49     		ldr	r1, .L42+8
 858 000a DC48     		ldr	r0, .L42+12
 859              	.LVL41:
 860              		.loc 1 149 0
 861 000c DFF884A3 		ldr	r10, .L42+36
 862              		.loc 1 59 0
 863 0010 ABB0     		sub	sp, sp, #172
 864              		.cfi_def_cfa_offset 208
 865              		.loc 1 61 0
 866 0012 FFF7FEFF 		bl	chvprintf
 867              	.LVL42:
 868              		.loc 1 64 0
 869 0016 FFF7FEFF 		bl	utils_sys_lock_cnt
 870              	.LVL43:
 871              		.loc 1 70 0
 872 001a 3046     		mov	r0, r6
 873 001c FFF7FEFF 		bl	TIM_DeInit
 874              	.LVL44:
 875              		.loc 1 71 0
 876 0020 3846     		mov	r0, r7
 877              		.loc 1 72 0
 878 0022 0024     		movs	r4, #0
 879              		.loc 1 71 0
 880 0024 FFF7FEFF 		bl	TIM_DeInit
 881              	.LVL45:
 882              		.loc 1 76 0
 883 0028 0121     		movs	r1, #1
 884              		.loc 1 72 0
 885 002a 7462     		str	r4, [r6, #36]
 886              		.loc 1 76 0
 887 002c 0846     		mov	r0, r1
 888              		.loc 1 73 0
 889 002e 7C62     		str	r4, [r7, #36]
 890              		.loc 1 83 0
 891 0030 0125     		movs	r5, #1
 892              		.loc 1 76 0
 893 0032 FFF7FEFF 		bl	RCC_APB2PeriphClockCmd
 894              	.LVL46:
 895              		.loc 1 80 0
 896 0036 4FF02002 		mov	r2, #32	@ movhi
 897              		.loc 1 85 0
 898 003a 3046     		mov	r0, r6
 899 003c 05A9     		add	r1, sp, #20
 900              		.loc 1 81 0
 901 003e 41F28243 		movw	r3, #5250
 902              		.loc 1 80 0
 903 0042 ADF81620 		strh	r2, [sp, #22]	@ movhi
 904              		.loc 1 79 0
 905 0046 ADF81440 		strh	r4, [sp, #20]	@ movhi
 906              		.loc 1 82 0
 907 004a ADF81C40 		strh	r4, [sp, #28]	@ movhi
 908              		.loc 1 81 0
 909 004e 0693     		str	r3, [sp, #24]
 910              		.loc 1 83 0
 911 0050 8DF81E50 		strb	r5, [sp, #30]
 912              		.loc 1 85 0
ARM GAS  C:\Users\IDONNO~1\AppData\Local\Temp\cc4D8Yvi.s 			page 17


 913 0054 FFF7FEFF 		bl	TIM_TimeBaseInit
 914              	.LVL47:
 915              		.loc 1 91 0
 916 0058 F36A     		ldr	r3, [r6, #44]
 917              		.loc 1 89 0
 918 005a ADF84250 		strh	r5, [sp, #66]	@ movhi
 919              		.loc 1 91 0
 920 005e EB40     		lsrs	r3, r3, r5
 921 0060 1293     		str	r3, [sp, #72]
 922              		.loc 1 88 0
 923 0062 4FF06003 		mov	r3, #96	@ movhi
 924 0066 ADF84030 		strh	r3, [sp, #64]	@ movhi
 925              		.loc 1 94 0
 926 006a 4FF48073 		mov	r3, #256	@ movhi
 927              		.loc 1 90 0
 928 006e 4FF00409 		mov	r9, #4
 929              		.loc 1 97 0
 930 0072 3046     		mov	r0, r6
 931 0074 10A9     		add	r1, sp, #64
 932              		.loc 1 94 0
 933 0076 ADF85030 		strh	r3, [sp, #80]	@ movhi
 934              		.loc 1 95 0
 935 007a 4FF40073 		mov	r3, #512	@ movhi
 936 007e ADF85230 		strh	r3, [sp, #82]	@ movhi
 937              		.loc 1 92 0
 938 0082 ADF84C40 		strh	r4, [sp, #76]	@ movhi
 939              		.loc 1 93 0
 940 0086 ADF84E40 		strh	r4, [sp, #78]	@ movhi
 941              		.loc 1 90 0
 942 008a ADF84490 		strh	r9, [sp, #68]	@ movhi
 943              		.loc 1 97 0
 944 008e FFF7FEFF 		bl	TIM_OC1Init
 945              	.LVL48:
 946              		.loc 1 98 0
 947 0092 10A9     		add	r1, sp, #64
 948 0094 3046     		mov	r0, r6
 949 0096 FFF7FEFF 		bl	TIM_OC2Init
 950              	.LVL49:
 951              		.loc 1 99 0
 952 009a 10A9     		add	r1, sp, #64
 953 009c 3046     		mov	r0, r6
 954 009e FFF7FEFF 		bl	TIM_OC3Init
 955              	.LVL50:
 956              		.loc 1 100 0
 957 00a2 10A9     		add	r1, sp, #64
 958 00a4 3046     		mov	r0, r6
 959 00a6 FFF7FEFF 		bl	TIM_OC4Init
 960              	.LVL51:
 961              		.loc 1 102 0
 962 00aa 3046     		mov	r0, r6
 963 00ac 0821     		movs	r1, #8
 964 00ae FFF7FEFF 		bl	TIM_OC1PreloadConfig
 965              	.LVL52:
 966              		.loc 1 103 0
 967 00b2 3046     		mov	r0, r6
 968 00b4 0821     		movs	r1, #8
 969 00b6 FFF7FEFF 		bl	TIM_OC2PreloadConfig
ARM GAS  C:\Users\IDONNO~1\AppData\Local\Temp\cc4D8Yvi.s 			page 18


 970              	.LVL53:
 971              		.loc 1 104 0
 972 00ba 3046     		mov	r0, r6
 973 00bc 0821     		movs	r1, #8
 974 00be FFF7FEFF 		bl	TIM_OC3PreloadConfig
 975              	.LVL54:
 976              		.loc 1 105 0
 977 00c2 3046     		mov	r0, r6
 978 00c4 0821     		movs	r1, #8
 979 00c6 FFF7FEFF 		bl	TIM_OC4PreloadConfig
 980              	.LVL55:
 981              		.loc 1 108 0
 982 00ca 4FF40068 		mov	r8, #2048
 983              		.loc 1 111 0
 984 00ce 5023     		movs	r3, #80
 985              		.loc 1 116 0
 986 00d0 3046     		mov	r0, r6
 987              		.loc 1 113 0
 988 00d2 4FF4005B 		mov	fp, #8192
 989              		.loc 1 116 0
 990 00d6 08A9     		add	r1, sp, #32
 991              		.loc 1 111 0
 992 00d8 ADF82630 		strh	r3, [sp, #38]	@ movhi
 993              		.loc 1 110 0
 994 00dc ADF82440 		strh	r4, [sp, #36]	@ movhi
 995              		.loc 1 112 0
 996 00e0 ADF82840 		strh	r4, [sp, #40]	@ movhi
 997              		.loc 1 114 0
 998 00e4 ADF82C40 		strh	r4, [sp, #44]	@ movhi
 999              		.loc 1 113 0
 1000 00e8 ADF82AB0 		strh	fp, [sp, #42]	@ movhi
 1001              		.loc 1 108 0
 1002 00ec ADF82080 		strh	r8, [sp, #32]	@ movhi
 1003              		.loc 1 109 0
 1004 00f0 ADF82280 		strh	r8, [sp, #34]	@ movhi
 1005              		.loc 1 116 0
 1006 00f4 FFF7FEFF 		bl	TIM_BDTRConfig
 1007              	.LVL56:
 1008              		.loc 1 117 0
 1009 00f8 2946     		mov	r1, r5
 1010 00fa 3046     		mov	r0, r6
 1011 00fc FFF7FEFF 		bl	TIM_CCPreloadControl
 1012              	.LVL57:
 1013              		.loc 1 118 0
 1014 0100 2946     		mov	r1, r5
 1015 0102 3046     		mov	r0, r6
 1016 0104 FFF7FEFF 		bl	TIM_ARRPreloadConfig
 1017              	.LVL58:
 1018              		.loc 1 128 0
 1019 0108 2946     		mov	r1, r5
 1020 010a 9D48     		ldr	r0, .L42+16
 1021 010c FFF7FEFF 		bl	RCC_AHB1PeriphClockCmd
 1022              	.LVL59:
 1023              		.loc 1 129 0
 1024 0110 2946     		mov	r1, r5
 1025 0112 4FF4E060 		mov	r0, #1792
 1026 0116 FFF7FEFF 		bl	RCC_APB2PeriphClockCmd
ARM GAS  C:\Users\IDONNO~1\AppData\Local\Temp\cc4D8Yvi.s 			page 19


 1027              	.LVL60:
 1028              		.loc 1 131 0
 1029 011a 2346     		mov	r3, r4
 1030 011c 994A     		ldr	r2, .L42+20
 1031 011e 9A48     		ldr	r0, .L42+24
 1032 0120 0321     		movs	r1, #3
 1033 0122 FFF7FEFF 		bl	dmaStreamAllocate
 1034              	.LVL61:
 1035              		.loc 1 136 0
 1036 0126 9949     		ldr	r1, .L42+28
 1037              		.loc 1 135 0
 1038 0128 DFF86CC2 		ldr	ip, .L42+40
 1039              		.loc 1 136 0
 1040 012c 1C91     		str	r1, [sp, #112]
 1041              		.loc 1 143 0
 1042 012e 4FF48072 		mov	r2, #256
 1043              		.loc 1 138 0
 1044 0132 4FF00C0E 		mov	lr, #12
 1045              		.loc 1 140 0
 1046 0136 4FF48063 		mov	r3, #1024
 1047              		.loc 1 149 0
 1048 013a 5046     		mov	r0, r10
 1049              		.loc 1 143 0
 1050 013c 2492     		str	r2, [sp, #144]
 1051              		.loc 1 149 0
 1052 013e 1BA9     		add	r1, sp, #108
 1053              		.loc 1 144 0
 1054 0140 4FF40032 		mov	r2, #131072
 1055              		.loc 1 135 0
 1056 0144 CDF874C0 		str	ip, [sp, #116]
 1057              		.loc 1 138 0
 1058 0148 CDF87CE0 		str	lr, [sp, #124]
 1059              		.loc 1 140 0
 1060 014c 2193     		str	r3, [sp, #132]
 1061 014e 0393     		str	r3, [sp, #12]
 1062              		.loc 1 144 0
 1063 0150 2592     		str	r2, [sp, #148]
 1064              		.loc 1 142 0
 1065 0152 CDF88CB0 		str	fp, [sp, #140]
 1066              		.loc 1 134 0
 1067 0156 1B94     		str	r4, [sp, #108]
 1068              		.loc 1 137 0
 1069 0158 1E94     		str	r4, [sp, #120]
 1070              		.loc 1 139 0
 1071 015a 2094     		str	r4, [sp, #128]
 1072              		.loc 1 145 0
 1073 015c 2694     		str	r4, [sp, #152]
 1074              		.loc 1 146 0
 1075 015e 2794     		str	r4, [sp, #156]
 1076              		.loc 1 147 0
 1077 0160 2894     		str	r4, [sp, #160]
 1078              		.loc 1 148 0
 1079 0162 2994     		str	r4, [sp, #164]
 1080              		.loc 1 141 0
 1081 0164 CDF88880 		str	r8, [sp, #136]
 1082              		.loc 1 149 0
 1083 0168 FFF7FEFF 		bl	DMA_Init
ARM GAS  C:\Users\IDONNO~1\AppData\Local\Temp\cc4D8Yvi.s 			page 20


 1084              	.LVL62:
 1085              		.loc 1 152 0
 1086 016c 2946     		mov	r1, r5
 1087 016e 5046     		mov	r0, r10
 1088 0170 FFF7FEFF 		bl	DMA_Cmd
 1089              	.LVL63:
 1090              		.loc 1 155 0
 1091 0174 2A46     		mov	r2, r5
 1092 0176 5046     		mov	r0, r10
 1093 0178 1021     		movs	r1, #16
 1094 017a FFF7FEFF 		bl	DMA_ITConfig
 1095              	.LVL64:
 1096              		.loc 1 160 0
 1097 017e 1621     		movs	r1, #22
 1098              		.loc 1 162 0
 1099 0180 4FF48042 		mov	r2, #16384
 1100              		.loc 1 164 0
 1101 0184 0CA8     		add	r0, sp, #48
 1102              		.loc 1 176 0
 1103 0186 DFF814B2 		ldr	fp, .L42+44
 1104              		.loc 1 161 0
 1105 018a 0D94     		str	r4, [sp, #52]
 1106              		.loc 1 163 0
 1107 018c 0F94     		str	r4, [sp, #60]
 1108              		.loc 1 160 0
 1109 018e 0C91     		str	r1, [sp, #48]
 1110              		.loc 1 162 0
 1111 0190 0E92     		str	r2, [sp, #56]
 1112              		.loc 1 164 0
 1113 0192 FFF7FEFF 		bl	ADC_CommonInit
 1114              	.LVL65:
 1115              		.loc 1 170 0
 1116 0196 4FF00052 		mov	r2, #536870912
 1117              		.loc 1 175 0
 1118 019a 15A9     		add	r1, sp, #84
 1119              		.loc 1 170 0
 1120 019c 1792     		str	r2, [sp, #92]
 1121              		.loc 1 177 0
 1122 019e DFF800A2 		ldr	r10, .L42+48
 1123              		.loc 1 175 0
 1124 01a2 7B48     		ldr	r0, .L42+32
 1125              		.loc 1 167 0
 1126 01a4 1594     		str	r4, [sp, #84]
 1127              		.loc 1 171 0
 1128 01a6 4FF05062 		mov	r2, #218103808
 1129 01aa 1892     		str	r2, [sp, #96]
 1130              		.loc 1 168 0
 1131 01ac 8DF85850 		strb	r5, [sp, #88]
 1132              		.loc 1 169 0
 1133 01b0 8DF85940 		strb	r4, [sp, #89]
 1134              		.loc 1 172 0
 1135 01b4 1994     		str	r4, [sp, #100]
 1136              		.loc 1 173 0
 1137 01b6 8DF86890 		strb	r9, [sp, #104]
 1138              		.loc 1 175 0
 1139 01ba FFF7FEFF 		bl	ADC_Init
 1140              	.LVL66:
ARM GAS  C:\Users\IDONNO~1\AppData\Local\Temp\cc4D8Yvi.s 			page 21


 1141              		.loc 1 176 0
 1142 01be 15A9     		add	r1, sp, #84
 1143 01c0 5846     		mov	r0, fp
 1144 01c2 FFF7FEFF 		bl	ADC_Init
 1145              	.LVL67:
 1146              		.loc 1 177 0
 1147 01c6 15A9     		add	r1, sp, #84
 1148 01c8 5046     		mov	r0, r10
 1149 01ca FFF7FEFF 		bl	ADC_Init
 1150              	.LVL68:
 1151              		.loc 1 179 0
 1152 01ce FFF7FEFF 		bl	hw_setup_adc_channels
 1153              	.LVL69:
 1154              		.loc 1 182 0
 1155 01d2 2846     		mov	r0, r5
 1156 01d4 FFF7FEFF 		bl	ADC_MultiModeDMARequestAfterLastTransferCmd
 1157              	.LVL70:
 1158              		.loc 1 185 0
 1159 01d8 2946     		mov	r1, r5
 1160 01da 6D48     		ldr	r0, .L42+32
 1161 01dc FFF7FEFF 		bl	ADC_Cmd
 1162              	.LVL71:
 1163              		.loc 1 186 0
 1164 01e0 2946     		mov	r1, r5
 1165 01e2 5846     		mov	r0, fp
 1166 01e4 FFF7FEFF 		bl	ADC_Cmd
 1167              	.LVL72:
 1168              		.loc 1 187 0
 1169 01e8 2946     		mov	r1, r5
 1170 01ea 5046     		mov	r0, r10
 1171 01ec FFF7FEFF 		bl	ADC_Cmd
 1172              	.LVL73:
 1173              		.loc 1 191 0
 1174 01f0 2946     		mov	r1, r5
 1175 01f2 0220     		movs	r0, #2
 1176 01f4 FFF7FEFF 		bl	RCC_APB2PeriphClockCmd
 1177              	.LVL74:
 1178              		.loc 1 199 0
 1179 01f8 05A9     		add	r1, sp, #20
 1180 01fa 3846     		mov	r0, r7
 1181              		.loc 1 195 0
 1182 01fc 42F60412 		movw	r2, #10500
 1183              		.loc 1 193 0
 1184 0200 ADF81440 		strh	r4, [sp, #20]	@ movhi
 1185              		.loc 1 194 0
 1186 0204 ADF81640 		strh	r4, [sp, #22]	@ movhi
 1187              		.loc 1 196 0
 1188 0208 ADF81C40 		strh	r4, [sp, #28]	@ movhi
 1189              		.loc 1 197 0
 1190 020c 8DF81E40 		strb	r4, [sp, #30]
 1191              		.loc 1 195 0
 1192 0210 0692     		str	r2, [sp, #24]
 1193              		.loc 1 199 0
 1194 0212 FFF7FEFF 		bl	TIM_TimeBaseInit
 1195              	.LVL75:
 1196              		.loc 1 201 0
 1197 0216 4FF06003 		mov	r3, #96	@ movhi
ARM GAS  C:\Users\IDONNO~1\AppData\Local\Temp\cc4D8Yvi.s 			page 22


 1198              		.loc 1 203 0
 1199 021a F26A     		ldr	r2, [r6, #44]
 1200              		.loc 1 201 0
 1201 021c ADF84030 		strh	r3, [sp, #64]	@ movhi
 1202              		.loc 1 206 0
 1203 0220 4FF48073 		mov	r3, #256	@ movhi
 1204              		.loc 1 208 0
 1205 0224 10A9     		add	r1, sp, #64
 1206 0226 3846     		mov	r0, r7
 1207              		.loc 1 206 0
 1208 0228 ADF85030 		strh	r3, [sp, #80]	@ movhi
 1209              		.loc 1 207 0
 1210 022c 4FF40073 		mov	r3, #512	@ movhi
 1211 0230 ADF85230 		strh	r3, [sp, #82]	@ movhi
 1212              		.loc 1 203 0
 1213 0234 1292     		str	r2, [sp, #72]
 1214              		.loc 1 202 0
 1215 0236 ADF84250 		strh	r5, [sp, #66]	@ movhi
 1216              		.loc 1 204 0
 1217 023a ADF84C40 		strh	r4, [sp, #76]	@ movhi
 1218              		.loc 1 205 0
 1219 023e ADF84E40 		strh	r4, [sp, #78]	@ movhi
 1220              		.loc 1 208 0
 1221 0242 FFF7FEFF 		bl	TIM_OC1Init
 1222              	.LVL76:
 1223 0246 3846     		mov	r0, r7
 1224 0248 0821     		movs	r1, #8
 1225 024a FFF7FEFF 		bl	TIM_OC1PreloadConfig
 1226              	.LVL77:
 1227              		.loc 1 209 0
 1228 024e 10A9     		add	r1, sp, #64
 1229 0250 3846     		mov	r0, r7
 1230 0252 FFF7FEFF 		bl	TIM_OC2Init
 1231              	.LVL78:
 1232 0256 3846     		mov	r0, r7
 1233 0258 0821     		movs	r1, #8
 1234 025a FFF7FEFF 		bl	TIM_OC2PreloadConfig
 1235              	.LVL79:
 1236              		.loc 1 210 0
 1237 025e 10A9     		add	r1, sp, #64
 1238 0260 3846     		mov	r0, r7
 1239 0262 FFF7FEFF 		bl	TIM_OC3Init
 1240              	.LVL80:
 1241 0266 3846     		mov	r0, r7
 1242 0268 0821     		movs	r1, #8
 1243 026a FFF7FEFF 		bl	TIM_OC3PreloadConfig
 1244              	.LVL81:
 1245              		.loc 1 212 0
 1246 026e 2946     		mov	r1, r5
 1247 0270 3846     		mov	r0, r7
 1248 0272 FFF7FEFF 		bl	TIM_ARRPreloadConfig
 1249              	.LVL82:
 1250              		.loc 1 213 0
 1251 0276 2946     		mov	r1, r5
 1252 0278 3846     		mov	r0, r7
 1253 027a FFF7FEFF 		bl	TIM_CCPreloadControl
 1254              	.LVL83:
ARM GAS  C:\Users\IDONNO~1\AppData\Local\Temp\cc4D8Yvi.s 			page 23


 1255              		.loc 1 216 0
 1256 027e 2946     		mov	r1, r5
 1257 0280 3846     		mov	r0, r7
 1258 0282 FFF7FEFF 		bl	TIM_CtrlPWMOutputs
 1259              	.LVL84:
 1260              		.loc 1 219 0
 1261 0286 3046     		mov	r0, r6
 1262 0288 2021     		movs	r1, #32
 1263 028a FFF7FEFF 		bl	TIM_SelectOutputTrigger
 1264              	.LVL85:
 1265              		.loc 1 220 0
 1266 028e 3046     		mov	r0, r6
 1267 0290 8021     		movs	r1, #128
 1268 0292 FFF7FEFF 		bl	TIM_SelectMasterSlaveMode
 1269              	.LVL86:
 1270              		.loc 1 221 0
 1271 0296 2146     		mov	r1, r4
 1272 0298 3846     		mov	r0, r7
 1273 029a FFF7FEFF 		bl	TIM_SelectInputTrigger
 1274              	.LVL87:
 1275              		.loc 1 222 0
 1276 029e 4946     		mov	r1, r9
 1277 02a0 3846     		mov	r0, r7
 1278 02a2 FFF7FEFF 		bl	TIM_SelectSlaveMode
 1279              	.LVL88:
 1280              		.loc 1 225 0
 1281 02a6 2946     		mov	r1, r5
 1282 02a8 3846     		mov	r0, r7
 1283 02aa FFF7FEFF 		bl	TIM_Cmd
 1284              	.LVL89:
 1285              		.loc 1 228 0
 1286 02ae 2946     		mov	r1, r5
 1287 02b0 3046     		mov	r0, r6
 1288 02b2 FFF7FEFF 		bl	TIM_Cmd
 1289              	.LVL90:
 1290              		.loc 1 231 0
 1291 02b6 2946     		mov	r1, r5
 1292 02b8 3046     		mov	r0, r6
 1293 02ba FFF7FEFF 		bl	TIM_CtrlPWMOutputs
 1294              	.LVL91:
 1295              		.loc 1 234 0
 1296 02be 2946     		mov	r1, r5
 1297 02c0 2846     		mov	r0, r5
 1298 02c2 FFF7FEFF 		bl	RCC_APB1PeriphClockCmd
 1299              	.LVL92:
 1300              		.loc 1 238 0
 1301 02c6 4FF0FF3A 		mov	r10, #-1
 1302              		.loc 1 239 0
 1303 02ca 5322     		movs	r2, #83
 1304              		.loc 1 242 0
 1305 02cc 05A9     		add	r1, sp, #20
 1306 02ce 4FF08040 		mov	r0, #1073741824
 1307              		.loc 1 239 0
 1308 02d2 ADF81420 		strh	r2, [sp, #20]	@ movhi
 1309              		.loc 1 240 0
 1310 02d6 ADF81C40 		strh	r4, [sp, #28]	@ movhi
 1311              		.loc 1 241 0
ARM GAS  C:\Users\IDONNO~1\AppData\Local\Temp\cc4D8Yvi.s 			page 24


 1312 02da ADF81640 		strh	r4, [sp, #22]	@ movhi
 1313              		.loc 1 238 0
 1314 02de CDF818A0 		str	r10, [sp, #24]
 1315              		.loc 1 242 0
 1316 02e2 FFF7FEFF 		bl	TIM_TimeBaseInit
 1317              	.LVL93:
 1318              		.loc 1 245 0
 1319 02e6 2946     		mov	r1, r5
 1320 02e8 4FF08040 		mov	r0, #1073741824
 1321 02ec FFF7FEFF 		bl	TIM_Cmd
 1322              	.LVL94:
 1323              		.loc 1 251 0
 1324 02f0 3268     		ldr	r2, [r6]
 1325              		.loc 1 273 0
 1326 02f2 DFF8B090 		ldr	r9, .L42+52
 1327              		.loc 1 251 0
 1328 02f6 42F00202 		orr	r2, r2, #2
 1329 02fa 3260     		str	r2, [r6]
 1330              		.loc 1 252 0
 1331 02fc 3A68     		ldr	r2, [r7]
 1332 02fe 42F00202 		orr	r2, r2, #2
 1333 0302 3A60     		str	r2, [r7]
 1334              		.loc 1 254 0
 1335 0304 F26A     		ldr	r2, [r6, #44]
 1336 0306 7A63     		str	r2, [r7, #52]
 1337              		.loc 1 255 0
 1338 0308 F26A     		ldr	r2, [r6, #44]
 1339 030a BA63     		str	r2, [r7, #56]
 1340              		.loc 1 256 0
 1341 030c F26A     		ldr	r2, [r6, #44]
 1342 030e FA63     		str	r2, [r7, #60]
 1343              		.loc 1 259 0
 1344 0310 3268     		ldr	r2, [r6]
 1345 0312 22F00202 		bic	r2, r2, #2
 1346 0316 3260     		str	r2, [r6]
 1347              		.loc 1 260 0
 1348 0318 3A68     		ldr	r2, [r7]
 1349 031a 22F00202 		bic	r2, r2, #2
 1350 031e 3A60     		str	r2, [r7]
 1351              		.loc 1 262 0
 1352 0320 FFF7FEFF 		bl	utils_sys_unlock_cnt
 1353              	.LVL95:
 1354              		.loc 1 265 0
 1355 0324 2946     		mov	r1, r5
 1356 0326 4020     		movs	r0, #64
 1357 0328 FFF7FEFF 		bl	RCC_APB1PeriphClockCmd
 1358              	.LVL96:
 1359              		.loc 1 270 0
 1360 032c 0722     		movs	r2, #7
 1361              		.loc 1 273 0
 1362 032e 05A9     		add	r1, sp, #20
 1363 0330 4846     		mov	r0, r9
 1364              		.loc 1 270 0
 1365 0332 ADF81420 		strh	r2, [sp, #20]	@ movhi
 1366              		.loc 1 271 0
 1367 0336 ADF81C40 		strh	r4, [sp, #28]	@ movhi
 1368              		.loc 1 272 0
ARM GAS  C:\Users\IDONNO~1\AppData\Local\Temp\cc4D8Yvi.s 			page 25


 1369 033a ADF81640 		strh	r4, [sp, #22]	@ movhi
 1370              		.loc 1 269 0
 1371 033e CDF818A0 		str	r10, [sp, #24]
 1372              		.loc 1 273 0
 1373 0342 FFF7FEFF 		bl	TIM_TimeBaseInit
 1374              	.LVL97:
 1375              		.loc 1 276 0
 1376 0346 2946     		mov	r1, r5
 1377 0348 4846     		mov	r0, r9
 1378 034a FFF7FEFF 		bl	TIM_Cmd
 1379              	.LVL98:
 1380              		.loc 1 279 0
 1381 034e 2946     		mov	r1, r5
 1382 0350 4046     		mov	r0, r8
 1383 0352 FFF7FEFF 		bl	RCC_APB1PeriphClockCmd
 1384              	.LVL99:
 1385              		.loc 1 280 0
 1386 0356 2046     		mov	r0, r4
 1387 0358 FFF7FEFF 		bl	WWDG_SetPrescaler
 1388              	.LVL100:
 1389              		.loc 1 281 0
 1390 035c FF20     		movs	r0, #255
 1391 035e FFF7FEFF 		bl	WWDG_SetWindowValue
 1392              	.LVL101:
 1393              		.loc 1 282 0
 1394 0362 6420     		movs	r0, #100
 1395 0364 FFF7FEFF 		bl	WWDG_Enable
 1396              	.LVL102:
 1397              		.loc 1 285 0
 1398 0368 FFF7FEFF 		bl	SetupControlParameters
 1399              	.LVL103:
 1400 036c 1CE0     		b	.L43
 1401              	.L44:
 1402 036e 00BF     		.align	2
 1403              	.L42:
 1404 0370 00000140 		.word	1073807360
 1405 0374 00040140 		.word	1073808384
 1406 0378 1C000000 		.word	.LC3
 1407 037c 00000000 		.word	SD1
 1408 0380 05004000 		.word	4194309
 1409 0384 00000000 		.word	mcpwm_adc_dma_int_handler
 1410 0388 90000000 		.word	_stm32_dma_streams+144
 1411 038c 08230140 		.word	1073816328
 1412 0390 00200140 		.word	1073815552
 1413 0394 70640240 		.word	1073898608
 1414 0398 00000000 		.word	ADC_Value
 1415 039c 00210140 		.word	1073815808
 1416 03a0 00220140 		.word	1073816064
 1417 03a4 00180040 		.word	1073747968
 1418              	.L43:
 1419              		.loc 1 288 0
 1420 03a8 0C49     		ldr	r1, .L45
 1421 03aa 039B     		ldr	r3, [sp, #12]
 1422              		.loc 1 289 0
 1423 03ac 0C4A     		ldr	r2, .L45+4
 1424              		.loc 1 288 0
 1425 03ae 0B83     		strh	r3, [r1, #24]	@ movhi
ARM GAS  C:\Users\IDONNO~1\AppData\Local\Temp\cc4D8Yvi.s 			page 26


 1426              		.loc 1 289 0
 1427 03b0 4FF48053 		mov	r3, #4096
 1428 03b4 5383     		strh	r3, [r2, #26]	@ movhi
 1429              		.loc 1 291 0
 1430 03b6 0B4D     		ldr	r5, .L45+8
 1431 03b8 FFF7FEFF 		bl	do_dc_cal
 1432              	.LVL104:
 1433              		.loc 1 294 0
 1434 03bc 0094     		str	r4, [sp]
 1435              		.loc 1 291 0
 1436 03be 2C78     		ldrb	r4, [r5]	@ zero_extendqisi2
 1437              		.loc 1 294 0
 1438 03c0 094B     		ldr	r3, .L45+12
 1439              		.loc 1 291 0
 1440 03c2 60F38204 		bfi	r4, r0, #2, #1
 1441              		.loc 1 294 0
 1442 03c6 4022     		movs	r2, #64
 1443 03c8 4FF4B361 		mov	r1, #1432
 1444              		.loc 1 291 0
 1445 03cc 2C70     		strb	r4, [r5]
 1446              		.loc 1 294 0
 1447 03ce 0748     		ldr	r0, .L45+16
 1448 03d0 FFF7FEFF 		bl	chThdCreateStatic
 1449              	.LVL105:
 1450              		.loc 1 296 0
 1451 03d4 2BB0     		add	sp, sp, #172
 1452              		.cfi_def_cfa_offset 36
 1453              		@ sp needed
 1454 03d6 BDE8F08F 		pop	{r4, r5, r6, r7, r8, r9, r10, fp, pc}
 1455              	.L46:
 1456 03da 00BF     		.align	2
 1457              	.L45:
 1458 03dc 00080240 		.word	1073874944
 1459 03e0 00040240 		.word	1073873920
 1460 03e4 00000000 		.word	McCtrlBits
 1461 03e8 00000000 		.word	timer_thread
 1462 03ec 00000000 		.word	.LANCHOR2
 1463              		.cfi_endproc
 1464              	.LFE256:
 1465              		.size	mcpwm_init, .-mcpwm_init
 1466              		.section	.text.mcpwm_deinit,"ax",%progbits
 1467              		.align	2
 1468              		.p2align 4,,15
 1469              		.global	mcpwm_deinit
 1470              		.thumb
 1471              		.thumb_func
 1472              		.type	mcpwm_deinit, %function
 1473              	mcpwm_deinit:
 1474              	.LFB257:
 1475              		.loc 1 299 0
 1476              		.cfi_startproc
 1477              		@ args = 0, pretend = 0, frame = 0
 1478              		@ frame_needed = 0, uses_anonymous_args = 0
 1479 0000 08B5     		push	{r3, lr}
 1480              		.cfi_def_cfa_offset 8
 1481              		.cfi_offset 3, -8
 1482              		.cfi_offset 14, -4
ARM GAS  C:\Users\IDONNO~1\AppData\Local\Temp\cc4D8Yvi.s 			page 27


 1483              		.loc 1 300 0
 1484 0002 FFF7FEFF 		bl	WWDG_DeInit
 1485              	.LVL106:
 1486              		.loc 1 310 0
 1487 0006 0D48     		ldr	r0, .L49
 1488 0008 FFF7FEFF 		bl	TIM_DeInit
 1489              	.LVL107:
 1490              		.loc 1 311 0
 1491 000c 4FF08040 		mov	r0, #1073741824
 1492 0010 FFF7FEFF 		bl	TIM_DeInit
 1493              	.LVL108:
 1494              		.loc 1 312 0
 1495 0014 0A48     		ldr	r0, .L49+4
 1496 0016 FFF7FEFF 		bl	TIM_DeInit
 1497              	.LVL109:
 1498              		.loc 1 313 0
 1499 001a 0A48     		ldr	r0, .L49+8
 1500 001c FFF7FEFF 		bl	TIM_DeInit
 1501              	.LVL110:
 1502              		.loc 1 314 0
 1503 0020 FFF7FEFF 		bl	ADC_DeInit
 1504              	.LVL111:
 1505              		.loc 1 315 0
 1506 0024 0848     		ldr	r0, .L49+12
 1507 0026 FFF7FEFF 		bl	DMA_DeInit
 1508              	.LVL112:
 1509              		.loc 1 316 0
 1510 002a 1220     		movs	r0, #18
 1511 002c FFF7FEFF 		bl	nvicDisableVector
 1512              	.LVL113:
 1513              		.loc 1 317 0
 1514 0030 0648     		ldr	r0, .L49+16
 1515              		.loc 1 318 0
 1516 0032 BDE80840 		pop	{r3, lr}
 1517              		.cfi_restore 14
 1518              		.cfi_restore 3
 1519              		.cfi_def_cfa_offset 0
 1520              		.loc 1 317 0
 1521 0036 FFF7FEBF 		b	dmaStreamRelease
 1522              	.LVL114:
 1523              	.L50:
 1524 003a 00BF     		.align	2
 1525              	.L49:
 1526 003c 00000140 		.word	1073807360
 1527 0040 00040140 		.word	1073808384
 1528 0044 00180040 		.word	1073747968
 1529 0048 70640240 		.word	1073898608
 1530 004c 90000000 		.word	_stm32_dma_streams+144
 1531              		.cfi_endproc
 1532              	.LFE257:
 1533              		.size	mcpwm_deinit, .-mcpwm_deinit
 1534              		.section	.text.stop_pwm_hw,"ax",%progbits
 1535              		.align	2
 1536              		.p2align 4,,15
 1537              		.global	stop_pwm_hw
 1538              		.thumb
 1539              		.thumb_func
ARM GAS  C:\Users\IDONNO~1\AppData\Local\Temp\cc4D8Yvi.s 			page 28


 1540              		.type	stop_pwm_hw, %function
 1541              	stop_pwm_hw:
 1542              	.LFB258:
 1543              		.loc 1 326 0
 1544              		.cfi_startproc
 1545              		@ args = 0, pretend = 0, frame = 0
 1546              		@ frame_needed = 0, uses_anonymous_args = 0
 1547 0000 10B5     		push	{r4, lr}
 1548              		.cfi_def_cfa_offset 8
 1549              		.cfi_offset 4, -8
 1550              		.cfi_offset 14, -4
 1551              		.loc 1 327 0
 1552 0002 1A4C     		ldr	r4, .L53
 1553 0004 4022     		movs	r2, #64
 1554 0006 2046     		mov	r0, r4
 1555 0008 0021     		movs	r1, #0
 1556 000a FFF7FEFF 		bl	TIM_SelectOCxM
 1557              	.LVL115:
 1558              		.loc 1 328 0
 1559 000e 2046     		mov	r0, r4
 1560 0010 0122     		movs	r2, #1
 1561 0012 0021     		movs	r1, #0
 1562 0014 FFF7FEFF 		bl	TIM_CCxCmd
 1563              	.LVL116:
 1564              		.loc 1 329 0
 1565 0018 0022     		movs	r2, #0
 1566 001a 2046     		mov	r0, r4
 1567 001c 1146     		mov	r1, r2
 1568 001e FFF7FEFF 		bl	TIM_CCxNCmd
 1569              	.LVL117:
 1570              		.loc 1 331 0
 1571 0022 2046     		mov	r0, r4
 1572 0024 4022     		movs	r2, #64
 1573 0026 0421     		movs	r1, #4
 1574 0028 FFF7FEFF 		bl	TIM_SelectOCxM
 1575              	.LVL118:
 1576              		.loc 1 332 0
 1577 002c 2046     		mov	r0, r4
 1578 002e 0122     		movs	r2, #1
 1579 0030 0421     		movs	r1, #4
 1580 0032 FFF7FEFF 		bl	TIM_CCxCmd
 1581              	.LVL119:
 1582              		.loc 1 333 0
 1583 0036 2046     		mov	r0, r4
 1584 0038 0022     		movs	r2, #0
 1585 003a 0421     		movs	r1, #4
 1586 003c FFF7FEFF 		bl	TIM_CCxNCmd
 1587              	.LVL120:
 1588              		.loc 1 335 0
 1589 0040 2046     		mov	r0, r4
 1590 0042 4022     		movs	r2, #64
 1591 0044 0821     		movs	r1, #8
 1592 0046 FFF7FEFF 		bl	TIM_SelectOCxM
 1593              	.LVL121:
 1594              		.loc 1 336 0
 1595 004a 2046     		mov	r0, r4
 1596 004c 0122     		movs	r2, #1
ARM GAS  C:\Users\IDONNO~1\AppData\Local\Temp\cc4D8Yvi.s 			page 29


 1597 004e 0821     		movs	r1, #8
 1598 0050 FFF7FEFF 		bl	TIM_CCxCmd
 1599              	.LVL122:
 1600              		.loc 1 337 0
 1601 0054 2046     		mov	r0, r4
 1602 0056 0821     		movs	r1, #8
 1603 0058 0022     		movs	r2, #0
 1604 005a FFF7FEFF 		bl	TIM_CCxNCmd
 1605              	.LVL123:
 1606              		.loc 1 339 0
 1607 005e 2046     		mov	r0, r4
 1608 0060 2021     		movs	r1, #32
 1609              		.loc 1 340 0
 1610 0062 BDE81040 		pop	{r4, lr}
 1611              		.cfi_restore 14
 1612              		.cfi_restore 4
 1613              		.cfi_def_cfa_offset 0
 1614              		.loc 1 339 0
 1615 0066 FFF7FEBF 		b	TIM_GenerateEvent
 1616              	.LVL124:
 1617              	.L54:
 1618 006a 00BF     		.align	2
 1619              	.L53:
 1620 006c 00000140 		.word	1073807360
 1621              		.cfi_endproc
 1622              	.LFE258:
 1623              		.size	stop_pwm_hw, .-stop_pwm_hw
 1624              		.section	.text.update_timer_Duty,"ax",%progbits
 1625              		.align	2
 1626              		.p2align 4,,15
 1627              		.global	update_timer_Duty
 1628              		.thumb
 1629              		.thumb_func
 1630              		.type	update_timer_Duty, %function
 1631              	update_timer_Duty:
 1632              	.LFB259:
 1633              		.loc 1 344 0
 1634              		.cfi_startproc
 1635              		@ args = 0, pretend = 0, frame = 0
 1636              		@ frame_needed = 0, uses_anonymous_args = 0
 1637              	.LVL125:
 1638 0000 2DE9F041 		push	{r4, r5, r6, r7, r8, lr}
 1639              		.cfi_def_cfa_offset 24
 1640              		.cfi_offset 4, -24
 1641              		.cfi_offset 5, -20
 1642              		.cfi_offset 6, -16
 1643              		.cfi_offset 7, -12
 1644              		.cfi_offset 8, -8
 1645              		.cfi_offset 14, -4
 1646              		.loc 1 344 0
 1647 0004 1646     		mov	r6, r2
 1648 0006 8046     		mov	r8, r0
 1649 0008 0F46     		mov	r7, r1
 1650              		.loc 1 345 0
 1651 000a FFF7FEFF 		bl	utils_sys_lock_cnt
 1652              	.LVL126:
 1653              		.loc 1 348 0
ARM GAS  C:\Users\IDONNO~1\AppData\Local\Temp\cc4D8Yvi.s 			page 30


 1654 000e 0D4B     		ldr	r3, .L57
 1655              		.loc 1 349 0
 1656 0010 0D4C     		ldr	r4, .L57+4
 1657              		.loc 1 348 0
 1658 0012 1D68     		ldr	r5, [r3]
 1659 0014 45F00205 		orr	r5, r5, #2
 1660 0018 1D60     		str	r5, [r3]
 1661              		.loc 1 349 0
 1662 001a 2568     		ldr	r5, [r4]
 1663 001c 45F00205 		orr	r5, r5, #2
 1664 0020 2560     		str	r5, [r4]
 1665              		.loc 1 351 0
 1666 0022 C3F83480 		str	r8, [r3, #52]
 1667              		.loc 1 352 0
 1668 0026 9F63     		str	r7, [r3, #56]
 1669              		.loc 1 353 0
 1670 0028 DE63     		str	r6, [r3, #60]
 1671              		.loc 1 356 0
 1672 002a 1A68     		ldr	r2, [r3]
 1673 002c 22F00202 		bic	r2, r2, #2
 1674 0030 1A60     		str	r2, [r3]
 1675              		.loc 1 357 0
 1676 0032 2368     		ldr	r3, [r4]
 1677 0034 23F00203 		bic	r3, r3, #2
 1678 0038 2360     		str	r3, [r4]
 1679              		.loc 1 360 0
 1680 003a BDE8F041 		pop	{r4, r5, r6, r7, r8, lr}
 1681              		.cfi_restore 14
 1682              		.cfi_restore 8
 1683              		.cfi_restore 7
 1684              		.cfi_restore 6
 1685              		.cfi_restore 5
 1686              		.cfi_restore 4
 1687              		.cfi_def_cfa_offset 0
 1688              	.LVL127:
 1689              		.loc 1 359 0
 1690 003e FFF7FEBF 		b	utils_sys_unlock_cnt
 1691              	.LVL128:
 1692              	.L58:
 1693 0042 00BF     		.align	2
 1694              	.L57:
 1695 0044 00000140 		.word	1073807360
 1696 0048 00040140 		.word	1073808384
 1697              		.cfi_endproc
 1698              	.LFE259:
 1699              		.size	update_timer_Duty, .-update_timer_Duty
 1700              		.global	MCCtrlCnt
 1701              		.section	.bss.control_mode,"aw",%nobits
 1702              		.set	.LANCHOR1,. + 0
 1703              		.type	control_mode, %object
 1704              		.size	control_mode, 1
 1705              	control_mode:
 1706 0000 00       		.space	1
 1707              		.section	.bss.timer_thread_wa,"aw",%nobits
 1708              		.align	3
 1709              		.set	.LANCHOR2,. + 0
 1710              		.type	timer_thread_wa, %object
ARM GAS  C:\Users\IDONNO~1\AppData\Local\Temp\cc4D8Yvi.s 			page 31


 1711              		.size	timer_thread_wa, 1432
 1712              	timer_thread_wa:
 1713 0000 00000000 		.space	1432
 1713      00000000 
 1713      00000000 
 1713      00000000 
 1713      00000000 
 1714              		.section	.bss.MCCtrlCnt,"aw",%nobits
 1715              		.align	2
 1716              		.set	.LANCHOR0,. + 0
 1717              		.type	MCCtrlCnt, %object
 1718              		.size	MCCtrlCnt, 4
 1719              	MCCtrlCnt:
 1720 0000 00000000 		.space	4
 1721              		.section	.rodata.str1.4,"aMS",%progbits,1
 1722              		.align	2
 1723              	.LC0:
 1724 0000 6D635F74 		.ascii	"mc_timer\000"
 1724      696D6572 
 1724      00
 1725 0009 000000   		.space	3
 1726              	.LC1:
 1727 000c 25640925 		.ascii	"%d\011%d\011\000"
 1727      640900
 1728 0013 00       		.space	1
 1729              	.LC2:
 1730 0014 2564090D 		.ascii	"%d\011\015\012\000"
 1730      0A00
 1731 001a 0000     		.space	2
 1732              	.LC3:
 1733 001c 746F206D 		.ascii	"to mc_interface -> mcpwm_init\015\012\000"
 1733      635F696E 
 1733      74657266 
 1733      61636520 
 1733      2D3E206D 
 1734              		.text
 1735              	.Letext0:
 1736              		.file 3 "c:\\program files (x86)\\gnu tools arm embedded\\5.4 2016q3\\lib\\gcc\\arm-none-eabi\\5.4
 1737              		.file 4 "c:\\program files (x86)\\gnu tools arm embedded\\5.4 2016q3\\arm-none-eabi\\include\\mach
 1738              		.file 5 "c:\\program files (x86)\\gnu tools arm embedded\\5.4 2016q3\\arm-none-eabi\\include\\sys\
 1739              		.file 6 "src/ChibiOS_3.0.2/os/rt/ports/ARMCMx/compilers/GCC/chtypes.h"
 1740              		.file 7 "src/ChibiOS_3.0.2/os/rt/include/chsystypes.h"
 1741              		.file 8 "src/ChibiOS_3.0.2/os/rt/include/chschd.h"
 1742              		.file 9 "src/ChibiOS_3.0.2/os/ext/CMSIS/ST/stm32f407xx.h"
 1743              		.file 10 "src/ChibiOS_3.0.2/os/ext/CMSIS/ST/stm32f4xx.h"
 1744              		.file 11 "src/ChibiOS_3.0.2/os/rt/ports/ARMCMx/chcore.h"
 1745              		.file 12 "src/ChibiOS_3.0.2/os/rt/ports/ARMCMx/chcore_v7m.h"
 1746              		.file 13 "src/ChibiOS_3.0.2/os/rt/include/chtm.h"
 1747              		.file 14 "src/ChibiOS_3.0.2/os/rt/include/chsem.h"
 1748              		.file 15 "src/ChibiOS_3.0.2/os/rt/include/chmtx.h"
 1749              		.file 16 "src/ChibiOS_3.0.2/os/rt/include/chevents.h"
 1750              		.file 17 "src/ChibiOS_3.0.2/os/rt/include/chqueues.h"
 1751              		.file 18 "src/ChibiOS_3.0.2/os/hal/ports/STM32/STM32F4xx/stm32_dma.h"
 1752              		.file 19 "src/ChibiOS_3.0.2/os/hal/ports/STM32/LLD/GPIOv2/pal_lld.h"
 1753              		.file 20 "src/ChibiOS_3.0.2/os/hal/include/serial.h"
 1754              		.file 21 "src/ChibiOS_3.0.2/ext/stdperiph_stm32f4/inc/stm32f4xx_dma.h"
 1755              		.file 22 "src/ChibiOS_3.0.2/ext/stdperiph_stm32f4/inc/stm32f4xx_adc.h"
ARM GAS  C:\Users\IDONNO~1\AppData\Local\Temp\cc4D8Yvi.s 			page 32


 1756              		.file 23 "src/ChibiOS_3.0.2/ext/stdperiph_stm32f4/inc/stm32f4xx_tim.h"
 1757              		.file 24 "src/mc/mc_typedef.h"
 1758              		.file 25 "src/mc/mc_encoder.h"
 1759              		.file 26 "<built-in>"
 1760              		.file 27 "src/ChibiOS_3.0.2/os/ext/CMSIS/include/core_cm4.h"
 1761              		.file 28 "src/ChibiOS_3.0.2/os/hal/ports/STM32/LLD/USARTv1/serial_lld.h"
 1762              		.file 29 "src/hw_oroca.h"
 1763              		.file 30 "src/mc/mc_control.h"
 1764              		.file 31 "src/mc/mc_sensor.h"
 1765              		.file 32 "src/ChibiOS_3.0.2/os/rt/include/chthreads.h"
 1766              		.file 33 "src/ChibiOS_3.0.2/ext/stdperiph_stm32f4/inc/stm32f4xx_wwdg.h"
 1767              		.file 34 "src/core/utils.h"
 1768              		.file 35 "src/ChibiOS_3.0.2/ext/stdperiph_stm32f4/inc/stm32f4xx_rcc.h"
 1769              		.file 36 "src/hw.h"
 1770              		.file 37 "src/ChibiOS_3.0.2/os/hal/ports/common/ARMCMx/nvic.h"