ARM GAS  C:\Users\USER\AppData\Local\Temp\ccPXeqPO.s 			page 1


   1              		.cpu cortex-m4
   2              		.eabi_attribute 27, 1
   3              		.eabi_attribute 28, 1
   4              		.eabi_attribute 20, 1
   5              		.eabi_attribute 21, 1
   6              		.eabi_attribute 23, 3
   7              		.eabi_attribute 24, 1
   8              		.eabi_attribute 25, 1
   9              		.eabi_attribute 26, 1
  10              		.eabi_attribute 30, 2
  11              		.eabi_attribute 34, 1
  12              		.eabi_attribute 18, 4
  13              		.file	"mc_sensor.c"
  14              		.text
  15              	.Ltext0:
  16              		.cfi_sections	.debug_frame
  17              		.section	.text.do_dc_cal,"ax",%progbits
  18              		.align	1
  19              		.p2align 4,,15
  20              		.global	do_dc_cal
  21              		.arch armv7e-m
  22              		.syntax unified
  23              		.thumb
  24              		.thumb_func
  25              		.fpu fpv4-sp-d16
  26              		.type	do_dc_cal, %function
  27              	do_dc_cal:
  28              	.LFB256:
  29              		.file 1 "src/mc/mc_sensor.c"
  30              		.loc 1 50 1 view -0
  31              		.cfi_startproc
  32              		@ args = 0, pretend = 0, frame = 0
  33              		@ frame_needed = 0, uses_anonymous_args = 0
  34              		.loc 1 51 2 view .LVU1
  35              	.LVL0:
  36              		.loc 1 52 2 view .LVU2
  37              		.loc 1 50 1 is_stmt 0 view .LVU3
  38 0000 38B5     		push	{r3, r4, r5, lr}
  39              		.cfi_def_cfa_offset 16
  40              		.cfi_offset 3, -16
  41              		.cfi_offset 4, -12
  42              		.cfi_offset 5, -8
  43              		.cfi_offset 14, -4
  44              		.loc 1 52 2 view .LVU4
  45 0002 184B     		ldr	r3, .L10
  46              		.loc 1 54 8 view .LVU5
  47 0004 184D     		ldr	r5, .L10+4
  48              		.loc 1 52 2 view .LVU6
  49 0006 4FF48052 		mov	r2, #4096
  50 000a 1A83     		strh	r2, [r3, #24]	@ movhi
  51              		.loc 1 54 2 is_stmt 1 view .LVU7
  52              		.loc 1 54 8 is_stmt 0 view .LVU8
  53 000c 2B69     		ldr	r3, [r5, #16]
  54              		.loc 1 54 7 view .LVU9
  55 000e DB04     		lsls	r3, r3, #19
  56 0010 58BF     		it	pl
  57 0012 0524     		movpl	r4, #5
ARM GAS  C:\Users\USER\AppData\Local\Temp\ccPXeqPO.s 			page 2


  58 0014 0DD4     		bmi	.L5
  59              	.LVL1:
  60              	.L2:
  61              		.loc 1 62 3 is_stmt 1 view .LVU10
  62 0016 42F21070 		movw	r0, #10000
  63 001a FFF7FEFF 		bl	chThdSleep
  64              	.LVL2:
  65              		.loc 1 56 3 view .LVU11
  66              		.loc 1 57 3 view .LVU12
  67              		.loc 1 54 8 is_stmt 0 view .LVU13
  68 001e 2B69     		ldr	r3, [r5, #16]
  69 0020 013C     		subs	r4, r4, #1
  70              	.LVL3:
  71              		.loc 1 54 7 view .LVU14
  72 0022 13F4805F 		tst	r3, #4096
  73 0026 A4B2     		uxth	r4, r4
  74 0028 03D1     		bne	.L5
  75              		.loc 1 57 5 view .LVU15
  76 002a 002C     		cmp	r4, #0
  77 002c F3D1     		bne	.L2
  78              		.loc 1 59 11 view .LVU16
  79 002e 2046     		mov	r0, r4
  80              		.loc 1 88 1 view .LVU17
  81 0030 38BD     		pop	{r3, r4, r5, pc}
  82              	.L5:
  83              		.loc 1 63 3 is_stmt 1 view .LVU18
  84              		.loc 1 65 2 view .LVU19
  85              		.loc 1 65 25 is_stmt 0 view .LVU20
  86 0032 0E4C     		ldr	r4, .L10+8
  87 0034 0023     		movs	r3, #0
  88              		.loc 1 69 2 view .LVU21
  89 0036 42F21070 		movw	r0, #10000
  90              		.loc 1 66 25 view .LVU22
  91 003a C4E90533 		strd	r3, r3, [r4, #20]
  92              		.loc 1 67 2 is_stmt 1 view .LVU23
  93              		.loc 1 67 34 is_stmt 0 view .LVU24
  94 003e A383     		strh	r3, [r4, #28]	@ movhi
  95              		.loc 1 69 2 is_stmt 1 view .LVU25
  96 0040 FFF7FEFF 		bl	chThdSleep
  97              	.LVL4:
  98              		.loc 1 71 2 view .LVU26
  99              		.loc 1 72 48 is_stmt 0 view .LVU27
 100 0044 D4E90523 		ldrd	r2, r3, [r4, #20]
 101              		.loc 1 74 2 view .LVU28
 102 0048 0648     		ldr	r0, .L10
 103              		.loc 1 71 62 view .LVU29
 104 004a A18B     		ldrh	r1, [r4, #28]
 105              		.loc 1 71 48 view .LVU30
 106 004c B2FBF1F2 		udiv	r2, r2, r1
 107              		.loc 1 74 2 view .LVU31
 108 0050 4FF48055 		mov	r5, #4096
 109              		.loc 1 71 23 view .LVU32
 110 0054 2282     		strh	r2, [r4, #16]	@ movhi
 111              		.loc 1 72 2 is_stmt 1 view .LVU33
 112              		.loc 1 72 48 is_stmt 0 view .LVU34
 113 0056 B3FBF1F3 		udiv	r3, r3, r1
 114              		.loc 1 74 2 view .LVU35
ARM GAS  C:\Users\USER\AppData\Local\Temp\ccPXeqPO.s 			page 3


 115 005a 4583     		strh	r5, [r0, #26]	@ movhi
 116              		.loc 1 72 23 view .LVU36
 117 005c 6382     		strh	r3, [r4, #18]	@ movhi
 118              		.loc 1 74 2 is_stmt 1 view .LVU37
 119              		.loc 1 87 2 view .LVU38
 120              		.loc 1 87 9 is_stmt 0 view .LVU39
 121 005e 0120     		movs	r0, #1
 122              		.loc 1 88 1 view .LVU40
 123 0060 38BD     		pop	{r3, r4, r5, pc}
 124              	.L11:
 125 0062 00BF     		.align	2
 126              	.L10:
 127 0064 00040240 		.word	1073873920
 128 0068 00080240 		.word	1073874944
 129 006c 00000000 		.word	.LANCHOR0
 130              		.cfi_endproc
 131              	.LFE256:
 132              		.size	do_dc_cal, .-do_dc_cal
 133              		.global	MeasSensorValue
 134              		.global	MeasCurrParm
 135              		.section	.bss.MeasCurrParm,"aw",%nobits
 136              		.align	2
 137              		.set	.LANCHOR0,. + 0
 138              		.type	MeasCurrParm, %object
 139              		.size	MeasCurrParm, 32
 140              	MeasCurrParm:
 141 0000 00000000 		.space	32
 141      00000000 
 141      00000000 
 141      00000000 
 141      00000000 
 142              		.section	.bss.MeasSensorValue,"aw",%nobits
 143              		.align	2
 144              		.type	MeasSensorValue, %object
 145              		.size	MeasSensorValue, 12
 146              	MeasSensorValue:
 147 0000 00000000 		.space	12
 147      00000000 
 147      00000000 
 148              		.text
 149              	.Letext0:
 150              		.file 2 "c:\\program files (x86)\\gnu tools arm embedded\\8 2018-q4-major\\lib\\gcc\\arm-none-eabi
 151              		.file 3 "c:\\program files (x86)\\gnu tools arm embedded\\8 2018-q4-major\\arm-none-eabi\\include\
 152              		.file 4 "c:\\program files (x86)\\gnu tools arm embedded\\8 2018-q4-major\\arm-none-eabi\\include\
 153              		.file 5 "src/ChibiOS_3.0.2/os/rt/ports/ARMCMx/compilers/GCC/chtypes.h"
 154              		.file 6 "src/ChibiOS_3.0.2/os/rt/include/chsystypes.h"
 155              		.file 7 "src/ChibiOS_3.0.2/os/rt/include/chschd.h"
 156              		.file 8 "src/ChibiOS_3.0.2/os/ext/CMSIS/include/core_cm4.h"
 157              		.file 9 "src/ChibiOS_3.0.2/os/ext/CMSIS/ST/system_stm32f4xx.h"
 158              		.file 10 "src/ChibiOS_3.0.2/os/ext/CMSIS/ST/stm32f407xx.h"
 159              		.file 11 "src/ChibiOS_3.0.2/os/rt/ports/ARMCMx/chcore.h"
 160              		.file 12 "src/ChibiOS_3.0.2/os/rt/ports/ARMCMx/chcore_v7m.h"
 161              		.file 13 "src/ChibiOS_3.0.2/os/rt/include/chtm.h"
 162              		.file 14 "src/ChibiOS_3.0.2/os/rt/include/chsem.h"
 163              		.file 15 "src/ChibiOS_3.0.2/os/rt/include/chmtx.h"
 164              		.file 16 "src/ChibiOS_3.0.2/os/rt/include/chregistry.h"
 165              		.file 17 "src/ChibiOS_3.0.2/os/rt/include/chevents.h"
ARM GAS  C:\Users\USER\AppData\Local\Temp\ccPXeqPO.s 			page 4


 166              		.file 18 "src/ChibiOS_3.0.2/os/rt/include/chqueues.h"
 167              		.file 19 "src/ChibiOS_3.0.2/os/hal/ports/STM32/STM32F4xx/stm32_dma.h"
 168              		.file 20 "src/ChibiOS_3.0.2/os/hal/ports/STM32/LLD/GPIOv2/pal_lld.h"
 169              		.file 21 "src/ChibiOS_3.0.2/os/hal/include/can.h"
 170              		.file 22 "src/ChibiOS_3.0.2/os/hal/ports/STM32/LLD/can_lld.h"
 171              		.file 23 "src/ChibiOS_3.0.2/os/hal/include/i2c.h"
 172              		.file 24 "src/ChibiOS_3.0.2/os/hal/ports/STM32/LLD/I2Cv1/i2c_lld.h"
 173              		.file 25 "src/ChibiOS_3.0.2/os/hal/include/icu.h"
 174              		.file 26 "src/ChibiOS_3.0.2/os/hal/ports/STM32/LLD/TIMv1/icu_lld.h"
 175              		.file 27 "src/ChibiOS_3.0.2/os/hal/ports/STM32/LLD/TIMv1/stm32_tim.h"
 176              		.file 28 "src/ChibiOS_3.0.2/os/hal/include/serial.h"
 177              		.file 29 "src/ChibiOS_3.0.2/os/hal/ports/STM32/LLD/USARTv1/serial_lld.h"
 178              		.file 30 "src/ChibiOS_3.0.2/os/hal/include/spi.h"
 179              		.file 31 "src/ChibiOS_3.0.2/os/hal/ports/STM32/LLD/SPIv1/spi_lld.h"
 180              		.file 32 "src/ChibiOS_3.0.2/os/hal/include/uart.h"
 181              		.file 33 "src/ChibiOS_3.0.2/os/hal/ports/STM32/LLD/USARTv1/uart_lld.h"
 182              		.file 34 "src/ChibiOS_3.0.2/os/hal/include/usb.h"
 183              		.file 35 "src/ChibiOS_3.0.2/os/hal/ports/STM32/LLD/OTGv1/usb_lld.h"
 184              		.file 36 "src/ChibiOS_3.0.2/os/hal/ports/STM32/LLD/OTGv1/stm32_otg.h"
 185              		.file 37 "src/mc/mc_typedef.h"
 186              		.file 38 "src/hw_oroca.h"
 187              		.file 39 "src/mc/mc_control.h"
 188              		.file 40 "src/mc/mc_sensor.h"
 189              		.file 41 "c:\\program files (x86)\\gnu tools arm embedded\\8 2018-q4-major\\arm-none-eabi\\include
 190              		.file 42 "c:\\program files (x86)\\gnu tools arm embedded\\8 2018-q4-major\\arm-none-eabi\\include
 191              		.file 43 "c:\\program files (x86)\\gnu tools arm embedded\\8 2018-q4-major\\arm-none-eabi\\include
 192              		.file 44 "c:\\program files (x86)\\gnu tools arm embedded\\8 2018-q4-major\\arm-none-eabi\\include
 193              		.file 45 "src/ChibiOS_3.0.2/os/rt/include/chthreads.h"