ARM GAS  C:\Users\USER\AppData\Local\Temp\ccc4z5cN.s 			page 1


   1              		.cpu cortex-m4
   2              		.eabi_attribute 27, 1
   3              		.eabi_attribute 28, 1
   4              		.eabi_attribute 20, 1
   5              		.eabi_attribute 21, 1
   6              		.eabi_attribute 23, 3
   7              		.eabi_attribute 24, 1
   8              		.eabi_attribute 25, 1
   9              		.eabi_attribute 26, 1
  10              		.eabi_attribute 30, 2
  11              		.eabi_attribute 34, 1
  12              		.eabi_attribute 18, 4
  13              		.file	"misc.c"
  14              		.text
  15              	.Ltext0:
  16              		.cfi_sections	.debug_frame
  17              		.section	.text.NVIC_PriorityGroupConfig,"ax",%progbits
  18              		.align	1
  19              		.p2align 4,,15
  20              		.global	NVIC_PriorityGroupConfig
  21              		.arch armv7e-m
  22              		.syntax unified
  23              		.thumb
  24              		.thumb_func
  25              		.fpu fpv4-sp-d16
  26              		.type	NVIC_PriorityGroupConfig, %function
  27              	NVIC_PriorityGroupConfig:
  28              	.LVL0:
  29              	.LFB112:
  30              		.file 1 "src/ChibiOS_3.0.2/ext/stdperiph_stm32f4/src/misc.c"
  31              		.loc 1 123 1 view -0
  32              		.cfi_startproc
  33              		@ args = 0, pretend = 0, frame = 0
  34              		@ frame_needed = 0, uses_anonymous_args = 0
  35              		@ link register save eliminated.
  36              		.loc 1 125 3 view .LVU1
  37              		.loc 1 128 3 view .LVU2
  38              		.loc 1 128 35 is_stmt 0 view .LVU3
  39 0000 40F0BF60 		orr	r0, r0, #100139008
  40              	.LVL1:
  41              		.loc 1 128 14 view .LVU4
  42 0004 024B     		ldr	r3, .L3
  43              		.loc 1 128 35 view .LVU5
  44 0006 40F40030 		orr	r0, r0, #131072
  45              		.loc 1 128 14 view .LVU6
  46 000a D860     		str	r0, [r3, #12]
  47              		.loc 1 129 1 view .LVU7
  48 000c 7047     		bx	lr
  49              	.L4:
  50 000e 00BF     		.align	2
  51              	.L3:
  52 0010 00ED00E0 		.word	-536810240
  53              		.cfi_endproc
  54              	.LFE112:
  55              		.size	NVIC_PriorityGroupConfig, .-NVIC_PriorityGroupConfig
  56              		.section	.text.NVIC_Init,"ax",%progbits
  57              		.align	1
ARM GAS  C:\Users\USER\AppData\Local\Temp\ccc4z5cN.s 			page 2


  58              		.p2align 4,,15
  59              		.global	NVIC_Init
  60              		.syntax unified
  61              		.thumb
  62              		.thumb_func
  63              		.fpu fpv4-sp-d16
  64              		.type	NVIC_Init, %function
  65              	NVIC_Init:
  66              	.LVL2:
  67              	.LFB113:
  68              		.loc 1 141 1 is_stmt 1 view -0
  69              		.cfi_startproc
  70              		@ args = 0, pretend = 0, frame = 0
  71              		@ frame_needed = 0, uses_anonymous_args = 0
  72              		@ link register save eliminated.
  73              		.loc 1 142 3 view .LVU9
  74              		.loc 1 145 3 view .LVU10
  75              		.loc 1 146 3 view .LVU11
  76              		.loc 1 147 3 view .LVU12
  77              		.loc 1 149 3 view .LVU13
  78              		.loc 1 141 1 is_stmt 0 view .LVU14
  79 0000 F0B4     		push	{r4, r5, r6, r7}
  80              		.cfi_def_cfa_offset 16
  81              		.cfi_offset 4, -16
  82              		.cfi_offset 5, -12
  83              		.cfi_offset 6, -8
  84              		.cfi_offset 7, -4
  85 0002 0178     		ldrb	r1, [r0]	@ zero_extendqisi2
  86              		.loc 1 149 6 view .LVU15
  87 0004 C378     		ldrb	r3, [r0, #3]	@ zero_extendqisi2
  88 0006 0124     		movs	r4, #1
  89 0008 01F01F02 		and	r2, r1, #31
  90 000c 9440     		lsls	r4, r4, r2
  91 000e 4E09     		lsrs	r6, r1, #5
  92 0010 DBB1     		cbz	r3, .L6
  93              		.loc 1 152 5 is_stmt 1 view .LVU16
  94              		.loc 1 152 33 is_stmt 0 view .LVU17
  95 0012 114A     		ldr	r2, .L9
  96              		.loc 1 156 34 view .LVU18
  97 0014 4378     		ldrb	r3, [r0, #1]	@ zero_extendqisi2
  98              		.loc 1 152 33 view .LVU19
  99 0016 D568     		ldr	r5, [r2, #12]
 100              		.loc 1 157 21 view .LVU20
 101 0018 8278     		ldrb	r2, [r0, #2]	@ zero_extendqisi2
 102              		.loc 1 161 48 view .LVU21
 103 001a 104F     		ldr	r7, .L9+4
 104              		.loc 1 152 26 view .LVU22
 105 001c E843     		mvns	r0, r5
 106              	.LVL3:
 107              		.loc 1 152 17 view .LVU23
 108 001e C0F30220 		ubfx	r0, r0, #8, #3
 109              	.LVL4:
 110              		.loc 1 153 5 is_stmt 1 view .LVU24
 111              		.loc 1 154 5 view .LVU25
 112              		.loc 1 156 5 view .LVU26
 113              		.loc 1 153 12 is_stmt 0 view .LVU27
 114 0022 C0F10405 		rsb	r5, r0, #4
ARM GAS  C:\Users\USER\AppData\Local\Temp\ccc4z5cN.s 			page 3


 115              		.loc 1 156 70 view .LVU28
 116 0026 EDB2     		uxtb	r5, r5
 117 0028 AB40     		lsls	r3, r3, r5
 118              		.loc 1 154 21 view .LVU29
 119 002a 0F25     		movs	r5, #15
 120 002c 45FA00F0 		asr	r0, r5, r0
 121              	.LVL5:
 122              		.loc 1 156 17 view .LVU30
 123 0030 DDB2     		uxtb	r5, r3
 124              	.LVL6:
 125              		.loc 1 157 5 is_stmt 1 view .LVU31
 126              		.loc 1 157 21 is_stmt 0 view .LVU32
 127 0032 02EA0003 		and	r3, r2, r0
 128              		.loc 1 157 17 view .LVU33
 129 0036 2B43     		orrs	r3, r3, r5
 130              	.LVL7:
 131              		.loc 1 159 5 is_stmt 1 view .LVU34
 132              		.loc 1 161 48 is_stmt 0 view .LVU35
 133 0038 3944     		add	r1, r1, r7
 134              		.loc 1 159 17 view .LVU36
 135 003a 1B01     		lsls	r3, r3, #4
 136              	.LVL8:
 137              		.loc 1 159 17 view .LVU37
 138 003c DBB2     		uxtb	r3, r3
 139              	.LVL9:
 140              		.loc 1 161 5 is_stmt 1 view .LVU38
 141              		.loc 1 161 48 is_stmt 0 view .LVU39
 142 003e 81F80033 		strb	r3, [r1, #768]
 143              		.loc 1 164 5 is_stmt 1 view .LVU40
 144              		.loc 1 164 58 is_stmt 0 view .LVU41
 145 0042 47F82640 		str	r4, [r7, r6, lsl #2]
 146              		.loc 1 173 1 view .LVU42
 147 0046 F0BC     		pop	{r4, r5, r6, r7}
 148              		.cfi_remember_state
 149              		.cfi_restore 7
 150              		.cfi_restore 6
 151              		.cfi_restore 5
 152              		.cfi_restore 4
 153              		.cfi_def_cfa_offset 0
 154 0048 7047     		bx	lr
 155              	.LVL10:
 156              	.L6:
 157              		.cfi_restore_state
 158              		.loc 1 170 5 is_stmt 1 view .LVU43
 159              		.loc 1 170 58 is_stmt 0 view .LVU44
 160 004a 2036     		adds	r6, r6, #32
 161 004c 034B     		ldr	r3, .L9+4
 162 004e 43F82640 		str	r4, [r3, r6, lsl #2]
 163              		.loc 1 173 1 view .LVU45
 164 0052 F0BC     		pop	{r4, r5, r6, r7}
 165              		.cfi_restore 7
 166              		.cfi_restore 6
 167              		.cfi_restore 5
 168              		.cfi_restore 4
 169              		.cfi_def_cfa_offset 0
 170 0054 7047     		bx	lr
 171              	.L10:
ARM GAS  C:\Users\USER\AppData\Local\Temp\ccc4z5cN.s 			page 4


 172 0056 00BF     		.align	2
 173              	.L9:
 174 0058 00ED00E0 		.word	-536810240
 175 005c 00E100E0 		.word	-536813312
 176              		.cfi_endproc
 177              	.LFE113:
 178              		.size	NVIC_Init, .-NVIC_Init
 179              		.section	.text.NVIC_SetVectorTable,"ax",%progbits
 180              		.align	1
 181              		.p2align 4,,15
 182              		.global	NVIC_SetVectorTable
 183              		.syntax unified
 184              		.thumb
 185              		.thumb_func
 186              		.fpu fpv4-sp-d16
 187              		.type	NVIC_SetVectorTable, %function
 188              	NVIC_SetVectorTable:
 189              	.LVL11:
 190              	.LFB114:
 191              		.loc 1 185 1 is_stmt 1 view -0
 192              		.cfi_startproc
 193              		@ args = 0, pretend = 0, frame = 0
 194              		@ frame_needed = 0, uses_anonymous_args = 0
 195              		@ link register save eliminated.
 196              		.loc 1 187 3 view .LVU47
 197              		.loc 1 188 3 view .LVU48
 198              		.loc 1 190 3 view .LVU49
 199              		.loc 1 190 38 is_stmt 0 view .LVU50
 200 0000 21F06041 		bic	r1, r1, #-536870912
 201              	.LVL12:
 202              		.loc 1 190 38 view .LVU51
 203 0004 21F07F01 		bic	r1, r1, #127
 204              		.loc 1 190 13 view .LVU52
 205 0008 014B     		ldr	r3, .L12
 206              		.loc 1 190 28 view .LVU53
 207 000a 0143     		orrs	r1, r1, r0
 208              		.loc 1 190 13 view .LVU54
 209 000c 9960     		str	r1, [r3, #8]
 210              		.loc 1 191 1 view .LVU55
 211 000e 7047     		bx	lr
 212              	.L13:
 213              		.align	2
 214              	.L12:
 215 0010 00ED00E0 		.word	-536810240
 216              		.cfi_endproc
 217              	.LFE114:
 218              		.size	NVIC_SetVectorTable, .-NVIC_SetVectorTable
 219              		.section	.text.NVIC_SystemLPConfig,"ax",%progbits
 220              		.align	1
 221              		.p2align 4,,15
 222              		.global	NVIC_SystemLPConfig
 223              		.syntax unified
 224              		.thumb
 225              		.thumb_func
 226              		.fpu fpv4-sp-d16
 227              		.type	NVIC_SystemLPConfig, %function
 228              	NVIC_SystemLPConfig:
ARM GAS  C:\Users\USER\AppData\Local\Temp\ccc4z5cN.s 			page 5


 229              	.LVL13:
 230              	.LFB115:
 231              		.loc 1 204 1 is_stmt 1 view -0
 232              		.cfi_startproc
 233              		@ args = 0, pretend = 0, frame = 0
 234              		@ frame_needed = 0, uses_anonymous_args = 0
 235              		@ link register save eliminated.
 236              		.loc 1 206 3 view .LVU57
 237              		.loc 1 207 3 view .LVU58
 238              		.loc 1 209 3 view .LVU59
 239              		.loc 1 211 14 is_stmt 0 view .LVU60
 240 0000 044A     		ldr	r2, .L17
 241 0002 1369     		ldr	r3, [r2, #16]
 242              		.loc 1 209 6 view .LVU61
 243 0004 11B1     		cbz	r1, .L15
 244              		.loc 1 211 5 is_stmt 1 view .LVU62
 245              		.loc 1 211 14 is_stmt 0 view .LVU63
 246 0006 0343     		orrs	r3, r3, r0
 247 0008 1361     		str	r3, [r2, #16]
 248 000a 7047     		bx	lr
 249              	.L15:
 250              		.loc 1 215 5 is_stmt 1 view .LVU64
 251              		.loc 1 215 14 is_stmt 0 view .LVU65
 252 000c 23EA0003 		bic	r3, r3, r0
 253 0010 1361     		str	r3, [r2, #16]
 254              		.loc 1 217 1 view .LVU66
 255 0012 7047     		bx	lr
 256              	.L18:
 257              		.align	2
 258              	.L17:
 259 0014 00ED00E0 		.word	-536810240
 260              		.cfi_endproc
 261              	.LFE115:
 262              		.size	NVIC_SystemLPConfig, .-NVIC_SystemLPConfig
 263              		.section	.text.SysTick_CLKSourceConfig,"ax",%progbits
 264              		.align	1
 265              		.p2align 4,,15
 266              		.global	SysTick_CLKSourceConfig
 267              		.syntax unified
 268              		.thumb
 269              		.thumb_func
 270              		.fpu fpv4-sp-d16
 271              		.type	SysTick_CLKSourceConfig, %function
 272              	SysTick_CLKSourceConfig:
 273              	.LVL14:
 274              	.LFB116:
 275              		.loc 1 228 1 is_stmt 1 view -0
 276              		.cfi_startproc
 277              		@ args = 0, pretend = 0, frame = 0
 278              		@ frame_needed = 0, uses_anonymous_args = 0
 279              		@ link register save eliminated.
 280              		.loc 1 230 3 view .LVU68
 281              		.loc 1 231 3 view .LVU69
 282              		.loc 1 233 19 is_stmt 0 view .LVU70
 283 0000 044A     		ldr	r2, .L22
 284 0002 1368     		ldr	r3, [r2]
 285              		.loc 1 231 6 view .LVU71
ARM GAS  C:\Users\USER\AppData\Local\Temp\ccc4z5cN.s 			page 6


 286 0004 0428     		cmp	r0, #4
 287              		.loc 1 233 5 is_stmt 1 view .LVU72
 288              		.loc 1 233 19 is_stmt 0 view .LVU73
 289 0006 0CBF     		ite	eq
 290 0008 43F00403 		orreq	r3, r3, #4
 291              		.loc 1 237 5 is_stmt 1 view .LVU74
 292              		.loc 1 237 19 is_stmt 0 view .LVU75
 293 000c 23F00403 		bicne	r3, r3, #4
 294 0010 1360     		str	r3, [r2]
 295              		.loc 1 239 1 view .LVU76
 296 0012 7047     		bx	lr
 297              	.L23:
 298              		.align	2
 299              	.L22:
 300 0014 10E000E0 		.word	-536813552
 301              		.cfi_endproc
 302              	.LFE116:
 303              		.size	SysTick_CLKSourceConfig, .-SysTick_CLKSourceConfig
 304              		.text
 305              	.Letext0:
 306              		.file 2 "c:\\program files (x86)\\gnu tools arm embedded\\8 2018-q4-major\\arm-none-eabi\\include\
 307              		.file 3 "c:\\program files (x86)\\gnu tools arm embedded\\8 2018-q4-major\\arm-none-eabi\\include\
 308              		.file 4 "src/ChibiOS_3.0.2/os/ext/CMSIS/include/core_cm4.h"
 309              		.file 5 "src/ChibiOS_3.0.2/os/ext/CMSIS/ST/system_stm32f4xx.h"
 310              		.file 6 "src/ChibiOS_3.0.2/os/ext/CMSIS/ST/stm32f4xx.h"
 311              		.file 7 "src/ChibiOS_3.0.2/ext/stdperiph_stm32f4/inc/misc.h"
 312              		.section	.debug_info,"",%progbits
 313              	.Ldebug_info0:
 314 0000 A6050000 		.4byte	0x5a6
 315 0004 0400     		.2byte	0x4
 316 0006 00000000 		.4byte	.Ldebug_abbrev0
 317 000a 04       		.byte	0x4
 318 000b 01       		.uleb128 0x1
 319 000c 3E030000 		.4byte	.LASF71
 320 0010 0C       		.byte	0xc
 321 0011 1D020000 		.4byte	.LASF72
 322 0015 98010000 		.4byte	.LASF73
 323 0019 00000000 		.4byte	.Ldebug_ranges0+0
 324 001d 00000000 		.4byte	0
 325 0021 00000000 		.4byte	.Ldebug_line0
 326 0025 02       		.uleb128 0x2
 327 0026 01       		.byte	0x1
 328 0027 06       		.byte	0x6
 329 0028 53010000 		.4byte	.LASF0
 330 002c 03       		.uleb128 0x3
 331 002d 13010000 		.4byte	.LASF4
 332 0031 02       		.byte	0x2
 333 0032 2B       		.byte	0x2b
 334 0033 18       		.byte	0x18
 335 0034 38000000 		.4byte	0x38
 336 0038 02       		.uleb128 0x2
 337 0039 01       		.byte	0x1
 338 003a 08       		.byte	0x8
 339 003b 22010000 		.4byte	.LASF1
 340 003f 02       		.uleb128 0x2
 341 0040 02       		.byte	0x2
 342 0041 05       		.byte	0x5
ARM GAS  C:\Users\USER\AppData\Local\Temp\ccc4z5cN.s 			page 7


 343 0042 63000000 		.4byte	.LASF2
 344 0046 02       		.uleb128 0x2
 345 0047 02       		.byte	0x2
 346 0048 07       		.byte	0x7
 347 0049 FE010000 		.4byte	.LASF3
 348 004d 03       		.uleb128 0x3
 349 004e 22030000 		.4byte	.LASF5
 350 0052 02       		.byte	0x2
 351 0053 4D       		.byte	0x4d
 352 0054 18       		.byte	0x18
 353 0055 59000000 		.4byte	0x59
 354 0059 02       		.uleb128 0x2
 355 005a 04       		.byte	0x4
 356 005b 05       		.byte	0x5
 357 005c 0A010000 		.4byte	.LASF6
 358 0060 03       		.uleb128 0x3
 359 0061 92000000 		.4byte	.LASF7
 360 0065 02       		.byte	0x2
 361 0066 4F       		.byte	0x4f
 362 0067 19       		.byte	0x19
 363 0068 6C000000 		.4byte	0x6c
 364 006c 02       		.uleb128 0x2
 365 006d 04       		.byte	0x4
 366 006e 07       		.byte	0x7
 367 006f DE020000 		.4byte	.LASF8
 368 0073 02       		.uleb128 0x2
 369 0074 08       		.byte	0x8
 370 0075 05       		.byte	0x5
 371 0076 EC000000 		.4byte	.LASF9
 372 007a 02       		.uleb128 0x2
 373 007b 08       		.byte	0x8
 374 007c 07       		.byte	0x7
 375 007d 5F010000 		.4byte	.LASF10
 376 0081 04       		.uleb128 0x4
 377 0082 04       		.byte	0x4
 378 0083 05       		.byte	0x5
 379 0084 696E7400 		.ascii	"int\000"
 380 0088 02       		.uleb128 0x2
 381 0089 04       		.byte	0x4
 382 008a 07       		.byte	0x7
 383 008b 7F010000 		.4byte	.LASF11
 384 008f 03       		.uleb128 0x3
 385 0090 AD000000 		.4byte	.LASF12
 386 0094 03       		.byte	0x3
 387 0095 18       		.byte	0x18
 388 0096 13       		.byte	0x13
 389 0097 2C000000 		.4byte	0x2c
 390 009b 05       		.uleb128 0x5
 391 009c 8F000000 		.4byte	0x8f
 392 00a0 03       		.uleb128 0x3
 393 00a1 50020000 		.4byte	.LASF13
 394 00a5 03       		.byte	0x3
 395 00a6 2C       		.byte	0x2c
 396 00a7 13       		.byte	0x13
 397 00a8 4D000000 		.4byte	0x4d
 398 00ac 05       		.uleb128 0x5
 399 00ad A0000000 		.4byte	0xa0
ARM GAS  C:\Users\USER\AppData\Local\Temp\ccc4z5cN.s 			page 8


 400 00b1 03       		.uleb128 0x3
 401 00b2 76010000 		.4byte	.LASF14
 402 00b6 03       		.byte	0x3
 403 00b7 30       		.byte	0x30
 404 00b8 14       		.byte	0x14
 405 00b9 60000000 		.4byte	0x60
 406 00bd 05       		.uleb128 0x5
 407 00be B1000000 		.4byte	0xb1
 408 00c2 06       		.uleb128 0x6
 409 00c3 BD000000 		.4byte	0xbd
 410 00c7 07       		.uleb128 0x7
 411 00c8 040E     		.2byte	0xe04
 412 00ca 04       		.byte	0x4
 413 00cb 5001     		.2byte	0x150
 414 00cd 09       		.byte	0x9
 415 00ce 91010000 		.4byte	0x191
 416 00d2 08       		.uleb128 0x8
 417 00d3 B1020000 		.4byte	.LASF15
 418 00d7 04       		.byte	0x4
 419 00d8 5201     		.2byte	0x152
 420 00da 11       		.byte	0x11
 421 00db A1010000 		.4byte	0x1a1
 422 00df 00       		.byte	0
 423 00e0 08       		.uleb128 0x8
 424 00e1 A3000000 		.4byte	.LASF16
 425 00e5 04       		.byte	0x4
 426 00e6 5301     		.2byte	0x153
 427 00e8 11       		.byte	0x11
 428 00e9 A6010000 		.4byte	0x1a6
 429 00ed 20       		.byte	0x20
 430 00ee 08       		.uleb128 0x8
 431 00ef A7020000 		.4byte	.LASF17
 432 00f3 04       		.byte	0x4
 433 00f4 5401     		.2byte	0x154
 434 00f6 11       		.byte	0x11
 435 00f7 A1010000 		.4byte	0x1a1
 436 00fb 80       		.byte	0x80
 437 00fc 08       		.uleb128 0x8
 438 00fd E3000000 		.4byte	.LASF18
 439 0101 04       		.byte	0x4
 440 0102 5501     		.2byte	0x155
 441 0104 11       		.byte	0x11
 442 0105 A6010000 		.4byte	0x1a6
 443 0109 A0       		.byte	0xa0
 444 010a 09       		.uleb128 0x9
 445 010b 5D020000 		.4byte	.LASF19
 446 010f 04       		.byte	0x4
 447 0110 5601     		.2byte	0x156
 448 0112 11       		.byte	0x11
 449 0113 A1010000 		.4byte	0x1a1
 450 0117 0001     		.2byte	0x100
 451 0119 09       		.uleb128 0x9
 452 011a B6020000 		.4byte	.LASF20
 453 011e 04       		.byte	0x4
 454 011f 5701     		.2byte	0x157
 455 0121 11       		.byte	0x11
 456 0122 A6010000 		.4byte	0x1a6
ARM GAS  C:\Users\USER\AppData\Local\Temp\ccc4z5cN.s 			page 9


 457 0126 2001     		.2byte	0x120
 458 0128 09       		.uleb128 0x9
 459 0129 4E010000 		.4byte	.LASF21
 460 012d 04       		.byte	0x4
 461 012e 5801     		.2byte	0x158
 462 0130 11       		.byte	0x11
 463 0131 A1010000 		.4byte	0x1a1
 464 0135 8001     		.2byte	0x180
 465 0137 09       		.uleb128 0x9
 466 0138 C0020000 		.4byte	.LASF22
 467 013c 04       		.byte	0x4
 468 013d 5901     		.2byte	0x159
 469 013f 11       		.byte	0x11
 470 0140 A6010000 		.4byte	0x1a6
 471 0144 A001     		.2byte	0x1a0
 472 0146 09       		.uleb128 0x9
 473 0147 00000000 		.4byte	.LASF23
 474 014b 04       		.byte	0x4
 475 014c 5A01     		.2byte	0x15a
 476 014e 11       		.byte	0x11
 477 014f A1010000 		.4byte	0x1a1
 478 0153 0002     		.2byte	0x200
 479 0155 09       		.uleb128 0x9
 480 0156 CA020000 		.4byte	.LASF24
 481 015a 04       		.byte	0x4
 482 015b 5B01     		.2byte	0x15b
 483 015d 11       		.byte	0x11
 484 015e B6010000 		.4byte	0x1b6
 485 0162 2002     		.2byte	0x220
 486 0164 0A       		.uleb128 0xa
 487 0165 495000   		.ascii	"IP\000"
 488 0168 04       		.byte	0x4
 489 0169 5C01     		.2byte	0x15c
 490 016b 11       		.byte	0x11
 491 016c D6010000 		.4byte	0x1d6
 492 0170 0003     		.2byte	0x300
 493 0172 09       		.uleb128 0x9
 494 0173 D4020000 		.4byte	.LASF25
 495 0177 04       		.byte	0x4
 496 0178 5D01     		.2byte	0x15d
 497 017a 11       		.byte	0x11
 498 017b DB010000 		.4byte	0x1db
 499 017f F003     		.2byte	0x3f0
 500 0181 09       		.uleb128 0x9
 501 0182 D1000000 		.4byte	.LASF26
 502 0186 04       		.byte	0x4
 503 0187 5E01     		.2byte	0x15e
 504 0189 11       		.byte	0x11
 505 018a BD000000 		.4byte	0xbd
 506 018e 000E     		.2byte	0xe00
 507 0190 00       		.byte	0
 508 0191 0B       		.uleb128 0xb
 509 0192 BD000000 		.4byte	0xbd
 510 0196 A1010000 		.4byte	0x1a1
 511 019a 0C       		.uleb128 0xc
 512 019b 88000000 		.4byte	0x88
 513 019f 07       		.byte	0x7
ARM GAS  C:\Users\USER\AppData\Local\Temp\ccc4z5cN.s 			page 10


 514 01a0 00       		.byte	0
 515 01a1 05       		.uleb128 0x5
 516 01a2 91010000 		.4byte	0x191
 517 01a6 0B       		.uleb128 0xb
 518 01a7 B1000000 		.4byte	0xb1
 519 01ab B6010000 		.4byte	0x1b6
 520 01af 0C       		.uleb128 0xc
 521 01b0 88000000 		.4byte	0x88
 522 01b4 17       		.byte	0x17
 523 01b5 00       		.byte	0
 524 01b6 0B       		.uleb128 0xb
 525 01b7 B1000000 		.4byte	0xb1
 526 01bb C6010000 		.4byte	0x1c6
 527 01bf 0C       		.uleb128 0xc
 528 01c0 88000000 		.4byte	0x88
 529 01c4 37       		.byte	0x37
 530 01c5 00       		.byte	0
 531 01c6 0B       		.uleb128 0xb
 532 01c7 9B000000 		.4byte	0x9b
 533 01cb D6010000 		.4byte	0x1d6
 534 01cf 0C       		.uleb128 0xc
 535 01d0 88000000 		.4byte	0x88
 536 01d4 EF       		.byte	0xef
 537 01d5 00       		.byte	0
 538 01d6 05       		.uleb128 0x5
 539 01d7 C6010000 		.4byte	0x1c6
 540 01db 0B       		.uleb128 0xb
 541 01dc B1000000 		.4byte	0xb1
 542 01e0 EC010000 		.4byte	0x1ec
 543 01e4 0D       		.uleb128 0xd
 544 01e5 88000000 		.4byte	0x88
 545 01e9 8302     		.2byte	0x283
 546 01eb 00       		.byte	0
 547 01ec 0E       		.uleb128 0xe
 548 01ed 44010000 		.4byte	.LASF27
 549 01f1 04       		.byte	0x4
 550 01f2 5F01     		.2byte	0x15f
 551 01f4 04       		.byte	0x4
 552 01f5 C7000000 		.4byte	0xc7
 553 01f9 0F       		.uleb128 0xf
 554 01fa 8C       		.byte	0x8c
 555 01fb 04       		.byte	0x4
 556 01fc 7001     		.2byte	0x170
 557 01fe 09       		.byte	0x9
 558 01ff 2A030000 		.4byte	0x32a
 559 0203 08       		.uleb128 0x8
 560 0204 9D000000 		.4byte	.LASF28
 561 0208 04       		.byte	0x4
 562 0209 7201     		.2byte	0x172
 563 020b 11       		.byte	0x11
 564 020c C2000000 		.4byte	0xc2
 565 0210 00       		.byte	0
 566 0211 08       		.uleb128 0x8
 567 0212 DE000000 		.4byte	.LASF29
 568 0216 04       		.byte	0x4
 569 0217 7301     		.2byte	0x173
 570 0219 11       		.byte	0x11
ARM GAS  C:\Users\USER\AppData\Local\Temp\ccc4z5cN.s 			page 11


 571 021a BD000000 		.4byte	0xbd
 572 021e 04       		.byte	0x4
 573 021f 08       		.uleb128 0x8
 574 0220 00010000 		.4byte	.LASF30
 575 0224 04       		.byte	0x4
 576 0225 7401     		.2byte	0x174
 577 0227 11       		.byte	0x11
 578 0228 BD000000 		.4byte	0xbd
 579 022c 08       		.byte	0x8
 580 022d 08       		.uleb128 0x8
 581 022e 30010000 		.4byte	.LASF31
 582 0232 04       		.byte	0x4
 583 0233 7501     		.2byte	0x175
 584 0235 11       		.byte	0x11
 585 0236 BD000000 		.4byte	0xbd
 586 023a 0C       		.byte	0xc
 587 023b 10       		.uleb128 0x10
 588 023c 53435200 		.ascii	"SCR\000"
 589 0240 04       		.byte	0x4
 590 0241 7601     		.2byte	0x176
 591 0243 11       		.byte	0x11
 592 0244 BD000000 		.4byte	0xbd
 593 0248 10       		.byte	0x10
 594 0249 10       		.uleb128 0x10
 595 024a 43435200 		.ascii	"CCR\000"
 596 024e 04       		.byte	0x4
 597 024f 7701     		.2byte	0x177
 598 0251 11       		.byte	0x11
 599 0252 BD000000 		.4byte	0xbd
 600 0256 14       		.byte	0x14
 601 0257 10       		.uleb128 0x10
 602 0258 53485000 		.ascii	"SHP\000"
 603 025c 04       		.byte	0x4
 604 025d 7801     		.2byte	0x178
 605 025f 11       		.byte	0x11
 606 0260 3A030000 		.4byte	0x33a
 607 0264 18       		.byte	0x18
 608 0265 08       		.uleb128 0x8
 609 0266 8C010000 		.4byte	.LASF32
 610 026a 04       		.byte	0x4
 611 026b 7901     		.2byte	0x179
 612 026d 11       		.byte	0x11
 613 026e BD000000 		.4byte	0xbd
 614 0272 24       		.byte	0x24
 615 0273 08       		.uleb128 0x8
 616 0274 1D010000 		.4byte	.LASF33
 617 0278 04       		.byte	0x4
 618 0279 7A01     		.2byte	0x17a
 619 027b 11       		.byte	0x11
 620 027c BD000000 		.4byte	0xbd
 621 0280 28       		.byte	0x28
 622 0281 08       		.uleb128 0x8
 623 0282 A2020000 		.4byte	.LASF34
 624 0286 04       		.byte	0x4
 625 0287 7B01     		.2byte	0x17b
 626 0289 11       		.byte	0x11
 627 028a BD000000 		.4byte	0xbd
ARM GAS  C:\Users\USER\AppData\Local\Temp\ccc4z5cN.s 			page 12


 628 028e 2C       		.byte	0x2c
 629 028f 08       		.uleb128 0x8
 630 0290 62020000 		.4byte	.LASF35
 631 0294 04       		.byte	0x4
 632 0295 7C01     		.2byte	0x17c
 633 0297 11       		.byte	0x11
 634 0298 BD000000 		.4byte	0xbd
 635 029c 30       		.byte	0x30
 636 029d 08       		.uleb128 0x8
 637 029e 92010000 		.4byte	.LASF36
 638 02a2 04       		.byte	0x4
 639 02a3 7D01     		.2byte	0x17d
 640 02a5 11       		.byte	0x11
 641 02a6 BD000000 		.4byte	0xbd
 642 02aa 34       		.byte	0x34
 643 02ab 08       		.uleb128 0x8
 644 02ac 05010000 		.4byte	.LASF37
 645 02b0 04       		.byte	0x4
 646 02b1 7E01     		.2byte	0x17e
 647 02b3 11       		.byte	0x11
 648 02b4 BD000000 		.4byte	0xbd
 649 02b8 38       		.byte	0x38
 650 02b9 08       		.uleb128 0x8
 651 02ba 6C040000 		.4byte	.LASF38
 652 02be 04       		.byte	0x4
 653 02bf 7F01     		.2byte	0x17f
 654 02c1 11       		.byte	0x11
 655 02c2 BD000000 		.4byte	0xbd
 656 02c6 3C       		.byte	0x3c
 657 02c7 10       		.uleb128 0x10
 658 02c8 50465200 		.ascii	"PFR\000"
 659 02cc 04       		.byte	0x4
 660 02cd 8001     		.2byte	0x180
 661 02cf 11       		.byte	0x11
 662 02d0 54030000 		.4byte	0x354
 663 02d4 40       		.byte	0x40
 664 02d5 10       		.uleb128 0x10
 665 02d6 44465200 		.ascii	"DFR\000"
 666 02da 04       		.byte	0x4
 667 02db 8101     		.2byte	0x181
 668 02dd 11       		.byte	0x11
 669 02de C2000000 		.4byte	0xc2
 670 02e2 48       		.byte	0x48
 671 02e3 10       		.uleb128 0x10
 672 02e4 41445200 		.ascii	"ADR\000"
 673 02e8 04       		.byte	0x4
 674 02e9 8201     		.2byte	0x182
 675 02eb 11       		.byte	0x11
 676 02ec C2000000 		.4byte	0xc2
 677 02f0 4C       		.byte	0x4c
 678 02f1 08       		.uleb128 0x8
 679 02f2 AC020000 		.4byte	.LASF39
 680 02f6 04       		.byte	0x4
 681 02f7 8301     		.2byte	0x183
 682 02f9 11       		.byte	0x11
 683 02fa 6E030000 		.4byte	0x36e
 684 02fe 50       		.byte	0x50
ARM GAS  C:\Users\USER\AppData\Local\Temp\ccc4z5cN.s 			page 13


 685 02ff 08       		.uleb128 0x8
 686 0300 58020000 		.4byte	.LASF40
 687 0304 04       		.byte	0x4
 688 0305 8401     		.2byte	0x184
 689 0307 11       		.byte	0x11
 690 0308 88030000 		.4byte	0x388
 691 030c 60       		.byte	0x60
 692 030d 08       		.uleb128 0x8
 693 030e A3000000 		.4byte	.LASF16
 694 0312 04       		.byte	0x4
 695 0313 8501     		.2byte	0x185
 696 0315 11       		.byte	0x11
 697 0316 8D030000 		.4byte	0x38d
 698 031a 74       		.byte	0x74
 699 031b 08       		.uleb128 0x8
 700 031c 8B040000 		.4byte	.LASF41
 701 0320 04       		.byte	0x4
 702 0321 8601     		.2byte	0x186
 703 0323 11       		.byte	0x11
 704 0324 BD000000 		.4byte	0xbd
 705 0328 88       		.byte	0x88
 706 0329 00       		.byte	0
 707 032a 0B       		.uleb128 0xb
 708 032b 9B000000 		.4byte	0x9b
 709 032f 3A030000 		.4byte	0x33a
 710 0333 0C       		.uleb128 0xc
 711 0334 88000000 		.4byte	0x88
 712 0338 0B       		.byte	0xb
 713 0339 00       		.byte	0
 714 033a 05       		.uleb128 0x5
 715 033b 2A030000 		.4byte	0x32a
 716 033f 0B       		.uleb128 0xb
 717 0340 C2000000 		.4byte	0xc2
 718 0344 4F030000 		.4byte	0x34f
 719 0348 0C       		.uleb128 0xc
 720 0349 88000000 		.4byte	0x88
 721 034d 01       		.byte	0x1
 722 034e 00       		.byte	0
 723 034f 06       		.uleb128 0x6
 724 0350 3F030000 		.4byte	0x33f
 725 0354 05       		.uleb128 0x5
 726 0355 4F030000 		.4byte	0x34f
 727 0359 0B       		.uleb128 0xb
 728 035a C2000000 		.4byte	0xc2
 729 035e 69030000 		.4byte	0x369
 730 0362 0C       		.uleb128 0xc
 731 0363 88000000 		.4byte	0x88
 732 0367 03       		.byte	0x3
 733 0368 00       		.byte	0
 734 0369 06       		.uleb128 0x6
 735 036a 59030000 		.4byte	0x359
 736 036e 05       		.uleb128 0x5
 737 036f 69030000 		.4byte	0x369
 738 0373 0B       		.uleb128 0xb
 739 0374 C2000000 		.4byte	0xc2
 740 0378 83030000 		.4byte	0x383
 741 037c 0C       		.uleb128 0xc
ARM GAS  C:\Users\USER\AppData\Local\Temp\ccc4z5cN.s 			page 14


 742 037d 88000000 		.4byte	0x88
 743 0381 04       		.byte	0x4
 744 0382 00       		.byte	0
 745 0383 06       		.uleb128 0x6
 746 0384 73030000 		.4byte	0x373
 747 0388 05       		.uleb128 0x5
 748 0389 83030000 		.4byte	0x383
 749 038d 0B       		.uleb128 0xb
 750 038e B1000000 		.4byte	0xb1
 751 0392 9D030000 		.4byte	0x39d
 752 0396 0C       		.uleb128 0xc
 753 0397 88000000 		.4byte	0x88
 754 039b 04       		.byte	0x4
 755 039c 00       		.byte	0
 756 039d 0E       		.uleb128 0xe
 757 039e 36010000 		.4byte	.LASF42
 758 03a2 04       		.byte	0x4
 759 03a3 8701     		.2byte	0x187
 760 03a5 03       		.byte	0x3
 761 03a6 F9010000 		.4byte	0x1f9
 762 03aa 0F       		.uleb128 0xf
 763 03ab 10       		.byte	0x10
 764 03ac 04       		.byte	0x4
 765 03ad 6F02     		.2byte	0x26f
 766 03af 09       		.byte	0x9
 767 03b0 ED030000 		.4byte	0x3ed
 768 03b4 08       		.uleb128 0x8
 769 03b5 3F010000 		.4byte	.LASF43
 770 03b9 04       		.byte	0x4
 771 03ba 7102     		.2byte	0x271
 772 03bc 11       		.byte	0x11
 773 03bd BD000000 		.4byte	0xbd
 774 03c1 00       		.byte	0
 775 03c2 08       		.uleb128 0x8
 776 03c3 39030000 		.4byte	.LASF44
 777 03c7 04       		.byte	0x4
 778 03c8 7202     		.2byte	0x272
 779 03ca 11       		.byte	0x11
 780 03cb BD000000 		.4byte	0xbd
 781 03cf 04       		.byte	0x4
 782 03d0 10       		.uleb128 0x10
 783 03d1 56414C00 		.ascii	"VAL\000"
 784 03d5 04       		.byte	0x4
 785 03d6 7302     		.2byte	0x273
 786 03d8 11       		.byte	0x11
 787 03d9 BD000000 		.4byte	0xbd
 788 03dd 08       		.byte	0x8
 789 03de 08       		.uleb128 0x8
 790 03df FA000000 		.4byte	.LASF45
 791 03e3 04       		.byte	0x4
 792 03e4 7402     		.2byte	0x274
 793 03e6 11       		.byte	0x11
 794 03e7 C2000000 		.4byte	0xc2
 795 03eb 0C       		.byte	0xc
 796 03ec 00       		.byte	0
 797 03ed 0E       		.uleb128 0xe
 798 03ee F1010000 		.4byte	.LASF46
ARM GAS  C:\Users\USER\AppData\Local\Temp\ccc4z5cN.s 			page 15


 799 03f2 04       		.byte	0x4
 800 03f3 7502     		.2byte	0x275
 801 03f5 03       		.byte	0x3
 802 03f6 AA030000 		.4byte	0x3aa
 803 03fa 11       		.uleb128 0x11
 804 03fb 7E040000 		.4byte	.LASF47
 805 03ff 04       		.byte	0x4
 806 0400 A706     		.2byte	0x6a7
 807 0402 19       		.byte	0x19
 808 0403 AC000000 		.4byte	0xac
 809 0407 12       		.uleb128 0x12
 810 0408 92020000 		.4byte	.LASF48
 811 040c 05       		.byte	0x5
 812 040d 4C       		.byte	0x4c
 813 040e 11       		.byte	0x11
 814 040f B1000000 		.4byte	0xb1
 815 0413 13       		.uleb128 0x13
 816 0414 07       		.byte	0x7
 817 0415 01       		.byte	0x1
 818 0416 38000000 		.4byte	0x38
 819 041a 06       		.byte	0x6
 820 041b A8       		.byte	0xa8
 821 041c 01       		.byte	0x1
 822 041d 2E040000 		.4byte	0x42e
 823 0421 14       		.uleb128 0x14
 824 0422 D6000000 		.4byte	.LASF49
 825 0426 00       		.byte	0
 826 0427 14       		.uleb128 0x14
 827 0428 91040000 		.4byte	.LASF50
 828 042c 01       		.byte	0x1
 829 042d 00       		.byte	0
 830 042e 03       		.uleb128 0x3
 831 042f 12030000 		.4byte	.LASF51
 832 0433 06       		.byte	0x6
 833 0434 AB       		.byte	0xab
 834 0435 03       		.byte	0x3
 835 0436 13040000 		.4byte	0x413
 836 043a 15       		.uleb128 0x15
 837 043b 04       		.byte	0x4
 838 043c 07       		.byte	0x7
 839 043d 36       		.byte	0x36
 840 043e 09       		.byte	0x9
 841 043f 78040000 		.4byte	0x478
 842 0443 16       		.uleb128 0x16
 843 0444 67020000 		.4byte	.LASF52
 844 0448 07       		.byte	0x7
 845 0449 38       		.byte	0x38
 846 044a 0B       		.byte	0xb
 847 044b 8F000000 		.4byte	0x8f
 848 044f 00       		.byte	0
 849 0450 16       		.uleb128 0x16
 850 0451 F0020000 		.4byte	.LASF53
 851 0455 07       		.byte	0x7
 852 0456 3D       		.byte	0x3d
 853 0457 0B       		.byte	0xb
 854 0458 8F000000 		.4byte	0x8f
 855 045c 01       		.byte	0x1
ARM GAS  C:\Users\USER\AppData\Local\Temp\ccc4z5cN.s 			page 16


 856 045d 16       		.uleb128 0x16
 857 045e 77020000 		.4byte	.LASF54
 858 0462 07       		.byte	0x7
 859 0463 42       		.byte	0x42
 860 0464 0B       		.byte	0xb
 861 0465 8F000000 		.4byte	0x8f
 862 0469 02       		.byte	0x2
 863 046a 16       		.uleb128 0x16
 864 046b 16000000 		.4byte	.LASF55
 865 046f 07       		.byte	0x7
 866 0470 47       		.byte	0x47
 867 0471 13       		.byte	0x13
 868 0472 2E040000 		.4byte	0x42e
 869 0476 03       		.byte	0x3
 870 0477 00       		.byte	0
 871 0478 03       		.uleb128 0x3
 872 0479 05000000 		.4byte	.LASF56
 873 047d 07       		.byte	0x7
 874 047e 4A       		.byte	0x4a
 875 047f 03       		.byte	0x3
 876 0480 3A040000 		.4byte	0x43a
 877 0484 17       		.uleb128 0x17
 878 0485 4B000000 		.4byte	.LASF57
 879 0489 01       		.byte	0x1
 880 048a E3       		.byte	0xe3
 881 048b 06       		.byte	0x6
 882 048c 00000000 		.4byte	.LFB116
 883 0490 18000000 		.4byte	.LFE116-.LFB116
 884 0494 01       		.uleb128 0x1
 885 0495 9C       		.byte	0x9c
 886 0496 A9040000 		.4byte	0x4a9
 887 049a 18       		.uleb128 0x18
 888 049b 29000000 		.4byte	.LASF59
 889 049f 01       		.byte	0x1
 890 04a0 E3       		.byte	0xe3
 891 04a1 27       		.byte	0x27
 892 04a2 B1000000 		.4byte	0xb1
 893 04a6 01       		.uleb128 0x1
 894 04a7 50       		.byte	0x50
 895 04a8 00       		.byte	0
 896 04a9 17       		.uleb128 0x17
 897 04aa D6010000 		.4byte	.LASF58
 898 04ae 01       		.byte	0x1
 899 04af CB       		.byte	0xcb
 900 04b0 06       		.byte	0x6
 901 04b1 00000000 		.4byte	.LFB115
 902 04b5 18000000 		.4byte	.LFE115-.LFB115
 903 04b9 01       		.uleb128 0x1
 904 04ba 9C       		.byte	0x9c
 905 04bb DC040000 		.4byte	0x4dc
 906 04bf 18       		.uleb128 0x18
 907 04c0 71040000 		.4byte	.LASF60
 908 04c4 01       		.byte	0x1
 909 04c5 CB       		.byte	0xcb
 910 04c6 22       		.byte	0x22
 911 04c7 8F000000 		.4byte	0x8f
 912 04cb 01       		.uleb128 0x1
ARM GAS  C:\Users\USER\AppData\Local\Temp\ccc4z5cN.s 			page 17


 913 04cc 50       		.byte	0x50
 914 04cd 18       		.uleb128 0x18
 915 04ce C8000000 		.4byte	.LASF61
 916 04d2 01       		.byte	0x1
 917 04d3 CB       		.byte	0xcb
 918 04d4 40       		.byte	0x40
 919 04d5 2E040000 		.4byte	0x42e
 920 04d9 01       		.uleb128 0x1
 921 04da 51       		.byte	0x51
 922 04db 00       		.byte	0
 923 04dc 17       		.uleb128 0x17
 924 04dd 6D000000 		.4byte	.LASF62
 925 04e1 01       		.byte	0x1
 926 04e2 B8       		.byte	0xb8
 927 04e3 06       		.byte	0x6
 928 04e4 00000000 		.4byte	.LFB114
 929 04e8 14000000 		.4byte	.LFE114-.LFB114
 930 04ec 01       		.uleb128 0x1
 931 04ed 9C       		.byte	0x9c
 932 04ee 15050000 		.4byte	0x515
 933 04f2 18       		.uleb128 0x18
 934 04f3 2C030000 		.4byte	.LASF63
 935 04f7 01       		.byte	0x1
 936 04f8 B8       		.byte	0xb8
 937 04f9 23       		.byte	0x23
 938 04fa B1000000 		.4byte	0xb1
 939 04fe 01       		.uleb128 0x1
 940 04ff 50       		.byte	0x50
 941 0500 19       		.uleb128 0x19
 942 0501 EA010000 		.4byte	.LASF65
 943 0505 01       		.byte	0x1
 944 0506 B8       		.byte	0xb8
 945 0507 3A       		.byte	0x3a
 946 0508 B1000000 		.4byte	0xb1
 947 050c 04000000 		.4byte	.LLST5
 948 0510 00000000 		.4byte	.LVUS5
 949 0514 00       		.byte	0
 950 0515 17       		.uleb128 0x17
 951 0516 81000000 		.4byte	.LASF64
 952 051a 01       		.byte	0x1
 953 051b 8C       		.byte	0x8c
 954 051c 06       		.byte	0x6
 955 051d 00000000 		.4byte	.LFB113
 956 0521 60000000 		.4byte	.LFE113-.LFB113
 957 0525 01       		.uleb128 0x1
 958 0526 9C       		.byte	0x9c
 959 0527 7C050000 		.4byte	0x57c
 960 052b 19       		.uleb128 0x19
 961 052c 3B000000 		.4byte	.LASF66
 962 0530 01       		.byte	0x1
 963 0531 8C       		.byte	0x8c
 964 0532 22       		.byte	0x22
 965 0533 7C050000 		.4byte	0x57c
 966 0537 2B000000 		.4byte	.LLST1
 967 053b 25000000 		.4byte	.LVUS1
 968 053f 1A       		.uleb128 0x1a
 969 0540 11020000 		.4byte	.LASF67
ARM GAS  C:\Users\USER\AppData\Local\Temp\ccc4z5cN.s 			page 18


 970 0544 01       		.byte	0x1
 971 0545 8E       		.byte	0x8e
 972 0546 0B       		.byte	0xb
 973 0547 8F000000 		.4byte	0x8f
 974 054b 65000000 		.4byte	.LLST2
 975 054f 57000000 		.4byte	.LVUS2
 976 0553 1A       		.uleb128 0x1a
 977 0554 8B000000 		.4byte	.LASF68
 978 0558 01       		.byte	0x1
 979 0559 8E       		.byte	0x8e
 980 055a 1F       		.byte	0x1f
 981 055b 8F000000 		.4byte	0x8f
 982 055f CA000000 		.4byte	.LLST3
 983 0563 C4000000 		.4byte	.LVUS3
 984 0567 1A       		.uleb128 0x1a
 985 0568 CF010000 		.4byte	.LASF69
 986 056c 01       		.byte	0x1
 987 056d 8E       		.byte	0x8e
 988 056e 2E       		.byte	0x2e
 989 056f 8F000000 		.4byte	0x8f
 990 0573 FF000000 		.4byte	.LLST4
 991 0577 F9000000 		.4byte	.LVUS4
 992 057b 00       		.byte	0
 993 057c 1B       		.uleb128 0x1b
 994 057d 04       		.byte	0x4
 995 057e 78040000 		.4byte	0x478
 996 0582 1C       		.uleb128 0x1c
 997 0583 98040000 		.4byte	.LASF74
 998 0587 01       		.byte	0x1
 999 0588 7A       		.byte	0x7a
 1000 0589 06       		.byte	0x6
 1001 058a 00000000 		.4byte	.LFB112
 1002 058e 14000000 		.4byte	.LFE112-.LFB112
 1003 0592 01       		.uleb128 0x1
 1004 0593 9C       		.byte	0x9c
 1005 0594 19       		.uleb128 0x19
 1006 0595 B5000000 		.4byte	.LASF70
 1007 0599 01       		.byte	0x1
 1008 059a 7A       		.byte	0x7a
 1009 059b 28       		.byte	0x28
 1010 059c B1000000 		.4byte	0xb1
 1011 05a0 35010000 		.4byte	.LLST0
 1012 05a4 31010000 		.4byte	.LVUS0
 1013 05a8 00       		.byte	0
 1014 05a9 00       		.byte	0
 1015              		.section	.debug_abbrev,"",%progbits
 1016              	.Ldebug_abbrev0:
 1017 0000 01       		.uleb128 0x1
 1018 0001 11       		.uleb128 0x11
 1019 0002 01       		.byte	0x1
 1020 0003 25       		.uleb128 0x25
 1021 0004 0E       		.uleb128 0xe
 1022 0005 13       		.uleb128 0x13
 1023 0006 0B       		.uleb128 0xb
 1024 0007 03       		.uleb128 0x3
 1025 0008 0E       		.uleb128 0xe
 1026 0009 1B       		.uleb128 0x1b
ARM GAS  C:\Users\USER\AppData\Local\Temp\ccc4z5cN.s 			page 19


 1027 000a 0E       		.uleb128 0xe
 1028 000b 55       		.uleb128 0x55
 1029 000c 17       		.uleb128 0x17
 1030 000d 11       		.uleb128 0x11
 1031 000e 01       		.uleb128 0x1
 1032 000f 10       		.uleb128 0x10
 1033 0010 17       		.uleb128 0x17
 1034 0011 00       		.byte	0
 1035 0012 00       		.byte	0
 1036 0013 02       		.uleb128 0x2
 1037 0014 24       		.uleb128 0x24
 1038 0015 00       		.byte	0
 1039 0016 0B       		.uleb128 0xb
 1040 0017 0B       		.uleb128 0xb
 1041 0018 3E       		.uleb128 0x3e
 1042 0019 0B       		.uleb128 0xb
 1043 001a 03       		.uleb128 0x3
 1044 001b 0E       		.uleb128 0xe
 1045 001c 00       		.byte	0
 1046 001d 00       		.byte	0
 1047 001e 03       		.uleb128 0x3
 1048 001f 16       		.uleb128 0x16
 1049 0020 00       		.byte	0
 1050 0021 03       		.uleb128 0x3
 1051 0022 0E       		.uleb128 0xe
 1052 0023 3A       		.uleb128 0x3a
 1053 0024 0B       		.uleb128 0xb
 1054 0025 3B       		.uleb128 0x3b
 1055 0026 0B       		.uleb128 0xb
 1056 0027 39       		.uleb128 0x39
 1057 0028 0B       		.uleb128 0xb
 1058 0029 49       		.uleb128 0x49
 1059 002a 13       		.uleb128 0x13
 1060 002b 00       		.byte	0
 1061 002c 00       		.byte	0
 1062 002d 04       		.uleb128 0x4
 1063 002e 24       		.uleb128 0x24
 1064 002f 00       		.byte	0
 1065 0030 0B       		.uleb128 0xb
 1066 0031 0B       		.uleb128 0xb
 1067 0032 3E       		.uleb128 0x3e
 1068 0033 0B       		.uleb128 0xb
 1069 0034 03       		.uleb128 0x3
 1070 0035 08       		.uleb128 0x8
 1071 0036 00       		.byte	0
 1072 0037 00       		.byte	0
 1073 0038 05       		.uleb128 0x5
 1074 0039 35       		.uleb128 0x35
 1075 003a 00       		.byte	0
 1076 003b 49       		.uleb128 0x49
 1077 003c 13       		.uleb128 0x13
 1078 003d 00       		.byte	0
 1079 003e 00       		.byte	0
 1080 003f 06       		.uleb128 0x6
 1081 0040 26       		.uleb128 0x26
 1082 0041 00       		.byte	0
 1083 0042 49       		.uleb128 0x49
ARM GAS  C:\Users\USER\AppData\Local\Temp\ccc4z5cN.s 			page 20


 1084 0043 13       		.uleb128 0x13
 1085 0044 00       		.byte	0
 1086 0045 00       		.byte	0
 1087 0046 07       		.uleb128 0x7
 1088 0047 13       		.uleb128 0x13
 1089 0048 01       		.byte	0x1
 1090 0049 0B       		.uleb128 0xb
 1091 004a 05       		.uleb128 0x5
 1092 004b 3A       		.uleb128 0x3a
 1093 004c 0B       		.uleb128 0xb
 1094 004d 3B       		.uleb128 0x3b
 1095 004e 05       		.uleb128 0x5
 1096 004f 39       		.uleb128 0x39
 1097 0050 0B       		.uleb128 0xb
 1098 0051 01       		.uleb128 0x1
 1099 0052 13       		.uleb128 0x13
 1100 0053 00       		.byte	0
 1101 0054 00       		.byte	0
 1102 0055 08       		.uleb128 0x8
 1103 0056 0D       		.uleb128 0xd
 1104 0057 00       		.byte	0
 1105 0058 03       		.uleb128 0x3
 1106 0059 0E       		.uleb128 0xe
 1107 005a 3A       		.uleb128 0x3a
 1108 005b 0B       		.uleb128 0xb
 1109 005c 3B       		.uleb128 0x3b
 1110 005d 05       		.uleb128 0x5
 1111 005e 39       		.uleb128 0x39
 1112 005f 0B       		.uleb128 0xb
 1113 0060 49       		.uleb128 0x49
 1114 0061 13       		.uleb128 0x13
 1115 0062 38       		.uleb128 0x38
 1116 0063 0B       		.uleb128 0xb
 1117 0064 00       		.byte	0
 1118 0065 00       		.byte	0
 1119 0066 09       		.uleb128 0x9
 1120 0067 0D       		.uleb128 0xd
 1121 0068 00       		.byte	0
 1122 0069 03       		.uleb128 0x3
 1123 006a 0E       		.uleb128 0xe
 1124 006b 3A       		.uleb128 0x3a
 1125 006c 0B       		.uleb128 0xb
 1126 006d 3B       		.uleb128 0x3b
 1127 006e 05       		.uleb128 0x5
 1128 006f 39       		.uleb128 0x39
 1129 0070 0B       		.uleb128 0xb
 1130 0071 49       		.uleb128 0x49
 1131 0072 13       		.uleb128 0x13
 1132 0073 38       		.uleb128 0x38
 1133 0074 05       		.uleb128 0x5
 1134 0075 00       		.byte	0
 1135 0076 00       		.byte	0
 1136 0077 0A       		.uleb128 0xa
 1137 0078 0D       		.uleb128 0xd
 1138 0079 00       		.byte	0
 1139 007a 03       		.uleb128 0x3
 1140 007b 08       		.uleb128 0x8
ARM GAS  C:\Users\USER\AppData\Local\Temp\ccc4z5cN.s 			page 21


 1141 007c 3A       		.uleb128 0x3a
 1142 007d 0B       		.uleb128 0xb
 1143 007e 3B       		.uleb128 0x3b
 1144 007f 05       		.uleb128 0x5
 1145 0080 39       		.uleb128 0x39
 1146 0081 0B       		.uleb128 0xb
 1147 0082 49       		.uleb128 0x49
 1148 0083 13       		.uleb128 0x13
 1149 0084 38       		.uleb128 0x38
 1150 0085 05       		.uleb128 0x5
 1151 0086 00       		.byte	0
 1152 0087 00       		.byte	0
 1153 0088 0B       		.uleb128 0xb
 1154 0089 01       		.uleb128 0x1
 1155 008a 01       		.byte	0x1
 1156 008b 49       		.uleb128 0x49
 1157 008c 13       		.uleb128 0x13
 1158 008d 01       		.uleb128 0x1
 1159 008e 13       		.uleb128 0x13
 1160 008f 00       		.byte	0
 1161 0090 00       		.byte	0
 1162 0091 0C       		.uleb128 0xc
 1163 0092 21       		.uleb128 0x21
 1164 0093 00       		.byte	0
 1165 0094 49       		.uleb128 0x49
 1166 0095 13       		.uleb128 0x13
 1167 0096 2F       		.uleb128 0x2f
 1168 0097 0B       		.uleb128 0xb
 1169 0098 00       		.byte	0
 1170 0099 00       		.byte	0
 1171 009a 0D       		.uleb128 0xd
 1172 009b 21       		.uleb128 0x21
 1173 009c 00       		.byte	0
 1174 009d 49       		.uleb128 0x49
 1175 009e 13       		.uleb128 0x13
 1176 009f 2F       		.uleb128 0x2f
 1177 00a0 05       		.uleb128 0x5
 1178 00a1 00       		.byte	0
 1179 00a2 00       		.byte	0
 1180 00a3 0E       		.uleb128 0xe
 1181 00a4 16       		.uleb128 0x16
 1182 00a5 00       		.byte	0
 1183 00a6 03       		.uleb128 0x3
 1184 00a7 0E       		.uleb128 0xe
 1185 00a8 3A       		.uleb128 0x3a
 1186 00a9 0B       		.uleb128 0xb
 1187 00aa 3B       		.uleb128 0x3b
 1188 00ab 05       		.uleb128 0x5
 1189 00ac 39       		.uleb128 0x39
 1190 00ad 0B       		.uleb128 0xb
 1191 00ae 49       		.uleb128 0x49
 1192 00af 13       		.uleb128 0x13
 1193 00b0 00       		.byte	0
 1194 00b1 00       		.byte	0
 1195 00b2 0F       		.uleb128 0xf
 1196 00b3 13       		.uleb128 0x13
 1197 00b4 01       		.byte	0x1
ARM GAS  C:\Users\USER\AppData\Local\Temp\ccc4z5cN.s 			page 22


 1198 00b5 0B       		.uleb128 0xb
 1199 00b6 0B       		.uleb128 0xb
 1200 00b7 3A       		.uleb128 0x3a
 1201 00b8 0B       		.uleb128 0xb
 1202 00b9 3B       		.uleb128 0x3b
 1203 00ba 05       		.uleb128 0x5
 1204 00bb 39       		.uleb128 0x39
 1205 00bc 0B       		.uleb128 0xb
 1206 00bd 01       		.uleb128 0x1
 1207 00be 13       		.uleb128 0x13
 1208 00bf 00       		.byte	0
 1209 00c0 00       		.byte	0
 1210 00c1 10       		.uleb128 0x10
 1211 00c2 0D       		.uleb128 0xd
 1212 00c3 00       		.byte	0
 1213 00c4 03       		.uleb128 0x3
 1214 00c5 08       		.uleb128 0x8
 1215 00c6 3A       		.uleb128 0x3a
 1216 00c7 0B       		.uleb128 0xb
 1217 00c8 3B       		.uleb128 0x3b
 1218 00c9 05       		.uleb128 0x5
 1219 00ca 39       		.uleb128 0x39
 1220 00cb 0B       		.uleb128 0xb
 1221 00cc 49       		.uleb128 0x49
 1222 00cd 13       		.uleb128 0x13
 1223 00ce 38       		.uleb128 0x38
 1224 00cf 0B       		.uleb128 0xb
 1225 00d0 00       		.byte	0
 1226 00d1 00       		.byte	0
 1227 00d2 11       		.uleb128 0x11
 1228 00d3 34       		.uleb128 0x34
 1229 00d4 00       		.byte	0
 1230 00d5 03       		.uleb128 0x3
 1231 00d6 0E       		.uleb128 0xe
 1232 00d7 3A       		.uleb128 0x3a
 1233 00d8 0B       		.uleb128 0xb
 1234 00d9 3B       		.uleb128 0x3b
 1235 00da 05       		.uleb128 0x5
 1236 00db 39       		.uleb128 0x39
 1237 00dc 0B       		.uleb128 0xb
 1238 00dd 49       		.uleb128 0x49
 1239 00de 13       		.uleb128 0x13
 1240 00df 3F       		.uleb128 0x3f
 1241 00e0 19       		.uleb128 0x19
 1242 00e1 3C       		.uleb128 0x3c
 1243 00e2 19       		.uleb128 0x19
 1244 00e3 00       		.byte	0
 1245 00e4 00       		.byte	0
 1246 00e5 12       		.uleb128 0x12
 1247 00e6 34       		.uleb128 0x34
 1248 00e7 00       		.byte	0
 1249 00e8 03       		.uleb128 0x3
 1250 00e9 0E       		.uleb128 0xe
 1251 00ea 3A       		.uleb128 0x3a
 1252 00eb 0B       		.uleb128 0xb
 1253 00ec 3B       		.uleb128 0x3b
 1254 00ed 0B       		.uleb128 0xb
ARM GAS  C:\Users\USER\AppData\Local\Temp\ccc4z5cN.s 			page 23


 1255 00ee 39       		.uleb128 0x39
 1256 00ef 0B       		.uleb128 0xb
 1257 00f0 49       		.uleb128 0x49
 1258 00f1 13       		.uleb128 0x13
 1259 00f2 3F       		.uleb128 0x3f
 1260 00f3 19       		.uleb128 0x19
 1261 00f4 3C       		.uleb128 0x3c
 1262 00f5 19       		.uleb128 0x19
 1263 00f6 00       		.byte	0
 1264 00f7 00       		.byte	0
 1265 00f8 13       		.uleb128 0x13
 1266 00f9 04       		.uleb128 0x4
 1267 00fa 01       		.byte	0x1
 1268 00fb 3E       		.uleb128 0x3e
 1269 00fc 0B       		.uleb128 0xb
 1270 00fd 0B       		.uleb128 0xb
 1271 00fe 0B       		.uleb128 0xb
 1272 00ff 49       		.uleb128 0x49
 1273 0100 13       		.uleb128 0x13
 1274 0101 3A       		.uleb128 0x3a
 1275 0102 0B       		.uleb128 0xb
 1276 0103 3B       		.uleb128 0x3b
 1277 0104 0B       		.uleb128 0xb
 1278 0105 39       		.uleb128 0x39
 1279 0106 0B       		.uleb128 0xb
 1280 0107 01       		.uleb128 0x1
 1281 0108 13       		.uleb128 0x13
 1282 0109 00       		.byte	0
 1283 010a 00       		.byte	0
 1284 010b 14       		.uleb128 0x14
 1285 010c 28       		.uleb128 0x28
 1286 010d 00       		.byte	0
 1287 010e 03       		.uleb128 0x3
 1288 010f 0E       		.uleb128 0xe
 1289 0110 1C       		.uleb128 0x1c
 1290 0111 0B       		.uleb128 0xb
 1291 0112 00       		.byte	0
 1292 0113 00       		.byte	0
 1293 0114 15       		.uleb128 0x15
 1294 0115 13       		.uleb128 0x13
 1295 0116 01       		.byte	0x1
 1296 0117 0B       		.uleb128 0xb
 1297 0118 0B       		.uleb128 0xb
 1298 0119 3A       		.uleb128 0x3a
 1299 011a 0B       		.uleb128 0xb
 1300 011b 3B       		.uleb128 0x3b
 1301 011c 0B       		.uleb128 0xb
 1302 011d 39       		.uleb128 0x39
 1303 011e 0B       		.uleb128 0xb
 1304 011f 01       		.uleb128 0x1
 1305 0120 13       		.uleb128 0x13
 1306 0121 00       		.byte	0
 1307 0122 00       		.byte	0
 1308 0123 16       		.uleb128 0x16
 1309 0124 0D       		.uleb128 0xd
 1310 0125 00       		.byte	0
 1311 0126 03       		.uleb128 0x3
ARM GAS  C:\Users\USER\AppData\Local\Temp\ccc4z5cN.s 			page 24


 1312 0127 0E       		.uleb128 0xe
 1313 0128 3A       		.uleb128 0x3a
 1314 0129 0B       		.uleb128 0xb
 1315 012a 3B       		.uleb128 0x3b
 1316 012b 0B       		.uleb128 0xb
 1317 012c 39       		.uleb128 0x39
 1318 012d 0B       		.uleb128 0xb
 1319 012e 49       		.uleb128 0x49
 1320 012f 13       		.uleb128 0x13
 1321 0130 38       		.uleb128 0x38
 1322 0131 0B       		.uleb128 0xb
 1323 0132 00       		.byte	0
 1324 0133 00       		.byte	0
 1325 0134 17       		.uleb128 0x17
 1326 0135 2E       		.uleb128 0x2e
 1327 0136 01       		.byte	0x1
 1328 0137 3F       		.uleb128 0x3f
 1329 0138 19       		.uleb128 0x19
 1330 0139 03       		.uleb128 0x3
 1331 013a 0E       		.uleb128 0xe
 1332 013b 3A       		.uleb128 0x3a
 1333 013c 0B       		.uleb128 0xb
 1334 013d 3B       		.uleb128 0x3b
 1335 013e 0B       		.uleb128 0xb
 1336 013f 39       		.uleb128 0x39
 1337 0140 0B       		.uleb128 0xb
 1338 0141 27       		.uleb128 0x27
 1339 0142 19       		.uleb128 0x19
 1340 0143 11       		.uleb128 0x11
 1341 0144 01       		.uleb128 0x1
 1342 0145 12       		.uleb128 0x12
 1343 0146 06       		.uleb128 0x6
 1344 0147 40       		.uleb128 0x40
 1345 0148 18       		.uleb128 0x18
 1346 0149 9742     		.uleb128 0x2117
 1347 014b 19       		.uleb128 0x19
 1348 014c 01       		.uleb128 0x1
 1349 014d 13       		.uleb128 0x13
 1350 014e 00       		.byte	0
 1351 014f 00       		.byte	0
 1352 0150 18       		.uleb128 0x18
 1353 0151 05       		.uleb128 0x5
 1354 0152 00       		.byte	0
 1355 0153 03       		.uleb128 0x3
 1356 0154 0E       		.uleb128 0xe
 1357 0155 3A       		.uleb128 0x3a
 1358 0156 0B       		.uleb128 0xb
 1359 0157 3B       		.uleb128 0x3b
 1360 0158 0B       		.uleb128 0xb
 1361 0159 39       		.uleb128 0x39
 1362 015a 0B       		.uleb128 0xb
 1363 015b 49       		.uleb128 0x49
 1364 015c 13       		.uleb128 0x13
 1365 015d 02       		.uleb128 0x2
 1366 015e 18       		.uleb128 0x18
 1367 015f 00       		.byte	0
 1368 0160 00       		.byte	0
ARM GAS  C:\Users\USER\AppData\Local\Temp\ccc4z5cN.s 			page 25


 1369 0161 19       		.uleb128 0x19
 1370 0162 05       		.uleb128 0x5
 1371 0163 00       		.byte	0
 1372 0164 03       		.uleb128 0x3
 1373 0165 0E       		.uleb128 0xe
 1374 0166 3A       		.uleb128 0x3a
 1375 0167 0B       		.uleb128 0xb
 1376 0168 3B       		.uleb128 0x3b
 1377 0169 0B       		.uleb128 0xb
 1378 016a 39       		.uleb128 0x39
 1379 016b 0B       		.uleb128 0xb
 1380 016c 49       		.uleb128 0x49
 1381 016d 13       		.uleb128 0x13
 1382 016e 02       		.uleb128 0x2
 1383 016f 17       		.uleb128 0x17
 1384 0170 B742     		.uleb128 0x2137
 1385 0172 17       		.uleb128 0x17
 1386 0173 00       		.byte	0
 1387 0174 00       		.byte	0
 1388 0175 1A       		.uleb128 0x1a
 1389 0176 34       		.uleb128 0x34
 1390 0177 00       		.byte	0
 1391 0178 03       		.uleb128 0x3
 1392 0179 0E       		.uleb128 0xe
 1393 017a 3A       		.uleb128 0x3a
 1394 017b 0B       		.uleb128 0xb
 1395 017c 3B       		.uleb128 0x3b
 1396 017d 0B       		.uleb128 0xb
 1397 017e 39       		.uleb128 0x39
 1398 017f 0B       		.uleb128 0xb
 1399 0180 49       		.uleb128 0x49
 1400 0181 13       		.uleb128 0x13
 1401 0182 02       		.uleb128 0x2
 1402 0183 17       		.uleb128 0x17
 1403 0184 B742     		.uleb128 0x2137
 1404 0186 17       		.uleb128 0x17
 1405 0187 00       		.byte	0
 1406 0188 00       		.byte	0
 1407 0189 1B       		.uleb128 0x1b
 1408 018a 0F       		.uleb128 0xf
 1409 018b 00       		.byte	0
 1410 018c 0B       		.uleb128 0xb
 1411 018d 0B       		.uleb128 0xb
 1412 018e 49       		.uleb128 0x49
 1413 018f 13       		.uleb128 0x13
 1414 0190 00       		.byte	0
 1415 0191 00       		.byte	0
 1416 0192 1C       		.uleb128 0x1c
 1417 0193 2E       		.uleb128 0x2e
 1418 0194 01       		.byte	0x1
 1419 0195 3F       		.uleb128 0x3f
 1420 0196 19       		.uleb128 0x19
 1421 0197 03       		.uleb128 0x3
 1422 0198 0E       		.uleb128 0xe
 1423 0199 3A       		.uleb128 0x3a
 1424 019a 0B       		.uleb128 0xb
 1425 019b 3B       		.uleb128 0x3b
ARM GAS  C:\Users\USER\AppData\Local\Temp\ccc4z5cN.s 			page 26


 1426 019c 0B       		.uleb128 0xb
 1427 019d 39       		.uleb128 0x39
 1428 019e 0B       		.uleb128 0xb
 1429 019f 27       		.uleb128 0x27
 1430 01a0 19       		.uleb128 0x19
 1431 01a1 11       		.uleb128 0x11
 1432 01a2 01       		.uleb128 0x1
 1433 01a3 12       		.uleb128 0x12
 1434 01a4 06       		.uleb128 0x6
 1435 01a5 40       		.uleb128 0x40
 1436 01a6 18       		.uleb128 0x18
 1437 01a7 9742     		.uleb128 0x2117
 1438 01a9 19       		.uleb128 0x19
 1439 01aa 00       		.byte	0
 1440 01ab 00       		.byte	0
 1441 01ac 00       		.byte	0
 1442              		.section	.debug_loc,"",%progbits
 1443              	.Ldebug_loc0:
 1444              	.LVUS5:
 1445 0000 00       		.uleb128 0
 1446 0001 00       		.uleb128 .LVU51
 1447 0002 00       		.uleb128 .LVU51
 1448 0003 00       		.uleb128 0
 1449              	.LLST5:
 1450 0004 00000000 		.4byte	.LVL11
 1451 0008 04000000 		.4byte	.LVL12
 1452 000c 0100     		.2byte	0x1
 1453 000e 51       		.byte	0x51
 1454 000f 04000000 		.4byte	.LVL12
 1455 0013 14000000 		.4byte	.LFE114
 1456 0017 0400     		.2byte	0x4
 1457 0019 F3       		.byte	0xf3
 1458 001a 01       		.uleb128 0x1
 1459 001b 51       		.byte	0x51
 1460 001c 9F       		.byte	0x9f
 1461 001d 00000000 		.4byte	0
 1462 0021 00000000 		.4byte	0
 1463              	.LVUS1:
 1464 0025 00       		.uleb128 0
 1465 0026 00       		.uleb128 .LVU23
 1466 0027 00       		.uleb128 .LVU23
 1467 0028 00       		.uleb128 .LVU43
 1468 0029 00       		.uleb128 .LVU43
 1469 002a 00       		.uleb128 0
 1470              	.LLST1:
 1471 002b 00000000 		.4byte	.LVL2
 1472 002f 1E000000 		.4byte	.LVL3
 1473 0033 0100     		.2byte	0x1
 1474 0035 50       		.byte	0x50
 1475 0036 1E000000 		.4byte	.LVL3
 1476 003a 4A000000 		.4byte	.LVL10
 1477 003e 0400     		.2byte	0x4
 1478 0040 F3       		.byte	0xf3
 1479 0041 01       		.uleb128 0x1
 1480 0042 50       		.byte	0x50
 1481 0043 9F       		.byte	0x9f
 1482 0044 4A000000 		.4byte	.LVL10
ARM GAS  C:\Users\USER\AppData\Local\Temp\ccc4z5cN.s 			page 27


 1483 0048 60000000 		.4byte	.LFE113
 1484 004c 0100     		.2byte	0x1
 1485 004e 50       		.byte	0x50
 1486 004f 00000000 		.4byte	0
 1487 0053 00000000 		.4byte	0
 1488              	.LVUS2:
 1489 0057 02       		.uleb128 .LVU10
 1490 0058 00       		.uleb128 .LVU24
 1491 0059 00       		.uleb128 .LVU24
 1492 005a 00       		.uleb128 .LVU30
 1493 005b 00       		.uleb128 .LVU31
 1494 005c 00       		.uleb128 .LVU34
 1495 005d 00       		.uleb128 .LVU34
 1496 005e 00       		.uleb128 .LVU37
 1497 005f 00       		.uleb128 .LVU37
 1498 0060 00       		.uleb128 .LVU38
 1499 0061 00       		.uleb128 .LVU38
 1500 0062 00       		.uleb128 .LVU43
 1501 0063 00       		.uleb128 .LVU43
 1502 0064 00       		.uleb128 0
 1503              	.LLST2:
 1504 0065 00000000 		.4byte	.LVL2
 1505 0069 22000000 		.4byte	.LVL4
 1506 006d 0200     		.2byte	0x2
 1507 006f 30       		.byte	0x30
 1508 0070 9F       		.byte	0x9f
 1509 0071 22000000 		.4byte	.LVL4
 1510 0075 30000000 		.4byte	.LVL5
 1511 0079 0100     		.2byte	0x1
 1512 007b 50       		.byte	0x50
 1513 007c 32000000 		.4byte	.LVL6
 1514 0080 38000000 		.4byte	.LVL7
 1515 0084 0100     		.2byte	0x1
 1516 0086 55       		.byte	0x55
 1517 0087 38000000 		.4byte	.LVL7
 1518 008b 3C000000 		.4byte	.LVL8
 1519 008f 0100     		.2byte	0x1
 1520 0091 53       		.byte	0x53
 1521 0092 3C000000 		.4byte	.LVL8
 1522 0096 3E000000 		.4byte	.LVL9
 1523 009a 0900     		.2byte	0x9
 1524 009c 72       		.byte	0x72
 1525 009d 00       		.sleb128 0
 1526 009e 70       		.byte	0x70
 1527 009f 00       		.sleb128 0
 1528 00a0 1A       		.byte	0x1a
 1529 00a1 75       		.byte	0x75
 1530 00a2 00       		.sleb128 0
 1531 00a3 21       		.byte	0x21
 1532 00a4 9F       		.byte	0x9f
 1533 00a5 3E000000 		.4byte	.LVL9
 1534 00a9 4A000000 		.4byte	.LVL10
 1535 00ad 0100     		.2byte	0x1
 1536 00af 53       		.byte	0x53
 1537 00b0 4A000000 		.4byte	.LVL10
 1538 00b4 60000000 		.4byte	.LFE113
 1539 00b8 0200     		.2byte	0x2
ARM GAS  C:\Users\USER\AppData\Local\Temp\ccc4z5cN.s 			page 28


 1540 00ba 30       		.byte	0x30
 1541 00bb 9F       		.byte	0x9f
 1542 00bc 00000000 		.4byte	0
 1543 00c0 00000000 		.4byte	0
 1544              	.LVUS3:
 1545 00c4 02       		.uleb128 .LVU10
 1546 00c5 01       		.uleb128 .LVU25
 1547 00c6 01       		.uleb128 .LVU25
 1548 00c7 00       		.uleb128 .LVU30
 1549 00c8 00       		.uleb128 .LVU43
 1550 00c9 00       		.uleb128 0
 1551              	.LLST3:
 1552 00ca 00000000 		.4byte	.LVL2
 1553 00ce 22000000 		.4byte	.LVL4
 1554 00d2 0200     		.2byte	0x2
 1555 00d4 30       		.byte	0x30
 1556 00d5 9F       		.byte	0x9f
 1557 00d6 22000000 		.4byte	.LVL4
 1558 00da 30000000 		.4byte	.LVL5
 1559 00de 0500     		.2byte	0x5
 1560 00e0 34       		.byte	0x34
 1561 00e1 70       		.byte	0x70
 1562 00e2 00       		.sleb128 0
 1563 00e3 1C       		.byte	0x1c
 1564 00e4 9F       		.byte	0x9f
 1565 00e5 4A000000 		.4byte	.LVL10
 1566 00e9 60000000 		.4byte	.LFE113
 1567 00ed 0200     		.2byte	0x2
 1568 00ef 30       		.byte	0x30
 1569 00f0 9F       		.byte	0x9f
 1570 00f1 00000000 		.4byte	0
 1571 00f5 00000000 		.4byte	0
 1572              	.LVUS4:
 1573 00f9 02       		.uleb128 .LVU10
 1574 00fa 02       		.uleb128 .LVU26
 1575 00fb 02       		.uleb128 .LVU26
 1576 00fc 00       		.uleb128 .LVU30
 1577 00fd 00       		.uleb128 .LVU43
 1578 00fe 00       		.uleb128 0
 1579              	.LLST4:
 1580 00ff 00000000 		.4byte	.LVL2
 1581 0103 22000000 		.4byte	.LVL4
 1582 0107 0200     		.2byte	0x2
 1583 0109 3F       		.byte	0x3f
 1584 010a 9F       		.byte	0x9f
 1585 010b 22000000 		.4byte	.LVL4
 1586 010f 30000000 		.4byte	.LVL5
 1587 0113 0800     		.2byte	0x8
 1588 0115 3F       		.byte	0x3f
 1589 0116 70       		.byte	0x70
 1590 0117 00       		.sleb128 0
 1591 0118 08       		.byte	0x8
 1592 0119 FF       		.byte	0xff
 1593 011a 1A       		.byte	0x1a
 1594 011b 26       		.byte	0x26
 1595 011c 9F       		.byte	0x9f
 1596 011d 4A000000 		.4byte	.LVL10
ARM GAS  C:\Users\USER\AppData\Local\Temp\ccc4z5cN.s 			page 29


 1597 0121 60000000 		.4byte	.LFE113
 1598 0125 0200     		.2byte	0x2
 1599 0127 3F       		.byte	0x3f
 1600 0128 9F       		.byte	0x9f
 1601 0129 00000000 		.4byte	0
 1602 012d 00000000 		.4byte	0
 1603              	.LVUS0:
 1604 0131 00       		.uleb128 0
 1605 0132 00       		.uleb128 .LVU4
 1606 0133 00       		.uleb128 .LVU4
 1607 0134 00       		.uleb128 0
 1608              	.LLST0:
 1609 0135 00000000 		.4byte	.LVL0
 1610 0139 04000000 		.4byte	.LVL1
 1611 013d 0100     		.2byte	0x1
 1612 013f 50       		.byte	0x50
 1613 0140 04000000 		.4byte	.LVL1
 1614 0144 14000000 		.4byte	.LFE112
 1615 0148 0400     		.2byte	0x4
 1616 014a F3       		.byte	0xf3
 1617 014b 01       		.uleb128 0x1
 1618 014c 50       		.byte	0x50
 1619 014d 9F       		.byte	0x9f
 1620 014e 00000000 		.4byte	0
 1621 0152 00000000 		.4byte	0
 1622              		.section	.debug_aranges,"",%progbits
 1623 0000 3C000000 		.4byte	0x3c
 1624 0004 0200     		.2byte	0x2
 1625 0006 00000000 		.4byte	.Ldebug_info0
 1626 000a 04       		.byte	0x4
 1627 000b 00       		.byte	0
 1628 000c 0000     		.2byte	0
 1629 000e 0000     		.2byte	0
 1630 0010 00000000 		.4byte	.LFB112
 1631 0014 14000000 		.4byte	.LFE112-.LFB112
 1632 0018 00000000 		.4byte	.LFB113
 1633 001c 60000000 		.4byte	.LFE113-.LFB113
 1634 0020 00000000 		.4byte	.LFB114
 1635 0024 14000000 		.4byte	.LFE114-.LFB114
 1636 0028 00000000 		.4byte	.LFB115
 1637 002c 18000000 		.4byte	.LFE115-.LFB115
 1638 0030 00000000 		.4byte	.LFB116
 1639 0034 18000000 		.4byte	.LFE116-.LFB116
 1640 0038 00000000 		.4byte	0
 1641 003c 00000000 		.4byte	0
 1642              		.section	.debug_ranges,"",%progbits
 1643              	.Ldebug_ranges0:
 1644 0000 00000000 		.4byte	.LFB112
 1645 0004 14000000 		.4byte	.LFE112
 1646 0008 00000000 		.4byte	.LFB113
 1647 000c 60000000 		.4byte	.LFE113
 1648 0010 00000000 		.4byte	.LFB114
 1649 0014 14000000 		.4byte	.LFE114
 1650 0018 00000000 		.4byte	.LFB115
 1651 001c 18000000 		.4byte	.LFE115
 1652 0020 00000000 		.4byte	.LFB116
 1653 0024 18000000 		.4byte	.LFE116
ARM GAS  C:\Users\USER\AppData\Local\Temp\ccc4z5cN.s 			page 30


 1654 0028 00000000 		.4byte	0
 1655 002c 00000000 		.4byte	0
 1656              		.section	.debug_line,"",%progbits
 1657              	.Ldebug_line0:
 1658 0000 0D030000 		.section	.debug_str,"MS",%progbits,1
 1658      0300D001 
 1658      00000201 
 1658      FB0E0D00 
 1658      01010101 
 1659              	.LASF23:
 1660 0000 49414252 		.ascii	"IABR\000"
 1660      00
 1661              	.LASF56:
 1662 0005 4E564943 		.ascii	"NVIC_InitTypeDef\000"
 1662      5F496E69 
 1662      74547970 
 1662      65446566 
 1662      00
 1663              	.LASF55:
 1664 0016 4E564943 		.ascii	"NVIC_IRQChannelCmd\000"
 1664      5F495251 
 1664      4368616E 
 1664      6E656C43 
 1664      6D6400
 1665              	.LASF59:
 1666 0029 53797354 		.ascii	"SysTick_CLKSource\000"
 1666      69636B5F 
 1666      434C4B53 
 1666      6F757263 
 1666      6500
 1667              	.LASF66:
 1668 003b 4E564943 		.ascii	"NVIC_InitStruct\000"
 1668      5F496E69 
 1668      74537472 
 1668      75637400 
 1669              	.LASF57:
 1670 004b 53797354 		.ascii	"SysTick_CLKSourceConfig\000"
 1670      69636B5F 
 1670      434C4B53 
 1670      6F757263 
 1670      65436F6E 
 1671              	.LASF2:
 1672 0063 73686F72 		.ascii	"short int\000"
 1672      7420696E 
 1672      7400
 1673              	.LASF62:
 1674 006d 4E564943 		.ascii	"NVIC_SetVectorTable\000"
 1674      5F536574 
 1674      56656374 
 1674      6F725461 
 1674      626C6500 
 1675              	.LASF64:
 1676 0081 4E564943 		.ascii	"NVIC_Init\000"
 1676      5F496E69 
 1676      7400
 1677              	.LASF68:
 1678 008b 746D7070 		.ascii	"tmppre\000"
ARM GAS  C:\Users\USER\AppData\Local\Temp\ccc4z5cN.s 			page 31


 1678      726500
 1679              	.LASF7:
 1680 0092 5F5F7569 		.ascii	"__uint32_t\000"
 1680      6E743332 
 1680      5F7400
 1681              	.LASF28:
 1682 009d 43505549 		.ascii	"CPUID\000"
 1682      4400
 1683              	.LASF16:
 1684 00a3 52455345 		.ascii	"RESERVED0\000"
 1684      52564544 
 1684      3000
 1685              	.LASF12:
 1686 00ad 75696E74 		.ascii	"uint8_t\000"
 1686      385F7400 
 1687              	.LASF70:
 1688 00b5 4E564943 		.ascii	"NVIC_PriorityGroup\000"
 1688      5F507269 
 1688      6F726974 
 1688      7947726F 
 1688      757000
 1689              	.LASF61:
 1690 00c8 4E657753 		.ascii	"NewState\000"
 1690      74617465 
 1690      00
 1691              	.LASF26:
 1692 00d1 53544952 		.ascii	"STIR\000"
 1692      00
 1693              	.LASF49:
 1694 00d6 44495341 		.ascii	"DISABLE\000"
 1694      424C4500 
 1695              	.LASF29:
 1696 00de 49435352 		.ascii	"ICSR\000"
 1696      00
 1697              	.LASF18:
 1698 00e3 52534552 		.ascii	"RSERVED1\000"
 1698      56454431 
 1698      00
 1699              	.LASF9:
 1700 00ec 6C6F6E67 		.ascii	"long long int\000"
 1700      206C6F6E 
 1700      6720696E 
 1700      7400
 1701              	.LASF45:
 1702 00fa 43414C49 		.ascii	"CALIB\000"
 1702      4200
 1703              	.LASF30:
 1704 0100 56544F52 		.ascii	"VTOR\000"
 1704      00
 1705              	.LASF37:
 1706 0105 42464152 		.ascii	"BFAR\000"
 1706      00
 1707              	.LASF6:
 1708 010a 6C6F6E67 		.ascii	"long int\000"
 1708      20696E74 
 1708      00
 1709              	.LASF4:
ARM GAS  C:\Users\USER\AppData\Local\Temp\ccc4z5cN.s 			page 32


 1710 0113 5F5F7569 		.ascii	"__uint8_t\000"
 1710      6E74385F 
 1710      7400
 1711              	.LASF33:
 1712 011d 43465352 		.ascii	"CFSR\000"
 1712      00
 1713              	.LASF1:
 1714 0122 756E7369 		.ascii	"unsigned char\000"
 1714      676E6564 
 1714      20636861 
 1714      7200
 1715              	.LASF31:
 1716 0130 41495243 		.ascii	"AIRCR\000"
 1716      5200
 1717              	.LASF42:
 1718 0136 5343425F 		.ascii	"SCB_Type\000"
 1718      54797065 
 1718      00
 1719              	.LASF43:
 1720 013f 4354524C 		.ascii	"CTRL\000"
 1720      00
 1721              	.LASF27:
 1722 0144 4E564943 		.ascii	"NVIC_Type\000"
 1722      5F547970 
 1722      6500
 1723              	.LASF21:
 1724 014e 49435052 		.ascii	"ICPR\000"
 1724      00
 1725              	.LASF0:
 1726 0153 7369676E 		.ascii	"signed char\000"
 1726      65642063 
 1726      68617200 
 1727              	.LASF10:
 1728 015f 6C6F6E67 		.ascii	"long long unsigned int\000"
 1728      206C6F6E 
 1728      6720756E 
 1728      7369676E 
 1728      65642069 
 1729              	.LASF14:
 1730 0176 75696E74 		.ascii	"uint32_t\000"
 1730      33325F74 
 1730      00
 1731              	.LASF11:
 1732 017f 756E7369 		.ascii	"unsigned int\000"
 1732      676E6564 
 1732      20696E74 
 1732      00
 1733              	.LASF32:
 1734 018c 53484353 		.ascii	"SHCSR\000"
 1734      5200
 1735              	.LASF36:
 1736 0192 4D4D4641 		.ascii	"MMFAR\000"
 1736      5200
 1737              	.LASF73:
 1738 0198 443A5C67 		.ascii	"D:\\git\\oroca_bldc_dev\\oroca_bldc_FW\\oroca_bldc_"
 1738      69745C6F 
 1738      726F6361 
ARM GAS  C:\Users\USER\AppData\Local\Temp\ccc4z5cN.s 			page 33


 1738      5F626C64 
 1738      635F6465 
 1739 01c7 63686962 		.ascii	"chibios\000"
 1739      696F7300 
 1740              	.LASF69:
 1741 01cf 746D7073 		.ascii	"tmpsub\000"
 1741      756200
 1742              	.LASF58:
 1743 01d6 4E564943 		.ascii	"NVIC_SystemLPConfig\000"
 1743      5F537973 
 1743      74656D4C 
 1743      50436F6E 
 1743      66696700 
 1744              	.LASF65:
 1745 01ea 4F666673 		.ascii	"Offset\000"
 1745      657400
 1746              	.LASF46:
 1747 01f1 53797354 		.ascii	"SysTick_Type\000"
 1747      69636B5F 
 1747      54797065 
 1747      00
 1748              	.LASF3:
 1749 01fe 73686F72 		.ascii	"short unsigned int\000"
 1749      7420756E 
 1749      7369676E 
 1749      65642069 
 1749      6E7400
 1750              	.LASF67:
 1751 0211 746D7070 		.ascii	"tmppriority\000"
 1751      72696F72 
 1751      69747900 
 1752              	.LASF72:
 1753 021d 7372632F 		.ascii	"src/ChibiOS_3.0.2/ext/stdperiph_stm32f4/src/misc.c\000"
 1753      43686962 
 1753      694F535F 
 1753      332E302E 
 1753      322F6578 
 1754              	.LASF13:
 1755 0250 696E7433 		.ascii	"int32_t\000"
 1755      325F7400 
 1756              	.LASF40:
 1757 0258 49534152 		.ascii	"ISAR\000"
 1757      00
 1758              	.LASF19:
 1759 025d 49535052 		.ascii	"ISPR\000"
 1759      00
 1760              	.LASF35:
 1761 0262 44465352 		.ascii	"DFSR\000"
 1761      00
 1762              	.LASF52:
 1763 0267 4E564943 		.ascii	"NVIC_IRQChannel\000"
 1763      5F495251 
 1763      4368616E 
 1763      6E656C00 
 1764              	.LASF54:
 1765 0277 4E564943 		.ascii	"NVIC_IRQChannelSubPriority\000"
 1765      5F495251 
ARM GAS  C:\Users\USER\AppData\Local\Temp\ccc4z5cN.s 			page 34


 1765      4368616E 
 1765      6E656C53 
 1765      75625072 
 1766              	.LASF48:
 1767 0292 53797374 		.ascii	"SystemCoreClock\000"
 1767      656D436F 
 1767      7265436C 
 1767      6F636B00 
 1768              	.LASF34:
 1769 02a2 48465352 		.ascii	"HFSR\000"
 1769      00
 1770              	.LASF17:
 1771 02a7 49434552 		.ascii	"ICER\000"
 1771      00
 1772              	.LASF39:
 1773 02ac 4D4D4652 		.ascii	"MMFR\000"
 1773      00
 1774              	.LASF15:
 1775 02b1 49534552 		.ascii	"ISER\000"
 1775      00
 1776              	.LASF20:
 1777 02b6 52455345 		.ascii	"RESERVED2\000"
 1777      52564544 
 1777      3200
 1778              	.LASF22:
 1779 02c0 52455345 		.ascii	"RESERVED3\000"
 1779      52564544 
 1779      3300
 1780              	.LASF24:
 1781 02ca 52455345 		.ascii	"RESERVED4\000"
 1781      52564544 
 1781      3400
 1782              	.LASF25:
 1783 02d4 52455345 		.ascii	"RESERVED5\000"
 1783      52564544 
 1783      3500
 1784              	.LASF8:
 1785 02de 6C6F6E67 		.ascii	"long unsigned int\000"
 1785      20756E73 
 1785      69676E65 
 1785      6420696E 
 1785      7400
 1786              	.LASF53:
 1787 02f0 4E564943 		.ascii	"NVIC_IRQChannelPreemptionPriority\000"
 1787      5F495251 
 1787      4368616E 
 1787      6E656C50 
 1787      7265656D 
 1788              	.LASF51:
 1789 0312 46756E63 		.ascii	"FunctionalState\000"
 1789      74696F6E 
 1789      616C5374 
 1789      61746500 
 1790              	.LASF5:
 1791 0322 5F5F696E 		.ascii	"__int32_t\000"
 1791      7433325F 
 1791      7400
ARM GAS  C:\Users\USER\AppData\Local\Temp\ccc4z5cN.s 			page 35


 1792              	.LASF63:
 1793 032c 4E564943 		.ascii	"NVIC_VectTab\000"
 1793      5F566563 
 1793      74546162 
 1793      00
 1794              	.LASF44:
 1795 0339 4C4F4144 		.ascii	"LOAD\000"
 1795      00
 1796              	.LASF71:
 1797 033e 474E5520 		.ascii	"GNU C99 8.2.1 20181213 (release) [gcc-8-branch revi"
 1797      43393920 
 1797      382E322E 
 1797      31203230 
 1797      31383132 
 1798 0371 73696F6E 		.ascii	"sion 267074] -mcpu=cortex-m4 -mfloat-abi=hard -mfpu"
 1798      20323637 
 1798      3037345D 
 1798      202D6D63 
 1798      70753D63 
 1799 03a4 3D667076 		.ascii	"=fpv4-sp-d16 -mno-thumb-interwork -mthumb -march=ar"
 1799      342D7370 
 1799      2D643136 
 1799      202D6D6E 
 1799      6F2D7468 
 1800 03d7 6D763765 		.ascii	"mv7e-m+fp -ggdb -O2 -std=gnu99 -fomit-frame-pointer"
 1800      2D6D2B66 
 1800      70202D67 
 1800      67646220 
 1800      2D4F3220 
 1801 040a 202D6661 		.ascii	" -falign-functions=16 -ffunction-sections -fdata-se"
 1801      6C69676E 
 1801      2D66756E 
 1801      6374696F 
 1801      6E733D31 
 1802 043d 6374696F 		.ascii	"ctions -fno-common -fsingle-precision-constant\000"
 1802      6E73202D 
 1802      666E6F2D 
 1802      636F6D6D 
 1802      6F6E202D 
 1803              	.LASF38:
 1804 046c 41465352 		.ascii	"AFSR\000"
 1804      00
 1805              	.LASF60:
 1806 0471 4C6F7750 		.ascii	"LowPowerMode\000"
 1806      6F776572 
 1806      4D6F6465 
 1806      00
 1807              	.LASF47:
 1808 047e 49544D5F 		.ascii	"ITM_RxBuffer\000"
 1808      52784275 
 1808      66666572 
 1808      00
 1809              	.LASF41:
 1810 048b 43504143 		.ascii	"CPACR\000"
 1810      5200
 1811              	.LASF50:
 1812 0491 454E4142 		.ascii	"ENABLE\000"
ARM GAS  C:\Users\USER\AppData\Local\Temp\ccc4z5cN.s 			page 36


 1812      4C4500
 1813              	.LASF74:
 1814 0498 4E564943 		.ascii	"NVIC_PriorityGroupConfig\000"
 1814      5F507269 
 1814      6F726974 
 1814      7947726F 
 1814      7570436F 
 1815              		.ident	"GCC: (GNU Tools for Arm Embedded Processors 8-2018-q4-major) 8.2.1 20181213 (release) [gcc
ARM GAS  C:\Users\USER\AppData\Local\Temp\ccc4z5cN.s 			page 37


DEFINED SYMBOLS
                            *ABS*:00000000 misc.c
C:\Users\USER\AppData\Local\Temp\ccc4z5cN.s:18     .text.NVIC_PriorityGroupConfig:00000000 $t
C:\Users\USER\AppData\Local\Temp\ccc4z5cN.s:27     .text.NVIC_PriorityGroupConfig:00000000 NVIC_PriorityGroupConfig
C:\Users\USER\AppData\Local\Temp\ccc4z5cN.s:52     .text.NVIC_PriorityGroupConfig:00000010 $d
C:\Users\USER\AppData\Local\Temp\ccc4z5cN.s:57     .text.NVIC_Init:00000000 $t
C:\Users\USER\AppData\Local\Temp\ccc4z5cN.s:65     .text.NVIC_Init:00000000 NVIC_Init
C:\Users\USER\AppData\Local\Temp\ccc4z5cN.s:174    .text.NVIC_Init:00000058 $d
C:\Users\USER\AppData\Local\Temp\ccc4z5cN.s:180    .text.NVIC_SetVectorTable:00000000 $t
C:\Users\USER\AppData\Local\Temp\ccc4z5cN.s:188    .text.NVIC_SetVectorTable:00000000 NVIC_SetVectorTable
C:\Users\USER\AppData\Local\Temp\ccc4z5cN.s:215    .text.NVIC_SetVectorTable:00000010 $d
C:\Users\USER\AppData\Local\Temp\ccc4z5cN.s:220    .text.NVIC_SystemLPConfig:00000000 $t
C:\Users\USER\AppData\Local\Temp\ccc4z5cN.s:228    .text.NVIC_SystemLPConfig:00000000 NVIC_SystemLPConfig
C:\Users\USER\AppData\Local\Temp\ccc4z5cN.s:259    .text.NVIC_SystemLPConfig:00000014 $d
C:\Users\USER\AppData\Local\Temp\ccc4z5cN.s:264    .text.SysTick_CLKSourceConfig:00000000 $t
C:\Users\USER\AppData\Local\Temp\ccc4z5cN.s:272    .text.SysTick_CLKSourceConfig:00000000 SysTick_CLKSourceConfig
C:\Users\USER\AppData\Local\Temp\ccc4z5cN.s:300    .text.SysTick_CLKSourceConfig:00000014 $d

NO UNDEFINED SYMBOLS
