ARM GAS  C:\Users\USER\AppData\Local\Temp\ccc4z5cN.s 			page 1


   1              		.cpu cortex-m4
   2              		.eabi_attribute 27, 1
   3              		.eabi_attribute 28, 1
   4              		.eabi_attribute 20, 1
   5              		.eabi_attribute 21, 1
   6              		.eabi_attribute 23, 3
   7              		.eabi_attribute 24, 1
   8              		.eabi_attribute 25, 1
   9              		.eabi_attribute 26, 1
  10              		.eabi_attribute 30, 2
  11              		.eabi_attribute 34, 1
  12              		.eabi_attribute 18, 4
  13              		.file	"misc.c"
  14              		.text
  15              	.Ltext0:
  16              		.cfi_sections	.debug_frame
  17              		.section	.text.NVIC_PriorityGroupConfig,"ax",%progbits
  18              		.align	1
  19              		.p2align 4,,15
  20              		.global	NVIC_PriorityGroupConfig
  21              		.arch armv7e-m
  22              		.syntax unified
  23              		.thumb
  24              		.thumb_func
  25              		.fpu fpv4-sp-d16
  26              		.type	NVIC_PriorityGroupConfig, %function
  27              	NVIC_PriorityGroupConfig:
  28              	.LVL0:
  29              	.LFB112:
  30              		.file 1 "src/ChibiOS_3.0.2/ext/stdperiph_stm32f4/src/misc.c"
  31              		.loc 1 123 1 view -0
  32              		.cfi_startproc
  33              		@ args = 0, pretend = 0, frame = 0
  34              		@ frame_needed = 0, uses_anonymous_args = 0
  35              		@ link register save eliminated.
  36              		.loc 1 125 3 view .LVU1
  37              		.loc 1 128 3 view .LVU2
  38              		.loc 1 128 35 is_stmt 0 view .LVU3
  39 0000 40F0BF60 		orr	r0, r0, #100139008
  40              	.LVL1:
  41              		.loc 1 128 14 view .LVU4
  42 0004 024B     		ldr	r3, .L3
  43              		.loc 1 128 35 view .LVU5
  44 0006 40F40030 		orr	r0, r0, #131072
  45              		.loc 1 128 14 view .LVU6
  46 000a D860     		str	r0, [r3, #12]
  47              		.loc 1 129 1 view .LVU7
  48 000c 7047     		bx	lr
  49              	.L4:
  50 000e 00BF     		.align	2
  51              	.L3:
  52 0010 00ED00E0 		.word	-536810240
  53              		.cfi_endproc
  54              	.LFE112:
  55              		.size	NVIC_PriorityGroupConfig, .-NVIC_PriorityGroupConfig
  56              		.section	.text.NVIC_Init,"ax",%progbits
  57              		.align	1
ARM GAS  C:\Users\USER\AppData\Local\Temp\ccc4z5cN.s 			page 2


  58              		.p2align 4,,15
  59              		.global	NVIC_Init
  60              		.syntax unified
  61              		.thumb
  62              		.thumb_func
  63              		.fpu fpv4-sp-d16
  64              		.type	NVIC_Init, %function
  65              	NVIC_Init:
  66              	.LVL2:
  67              	.LFB113:
  68              		.loc 1 141 1 is_stmt 1 view -0
  69              		.cfi_startproc
  70              		@ args = 0, pretend = 0, frame = 0
  71              		@ frame_needed = 0, uses_anonymous_args = 0
  72              		@ link register save eliminated.
  73              		.loc 1 142 3 view .LVU9
  74              		.loc 1 145 3 view .LVU10
  75              		.loc 1 146 3 view .LVU11
  76              		.loc 1 147 3 view .LVU12
  77              		.loc 1 149 3 view .LVU13
  78              		.loc 1 141 1 is_stmt 0 view .LVU14
  79 0000 F0B4     		push	{r4, r5, r6, r7}
  80              		.cfi_def_cfa_offset 16
  81              		.cfi_offset 4, -16
  82              		.cfi_offset 5, -12
  83              		.cfi_offset 6, -8
  84              		.cfi_offset 7, -4
  85 0002 0178     		ldrb	r1, [r0]	@ zero_extendqisi2
  86              		.loc 1 149 6 view .LVU15
  87 0004 C378     		ldrb	r3, [r0, #3]	@ zero_extendqisi2
  88 0006 0124     		movs	r4, #1
  89 0008 01F01F02 		and	r2, r1, #31
  90 000c 9440     		lsls	r4, r4, r2
  91 000e 4E09     		lsrs	r6, r1, #5
  92 0010 DBB1     		cbz	r3, .L6
  93              		.loc 1 152 5 is_stmt 1 view .LVU16
  94              		.loc 1 152 33 is_stmt 0 view .LVU17
  95 0012 114A     		ldr	r2, .L9
  96              		.loc 1 156 34 view .LVU18
  97 0014 4378     		ldrb	r3, [r0, #1]	@ zero_extendqisi2
  98              		.loc 1 152 33 view .LVU19
  99 0016 D568     		ldr	r5, [r2, #12]
 100              		.loc 1 157 21 view .LVU20
 101 0018 8278     		ldrb	r2, [r0, #2]	@ zero_extendqisi2
 102              		.loc 1 161 48 view .LVU21
 103 001a 104F     		ldr	r7, .L9+4
 104              		.loc 1 152 26 view .LVU22
 105 001c E843     		mvns	r0, r5
 106              	.LVL3:
 107              		.loc 1 152 17 view .LVU23
 108 001e C0F30220 		ubfx	r0, r0, #8, #3
 109              	.LVL4:
 110              		.loc 1 153 5 is_stmt 1 view .LVU24
 111              		.loc 1 154 5 view .LVU25
 112              		.loc 1 156 5 view .LVU26
 113              		.loc 1 153 12 is_stmt 0 view .LVU27
 114 0022 C0F10405 		rsb	r5, r0, #4
ARM GAS  C:\Users\USER\AppData\Local\Temp\ccc4z5cN.s 			page 3


 115              		.loc 1 156 70 view .LVU28
 116 0026 EDB2     		uxtb	r5, r5
 117 0028 AB40     		lsls	r3, r3, r5
 118              		.loc 1 154 21 view .LVU29
 119 002a 0F25     		movs	r5, #15
 120 002c 45FA00F0 		asr	r0, r5, r0
 121              	.LVL5:
 122              		.loc 1 156 17 view .LVU30
 123 0030 DDB2     		uxtb	r5, r3
 124              	.LVL6:
 125              		.loc 1 157 5 is_stmt 1 view .LVU31
 126              		.loc 1 157 21 is_stmt 0 view .LVU32
 127 0032 02EA0003 		and	r3, r2, r0
 128              		.loc 1 157 17 view .LVU33
 129 0036 2B43     		orrs	r3, r3, r5
 130              	.LVL7:
 131              		.loc 1 159 5 is_stmt 1 view .LVU34
 132              		.loc 1 161 48 is_stmt 0 view .LVU35
 133 0038 3944     		add	r1, r1, r7
 134              		.loc 1 159 17 view .LVU36
 135 003a 1B01     		lsls	r3, r3, #4
 136              	.LVL8:
 137              		.loc 1 159 17 view .LVU37
 138 003c DBB2     		uxtb	r3, r3
 139              	.LVL9:
 140              		.loc 1 161 5 is_stmt 1 view .LVU38
 141              		.loc 1 161 48 is_stmt 0 view .LVU39
 142 003e 81F80033 		strb	r3, [r1, #768]
 143              		.loc 1 164 5 is_stmt 1 view .LVU40
 144              		.loc 1 164 58 is_stmt 0 view .LVU41
 145 0042 47F82640 		str	r4, [r7, r6, lsl #2]
 146              		.loc 1 173 1 view .LVU42
 147 0046 F0BC     		pop	{r4, r5, r6, r7}
 148              		.cfi_remember_state
 149              		.cfi_restore 7
 150              		.cfi_restore 6
 151              		.cfi_restore 5
 152              		.cfi_restore 4
 153              		.cfi_def_cfa_offset 0
 154 0048 7047     		bx	lr
 155              	.LVL10:
 156              	.L6:
 157              		.cfi_restore_state
 158              		.loc 1 170 5 is_stmt 1 view .LVU43
 159              		.loc 1 170 58 is_stmt 0 view .LVU44
 160 004a 2036     		adds	r6, r6, #32
 161 004c 034B     		ldr	r3, .L9+4
 162 004e 43F82640 		str	r4, [r3, r6, lsl #2]
 163              		.loc 1 173 1 view .LVU45
 164 0052 F0BC     		pop	{r4, r5, r6, r7}
 165              		.cfi_restore 7
 166              		.cfi_restore 6
 167              		.cfi_restore 5
 168              		.cfi_restore 4
 169              		.cfi_def_cfa_offset 0
 170 0054 7047     		bx	lr
 171              	.L10:
ARM GAS  C:\Users\USER\AppData\Local\Temp\ccc4z5cN.s 			page 4


 172 0056 00BF     		.align	2
 173              	.L9:
 174 0058 00ED00E0 		.word	-536810240
 175 005c 00E100E0 		.word	-536813312
 176              		.cfi_endproc
 177              	.LFE113:
 178              		.size	NVIC_Init, .-NVIC_Init
 179              		.section	.text.NVIC_SetVectorTable,"ax",%progbits
 180              		.align	1
 181              		.p2align 4,,15
 182              		.global	NVIC_SetVectorTable
 183              		.syntax unified
 184              		.thumb
 185              		.thumb_func
 186              		.fpu fpv4-sp-d16
 187              		.type	NVIC_SetVectorTable, %function
 188              	NVIC_SetVectorTable:
 189              	.LVL11:
 190              	.LFB114:
 191              		.loc 1 185 1 is_stmt 1 view -0
 192              		.cfi_startproc
 193              		@ args = 0, pretend = 0, frame = 0
 194              		@ frame_needed = 0, uses_anonymous_args = 0
 195              		@ link register save eliminated.
 196              		.loc 1 187 3 view .LVU47
 197              		.loc 1 188 3 view .LVU48
 198              		.loc 1 190 3 view .LVU49
 199              		.loc 1 190 38 is_stmt 0 view .LVU50
 200 0000 21F06041 		bic	r1, r1, #-536870912
 201              	.LVL12:
 202              		.loc 1 190 38 view .LVU51
 203 0004 21F07F01 		bic	r1, r1, #127
 204              		.loc 1 190 13 view .LVU52
 205 0008 014B     		ldr	r3, .L12
 206              		.loc 1 190 28 view .LVU53
 207 000a 0143     		orrs	r1, r1, r0
 208              		.loc 1 190 13 view .LVU54
 209 000c 9960     		str	r1, [r3, #8]
 210              		.loc 1 191 1 view .LVU55
 211 000e 7047     		bx	lr
 212              	.L13:
 213              		.align	2
 214              	.L12:
 215 0010 00ED00E0 		.word	-536810240
 216              		.cfi_endproc
 217              	.LFE114:
 218              		.size	NVIC_SetVectorTable, .-NVIC_SetVectorTable
 219              		.section	.text.NVIC_SystemLPConfig,"ax",%progbits
 220              		.align	1
 221              		.p2align 4,,15
 222              		.global	NVIC_SystemLPConfig
 223              		.syntax unified
 224              		.thumb
 225              		.thumb_func
 226              		.fpu fpv4-sp-d16
 227              		.type	NVIC_SystemLPConfig, %function
 228              	NVIC_SystemLPConfig:
ARM GAS  C:\Users\USER\AppData\Local\Temp\ccc4z5cN.s 			page 5


 229              	.LVL13:
 230              	.LFB115:
 231              		.loc 1 204 1 is_stmt 1 view -0
 232              		.cfi_startproc
 233              		@ args = 0, pretend = 0, frame = 0
 234              		@ frame_needed = 0, uses_anonymous_args = 0
 235              		@ link register save eliminated.
 236              		.loc 1 206 3 view .LVU57
 237              		.loc 1 207 3 view .LVU58
 238              		.loc 1 209 3 view .LVU59
 239              		.loc 1 211 14 is_stmt 0 view .LVU60
 240 0000 044A     		ldr	r2, .L17
 241 0002 1369     		ldr	r3, [r2, #16]
 242              		.loc 1 209 6 view .LVU61
 243 0004 11B1     		cbz	r1, .L15
 244              		.loc 1 211 5 is_stmt 1 view .LVU62
 245              		.loc 1 211 14 is_stmt 0 view .LVU63
 246 0006 0343     		orrs	r3, r3, r0
 247 0008 1361     		str	r3, [r2, #16]
 248 000a 7047     		bx	lr
 249              	.L15:
 250              		.loc 1 215 5 is_stmt 1 view .LVU64
 251              		.loc 1 215 14 is_stmt 0 view .LVU65
 252 000c 23EA0003 		bic	r3, r3, r0
 253 0010 1361     		str	r3, [r2, #16]
 254              		.loc 1 217 1 view .LVU66
 255 0012 7047     		bx	lr
 256              	.L18:
 257              		.align	2
 258              	.L17:
 259 0014 00ED00E0 		.word	-536810240
 260              		.cfi_endproc
 261              	.LFE115:
 262              		.size	NVIC_SystemLPConfig, .-NVIC_SystemLPConfig
 263              		.section	.text.SysTick_CLKSourceConfig,"ax",%progbits
 264              		.align	1
 265              		.p2align 4,,15
 266              		.global	SysTick_CLKSourceConfig
 267              		.syntax unified
 268              		.thumb
 269              		.thumb_func
 270              		.fpu fpv4-sp-d16
 271              		.type	SysTick_CLKSourceConfig, %function
 272              	SysTick_CLKSourceConfig:
 273              	.LVL14:
 274              	.LFB116:
 275              		.loc 1 228 1 is_stmt 1 view -0
 276              		.cfi_startproc
 277              		@ args = 0, pretend = 0, frame = 0
 278              		@ frame_needed = 0, uses_anonymous_args = 0
 279              		@ link register save eliminated.
 280              		.loc 1 230 3 view .LVU68
 281              		.loc 1 231 3 view .LVU69
 282              		.loc 1 233 19 is_stmt 0 view .LVU70
 283 0000 044A     		ldr	r2, .L22
 284 0002 1368     		ldr	r3, [r2]
 285              		.loc 1 231 6 view .LVU71
ARM GAS  C:\Users\USER\AppData\Local\Temp\ccc4z5cN.s 			page 6


 286 0004 0428     		cmp	r0, #4
 287              		.loc 1 233 5 is_stmt 1 view .LVU72
 288              		.loc 1 233 19 is_stmt 0 view .LVU73
 289 0006 0CBF     		ite	eq
 290 0008 43F00403 		orreq	r3, r3, #4
 291              		.loc 1 237 5 is_stmt 1 view .LVU74
 292              		.loc 1 237 19 is_stmt 0 view .LVU75
 293 000c 23F00403 		bicne	r3, r3, #4
 294 0010 1360     		str	r3, [r2]
 295              		.loc 1 239 1 view .LVU76
 296 0012 7047     		bx	lr
 297              	.L23:
 298              		.align	2
 299              	.L22:
 300 0014 10E000E0 		.word	-536813552
 301              		.cfi_endproc
 302              	.LFE116:
 303              		.size	SysTick_CLKSourceConfig, .-SysTick_CLKSourceConfig
 304              		.text
 305              	.Letext0:
 306              		.file 2 "c:\\program files (x86)\\gnu tools arm embedded\\8 2018-q4-major\\arm-none-eabi\\include\
 307              		.file 3 "c:\\program files (x86)\\gnu tools arm embedded\\8 2018-q4-major\\arm-none-eabi\\include\
 308              		.file 4 "src/ChibiOS_3.0.2/os/ext/CMSIS/include/core_cm4.h"
 309              		.file 5 "src/ChibiOS_3.0.2/os/ext/CMSIS/ST/system_stm32f4xx.h"
 310              		.file 6 "src/ChibiOS_3.0.2/os/ext/CMSIS/ST/stm32f4xx.h"
 311              		.file 7 "src/ChibiOS_3.0.2/ext/stdperiph_stm32f4/inc/misc.h"