ARM GAS  C:\Users\USER\AppData\Local\Temp\ccyjblgz.s 			page 1


   1              		.cpu cortex-m4
   2              		.eabi_attribute 27, 1
   3              		.eabi_attribute 28, 1
   4              		.eabi_attribute 20, 1
   5              		.eabi_attribute 21, 1
   6              		.eabi_attribute 23, 3
   7              		.eabi_attribute 24, 1
   8              		.eabi_attribute 25, 1
   9              		.eabi_attribute 26, 1
  10              		.eabi_attribute 30, 2
  11              		.eabi_attribute 34, 1
  12              		.eabi_attribute 18, 4
  13              		.file	"pal.c"
  14              		.text
  15              	.Ltext0:
  16              		.cfi_sections	.debug_frame
  17              		.section	.text.palReadBus,"ax",%progbits
  18              		.align	1
  19              		.p2align 4,,15
  20              		.global	palReadBus
  21              		.arch armv7e-m
  22              		.syntax unified
  23              		.thumb
  24              		.thumb_func
  25              		.fpu fpv4-sp-d16
  26              		.type	palReadBus, %function
  27              	palReadBus:
  28              	.LVL0:
  29              	.LFB256:
  30              		.file 1 "src/ChibiOS_3.0.2/os/hal/src/pal.c"
  31              		.loc 1 65 37 view -0
  32              		.cfi_startproc
  33              		@ args = 0, pretend = 0, frame = 0
  34              		@ frame_needed = 0, uses_anonymous_args = 0
  35              		@ link register save eliminated.
  36              		.loc 1 67 3 view .LVU1
  37              		.loc 1 67 3 view .LVU2
  38              		.loc 1 69 3 view .LVU3
  39              		.loc 1 69 10 is_stmt 0 view .LVU4
  40 0000 0368     		ldr	r3, [r0]
  41 0002 8268     		ldr	r2, [r0, #8]
  42 0004 1B69     		ldr	r3, [r3, #16]
  43 0006 4068     		ldr	r0, [r0, #4]
  44              	.LVL1:
  45              		.loc 1 69 10 view .LVU5
  46 0008 D340     		lsrs	r3, r3, r2
  47              		.loc 1 70 1 view .LVU6
  48 000a 1840     		ands	r0, r0, r3
  49 000c 7047     		bx	lr
  50              		.cfi_endproc
  51              	.LFE256:
  52              		.size	palReadBus, .-palReadBus
  53 000e 00BF     		.section	.text.palWriteBus,"ax",%progbits
  54              		.align	1
  55              		.p2align 4,,15
  56              		.global	palWriteBus
  57              		.syntax unified
ARM GAS  C:\Users\USER\AppData\Local\Temp\ccyjblgz.s 			page 2


  58              		.thumb
  59              		.thumb_func
  60              		.fpu fpv4-sp-d16
  61              		.type	palWriteBus, %function
  62              	palWriteBus:
  63              	.LVL2:
  64              	.LFB257:
  65              		.loc 1 90 49 is_stmt 1 view -0
  66              		.cfi_startproc
  67              		@ args = 0, pretend = 0, frame = 0
  68              		@ frame_needed = 0, uses_anonymous_args = 0
  69              		@ link register save eliminated.
  70              		.loc 1 92 3 view .LVU8
  71              		.loc 1 92 3 view .LVU9
  72              		.loc 1 94 3 view .LVU10
  73              		.loc 1 90 49 is_stmt 0 view .LVU11
  74 0000 10B4     		push	{r4}
  75              		.cfi_def_cfa_offset 4
  76              		.cfi_offset 4, -4
  77              		.loc 1 94 3 view .LVU12
  78 0002 D0E90142 		ldrd	r4, r2, [r0, #4]
  79 0006 24EA0103 		bic	r3, r4, r1
  80 000a 2140     		ands	r1, r1, r4
  81              	.LVL3:
  82              		.loc 1 94 3 view .LVU13
  83 000c 02F11004 		add	r4, r2, #16
  84 0010 A340     		lsls	r3, r3, r4
  85 0012 0068     		ldr	r0, [r0]
  86              	.LVL4:
  87              		.loc 1 95 1 view .LVU14
  88 0014 5DF8044B 		ldr	r4, [sp], #4
  89              		.cfi_restore 4
  90              		.cfi_def_cfa_offset 0
  91              		.loc 1 94 3 view .LVU15
  92 0018 9140     		lsls	r1, r1, r2
  93 001a 1943     		orrs	r1, r1, r3
  94 001c 8161     		str	r1, [r0, #24]
  95              		.loc 1 95 1 view .LVU16
  96 001e 7047     		bx	lr
  97              		.cfi_endproc
  98              	.LFE257:
  99              		.size	palWriteBus, .-palWriteBus
 100              		.section	.text.palSetBusMode,"ax",%progbits
 101              		.align	1
 102              		.p2align 4,,15
 103              		.global	palSetBusMode
 104              		.syntax unified
 105              		.thumb
 106              		.thumb_func
 107              		.fpu fpv4-sp-d16
 108              		.type	palSetBusMode, %function
 109              	palSetBusMode:
 110              	.LVL5:
 111              	.LFB258:
 112              		.loc 1 113 47 is_stmt 1 view -0
 113              		.cfi_startproc
 114              		@ args = 0, pretend = 0, frame = 0
ARM GAS  C:\Users\USER\AppData\Local\Temp\ccyjblgz.s 			page 3


 115              		@ frame_needed = 0, uses_anonymous_args = 0
 116              		@ link register save eliminated.
 117              		.loc 1 115 3 view .LVU18
 118              		.loc 1 115 3 view .LVU19
 119              		.loc 1 117 3 view .LVU20
 120 0000 0A46     		mov	r2, r1
 121 0002 D0E90113 		ldrd	r1, r3, [r0, #4]
 122              	.LVL6:
 123              		.loc 1 117 3 is_stmt 0 view .LVU21
 124 0006 0068     		ldr	r0, [r0]
 125              	.LVL7:
 126              		.loc 1 117 3 view .LVU22
 127 0008 9940     		lsls	r1, r1, r3
 128 000a FFF7FEBF 		b	_pal_lld_setgroupmode
 129              	.LVL8:
 130              		.loc 1 117 3 view .LVU23
 131              		.cfi_endproc
 132              	.LFE258:
 133              		.size	palSetBusMode, .-palSetBusMode
 134 000e 00BF     		.text
 135              	.Letext0:
 136              		.file 2 "c:\\program files (x86)\\gnu tools arm embedded\\8 2018-q4-major\\lib\\gcc\\arm-none-eabi
 137              		.file 3 "c:\\program files (x86)\\gnu tools arm embedded\\8 2018-q4-major\\arm-none-eabi\\include\
 138              		.file 4 "c:\\program files (x86)\\gnu tools arm embedded\\8 2018-q4-major\\arm-none-eabi\\include\
 139              		.file 5 "c:\\program files (x86)\\gnu tools arm embedded\\8 2018-q4-major\\arm-none-eabi\\include\
 140              		.file 6 "src/ChibiOS_3.0.2/os/rt/ports/ARMCMx/compilers/GCC/chtypes.h"
 141              		.file 7 "src/ChibiOS_3.0.2/os/rt/include/chsystypes.h"
 142              		.file 8 "src/ChibiOS_3.0.2/os/rt/include/chschd.h"
 143              		.file 9 "src/ChibiOS_3.0.2/os/ext/CMSIS/include/core_cm4.h"
 144              		.file 10 "src/ChibiOS_3.0.2/os/ext/CMSIS/ST/system_stm32f4xx.h"
 145              		.file 11 "src/ChibiOS_3.0.2/os/ext/CMSIS/ST/stm32f407xx.h"
 146              		.file 12 "src/ChibiOS_3.0.2/os/rt/ports/ARMCMx/chcore.h"
 147              		.file 13 "src/ChibiOS_3.0.2/os/rt/ports/ARMCMx/chcore_v7m.h"
 148              		.file 14 "src/ChibiOS_3.0.2/os/rt/include/chtm.h"
 149              		.file 15 "src/ChibiOS_3.0.2/os/rt/include/chsem.h"
 150              		.file 16 "src/ChibiOS_3.0.2/os/rt/include/chmtx.h"
 151              		.file 17 "src/ChibiOS_3.0.2/os/rt/include/chregistry.h"
 152              		.file 18 "src/ChibiOS_3.0.2/os/rt/include/chevents.h"
 153              		.file 19 "src/ChibiOS_3.0.2/os/rt/include/chqueues.h"
 154              		.file 20 "src/ChibiOS_3.0.2/os/hal/ports/STM32/STM32F4xx/stm32_dma.h"
 155              		.file 21 "src/ChibiOS_3.0.2/os/hal/ports/STM32/LLD/GPIOv2/pal_lld.h"
 156              		.file 22 "src/ChibiOS_3.0.2/os/hal/include/pal.h"
 157              		.file 23 "src/ChibiOS_3.0.2/os/hal/include/can.h"
 158              		.file 24 "src/ChibiOS_3.0.2/os/hal/ports/STM32/LLD/can_lld.h"
 159              		.file 25 "src/ChibiOS_3.0.2/os/hal/include/i2c.h"
 160              		.file 26 "src/ChibiOS_3.0.2/os/hal/ports/STM32/LLD/I2Cv1/i2c_lld.h"
 161              		.file 27 "src/ChibiOS_3.0.2/os/hal/include/icu.h"
 162              		.file 28 "src/ChibiOS_3.0.2/os/hal/ports/STM32/LLD/TIMv1/icu_lld.h"
 163              		.file 29 "src/ChibiOS_3.0.2/os/hal/ports/STM32/LLD/TIMv1/stm32_tim.h"
 164              		.file 30 "src/ChibiOS_3.0.2/os/hal/include/serial.h"
 165              		.file 31 "src/ChibiOS_3.0.2/os/hal/ports/STM32/LLD/USARTv1/serial_lld.h"
 166              		.file 32 "src/ChibiOS_3.0.2/os/hal/include/spi.h"
 167              		.file 33 "src/ChibiOS_3.0.2/os/hal/ports/STM32/LLD/SPIv1/spi_lld.h"
 168              		.file 34 "src/ChibiOS_3.0.2/os/hal/include/uart.h"
 169              		.file 35 "src/ChibiOS_3.0.2/os/hal/ports/STM32/LLD/USARTv1/uart_lld.h"
 170              		.file 36 "src/ChibiOS_3.0.2/os/hal/include/usb.h"
 171              		.file 37 "src/ChibiOS_3.0.2/os/hal/ports/STM32/LLD/OTGv1/usb_lld.h"
ARM GAS  C:\Users\USER\AppData\Local\Temp\ccyjblgz.s 			page 4


 172              		.file 38 "src/ChibiOS_3.0.2/os/hal/ports/STM32/LLD/OTGv1/stm32_otg.h"