ARM GAS  C:\Users\IDONNO~1\AppData\Local\Temp\cccTUF0N.s 			page 1


   1              		.syntax unified
   2              		.cpu cortex-m4
   3              		.eabi_attribute 27, 1
   4              		.eabi_attribute 28, 1
   5              		.fpu fpv4-sp-d16
   6              		.eabi_attribute 20, 1
   7              		.eabi_attribute 21, 1
   8              		.eabi_attribute 23, 3
   9              		.eabi_attribute 24, 1
  10              		.eabi_attribute 25, 1
  11              		.eabi_attribute 26, 1
  12              		.eabi_attribute 30, 2
  13              		.eabi_attribute 34, 1
  14              		.eabi_attribute 18, 4
  15              		.thumb
  16              		.syntax unified
  17              		.file	"rfhelp.c"
  18              		.text
  19              	.Ltext0:
  20              		.cfi_sections	.debug_frame
  21              		.section	.text.rfhelp_init,"ax",%progbits
  22              		.align	2
  23              		.p2align 4,,15
  24              		.global	rfhelp_init
  25              		.thumb
  26              		.thumb_func
  27              		.type	rfhelp_init, %function
  28              	rfhelp_init:
  29              	.LFB256:
  30              		.file 1 "src/core/rfhelp.c"
  31              		.loc 1 35 0
  32              		.cfi_startproc
  33              		@ args = 0, pretend = 0, frame = 0
  34              		@ frame_needed = 0, uses_anonymous_args = 0
  35 0000 70B5     		push	{r4, r5, r6, lr}
  36              		.cfi_def_cfa_offset 16
  37              		.cfi_offset 4, -16
  38              		.cfi_offset 5, -12
  39              		.cfi_offset 6, -8
  40              		.cfi_offset 14, -4
  41              		.loc 1 36 0
  42 0002 1248     		ldr	r0, .L6
  43              		.loc 1 40 0
  44 0004 124D     		ldr	r5, .L6+4
  45 0006 134C     		ldr	r4, .L6+8
  46              		.loc 1 36 0
  47 0008 FFF7FEFF 		bl	chMtxObjectInit
  48              	.LVL0:
  49              		.loc 1 37 0
  50 000c FFF7FEFF 		bl	rf_init
  51              	.LVL1:
  52              		.loc 1 40 0
  53 0010 0322     		movs	r2, #3
  54 0012 2A60     		str	r2, [r5]
  55              	.LVL2:
  56 0014 04F11E06 		add	r6, r4, #30
  57              	.LVL3:
ARM GAS  C:\Users\IDONNO~1\AppData\Local\Temp\cccTUF0N.s 			page 2


  58              	.L3:
  59              	.LBB2:
  60              		.loc 1 48 0 discriminator 3
  61 0018 2146     		mov	r1, r4
  62 001a 0A20     		movs	r0, #10
  63 001c 0534     		adds	r4, r4, #5
  64 001e FFF7FEFF 		bl	rf_read_reg
  65              	.LVL4:
  66              		.loc 1 47 0 discriminator 3
  67 0022 B442     		cmp	r4, r6
  68 0024 2A68     		ldr	r2, [r5]
  69 0026 F7D1     		bne	.L3
  70              	.LBE2:
  71              		.loc 1 52 0
  72 0028 0B49     		ldr	r1, .L6+12
  73 002a 1020     		movs	r0, #16
  74 002c FFF7FEFF 		bl	rf_read_reg
  75              	.LVL5:
  76              		.loc 1 53 0
  77 0030 2A68     		ldr	r2, [r5]
  78 0032 0949     		ldr	r1, .L6+12
  79 0034 0748     		ldr	r0, .L6+8
  80 0036 FFF7FEFF 		bl	memcmp
  81              	.LVL6:
  82 003a 0849     		ldr	r1, .L6+16
  83              		.loc 1 58 0
  84 003c 084B     		ldr	r3, .L6+20
  85              		.loc 1 53 0
  86 003e B0FA80F0 		clz	r0, r0
  87 0042 4009     		lsrs	r0, r0, #5
  88              		.loc 1 58 0
  89 0044 0122     		movs	r2, #1
  90              		.loc 1 53 0
  91 0046 0870     		strb	r0, [r1]
  92              		.loc 1 58 0
  93 0048 1A70     		strb	r2, [r3]
  94 004a 70BD     		pop	{r4, r5, r6, pc}
  95              	.L7:
  96              		.align	2
  97              	.L6:
  98 004c 00000000 		.word	.LANCHOR0
  99 0050 00000000 		.word	.LANCHOR1
 100 0054 00000000 		.word	.LANCHOR2
 101 0058 00000000 		.word	.LANCHOR3
 102 005c 00000000 		.word	.LANCHOR4
 103 0060 00000000 		.word	.LANCHOR5
 104              		.cfi_endproc
 105              	.LFE256:
 106              		.size	rfhelp_init, .-rfhelp_init
 107              		.section	.text.rfhelp_restart,"ax",%progbits
 108              		.align	2
 109              		.p2align 4,,15
 110              		.global	rfhelp_restart
 111              		.thumb
 112              		.thumb_func
 113              		.type	rfhelp_restart, %function
 114              	rfhelp_restart:
ARM GAS  C:\Users\IDONNO~1\AppData\Local\Temp\cccTUF0N.s 			page 3


 115              	.LFB258:
 116              		.loc 1 72 0
 117              		.cfi_startproc
 118              		@ args = 0, pretend = 0, frame = 0
 119              		@ frame_needed = 0, uses_anonymous_args = 0
 120 0000 F8B5     		push	{r3, r4, r5, r6, r7, lr}
 121              		.cfi_def_cfa_offset 24
 122              		.cfi_offset 3, -24
 123              		.cfi_offset 4, -20
 124              		.cfi_offset 5, -16
 125              		.cfi_offset 6, -12
 126              		.cfi_offset 7, -8
 127              		.cfi_offset 14, -4
 128              		.loc 1 73 0
 129 0002 2B4E     		ldr	r6, .L10
 130              		.loc 1 83 0
 131 0004 2B4C     		ldr	r4, .L10+4
 132              		.loc 1 97 0
 133 0006 2C4D     		ldr	r5, .L10+8
 134              		.loc 1 100 0
 135 0008 2C4F     		ldr	r7, .L10+12
 136              		.loc 1 73 0
 137 000a 3046     		mov	r0, r6
 138 000c FFF7FEFF 		bl	chMtxLock
 139              	.LVL7:
 140              		.loc 1 75 0
 141 0010 FFF7FEFF 		bl	rf_power_down
 142              	.LVL8:
 143              		.loc 1 80 0
 144 0014 0021     		movs	r1, #0
 145 0016 0220     		movs	r0, #2
 146 0018 FFF7FEFF 		bl	rf_write_reg_byte
 147              	.LVL9:
 148              		.loc 1 81 0
 149 001c 0021     		movs	r1, #0
 150 001e 1C20     		movs	r0, #28
 151 0020 FFF7FEFF 		bl	rf_write_reg_byte
 152              	.LVL10:
 153              		.loc 1 83 0
 154 0024 A078     		ldrb	r0, [r4, #2]	@ zero_extendqisi2
 155 0026 FFF7FEFF 		bl	rf_set_crc_type
 156              	.LVL11:
 157              		.loc 1 84 0
 158 002a 2079     		ldrb	r0, [r4, #4]	@ zero_extendqisi2
 159 002c FFF7FEFF 		bl	rf_set_retr_retries
 160              	.LVL12:
 161              		.loc 1 85 0
 162 0030 E078     		ldrb	r0, [r4, #3]	@ zero_extendqisi2
 163 0032 FFF7FEFF 		bl	rf_set_retr_delay
 164              	.LVL13:
 165              		.loc 1 86 0
 166 0036 6078     		ldrb	r0, [r4, #1]	@ zero_extendqisi2
 167 0038 FFF7FEFF 		bl	rf_set_power
 168              	.LVL14:
 169              		.loc 1 87 0
 170 003c 2078     		ldrb	r0, [r4]	@ zero_extendqisi2
 171 003e FFF7FEFF 		bl	rf_set_speed
ARM GAS  C:\Users\IDONNO~1\AppData\Local\Temp\cccTUF0N.s 			page 4


 172              	.LVL15:
 173              		.loc 1 88 0
 174 0042 0020     		movs	r0, #0
 175 0044 FFF7FEFF 		bl	rf_set_address_width
 176              	.LVL16:
 177              		.loc 1 89 0
 178 0048 6079     		ldrb	r0, [r4, #5]	@ zero_extendqisi2
 179 004a 00F51660 		add	r0, r0, #2400
 180 004e FFF7FEFF 		bl	rf_set_frequency
 181              	.LVL17:
 182              		.loc 1 90 0
 183 0052 0520     		movs	r0, #5
 184 0054 FFF7FEFF 		bl	rf_enable_features
 185              	.LVL18:
 186              		.loc 1 92 0
 187 0058 0120     		movs	r0, #1
 188 005a FFF7FEFF 		bl	rf_enable_pipe_autoack
 189              	.LVL19:
 190              		.loc 1 93 0
 191 005e 0120     		movs	r0, #1
 192 0060 FFF7FEFF 		bl	rf_enable_pipe_address
 193              	.LVL20:
 194              		.loc 1 94 0
 195 0064 0120     		movs	r0, #1
 196 0066 FFF7FEFF 		bl	rf_enable_pipe_dlp
 197              	.LVL21:
 198              		.loc 1 96 0
 199 006a 34F8063F 		ldrh	r3, [r4, #6]!	@ unaligned
 200 006e 1448     		ldr	r0, .L10+16
 201              		.loc 1 98 0
 202 0070 DFF850E0 		ldr	lr, .L10+20
 203              		.loc 1 96 0
 204 0074 A278     		ldrb	r2, [r4, #2]	@ zero_extendqisi2
 205 0076 0380     		strh	r3, [r0]	@ unaligned
 206              		.loc 1 100 0
 207 0078 3968     		ldr	r1, [r7]
 208              		.loc 1 96 0
 209 007a 8270     		strb	r2, [r0, #2]
 210              		.loc 1 97 0
 211 007c AA70     		strb	r2, [r5, #2]
 212              		.loc 1 98 0
 213 007e 0122     		movs	r2, #1
 214 0080 8EF80020 		strb	r2, [lr]
 215              		.loc 1 97 0
 216 0084 2B80     		strh	r3, [r5]	@ unaligned
 217              		.loc 1 100 0
 218 0086 FFF7FEFF 		bl	rf_set_tx_addr
 219              	.LVL22:
 220              		.loc 1 101 0
 221 008a 3A68     		ldr	r2, [r7]
 222 008c 2946     		mov	r1, r5
 223 008e 0020     		movs	r0, #0
 224 0090 FFF7FEFF 		bl	rf_set_rx_addr
 225              	.LVL23:
 226              		.loc 1 103 0
 227 0094 FFF7FEFF 		bl	rf_power_up
 228              	.LVL24:
ARM GAS  C:\Users\IDONNO~1\AppData\Local\Temp\cccTUF0N.s 			page 5


 229              		.loc 1 104 0
 230 0098 FFF7FEFF 		bl	rf_mode_rx
 231              	.LVL25:
 232              		.loc 1 105 0
 233 009c FFF7FEFF 		bl	rf_flush_all
 234              	.LVL26:
 235              		.loc 1 106 0
 236 00a0 FFF7FEFF 		bl	rf_clear_irq
 237              	.LVL27:
 238              		.loc 1 108 0
 239 00a4 3046     		mov	r0, r6
 240              		.loc 1 109 0
 241 00a6 BDE8F840 		pop	{r3, r4, r5, r6, r7, lr}
 242              		.cfi_restore 14
 243              		.cfi_restore 7
 244              		.cfi_restore 6
 245              		.cfi_restore 5
 246              		.cfi_restore 4
 247              		.cfi_restore 3
 248              		.cfi_def_cfa_offset 0
 249              		.loc 1 108 0
 250 00aa FFF7FEBF 		b	chMtxUnlock
 251              	.LVL28:
 252              	.L11:
 253 00ae 00BF     		.align	2
 254              	.L10:
 255 00b0 00000000 		.word	.LANCHOR0
 256 00b4 00000000 		.word	.LANCHOR6
 257 00b8 00000000 		.word	.LANCHOR2
 258 00bc 00000000 		.word	.LANCHOR1
 259 00c0 00000000 		.word	.LANCHOR3
 260 00c4 00000000 		.word	.LANCHOR4
 261              		.cfi_endproc
 262              	.LFE258:
 263              		.size	rfhelp_restart, .-rfhelp_restart
 264              		.section	.text.rfhelp_update_conf,"ax",%progbits
 265              		.align	2
 266              		.p2align 4,,15
 267              		.global	rfhelp_update_conf
 268              		.thumb
 269              		.thumb_func
 270              		.type	rfhelp_update_conf, %function
 271              	rfhelp_update_conf:
 272              	.LFB257:
 273              		.loc 1 61 0
 274              		.cfi_startproc
 275              		@ args = 0, pretend = 0, frame = 0
 276              		@ frame_needed = 0, uses_anonymous_args = 0
 277              		@ link register save eliminated.
 278              	.LVL29:
 279 0000 30B4     		push	{r4, r5}
 280              		.cfi_def_cfa_offset 8
 281              		.cfi_offset 4, -8
 282              		.cfi_offset 5, -4
 283              		.loc 1 61 0
 284 0002 0246     		mov	r2, r0
 285              		.loc 1 62 0
ARM GAS  C:\Users\IDONNO~1\AppData\Local\Temp\cccTUF0N.s 			page 6


 286 0004 064B     		ldr	r3, .L16
 287 0006 5168     		ldr	r1, [r2, #4]	@ unaligned
 288 0008 0068     		ldr	r0, [r0]	@ unaligned
 289              	.LVL30:
 290              		.loc 1 64 0
 291 000a 064D     		ldr	r5, .L16+4
 292              		.loc 1 62 0
 293 000c 1489     		ldrh	r4, [r2, #8]	@ unaligned
 294              		.loc 1 64 0
 295 000e 2A78     		ldrb	r2, [r5]	@ zero_extendqisi2
 296              	.LVL31:
 297              		.loc 1 62 0
 298 0010 03C3     		stmia	r3!, {r0, r1}
 299 0012 1C80     		strh	r4, [r3]	@ unaligned
 300              		.loc 1 64 0
 301 0014 0AB9     		cbnz	r2, .L15
 302              		.loc 1 67 0
 303 0016 30BC     		pop	{r4, r5}
 304              		.cfi_remember_state
 305              		.cfi_restore 5
 306              		.cfi_restore 4
 307              		.cfi_def_cfa_offset 0
 308 0018 7047     		bx	lr
 309              	.L15:
 310              		.cfi_restore_state
 311 001a 30BC     		pop	{r4, r5}
 312              		.cfi_restore 5
 313              		.cfi_restore 4
 314              		.cfi_def_cfa_offset 0
 315              		.loc 1 65 0
 316 001c FFF7FEBF 		b	rfhelp_restart
 317              	.LVL32:
 318              	.L17:
 319              		.align	2
 320              	.L16:
 321 0020 00000000 		.word	.LANCHOR6
 322 0024 00000000 		.word	.LANCHOR5
 323              		.cfi_endproc
 324              	.LFE257:
 325              		.size	rfhelp_update_conf, .-rfhelp_update_conf
 326              		.section	.text.rfhelp_send_data,"ax",%progbits
 327              		.align	2
 328              		.p2align 4,,15
 329              		.global	rfhelp_send_data
 330              		.thumb
 331              		.thumb_func
 332              		.type	rfhelp_send_data, %function
 333              	rfhelp_send_data:
 334              	.LFB259:
 335              		.loc 1 125 0
 336              		.cfi_startproc
 337              		@ args = 0, pretend = 0, frame = 0
 338              		@ frame_needed = 0, uses_anonymous_args = 0
 339              	.LVL33:
 340 0000 F8B5     		push	{r3, r4, r5, r6, r7, lr}
 341              		.cfi_def_cfa_offset 24
 342              		.cfi_offset 3, -24
ARM GAS  C:\Users\IDONNO~1\AppData\Local\Temp\cccTUF0N.s 			page 7


 343              		.cfi_offset 4, -20
 344              		.cfi_offset 5, -16
 345              		.cfi_offset 6, -12
 346              		.cfi_offset 7, -8
 347              		.cfi_offset 14, -4
 348              		.loc 1 136 0
 349 0002 254E     		ldr	r6, .L43
 350              		.loc 1 125 0
 351 0004 0446     		mov	r4, r0
 352              		.loc 1 129 0
 353 0006 2548     		ldr	r0, .L43+4
 354              	.LVL34:
 355              		.loc 1 125 0
 356 0008 0D46     		mov	r5, r1
 357 000a 1746     		mov	r7, r2
 358              		.loc 1 129 0
 359 000c FFF7FEFF 		bl	chMtxLock
 360              	.LVL35:
 361              		.loc 1 131 0
 362 0010 FFF7FEFF 		bl	rf_mode_tx
 363              	.LVL36:
 364              		.loc 1 132 0
 365 0014 FFF7FEFF 		bl	rf_clear_irq
 366              	.LVL37:
 367              		.loc 1 133 0
 368 0018 FFF7FEFF 		bl	rf_flush_all
 369              	.LVL38:
 370              		.loc 1 136 0
 371 001c 3078     		ldrb	r0, [r6]	@ zero_extendqisi2
 372 001e 10BB     		cbnz	r0, .L19
 373              		.loc 1 136 0 is_stmt 0 discriminator 1
 374 0020 87BB     		cbnz	r7, .L39
 375              	.L20:
 376              		.loc 1 143 0 is_stmt 1
 377 0022 2946     		mov	r1, r5
 378 0024 2046     		mov	r0, r4
 379 0026 FFF7FEFF 		bl	rf_write_tx_payload_no_ack
 380              	.LVL39:
 381              	.L23:
 382              		.loc 1 125 0
 383 002a 3C25     		movs	r5, #60
 384              	.LVL40:
 385 002c 03E0     		b	.L22
 386              	.LVL41:
 387              	.L42:
 388              	.LBB3:
 389              		.loc 1 155 0
 390 002e E306     		lsls	r3, r4, #27
 391 0030 20D4     		bmi	.L40
 392              		.loc 1 159 0
 393 0032 013D     		subs	r5, r5, #1
 394              	.LVL42:
 395 0034 23D0     		beq	.L41
 396              	.LVL43:
 397              	.L22:
 398              		.loc 1 147 0
 399 0036 FFF7FEFF 		bl	rf_status
ARM GAS  C:\Users\IDONNO~1\AppData\Local\Temp\cccTUF0N.s 			page 8


 400              	.LVL44:
 401 003a 0446     		mov	r4, r0
 402              	.LVL45:
 403              		.loc 1 149 0
 404 003c 0A20     		movs	r0, #10
 405              	.LVL46:
 406 003e FFF7FEFF 		bl	chThdSleep
 407              	.LVL47:
 408              		.loc 1 152 0
 409 0042 A206     		lsls	r2, r4, #26
 410 0044 F3D5     		bpl	.L42
 411              		.loc 1 153 0
 412 0046 0024     		movs	r4, #0
 413              	.LVL48:
 414              	.L24:
 415              	.LBE3:
 416              		.loc 1 166 0
 417 0048 3078     		ldrb	r0, [r6]	@ zero_extendqisi2
 418 004a 28B9     		cbnz	r0, .L26
 419              		.loc 1 166 0 is_stmt 0 discriminator 1
 420 004c 27B1     		cbz	r7, .L26
 421              		.loc 1 167 0 is_stmt 1
 422 004e 144B     		ldr	r3, .L43+8
 423 0050 1449     		ldr	r1, .L43+12
 424 0052 1A68     		ldr	r2, [r3]
 425 0054 FFF7FEFF 		bl	rf_set_rx_addr
 426              	.LVL49:
 427              	.L26:
 428              		.loc 1 170 0
 429 0058 FFF7FEFF 		bl	rf_mode_rx
 430              	.LVL50:
 431              		.loc 1 172 0
 432 005c 0F48     		ldr	r0, .L43+4
 433 005e FFF7FEFF 		bl	chMtxUnlock
 434              	.LVL51:
 435              		.loc 1 175 0
 436 0062 2046     		mov	r0, r4
 437 0064 F8BD     		pop	{r3, r4, r5, r6, r7, pc}
 438              	.LVL52:
 439              	.L19:
 440              		.loc 1 140 0
 441 0066 002F     		cmp	r7, #0
 442 0068 DBD0     		beq	.L20
 443              		.loc 1 141 0
 444 006a 2946     		mov	r1, r5
 445 006c 2046     		mov	r0, r4
 446 006e FFF7FEFF 		bl	rf_write_tx_payload
 447              	.LVL53:
 448 0072 DAE7     		b	.L23
 449              	.LVL54:
 450              	.L40:
 451              	.LBB4:
 452              		.loc 1 156 0
 453 0074 FFF7FEFF 		bl	rf_clear_maxrt_irq
 454              	.LVL55:
 455              		.loc 1 157 0
 456 0078 4FF0FF34 		mov	r4, #-1
ARM GAS  C:\Users\IDONNO~1\AppData\Local\Temp\cccTUF0N.s 			page 9


 457              	.LVL56:
 458              		.loc 1 158 0
 459 007c E4E7     		b	.L24
 460              	.LVL57:
 461              	.L41:
 462              		.loc 1 160 0
 463 007e 6FF00104 		mvn	r4, #1
 464              	.LVL58:
 465 0082 E1E7     		b	.L24
 466              	.LVL59:
 467              	.L39:
 468              	.LBE4:
 469              		.loc 1 137 0
 470 0084 064B     		ldr	r3, .L43+8
 471 0086 0849     		ldr	r1, .L43+16
 472 0088 1A68     		ldr	r2, [r3]
 473 008a FFF7FEFF 		bl	rf_set_rx_addr
 474              	.LVL60:
 475              		.loc 1 141 0
 476 008e 2946     		mov	r1, r5
 477 0090 2046     		mov	r0, r4
 478 0092 FFF7FEFF 		bl	rf_write_tx_payload
 479              	.LVL61:
 480 0096 C8E7     		b	.L23
 481              	.L44:
 482              		.align	2
 483              	.L43:
 484 0098 00000000 		.word	.LANCHOR4
 485 009c 00000000 		.word	.LANCHOR0
 486 00a0 00000000 		.word	.LANCHOR1
 487 00a4 00000000 		.word	.LANCHOR2
 488 00a8 00000000 		.word	.LANCHOR3
 489              		.cfi_endproc
 490              	.LFE259:
 491              		.size	rfhelp_send_data, .-rfhelp_send_data
 492              		.section	.text.rfhelp_send_data_crc,"ax",%progbits
 493              		.align	2
 494              		.p2align 4,,15
 495              		.global	rfhelp_send_data_crc
 496              		.thumb
 497              		.thumb_func
 498              		.type	rfhelp_send_data_crc, %function
 499              	rfhelp_send_data_crc:
 500              	.LFB260:
 501              		.loc 1 193 0
 502              		.cfi_startproc
 503              		@ args = 0, pretend = 0, frame = 0
 504              		@ frame_needed = 1, uses_anonymous_args = 0
 505              	.LVL62:
 506 0000 F8B5     		push	{r3, r4, r5, r6, r7, lr}
 507              		.cfi_def_cfa_offset 24
 508              		.cfi_offset 3, -24
 509              		.cfi_offset 4, -20
 510              		.cfi_offset 5, -16
 511              		.cfi_offset 6, -12
 512              		.cfi_offset 7, -8
 513              		.cfi_offset 14, -4
ARM GAS  C:\Users\IDONNO~1\AppData\Local\Temp\cccTUF0N.s 			page 10


 514              		.loc 1 194 0
 515 0002 01F10903 		add	r3, r1, #9
 516 0006 23F00703 		bic	r3, r3, #7
 517              		.loc 1 193 0
 518 000a 00AF     		add	r7, sp, #0
 519              		.cfi_def_cfa_register 7
 520              		.loc 1 194 0
 521 000c ADEB030D 		sub	sp, sp, r3
 522              		.loc 1 193 0
 523 0010 0C46     		mov	r4, r1
 524 0012 0646     		mov	r6, r0
 525              		.loc 1 195 0
 526 0014 FFF7FEFF 		bl	crc16
 527              	.LVL63:
 528              		.loc 1 197 0
 529 0018 2246     		mov	r2, r4
 530              		.loc 1 195 0
 531 001a 0546     		mov	r5, r0
 532              		.loc 1 197 0
 533 001c 3146     		mov	r1, r6
 534 001e 6846     		mov	r0, sp
 535 0020 FFF7FEFF 		bl	memcpy
 536              	.LVL64:
 537              		.loc 1 199 0
 538 0024 0DEB0403 		add	r3, sp, r4
 539              		.loc 1 201 0
 540 0028 054A     		ldr	r2, .L47
 541              		.loc 1 198 0
 542 002a 2E0A     		lsrs	r6, r5, #8
 543              	.LVL65:
 544 002c 0DF80460 		strb	r6, [sp, r4]
 545              		.loc 1 194 0
 546 0030 A11C     		adds	r1, r4, #2
 547              	.LVL66:
 548              		.loc 1 201 0
 549 0032 6846     		mov	r0, sp
 550 0034 527A     		ldrb	r2, [r2, #9]	@ zero_extendqisi2
 551              		.loc 1 199 0
 552 0036 5D70     		strb	r5, [r3, #1]
 553              		.loc 1 201 0
 554 0038 FFF7FEFF 		bl	rfhelp_send_data
 555              	.LVL67:
 556              		.loc 1 202 0
 557 003c BD46     		mov	sp, r7
 558              		.cfi_def_cfa_register 13
 559              	.LVL68:
 560              		@ sp needed
 561 003e F8BD     		pop	{r3, r4, r5, r6, r7, pc}
 562              	.LVL69:
 563              	.L48:
 564              		.align	2
 565              	.L47:
 566 0040 00000000 		.word	.LANCHOR6
 567              		.cfi_endproc
 568              	.LFE260:
 569              		.size	rfhelp_send_data_crc, .-rfhelp_send_data_crc
 570              		.section	.text.rfhelp_read_rx_data,"ax",%progbits
ARM GAS  C:\Users\IDONNO~1\AppData\Local\Temp\cccTUF0N.s 			page 11


 571              		.align	2
 572              		.p2align 4,,15
 573              		.global	rfhelp_read_rx_data
 574              		.thumb
 575              		.thumb_func
 576              		.type	rfhelp_read_rx_data, %function
 577              	rfhelp_read_rx_data:
 578              	.LFB261:
 579              		.loc 1 222 0
 580              		.cfi_startproc
 581              		@ args = 0, pretend = 0, frame = 0
 582              		@ frame_needed = 0, uses_anonymous_args = 0
 583              	.LVL70:
 584 0000 F8B5     		push	{r3, r4, r5, r6, r7, lr}
 585              		.cfi_def_cfa_offset 24
 586              		.cfi_offset 3, -24
 587              		.cfi_offset 4, -20
 588              		.cfi_offset 5, -16
 589              		.cfi_offset 6, -12
 590              		.cfi_offset 7, -8
 591              		.cfi_offset 14, -4
 592              		.loc 1 222 0
 593 0002 0746     		mov	r7, r0
 594              		.loc 1 225 0
 595 0004 1648     		ldr	r0, .L58
 596              	.LVL71:
 597              		.loc 1 222 0
 598 0006 0C46     		mov	r4, r1
 599 0008 1646     		mov	r6, r2
 600              		.loc 1 225 0
 601 000a FFF7FEFF 		bl	chMtxLock
 602              	.LVL72:
 603              		.loc 1 227 0
 604 000e FFF7FEFF 		bl	rf_status
 605              	.LVL73:
 606              		.loc 1 228 0
 607 0012 C0F34205 		ubfx	r5, r0, #1, #3
 608              	.LVL74:
 609              		.loc 1 230 0
 610 0016 072D     		cmp	r5, #7
 611 0018 1ED0     		beq	.L53
 612              		.loc 1 231 0
 613 001a FFF7FEFF 		bl	rf_get_payload_width
 614              	.LVL75:
 615 001e 2060     		str	r0, [r4]
 616              		.loc 1 232 0
 617 0020 0EB1     		cbz	r6, .L51
 618              		.loc 1 233 0
 619 0022 3560     		str	r5, [r6]
 620 0024 2068     		ldr	r0, [r4]
 621              	.L51:
 622              		.loc 1 235 0
 623 0026 2028     		cmp	r0, #32
 624 0028 11D8     		bhi	.L52
 625              		.loc 1 236 0
 626 002a 0146     		mov	r1, r0
 627 002c 3846     		mov	r0, r7
ARM GAS  C:\Users\IDONNO~1\AppData\Local\Temp\cccTUF0N.s 			page 12


 628 002e FFF7FEFF 		bl	rf_read_rx_payload
 629              	.LVL76:
 630              		.loc 1 237 0
 631 0032 FFF7FEFF 		bl	rf_clear_rx_irq
 632              	.LVL77:
 633              		.loc 1 240 0
 634 0036 FFF7FEFF 		bl	rf_status
 635              	.LVL78:
 636              		.loc 1 223 0
 637 003a C0F34200 		ubfx	r0, r0, #1, #3
 638              	.LVL79:
 639 003e C41F     		subs	r4, r0, #7
 640              	.LVL80:
 641 0040 18BF     		it	ne
 642 0042 0124     		movne	r4, #1
 643              	.LVL81:
 644              	.L50:
 645              		.loc 1 252 0
 646 0044 0648     		ldr	r0, .L58
 647 0046 FFF7FEFF 		bl	chMtxUnlock
 648              	.LVL82:
 649              		.loc 1 255 0
 650 004a 2046     		mov	r0, r4
 651 004c F8BD     		pop	{r3, r4, r5, r6, r7, pc}
 652              	.LVL83:
 653              	.L52:
 654              		.loc 1 247 0
 655 004e 0023     		movs	r3, #0
 656 0050 2360     		str	r3, [r4]
 657              	.LVL84:
 658              		.loc 1 248 0
 659 0052 6FF00104 		mvn	r4, #1
 660              	.LVL85:
 661 0056 F5E7     		b	.L50
 662              	.LVL86:
 663              	.L53:
 664              		.loc 1 223 0
 665 0058 4FF0FF34 		mov	r4, #-1
 666              	.LVL87:
 667 005c F2E7     		b	.L50
 668              	.L59:
 669 005e 00BF     		.align	2
 670              	.L58:
 671 0060 00000000 		.word	.LANCHOR0
 672              		.cfi_endproc
 673              	.LFE261:
 674              		.size	rfhelp_read_rx_data, .-rfhelp_read_rx_data
 675              		.section	.text.rfhelp_read_rx_data_crc,"ax",%progbits
 676              		.align	2
 677              		.p2align 4,,15
 678              		.global	rfhelp_read_rx_data_crc
 679              		.thumb
 680              		.thumb_func
 681              		.type	rfhelp_read_rx_data_crc, %function
 682              	rfhelp_read_rx_data_crc:
 683              	.LFB262:
 684              		.loc 1 277 0
ARM GAS  C:\Users\IDONNO~1\AppData\Local\Temp\cccTUF0N.s 			page 13


 685              		.cfi_startproc
 686              		@ args = 0, pretend = 0, frame = 0
 687              		@ frame_needed = 0, uses_anonymous_args = 0
 688              	.LVL88:
 689 0000 70B5     		push	{r4, r5, r6, lr}
 690              		.cfi_def_cfa_offset 16
 691              		.cfi_offset 4, -16
 692              		.cfi_offset 5, -12
 693              		.cfi_offset 6, -8
 694              		.cfi_offset 14, -4
 695              		.loc 1 277 0
 696 0002 0C46     		mov	r4, r1
 697 0004 0646     		mov	r6, r0
 698              		.loc 1 278 0
 699 0006 FFF7FEFF 		bl	rfhelp_read_rx_data
 700              	.LVL89:
 701              		.loc 1 280 0
 702 000a 051E     		subs	r5, r0, #0
 703 000c 2168     		ldr	r1, [r4]
 704 000e 01DB     		blt	.L62
 705              		.loc 1 280 0 is_stmt 0 discriminator 1
 706 0010 0229     		cmp	r1, #2
 707 0012 03DC     		bgt	.L65
 708              	.L62:
 709              		.loc 1 288 0 is_stmt 1
 710 0014 0239     		subs	r1, r1, #2
 711 0016 2160     		str	r1, [r4]
 712              		.loc 1 291 0
 713 0018 2846     		mov	r0, r5
 714 001a 70BD     		pop	{r4, r5, r6, pc}
 715              	.LVL90:
 716              	.L65:
 717              	.LBB5:
 718              		.loc 1 281 0
 719 001c 0239     		subs	r1, r1, #2
 720 001e 3046     		mov	r0, r6
 721              	.LVL91:
 722 0020 FFF7FEFF 		bl	crc16
 723              	.LVL92:
 724              		.loc 1 283 0
 725 0024 2168     		ldr	r1, [r4]
 726 0026 0E44     		add	r6, r6, r1
 727              	.LVL93:
 728              	.LBE5:
 729              		.loc 1 288 0
 730 0028 0239     		subs	r1, r1, #2
 731              	.LBB6:
 732              		.loc 1 283 0
 733 002a 16F8022C 		ldrb	r2, [r6, #-2]	@ zero_extendqisi2
 734 002e 16F8013C 		ldrb	r3, [r6, #-1]	@ zero_extendqisi2
 735              	.LBE6:
 736              		.loc 1 288 0
 737 0032 2160     		str	r1, [r4]
 738              	.LBB7:
 739              		.loc 1 283 0
 740 0034 43EA0223 		orr	r3, r3, r2, lsl #8
 741 0038 9842     		cmp	r0, r3
ARM GAS  C:\Users\IDONNO~1\AppData\Local\Temp\cccTUF0N.s 			page 14


 742              		.loc 1 284 0
 743 003a 18BF     		it	ne
 744 003c 6FF00205 		mvnne	r5, #2
 745              	.LVL94:
 746              	.LBE7:
 747              		.loc 1 291 0
 748 0040 2846     		mov	r0, r5
 749              	.LVL95:
 750 0042 70BD     		pop	{r4, r5, r6, pc}
 751              		.cfi_endproc
 752              	.LFE262:
 753              		.size	rfhelp_read_rx_data_crc, .-rfhelp_read_rx_data_crc
 754              		.section	.text.rfhelp_rf_status,"ax",%progbits
 755              		.align	2
 756              		.p2align 4,,15
 757              		.global	rfhelp_rf_status
 758              		.thumb
 759              		.thumb_func
 760              		.type	rfhelp_rf_status, %function
 761              	rfhelp_rf_status:
 762              	.LFB263:
 763              		.loc 1 293 0
 764              		.cfi_startproc
 765              		@ args = 0, pretend = 0, frame = 0
 766              		@ frame_needed = 0, uses_anonymous_args = 0
 767 0000 38B5     		push	{r3, r4, r5, lr}
 768              		.cfi_def_cfa_offset 16
 769              		.cfi_offset 3, -16
 770              		.cfi_offset 4, -12
 771              		.cfi_offset 5, -8
 772              		.cfi_offset 14, -4
 773              		.loc 1 294 0
 774 0002 064C     		ldr	r4, .L68
 775 0004 2046     		mov	r0, r4
 776 0006 FFF7FEFF 		bl	chMtxLock
 777              	.LVL96:
 778              		.loc 1 295 0
 779 000a FFF7FEFF 		bl	rf_status
 780              	.LVL97:
 781 000e 0546     		mov	r5, r0
 782              	.LVL98:
 783              		.loc 1 296 0
 784 0010 2046     		mov	r0, r4
 785              	.LVL99:
 786 0012 FFF7FEFF 		bl	chMtxUnlock
 787              	.LVL100:
 788              		.loc 1 299 0
 789 0016 2846     		mov	r0, r5
 790 0018 38BD     		pop	{r3, r4, r5, pc}
 791              	.LVL101:
 792              	.L69:
 793 001a 00BF     		.align	2
 794              	.L68:
 795 001c 00000000 		.word	.LANCHOR0
 796              		.cfi_endproc
 797              	.LFE263:
 798              		.size	rfhelp_rf_status, .-rfhelp_rf_status
ARM GAS  C:\Users\IDONNO~1\AppData\Local\Temp\cccTUF0N.s 			page 15


 799              		.section	.text.rfhelp_set_tx_addr,"ax",%progbits
 800              		.align	2
 801              		.p2align 4,,15
 802              		.global	rfhelp_set_tx_addr
 803              		.thumb
 804              		.thumb_func
 805              		.type	rfhelp_set_tx_addr, %function
 806              	rfhelp_set_tx_addr:
 807              	.LFB264:
 808              		.loc 1 301 0
 809              		.cfi_startproc
 810              		@ args = 0, pretend = 0, frame = 0
 811              		@ frame_needed = 0, uses_anonymous_args = 0
 812              	.LVL102:
 813 0000 F8B5     		push	{r3, r4, r5, r6, r7, lr}
 814              		.cfi_def_cfa_offset 24
 815              		.cfi_offset 3, -24
 816              		.cfi_offset 4, -20
 817              		.cfi_offset 5, -16
 818              		.cfi_offset 6, -12
 819              		.cfi_offset 7, -8
 820              		.cfi_offset 14, -4
 821              		.loc 1 302 0
 822 0002 104E     		ldr	r6, .L72
 823              		.loc 1 303 0
 824 0004 104D     		ldr	r5, .L72+4
 825              		.loc 1 301 0
 826 0006 0C46     		mov	r4, r1
 827 0008 0746     		mov	r7, r0
 828              		.loc 1 302 0
 829 000a 3046     		mov	r0, r6
 830              	.LVL103:
 831 000c FFF7FEFF 		bl	chMtxLock
 832              	.LVL104:
 833              		.loc 1 303 0
 834 0010 3946     		mov	r1, r7
 835 0012 2246     		mov	r2, r4
 836 0014 2846     		mov	r0, r5
 837 0016 FFF7FEFF 		bl	memcpy
 838              	.LVL105:
 839              		.loc 1 304 0
 840 001a 0C4B     		ldr	r3, .L72+8
 841              		.loc 1 306 0
 842 001c 0C48     		ldr	r0, .L72+12
 843              		.loc 1 304 0
 844 001e 1C60     		str	r4, [r3]
 845              		.loc 1 306 0
 846 0020 2246     		mov	r2, r4
 847 0022 2946     		mov	r1, r5
 848 0024 FFF7FEFF 		bl	memcmp
 849              	.LVL106:
 850 0028 0A4A     		ldr	r2, .L72+16
 851 002a B0FA80F3 		clz	r3, r0
 852 002e 5B09     		lsrs	r3, r3, #5
 853              		.loc 1 308 0
 854 0030 2846     		mov	r0, r5
 855 0032 2146     		mov	r1, r4
ARM GAS  C:\Users\IDONNO~1\AppData\Local\Temp\cccTUF0N.s 			page 16


 856              		.loc 1 306 0
 857 0034 1370     		strb	r3, [r2]
 858              		.loc 1 308 0
 859 0036 FFF7FEFF 		bl	rf_set_tx_addr
 860              	.LVL107:
 861              		.loc 1 309 0
 862 003a 3046     		mov	r0, r6
 863              		.loc 1 310 0
 864 003c BDE8F840 		pop	{r3, r4, r5, r6, r7, lr}
 865              		.cfi_restore 14
 866              		.cfi_restore 7
 867              		.cfi_restore 6
 868              		.cfi_restore 5
 869              		.cfi_restore 4
 870              		.cfi_restore 3
 871              		.cfi_def_cfa_offset 0
 872              	.LVL108:
 873              		.loc 1 309 0
 874 0040 FFF7FEBF 		b	chMtxUnlock
 875              	.LVL109:
 876              	.L73:
 877              		.align	2
 878              	.L72:
 879 0044 00000000 		.word	.LANCHOR0
 880 0048 00000000 		.word	.LANCHOR3
 881 004c 00000000 		.word	.LANCHOR1
 882 0050 00000000 		.word	.LANCHOR2
 883 0054 00000000 		.word	.LANCHOR4
 884              		.cfi_endproc
 885              	.LFE264:
 886              		.size	rfhelp_set_tx_addr, .-rfhelp_set_tx_addr
 887              		.section	.text.rfhelp_set_rx_addr,"ax",%progbits
 888              		.align	2
 889              		.p2align 4,,15
 890              		.global	rfhelp_set_rx_addr
 891              		.thumb
 892              		.thumb_func
 893              		.type	rfhelp_set_rx_addr, %function
 894              	rfhelp_set_rx_addr:
 895              	.LFB265:
 896              		.loc 1 312 0
 897              		.cfi_startproc
 898              		@ args = 0, pretend = 0, frame = 0
 899              		@ frame_needed = 0, uses_anonymous_args = 0
 900              	.LVL110:
 901 0000 2DE9F041 		push	{r4, r5, r6, r7, r8, lr}
 902              		.cfi_def_cfa_offset 24
 903              		.cfi_offset 4, -24
 904              		.cfi_offset 5, -20
 905              		.cfi_offset 6, -16
 906              		.cfi_offset 7, -12
 907              		.cfi_offset 8, -8
 908              		.cfi_offset 14, -4
 909              		.loc 1 313 0
 910 0004 134E     		ldr	r6, .L76
 911              		.loc 1 314 0
 912 0006 DFF85880 		ldr	r8, .L76+12
ARM GAS  C:\Users\IDONNO~1\AppData\Local\Temp\cccTUF0N.s 			page 17


 913              		.loc 1 312 0
 914 000a 0546     		mov	r5, r0
 915              		.loc 1 313 0
 916 000c 3046     		mov	r0, r6
 917              	.LVL111:
 918              		.loc 1 312 0
 919 000e 1446     		mov	r4, r2
 920 0010 0F46     		mov	r7, r1
 921              		.loc 1 313 0
 922 0012 FFF7FEFF 		bl	chMtxLock
 923              	.LVL112:
 924              		.loc 1 314 0
 925 0016 05EB8500 		add	r0, r5, r5, lsl #2
 926 001a 2246     		mov	r2, r4
 927 001c 3946     		mov	r1, r7
 928 001e 4044     		add	r0, r0, r8
 929 0020 FFF7FEFF 		bl	memcpy
 930              	.LVL113:
 931              		.loc 1 315 0
 932 0024 0C4B     		ldr	r3, .L76+4
 933              		.loc 1 317 0
 934 0026 0D49     		ldr	r1, .L76+8
 935              		.loc 1 315 0
 936 0028 1C60     		str	r4, [r3]
 937              		.loc 1 317 0
 938 002a 2246     		mov	r2, r4
 939 002c 4046     		mov	r0, r8
 940 002e FFF7FEFF 		bl	memcmp
 941              	.LVL114:
 942 0032 DFF830E0 		ldr	lr, .L76+16
 943 0036 B0FA80F3 		clz	r3, r0
 944 003a 5B09     		lsrs	r3, r3, #5
 945              		.loc 1 320 0
 946 003c 2846     		mov	r0, r5
 947 003e 2246     		mov	r2, r4
 948 0040 3946     		mov	r1, r7
 949              		.loc 1 317 0
 950 0042 8EF80030 		strb	r3, [lr]
 951              		.loc 1 320 0
 952 0046 FFF7FEFF 		bl	rf_set_rx_addr
 953              	.LVL115:
 954              		.loc 1 321 0
 955 004a 3046     		mov	r0, r6
 956              		.loc 1 322 0
 957 004c BDE8F041 		pop	{r4, r5, r6, r7, r8, lr}
 958              		.cfi_restore 14
 959              		.cfi_restore 8
 960              		.cfi_restore 7
 961              		.cfi_restore 6
 962              		.cfi_restore 5
 963              		.cfi_restore 4
 964              		.cfi_def_cfa_offset 0
 965              	.LVL116:
 966              		.loc 1 321 0
 967 0050 FFF7FEBF 		b	chMtxUnlock
 968              	.LVL117:
 969              	.L77:
ARM GAS  C:\Users\IDONNO~1\AppData\Local\Temp\cccTUF0N.s 			page 18


 970              		.align	2
 971              	.L76:
 972 0054 00000000 		.word	.LANCHOR0
 973 0058 00000000 		.word	.LANCHOR1
 974 005c 00000000 		.word	.LANCHOR3
 975 0060 00000000 		.word	.LANCHOR2
 976 0064 00000000 		.word	.LANCHOR4
 977              		.cfi_endproc
 978              	.LFE265:
 979              		.size	rfhelp_set_rx_addr, .-rfhelp_set_rx_addr
 980              		.section	.text.rfhelp_power_down,"ax",%progbits
 981              		.align	2
 982              		.p2align 4,,15
 983              		.global	rfhelp_power_down
 984              		.thumb
 985              		.thumb_func
 986              		.type	rfhelp_power_down, %function
 987              	rfhelp_power_down:
 988              	.LFB266:
 989              		.loc 1 324 0
 990              		.cfi_startproc
 991              		@ args = 0, pretend = 0, frame = 0
 992              		@ frame_needed = 0, uses_anonymous_args = 0
 993 0000 10B5     		push	{r4, lr}
 994              		.cfi_def_cfa_offset 8
 995              		.cfi_offset 4, -8
 996              		.cfi_offset 14, -4
 997              		.loc 1 325 0
 998 0002 054C     		ldr	r4, .L80
 999 0004 2046     		mov	r0, r4
 1000 0006 FFF7FEFF 		bl	chMtxLock
 1001              	.LVL118:
 1002              		.loc 1 326 0
 1003 000a FFF7FEFF 		bl	rf_power_down
 1004              	.LVL119:
 1005              		.loc 1 327 0
 1006 000e 2046     		mov	r0, r4
 1007              		.loc 1 328 0
 1008 0010 BDE81040 		pop	{r4, lr}
 1009              		.cfi_restore 14
 1010              		.cfi_restore 4
 1011              		.cfi_def_cfa_offset 0
 1012              		.loc 1 327 0
 1013 0014 FFF7FEBF 		b	chMtxUnlock
 1014              	.LVL120:
 1015              	.L81:
 1016              		.align	2
 1017              	.L80:
 1018 0018 00000000 		.word	.LANCHOR0
 1019              		.cfi_endproc
 1020              	.LFE266:
 1021              		.size	rfhelp_power_down, .-rfhelp_power_down
 1022              		.section	.text.rfhelp_power_up,"ax",%progbits
 1023              		.align	2
 1024              		.p2align 4,,15
 1025              		.global	rfhelp_power_up
 1026              		.thumb
ARM GAS  C:\Users\IDONNO~1\AppData\Local\Temp\cccTUF0N.s 			page 19


 1027              		.thumb_func
 1028              		.type	rfhelp_power_up, %function
 1029              	rfhelp_power_up:
 1030              	.LFB267:
 1031              		.loc 1 330 0
 1032              		.cfi_startproc
 1033              		@ args = 0, pretend = 0, frame = 0
 1034              		@ frame_needed = 0, uses_anonymous_args = 0
 1035 0000 10B5     		push	{r4, lr}
 1036              		.cfi_def_cfa_offset 8
 1037              		.cfi_offset 4, -8
 1038              		.cfi_offset 14, -4
 1039              		.loc 1 331 0
 1040 0002 054C     		ldr	r4, .L84
 1041 0004 2046     		mov	r0, r4
 1042 0006 FFF7FEFF 		bl	chMtxLock
 1043              	.LVL121:
 1044              		.loc 1 332 0
 1045 000a FFF7FEFF 		bl	rf_power_up
 1046              	.LVL122:
 1047              		.loc 1 333 0
 1048 000e 2046     		mov	r0, r4
 1049              		.loc 1 334 0
 1050 0010 BDE81040 		pop	{r4, lr}
 1051              		.cfi_restore 14
 1052              		.cfi_restore 4
 1053              		.cfi_def_cfa_offset 0
 1054              		.loc 1 333 0
 1055 0014 FFF7FEBF 		b	chMtxUnlock
 1056              	.LVL123:
 1057              	.L85:
 1058              		.align	2
 1059              	.L84:
 1060 0018 00000000 		.word	.LANCHOR0
 1061              		.cfi_endproc
 1062              	.LFE267:
 1063              		.size	rfhelp_power_up, .-rfhelp_power_up
 1064              		.section	.bss.init_done,"aw",%nobits
 1065              		.set	.LANCHOR5,. + 0
 1066              		.type	init_done, %object
 1067              		.size	init_done, 1
 1068              	init_done:
 1069 0000 00       		.space	1
 1070              		.section	.bss.tx_addr,"aw",%nobits
 1071              		.align	2
 1072              		.set	.LANCHOR3,. + 0
 1073              		.type	tx_addr, %object
 1074              		.size	tx_addr, 5
 1075              	tx_addr:
 1076 0000 00000000 		.space	5
 1076      00
 1077              		.section	.bss.nrf_conf,"aw",%nobits
 1078              		.align	2
 1079              		.set	.LANCHOR6,. + 0
 1080              		.type	nrf_conf, %object
 1081              		.size	nrf_conf, 10
 1082              	nrf_conf:
ARM GAS  C:\Users\IDONNO~1\AppData\Local\Temp\cccTUF0N.s 			page 20


 1083 0000 00000000 		.space	10
 1083      00000000 
 1083      0000
 1084              		.section	.bss.rf_mutex,"aw",%nobits
 1085              		.align	2
 1086              		.set	.LANCHOR0,. + 0
 1087              		.type	rf_mutex, %object
 1088              		.size	rf_mutex, 16
 1089              	rf_mutex:
 1090 0000 00000000 		.space	16
 1090      00000000 
 1090      00000000 
 1090      00000000 
 1091              		.section	.bss.rx_addr,"aw",%nobits
 1092              		.align	2
 1093              		.set	.LANCHOR2,. + 0
 1094              		.type	rx_addr, %object
 1095              		.size	rx_addr, 30
 1096              	rx_addr:
 1097 0000 00000000 		.space	30
 1097      00000000 
 1097      00000000 
 1097      00000000 
 1097      00000000 
 1098              		.section	.bss.address_length,"aw",%nobits
 1099              		.align	2
 1100              		.set	.LANCHOR1,. + 0
 1101              		.type	address_length, %object
 1102              		.size	address_length, 4
 1103              	address_length:
 1104 0000 00000000 		.space	4
 1105              		.section	.bss.tx_pipe0_addr_eq,"aw",%nobits
 1106              		.set	.LANCHOR4,. + 0
 1107              		.type	tx_pipe0_addr_eq, %object
 1108              		.size	tx_pipe0_addr_eq, 1
 1109              	tx_pipe0_addr_eq:
 1110 0000 00       		.space	1
 1111              		.text
 1112              	.Letext0:
 1113              		.file 2 "c:\\program files (x86)\\gnu tools arm embedded\\5.4 2016q3\\arm-none-eabi\\include\\mach
 1114              		.file 3 "c:\\program files (x86)\\gnu tools arm embedded\\5.4 2016q3\\arm-none-eabi\\include\\sys\
 1115              		.file 4 "src/core/rf.h"
 1116              		.file 5 "c:\\program files (x86)\\gnu tools arm embedded\\5.4 2016q3\\lib\\gcc\\arm-none-eabi\\5.4
 1117              		.file 6 "src/ChibiOS_3.0.2/os/rt/ports/ARMCMx/compilers/GCC/chtypes.h"
 1118              		.file 7 "src/ChibiOS_3.0.2/os/rt/include/chsystypes.h"
 1119              		.file 8 "src/ChibiOS_3.0.2/os/rt/include/chschd.h"
 1120              		.file 9 "src/ChibiOS_3.0.2/os/rt/ports/ARMCMx/chcore.h"
 1121              		.file 10 "src/ChibiOS_3.0.2/os/rt/ports/ARMCMx/chcore_v7m.h"
 1122              		.file 11 "src/ChibiOS_3.0.2/os/rt/include/chtm.h"
 1123              		.file 12 "src/ChibiOS_3.0.2/os/rt/include/chsem.h"
 1124              		.file 13 "src/ChibiOS_3.0.2/os/rt/include/chmtx.h"
 1125              		.file 14 "c:\\program files (x86)\\gnu tools arm embedded\\5.4 2016q3\\arm-none-eabi\\include\\str
 1126              		.file 15 "src/ChibiOS_3.0.2/os/rt/include/chthreads.h"
 1127              		.file 16 "src/core/crc.h"
 1128              		.file 17 "src/ChibiOS_3.0.2/os/ext/CMSIS/include/core_cm4.h"