ARM GAS  C:\Users\USER\AppData\Local\Temp\ccAZ17mh.s 			page 1


   1              		.cpu cortex-m4
   2              		.eabi_attribute 27, 1
   3              		.eabi_attribute 28, 1
   4              		.eabi_attribute 20, 1
   5              		.eabi_attribute 21, 1
   6              		.eabi_attribute 23, 3
   7              		.eabi_attribute 24, 1
   8              		.eabi_attribute 25, 1
   9              		.eabi_attribute 26, 1
  10              		.eabi_attribute 30, 2
  11              		.eabi_attribute 34, 1
  12              		.eabi_attribute 18, 4
  13              		.file	"serial_usb.c"
  14              		.text
  15              	.Ltext0:
  16              		.cfi_sections	.debug_frame
  17              		.section	.text.onotify,"ax",%progbits
  18              		.align	1
  19              		.p2align 4,,15
  20              		.arch armv7e-m
  21              		.syntax unified
  22              		.thumb
  23              		.thumb_func
  24              		.fpu fpv4-sp-d16
  25              		.type	onotify, %function
  26              	onotify:
  27              	.LVL0:
  28              	.LFB265:
  29              		.file 1 "src/ChibiOS_3.0.2/os/hal/src/serial_usb.c"
  30              		.loc 1 144 37 view -0
  31              		.cfi_startproc
  32              		@ args = 0, pretend = 0, frame = 0
  33              		@ frame_needed = 0, uses_anonymous_args = 0
  34              		.loc 1 145 3 view .LVU1
  35              		.loc 1 146 3 view .LVU2
  36              		.loc 1 144 37 is_stmt 0 view .LVU3
  37 0000 10B5     		push	{r4, lr}
  38              		.cfi_def_cfa_offset 8
  39              		.cfi_offset 4, -8
  40              		.cfi_offset 14, -4
  41              		.loc 1 146 20 view .LVU4
  42 0002 046A     		ldr	r4, [r0, #32]
  43              	.LVL1:
  44              		.loc 1 150 3 is_stmt 1 view .LVU5
  45              		.loc 1 150 8 is_stmt 0 view .LVU6
  46 0004 D4F85422 		ldr	r2, [r4, #596]
  47 0008 1368     		ldr	r3, [r2]
  48              		.loc 1 150 6 view .LVU7
  49 000a 1978     		ldrb	r1, [r3]	@ zero_extendqisi2
  50 000c 0429     		cmp	r1, #4
  51 000e 02D1     		bne	.L1
  52              		.loc 1 150 62 discriminator 1 view .LVU8
  53 0010 217A     		ldrb	r1, [r4, #8]	@ zero_extendqisi2
  54 0012 0229     		cmp	r1, #2
  55 0014 00D0     		beq	.L8
  56              	.LVL2:
  57              	.L1:
ARM GAS  C:\Users\USER\AppData\Local\Temp\ccAZ17mh.s 			page 2


  58              		.loc 1 169 1 view .LVU9
  59 0016 10BD     		pop	{r4, pc}
  60              	.LVL3:
  61              	.L8:
  62              		.loc 1 157 3 is_stmt 1 view .LVU10
  63              		.loc 1 157 8 is_stmt 0 view .LVU11
  64 0018 1179     		ldrb	r1, [r2, #4]	@ zero_extendqisi2
  65              		.loc 1 157 7 view .LVU12
  66 001a 1A89     		ldrh	r2, [r3, #8]
  67              		.loc 1 157 8 view .LVU13
  68 001c 0123     		movs	r3, #1
  69 001e 8B40     		lsls	r3, r3, r1
  70              		.loc 1 157 6 view .LVU14
  71 0020 1A40     		ands	r2, r3, r2
  72 0022 F8D1     		bne	.L1
  73              		.loc 1 158 5 is_stmt 1 view .LVU15
  74              	.LVL4:
  75              	.LBB200:
  76              	.LBI200:
  77              		.file 2 "src/ChibiOS_3.0.2/os/rt/include/chqueues.h"
  78              		.loc 2 353 22 view .LVU16
  79              	.LBB201:
  80              		.loc 2 355 21 view .LVU17
  81              		.loc 2 357 3 view .LVU18
  82              		.loc 2 357 19 is_stmt 0 view .LVU19
  83 0024 D4E90F03 		ldrd	r0, r3, [r4, #60]
  84              	.LVL5:
  85              		.loc 2 357 35 view .LVU20
  86 0028 A16B     		ldr	r1, [r4, #56]
  87              		.loc 2 357 19 view .LVU21
  88 002a 1B1A     		subs	r3, r3, r0
  89              	.LVL6:
  90              		.loc 2 357 19 view .LVU22
  91              	.LBE201:
  92              	.LBE200:
  93              		.loc 1 158 8 view .LVU23
  94 002c 5B1A     		subs	r3, r3, r1
  95              	.LVL7:
  96              		.loc 1 158 8 view .LVU24
  97 002e F2D0     		beq	.L1
  98              		.loc 1 159 7 is_stmt 1 view .LVU25
  99              	.LBB202:
 100              	.LBI202:
 101              		.file 3 "src/ChibiOS_3.0.2/os/hal/osal/rt/osal.h"
 102              		.loc 3 502 20 view .LVU26
 103              	.LBE202:
 104              		.loc 3 504 3 view .LVU27
 105              	.LBB211:
 106              	.LBB203:
 107              	.LBI203:
 108              		.file 4 "src/ChibiOS_3.0.2/os/rt/include/chsys.h"
 109              		.loc 4 358 20 view .LVU28
 110              	.LBB204:
 111              		.loc 4 360 22 view .LVU29
 112              		.loc 4 361 33 view .LVU30
 113              		.loc 4 367 3 view .LVU31
 114              		.loc 4 367 3 view .LVU32
ARM GAS  C:\Users\USER\AppData\Local\Temp\ccAZ17mh.s 			page 3


 115              		.loc 4 371 3 view .LVU33
 116              	.LBB205:
 117              	.LBI205:
 118              		.file 5 "src/ChibiOS_3.0.2/os/rt/ports/ARMCMx/chcore_v7m.h"
 119              		.loc 5 458 20 view .LVU34
 120              	.LBE205:
 121              	.LBE204:
 122              	.LBE203:
 123              	.LBE211:
 124              		.loc 5 461 3 view .LVU35
 125              	.LVL8:
 126              	.LBB212:
 127              	.LBB210:
 128              	.LBB209:
 129              	.LBB208:
 130              	.LBB206:
 131              	.LBI206:
 132              		.file 6 "src/ChibiOS_3.0.2/os/ext/CMSIS/include/core_cmFunc.h"
 133              		.loc 6 544 57 view .LVU36
 134              	.LBB207:
 135              		.loc 6 546 3 view .LVU37
 136              		.syntax unified
 137              	@ 546 "src/ChibiOS_3.0.2/os/ext/CMSIS/include/core_cmFunc.h" 1
 138 0030 82F31188 		MSR basepri, r2
 139              	@ 0 "" 2
 140              	.LVL9:
 141              		.loc 6 546 3 is_stmt 0 view .LVU38
 142              		.thumb
 143              		.syntax unified
 144              	.LBE207:
 145              	.LBE206:
 146              	.LBE208:
 147              	.LBE209:
 148              	.LBE210:
 149              	.LBE212:
 150              		.loc 1 161 7 is_stmt 1 view .LVU39
 151              		.loc 1 161 36 is_stmt 0 view .LVU40
 152 0034 D4F85422 		ldr	r2, [r4, #596]
 153              		.loc 1 161 7 view .LVU41
 154 0038 1179     		ldrb	r1, [r2, #4]	@ zero_extendqisi2
 155 003a 1068     		ldr	r0, [r2]
 156 003c 04F13002 		add	r2, r4, #48
 157 0040 FFF7FEFF 		bl	usbPrepareQueuedTransmit
 158              	.LVL10:
 159              		.loc 1 165 7 is_stmt 1 view .LVU42
 160              	.LBB213:
 161              	.LBI213:
 162              		.loc 3 491 20 view .LVU43
 163              	.LBE213:
 164              		.loc 3 493 3 view .LVU44
 165              	.LBB221:
 166              	.LBB214:
 167              	.LBI214:
 168              		.loc 4 346 20 view .LVU45
 169              	.LBE214:
 170              	.LBE221:
 171              		.loc 4 348 3 view .LVU46
ARM GAS  C:\Users\USER\AppData\Local\Temp\ccAZ17mh.s 			page 4


 172              	.LBB222:
 173              	.LBB219:
 174              	.LBB215:
 175              	.LBI215:
 176              		.loc 5 444 20 view .LVU47
 177              	.LBE215:
 178              	.LBE219:
 179              	.LBE222:
 180              		.loc 5 447 3 view .LVU48
 181              	.LBB223:
 182              	.LBB220:
 183              	.LBB218:
 184              	.LBB216:
 185              	.LBI216:
 186              		.loc 6 544 57 view .LVU49
 187              	.LBB217:
 188              		.loc 6 546 3 view .LVU50
 189 0044 2023     		movs	r3, #32
 190              		.syntax unified
 191              	@ 546 "src/ChibiOS_3.0.2/os/ext/CMSIS/include/core_cmFunc.h" 1
 192 0046 83F31188 		MSR basepri, r3
 193              	@ 0 "" 2
 194              	.LVL11:
 195              		.loc 6 546 3 is_stmt 0 view .LVU51
 196              		.thumb
 197              		.syntax unified
 198              	.LBE217:
 199              	.LBE216:
 200              	.LBE218:
 201              	.LBE220:
 202              	.LBE223:
 203              		.loc 4 349 34 is_stmt 1 view .LVU52
 204              		.loc 4 350 20 view .LVU53
 205              		.loc 1 166 7 view .LVU54
 206              		.loc 1 166 36 is_stmt 0 view .LVU55
 207 004a D4F85432 		ldr	r3, [r4, #596]
 208              		.loc 1 169 1 view .LVU56
 209 004e BDE81040 		pop	{r4, lr}
 210              		.cfi_restore 14
 211              		.cfi_restore 4
 212              		.cfi_def_cfa_offset 0
 213              	.LVL12:
 214              		.loc 1 166 14 view .LVU57
 215 0052 1979     		ldrb	r1, [r3, #4]	@ zero_extendqisi2
 216 0054 1868     		ldr	r0, [r3]
 217 0056 FFF7FEBF 		b	usbStartTransmitI
 218              	.LVL13:
 219              		.cfi_endproc
 220              	.LFE265:
 221              		.size	onotify, .-onotify
 222 005a 00BF     		.section	.text.inotify,"ax",%progbits
 223              		.align	1
 224              		.p2align 4,,15
 225              		.syntax unified
 226              		.thumb
 227              		.thumb_func
 228              		.fpu fpv4-sp-d16
ARM GAS  C:\Users\USER\AppData\Local\Temp\ccAZ17mh.s 			page 5


 229              		.type	inotify, %function
 230              	inotify:
 231              	.LVL14:
 232              	.LFB264:
 233              		.loc 1 109 37 is_stmt 1 view -0
 234              		.cfi_startproc
 235              		@ args = 0, pretend = 0, frame = 0
 236              		@ frame_needed = 0, uses_anonymous_args = 0
 237              		.loc 1 110 3 view .LVU59
 238              		.loc 1 111 3 view .LVU60
 239              		.loc 1 109 37 is_stmt 0 view .LVU61
 240 0000 38B5     		push	{r3, r4, r5, lr}
 241              		.cfi_def_cfa_offset 16
 242              		.cfi_offset 3, -16
 243              		.cfi_offset 4, -12
 244              		.cfi_offset 5, -8
 245              		.cfi_offset 14, -4
 246              		.loc 1 111 20 view .LVU62
 247 0002 046A     		ldr	r4, [r0, #32]
 248              	.LVL15:
 249              		.loc 1 115 3 is_stmt 1 view .LVU63
 250              		.loc 1 115 8 is_stmt 0 view .LVU64
 251 0004 D4F85422 		ldr	r2, [r4, #596]
 252 0008 1368     		ldr	r3, [r2]
 253              		.loc 1 115 6 view .LVU65
 254 000a 1978     		ldrb	r1, [r3]	@ zero_extendqisi2
 255 000c 0429     		cmp	r1, #4
 256 000e 02D1     		bne	.L9
 257              		.loc 1 115 62 discriminator 1 view .LVU66
 258 0010 217A     		ldrb	r1, [r4, #8]	@ zero_extendqisi2
 259 0012 0229     		cmp	r1, #2
 260 0014 00D0     		beq	.L12
 261              	.LVL16:
 262              	.L9:
 263              		.loc 1 137 1 view .LVU67
 264 0016 38BD     		pop	{r3, r4, r5, pc}
 265              	.LVL17:
 266              	.L12:
 267              		.loc 1 123 3 is_stmt 1 view .LVU68
 268              		.loc 1 123 49 is_stmt 0 view .LVU69
 269 0018 5079     		ldrb	r0, [r2, #5]	@ zero_extendqisi2
 270              	.LVL18:
 271              		.loc 1 124 3 is_stmt 1 view .LVU70
 272              		.loc 1 124 7 is_stmt 0 view .LVU71
 273 001a 5989     		ldrh	r1, [r3, #10]
 274              		.loc 1 124 8 view .LVU72
 275 001c 0122     		movs	r2, #1
 276 001e 8240     		lsls	r2, r2, r0
 277              		.loc 1 124 6 view .LVU73
 278 0020 0A40     		ands	r2, r2, r1
 279 0022 F8D1     		bne	.L9
 280              		.loc 1 123 36 view .LVU74
 281 0024 03EB8003 		add	r3, r3, r0, lsl #2
 282              	.LVL19:
 283              	.LBB224:
 284              	.LBB225:
 285              		.loc 2 290 19 view .LVU75
ARM GAS  C:\Users\USER\AppData\Local\Temp\ccAZ17mh.s 			page 6


 286 0028 A169     		ldr	r1, [r4, #24]
 287 002a E069     		ldr	r0, [r4, #28]
 288              	.LVL20:
 289              		.loc 2 290 19 view .LVU76
 290              	.LBE225:
 291              	.LBE224:
 292              		.loc 1 123 60 view .LVU77
 293 002c DB68     		ldr	r3, [r3, #12]
 294              	.LBB228:
 295              	.LBB226:
 296              		.loc 2 290 35 view .LVU78
 297 002e 6569     		ldr	r5, [r4, #20]
 298              	.LBE226:
 299              	.LBE228:
 300              		.loc 1 123 11 view .LVU79
 301 0030 5B8A     		ldrh	r3, [r3, #18]
 302              		.loc 1 125 5 is_stmt 1 view .LVU80
 303              	.LVL21:
 304              	.LBB229:
 305              	.LBI224:
 306              		.loc 2 286 22 view .LVU81
 307              	.LBB227:
 308              		.loc 2 288 21 view .LVU82
 309              		.loc 2 290 3 view .LVU83
 310              		.loc 2 290 19 is_stmt 0 view .LVU84
 311 0032 411A     		subs	r1, r0, r1
 312              		.loc 2 290 10 view .LVU85
 313 0034 491B     		subs	r1, r1, r5
 314              	.LVL22:
 315              		.loc 2 290 10 view .LVU86
 316              	.LBE227:
 317              	.LBE229:
 318              		.loc 1 125 8 view .LVU87
 319 0036 8B42     		cmp	r3, r1
 320 0038 EDD8     		bhi	.L9
 321              		.loc 1 126 7 is_stmt 1 view .LVU88
 322              	.LBB230:
 323              	.LBI230:
 324              		.loc 3 502 20 view .LVU89
 325              	.LBE230:
 326              		.loc 3 504 3 view .LVU90
 327              	.LBB239:
 328              	.LBB231:
 329              	.LBI231:
 330              		.loc 4 358 20 view .LVU91
 331              	.LBB232:
 332              		.loc 4 360 22 view .LVU92
 333              		.loc 4 361 33 view .LVU93
 334              		.loc 4 367 3 view .LVU94
 335              		.loc 4 367 3 view .LVU95
 336              		.loc 4 371 3 view .LVU96
 337              	.LBB233:
 338              	.LBI233:
 339              		.loc 5 458 20 view .LVU97
 340              	.LBE233:
 341              	.LBE232:
 342              	.LBE231:
ARM GAS  C:\Users\USER\AppData\Local\Temp\ccAZ17mh.s 			page 7


 343              	.LBE239:
 344              		.loc 5 461 3 view .LVU98
 345              	.LVL23:
 346              	.LBB240:
 347              	.LBB238:
 348              	.LBB237:
 349              	.LBB236:
 350              	.LBB234:
 351              	.LBI234:
 352              		.loc 6 544 57 view .LVU99
 353              	.LBB235:
 354              		.loc 6 546 3 view .LVU100
 355              		.syntax unified
 356              	@ 546 "src/ChibiOS_3.0.2/os/ext/CMSIS/include/core_cmFunc.h" 1
 357 003a 82F31188 		MSR basepri, r2
 358              	@ 0 "" 2
 359              	.LVL24:
 360              		.loc 6 546 3 is_stmt 0 view .LVU101
 361              		.thumb
 362              		.syntax unified
 363              	.LBE235:
 364              	.LBE234:
 365              	.LBE236:
 366              	.LBE237:
 367              	.LBE238:
 368              	.LBE240:
 369              		.loc 1 128 7 is_stmt 1 view .LVU102
 370              		.loc 1 129 7 view .LVU103
 371              		.loc 1 128 14 is_stmt 0 view .LVU104
 372 003e B1FBF3F1 		udiv	r1, r1, r3
 373              	.LVL25:
 374              		.loc 1 129 35 view .LVU105
 375 0042 D4F85422 		ldr	r2, [r4, #596]
 376              		.loc 1 129 7 view .LVU106
 377 0046 03FB01F3 		mul	r3, r3, r1
 378              	.LVL26:
 379              		.loc 1 129 7 view .LVU107
 380 004a 1068     		ldr	r0, [r2]
 381 004c 5179     		ldrb	r1, [r2, #5]	@ zero_extendqisi2
 382 004e 04F10C02 		add	r2, r4, #12
 383 0052 FFF7FEFF 		bl	usbPrepareQueuedReceive
 384              	.LVL27:
 385              		.loc 1 133 7 is_stmt 1 view .LVU108
 386              	.LBB241:
 387              	.LBI241:
 388              		.loc 3 491 20 view .LVU109
 389              	.LBE241:
 390              		.loc 3 493 3 view .LVU110
 391              	.LBB249:
 392              	.LBB242:
 393              	.LBI242:
 394              		.loc 4 346 20 view .LVU111
 395              	.LBE242:
 396              	.LBE249:
 397              		.loc 4 348 3 view .LVU112
 398              	.LBB250:
 399              	.LBB247:
ARM GAS  C:\Users\USER\AppData\Local\Temp\ccAZ17mh.s 			page 8


 400              	.LBB243:
 401              	.LBI243:
 402              		.loc 5 444 20 view .LVU113
 403              	.LBE243:
 404              	.LBE247:
 405              	.LBE250:
 406              		.loc 5 447 3 view .LVU114
 407              	.LBB251:
 408              	.LBB248:
 409              	.LBB246:
 410              	.LBB244:
 411              	.LBI244:
 412              		.loc 6 544 57 view .LVU115
 413              	.LBB245:
 414              		.loc 6 546 3 view .LVU116
 415 0056 2023     		movs	r3, #32
 416              		.syntax unified
 417              	@ 546 "src/ChibiOS_3.0.2/os/ext/CMSIS/include/core_cmFunc.h" 1
 418 0058 83F31188 		MSR basepri, r3
 419              	@ 0 "" 2
 420              	.LVL28:
 421              		.loc 6 546 3 is_stmt 0 view .LVU117
 422              		.thumb
 423              		.syntax unified
 424              	.LBE245:
 425              	.LBE244:
 426              	.LBE246:
 427              	.LBE248:
 428              	.LBE251:
 429              		.loc 4 349 34 is_stmt 1 view .LVU118
 430              		.loc 4 350 20 view .LVU119
 431              		.loc 1 134 7 view .LVU120
 432              		.loc 1 134 35 is_stmt 0 view .LVU121
 433 005c D4F85432 		ldr	r3, [r4, #596]
 434              		.loc 1 134 14 view .LVU122
 435 0060 5979     		ldrb	r1, [r3, #5]	@ zero_extendqisi2
 436 0062 1868     		ldr	r0, [r3]
 437              		.loc 1 137 1 view .LVU123
 438 0064 BDE83840 		pop	{r3, r4, r5, lr}
 439              		.cfi_restore 14
 440              		.cfi_restore 5
 441              		.cfi_restore 4
 442              		.cfi_restore 3
 443              		.cfi_def_cfa_offset 0
 444              	.LVL29:
 445              		.loc 1 134 14 view .LVU124
 446 0068 FFF7FEBF 		b	usbStartReceiveI
 447              	.LVL30:
 448              		.cfi_endproc
 449              	.LFE264:
 450              		.size	inotify, .-inotify
 451              		.section	.text.readt,"ax",%progbits
 452              		.align	1
 453              		.p2align 4,,15
 454              		.syntax unified
 455              		.thumb
 456              		.thumb_func
ARM GAS  C:\Users\USER\AppData\Local\Temp\ccAZ17mh.s 			page 9


 457              		.fpu fpv4-sp-d16
 458              		.type	readt, %function
 459              	readt:
 460              	.LVL31:
 461              	.LFB263:
 462              		.loc 1 94 73 is_stmt 1 view -0
 463              		.cfi_startproc
 464              		@ args = 0, pretend = 0, frame = 0
 465              		@ frame_needed = 0, uses_anonymous_args = 0
 466              		@ link register save eliminated.
 467              		.loc 1 96 3 view .LVU126
 468              		.loc 1 96 10 is_stmt 0 view .LVU127
 469 0000 0C30     		adds	r0, r0, #12
 470              	.LVL32:
 471              		.loc 1 96 10 view .LVU128
 472 0002 FFF7FEBF 		b	chIQReadTimeout
 473              	.LVL33:
 474              		.loc 1 96 10 view .LVU129
 475              		.cfi_endproc
 476              	.LFE263:
 477              		.size	readt, .-readt
 478 0006 00BF     		.section	.text.read,"ax",%progbits
 479              		.align	1
 480              		.p2align 4,,15
 481              		.syntax unified
 482              		.thumb
 483              		.thumb_func
 484              		.fpu fpv4-sp-d16
 485              		.type	read, %function
 486              	read:
 487              	.LVL34:
 488              	.LFB257:
 489              		.loc 1 63 53 is_stmt 1 view -0
 490              		.cfi_startproc
 491              		@ args = 0, pretend = 0, frame = 0
 492              		@ frame_needed = 0, uses_anonymous_args = 0
 493              		@ link register save eliminated.
 494              		.loc 1 65 3 view .LVU131
 495              		.loc 1 65 10 is_stmt 0 view .LVU132
 496 0000 0C30     		adds	r0, r0, #12
 497              	.LVL35:
 498              		.loc 1 65 10 view .LVU133
 499 0002 4FF0FF33 		mov	r3, #-1
 500 0006 FFF7FEBF 		b	chIQReadTimeout
 501              	.LVL36:
 502              		.loc 1 65 10 view .LVU134
 503              		.cfi_endproc
 504              	.LFE257:
 505              		.size	read, .-read
 506 000a 00BF     		.section	.text.writet,"ax",%progbits
 507              		.align	1
 508              		.p2align 4,,15
 509              		.syntax unified
 510              		.thumb
 511              		.thumb_func
 512              		.fpu fpv4-sp-d16
 513              		.type	writet, %function
ARM GAS  C:\Users\USER\AppData\Local\Temp\ccAZ17mh.s 			page 10


 514              	writet:
 515              	.LVL37:
 516              	.LFB262:
 517              		.loc 1 89 80 is_stmt 1 view -0
 518              		.cfi_startproc
 519              		@ args = 0, pretend = 0, frame = 0
 520              		@ frame_needed = 0, uses_anonymous_args = 0
 521              		@ link register save eliminated.
 522              		.loc 1 91 3 view .LVU136
 523              		.loc 1 91 10 is_stmt 0 view .LVU137
 524 0000 3030     		adds	r0, r0, #48
 525              	.LVL38:
 526              		.loc 1 91 10 view .LVU138
 527 0002 FFF7FEBF 		b	chOQWriteTimeout
 528              	.LVL39:
 529              		.loc 1 91 10 view .LVU139
 530              		.cfi_endproc
 531              	.LFE262:
 532              		.size	writet, .-writet
 533 0006 00BF     		.section	.text.write,"ax",%progbits
 534              		.align	1
 535              		.p2align 4,,15
 536              		.syntax unified
 537              		.thumb
 538              		.thumb_func
 539              		.fpu fpv4-sp-d16
 540              		.type	write, %function
 541              	write:
 542              	.LVL40:
 543              	.LFB256:
 544              		.loc 1 57 60 is_stmt 1 view -0
 545              		.cfi_startproc
 546              		@ args = 0, pretend = 0, frame = 0
 547              		@ frame_needed = 0, uses_anonymous_args = 0
 548              		@ link register save eliminated.
 549              		.loc 1 59 3 view .LVU141
 550              		.loc 1 59 10 is_stmt 0 view .LVU142
 551 0000 3030     		adds	r0, r0, #48
 552              	.LVL41:
 553              		.loc 1 59 10 view .LVU143
 554 0002 4FF0FF33 		mov	r3, #-1
 555 0006 FFF7FEBF 		b	chOQWriteTimeout
 556              	.LVL42:
 557              		.loc 1 59 10 view .LVU144
 558              		.cfi_endproc
 559              	.LFE256:
 560              		.size	write, .-write
 561 000a 00BF     		.section	.text.gett,"ax",%progbits
 562              		.align	1
 563              		.p2align 4,,15
 564              		.syntax unified
 565              		.thumb
 566              		.thumb_func
 567              		.fpu fpv4-sp-d16
 568              		.type	gett, %function
 569              	gett:
 570              	.LVL43:
ARM GAS  C:\Users\USER\AppData\Local\Temp\ccAZ17mh.s 			page 11


 571              	.LFB261:
 572              		.loc 1 84 48 is_stmt 1 view -0
 573              		.cfi_startproc
 574              		@ args = 0, pretend = 0, frame = 0
 575              		@ frame_needed = 0, uses_anonymous_args = 0
 576              		@ link register save eliminated.
 577              		.loc 1 86 3 view .LVU146
 578              		.loc 1 86 10 is_stmt 0 view .LVU147
 579 0000 0C30     		adds	r0, r0, #12
 580              	.LVL44:
 581              		.loc 1 86 10 view .LVU148
 582 0002 FFF7FEBF 		b	chIQGetTimeout
 583              	.LVL45:
 584              		.loc 1 86 10 view .LVU149
 585              		.cfi_endproc
 586              	.LFE261:
 587              		.size	gett, .-gett
 588 0006 00BF     		.section	.text.get,"ax",%progbits
 589              		.align	1
 590              		.p2align 4,,15
 591              		.syntax unified
 592              		.thumb
 593              		.thumb_func
 594              		.fpu fpv4-sp-d16
 595              		.type	get, %function
 596              	get:
 597              	.LVL46:
 598              	.LFB259:
 599              		.loc 1 74 28 is_stmt 1 view -0
 600              		.cfi_startproc
 601              		@ args = 0, pretend = 0, frame = 0
 602              		@ frame_needed = 0, uses_anonymous_args = 0
 603              		@ link register save eliminated.
 604              		.loc 1 76 3 view .LVU151
 605              		.loc 1 76 10 is_stmt 0 view .LVU152
 606 0000 0C30     		adds	r0, r0, #12
 607              	.LVL47:
 608              		.loc 1 76 10 view .LVU153
 609 0002 4FF0FF31 		mov	r1, #-1
 610 0006 FFF7FEBF 		b	chIQGetTimeout
 611              	.LVL48:
 612              		.loc 1 76 10 view .LVU154
 613              		.cfi_endproc
 614              	.LFE259:
 615              		.size	get, .-get
 616 000a 00BF     		.section	.text.putt,"ax",%progbits
 617              		.align	1
 618              		.p2align 4,,15
 619              		.syntax unified
 620              		.thumb
 621              		.thumb_func
 622              		.fpu fpv4-sp-d16
 623              		.type	putt, %function
 624              	putt:
 625              	.LVL49:
 626              	.LFB260:
 627              		.loc 1 79 59 is_stmt 1 view -0
ARM GAS  C:\Users\USER\AppData\Local\Temp\ccAZ17mh.s 			page 12


 628              		.cfi_startproc
 629              		@ args = 0, pretend = 0, frame = 0
 630              		@ frame_needed = 0, uses_anonymous_args = 0
 631              		@ link register save eliminated.
 632              		.loc 1 81 3 view .LVU156
 633              		.loc 1 81 10 is_stmt 0 view .LVU157
 634 0000 3030     		adds	r0, r0, #48
 635              	.LVL50:
 636              		.loc 1 81 10 view .LVU158
 637 0002 FFF7FEBF 		b	chOQPutTimeout
 638              	.LVL51:
 639              		.loc 1 81 10 view .LVU159
 640              		.cfi_endproc
 641              	.LFE260:
 642              		.size	putt, .-putt
 643 0006 00BF     		.section	.text.put,"ax",%progbits
 644              		.align	1
 645              		.p2align 4,,15
 646              		.syntax unified
 647              		.thumb
 648              		.thumb_func
 649              		.fpu fpv4-sp-d16
 650              		.type	put, %function
 651              	put:
 652              	.LVL52:
 653              	.LFB258:
 654              		.loc 1 69 39 is_stmt 1 view -0
 655              		.cfi_startproc
 656              		@ args = 0, pretend = 0, frame = 0
 657              		@ frame_needed = 0, uses_anonymous_args = 0
 658              		@ link register save eliminated.
 659              		.loc 1 71 3 view .LVU161
 660              		.loc 1 71 10 is_stmt 0 view .LVU162
 661 0000 3030     		adds	r0, r0, #48
 662              	.LVL53:
 663              		.loc 1 71 10 view .LVU163
 664 0002 4FF0FF32 		mov	r2, #-1
 665 0006 FFF7FEBF 		b	chOQPutTimeout
 666              	.LVL54:
 667              		.loc 1 71 10 view .LVU164
 668              		.cfi_endproc
 669              	.LFE258:
 670              		.size	put, .-put
 671 000a 00BF     		.section	.text.sduInit,"ax",%progbits
 672              		.align	1
 673              		.p2align 4,,15
 674              		.global	sduInit
 675              		.syntax unified
 676              		.thumb
 677              		.thumb_func
 678              		.fpu fpv4-sp-d16
 679              		.type	sduInit, %function
 680              	sduInit:
 681              	.LFB266:
 682              		.loc 1 182 20 is_stmt 1 view -0
 683              		.cfi_startproc
 684              		@ args = 0, pretend = 0, frame = 0
ARM GAS  C:\Users\USER\AppData\Local\Temp\ccAZ17mh.s 			page 13


 685              		@ frame_needed = 0, uses_anonymous_args = 0
 686              		@ link register save eliminated.
 687              		.loc 1 183 1 view .LVU166
 688 0000 7047     		bx	lr
 689              		.cfi_endproc
 690              	.LFE266:
 691              		.size	sduInit, .-sduInit
 692 0002 00BF     		.section	.text.sduObjectInit,"ax",%progbits
 693              		.align	1
 694              		.p2align 4,,15
 695              		.global	sduObjectInit
 696              		.syntax unified
 697              		.thumb
 698              		.thumb_func
 699              		.fpu fpv4-sp-d16
 700              		.type	sduObjectInit, %function
 701              	sduObjectInit:
 702              	.LVL55:
 703              	.LFB267:
 704              		.loc 1 194 43 view -0
 705              		.cfi_startproc
 706              		@ args = 0, pretend = 0, frame = 0
 707              		@ frame_needed = 0, uses_anonymous_args = 0
 708              		.loc 1 196 3 view .LVU168
 709              		.loc 1 194 43 is_stmt 0 view .LVU169
 710 0000 10B5     		push	{r4, lr}
 711              		.cfi_def_cfa_offset 8
 712              		.cfi_offset 4, -8
 713              		.cfi_offset 14, -4
 714              		.loc 1 196 13 view .LVU170
 715 0002 0346     		mov	r3, r0
 716 0004 0E4A     		ldr	r2, .L24
 717 0006 43F8042B 		str	r2, [r3], #4
 718              		.loc 1 197 3 is_stmt 1 view .LVU171
 719              	.LVL56:
 720              	.LBB252:
 721              	.LBI252:
 722              		.loc 3 821 20 view .LVU172
 723              	.LBE252:
 724              		.loc 3 823 3 view .LVU173
 725              	.LBB257:
 726              	.LBB253:
 727              	.LBI253:
 728              		.file 7 "src/ChibiOS_3.0.2/os/rt/include/chevents.h"
 729              		.loc 7 170 20 view .LVU174
 730              	.LBB254:
 731              		.loc 7 172 3 view .LVU175
 732              	.LBE254:
 733              	.LBE253:
 734              	.LBE257:
 735              		.loc 1 194 43 is_stmt 0 view .LVU176
 736 000a 82B0     		sub	sp, sp, #8
 737              		.cfi_def_cfa_offset 16
 738              		.loc 1 198 15 view .LVU177
 739 000c 0122     		movs	r2, #1
 740              		.loc 1 194 43 view .LVU178
 741 000e 0446     		mov	r4, r0
ARM GAS  C:\Users\USER\AppData\Local\Temp\ccAZ17mh.s 			page 14


 742              		.loc 1 199 3 view .LVU179
 743 0010 0090     		str	r0, [sp]
 744 0012 00F15401 		add	r1, r0, #84
 745              	.LBB258:
 746              	.LBB256:
 747              	.LBB255:
 748              		.loc 7 172 16 view .LVU180
 749 0016 4360     		str	r3, [r0, #4]
 750              	.LVL57:
 751              		.loc 7 172 16 view .LVU181
 752              	.LBE255:
 753              	.LBE256:
 754              	.LBE258:
 755              		.loc 1 198 3 is_stmt 1 view .LVU182
 756              		.loc 1 198 15 is_stmt 0 view .LVU183
 757 0018 0272     		strb	r2, [r0, #8]
 758              		.loc 1 199 3 is_stmt 1 view .LVU184
 759 001a 0A4B     		ldr	r3, .L24+4
 760 001c 0C30     		adds	r0, r0, #12
 761              	.LVL58:
 762              		.loc 1 199 3 is_stmt 0 view .LVU185
 763 001e 4FF48072 		mov	r2, #256
 764 0022 FFF7FEFF 		bl	chIQObjectInit
 765              	.LVL59:
 766              		.loc 1 200 3 is_stmt 1 view .LVU186
 767 0026 0094     		str	r4, [sp]
 768 0028 04F5AA71 		add	r1, r4, #340
 769 002c 04F13000 		add	r0, r4, #48
 770 0030 054B     		ldr	r3, .L24+8
 771 0032 4FF48072 		mov	r2, #256
 772 0036 FFF7FEFF 		bl	chOQObjectInit
 773              	.LVL60:
 774              		.loc 1 201 1 is_stmt 0 view .LVU187
 775 003a 02B0     		add	sp, sp, #8
 776              		.cfi_def_cfa_offset 8
 777              		@ sp needed
 778 003c 10BD     		pop	{r4, pc}
 779              	.LVL61:
 780              	.L25:
 781              		.loc 1 201 1 view .LVU188
 782 003e 00BF     		.align	2
 783              	.L24:
 784 0040 00000000 		.word	.LANCHOR0
 785 0044 00000000 		.word	inotify
 786 0048 00000000 		.word	onotify
 787              		.cfi_endproc
 788              	.LFE267:
 789              		.size	sduObjectInit, .-sduObjectInit
 790              		.section	.text.sduStart,"ax",%progbits
 791              		.align	1
 792              		.p2align 4,,15
 793              		.global	sduStart
 794              		.syntax unified
 795              		.thumb
 796              		.thumb_func
 797              		.fpu fpv4-sp-d16
 798              		.type	sduStart, %function
ARM GAS  C:\Users\USER\AppData\Local\Temp\ccAZ17mh.s 			page 15


 799              	sduStart:
 800              	.LVL62:
 801              	.LFB268:
 802              		.loc 1 211 69 is_stmt 1 view -0
 803              		.cfi_startproc
 804              		@ args = 0, pretend = 0, frame = 0
 805              		@ frame_needed = 0, uses_anonymous_args = 0
 806              		@ link register save eliminated.
 807              		.loc 1 212 3 view .LVU190
 808              		.loc 1 212 14 is_stmt 0 view .LVU191
 809 0000 0B68     		ldr	r3, [r1]
 810              	.LVL63:
 811              		.loc 1 214 3 is_stmt 1 view .LVU192
 812              		.loc 1 214 3 view .LVU193
 813              		.loc 1 216 3 view .LVU194
 814              	.LBB259:
 815              	.LBI259:
 816              		.loc 3 491 20 view .LVU195
 817              	.LBE259:
 818              		.loc 3 493 3 view .LVU196
 819              	.LBB267:
 820              	.LBB260:
 821              	.LBI260:
 822              		.loc 4 346 20 view .LVU197
 823              	.LBE260:
 824              	.LBE267:
 825              		.loc 4 348 3 view .LVU198
 826              	.LBB268:
 827              	.LBB265:
 828              	.LBB261:
 829              	.LBI261:
 830              		.loc 5 444 20 view .LVU199
 831              	.LBE261:
 832              	.LBE265:
 833              	.LBE268:
 834              		.loc 5 447 3 view .LVU200
 835              	.LBB269:
 836              	.LBB266:
 837              	.LBB264:
 838              	.LBB262:
 839              	.LBI262:
 840              		.loc 6 544 57 view .LVU201
 841              	.LBB263:
 842              		.loc 6 546 3 view .LVU202
 843 0002 2022     		movs	r2, #32
 844              		.syntax unified
 845              	@ 546 "src/ChibiOS_3.0.2/os/ext/CMSIS/include/core_cmFunc.h" 1
 846 0004 82F31188 		MSR basepri, r2
 847              	@ 0 "" 2
 848              	.LVL64:
 849              		.loc 6 546 3 is_stmt 0 view .LVU203
 850              		.thumb
 851              		.syntax unified
 852              	.LBE263:
 853              	.LBE262:
 854              	.LBE264:
 855              	.LBE266:
ARM GAS  C:\Users\USER\AppData\Local\Temp\ccAZ17mh.s 			page 16


 856              	.LBE269:
 857              		.loc 4 349 34 is_stmt 1 view .LVU204
 858              		.loc 4 350 20 view .LVU205
 859              		.loc 1 217 3 view .LVU206
 860              		.loc 1 217 3 view .LVU207
 861              		.loc 1 219 3 view .LVU208
 862              		.loc 1 219 25 is_stmt 0 view .LVU209
 863 0008 0A79     		ldrb	r2, [r1, #4]	@ zero_extendqisi2
 864              		.loc 1 219 43 view .LVU210
 865 000a 03EB8202 		add	r2, r3, r2, lsl #2
 866 000e 9061     		str	r0, [r2, #24]
 867              		.loc 1 220 3 is_stmt 1 view .LVU211
 868              		.loc 1 220 26 is_stmt 0 view .LVU212
 869 0010 4A79     		ldrb	r2, [r1, #5]	@ zero_extendqisi2
 870              		.loc 1 220 43 view .LVU213
 871 0012 0932     		adds	r2, r2, #9
 872 0014 43F82200 		str	r0, [r3, r2, lsl #2]
 873              		.loc 1 221 3 is_stmt 1 view .LVU214
 874              		.loc 1 221 13 is_stmt 0 view .LVU215
 875 0018 8A79     		ldrb	r2, [r1, #6]	@ zero_extendqisi2
 876              		.loc 1 221 6 view .LVU216
 877 001a 12B1     		cbz	r2, .L27
 878              		.loc 1 222 5 is_stmt 1 view .LVU217
 879              		.loc 1 222 43 is_stmt 0 view .LVU218
 880 001c 03EB8203 		add	r3, r3, r2, lsl #2
 881              	.LVL65:
 882              		.loc 1 222 43 view .LVU219
 883 0020 9861     		str	r0, [r3, #24]
 884              	.L27:
 885              		.loc 1 224 3 is_stmt 1 view .LVU220
 886              		.loc 1 225 15 is_stmt 0 view .LVU221
 887 0022 0223     		movs	r3, #2
 888 0024 0372     		strb	r3, [r0, #8]
 889              		.loc 1 224 16 view .LVU222
 890 0026 C0F85412 		str	r1, [r0, #596]
 891              		.loc 1 225 3 is_stmt 1 view .LVU223
 892              		.loc 1 226 3 view .LVU224
 893              	.LBB270:
 894              	.LBI270:
 895              		.loc 3 502 20 view .LVU225
 896              	.LBE270:
 897              		.loc 3 504 3 view .LVU226
 898              	.LBB279:
 899              	.LBB271:
 900              	.LBI271:
 901              		.loc 4 358 20 view .LVU227
 902              	.LBB272:
 903              		.loc 4 360 22 view .LVU228
 904              		.loc 4 361 33 view .LVU229
 905              		.loc 4 367 3 view .LVU230
 906              		.loc 4 367 3 view .LVU231
 907              		.loc 4 371 3 view .LVU232
 908              	.LBB273:
 909              	.LBI273:
 910              		.loc 5 458 20 view .LVU233
 911              	.LBE273:
 912              	.LBE272:
ARM GAS  C:\Users\USER\AppData\Local\Temp\ccAZ17mh.s 			page 17


 913              	.LBE271:
 914              	.LBE279:
 915              		.loc 5 461 3 view .LVU234
 916              	.LVL66:
 917              	.LBB280:
 918              	.LBB278:
 919              	.LBB277:
 920              	.LBB276:
 921              	.LBB274:
 922              	.LBI274:
 923              		.loc 6 544 57 view .LVU235
 924              	.LBB275:
 925              		.loc 6 546 3 view .LVU236
 926 002a 0023     		movs	r3, #0
 927              		.syntax unified
 928              	@ 546 "src/ChibiOS_3.0.2/os/ext/CMSIS/include/core_cmFunc.h" 1
 929 002c 83F31188 		MSR basepri, r3
 930              	@ 0 "" 2
 931              	.LVL67:
 932              		.loc 6 546 3 is_stmt 0 view .LVU237
 933              		.thumb
 934              		.syntax unified
 935              	.LBE275:
 936              	.LBE274:
 937              	.LBE276:
 938              	.LBE277:
 939              	.LBE278:
 940              	.LBE280:
 941              		.loc 1 227 1 view .LVU238
 942 0030 7047     		bx	lr
 943              		.cfi_endproc
 944              	.LFE268:
 945              		.size	sduStart, .-sduStart
 946 0032 00BF     		.section	.text.sduStop,"ax",%progbits
 947              		.align	1
 948              		.p2align 4,,15
 949              		.global	sduStop
 950              		.syntax unified
 951              		.thumb
 952              		.thumb_func
 953              		.fpu fpv4-sp-d16
 954              		.type	sduStop, %function
 955              	sduStop:
 956              	.LVL68:
 957              	.LFB269:
 958              		.loc 1 238 37 is_stmt 1 view -0
 959              		.cfi_startproc
 960              		@ args = 0, pretend = 0, frame = 0
 961              		@ frame_needed = 0, uses_anonymous_args = 0
 962              		.loc 1 239 3 view .LVU240
 963              		.loc 1 239 14 is_stmt 0 view .LVU241
 964 0000 D0F85422 		ldr	r2, [r0, #596]
 965              		.loc 1 238 37 view .LVU242
 966 0004 10B5     		push	{r4, lr}
 967              		.cfi_def_cfa_offset 8
 968              		.cfi_offset 4, -8
 969              		.cfi_offset 14, -4
ARM GAS  C:\Users\USER\AppData\Local\Temp\ccAZ17mh.s 			page 18


 970              	.LBB281:
 971              	.LBB282:
 972              	.LBB283:
 973              	.LBB284:
 974              	.LBB285:
 975              		.loc 6 546 3 view .LVU243
 976 0006 2023     		movs	r3, #32
 977              	.LBE285:
 978              	.LBE284:
 979              	.LBE283:
 980              	.LBE282:
 981              	.LBE281:
 982              		.loc 1 238 37 view .LVU244
 983 0008 0446     		mov	r4, r0
 984              		.loc 1 239 14 view .LVU245
 985 000a 1268     		ldr	r2, [r2]
 986              	.LVL69:
 987              		.loc 1 241 3 is_stmt 1 view .LVU246
 988              		.loc 1 241 3 view .LVU247
 989              		.loc 1 243 3 view .LVU248
 990              	.LBB293:
 991              	.LBI281:
 992              		.loc 3 491 20 view .LVU249
 993              	.LBE293:
 994              		.loc 3 493 3 view .LVU250
 995              	.LBB294:
 996              	.LBB290:
 997              	.LBI282:
 998              		.loc 4 346 20 view .LVU251
 999              	.LBE290:
 1000              	.LBE294:
 1001              		.loc 4 348 3 view .LVU252
 1002              	.LBB295:
 1003              	.LBB291:
 1004              	.LBB288:
 1005              	.LBI283:
 1006              		.loc 5 444 20 view .LVU253
 1007              	.LBE288:
 1008              	.LBE291:
 1009              	.LBE295:
 1010              		.loc 5 447 3 view .LVU254
 1011              	.LBB296:
 1012              	.LBB292:
 1013              	.LBB289:
 1014              	.LBB287:
 1015              	.LBI284:
 1016              		.loc 6 544 57 view .LVU255
 1017              	.LBB286:
 1018              		.loc 6 546 3 view .LVU256
 1019              		.syntax unified
 1020              	@ 546 "src/ChibiOS_3.0.2/os/ext/CMSIS/include/core_cmFunc.h" 1
 1021 000c 83F31188 		MSR basepri, r3
 1022              	@ 0 "" 2
 1023              	.LVL70:
 1024              		.loc 6 546 3 is_stmt 0 view .LVU257
 1025              		.thumb
 1026              		.syntax unified
ARM GAS  C:\Users\USER\AppData\Local\Temp\ccAZ17mh.s 			page 19


 1027              	.LBE286:
 1028              	.LBE287:
 1029              	.LBE289:
 1030              	.LBE292:
 1031              	.LBE296:
 1032              		.loc 4 349 34 is_stmt 1 view .LVU258
 1033              		.loc 4 350 20 view .LVU259
 1034              		.loc 1 244 3 view .LVU260
 1035              		.loc 1 244 3 view .LVU261
 1036              		.loc 1 248 3 view .LVU262
 1037              		.loc 1 248 23 is_stmt 0 view .LVU263
 1038 0010 D0F85412 		ldr	r1, [r0, #596]
 1039              		.loc 1 248 31 view .LVU264
 1040 0014 0B79     		ldrb	r3, [r1, #4]	@ zero_extendqisi2
 1041              		.loc 1 248 49 view .LVU265
 1042 0016 0533     		adds	r3, r3, #5
 1043 0018 02EB8303 		add	r3, r2, r3, lsl #2
 1044 001c 0020     		movs	r0, #0
 1045              	.LVL71:
 1046              		.loc 1 248 49 view .LVU266
 1047 001e 5860     		str	r0, [r3, #4]
 1048              		.loc 1 249 3 is_stmt 1 view .LVU267
 1049              		.loc 1 249 32 is_stmt 0 view .LVU268
 1050 0020 4B79     		ldrb	r3, [r1, #5]	@ zero_extendqisi2
 1051              		.loc 1 249 49 view .LVU269
 1052 0022 0933     		adds	r3, r3, #9
 1053 0024 42F82300 		str	r0, [r2, r3, lsl #2]
 1054              		.loc 1 250 3 is_stmt 1 view .LVU270
 1055              		.loc 1 250 19 is_stmt 0 view .LVU271
 1056 0028 8B79     		ldrb	r3, [r1, #6]	@ zero_extendqisi2
 1057              		.loc 1 250 6 view .LVU272
 1058 002a 1BB1     		cbz	r3, .L32
 1059              		.loc 1 251 5 is_stmt 1 view .LVU273
 1060              		.loc 1 251 49 is_stmt 0 view .LVU274
 1061 002c 0533     		adds	r3, r3, #5
 1062 002e 02EB8302 		add	r2, r2, r3, lsl #2
 1063              	.LVL72:
 1064              		.loc 1 251 49 view .LVU275
 1065 0032 5060     		str	r0, [r2, #4]
 1066              	.L32:
 1067              		.loc 1 253 3 is_stmt 1 view .LVU276
 1068              		.loc 1 253 15 is_stmt 0 view .LVU277
 1069 0034 0123     		movs	r3, #1
 1070 0036 2372     		strb	r3, [r4, #8]
 1071              		.loc 1 256 3 is_stmt 1 view .LVU278
 1072              	.LVL73:
 1073              	.LBB297:
 1074              	.LBI297:
 1075              		.loc 3 841 20 view .LVU279
 1076              	.LBB298:
 1077              		.loc 3 844 3 view .LVU280
 1078 0038 0221     		movs	r1, #2
 1079 003a 201D     		adds	r0, r4, #4
 1080              	.LVL74:
 1081              		.loc 3 844 3 is_stmt 0 view .LVU281
 1082 003c FFF7FEFF 		bl	chEvtBroadcastFlagsI
 1083              	.LVL75:
ARM GAS  C:\Users\USER\AppData\Local\Temp\ccAZ17mh.s 			page 20


 1084              		.loc 3 844 3 view .LVU282
 1085              	.LBE298:
 1086              	.LBE297:
 1087              		.loc 1 256 39 is_stmt 1 view .LVU283
 1088              		.loc 1 257 3 view .LVU284
 1089 0040 04F10C00 		add	r0, r4, #12
 1090 0044 FFF7FEFF 		bl	chIQResetI
 1091              	.LVL76:
 1092              		.loc 1 258 3 view .LVU285
 1093 0048 04F13000 		add	r0, r4, #48
 1094 004c FFF7FEFF 		bl	chIQResetI
 1095              	.LVL77:
 1096              		.loc 1 259 3 view .LVU286
 1097              	.LBB299:
 1098              	.LBI299:
 1099              		.loc 3 598 20 view .LVU287
 1100              	.LBB300:
 1101              		.loc 3 600 3 view .LVU288
 1102 0050 FFF7FEFF 		bl	chSchRescheduleS
 1103              	.LVL78:
 1104              	.LBE300:
 1105              	.LBE299:
 1106              		.loc 1 260 3 view .LVU289
 1107              	.LBB301:
 1108              	.LBI301:
 1109              		.loc 3 502 20 view .LVU290
 1110              	.LBE301:
 1111              		.loc 3 504 3 view .LVU291
 1112              	.LBB310:
 1113              	.LBB302:
 1114              	.LBI302:
 1115              		.loc 4 358 20 view .LVU292
 1116              	.LBB303:
 1117              		.loc 4 360 22 view .LVU293
 1118              		.loc 4 361 33 view .LVU294
 1119              		.loc 4 367 3 view .LVU295
 1120              		.loc 4 367 3 view .LVU296
 1121              		.loc 4 371 3 view .LVU297
 1122              	.LBB304:
 1123              	.LBI304:
 1124              		.loc 5 458 20 view .LVU298
 1125              	.LBE304:
 1126              	.LBE303:
 1127              	.LBE302:
 1128              	.LBE310:
 1129              		.loc 5 461 3 view .LVU299
 1130              	.LBB311:
 1131              	.LBB309:
 1132              	.LBB308:
 1133              	.LBB307:
 1134              	.LBB305:
 1135              	.LBI305:
 1136              		.loc 6 544 57 view .LVU300
 1137              	.LBB306:
 1138              		.loc 6 546 3 view .LVU301
 1139 0054 0023     		movs	r3, #0
 1140              		.syntax unified
ARM GAS  C:\Users\USER\AppData\Local\Temp\ccAZ17mh.s 			page 21


 1141              	@ 546 "src/ChibiOS_3.0.2/os/ext/CMSIS/include/core_cmFunc.h" 1
 1142 0056 83F31188 		MSR basepri, r3
 1143              	@ 0 "" 2
 1144              	.LVL79:
 1145              		.loc 6 546 3 is_stmt 0 view .LVU302
 1146              		.thumb
 1147              		.syntax unified
 1148              	.LBE306:
 1149              	.LBE305:
 1150              	.LBE307:
 1151              	.LBE308:
 1152              	.LBE309:
 1153              	.LBE311:
 1154              		.loc 1 261 1 view .LVU303
 1155 005a 10BD     		pop	{r4, pc}
 1156              		.loc 1 261 1 view .LVU304
 1157              		.cfi_endproc
 1158              	.LFE269:
 1159              		.size	sduStop, .-sduStop
 1160              		.section	.text.sduConfigureHookI,"ax",%progbits
 1161              		.align	1
 1162              		.p2align 4,,15
 1163              		.global	sduConfigureHookI
 1164              		.syntax unified
 1165              		.thumb
 1166              		.thumb_func
 1167              		.fpu fpv4-sp-d16
 1168              		.type	sduConfigureHookI, %function
 1169              	sduConfigureHookI:
 1170              	.LVL80:
 1171              	.LFB270:
 1172              		.loc 1 270 47 is_stmt 1 view -0
 1173              		.cfi_startproc
 1174              		@ args = 0, pretend = 0, frame = 0
 1175              		@ frame_needed = 0, uses_anonymous_args = 0
 1176              		.loc 1 271 3 view .LVU306
 1177              		.loc 1 270 47 is_stmt 0 view .LVU307
 1178 0000 70B5     		push	{r4, r5, r6, lr}
 1179              		.cfi_def_cfa_offset 16
 1180              		.cfi_offset 4, -16
 1181              		.cfi_offset 5, -12
 1182              		.cfi_offset 6, -8
 1183              		.cfi_offset 14, -4
 1184              		.loc 1 271 14 view .LVU308
 1185 0002 D0F85432 		ldr	r3, [r0, #596]
 1186              		.loc 1 273 3 view .LVU309
 1187 0006 00F10C06 		add	r6, r0, #12
 1188              		.loc 1 270 47 view .LVU310
 1189 000a 0446     		mov	r4, r0
 1190              		.loc 1 273 3 view .LVU311
 1191 000c 3046     		mov	r0, r6
 1192              	.LVL81:
 1193              		.loc 1 271 14 view .LVU312
 1194 000e 1D68     		ldr	r5, [r3]
 1195              	.LVL82:
 1196              		.loc 1 273 3 is_stmt 1 view .LVU313
 1197 0010 FFF7FEFF 		bl	chIQResetI
ARM GAS  C:\Users\USER\AppData\Local\Temp\ccAZ17mh.s 			page 22


 1198              	.LVL83:
 1199              		.loc 1 274 3 view .LVU314
 1200 0014 04F13000 		add	r0, r4, #48
 1201 0018 FFF7FEFF 		bl	chOQResetI
 1202              	.LVL84:
 1203              		.loc 1 275 3 view .LVU315
 1204              	.LBB312:
 1205              	.LBI312:
 1206              		.loc 3 841 20 view .LVU316
 1207              	.LBB313:
 1208              		.loc 3 844 3 view .LVU317
 1209 001c 201D     		adds	r0, r4, #4
 1210              	.LVL85:
 1211              		.loc 3 844 3 is_stmt 0 view .LVU318
 1212 001e 0121     		movs	r1, #1
 1213 0020 FFF7FEFF 		bl	chEvtBroadcastFlagsI
 1214              	.LVL86:
 1215              		.loc 3 844 3 view .LVU319
 1216              	.LBE313:
 1217              	.LBE312:
 1218              		.loc 1 275 36 is_stmt 1 view .LVU320
 1219              		.loc 1 278 3 view .LVU321
 1220 0024 D4F85432 		ldr	r3, [r4, #596]
 1221 0028 5979     		ldrb	r1, [r3, #5]	@ zero_extendqisi2
 1222              		.loc 1 279 36 is_stmt 0 view .LVU322
 1223 002a 05EB8103 		add	r3, r5, r1, lsl #2
 1224              		.loc 1 278 3 view .LVU323
 1225 002e 2846     		mov	r0, r5
 1226              		.loc 1 279 60 view .LVU324
 1227 0030 DB68     		ldr	r3, [r3, #12]
 1228              		.loc 1 278 3 view .LVU325
 1229 0032 3246     		mov	r2, r6
 1230 0034 5B8A     		ldrh	r3, [r3, #18]
 1231 0036 FFF7FEFF 		bl	usbPrepareQueuedReceive
 1232              	.LVL87:
 1233              		.loc 1 280 3 is_stmt 1 view .LVU326
 1234              		.loc 1 280 10 is_stmt 0 view .LVU327
 1235 003a D4F85432 		ldr	r3, [r4, #596]
 1236 003e 2846     		mov	r0, r5
 1237 0040 5979     		ldrb	r1, [r3, #5]	@ zero_extendqisi2
 1238              		.loc 1 281 1 view .LVU328
 1239 0042 BDE87040 		pop	{r4, r5, r6, lr}
 1240              		.cfi_restore 14
 1241              		.cfi_restore 6
 1242              		.cfi_restore 5
 1243              		.cfi_restore 4
 1244              		.cfi_def_cfa_offset 0
 1245              	.LVL88:
 1246              		.loc 1 280 10 view .LVU329
 1247 0046 FFF7FEBF 		b	usbStartReceiveI
 1248              	.LVL89:
 1249              		.loc 1 280 10 view .LVU330
 1250              		.cfi_endproc
 1251              	.LFE270:
 1252              		.size	sduConfigureHookI, .-sduConfigureHookI
 1253 004a 00BF     		.section	.text.sduRequestsHook,"ax",%progbits
 1254              		.align	1
ARM GAS  C:\Users\USER\AppData\Local\Temp\ccAZ17mh.s 			page 23


 1255              		.p2align 4,,15
 1256              		.global	sduRequestsHook
 1257              		.syntax unified
 1258              		.thumb
 1259              		.thumb_func
 1260              		.fpu fpv4-sp-d16
 1261              		.type	sduRequestsHook, %function
 1262              	sduRequestsHook:
 1263              	.LVL90:
 1264              	.LFB271:
 1265              		.loc 1 298 39 is_stmt 1 view -0
 1266              		.cfi_startproc
 1267              		@ args = 0, pretend = 0, frame = 0
 1268              		@ frame_needed = 0, uses_anonymous_args = 0
 1269              		@ link register save eliminated.
 1270              		.loc 1 300 3 view .LVU332
 1271              		.loc 1 300 6 is_stmt 0 view .LVU333
 1272 0000 90F84430 		ldrb	r3, [r0, #68]	@ zero_extendqisi2
 1273 0004 03F06003 		and	r3, r3, #96
 1274 0008 202B     		cmp	r3, #32
 1275 000a 01D0     		beq	.L45
 1276              	.L44:
 1277              		.loc 1 313 14 view .LVU334
 1278 000c 0020     		movs	r0, #0
 1279              	.LVL91:
 1280              		.loc 1 317 1 view .LVU335
 1281 000e 7047     		bx	lr
 1282              	.LVL92:
 1283              	.L45:
 1284              		.loc 1 301 5 is_stmt 1 view .LVU336
 1285              		.loc 1 301 24 is_stmt 0 view .LVU337
 1286 0010 90F84530 		ldrb	r3, [r0, #69]	@ zero_extendqisi2
 1287              		.loc 1 301 5 view .LVU338
 1288 0014 202B     		cmp	r3, #32
 1289 0016 F9D3     		bcc	.L44
 1290 0018 212B     		cmp	r3, #33
 1291 001a 07D8     		bhi	.L46
 1292              		.loc 1 303 7 is_stmt 1 view .LVU339
 1293 001c 074B     		ldr	r3, .L47
 1294 001e 8363     		str	r3, [r0, #56]
 1295              		.loc 1 303 7 view .LVU340
 1296 0020 0722     		movs	r2, #7
 1297 0022 0023     		movs	r3, #0
 1298 0024 C0E90F23 		strd	r2, r3, [r0, #60]
 1299              		.loc 1 303 79 view .LVU341
 1300              		.loc 1 304 7 view .LVU342
 1301              		.loc 1 304 14 is_stmt 0 view .LVU343
 1302 0028 0120     		movs	r0, #1
 1303              	.LVL93:
 1304              		.loc 1 304 14 view .LVU344
 1305 002a 7047     		bx	lr
 1306              	.LVL94:
 1307              	.L46:
 1308              		.loc 1 301 5 view .LVU345
 1309 002c 222B     		cmp	r3, #34
 1310 002e EDD1     		bne	.L44
 1311              		.loc 1 310 7 is_stmt 1 view .LVU346
ARM GAS  C:\Users\USER\AppData\Local\Temp\ccAZ17mh.s 			page 24


 1312 0030 0023     		movs	r3, #0
 1313 0032 C0E90E33 		strd	r3, r3, [r0, #56]
 1314              		.loc 1 310 7 view .LVU347
 1315 0036 0364     		str	r3, [r0, #64]
 1316              		.loc 1 310 44 view .LVU348
 1317              		.loc 1 311 7 view .LVU349
 1318              		.loc 1 311 14 is_stmt 0 view .LVU350
 1319 0038 0120     		movs	r0, #1
 1320              	.LVL95:
 1321              		.loc 1 311 14 view .LVU351
 1322 003a 7047     		bx	lr
 1323              	.L48:
 1324              		.align	2
 1325              	.L47:
 1326 003c 00000000 		.word	.LANCHOR1
 1327              		.cfi_endproc
 1328              	.LFE271:
 1329              		.size	sduRequestsHook, .-sduRequestsHook
 1330              		.section	.text.sduDataTransmitted,"ax",%progbits
 1331              		.align	1
 1332              		.p2align 4,,15
 1333              		.global	sduDataTransmitted
 1334              		.syntax unified
 1335              		.thumb
 1336              		.thumb_func
 1337              		.fpu fpv4-sp-d16
 1338              		.type	sduDataTransmitted, %function
 1339              	sduDataTransmitted:
 1340              	.LVL96:
 1341              	.LFB272:
 1342              		.loc 1 327 54 is_stmt 1 view -0
 1343              		.cfi_startproc
 1344              		@ args = 0, pretend = 0, frame = 0
 1345              		@ frame_needed = 0, uses_anonymous_args = 0
 1346              		.loc 1 328 3 view .LVU353
 1347              		.loc 1 329 3 view .LVU354
 1348              		.loc 1 327 54 is_stmt 0 view .LVU355
 1349 0000 F8B5     		push	{r3, r4, r5, r6, r7, lr}
 1350              		.cfi_def_cfa_offset 24
 1351              		.cfi_offset 3, -24
 1352              		.cfi_offset 4, -20
 1353              		.cfi_offset 5, -16
 1354              		.cfi_offset 6, -12
 1355              		.cfi_offset 7, -8
 1356              		.cfi_offset 14, -4
 1357              		.loc 1 329 20 view .LVU356
 1358 0002 00EB8103 		add	r3, r0, r1, lsl #2
 1359 0006 9C69     		ldr	r4, [r3, #24]
 1360              	.LVL97:
 1361              		.loc 1 331 3 is_stmt 1 view .LVU357
 1362              		.loc 1 331 6 is_stmt 0 view .LVU358
 1363 0008 6CB3     		cbz	r4, .L49
 1364              		.loc 1 335 3 is_stmt 1 view .LVU359
 1365              	.LBB314:
 1366              	.LBI314:
 1367              		.loc 3 513 20 view .LVU360
 1368              	.LBE314:
ARM GAS  C:\Users\USER\AppData\Local\Temp\ccAZ17mh.s 			page 25


 1369              		.loc 3 515 3 view .LVU361
 1370              	.LBB326:
 1371              	.LBB315:
 1372              	.LBI315:
 1373              		.loc 4 386 20 view .LVU362
 1374              	.LBE315:
 1375              	.LBE326:
 1376              		.loc 4 388 3 view .LVU363
 1377              	.LBB327:
 1378              	.LBB323:
 1379              	.LBB316:
 1380              	.LBI316:
 1381              		.loc 5 473 20 view .LVU364
 1382              	.LBE316:
 1383              	.LBE323:
 1384              	.LBE327:
 1385              		.loc 5 475 3 view .LVU365
 1386              	.LBB328:
 1387              	.LBB324:
 1388              	.LBB321:
 1389              	.LBB317:
 1390              	.LBI317:
 1391              		.loc 5 444 20 view .LVU366
 1392              	.LBE317:
 1393              	.LBE321:
 1394              	.LBE324:
 1395              	.LBE328:
 1396              		.loc 5 447 3 view .LVU367
 1397              	.LVL98:
 1398              	.LBB329:
 1399              	.LBB325:
 1400              	.LBB322:
 1401              	.LBB320:
 1402              	.LBB318:
 1403              	.LBI318:
 1404              		.loc 6 544 57 view .LVU368
 1405              	.LBB319:
 1406              		.loc 6 546 3 view .LVU369
 1407 000a 0E46     		mov	r6, r1
 1408 000c 0546     		mov	r5, r0
 1409 000e 2027     		movs	r7, #32
 1410              		.syntax unified
 1411              	@ 546 "src/ChibiOS_3.0.2/os/ext/CMSIS/include/core_cmFunc.h" 1
 1412 0010 87F31188 		MSR basepri, r7
 1413              	@ 0 "" 2
 1414              	.LVL99:
 1415              		.loc 6 546 3 is_stmt 0 view .LVU370
 1416              		.thumb
 1417              		.syntax unified
 1418              	.LBE319:
 1419              	.LBE318:
 1420              	.LBE320:
 1421              	.LBE322:
 1422              	.LBE325:
 1423              	.LBE329:
 1424              		.loc 4 389 34 is_stmt 1 view .LVU371
 1425              		.loc 4 390 29 view .LVU372
ARM GAS  C:\Users\USER\AppData\Local\Temp\ccAZ17mh.s 			page 26


 1426              		.loc 1 336 3 view .LVU373
 1427              	.LBB330:
 1428              	.LBI330:
 1429              		.loc 3 841 20 view .LVU374
 1430              	.LBB331:
 1431              		.loc 3 844 3 view .LVU375
 1432 0014 0821     		movs	r1, #8
 1433              	.LVL100:
 1434              		.loc 3 844 3 is_stmt 0 view .LVU376
 1435 0016 201D     		adds	r0, r4, #4
 1436              	.LVL101:
 1437              		.loc 3 844 3 view .LVU377
 1438 0018 FFF7FEFF 		bl	chEvtBroadcastFlagsI
 1439              	.LVL102:
 1440              		.loc 3 844 3 view .LVU378
 1441              	.LBE331:
 1442              	.LBE330:
 1443              		.loc 1 336 39 is_stmt 1 view .LVU379
 1444              		.loc 1 339 3 view .LVU380
 1445              	.LBB332:
 1446              	.LBI332:
 1447              		.loc 2 353 22 view .LVU381
 1448              	.LBB333:
 1449              		.loc 2 355 21 view .LVU382
 1450              		.loc 2 357 3 view .LVU383
 1451              		.loc 2 357 19 is_stmt 0 view .LVU384
 1452 001c D4E90F13 		ldrd	r1, r3, [r4, #60]
 1453              		.loc 2 357 35 view .LVU385
 1454 0020 A26B     		ldr	r2, [r4, #56]
 1455              		.loc 2 357 19 view .LVU386
 1456 0022 5B1A     		subs	r3, r3, r1
 1457              	.LVL103:
 1458              		.loc 2 357 19 view .LVU387
 1459              	.LBE333:
 1460              	.LBE332:
 1461              		.loc 1 339 6 view .LVU388
 1462 0024 9B1A     		subs	r3, r3, r2
 1463              	.LVL104:
 1464              		.loc 1 339 6 view .LVU389
 1465 0026 0CD1     		bne	.L61
 1466              		.loc 1 349 8 is_stmt 1 view .LVU390
 1467              		.loc 1 349 22 is_stmt 0 view .LVU391
 1468 0028 05EB8603 		add	r3, r5, r6, lsl #2
 1469              	.LVL105:
 1470              		.loc 1 349 22 view .LVU392
 1471 002c DB68     		ldr	r3, [r3, #12]
 1472              		.loc 1 349 36 view .LVU393
 1473 002e 5A69     		ldr	r2, [r3, #20]
 1474              	.LVL106:
 1475              		.loc 1 349 36 view .LVU394
 1476 0030 5268     		ldr	r2, [r2, #4]
 1477              		.loc 1 349 11 view .LVU395
 1478 0032 AAB1     		cbz	r2, .L52
 1479              		.loc 1 351 14 discriminator 1 view .LVU396
 1480 0034 1B8A     		ldrh	r3, [r3, #16]
 1481              		.loc 1 351 48 discriminator 1 view .LVU397
 1482 0036 013B     		subs	r3, r3, #1
ARM GAS  C:\Users\USER\AppData\Local\Temp\ccAZ17mh.s 			page 27


 1483              		.loc 1 349 51 discriminator 1 view .LVU398
 1484 0038 1340     		ands	r3, r3, r2
 1485 003a 11D1     		bne	.L52
 1486              		.loc 1 356 5 is_stmt 1 view .LVU399
 1487              	.LBB334:
 1488              	.LBI334:
 1489              		.loc 3 524 20 view .LVU400
 1490              	.LBE334:
 1491              		.loc 3 526 3 view .LVU401
 1492              	.LBB346:
 1493              	.LBB335:
 1494              	.LBI335:
 1495              		.loc 4 406 20 view .LVU402
 1496              	.LBE335:
 1497              	.LBE346:
 1498              		.loc 4 408 31 view .LVU403
 1499              		.loc 4 409 33 view .LVU404
 1500              		.loc 4 410 3 view .LVU405
 1501              	.LBB347:
 1502              	.LBB343:
 1503              	.LBB336:
 1504              	.LBI336:
 1505              		.loc 5 484 20 view .LVU406
 1506              	.LBE336:
 1507              	.LBE343:
 1508              	.LBE347:
 1509              		.loc 5 486 3 view .LVU407
 1510              	.LBB348:
 1511              	.LBB344:
 1512              	.LBB341:
 1513              	.LBB337:
 1514              	.LBI337:
 1515              		.loc 5 458 20 view .LVU408
 1516              	.LBE337:
 1517              	.LBE341:
 1518              	.LBE344:
 1519              	.LBE348:
 1520              		.loc 5 461 3 view .LVU409
 1521              	.LVL107:
 1522              	.LBB349:
 1523              	.LBB345:
 1524              	.LBB342:
 1525              	.LBB340:
 1526              	.LBB338:
 1527              	.LBI338:
 1528              		.loc 6 544 57 view .LVU410
 1529              	.LBB339:
 1530              		.loc 6 546 3 view .LVU411
 1531              		.syntax unified
 1532              	@ 546 "src/ChibiOS_3.0.2/os/ext/CMSIS/include/core_cmFunc.h" 1
 1533 003c 83F31188 		MSR basepri, r3
 1534              	@ 0 "" 2
 1535              		.thumb
 1536              		.syntax unified
 1537 0040 02E0     		b	.L60
 1538              	.LVL108:
 1539              	.L61:
ARM GAS  C:\Users\USER\AppData\Local\Temp\ccAZ17mh.s 			page 28


 1540              		.loc 6 546 3 is_stmt 0 view .LVU412
 1541              	.LBE339:
 1542              	.LBE338:
 1543              	.LBE340:
 1544              	.LBE342:
 1545              	.LBE345:
 1546              	.LBE349:
 1547              		.loc 1 342 5 is_stmt 1 view .LVU413
 1548              	.LBB350:
 1549              	.LBI350:
 1550              		.loc 3 524 20 view .LVU414
 1551              	.LBE350:
 1552              		.loc 3 526 3 view .LVU415
 1553              	.LBB362:
 1554              	.LBB351:
 1555              	.LBI351:
 1556              		.loc 4 406 20 view .LVU416
 1557              	.LBE351:
 1558              	.LBE362:
 1559              		.loc 4 408 31 view .LVU417
 1560              		.loc 4 409 33 view .LVU418
 1561              		.loc 4 410 3 view .LVU419
 1562              	.LBB363:
 1563              	.LBB359:
 1564              	.LBB352:
 1565              	.LBI352:
 1566              		.loc 5 484 20 view .LVU420
 1567              	.LBE352:
 1568              	.LBE359:
 1569              	.LBE363:
 1570              		.loc 5 486 3 view .LVU421
 1571              	.LBB364:
 1572              	.LBB360:
 1573              	.LBB357:
 1574              	.LBB353:
 1575              	.LBI353:
 1576              		.loc 5 458 20 view .LVU422
 1577              	.LBE353:
 1578              	.LBE357:
 1579              	.LBE360:
 1580              	.LBE364:
 1581              		.loc 5 461 3 view .LVU423
 1582              	.LBB365:
 1583              	.LBB361:
 1584              	.LBB358:
 1585              	.LBB356:
 1586              	.LBB354:
 1587              	.LBI354:
 1588              		.loc 6 544 57 view .LVU424
 1589              	.LBB355:
 1590              		.loc 6 546 3 view .LVU425
 1591 0042 0022     		movs	r2, #0
 1592              		.syntax unified
 1593              	@ 546 "src/ChibiOS_3.0.2/os/ext/CMSIS/include/core_cmFunc.h" 1
 1594 0044 82F31188 		MSR basepri, r2
 1595              	@ 0 "" 2
 1596              	.LVL109:
ARM GAS  C:\Users\USER\AppData\Local\Temp\ccAZ17mh.s 			page 29


 1597              		.loc 6 546 3 is_stmt 0 view .LVU426
 1598              		.thumb
 1599              		.syntax unified
 1600              	.LBE355:
 1601              	.LBE354:
 1602              	.LBE356:
 1603              	.LBE358:
 1604              	.LBE361:
 1605              	.LBE365:
 1606              		.loc 1 344 5 is_stmt 1 view .LVU427
 1607              	.L60:
 1608              		.loc 1 358 5 view .LVU428
 1609 0048 04F13002 		add	r2, r4, #48
 1610 004c 3146     		mov	r1, r6
 1611              		.loc 1 358 5 is_stmt 0 view .LVU429
 1612 004e 2846     		mov	r0, r5
 1613 0050 FFF7FEFF 		bl	usbPrepareQueuedTransmit
 1614              	.LVL110:
 1615              		.loc 1 360 5 is_stmt 1 view .LVU430
 1616              	.LBB366:
 1617              	.LBI366:
 1618              		.loc 3 513 20 view .LVU431
 1619              	.LBE366:
 1620              		.loc 3 515 3 view .LVU432
 1621              	.LBB378:
 1622              	.LBB367:
 1623              	.LBI367:
 1624              		.loc 4 386 20 view .LVU433
 1625              	.LBE367:
 1626              	.LBE378:
 1627              		.loc 4 388 3 view .LVU434
 1628              	.LBB379:
 1629              	.LBB375:
 1630              	.LBB368:
 1631              	.LBI368:
 1632              		.loc 5 473 20 view .LVU435
 1633              	.LBE368:
 1634              	.LBE375:
 1635              	.LBE379:
 1636              		.loc 5 475 3 view .LVU436
 1637              	.LBB380:
 1638              	.LBB376:
 1639              	.LBB373:
 1640              	.LBB369:
 1641              	.LBI369:
 1642              		.loc 5 444 20 view .LVU437
 1643              	.LBE369:
 1644              	.LBE373:
 1645              	.LBE376:
 1646              	.LBE380:
 1647              		.loc 5 447 3 view .LVU438
 1648              	.LBB381:
 1649              	.LBB377:
 1650              	.LBB374:
 1651              	.LBB372:
 1652              	.LBB370:
 1653              	.LBI370:
ARM GAS  C:\Users\USER\AppData\Local\Temp\ccAZ17mh.s 			page 30


 1654              		.loc 6 544 57 view .LVU439
 1655              	.LBB371:
 1656              		.loc 6 546 3 view .LVU440
 1657              		.syntax unified
 1658              	@ 546 "src/ChibiOS_3.0.2/os/ext/CMSIS/include/core_cmFunc.h" 1
 1659 0054 87F31188 		MSR basepri, r7
 1660              	@ 0 "" 2
 1661              	.LVL111:
 1662              		.loc 6 546 3 is_stmt 0 view .LVU441
 1663              		.thumb
 1664              		.syntax unified
 1665              	.LBE371:
 1666              	.LBE370:
 1667              	.LBE372:
 1668              	.LBE374:
 1669              	.LBE377:
 1670              	.LBE381:
 1671              		.loc 4 389 34 is_stmt 1 view .LVU442
 1672              		.loc 4 390 29 view .LVU443
 1673              		.loc 1 361 5 view .LVU444
 1674              		.loc 1 361 12 is_stmt 0 view .LVU445
 1675 0058 3146     		mov	r1, r6
 1676 005a 2846     		mov	r0, r5
 1677 005c FFF7FEFF 		bl	usbStartTransmitI
 1678              	.LVL112:
 1679              	.L52:
 1680              		.loc 1 365 3 is_stmt 1 view .LVU446
 1681              	.LBB382:
 1682              	.LBI382:
 1683              		.loc 3 524 20 view .LVU447
 1684              	.LBE382:
 1685              		.loc 3 526 3 view .LVU448
 1686              	.LBB394:
 1687              	.LBB383:
 1688              	.LBI383:
 1689              		.loc 4 406 20 view .LVU449
 1690              	.LBE383:
 1691              	.LBE394:
 1692              		.loc 4 408 31 view .LVU450
 1693              		.loc 4 409 33 view .LVU451
 1694              		.loc 4 410 3 view .LVU452
 1695              	.LBB395:
 1696              	.LBB391:
 1697              	.LBB384:
 1698              	.LBI384:
 1699              		.loc 5 484 20 view .LVU453
 1700              	.LBE384:
 1701              	.LBE391:
 1702              	.LBE395:
 1703              		.loc 5 486 3 view .LVU454
 1704              	.LBB396:
 1705              	.LBB392:
 1706              	.LBB389:
 1707              	.LBB385:
 1708              	.LBI385:
 1709              		.loc 5 458 20 view .LVU455
 1710              	.LBE385:
ARM GAS  C:\Users\USER\AppData\Local\Temp\ccAZ17mh.s 			page 31


 1711              	.LBE389:
 1712              	.LBE392:
 1713              	.LBE396:
 1714              		.loc 5 461 3 view .LVU456
 1715              	.LBB397:
 1716              	.LBB393:
 1717              	.LBB390:
 1718              	.LBB388:
 1719              	.LBB386:
 1720              	.LBI386:
 1721              		.loc 6 544 57 view .LVU457
 1722              	.LBB387:
 1723              		.loc 6 546 3 view .LVU458
 1724 0060 0023     		movs	r3, #0
 1725              		.syntax unified
 1726              	@ 546 "src/ChibiOS_3.0.2/os/ext/CMSIS/include/core_cmFunc.h" 1
 1727 0062 83F31188 		MSR basepri, r3
 1728              	@ 0 "" 2
 1729              	.LVL113:
 1730              		.thumb
 1731              		.syntax unified
 1732              	.L49:
 1733              		.loc 6 546 3 is_stmt 0 view .LVU459
 1734              	.LBE387:
 1735              	.LBE386:
 1736              	.LBE388:
 1737              	.LBE390:
 1738              	.LBE393:
 1739              	.LBE397:
 1740              		.loc 1 366 1 view .LVU460
 1741 0066 F8BD     		pop	{r3, r4, r5, r6, r7, pc}
 1742              		.loc 1 366 1 view .LVU461
 1743              		.cfi_endproc
 1744              	.LFE272:
 1745              		.size	sduDataTransmitted, .-sduDataTransmitted
 1746              		.section	.text.sduDataReceived,"ax",%progbits
 1747              		.align	1
 1748              		.p2align 4,,15
 1749              		.global	sduDataReceived
 1750              		.syntax unified
 1751              		.thumb
 1752              		.thumb_func
 1753              		.fpu fpv4-sp-d16
 1754              		.type	sduDataReceived, %function
 1755              	sduDataReceived:
 1756              	.LVL114:
 1757              	.LFB273:
 1758              		.loc 1 376 51 is_stmt 1 view -0
 1759              		.cfi_startproc
 1760              		@ args = 0, pretend = 0, frame = 0
 1761              		@ frame_needed = 0, uses_anonymous_args = 0
 1762              		.loc 1 377 3 view .LVU463
 1763              		.loc 1 378 3 view .LVU464
 1764              		.loc 1 378 20 is_stmt 0 view .LVU465
 1765 0000 01F10903 		add	r3, r1, #9
 1766              		.loc 1 376 51 view .LVU466
 1767 0004 2DE9F041 		push	{r4, r5, r6, r7, r8, lr}
ARM GAS  C:\Users\USER\AppData\Local\Temp\ccAZ17mh.s 			page 32


 1768              		.cfi_def_cfa_offset 24
 1769              		.cfi_offset 4, -24
 1770              		.cfi_offset 5, -20
 1771              		.cfi_offset 6, -16
 1772              		.cfi_offset 7, -12
 1773              		.cfi_offset 8, -8
 1774              		.cfi_offset 14, -4
 1775              		.loc 1 378 20 view .LVU467
 1776 0008 50F82340 		ldr	r4, [r0, r3, lsl #2]
 1777              	.LVL115:
 1778              		.loc 1 380 3 is_stmt 1 view .LVU468
 1779              		.loc 1 380 6 is_stmt 0 view .LVU469
 1780 000c BCB1     		cbz	r4, .L62
 1781              		.loc 1 384 3 is_stmt 1 view .LVU470
 1782              	.LBB398:
 1783              	.LBI398:
 1784              		.loc 3 513 20 view .LVU471
 1785              	.LBE398:
 1786              		.loc 3 515 3 view .LVU472
 1787              	.LBB410:
 1788              	.LBB399:
 1789              	.LBI399:
 1790              		.loc 4 386 20 view .LVU473
 1791              	.LBE399:
 1792              	.LBE410:
 1793              		.loc 4 388 3 view .LVU474
 1794              	.LBB411:
 1795              	.LBB407:
 1796              	.LBB400:
 1797              	.LBI400:
 1798              		.loc 5 473 20 view .LVU475
 1799              	.LBE400:
 1800              	.LBE407:
 1801              	.LBE411:
 1802              		.loc 5 475 3 view .LVU476
 1803              	.LBB412:
 1804              	.LBB408:
 1805              	.LBB405:
 1806              	.LBB401:
 1807              	.LBI401:
 1808              		.loc 5 444 20 view .LVU477
 1809              	.LBE401:
 1810              	.LBE405:
 1811              	.LBE408:
 1812              	.LBE412:
 1813              		.loc 5 447 3 view .LVU478
 1814              	.LVL116:
 1815              	.LBB413:
 1816              	.LBB409:
 1817              	.LBB406:
 1818              	.LBB404:
 1819              	.LBB402:
 1820              	.LBI402:
 1821              		.loc 6 544 57 view .LVU479
 1822              	.LBB403:
 1823              		.loc 6 546 3 view .LVU480
 1824 000e 0746     		mov	r7, r0
ARM GAS  C:\Users\USER\AppData\Local\Temp\ccAZ17mh.s 			page 33


 1825 0010 0E46     		mov	r6, r1
 1826 0012 4FF02008 		mov	r8, #32
 1827              		.syntax unified
 1828              	@ 546 "src/ChibiOS_3.0.2/os/ext/CMSIS/include/core_cmFunc.h" 1
 1829 0016 88F31188 		MSR basepri, r8
 1830              	@ 0 "" 2
 1831              	.LVL117:
 1832              		.loc 6 546 3 is_stmt 0 view .LVU481
 1833              		.thumb
 1834              		.syntax unified
 1835              	.LBE403:
 1836              	.LBE402:
 1837              	.LBE404:
 1838              	.LBE406:
 1839              	.LBE409:
 1840              	.LBE413:
 1841              		.loc 4 389 34 is_stmt 1 view .LVU482
 1842              		.loc 4 390 29 view .LVU483
 1843              		.loc 1 385 3 view .LVU484
 1844              	.LBB414:
 1845              	.LBI414:
 1846              		.loc 3 841 20 view .LVU485
 1847              	.LBB415:
 1848              		.loc 3 844 3 view .LVU486
 1849 001a 0421     		movs	r1, #4
 1850              	.LVL118:
 1851              		.loc 3 844 3 is_stmt 0 view .LVU487
 1852 001c 6018     		adds	r0, r4, r1
 1853              	.LVL119:
 1854              		.loc 3 844 3 view .LVU488
 1855 001e FFF7FEFF 		bl	chEvtBroadcastFlagsI
 1856              	.LVL120:
 1857              		.loc 3 844 3 view .LVU489
 1858              	.LBE415:
 1859              	.LBE414:
 1860              		.loc 1 385 42 is_stmt 1 view .LVU490
 1861              		.loc 1 389 3 view .LVU491
 1862              		.loc 1 389 22 is_stmt 0 view .LVU492
 1863 0022 07EB8603 		add	r3, r7, r6, lsl #2
 1864              	.LBB416:
 1865              	.LBB417:
 1866              		.loc 2 290 19 view .LVU493
 1867 0026 E569     		ldr	r5, [r4, #28]
 1868              	.LBE417:
 1869              	.LBE416:
 1870              		.loc 1 389 26 view .LVU494
 1871 0028 D968     		ldr	r1, [r3, #12]
 1872              	.LBB420:
 1873              	.LBB418:
 1874              		.loc 2 290 19 view .LVU495
 1875 002a A269     		ldr	r2, [r4, #24]
 1876              		.loc 2 290 35 view .LVU496
 1877 002c 6369     		ldr	r3, [r4, #20]
 1878              	.LBE418:
 1879              	.LBE420:
 1880              		.loc 1 389 11 view .LVU497
 1881 002e 498A     		ldrh	r1, [r1, #18]
ARM GAS  C:\Users\USER\AppData\Local\Temp\ccAZ17mh.s 			page 34


 1882              	.LVL121:
 1883              		.loc 1 390 3 is_stmt 1 view .LVU498
 1884              	.LBB421:
 1885              	.LBI416:
 1886              		.loc 2 286 22 view .LVU499
 1887              	.LBB419:
 1888              		.loc 2 288 21 view .LVU500
 1889              		.loc 2 290 3 view .LVU501
 1890              		.loc 2 290 19 is_stmt 0 view .LVU502
 1891 0030 AA1A     		subs	r2, r5, r2
 1892              		.loc 2 290 10 view .LVU503
 1893 0032 D21A     		subs	r2, r2, r3
 1894              	.LVL122:
 1895              		.loc 2 290 10 view .LVU504
 1896              	.LBE419:
 1897              	.LBE421:
 1898              		.loc 1 390 6 view .LVU505
 1899 0034 9142     		cmp	r1, r2
 1900 0036 04D9     		bls	.L69
 1901              	.LVL123:
 1902              	.L64:
 1903              		.loc 1 401 3 is_stmt 1 view .LVU506
 1904              	.LBB422:
 1905              	.LBI422:
 1906              		.loc 3 524 20 view .LVU507
 1907              	.LBE422:
 1908              		.loc 3 526 3 view .LVU508
 1909              	.LBB434:
 1910              	.LBB423:
 1911              	.LBI423:
 1912              		.loc 4 406 20 view .LVU509
 1913              	.LBE423:
 1914              	.LBE434:
 1915              		.loc 4 408 31 view .LVU510
 1916              		.loc 4 409 33 view .LVU511
 1917              		.loc 4 410 3 view .LVU512
 1918              	.LBB435:
 1919              	.LBB431:
 1920              	.LBB424:
 1921              	.LBI424:
 1922              		.loc 5 484 20 view .LVU513
 1923              	.LBE424:
 1924              	.LBE431:
 1925              	.LBE435:
 1926              		.loc 5 486 3 view .LVU514
 1927              	.LBB436:
 1928              	.LBB432:
 1929              	.LBB429:
 1930              	.LBB425:
 1931              	.LBI425:
 1932              		.loc 5 458 20 view .LVU515
 1933              	.LBE425:
 1934              	.LBE429:
 1935              	.LBE432:
 1936              	.LBE436:
 1937              		.loc 5 461 3 view .LVU516
 1938              	.LBB437:
ARM GAS  C:\Users\USER\AppData\Local\Temp\ccAZ17mh.s 			page 35


 1939              	.LBB433:
 1940              	.LBB430:
 1941              	.LBB428:
 1942              	.LBB426:
 1943              	.LBI426:
 1944              		.loc 6 544 57 view .LVU517
 1945              	.LBB427:
 1946              		.loc 6 546 3 view .LVU518
 1947 0038 0023     		movs	r3, #0
 1948              		.syntax unified
 1949              	@ 546 "src/ChibiOS_3.0.2/os/ext/CMSIS/include/core_cmFunc.h" 1
 1950 003a 83F31188 		MSR basepri, r3
 1951              	@ 0 "" 2
 1952              	.LVL124:
 1953              		.thumb
 1954              		.syntax unified
 1955              	.L62:
 1956              		.loc 6 546 3 is_stmt 0 view .LVU519
 1957              	.LBE427:
 1958              	.LBE426:
 1959              	.LBE428:
 1960              	.LBE430:
 1961              	.LBE433:
 1962              	.LBE437:
 1963              		.loc 1 402 1 view .LVU520
 1964 003e BDE8F081 		pop	{r4, r5, r6, r7, r8, pc}
 1965              	.LVL125:
 1966              	.L69:
 1967              		.loc 1 393 5 is_stmt 1 view .LVU521
 1968              	.LBB438:
 1969              	.LBI438:
 1970              		.loc 3 524 20 view .LVU522
 1971              	.LBE438:
 1972              		.loc 3 526 3 view .LVU523
 1973              	.LBB450:
 1974              	.LBB439:
 1975              	.LBI439:
 1976              		.loc 4 406 20 view .LVU524
 1977              	.LBE439:
 1978              	.LBE450:
 1979              		.loc 4 408 31 view .LVU525
 1980              		.loc 4 409 33 view .LVU526
 1981              		.loc 4 410 3 view .LVU527
 1982              	.LBB451:
 1983              	.LBB447:
 1984              	.LBB440:
 1985              	.LBI440:
 1986              		.loc 5 484 20 view .LVU528
 1987              	.LBE440:
 1988              	.LBE447:
 1989              	.LBE451:
 1990              		.loc 5 486 3 view .LVU529
 1991              	.LBB452:
 1992              	.LBB448:
 1993              	.LBB445:
 1994              	.LBB441:
 1995              	.LBI441:
ARM GAS  C:\Users\USER\AppData\Local\Temp\ccAZ17mh.s 			page 36


 1996              		.loc 5 458 20 view .LVU530
 1997              	.LBE441:
 1998              	.LBE445:
 1999              	.LBE448:
 2000              	.LBE452:
 2001              		.loc 5 461 3 view .LVU531
 2002              	.LBB453:
 2003              	.LBB449:
 2004              	.LBB446:
 2005              	.LBB444:
 2006              	.LBB442:
 2007              	.LBI442:
 2008              		.loc 6 544 57 view .LVU532
 2009              	.LBB443:
 2010              		.loc 6 546 3 view .LVU533
 2011 0042 0023     		movs	r3, #0
 2012              		.syntax unified
 2013              	@ 546 "src/ChibiOS_3.0.2/os/ext/CMSIS/include/core_cmFunc.h" 1
 2014 0044 83F31188 		MSR basepri, r3
 2015              	@ 0 "" 2
 2016              	.LVL126:
 2017              		.loc 6 546 3 is_stmt 0 view .LVU534
 2018              		.thumb
 2019              		.syntax unified
 2020              	.LBE443:
 2021              	.LBE442:
 2022              	.LBE444:
 2023              	.LBE446:
 2024              	.LBE449:
 2025              	.LBE453:
 2026              		.loc 1 395 5 is_stmt 1 view .LVU535
 2027              		.loc 1 396 5 view .LVU536
 2028              		.loc 1 395 12 is_stmt 0 view .LVU537
 2029 0048 B2FBF1F3 		udiv	r3, r2, r1
 2030              		.loc 1 396 5 view .LVU538
 2031 004c 3846     		mov	r0, r7
 2032 004e 01FB03F3 		mul	r3, r1, r3
 2033              	.LVL127:
 2034              		.loc 1 396 5 view .LVU539
 2035 0052 04F10C02 		add	r2, r4, #12
 2036 0056 3146     		mov	r1, r6
 2037              	.LVL128:
 2038              		.loc 1 396 5 view .LVU540
 2039 0058 FFF7FEFF 		bl	usbPrepareQueuedReceive
 2040              	.LVL129:
 2041              		.loc 1 398 5 is_stmt 1 view .LVU541
 2042              	.LBB454:
 2043              	.LBI454:
 2044              		.loc 3 513 20 view .LVU542
 2045              	.LBE454:
 2046              		.loc 3 515 3 view .LVU543
 2047              	.LBB466:
 2048              	.LBB455:
 2049              	.LBI455:
 2050              		.loc 4 386 20 view .LVU544
 2051              	.LBE455:
 2052              	.LBE466:
ARM GAS  C:\Users\USER\AppData\Local\Temp\ccAZ17mh.s 			page 37


 2053              		.loc 4 388 3 view .LVU545
 2054              	.LBB467:
 2055              	.LBB463:
 2056              	.LBB456:
 2057              	.LBI456:
 2058              		.loc 5 473 20 view .LVU546
 2059              	.LBE456:
 2060              	.LBE463:
 2061              	.LBE467:
 2062              		.loc 5 475 3 view .LVU547
 2063              	.LBB468:
 2064              	.LBB464:
 2065              	.LBB461:
 2066              	.LBB457:
 2067              	.LBI457:
 2068              		.loc 5 444 20 view .LVU548
 2069              	.LBE457:
 2070              	.LBE461:
 2071              	.LBE464:
 2072              	.LBE468:
 2073              		.loc 5 447 3 view .LVU549
 2074              	.LBB469:
 2075              	.LBB465:
 2076              	.LBB462:
 2077              	.LBB460:
 2078              	.LBB458:
 2079              	.LBI458:
 2080              		.loc 6 544 57 view .LVU550
 2081              	.LBB459:
 2082              		.loc 6 546 3 view .LVU551
 2083              		.syntax unified
 2084              	@ 546 "src/ChibiOS_3.0.2/os/ext/CMSIS/include/core_cmFunc.h" 1
 2085 005c 88F31188 		MSR basepri, r8
 2086              	@ 0 "" 2
 2087              	.LVL130:
 2088              		.loc 6 546 3 is_stmt 0 view .LVU552
 2089              		.thumb
 2090              		.syntax unified
 2091              	.LBE459:
 2092              	.LBE458:
 2093              	.LBE460:
 2094              	.LBE462:
 2095              	.LBE465:
 2096              	.LBE469:
 2097              		.loc 4 389 34 is_stmt 1 view .LVU553
 2098              		.loc 4 390 29 view .LVU554
 2099              		.loc 1 399 5 view .LVU555
 2100              		.loc 1 399 12 is_stmt 0 view .LVU556
 2101 0060 3146     		mov	r1, r6
 2102 0062 3846     		mov	r0, r7
 2103 0064 FFF7FEFF 		bl	usbStartReceiveI
 2104              	.LVL131:
 2105 0068 E6E7     		b	.L64
 2106              		.cfi_endproc
 2107              	.LFE273:
 2108              		.size	sduDataReceived, .-sduDataReceived
 2109 006a 00BF     		.section	.text.sduInterruptTransmitted,"ax",%progbits
ARM GAS  C:\Users\USER\AppData\Local\Temp\ccAZ17mh.s 			page 38


 2110              		.align	1
 2111              		.p2align 4,,15
 2112              		.global	sduInterruptTransmitted
 2113              		.syntax unified
 2114              		.thumb
 2115              		.thumb_func
 2116              		.fpu fpv4-sp-d16
 2117              		.type	sduInterruptTransmitted, %function
 2118              	sduInterruptTransmitted:
 2119              	.LVL132:
 2120              	.LFB274:
 2121              		.loc 1 412 59 is_stmt 1 view -0
 2122              		.cfi_startproc
 2123              		@ args = 0, pretend = 0, frame = 0
 2124              		@ frame_needed = 0, uses_anonymous_args = 0
 2125              		@ link register save eliminated.
 2126              		.loc 1 414 3 view .LVU558
 2127              		.loc 1 415 3 view .LVU559
 2128              		.loc 1 416 1 is_stmt 0 view .LVU560
 2129 0000 7047     		bx	lr
 2130              		.cfi_endproc
 2131              	.LFE274:
 2132              		.size	sduInterruptTransmitted, .-sduInterruptTransmitted
 2133 0002 00BF     		.section	.data.linecoding,"aw"
 2134              		.align	2
 2135              		.set	.LANCHOR1,. + 0
 2136              		.type	linecoding, %object
 2137              		.size	linecoding, 7
 2138              	linecoding:
 2139 0000 00       		.byte	0
 2140 0001 96       		.byte	-106
 2141 0002 00       		.byte	0
 2142 0003 00       		.byte	0
 2143 0004 00       		.byte	0
 2144 0005 00       		.byte	0
 2145 0006 08       		.byte	8
 2146              		.section	.rodata.vmt,"a"
 2147              		.align	2
 2148              		.set	.LANCHOR0,. + 0
 2149              		.type	vmt, %object
 2150              		.size	vmt, 32
 2151              	vmt:
 2152 0000 00000000 		.word	write
 2153 0004 00000000 		.word	read
 2154 0008 00000000 		.word	put
 2155 000c 00000000 		.word	get
 2156 0010 00000000 		.word	putt
 2157 0014 00000000 		.word	gett
 2158 0018 00000000 		.word	writet
 2159 001c 00000000 		.word	readt
 2160              		.text
 2161              	.Letext0:
 2162              		.file 8 "c:\\program files (x86)\\gnu tools arm embedded\\8 2018-q4-major\\lib\\gcc\\arm-none-eabi
 2163              		.file 9 "c:\\program files (x86)\\gnu tools arm embedded\\8 2018-q4-major\\arm-none-eabi\\include\
 2164              		.file 10 "c:\\program files (x86)\\gnu tools arm embedded\\8 2018-q4-major\\arm-none-eabi\\include
 2165              		.file 11 "src/ChibiOS_3.0.2/os/rt/ports/ARMCMx/compilers/GCC/chtypes.h"
 2166              		.file 12 "src/ChibiOS_3.0.2/os/rt/include/chsystypes.h"
ARM GAS  C:\Users\USER\AppData\Local\Temp\ccAZ17mh.s 			page 39


 2167              		.file 13 "src/ChibiOS_3.0.2/os/rt/include/chschd.h"
 2168              		.file 14 "src/ChibiOS_3.0.2/os/ext/CMSIS/include/core_cm4.h"
 2169              		.file 15 "src/ChibiOS_3.0.2/os/ext/CMSIS/ST/system_stm32f4xx.h"
 2170              		.file 16 "src/ChibiOS_3.0.2/os/ext/CMSIS/ST/stm32f407xx.h"
 2171              		.file 17 "src/ChibiOS_3.0.2/os/rt/ports/ARMCMx/chcore.h"
 2172              		.file 18 "src/ChibiOS_3.0.2/os/rt/include/chtm.h"
 2173              		.file 19 "src/ChibiOS_3.0.2/os/rt/include/chsem.h"
 2174              		.file 20 "src/ChibiOS_3.0.2/os/rt/include/chmtx.h"
 2175              		.file 21 "src/ChibiOS_3.0.2/os/rt/include/chregistry.h"
 2176              		.file 22 "src/ChibiOS_3.0.2/os/hal/ports/STM32/STM32F4xx/stm32_dma.h"
 2177              		.file 23 "src/ChibiOS_3.0.2/os/hal/ports/STM32/LLD/GPIOv2/pal_lld.h"
 2178              		.file 24 "src/ChibiOS_3.0.2/os/hal/include/can.h"
 2179              		.file 25 "src/ChibiOS_3.0.2/os/hal/ports/STM32/LLD/can_lld.h"
 2180              		.file 26 "src/ChibiOS_3.0.2/os/hal/include/i2c.h"
 2181              		.file 27 "src/ChibiOS_3.0.2/os/hal/ports/STM32/LLD/I2Cv1/i2c_lld.h"
 2182              		.file 28 "src/ChibiOS_3.0.2/os/hal/include/icu.h"
 2183              		.file 29 "src/ChibiOS_3.0.2/os/hal/ports/STM32/LLD/TIMv1/icu_lld.h"
 2184              		.file 30 "src/ChibiOS_3.0.2/os/hal/ports/STM32/LLD/TIMv1/stm32_tim.h"
 2185              		.file 31 "src/ChibiOS_3.0.2/os/hal/include/serial.h"
 2186              		.file 32 "src/ChibiOS_3.0.2/os/hal/ports/STM32/LLD/USARTv1/serial_lld.h"
 2187              		.file 33 "src/ChibiOS_3.0.2/os/hal/include/spi.h"
 2188              		.file 34 "src/ChibiOS_3.0.2/os/hal/ports/STM32/LLD/SPIv1/spi_lld.h"
 2189              		.file 35 "src/ChibiOS_3.0.2/os/hal/include/uart.h"
 2190              		.file 36 "src/ChibiOS_3.0.2/os/hal/ports/STM32/LLD/USARTv1/uart_lld.h"
 2191              		.file 37 "src/ChibiOS_3.0.2/os/hal/include/usb.h"
 2192              		.file 38 "src/ChibiOS_3.0.2/os/hal/ports/STM32/LLD/OTGv1/usb_lld.h"
 2193              		.file 39 "src/ChibiOS_3.0.2/os/hal/ports/STM32/LLD/OTGv1/stm32_otg.h"
 2194              		.file 40 "src/ChibiOS_3.0.2/os/hal/include/serial_usb.h"