ARM GAS  C:\Users\IDONNO~1\AppData\Local\Temp\cctBsQvq.s 			page 1


   1              		.syntax unified
   2              		.cpu cortex-m4
   3              		.eabi_attribute 27, 1
   4              		.eabi_attribute 28, 1
   5              		.fpu fpv4-sp-d16
   6              		.eabi_attribute 20, 1
   7              		.eabi_attribute 21, 1
   8              		.eabi_attribute 23, 3
   9              		.eabi_attribute 24, 1
  10              		.eabi_attribute 25, 1
  11              		.eabi_attribute 26, 1
  12              		.eabi_attribute 30, 2
  13              		.eabi_attribute 34, 1
  14              		.eabi_attribute 18, 4
  15              		.thumb
  16              		.syntax unified
  17              		.file	"serial_lld.c"
  18              		.text
  19              	.Ltext0:
  20              		.cfi_sections	.debug_frame
  21              		.section	.text.notify1,"ax",%progbits
  22              		.align	2
  23              		.p2align 4,,15
  24              		.thumb
  25              		.thumb_func
  26              		.type	notify1, %function
  27              	notify1:
  28              	.LFB260:
  29              		.file 1 "src/ChibiOS_3.0.2/os/hal/ports/STM32/LLD/USARTv1/serial_lld.c"
  30              		.loc 1 208 0
  31              		.cfi_startproc
  32              		@ args = 0, pretend = 0, frame = 0
  33              		@ frame_needed = 0, uses_anonymous_args = 0
  34              		@ link register save eliminated.
  35              	.LVL0:
  36              		.loc 1 211 0
  37 0000 024A     		ldr	r2, .L2
  38 0002 D368     		ldr	r3, [r2, #12]
  39 0004 43F08003 		orr	r3, r3, #128
  40 0008 D360     		str	r3, [r2, #12]
  41 000a 7047     		bx	lr
  42              	.L3:
  43              		.align	2
  44              	.L2:
  45 000c 00100140 		.word	1073811456
  46              		.cfi_endproc
  47              	.LFE260:
  48              		.size	notify1, .-notify1
  49              		.section	.text.VectorD4,"ax",%progbits
  50              		.align	2
  51              		.p2align 4,,15
  52              		.global	VectorD4
  53              		.thumb
  54              		.thumb_func
  55              		.type	VectorD4, %function
  56              	VectorD4:
  57              	.LFB261:
ARM GAS  C:\Users\IDONNO~1\AppData\Local\Temp\cctBsQvq.s 			page 2


  58              		.loc 1 268 0
  59              		.cfi_startproc
  60              		@ args = 0, pretend = 0, frame = 0
  61              		@ frame_needed = 0, uses_anonymous_args = 0
  62              	.LVL1:
  63 0000 F8B5     		push	{r3, r4, r5, r6, r7, lr}
  64              		.cfi_def_cfa_offset 24
  65              		.cfi_offset 3, -24
  66              		.cfi_offset 4, -20
  67              		.cfi_offset 5, -16
  68              		.cfi_offset 6, -12
  69              		.cfi_offset 7, -8
  70              		.cfi_offset 14, -4
  71              	.LBB230:
  72              	.LBB231:
  73              		.loc 1 154 0
  74 0002 434E     		ldr	r6, .L59
  75 0004 756F     		ldr	r5, [r6, #116]
  76              	.LVL2:
  77              		.loc 1 155 0
  78 0006 EF68     		ldr	r7, [r5, #12]
  79              	.LVL3:
  80              		.loc 1 156 0
  81 0008 2B68     		ldr	r3, [r5]
  82              		.loc 1 159 0
  83 000a DA05     		lsls	r2, r3, #23
  84              		.loc 1 156 0
  85 000c 9CB2     		uxth	r4, r3
  86              	.LVL4:
  87              		.loc 1 159 0
  88 000e 4FD4     		bmi	.L54
  89              	.L5:
  90              	.LVL5:
  91              	.LBB232:
  92              	.LBB233:
  93              	.LBB234:
  94              	.LBB235:
  95              	.LBB236:
  96              	.LBB237:
  97              		.file 2 "src/ChibiOS_3.0.2/os/ext/CMSIS/include/core_cmFunc.h"
  98              		.loc 2 546 0
  99 0010 2023     		movs	r3, #32
 100              		.syntax unified
 101              	@ 546 "src/ChibiOS_3.0.2/os/ext/CMSIS/include/core_cmFunc.h" 1
 102 0012 83F31188 		MSR basepri, r3
 103              	@ 0 "" 2
 104              	.LVL6:
 105              		.thumb
 106              		.syntax unified
 107              	.LBE237:
 108              	.LBE236:
 109              	.LBE235:
 110              	.LBE234:
 111              	.LBE233:
 112              	.LBE232:
 113              		.loc 1 168 0
 114 0016 14F02F0F 		tst	r4, #47
ARM GAS  C:\Users\IDONNO~1\AppData\Local\Temp\cctBsQvq.s 			page 3


 115 001a 08D1     		bne	.L13
 116 001c 29E0     		b	.L6
 117              	.L7:
 118              	.LBB238:
 119              		.loc 1 176 0
 120 001e A006     		lsls	r0, r4, #26
 121              		.loc 1 175 0
 122 0020 6968     		ldr	r1, [r5, #4]
 123              	.LVL7:
 124              		.loc 1 176 0
 125 0022 1DD4     		bmi	.L55
 126              	.L12:
 127              		.loc 1 178 0
 128 0024 2C68     		ldr	r4, [r5]
 129              	.LVL8:
 130 0026 A4B2     		uxth	r4, r4
 131              	.LVL9:
 132              	.LBE238:
 133              		.loc 1 168 0
 134 0028 14F02F0F 		tst	r4, #47
 135 002c 21D0     		beq	.L6
 136              	.LVL10:
 137              	.L13:
 138              	.LBB243:
 139              		.loc 1 173 0
 140 002e 2307     		lsls	r3, r4, #28
 141 0030 F5D0     		beq	.L7
 142              	.LVL11:
 143              	.LBB239:
 144              	.LBB240:
 145              		.loc 1 138 0
 146 0032 14F0080F 		tst	r4, #8
 147 0036 0CBF     		ite	eq
 148 0038 0021     		moveq	r1, #0
 149 003a 8021     		movne	r1, #128
 150              	.LVL12:
 151              		.loc 1 139 0
 152 003c E007     		lsls	r0, r4, #31
 153              		.loc 1 140 0
 154 003e 48BF     		it	mi
 155 0040 41F02001 		orrmi	r1, r1, #32
 156              	.LVL13:
 157              		.loc 1 141 0
 158 0044 A207     		lsls	r2, r4, #30
 159              		.loc 1 142 0
 160 0046 48BF     		it	mi
 161 0048 41F04001 		orrmi	r1, r1, #64
 162              	.LVL14:
 163              		.loc 1 143 0
 164 004c 6307     		lsls	r3, r4, #29
 165              		.loc 1 144 0
 166 004e 48BF     		it	mi
 167 0050 41F48071 		orrmi	r1, r1, #256
 168              	.LVL15:
 169              	.LBB241:
 170              	.LBB242:
 171              		.file 3 "src/ChibiOS_3.0.2/os/hal/osal/rt/osal.h"
ARM GAS  C:\Users\IDONNO~1\AppData\Local\Temp\cctBsQvq.s 			page 4


 172              		.loc 3 844 0
 173 0054 2F48     		ldr	r0, .L59+4
 174 0056 FFF7FEFF 		bl	chEvtBroadcastFlagsI
 175              	.LVL16:
 176              	.LBE242:
 177              	.LBE241:
 178              	.LBE240:
 179              	.LBE239:
 180              		.loc 1 176 0
 181 005a A006     		lsls	r0, r4, #26
 182              		.loc 1 175 0
 183 005c 6968     		ldr	r1, [r5, #4]
 184              	.LVL17:
 185              		.loc 1 176 0
 186 005e E1D5     		bpl	.L12
 187              	.LVL18:
 188              	.L55:
 189              		.loc 1 177 0
 190 0060 C9B2     		uxtb	r1, r1
 191 0062 2B48     		ldr	r0, .L59
 192 0064 FFF7FEFF 		bl	sdIncomingDataI
 193              	.LVL19:
 194              		.loc 1 178 0
 195 0068 2C68     		ldr	r4, [r5]
 196              	.LVL20:
 197 006a A4B2     		uxth	r4, r4
 198              	.LVL21:
 199              	.LBE243:
 200              		.loc 1 168 0
 201 006c 14F02F0F 		tst	r4, #47
 202 0070 DDD1     		bne	.L13
 203              	.L6:
 204              	.LVL22:
 205              	.LBB244:
 206              	.LBB245:
 207              	.LBB246:
 208              	.LBB247:
 209              	.LBB248:
 210              	.LBB249:
 211              		.loc 2 546 0
 212 0072 0023     		movs	r3, #0
 213              		.syntax unified
 214              	@ 546 "src/ChibiOS_3.0.2/os/ext/CMSIS/include/core_cmFunc.h" 1
 215 0074 83F31188 		MSR basepri, r3
 216              	@ 0 "" 2
 217              	.LVL23:
 218              		.thumb
 219              		.syntax unified
 220              	.LBE249:
 221              	.LBE248:
 222              	.LBE247:
 223              	.LBE246:
 224              	.LBE245:
 225              	.LBE244:
 226              		.loc 1 183 0
 227 0078 3906     		lsls	r1, r7, #24
 228 007a 01D5     		bpl	.L14
ARM GAS  C:\Users\IDONNO~1\AppData\Local\Temp\cctBsQvq.s 			page 5


 229 007c 2206     		lsls	r2, r4, #24
 230 007e 26D4     		bmi	.L56
 231              	.L14:
 232              		.loc 1 197 0
 233 0080 6306     		lsls	r3, r4, #25
 234 0082 11D5     		bpl	.L17
 235              	.LVL24:
 236              	.LBB250:
 237              	.LBB251:
 238              	.LBB252:
 239              	.LBB253:
 240              	.LBB254:
 241              	.LBB255:
 242              		.loc 2 546 0
 243 0084 2023     		movs	r3, #32
 244              		.syntax unified
 245              	@ 546 "src/ChibiOS_3.0.2/os/ext/CMSIS/include/core_cmFunc.h" 1
 246 0086 83F31188 		MSR basepri, r3
 247              	@ 0 "" 2
 248              	.LVL25:
 249              		.thumb
 250              		.syntax unified
 251              	.LBE255:
 252              	.LBE254:
 253              	.LBE253:
 254              	.LBE252:
 255              	.LBE251:
 256              	.LBE250:
 257              	.LBB256:
 258              	.LBB257:
 259              		.file 4 "src/ChibiOS_3.0.2/os/rt/include/chqueues.h"
 260              		.loc 4 390 0
 261 008a 726C     		ldr	r2, [r6, #68]
 262 008c B36C     		ldr	r3, [r6, #72]
 263 008e 2048     		ldr	r0, .L59
 264 0090 9A42     		cmp	r2, r3
 265 0092 29D0     		beq	.L57
 266              	.LVL26:
 267              	.L18:
 268              	.LBE257:
 269              	.LBE256:
 270              		.loc 1 201 0
 271 0094 4FF6BF73 		movw	r3, #65471
 272 0098 3B40     		ands	r3, r3, r7
 273              		.loc 1 202 0
 274 009a 6FF04002 		mvn	r2, #64
 275              		.loc 1 201 0
 276 009e EB60     		str	r3, [r5, #12]
 277              	.LBB259:
 278              	.LBB260:
 279              	.LBB261:
 280              	.LBB262:
 281              	.LBB263:
 282              	.LBB264:
 283              		.loc 2 546 0
 284 00a0 0023     		movs	r3, #0
 285              	.LBE264:
ARM GAS  C:\Users\IDONNO~1\AppData\Local\Temp\cctBsQvq.s 			page 6


 286              	.LBE263:
 287              	.LBE262:
 288              	.LBE261:
 289              	.LBE260:
 290              	.LBE259:
 291              		.loc 1 202 0
 292 00a2 2A60     		str	r2, [r5]
 293              	.LVL27:
 294              	.LBB270:
 295              	.LBB269:
 296              	.LBB268:
 297              	.LBB267:
 298              	.LBB266:
 299              	.LBB265:
 300              		.loc 2 546 0
 301              		.syntax unified
 302              	@ 546 "src/ChibiOS_3.0.2/os/ext/CMSIS/include/core_cmFunc.h" 1
 303 00a4 83F31188 		MSR basepri, r3
 304              	@ 0 "" 2
 305              	.LVL28:
 306              		.thumb
 307              		.syntax unified
 308              	.L17:
 309              	.LBE265:
 310              	.LBE266:
 311              	.LBE267:
 312              	.LBE268:
 313              	.LBE269:
 314              	.LBE270:
 315              	.LBE231:
 316              	.LBE230:
 317              		.loc 1 275 0
 318 00a8 BDE8F840 		pop	{r3, r4, r5, r6, r7, lr}
 319              		.cfi_remember_state
 320              		.cfi_restore 14
 321              		.cfi_restore 7
 322              		.cfi_restore 6
 323              		.cfi_restore 5
 324              		.cfi_restore 4
 325              		.cfi_restore 3
 326              		.cfi_def_cfa_offset 0
 327              	.LVL29:
 328              		.loc 1 274 0
 329 00ac FFF7FEBF 		b	_port_irq_epilogue
 330              	.LVL30:
 331              	.L54:
 332              		.cfi_restore_state
 333              	.LBB305:
 334              	.LBB304:
 335              	.LBB271:
 336              	.LBB272:
 337              	.LBB273:
 338              	.LBB274:
 339              	.LBB275:
 340              	.LBB276:
 341              		.loc 2 546 0
 342 00b0 2023     		movs	r3, #32
ARM GAS  C:\Users\IDONNO~1\AppData\Local\Temp\cctBsQvq.s 			page 7


 343              		.syntax unified
 344              	@ 546 "src/ChibiOS_3.0.2/os/ext/CMSIS/include/core_cmFunc.h" 1
 345 00b2 83F31188 		MSR basepri, r3
 346              	@ 0 "" 2
 347              	.LVL31:
 348              		.thumb
 349              		.syntax unified
 350              	.LBE276:
 351              	.LBE275:
 352              	.LBE274:
 353              	.LBE273:
 354              	.LBE272:
 355              	.LBE271:
 356              	.LBB277:
 357              	.LBB278:
 358              		.loc 3 844 0
 359 00b6 4FF40071 		mov	r1, #512
 360 00ba 301D     		adds	r0, r6, #4
 361 00bc FFF7FEFF 		bl	chEvtBroadcastFlagsI
 362              	.LVL32:
 363              	.LBE278:
 364              	.LBE277:
 365              		.loc 1 162 0
 366 00c0 6FF48073 		mvn	r3, #256
 367 00c4 2B60     		str	r3, [r5]
 368              	.LVL33:
 369              	.LBB279:
 370              	.LBB280:
 371              	.LBB281:
 372              	.LBB282:
 373              	.LBB283:
 374              	.LBB284:
 375              		.loc 2 546 0
 376 00c6 0023     		movs	r3, #0
 377              		.syntax unified
 378              	@ 546 "src/ChibiOS_3.0.2/os/ext/CMSIS/include/core_cmFunc.h" 1
 379 00c8 83F31188 		MSR basepri, r3
 380              	@ 0 "" 2
 381              	.LVL34:
 382              		.thumb
 383              		.syntax unified
 384 00cc A0E7     		b	.L5
 385              	.L56:
 386              	.LVL35:
 387              	.LBE284:
 388              	.LBE283:
 389              	.LBE282:
 390              	.LBE281:
 391              	.LBE280:
 392              	.LBE279:
 393              	.LBB285:
 394              	.LBB286:
 395              	.LBB287:
 396              	.LBB288:
 397              	.LBB289:
 398              	.LBB290:
 399              	.LBB291:
ARM GAS  C:\Users\IDONNO~1\AppData\Local\Temp\cctBsQvq.s 			page 8


 400 00ce 2023     		movs	r3, #32
 401              		.syntax unified
 402              	@ 546 "src/ChibiOS_3.0.2/os/ext/CMSIS/include/core_cmFunc.h" 1
 403 00d0 83F31188 		MSR basepri, r3
 404              	@ 0 "" 2
 405              	.LVL36:
 406              		.thumb
 407              		.syntax unified
 408              	.LBE291:
 409              	.LBE290:
 410              	.LBE289:
 411              	.LBE288:
 412              	.LBE287:
 413              	.LBE286:
 414              		.loc 1 186 0
 415 00d4 1048     		ldr	r0, .L59+8
 416 00d6 FFF7FEFF 		bl	chOQGetI
 417              	.LVL37:
 418              		.loc 1 187 0
 419 00da 0028     		cmp	r0, #0
 420 00dc 0CDB     		blt	.L58
 421              		.loc 1 192 0
 422 00de 6860     		str	r0, [r5, #4]
 423              	.LVL38:
 424              	.L16:
 425              	.LBB292:
 426              	.LBB293:
 427              	.LBB294:
 428              	.LBB295:
 429              	.LBB296:
 430              	.LBB297:
 431              		.loc 2 546 0
 432 00e0 0023     		movs	r3, #0
 433              		.syntax unified
 434              	@ 546 "src/ChibiOS_3.0.2/os/ext/CMSIS/include/core_cmFunc.h" 1
 435 00e2 83F31188 		MSR basepri, r3
 436              	@ 0 "" 2
 437              	.LVL39:
 438              		.thumb
 439              		.syntax unified
 440 00e6 CBE7     		b	.L14
 441              	.LVL40:
 442              	.L57:
 443              	.LBE297:
 444              	.LBE296:
 445              	.LBE295:
 446              	.LBE294:
 447              	.LBE293:
 448              	.LBE292:
 449              	.LBE285:
 450              	.LBB300:
 451              	.LBB258:
 452              		.loc 4 390 0
 453 00e8 836B     		ldr	r3, [r0, #56]
 454 00ea 002B     		cmp	r3, #0
 455 00ec D2D0     		beq	.L18
 456              	.LVL41:
ARM GAS  C:\Users\IDONNO~1\AppData\Local\Temp\cctBsQvq.s 			page 9


 457              	.LBE258:
 458              	.LBE300:
 459              	.LBB301:
 460              	.LBB302:
 461              		.loc 3 844 0
 462 00ee 0430     		adds	r0, r0, #4
 463 00f0 1021     		movs	r1, #16
 464 00f2 FFF7FEFF 		bl	chEvtBroadcastFlagsI
 465              	.LVL42:
 466 00f6 CDE7     		b	.L18
 467              	.LVL43:
 468              	.L58:
 469              	.LBE302:
 470              	.LBE301:
 471              	.LBB303:
 472              	.LBB298:
 473              	.LBB299:
 474 00f8 0821     		movs	r1, #8
 475 00fa 0648     		ldr	r0, .L59+4
 476              	.LVL44:
 477 00fc FFF7FEFF 		bl	chEvtBroadcastFlagsI
 478              	.LVL45:
 479              	.LBE299:
 480              	.LBE298:
 481              		.loc 1 189 0
 482 0100 4FF63F73 		movw	r3, #65343
 483 0104 3B40     		ands	r3, r3, r7
 484 0106 43F04003 		orr	r3, r3, #64
 485 010a EB60     		str	r3, [r5, #12]
 486 010c E8E7     		b	.L16
 487              	.L60:
 488 010e 00BF     		.align	2
 489              	.L59:
 490 0110 00000000 		.word	.LANCHOR0
 491 0114 04000000 		.word	.LANCHOR0+4
 492 0118 30000000 		.word	.LANCHOR0+48
 493              	.LBE303:
 494              	.LBE304:
 495              	.LBE305:
 496              		.cfi_endproc
 497              	.LFE261:
 498              		.size	VectorD4, .-VectorD4
 499              		.section	.text.sd_lld_init,"ax",%progbits
 500              		.align	2
 501              		.p2align 4,,15
 502              		.global	sd_lld_init
 503              		.thumb
 504              		.thumb_func
 505              		.type	sd_lld_init, %function
 506              	sd_lld_init:
 507              	.LFB262:
 508              		.loc 1 382 0
 509              		.cfi_startproc
 510              		@ args = 0, pretend = 0, frame = 0
 511              		@ frame_needed = 0, uses_anonymous_args = 0
 512 0000 10B5     		push	{r4, lr}
 513              		.cfi_def_cfa_offset 8
ARM GAS  C:\Users\IDONNO~1\AppData\Local\Temp\cctBsQvq.s 			page 10


 514              		.cfi_offset 4, -8
 515              		.cfi_offset 14, -4
 516              		.loc 1 385 0
 517 0002 044C     		ldr	r4, .L63
 518 0004 044A     		ldr	r2, .L63+4
 519 0006 2046     		mov	r0, r4
 520 0008 0021     		movs	r1, #0
 521 000a FFF7FEFF 		bl	sdObjectInit
 522              	.LVL46:
 523              		.loc 1 386 0
 524 000e 034B     		ldr	r3, .L63+8
 525 0010 6367     		str	r3, [r4, #116]
 526 0012 10BD     		pop	{r4, pc}
 527              	.L64:
 528              		.align	2
 529              	.L63:
 530 0014 00000000 		.word	.LANCHOR0
 531 0018 00000000 		.word	notify1
 532 001c 00100140 		.word	1073811456
 533              		.cfi_endproc
 534              	.LFE262:
 535              		.size	sd_lld_init, .-sd_lld_init
 536              		.section	.text.sd_lld_start,"ax",%progbits
 537              		.align	2
 538              		.p2align 4,,15
 539              		.global	sd_lld_start
 540              		.thumb
 541              		.thumb_func
 542              		.type	sd_lld_start, %function
 543              	sd_lld_start:
 544              	.LFB263:
 545              		.loc 1 425 0
 546              		.cfi_startproc
 547              		@ args = 0, pretend = 0, frame = 0
 548              		@ frame_needed = 0, uses_anonymous_args = 0
 549              	.LVL47:
 550 0000 38B5     		push	{r3, r4, r5, lr}
 551              		.cfi_def_cfa_offset 16
 552              		.cfi_offset 3, -16
 553              		.cfi_offset 4, -12
 554              		.cfi_offset 5, -8
 555              		.cfi_offset 14, -4
 556              		.loc 1 428 0
 557 0002 1F4C     		ldr	r4, .L73
 558              		.loc 1 430 0
 559 0004 037A     		ldrb	r3, [r0, #8]	@ zero_extendqisi2
 560              		.loc 1 428 0
 561 0006 0029     		cmp	r1, #0
 562 0008 18BF     		it	ne
 563 000a 0C46     		movne	r4, r1
 564              	.LVL48:
 565              		.loc 1 430 0
 566 000c 012B     		cmp	r3, #1
 567              		.loc 1 425 0
 568 000e 0546     		mov	r5, r0
 569              		.loc 1 430 0
 570 0010 22D0     		beq	.L72
ARM GAS  C:\Users\IDONNO~1\AppData\Local\Temp\cctBsQvq.s 			page 11


 571              	.LVL49:
 572              	.L67:
 573              	.LBB308:
 574              	.LBB309:
 575              		.loc 1 92 0
 576 0012 6B6F     		ldr	r3, [r5, #116]
 577              	.LVL50:
 578              		.loc 1 96 0
 579 0014 1B4A     		ldr	r2, .L73+4
 580 0016 9342     		cmp	r3, r2
 581 0018 2BD0     		beq	.L68
 582 001a 02F58062 		add	r2, r2, #1024
 583 001e 9342     		cmp	r3, r2
 584 0020 27D0     		beq	.L68
 585              		.loc 1 102 0
 586 0022 2168     		ldr	r1, [r4]
 587 0024 184A     		ldr	r2, .L73+8
 588 0026 B2FBF1F2 		udiv	r2, r2, r1
 589 002a 9A60     		str	r2, [r3, #8]
 590              	.L70:
 591              		.loc 1 108 0
 592 002c A288     		ldrh	r2, [r4, #4]
 593              		.loc 1 105 0
 594 002e E088     		ldrh	r0, [r4, #6]
 595              		.loc 1 106 0
 596 0030 2189     		ldrh	r1, [r4, #8]
 597              		.loc 1 108 0
 598 0032 42F40452 		orr	r2, r2, #8448
 599              		.loc 1 105 0
 600 0036 40F04000 		orr	r0, r0, #64
 601              		.loc 1 108 0
 602 003a 42F02C02 		orr	r2, r2, #44
 603              		.loc 1 106 0
 604 003e 41F00101 		orr	r1, r1, #1
 605              		.loc 1 108 0
 606 0042 92B2     		uxth	r2, r2
 607              		.loc 1 105 0
 608 0044 80B2     		uxth	r0, r0
 609              		.loc 1 106 0
 610 0046 89B2     		uxth	r1, r1
 611              		.loc 1 110 0
 612 0048 0024     		movs	r4, #0
 613              	.LVL51:
 614              		.loc 1 105 0
 615 004a 1861     		str	r0, [r3, #16]
 616              		.loc 1 106 0
 617 004c 5961     		str	r1, [r3, #20]
 618              		.loc 1 107 0
 619 004e DA60     		str	r2, [r3, #12]
 620              		.loc 1 110 0
 621 0050 1C60     		str	r4, [r3]
 622              		.loc 1 111 0
 623 0052 1A68     		ldr	r2, [r3]
 624              		.loc 1 112 0
 625 0054 5B68     		ldr	r3, [r3, #4]
 626              	.LVL52:
 627 0056 38BD     		pop	{r3, r4, r5, pc}
ARM GAS  C:\Users\IDONNO~1\AppData\Local\Temp\cctBsQvq.s 			page 12


 628              	.LVL53:
 629              	.L72:
 630              	.LBE309:
 631              	.LBE308:
 632              		.loc 1 432 0
 633 0058 0C4B     		ldr	r3, .L73+12
 634 005a 9842     		cmp	r0, r3
 635 005c D9D1     		bne	.L67
 636              		.loc 1 433 0
 637 005e 0C4A     		ldr	r2, .L73+16
 638 0060 536C     		ldr	r3, [r2, #68]
 639 0062 43F01003 		orr	r3, r3, #16
 640 0066 5364     		str	r3, [r2, #68]
 641              		.loc 1 434 0
 642 0068 0C21     		movs	r1, #12
 643 006a 2520     		movs	r0, #37
 644              	.LVL54:
 645 006c FFF7FEFF 		bl	nvicEnableVector
 646              	.LVL55:
 647 0070 CFE7     		b	.L67
 648              	.LVL56:
 649              	.L68:
 650              	.LBB311:
 651              	.LBB310:
 652              		.loc 1 100 0
 653 0072 2168     		ldr	r1, [r4]
 654 0074 074A     		ldr	r2, .L73+20
 655 0076 B2FBF1F2 		udiv	r2, r2, r1
 656 007a 9A60     		str	r2, [r3, #8]
 657 007c D6E7     		b	.L70
 658              	.L74:
 659 007e 00BF     		.align	2
 660              	.L73:
 661 0080 00000000 		.word	.LANCHOR1
 662 0084 00100140 		.word	1073811456
 663 0088 80DE8002 		.word	42000000
 664 008c 00000000 		.word	.LANCHOR0
 665 0090 00380240 		.word	1073887232
 666 0094 00BD0105 		.word	84000000
 667              	.LBE310:
 668              	.LBE311:
 669              		.cfi_endproc
 670              	.LFE263:
 671              		.size	sd_lld_start, .-sd_lld_start
 672              		.section	.text.sd_lld_stop,"ax",%progbits
 673              		.align	2
 674              		.p2align 4,,15
 675              		.global	sd_lld_stop
 676              		.thumb
 677              		.thumb_func
 678              		.type	sd_lld_stop, %function
 679              	sd_lld_stop:
 680              	.LFB264:
 681              		.loc 1 480 0
 682              		.cfi_startproc
 683              		@ args = 0, pretend = 0, frame = 0
 684              		@ frame_needed = 0, uses_anonymous_args = 0
ARM GAS  C:\Users\IDONNO~1\AppData\Local\Temp\cctBsQvq.s 			page 13


 685              		@ link register save eliminated.
 686              	.LVL57:
 687              		.loc 1 482 0
 688 0000 037A     		ldrb	r3, [r0, #8]	@ zero_extendqisi2
 689 0002 022B     		cmp	r3, #2
 690 0004 00D0     		beq	.L79
 691              	.L75:
 692 0006 7047     		bx	lr
 693              	.L79:
 694              		.loc 1 485 0
 695 0008 0749     		ldr	r1, .L80
 696              		.loc 1 483 0
 697 000a 436F     		ldr	r3, [r0, #116]
 698              	.LVL58:
 699              	.LBB312:
 700              	.LBB313:
 701              		.loc 1 123 0
 702 000c 0022     		movs	r2, #0
 703              	.LBE313:
 704              	.LBE312:
 705              		.loc 1 485 0
 706 000e 8842     		cmp	r0, r1
 707              	.LBB315:
 708              	.LBB314:
 709              		.loc 1 123 0
 710 0010 DA60     		str	r2, [r3, #12]
 711              		.loc 1 124 0
 712 0012 1A61     		str	r2, [r3, #16]
 713              		.loc 1 125 0
 714 0014 5A61     		str	r2, [r3, #20]
 715              	.LVL59:
 716              	.LBE314:
 717              	.LBE315:
 718              		.loc 1 485 0
 719 0016 F6D1     		bne	.L75
 720              		.loc 1 486 0
 721 0018 044A     		ldr	r2, .L80+4
 722 001a 536C     		ldr	r3, [r2, #68]
 723 001c 23F01003 		bic	r3, r3, #16
 724 0020 5364     		str	r3, [r2, #68]
 725              		.loc 1 487 0
 726 0022 2520     		movs	r0, #37
 727              	.LVL60:
 728 0024 FFF7FEBF 		b	nvicDisableVector
 729              	.LVL61:
 730              	.L81:
 731              		.align	2
 732              	.L80:
 733 0028 00000000 		.word	.LANCHOR0
 734 002c 00380240 		.word	1073887232
 735              		.cfi_endproc
 736              	.LFE264:
 737              		.size	sd_lld_stop, .-sd_lld_stop
 738              		.global	SD1
 739              		.section	.rodata.default_config,"a",%progbits
 740              		.align	2
 741              		.set	.LANCHOR1,. + 0
ARM GAS  C:\Users\IDONNO~1\AppData\Local\Temp\cctBsQvq.s 			page 14


 742              		.type	default_config, %object
 743              		.size	default_config, 12
 744              	default_config:
 745 0000 00960000 		.word	38400
 746 0004 0000     		.short	0
 747 0006 0040     		.short	16384
 748 0008 0000     		.short	0
 749 000a 0000     		.space	2
 750              		.section	.bss.SD1,"aw",%nobits
 751              		.align	2
 752              		.set	.LANCHOR0,. + 0
 753              		.type	SD1, %object
 754              		.size	SD1, 120
 755              	SD1:
 756 0000 00000000 		.space	120
 756      00000000 
 756      00000000 
 756      00000000 
 756      00000000 
 757              		.text
 758              	.Letext0:
 759              		.file 5 "c:\\program files (x86)\\gnu tools arm embedded\\5.4 2016q3\\lib\\gcc\\arm-none-eabi\\5.4
 760              		.file 6 "c:\\program files (x86)\\gnu tools arm embedded\\5.4 2016q3\\arm-none-eabi\\include\\mach
 761              		.file 7 "c:\\program files (x86)\\gnu tools arm embedded\\5.4 2016q3\\arm-none-eabi\\include\\sys\
 762              		.file 8 "src/ChibiOS_3.0.2/os/rt/ports/ARMCMx/compilers/GCC/chtypes.h"
 763              		.file 9 "src/ChibiOS_3.0.2/os/rt/include/chsystypes.h"
 764              		.file 10 "src/ChibiOS_3.0.2/os/rt/include/chschd.h"
 765              		.file 11 "src/ChibiOS_3.0.2/os/ext/CMSIS/ST/stm32f407xx.h"
 766              		.file 12 "src/ChibiOS_3.0.2/os/rt/ports/ARMCMx/chcore.h"
 767              		.file 13 "src/ChibiOS_3.0.2/os/rt/ports/ARMCMx/chcore_v7m.h"
 768              		.file 14 "src/ChibiOS_3.0.2/os/rt/include/chtm.h"
 769              		.file 15 "src/ChibiOS_3.0.2/os/rt/include/chsem.h"
 770              		.file 16 "src/ChibiOS_3.0.2/os/rt/include/chmtx.h"
 771              		.file 17 "src/ChibiOS_3.0.2/os/rt/include/chevents.h"
 772              		.file 18 "src/ChibiOS_3.0.2/os/hal/include/serial.h"
 773              		.file 19 "src/ChibiOS_3.0.2/os/hal/ports/STM32/LLD/USARTv1/serial_lld.h"
 774              		.file 20 "src/ChibiOS_3.0.2/os/rt/include/chsys.h"
 775              		.file 21 "src/ChibiOS_3.0.2/os/hal/ports/common/ARMCMx/nvic.h"
 776              		.file 22 "src/ChibiOS_3.0.2/os/ext/CMSIS/include/core_cm4.h"
 777              		.section	.debug_info,"",%progbits
 778              	.Ldebug_info0:
 779 0000 22150000 		.4byte	0x1522
 780 0004 0400     		.2byte	0x4
 781 0006 00000000 		.4byte	.Ldebug_abbrev0
 782 000a 04       		.byte	0x4
 783 000b 01       		.uleb128 0x1
 784 000c D4060000 		.4byte	.LASF210
 785 0010 0C       		.byte	0xc
 786 0011 8D020000 		.4byte	.LASF211
 787 0015 30080000 		.4byte	.LASF212
 788 0019 A8000000 		.4byte	.Ldebug_ranges0+0xa8
 789 001d 00000000 		.4byte	0
 790 0021 00000000 		.4byte	.Ldebug_line0
 791 0025 02       		.uleb128 0x2
 792 0026 04       		.byte	0x4
 793 0027 05       		.byte	0x5
 794 0028 696E7400 		.ascii	"int\000"
ARM GAS  C:\Users\IDONNO~1\AppData\Local\Temp\cctBsQvq.s 			page 15


 795 002c 03       		.uleb128 0x3
 796 002d 00000000 		.4byte	.LASF2
 797 0031 05       		.byte	0x5
 798 0032 D8       		.byte	0xd8
 799 0033 37000000 		.4byte	0x37
 800 0037 04       		.uleb128 0x4
 801 0038 04       		.byte	0x4
 802 0039 07       		.byte	0x7
 803 003a 4E050000 		.4byte	.LASF0
 804 003e 04       		.uleb128 0x4
 805 003f 01       		.byte	0x1
 806 0040 06       		.byte	0x6
 807 0041 EE010000 		.4byte	.LASF1
 808 0045 03       		.uleb128 0x3
 809 0046 ED000000 		.4byte	.LASF3
 810 004a 06       		.byte	0x6
 811 004b 1D       		.byte	0x1d
 812 004c 50000000 		.4byte	0x50
 813 0050 04       		.uleb128 0x4
 814 0051 01       		.byte	0x1
 815 0052 08       		.byte	0x8
 816 0053 4D020000 		.4byte	.LASF4
 817 0057 04       		.uleb128 0x4
 818 0058 02       		.byte	0x2
 819 0059 05       		.byte	0x5
 820 005a F5080000 		.4byte	.LASF5
 821 005e 03       		.uleb128 0x3
 822 005f 17030000 		.4byte	.LASF6
 823 0063 06       		.byte	0x6
 824 0064 2B       		.byte	0x2b
 825 0065 69000000 		.4byte	0x69
 826 0069 04       		.uleb128 0x4
 827 006a 02       		.byte	0x2
 828 006b 07       		.byte	0x7
 829 006c D7090000 		.4byte	.LASF7
 830 0070 03       		.uleb128 0x3
 831 0071 110A0000 		.4byte	.LASF8
 832 0075 06       		.byte	0x6
 833 0076 3F       		.byte	0x3f
 834 0077 7B000000 		.4byte	0x7b
 835 007b 04       		.uleb128 0x4
 836 007c 04       		.byte	0x4
 837 007d 05       		.byte	0x5
 838 007e 48010000 		.4byte	.LASF9
 839 0082 03       		.uleb128 0x3
 840 0083 7D040000 		.4byte	.LASF10
 841 0087 06       		.byte	0x6
 842 0088 41       		.byte	0x41
 843 0089 8D000000 		.4byte	0x8d
 844 008d 04       		.uleb128 0x4
 845 008e 04       		.byte	0x4
 846 008f 07       		.byte	0x7
 847 0090 D0030000 		.4byte	.LASF11
 848 0094 04       		.uleb128 0x4
 849 0095 08       		.byte	0x8
 850 0096 05       		.byte	0x5
 851 0097 98040000 		.4byte	.LASF12
ARM GAS  C:\Users\IDONNO~1\AppData\Local\Temp\cctBsQvq.s 			page 16


 852 009b 03       		.uleb128 0x3
 853 009c C5030000 		.4byte	.LASF13
 854 00a0 06       		.byte	0x6
 855 00a1 5B       		.byte	0x5b
 856 00a2 A6000000 		.4byte	0xa6
 857 00a6 04       		.uleb128 0x4
 858 00a7 08       		.byte	0x8
 859 00a8 07       		.byte	0x7
 860 00a9 6E060000 		.4byte	.LASF14
 861 00ad 03       		.uleb128 0x3
 862 00ae 04020000 		.4byte	.LASF15
 863 00b2 07       		.byte	0x7
 864 00b3 18       		.byte	0x18
 865 00b4 45000000 		.4byte	0x45
 866 00b8 03       		.uleb128 0x3
 867 00b9 8D060000 		.4byte	.LASF16
 868 00bd 07       		.byte	0x7
 869 00be 24       		.byte	0x24
 870 00bf 5E000000 		.4byte	0x5e
 871 00c3 03       		.uleb128 0x3
 872 00c4 4B000000 		.4byte	.LASF17
 873 00c8 07       		.byte	0x7
 874 00c9 2C       		.byte	0x2c
 875 00ca 70000000 		.4byte	0x70
 876 00ce 03       		.uleb128 0x3
 877 00cf 88090000 		.4byte	.LASF18
 878 00d3 07       		.byte	0x7
 879 00d4 30       		.byte	0x30
 880 00d5 82000000 		.4byte	0x82
 881 00d9 03       		.uleb128 0x3
 882 00da 0C090000 		.4byte	.LASF19
 883 00de 07       		.byte	0x7
 884 00df 3C       		.byte	0x3c
 885 00e0 9B000000 		.4byte	0x9b
 886 00e4 05       		.uleb128 0x5
 887 00e5 C3000000 		.4byte	0xc3
 888 00e9 05       		.uleb128 0x5
 889 00ea CE000000 		.4byte	0xce
 890 00ee 03       		.uleb128 0x3
 891 00ef 5B050000 		.4byte	.LASF20
 892 00f3 08       		.byte	0x8
 893 00f4 45       		.byte	0x45
 894 00f5 CE000000 		.4byte	0xce
 895 00f9 03       		.uleb128 0x3
 896 00fa 77080000 		.4byte	.LASF21
 897 00fe 08       		.byte	0x8
 898 00ff 48       		.byte	0x48
 899 0100 AD000000 		.4byte	0xad
 900 0104 03       		.uleb128 0x3
 901 0105 93010000 		.4byte	.LASF22
 902 0109 08       		.byte	0x8
 903 010a 49       		.byte	0x49
 904 010b AD000000 		.4byte	0xad
 905 010f 03       		.uleb128 0x3
 906 0110 56090000 		.4byte	.LASF23
 907 0114 08       		.byte	0x8
 908 0115 4A       		.byte	0x4a
ARM GAS  C:\Users\IDONNO~1\AppData\Local\Temp\cctBsQvq.s 			page 17


 909 0116 AD000000 		.4byte	0xad
 910 011a 03       		.uleb128 0x3
 911 011b C0060000 		.4byte	.LASF24
 912 011f 08       		.byte	0x8
 913 0120 4B       		.byte	0x4b
 914 0121 AD000000 		.4byte	0xad
 915 0125 03       		.uleb128 0x3
 916 0126 32000000 		.4byte	.LASF25
 917 012a 08       		.byte	0x8
 918 012b 4C       		.byte	0x4c
 919 012c CE000000 		.4byte	0xce
 920 0130 03       		.uleb128 0x3
 921 0131 96060000 		.4byte	.LASF26
 922 0135 08       		.byte	0x8
 923 0136 4D       		.byte	0x4d
 924 0137 C3000000 		.4byte	0xc3
 925 013b 03       		.uleb128 0x3
 926 013c 0C020000 		.4byte	.LASF27
 927 0140 08       		.byte	0x8
 928 0141 4F       		.byte	0x4f
 929 0142 CE000000 		.4byte	0xce
 930 0146 03       		.uleb128 0x3
 931 0147 AD060000 		.4byte	.LASF28
 932 014b 08       		.byte	0x8
 933 014c 50       		.byte	0x50
 934 014d CE000000 		.4byte	0xce
 935 0151 03       		.uleb128 0x3
 936 0152 65030000 		.4byte	.LASF29
 937 0156 08       		.byte	0x8
 938 0157 51       		.byte	0x51
 939 0158 C3000000 		.4byte	0xc3
 940 015c 03       		.uleb128 0x3
 941 015d 17000000 		.4byte	.LASF30
 942 0161 09       		.byte	0x9
 943 0162 33       		.byte	0x33
 944 0163 CE000000 		.4byte	0xce
 945 0167 03       		.uleb128 0x3
 946 0168 D8050000 		.4byte	.LASF31
 947 016c 09       		.byte	0x9
 948 016d 3F       		.byte	0x3f
 949 016e 72010000 		.4byte	0x172
 950 0172 06       		.uleb128 0x6
 951 0173 EF030000 		.4byte	.LASF53
 952 0177 48       		.byte	0x48
 953 0178 0A       		.byte	0xa
 954 0179 C2       		.byte	0xc2
 955 017a 77020000 		.4byte	0x277
 956 017e 07       		.uleb128 0x7
 957 017f 51010000 		.4byte	.LASF32
 958 0183 0A       		.byte	0xa
 959 0184 C3       		.byte	0xc3
 960 0185 82020000 		.4byte	0x282
 961 0189 00       		.byte	0
 962 018a 07       		.uleb128 0x7
 963 018b 6C010000 		.4byte	.LASF33
 964 018f 0A       		.byte	0xa
 965 0190 C5       		.byte	0xc5
ARM GAS  C:\Users\IDONNO~1\AppData\Local\Temp\cctBsQvq.s 			page 18


 966 0191 82020000 		.4byte	0x282
 967 0195 04       		.byte	0x4
 968 0196 07       		.uleb128 0x7
 969 0197 10030000 		.4byte	.LASF34
 970 019b 0A       		.byte	0xa
 971 019c C7       		.byte	0xc7
 972 019d 25010000 		.4byte	0x125
 973 01a1 08       		.byte	0x8
 974 01a2 07       		.uleb128 0x7
 975 01a3 2C000000 		.4byte	.LASF35
 976 01a7 0A       		.byte	0xa
 977 01a8 C8       		.byte	0xc8
 978 01a9 CC060000 		.4byte	0x6cc
 979 01ad 0C       		.byte	0xc
 980 01ae 07       		.uleb128 0x7
 981 01af 40010000 		.4byte	.LASF36
 982 01b3 0A       		.byte	0xa
 983 01b4 CA       		.byte	0xca
 984 01b5 82020000 		.4byte	0x282
 985 01b9 10       		.byte	0x10
 986 01ba 07       		.uleb128 0x7
 987 01bb 85060000 		.4byte	.LASF37
 988 01bf 0A       		.byte	0xa
 989 01c0 CB       		.byte	0xcb
 990 01c1 82020000 		.4byte	0x282
 991 01c5 14       		.byte	0x14
 992 01c6 07       		.uleb128 0x7
 993 01c7 230A0000 		.4byte	.LASF38
 994 01cb 0A       		.byte	0xa
 995 01cc D2       		.byte	0xd2
 996 01cd 11090000 		.4byte	0x911
 997 01d1 18       		.byte	0x18
 998 01d2 07       		.uleb128 0x7
 999 01d3 430A0000 		.4byte	.LASF39
 1000 01d7 0A       		.byte	0xa
 1001 01d8 DD       		.byte	0xdd
 1002 01d9 04010000 		.4byte	0x104
 1003 01dd 1C       		.byte	0x1c
 1004 01de 07       		.uleb128 0x7
 1005 01df 32050000 		.4byte	.LASF40
 1006 01e3 0A       		.byte	0xa
 1007 01e4 E1       		.byte	0xe1
 1008 01e5 F9000000 		.4byte	0xf9
 1009 01e9 1D       		.byte	0x1d
 1010 01ea 07       		.uleb128 0x7
 1011 01eb 6B050000 		.4byte	.LASF41
 1012 01ef 0A       		.byte	0xa
 1013 01f0 E6       		.byte	0xe6
 1014 01f1 0F010000 		.4byte	0x10f
 1015 01f5 1E       		.byte	0x1e
 1016 01f6 07       		.uleb128 0x7
 1017 01f7 FA010000 		.4byte	.LASF42
 1018 01fb 0A       		.byte	0xa
 1019 01fc EC       		.byte	0xec
 1020 01fd 1A010000 		.4byte	0x11a
 1021 0201 1F       		.byte	0x1f
 1022 0202 07       		.uleb128 0x7
ARM GAS  C:\Users\IDONNO~1\AppData\Local\Temp\cctBsQvq.s 			page 19


 1023 0203 B3050000 		.4byte	.LASF43
 1024 0207 0A       		.byte	0xa
 1025 0208 F3       		.byte	0xf3
 1026 0209 23090000 		.4byte	0x923
 1027 020d 20       		.byte	0x20
 1028 020e 08       		.uleb128 0x8
 1029 020f 705F7500 		.ascii	"p_u\000"
 1030 0213 0A       		.byte	0xa
 1031 0214 3101     		.2byte	0x131
 1032 0216 4C080000 		.4byte	0x84c
 1033 021a 24       		.byte	0x24
 1034 021b 09       		.uleb128 0x9
 1035 021c 22050000 		.4byte	.LASF44
 1036 0220 0A       		.byte	0xa
 1037 0221 3601     		.2byte	0x136
 1038 0223 88020000 		.4byte	0x288
 1039 0227 28       		.byte	0x28
 1040 0228 09       		.uleb128 0x9
 1041 0229 3A000000 		.4byte	.LASF45
 1042 022d 0A       		.byte	0xa
 1043 022e 3C01     		.2byte	0x13c
 1044 0230 AC020000 		.4byte	0x2ac
 1045 0234 2C       		.byte	0x2c
 1046 0235 09       		.uleb128 0x9
 1047 0236 310A0000 		.4byte	.LASF46
 1048 023a 0A       		.byte	0xa
 1049 023b 4001     		.2byte	0x140
 1050 023d 30010000 		.4byte	0x130
 1051 0241 34       		.byte	0x34
 1052 0242 09       		.uleb128 0x9
 1053 0243 79030000 		.4byte	.LASF47
 1054 0247 0A       		.byte	0xa
 1055 0248 4601     		.2byte	0x146
 1056 024a 3B010000 		.4byte	0x13b
 1057 024e 38       		.byte	0x38
 1058 024f 09       		.uleb128 0x9
 1059 0250 AC010000 		.4byte	.LASF48
 1060 0254 0A       		.byte	0xa
 1061 0255 4D01     		.2byte	0x14d
 1062 0257 0B090000 		.4byte	0x90b
 1063 025b 3C       		.byte	0x3c
 1064 025c 09       		.uleb128 0x9
 1065 025d 06060000 		.4byte	.LASF49
 1066 0261 0A       		.byte	0xa
 1067 0262 5101     		.2byte	0x151
 1068 0264 25010000 		.4byte	0x125
 1069 0268 40       		.byte	0x40
 1070 0269 09       		.uleb128 0x9
 1071 026a 63050000 		.4byte	.LASF50
 1072 026e 0A       		.byte	0xa
 1073 026f 5801     		.2byte	0x158
 1074 0271 5F030000 		.4byte	0x35f
 1075 0275 44       		.byte	0x44
 1076 0276 00       		.byte	0
 1077 0277 03       		.uleb128 0x3
 1078 0278 F3050000 		.4byte	.LASF51
 1079 027c 09       		.byte	0x9
ARM GAS  C:\Users\IDONNO~1\AppData\Local\Temp\cctBsQvq.s 			page 20


 1080 027d 44       		.byte	0x44
 1081 027e 82020000 		.4byte	0x282
 1082 0282 0A       		.uleb128 0xa
 1083 0283 04       		.byte	0x4
 1084 0284 67010000 		.4byte	0x167
 1085 0288 03       		.uleb128 0x3
 1086 0289 5E090000 		.4byte	.LASF52
 1087 028d 09       		.byte	0x9
 1088 028e 49       		.byte	0x49
 1089 028f 93020000 		.4byte	0x293
 1090 0293 06       		.uleb128 0x6
 1091 0294 59040000 		.4byte	.LASF54
 1092 0298 04       		.byte	0x4
 1093 0299 0A       		.byte	0xa
 1094 029a B0       		.byte	0xb0
 1095 029b AC020000 		.4byte	0x2ac
 1096 029f 07       		.uleb128 0x7
 1097 02a0 51010000 		.4byte	.LASF32
 1098 02a4 0A       		.byte	0xa
 1099 02a5 B1       		.byte	0xb1
 1100 02a6 82020000 		.4byte	0x282
 1101 02aa 00       		.byte	0
 1102 02ab 00       		.byte	0
 1103 02ac 03       		.uleb128 0x3
 1104 02ad 9C010000 		.4byte	.LASF55
 1105 02b1 09       		.byte	0x9
 1106 02b2 50       		.byte	0x50
 1107 02b3 B7020000 		.4byte	0x2b7
 1108 02b7 06       		.uleb128 0x6
 1109 02b8 9C060000 		.4byte	.LASF56
 1110 02bc 08       		.byte	0x8
 1111 02bd 0A       		.byte	0xa
 1112 02be B7       		.byte	0xb7
 1113 02bf DC020000 		.4byte	0x2dc
 1114 02c3 07       		.uleb128 0x7
 1115 02c4 51010000 		.4byte	.LASF32
 1116 02c8 0A       		.byte	0xa
 1117 02c9 B8       		.byte	0xb8
 1118 02ca 82020000 		.4byte	0x282
 1119 02ce 00       		.byte	0
 1120 02cf 07       		.uleb128 0x7
 1121 02d0 6C010000 		.4byte	.LASF33
 1122 02d4 0A       		.byte	0xa
 1123 02d5 B9       		.byte	0xb9
 1124 02d6 82020000 		.4byte	0x282
 1125 02da 04       		.byte	0x4
 1126 02db 00       		.byte	0
 1127 02dc 03       		.uleb128 0x3
 1128 02dd 27040000 		.4byte	.LASF57
 1129 02e1 09       		.byte	0x9
 1130 02e2 57       		.byte	0x57
 1131 02e3 E7020000 		.4byte	0x2e7
 1132 02e7 0B       		.uleb128 0xb
 1133 02e8 8B030000 		.4byte	.LASF58
 1134 02ec 1C       		.byte	0x1c
 1135 02ed 0A       		.byte	0xa
 1136 02ee 9001     		.2byte	0x190
ARM GAS  C:\Users\IDONNO~1\AppData\Local\Temp\cctBsQvq.s 			page 21


 1137 02f0 43030000 		.4byte	0x343
 1138 02f4 09       		.uleb128 0x9
 1139 02f5 1B080000 		.4byte	.LASF59
 1140 02f9 0A       		.byte	0xa
 1141 02fa 9101     		.2byte	0x191
 1142 02fc AC020000 		.4byte	0x2ac
 1143 0300 00       		.byte	0
 1144 0301 09       		.uleb128 0x9
 1145 0302 25090000 		.4byte	.LASF60
 1146 0306 0A       		.byte	0xa
 1147 0307 9201     		.2byte	0x192
 1148 0309 25010000 		.4byte	0x125
 1149 030d 08       		.byte	0x8
 1150 030e 09       		.uleb128 0x9
 1151 030f 45000000 		.4byte	.LASF61
 1152 0313 0A       		.byte	0xa
 1153 0314 9401     		.2byte	0x194
 1154 0316 CC060000 		.4byte	0x6cc
 1155 031a 0C       		.byte	0xc
 1156 031b 09       		.uleb128 0x9
 1157 031c CB020000 		.4byte	.LASF62
 1158 0320 0A       		.byte	0xa
 1159 0321 9701     		.2byte	0x197
 1160 0323 82020000 		.4byte	0x282
 1161 0327 10       		.byte	0x10
 1162 0328 09       		.uleb128 0x9
 1163 0329 AD080000 		.4byte	.LASF63
 1164 032d 0A       		.byte	0xa
 1165 032e 9801     		.2byte	0x198
 1166 0330 82020000 		.4byte	0x282
 1167 0334 14       		.byte	0x14
 1168 0335 09       		.uleb128 0x9
 1169 0336 CA060000 		.4byte	.LASF64
 1170 033a 0A       		.byte	0xa
 1171 033b 9B01     		.2byte	0x19b
 1172 033d 82020000 		.4byte	0x282
 1173 0341 18       		.byte	0x18
 1174 0342 00       		.byte	0
 1175 0343 03       		.uleb128 0x3
 1176 0344 67000000 		.4byte	.LASF65
 1177 0348 09       		.byte	0x9
 1178 0349 5C       		.byte	0x5c
 1179 034a 4E030000 		.4byte	0x34e
 1180 034e 0A       		.uleb128 0xa
 1181 034f 04       		.byte	0x4
 1182 0350 54030000 		.4byte	0x354
 1183 0354 0C       		.uleb128 0xc
 1184 0355 5F030000 		.4byte	0x35f
 1185 0359 0D       		.uleb128 0xd
 1186 035a 5F030000 		.4byte	0x35f
 1187 035e 00       		.byte	0
 1188 035f 0E       		.uleb128 0xe
 1189 0360 04       		.byte	0x4
 1190 0361 03       		.uleb128 0x3
 1191 0362 17040000 		.4byte	.LASF66
 1192 0366 09       		.byte	0x9
 1193 0367 61       		.byte	0x61
ARM GAS  C:\Users\IDONNO~1\AppData\Local\Temp\cctBsQvq.s 			page 22


 1194 0368 6C030000 		.4byte	0x36c
 1195 036c 0B       		.uleb128 0xb
 1196 036d 4F060000 		.4byte	.LASF67
 1197 0371 14       		.byte	0x14
 1198 0372 0A       		.byte	0xa
 1199 0373 6B01     		.2byte	0x16b
 1200 0375 BB030000 		.4byte	0x3bb
 1201 0379 09       		.uleb128 0x9
 1202 037a C7040000 		.4byte	.LASF68
 1203 037e 0A       		.byte	0xa
 1204 037f 6C01     		.2byte	0x16c
 1205 0381 28090000 		.4byte	0x928
 1206 0385 00       		.byte	0
 1207 0386 09       		.uleb128 0x9
 1208 0387 CF040000 		.4byte	.LASF69
 1209 038b 0A       		.byte	0xa
 1210 038c 6D01     		.2byte	0x16d
 1211 038e 28090000 		.4byte	0x928
 1212 0392 04       		.byte	0x4
 1213 0393 09       		.uleb128 0x9
 1214 0394 32060000 		.4byte	.LASF70
 1215 0398 0A       		.byte	0xa
 1216 0399 6E01     		.2byte	0x16e
 1217 039b 5C010000 		.4byte	0x15c
 1218 039f 08       		.byte	0x8
 1219 03a0 09       		.uleb128 0x9
 1220 03a1 6B030000 		.4byte	.LASF71
 1221 03a5 0A       		.byte	0xa
 1222 03a6 6F01     		.2byte	0x16f
 1223 03a8 43030000 		.4byte	0x343
 1224 03ac 0C       		.byte	0xc
 1225 03ad 09       		.uleb128 0x9
 1226 03ae DD000000 		.4byte	.LASF72
 1227 03b2 0A       		.byte	0xa
 1228 03b3 7101     		.2byte	0x171
 1229 03b5 5F030000 		.4byte	0x35f
 1230 03b9 10       		.byte	0x10
 1231 03ba 00       		.byte	0
 1232 03bb 03       		.uleb128 0x3
 1233 03bc F9030000 		.4byte	.LASF73
 1234 03c0 09       		.byte	0x9
 1235 03c1 66       		.byte	0x66
 1236 03c2 C6030000 		.4byte	0x3c6
 1237 03c6 0B       		.uleb128 0xb
 1238 03c7 70000000 		.4byte	.LASF74
 1239 03cb 10       		.byte	0x10
 1240 03cc 0A       		.byte	0xa
 1241 03cd 7B01     		.2byte	0x17b
 1242 03cf 08040000 		.4byte	0x408
 1243 03d3 09       		.uleb128 0x9
 1244 03d4 C7040000 		.4byte	.LASF68
 1245 03d8 0A       		.byte	0xa
 1246 03d9 7C01     		.2byte	0x17c
 1247 03db 28090000 		.4byte	0x928
 1248 03df 00       		.byte	0
 1249 03e0 09       		.uleb128 0x9
 1250 03e1 CF040000 		.4byte	.LASF69
ARM GAS  C:\Users\IDONNO~1\AppData\Local\Temp\cctBsQvq.s 			page 23


 1251 03e5 0A       		.byte	0xa
 1252 03e6 7E01     		.2byte	0x17e
 1253 03e8 28090000 		.4byte	0x928
 1254 03ec 04       		.byte	0x4
 1255 03ed 09       		.uleb128 0x9
 1256 03ee 32060000 		.4byte	.LASF70
 1257 03f2 0A       		.byte	0xa
 1258 03f3 8001     		.2byte	0x180
 1259 03f5 5C010000 		.4byte	0x15c
 1260 03f9 08       		.byte	0x8
 1261 03fa 09       		.uleb128 0x9
 1262 03fb 91080000 		.4byte	.LASF75
 1263 03ff 0A       		.byte	0xa
 1264 0400 8201     		.2byte	0x182
 1265 0402 23090000 		.4byte	0x923
 1266 0406 0C       		.byte	0xc
 1267 0407 00       		.byte	0
 1268 0408 03       		.uleb128 0x3
 1269 0409 D3020000 		.4byte	.LASF76
 1270 040d 09       		.byte	0x9
 1271 040e 6B       		.byte	0x6b
 1272 040f 13040000 		.4byte	0x413
 1273 0413 0B       		.uleb128 0xb
 1274 0414 2C090000 		.4byte	.LASF77
 1275 0418 04       		.byte	0x4
 1276 0419 0A       		.byte	0xa
 1277 041a A201     		.2byte	0x1a2
 1278 041c 2E040000 		.4byte	0x42e
 1279 0420 09       		.uleb128 0x9
 1280 0421 83020000 		.4byte	.LASF78
 1281 0425 0A       		.byte	0xa
 1282 0426 AA01     		.2byte	0x1aa
 1283 0428 2E090000 		.4byte	0x92e
 1284 042c 00       		.byte	0
 1285 042d 00       		.byte	0
 1286 042e 03       		.uleb128 0x3
 1287 042f F6090000 		.4byte	.LASF79
 1288 0433 09       		.byte	0x9
 1289 0434 70       		.byte	0x70
 1290 0435 39040000 		.4byte	0x439
 1291 0439 0F       		.uleb128 0xf
 1292 043a 6D090000 		.4byte	.LASF80
 1293 043e 5802     		.2byte	0x258
 1294 0440 0A       		.byte	0xa
 1295 0441 C201     		.2byte	0x1c2
 1296 0443 95040000 		.4byte	0x495
 1297 0447 09       		.uleb128 0x9
 1298 0448 71080000 		.4byte	.LASF81
 1299 044c 0A       		.byte	0xa
 1300 044d C601     		.2byte	0x1c6
 1301 044f DC020000 		.4byte	0x2dc
 1302 0453 00       		.byte	0
 1303 0454 09       		.uleb128 0x9
 1304 0455 47090000 		.4byte	.LASF82
 1305 0459 0A       		.byte	0xa
 1306 045a CA01     		.2byte	0x1ca
 1307 045c BB030000 		.4byte	0x3bb
ARM GAS  C:\Users\IDONNO~1\AppData\Local\Temp\cctBsQvq.s 			page 24


 1308 0460 1C       		.byte	0x1c
 1309 0461 08       		.uleb128 0x8
 1310 0462 64626700 		.ascii	"dbg\000"
 1311 0466 0A       		.byte	0xa
 1312 0467 CE01     		.2byte	0x1ce
 1313 0469 08040000 		.4byte	0x408
 1314 046d 2C       		.byte	0x2c
 1315 046e 09       		.uleb128 0x9
 1316 046f F8070000 		.4byte	.LASF83
 1317 0473 0A       		.byte	0xa
 1318 0474 D201     		.2byte	0x1d2
 1319 0476 67010000 		.4byte	0x167
 1320 047a 30       		.byte	0x30
 1321 047b 08       		.uleb128 0x8
 1322 047c 746D00   		.ascii	"tm\000"
 1323 047f 0A       		.byte	0xa
 1324 0480 D701     		.2byte	0x1d7
 1325 0482 41080000 		.4byte	0x841
 1326 0486 78       		.byte	0x78
 1327 0487 09       		.uleb128 0x9
 1328 0488 3F050000 		.4byte	.LASF84
 1329 048c 0A       		.byte	0xa
 1330 048d E301     		.2byte	0x1e3
 1331 048f 33090000 		.4byte	0x933
 1332 0493 80       		.byte	0x80
 1333 0494 00       		.byte	0
 1334 0495 04       		.uleb128 0x4
 1335 0496 04       		.byte	0x4
 1336 0497 07       		.byte	0x7
 1337 0498 07000000 		.4byte	.LASF85
 1338 049c 10       		.uleb128 0x10
 1339 049d CE000000 		.4byte	0xce
 1340 04a1 AC040000 		.4byte	0x4ac
 1341 04a5 11       		.uleb128 0x11
 1342 04a6 95040000 		.4byte	0x495
 1343 04aa 01       		.byte	0x1
 1344 04ab 00       		.byte	0
 1345 04ac 12       		.uleb128 0x12
 1346 04ad 88       		.byte	0x88
 1347 04ae 0B       		.byte	0xb
 1348 04af 6702     		.2byte	0x267
 1349 04b1 3B060000 		.4byte	0x63b
 1350 04b5 08       		.uleb128 0x8
 1351 04b6 435200   		.ascii	"CR\000"
 1352 04b9 0B       		.byte	0xb
 1353 04ba 6902     		.2byte	0x269
 1354 04bc E9000000 		.4byte	0xe9
 1355 04c0 00       		.byte	0
 1356 04c1 09       		.uleb128 0x9
 1357 04c2 75040000 		.4byte	.LASF86
 1358 04c6 0B       		.byte	0xb
 1359 04c7 6A02     		.2byte	0x26a
 1360 04c9 E9000000 		.4byte	0xe9
 1361 04cd 04       		.byte	0x4
 1362 04ce 09       		.uleb128 0x9
 1363 04cf 99030000 		.4byte	.LASF87
 1364 04d3 0B       		.byte	0xb
ARM GAS  C:\Users\IDONNO~1\AppData\Local\Temp\cctBsQvq.s 			page 25


 1365 04d4 6B02     		.2byte	0x26b
 1366 04d6 E9000000 		.4byte	0xe9
 1367 04da 08       		.byte	0x8
 1368 04db 08       		.uleb128 0x8
 1369 04dc 43495200 		.ascii	"CIR\000"
 1370 04e0 0B       		.byte	0xb
 1371 04e1 6C02     		.2byte	0x26c
 1372 04e3 E9000000 		.4byte	0xe9
 1373 04e7 0C       		.byte	0xc
 1374 04e8 09       		.uleb128 0x9
 1375 04e9 07030000 		.4byte	.LASF88
 1376 04ed 0B       		.byte	0xb
 1377 04ee 6D02     		.2byte	0x26d
 1378 04f0 E9000000 		.4byte	0xe9
 1379 04f4 10       		.byte	0x10
 1380 04f5 09       		.uleb128 0x9
 1381 04f6 C6080000 		.4byte	.LASF89
 1382 04fa 0B       		.byte	0xb
 1383 04fb 6E02     		.2byte	0x26e
 1384 04fd E9000000 		.4byte	0xe9
 1385 0501 14       		.byte	0x14
 1386 0502 09       		.uleb128 0x9
 1387 0503 CF050000 		.4byte	.LASF90
 1388 0507 0B       		.byte	0xb
 1389 0508 6F02     		.2byte	0x26f
 1390 050a E9000000 		.4byte	0xe9
 1391 050e 18       		.byte	0x18
 1392 050f 09       		.uleb128 0x9
 1393 0510 39020000 		.4byte	.LASF91
 1394 0514 0B       		.byte	0xb
 1395 0515 7002     		.2byte	0x270
 1396 0517 CE000000 		.4byte	0xce
 1397 051b 1C       		.byte	0x1c
 1398 051c 09       		.uleb128 0x9
 1399 051d 3B060000 		.4byte	.LASF92
 1400 0521 0B       		.byte	0xb
 1401 0522 7102     		.2byte	0x271
 1402 0524 E9000000 		.4byte	0xe9
 1403 0528 20       		.byte	0x20
 1404 0529 09       		.uleb128 0x9
 1405 052a DC040000 		.4byte	.LASF93
 1406 052e 0B       		.byte	0xb
 1407 052f 7202     		.2byte	0x272
 1408 0531 E9000000 		.4byte	0xe9
 1409 0535 24       		.byte	0x24
 1410 0536 09       		.uleb128 0x9
 1411 0537 43020000 		.4byte	.LASF94
 1412 053b 0B       		.byte	0xb
 1413 053c 7302     		.2byte	0x273
 1414 053e 9C040000 		.4byte	0x49c
 1415 0542 28       		.byte	0x28
 1416 0543 09       		.uleb128 0x9
 1417 0544 89080000 		.4byte	.LASF95
 1418 0548 0B       		.byte	0xb
 1419 0549 7402     		.2byte	0x274
 1420 054b E9000000 		.4byte	0xe9
 1421 054f 30       		.byte	0x30
ARM GAS  C:\Users\IDONNO~1\AppData\Local\Temp\cctBsQvq.s 			page 26


 1422 0550 09       		.uleb128 0x9
 1423 0551 22030000 		.4byte	.LASF96
 1424 0555 0B       		.byte	0xb
 1425 0556 7502     		.2byte	0x275
 1426 0558 E9000000 		.4byte	0xe9
 1427 055c 34       		.byte	0x34
 1428 055d 09       		.uleb128 0x9
 1429 055e A5080000 		.4byte	.LASF97
 1430 0562 0B       		.byte	0xb
 1431 0563 7602     		.2byte	0x276
 1432 0565 E9000000 		.4byte	0xe9
 1433 0569 38       		.byte	0x38
 1434 056a 09       		.uleb128 0x9
 1435 056b F2020000 		.4byte	.LASF98
 1436 056f 0B       		.byte	0xb
 1437 0570 7702     		.2byte	0x277
 1438 0572 CE000000 		.4byte	0xce
 1439 0576 3C       		.byte	0x3c
 1440 0577 09       		.uleb128 0x9
 1441 0578 60060000 		.4byte	.LASF99
 1442 057c 0B       		.byte	0xb
 1443 057d 7802     		.2byte	0x278
 1444 057f E9000000 		.4byte	0xe9
 1445 0583 40       		.byte	0x40
 1446 0584 09       		.uleb128 0x9
 1447 0585 C6010000 		.4byte	.LASF100
 1448 0589 0B       		.byte	0xb
 1449 058a 7902     		.2byte	0x279
 1450 058c E9000000 		.4byte	0xe9
 1451 0590 44       		.byte	0x44
 1452 0591 09       		.uleb128 0x9
 1453 0592 5B020000 		.4byte	.LASF101
 1454 0596 0B       		.byte	0xb
 1455 0597 7A02     		.2byte	0x27a
 1456 0599 9C040000 		.4byte	0x49c
 1457 059d 48       		.byte	0x48
 1458 059e 09       		.uleb128 0x9
 1459 059f D7010000 		.4byte	.LASF102
 1460 05a3 0B       		.byte	0xb
 1461 05a4 7B02     		.2byte	0x27b
 1462 05a6 E9000000 		.4byte	0xe9
 1463 05aa 50       		.byte	0x50
 1464 05ab 09       		.uleb128 0x9
 1465 05ac 04010000 		.4byte	.LASF103
 1466 05b0 0B       		.byte	0xb
 1467 05b1 7C02     		.2byte	0x27c
 1468 05b3 E9000000 		.4byte	0xe9
 1469 05b7 54       		.byte	0x54
 1470 05b8 09       		.uleb128 0x9
 1471 05b9 03080000 		.4byte	.LASF104
 1472 05bd 0B       		.byte	0xb
 1473 05be 7D02     		.2byte	0x27d
 1474 05c0 E9000000 		.4byte	0xe9
 1475 05c4 58       		.byte	0x58
 1476 05c5 09       		.uleb128 0x9
 1477 05c6 65020000 		.4byte	.LASF105
 1478 05ca 0B       		.byte	0xb
ARM GAS  C:\Users\IDONNO~1\AppData\Local\Temp\cctBsQvq.s 			page 27


 1479 05cb 7E02     		.2byte	0x27e
 1480 05cd CE000000 		.4byte	0xce
 1481 05d1 5C       		.byte	0x5c
 1482 05d2 09       		.uleb128 0x9
 1483 05d3 A9050000 		.4byte	.LASF106
 1484 05d7 0B       		.byte	0xb
 1485 05d8 7F02     		.2byte	0x27f
 1486 05da E9000000 		.4byte	0xe9
 1487 05de 60       		.byte	0x60
 1488 05df 09       		.uleb128 0x9
 1489 05e0 0E050000 		.4byte	.LASF107
 1490 05e4 0B       		.byte	0xb
 1491 05e5 8002     		.2byte	0x280
 1492 05e7 E9000000 		.4byte	0xe9
 1493 05eb 64       		.byte	0x64
 1494 05ec 09       		.uleb128 0x9
 1495 05ed 6F020000 		.4byte	.LASF108
 1496 05f1 0B       		.byte	0xb
 1497 05f2 8102     		.2byte	0x281
 1498 05f4 9C040000 		.4byte	0x49c
 1499 05f8 68       		.byte	0x68
 1500 05f9 09       		.uleb128 0x9
 1501 05fa 60030000 		.4byte	.LASF109
 1502 05fe 0B       		.byte	0xb
 1503 05ff 8202     		.2byte	0x282
 1504 0601 E9000000 		.4byte	0xe9
 1505 0605 70       		.byte	0x70
 1506 0606 08       		.uleb128 0x8
 1507 0607 43535200 		.ascii	"CSR\000"
 1508 060b 0B       		.byte	0xb
 1509 060c 8302     		.2byte	0x283
 1510 060e E9000000 		.4byte	0xe9
 1511 0612 74       		.byte	0x74
 1512 0613 09       		.uleb128 0x9
 1513 0614 79020000 		.4byte	.LASF110
 1514 0618 0B       		.byte	0xb
 1515 0619 8402     		.2byte	0x284
 1516 061b 9C040000 		.4byte	0x49c
 1517 061f 78       		.byte	0x78
 1518 0620 09       		.uleb128 0x9
 1519 0621 C1040000 		.4byte	.LASF111
 1520 0625 0B       		.byte	0xb
 1521 0626 8502     		.2byte	0x285
 1522 0628 E9000000 		.4byte	0xe9
 1523 062c 80       		.byte	0x80
 1524 062d 09       		.uleb128 0x9
 1525 062e 21000000 		.4byte	.LASF112
 1526 0632 0B       		.byte	0xb
 1527 0633 8602     		.2byte	0x286
 1528 0635 E9000000 		.4byte	0xe9
 1529 0639 84       		.byte	0x84
 1530 063a 00       		.byte	0
 1531 063b 13       		.uleb128 0x13
 1532 063c E9080000 		.4byte	.LASF113
 1533 0640 0B       		.byte	0xb
 1534 0641 8802     		.2byte	0x288
 1535 0643 AC040000 		.4byte	0x4ac
ARM GAS  C:\Users\IDONNO~1\AppData\Local\Temp\cctBsQvq.s 			page 28


 1536 0647 12       		.uleb128 0x12
 1537 0648 1C       		.byte	0x1c
 1538 0649 0B       		.byte	0xb
 1539 064a 0903     		.2byte	0x309
 1540 064c AA060000 		.4byte	0x6aa
 1541 0650 08       		.uleb128 0x8
 1542 0651 535200   		.ascii	"SR\000"
 1543 0654 0B       		.byte	0xb
 1544 0655 0B03     		.2byte	0x30b
 1545 0657 E9000000 		.4byte	0xe9
 1546 065b 00       		.byte	0
 1547 065c 08       		.uleb128 0x8
 1548 065d 445200   		.ascii	"DR\000"
 1549 0660 0B       		.byte	0xb
 1550 0661 0C03     		.2byte	0x30c
 1551 0663 E9000000 		.4byte	0xe9
 1552 0667 04       		.byte	0x4
 1553 0668 08       		.uleb128 0x8
 1554 0669 42525200 		.ascii	"BRR\000"
 1555 066d 0B       		.byte	0xb
 1556 066e 0D03     		.2byte	0x30d
 1557 0670 E9000000 		.4byte	0xe9
 1558 0674 08       		.byte	0x8
 1559 0675 08       		.uleb128 0x8
 1560 0676 43523100 		.ascii	"CR1\000"
 1561 067a 0B       		.byte	0xb
 1562 067b 0E03     		.2byte	0x30e
 1563 067d E9000000 		.4byte	0xe9
 1564 0681 0C       		.byte	0xc
 1565 0682 08       		.uleb128 0x8
 1566 0683 43523200 		.ascii	"CR2\000"
 1567 0687 0B       		.byte	0xb
 1568 0688 0F03     		.2byte	0x30f
 1569 068a E9000000 		.4byte	0xe9
 1570 068e 10       		.byte	0x10
 1571 068f 08       		.uleb128 0x8
 1572 0690 43523300 		.ascii	"CR3\000"
 1573 0694 0B       		.byte	0xb
 1574 0695 1003     		.2byte	0x310
 1575 0697 E9000000 		.4byte	0xe9
 1576 069b 14       		.byte	0x14
 1577 069c 09       		.uleb128 0x9
 1578 069d D7040000 		.4byte	.LASF114
 1579 06a1 0B       		.byte	0xb
 1580 06a2 1103     		.2byte	0x311
 1581 06a4 E9000000 		.4byte	0xe9
 1582 06a8 18       		.byte	0x18
 1583 06a9 00       		.byte	0
 1584 06aa 13       		.uleb128 0x13
 1585 06ab 41030000 		.4byte	.LASF115
 1586 06af 0B       		.byte	0xb
 1587 06b0 1203     		.2byte	0x312
 1588 06b2 47060000 		.4byte	0x647
 1589 06b6 03       		.uleb128 0x3
 1590 06b7 BD010000 		.4byte	.LASF116
 1591 06bb 0C       		.byte	0xc
 1592 06bc 65       		.byte	0x65
ARM GAS  C:\Users\IDONNO~1\AppData\Local\Temp\cctBsQvq.s 			page 29


 1593 06bd 5F030000 		.4byte	0x35f
 1594 06c1 03       		.uleb128 0x3
 1595 06c2 36030000 		.4byte	.LASF117
 1596 06c6 0C       		.byte	0xc
 1597 06c7 6D       		.byte	0x6d
 1598 06c8 D9000000 		.4byte	0xd9
 1599 06cc 06       		.uleb128 0x6
 1600 06cd 18020000 		.4byte	.LASF118
 1601 06d1 04       		.byte	0x4
 1602 06d2 0C       		.byte	0xc
 1603 06d3 89       		.byte	0x89
 1604 06d4 E5060000 		.4byte	0x6e5
 1605 06d8 14       		.uleb128 0x14
 1606 06d9 72313300 		.ascii	"r13\000"
 1607 06dd 0C       		.byte	0xc
 1608 06de 8A       		.byte	0x8a
 1609 06df 26080000 		.4byte	0x826
 1610 06e3 00       		.byte	0
 1611 06e4 00       		.byte	0
 1612 06e5 06       		.uleb128 0x6
 1613 06e6 11060000 		.4byte	.LASF119
 1614 06ea 64       		.byte	0x64
 1615 06eb 0D       		.byte	0xd
 1616 06ec F4       		.byte	0xf4
 1617 06ed 26080000 		.4byte	0x826
 1618 06f1 14       		.uleb128 0x14
 1619 06f2 73313600 		.ascii	"s16\000"
 1620 06f6 0D       		.byte	0xd
 1621 06f7 F6       		.byte	0xf6
 1622 06f8 B6060000 		.4byte	0x6b6
 1623 06fc 00       		.byte	0
 1624 06fd 14       		.uleb128 0x14
 1625 06fe 73313700 		.ascii	"s17\000"
 1626 0702 0D       		.byte	0xd
 1627 0703 F7       		.byte	0xf7
 1628 0704 B6060000 		.4byte	0x6b6
 1629 0708 04       		.byte	0x4
 1630 0709 14       		.uleb128 0x14
 1631 070a 73313800 		.ascii	"s18\000"
 1632 070e 0D       		.byte	0xd
 1633 070f F8       		.byte	0xf8
 1634 0710 B6060000 		.4byte	0x6b6
 1635 0714 08       		.byte	0x8
 1636 0715 14       		.uleb128 0x14
 1637 0716 73313900 		.ascii	"s19\000"
 1638 071a 0D       		.byte	0xd
 1639 071b F9       		.byte	0xf9
 1640 071c B6060000 		.4byte	0x6b6
 1641 0720 0C       		.byte	0xc
 1642 0721 14       		.uleb128 0x14
 1643 0722 73323000 		.ascii	"s20\000"
 1644 0726 0D       		.byte	0xd
 1645 0727 FA       		.byte	0xfa
 1646 0728 B6060000 		.4byte	0x6b6
 1647 072c 10       		.byte	0x10
 1648 072d 14       		.uleb128 0x14
 1649 072e 73323100 		.ascii	"s21\000"
ARM GAS  C:\Users\IDONNO~1\AppData\Local\Temp\cctBsQvq.s 			page 30


 1650 0732 0D       		.byte	0xd
 1651 0733 FB       		.byte	0xfb
 1652 0734 B6060000 		.4byte	0x6b6
 1653 0738 14       		.byte	0x14
 1654 0739 14       		.uleb128 0x14
 1655 073a 73323200 		.ascii	"s22\000"
 1656 073e 0D       		.byte	0xd
 1657 073f FC       		.byte	0xfc
 1658 0740 B6060000 		.4byte	0x6b6
 1659 0744 18       		.byte	0x18
 1660 0745 14       		.uleb128 0x14
 1661 0746 73323300 		.ascii	"s23\000"
 1662 074a 0D       		.byte	0xd
 1663 074b FD       		.byte	0xfd
 1664 074c B6060000 		.4byte	0x6b6
 1665 0750 1C       		.byte	0x1c
 1666 0751 14       		.uleb128 0x14
 1667 0752 73323400 		.ascii	"s24\000"
 1668 0756 0D       		.byte	0xd
 1669 0757 FE       		.byte	0xfe
 1670 0758 B6060000 		.4byte	0x6b6
 1671 075c 20       		.byte	0x20
 1672 075d 14       		.uleb128 0x14
 1673 075e 73323500 		.ascii	"s25\000"
 1674 0762 0D       		.byte	0xd
 1675 0763 FF       		.byte	0xff
 1676 0764 B6060000 		.4byte	0x6b6
 1677 0768 24       		.byte	0x24
 1678 0769 08       		.uleb128 0x8
 1679 076a 73323600 		.ascii	"s26\000"
 1680 076e 0D       		.byte	0xd
 1681 076f 0001     		.2byte	0x100
 1682 0771 B6060000 		.4byte	0x6b6
 1683 0775 28       		.byte	0x28
 1684 0776 08       		.uleb128 0x8
 1685 0777 73323700 		.ascii	"s27\000"
 1686 077b 0D       		.byte	0xd
 1687 077c 0101     		.2byte	0x101
 1688 077e B6060000 		.4byte	0x6b6
 1689 0782 2C       		.byte	0x2c
 1690 0783 08       		.uleb128 0x8
 1691 0784 73323800 		.ascii	"s28\000"
 1692 0788 0D       		.byte	0xd
 1693 0789 0201     		.2byte	0x102
 1694 078b B6060000 		.4byte	0x6b6
 1695 078f 30       		.byte	0x30
 1696 0790 08       		.uleb128 0x8
 1697 0791 73323900 		.ascii	"s29\000"
 1698 0795 0D       		.byte	0xd
 1699 0796 0301     		.2byte	0x103
 1700 0798 B6060000 		.4byte	0x6b6
 1701 079c 34       		.byte	0x34
 1702 079d 08       		.uleb128 0x8
 1703 079e 73333000 		.ascii	"s30\000"
 1704 07a2 0D       		.byte	0xd
 1705 07a3 0401     		.2byte	0x104
 1706 07a5 B6060000 		.4byte	0x6b6
ARM GAS  C:\Users\IDONNO~1\AppData\Local\Temp\cctBsQvq.s 			page 31


 1707 07a9 38       		.byte	0x38
 1708 07aa 08       		.uleb128 0x8
 1709 07ab 73333100 		.ascii	"s31\000"
 1710 07af 0D       		.byte	0xd
 1711 07b0 0501     		.2byte	0x105
 1712 07b2 B6060000 		.4byte	0x6b6
 1713 07b6 3C       		.byte	0x3c
 1714 07b7 08       		.uleb128 0x8
 1715 07b8 723400   		.ascii	"r4\000"
 1716 07bb 0D       		.byte	0xd
 1717 07bc 0701     		.2byte	0x107
 1718 07be B6060000 		.4byte	0x6b6
 1719 07c2 40       		.byte	0x40
 1720 07c3 08       		.uleb128 0x8
 1721 07c4 723500   		.ascii	"r5\000"
 1722 07c7 0D       		.byte	0xd
 1723 07c8 0801     		.2byte	0x108
 1724 07ca B6060000 		.4byte	0x6b6
 1725 07ce 44       		.byte	0x44
 1726 07cf 08       		.uleb128 0x8
 1727 07d0 723600   		.ascii	"r6\000"
 1728 07d3 0D       		.byte	0xd
 1729 07d4 0901     		.2byte	0x109
 1730 07d6 B6060000 		.4byte	0x6b6
 1731 07da 48       		.byte	0x48
 1732 07db 08       		.uleb128 0x8
 1733 07dc 723700   		.ascii	"r7\000"
 1734 07df 0D       		.byte	0xd
 1735 07e0 0A01     		.2byte	0x10a
 1736 07e2 B6060000 		.4byte	0x6b6
 1737 07e6 4C       		.byte	0x4c
 1738 07e7 08       		.uleb128 0x8
 1739 07e8 723800   		.ascii	"r8\000"
 1740 07eb 0D       		.byte	0xd
 1741 07ec 0B01     		.2byte	0x10b
 1742 07ee B6060000 		.4byte	0x6b6
 1743 07f2 50       		.byte	0x50
 1744 07f3 08       		.uleb128 0x8
 1745 07f4 723900   		.ascii	"r9\000"
 1746 07f7 0D       		.byte	0xd
 1747 07f8 0C01     		.2byte	0x10c
 1748 07fa B6060000 		.4byte	0x6b6
 1749 07fe 54       		.byte	0x54
 1750 07ff 08       		.uleb128 0x8
 1751 0800 72313000 		.ascii	"r10\000"
 1752 0804 0D       		.byte	0xd
 1753 0805 0D01     		.2byte	0x10d
 1754 0807 B6060000 		.4byte	0x6b6
 1755 080b 58       		.byte	0x58
 1756 080c 08       		.uleb128 0x8
 1757 080d 72313100 		.ascii	"r11\000"
 1758 0811 0D       		.byte	0xd
 1759 0812 0E01     		.2byte	0x10e
 1760 0814 B6060000 		.4byte	0x6b6
 1761 0818 5C       		.byte	0x5c
 1762 0819 08       		.uleb128 0x8
 1763 081a 6C7200   		.ascii	"lr\000"
ARM GAS  C:\Users\IDONNO~1\AppData\Local\Temp\cctBsQvq.s 			page 32


 1764 081d 0D       		.byte	0xd
 1765 081e 0F01     		.2byte	0x10f
 1766 0820 B6060000 		.4byte	0x6b6
 1767 0824 60       		.byte	0x60
 1768 0825 00       		.byte	0
 1769 0826 0A       		.uleb128 0xa
 1770 0827 04       		.byte	0x4
 1771 0828 E5060000 		.4byte	0x6e5
 1772 082c 15       		.uleb128 0x15
 1773 082d 04       		.byte	0x4
 1774 082e 0E       		.byte	0xe
 1775 082f 38       		.byte	0x38
 1776 0830 41080000 		.4byte	0x841
 1777 0834 07       		.uleb128 0x7
 1778 0835 A2050000 		.4byte	.LASF120
 1779 0839 0E       		.byte	0xe
 1780 083a 3C       		.byte	0x3c
 1781 083b EE000000 		.4byte	0xee
 1782 083f 00       		.byte	0
 1783 0840 00       		.byte	0
 1784 0841 03       		.uleb128 0x3
 1785 0842 B5080000 		.4byte	.LASF121
 1786 0846 0E       		.byte	0xe
 1787 0847 3D       		.byte	0x3d
 1788 0848 2C080000 		.4byte	0x82c
 1789 084c 16       		.uleb128 0x16
 1790 084d 04       		.byte	0x4
 1791 084e 0A       		.byte	0xa
 1792 084f FA       		.byte	0xfa
 1793 0850 A9080000 		.4byte	0x8a9
 1794 0854 17       		.uleb128 0x17
 1795 0855 D0090000 		.4byte	.LASF122
 1796 0859 0A       		.byte	0xa
 1797 085a 0101     		.2byte	0x101
 1798 085c 30010000 		.4byte	0x130
 1799 0860 17       		.uleb128 0x17
 1800 0861 E4000000 		.4byte	.LASF123
 1801 0865 0A       		.byte	0xa
 1802 0866 0801     		.2byte	0x108
 1803 0868 30010000 		.4byte	0x130
 1804 086c 17       		.uleb128 0x17
 1805 086d 2A030000 		.4byte	.LASF124
 1806 0871 0A       		.byte	0xa
 1807 0872 0F01     		.2byte	0x10f
 1808 0874 5F030000 		.4byte	0x35f
 1809 0878 17       		.uleb128 0x17
 1810 0879 20020000 		.4byte	.LASF125
 1811 087d 0A       		.byte	0xa
 1812 087e 1601     		.2byte	0x116
 1813 0880 A9080000 		.4byte	0x8a9
 1814 0884 17       		.uleb128 0x17
 1815 0885 10000000 		.4byte	.LASF126
 1816 0889 0A       		.byte	0xa
 1817 088a 1E01     		.2byte	0x11e
 1818 088c D4080000 		.4byte	0x8d4
 1819 0890 17       		.uleb128 0x17
 1820 0891 84030000 		.4byte	.LASF127
ARM GAS  C:\Users\IDONNO~1\AppData\Local\Temp\cctBsQvq.s 			page 33


 1821 0895 0A       		.byte	0xa
 1822 0896 2701     		.2byte	0x127
 1823 0898 0B090000 		.4byte	0x90b
 1824 089c 17       		.uleb128 0x17
 1825 089d FD000000 		.4byte	.LASF128
 1826 08a1 0A       		.byte	0xa
 1827 08a2 2F01     		.2byte	0x12f
 1828 08a4 3B010000 		.4byte	0x13b
 1829 08a8 00       		.byte	0
 1830 08a9 0A       		.uleb128 0xa
 1831 08aa 04       		.byte	0x4
 1832 08ab 77020000 		.4byte	0x277
 1833 08af 06       		.uleb128 0x6
 1834 08b0 E2030000 		.4byte	.LASF129
 1835 08b4 0C       		.byte	0xc
 1836 08b5 0F       		.byte	0xf
 1837 08b6 34       		.byte	0x34
 1838 08b7 D4080000 		.4byte	0x8d4
 1839 08bb 07       		.uleb128 0x7
 1840 08bc D9080000 		.4byte	.LASF130
 1841 08c0 0F       		.byte	0xf
 1842 08c1 35       		.byte	0x35
 1843 08c2 AC020000 		.4byte	0x2ac
 1844 08c6 00       		.byte	0
 1845 08c7 07       		.uleb128 0x7
 1846 08c8 68060000 		.4byte	.LASF131
 1847 08cc 0F       		.byte	0xf
 1848 08cd 37       		.byte	0x37
 1849 08ce 51010000 		.4byte	0x151
 1850 08d2 08       		.byte	0x8
 1851 08d3 00       		.byte	0
 1852 08d4 0A       		.uleb128 0xa
 1853 08d5 04       		.byte	0x4
 1854 08d6 AF080000 		.4byte	0x8af
 1855 08da 06       		.uleb128 0x6
 1856 08db 15090000 		.4byte	.LASF132
 1857 08df 10       		.byte	0x10
 1858 08e0 10       		.byte	0x10
 1859 08e1 39       		.byte	0x39
 1860 08e2 0B090000 		.4byte	0x90b
 1861 08e6 07       		.uleb128 0x7
 1862 08e7 A6040000 		.4byte	.LASF133
 1863 08eb 10       		.byte	0x10
 1864 08ec 3A       		.byte	0x3a
 1865 08ed AC020000 		.4byte	0x2ac
 1866 08f1 00       		.byte	0
 1867 08f2 07       		.uleb128 0x7
 1868 08f3 D5000000 		.4byte	.LASF134
 1869 08f7 10       		.byte	0x10
 1870 08f8 3C       		.byte	0x3c
 1871 08f9 82020000 		.4byte	0x282
 1872 08fd 08       		.byte	0x8
 1873 08fe 07       		.uleb128 0x7
 1874 08ff 2A0A0000 		.4byte	.LASF135
 1875 0903 10       		.byte	0x10
 1876 0904 3E       		.byte	0x3e
 1877 0905 4E090000 		.4byte	0x94e
ARM GAS  C:\Users\IDONNO~1\AppData\Local\Temp\cctBsQvq.s 			page 34


 1878 0909 0C       		.byte	0xc
 1879 090a 00       		.byte	0
 1880 090b 0A       		.uleb128 0xa
 1881 090c 04       		.byte	0x4
 1882 090d DA080000 		.4byte	0x8da
 1883 0911 0A       		.uleb128 0xa
 1884 0912 04       		.byte	0x4
 1885 0913 1E090000 		.4byte	0x91e
 1886 0917 04       		.uleb128 0x4
 1887 0918 01       		.byte	0x1
 1888 0919 08       		.byte	0x8
 1889 091a 02030000 		.4byte	.LASF136
 1890 091e 18       		.uleb128 0x18
 1891 091f 17090000 		.4byte	0x917
 1892 0923 05       		.uleb128 0x5
 1893 0924 5C010000 		.4byte	0x15c
 1894 0928 0A       		.uleb128 0xa
 1895 0929 04       		.byte	0x4
 1896 092a 61030000 		.4byte	0x361
 1897 092e 05       		.uleb128 0x5
 1898 092f 11090000 		.4byte	0x911
 1899 0933 10       		.uleb128 0x10
 1900 0934 C1060000 		.4byte	0x6c1
 1901 0938 43090000 		.4byte	0x943
 1902 093c 11       		.uleb128 0x11
 1903 093d 95040000 		.4byte	0x495
 1904 0941 3A       		.byte	0x3a
 1905 0942 00       		.byte	0
 1906 0943 03       		.uleb128 0x3
 1907 0944 4E090000 		.4byte	.LASF137
 1908 0948 10       		.byte	0x10
 1909 0949 34       		.byte	0x34
 1910 094a DA080000 		.4byte	0x8da
 1911 094e 0A       		.uleb128 0xa
 1912 094f 04       		.byte	0x4
 1913 0950 43090000 		.4byte	0x943
 1914 0954 03       		.uleb128 0x3
 1915 0955 4F030000 		.4byte	.LASF138
 1916 0959 11       		.byte	0x11
 1917 095a 34       		.byte	0x34
 1918 095b 5F090000 		.4byte	0x95f
 1919 095f 06       		.uleb128 0x6
 1920 0960 C1090000 		.4byte	.LASF139
 1921 0964 14       		.byte	0x14
 1922 0965 11       		.byte	0x11
 1923 0966 39       		.byte	0x39
 1924 0967 A8090000 		.4byte	0x9a8
 1925 096b 07       		.uleb128 0x7
 1926 096c 0F040000 		.4byte	.LASF140
 1927 0970 11       		.byte	0x11
 1928 0971 3A       		.byte	0x3a
 1929 0972 A8090000 		.4byte	0x9a8
 1930 0976 00       		.byte	0
 1931 0977 07       		.uleb128 0x7
 1932 0978 370A0000 		.4byte	.LASF141
 1933 097c 11       		.byte	0x11
 1934 097d 3D       		.byte	0x3d
ARM GAS  C:\Users\IDONNO~1\AppData\Local\Temp\cctBsQvq.s 			page 35


 1935 097e 82020000 		.4byte	0x282
 1936 0982 04       		.byte	0x4
 1937 0983 07       		.uleb128 0x7
 1938 0984 85050000 		.4byte	.LASF142
 1939 0988 11       		.byte	0x11
 1940 0989 3F       		.byte	0x3f
 1941 098a 3B010000 		.4byte	0x13b
 1942 098e 08       		.byte	0x8
 1943 098f 07       		.uleb128 0x7
 1944 0990 8D000000 		.4byte	.LASF143
 1945 0994 11       		.byte	0x11
 1946 0995 41       		.byte	0x41
 1947 0996 46010000 		.4byte	0x146
 1948 099a 0C       		.byte	0xc
 1949 099b 07       		.uleb128 0x7
 1950 099c 7B050000 		.4byte	.LASF144
 1951 09a0 11       		.byte	0x11
 1952 09a1 43       		.byte	0x43
 1953 09a2 46010000 		.4byte	0x146
 1954 09a6 10       		.byte	0x10
 1955 09a7 00       		.byte	0
 1956 09a8 0A       		.uleb128 0xa
 1957 09a9 04       		.byte	0x4
 1958 09aa 54090000 		.4byte	0x954
 1959 09ae 06       		.uleb128 0x6
 1960 09af FF080000 		.4byte	.LASF145
 1961 09b3 04       		.byte	0x4
 1962 09b4 11       		.byte	0x11
 1963 09b5 4A       		.byte	0x4a
 1964 09b6 C7090000 		.4byte	0x9c7
 1965 09ba 07       		.uleb128 0x7
 1966 09bb B3030000 		.4byte	.LASF146
 1967 09bf 11       		.byte	0x11
 1968 09c0 4B       		.byte	0x4b
 1969 09c1 A8090000 		.4byte	0x9a8
 1970 09c5 00       		.byte	0
 1971 09c6 00       		.byte	0
 1972 09c7 03       		.uleb128 0x3
 1973 09c8 E5040000 		.4byte	.LASF147
 1974 09cc 11       		.byte	0x11
 1975 09cd 4E       		.byte	0x4e
 1976 09ce AE090000 		.4byte	0x9ae
 1977 09d2 03       		.uleb128 0x3
 1978 09d3 3C090000 		.4byte	.LASF148
 1979 09d7 04       		.byte	0x4
 1980 09d8 3F       		.byte	0x3f
 1981 09d9 DD090000 		.4byte	0x9dd
 1982 09dd 06       		.uleb128 0x6
 1983 09de CE010000 		.4byte	.LASF149
 1984 09e2 24       		.byte	0x24
 1985 09e3 04       		.byte	0x4
 1986 09e4 4D       		.byte	0x4d
 1987 09e5 4A0A0000 		.4byte	0xa4a
 1988 09e9 07       		.uleb128 0x7
 1989 09ea 67080000 		.4byte	.LASF150
 1990 09ee 04       		.byte	0x4
 1991 09ef 4E       		.byte	0x4e
ARM GAS  C:\Users\IDONNO~1\AppData\Local\Temp\cctBsQvq.s 			page 36


 1992 09f0 AC020000 		.4byte	0x2ac
 1993 09f4 00       		.byte	0
 1994 09f5 07       		.uleb128 0x7
 1995 09f6 BB030000 		.4byte	.LASF151
 1996 09fa 04       		.byte	0x4
 1997 09fb 4F       		.byte	0x4f
 1998 09fc 6C0A0000 		.4byte	0xa6c
 1999 0a00 08       		.byte	0x8
 2000 0a01 07       		.uleb128 0x7
 2001 0a02 21010000 		.4byte	.LASF152
 2002 0a06 04       		.byte	0x4
 2003 0a07 50       		.byte	0x50
 2004 0a08 710A0000 		.4byte	0xa71
 2005 0a0c 0C       		.byte	0xc
 2006 0a0d 07       		.uleb128 0x7
 2007 0a0e F7000000 		.4byte	.LASF153
 2008 0a12 04       		.byte	0x4
 2009 0a13 51       		.byte	0x51
 2010 0a14 710A0000 		.4byte	0xa71
 2011 0a18 10       		.byte	0x10
 2012 0a19 07       		.uleb128 0x7
 2013 0a1a 34040000 		.4byte	.LASF154
 2014 0a1e 04       		.byte	0x4
 2015 0a1f 53       		.byte	0x53
 2016 0a20 710A0000 		.4byte	0xa71
 2017 0a24 14       		.byte	0x14
 2018 0a25 07       		.uleb128 0x7
 2019 0a26 64010000 		.4byte	.LASF155
 2020 0a2a 04       		.byte	0x4
 2021 0a2b 54       		.byte	0x54
 2022 0a2c 710A0000 		.4byte	0xa71
 2023 0a30 18       		.byte	0x18
 2024 0a31 07       		.uleb128 0x7
 2025 0a32 2A010000 		.4byte	.LASF156
 2026 0a36 04       		.byte	0x4
 2027 0a37 55       		.byte	0x55
 2028 0a38 4A0A0000 		.4byte	0xa4a
 2029 0a3c 1C       		.byte	0x1c
 2030 0a3d 07       		.uleb128 0x7
 2031 0a3e E7010000 		.4byte	.LASF157
 2032 0a42 04       		.byte	0x4
 2033 0a43 56       		.byte	0x56
 2034 0a44 5F030000 		.4byte	0x35f
 2035 0a48 20       		.byte	0x20
 2036 0a49 00       		.byte	0
 2037 0a4a 03       		.uleb128 0x3
 2038 0a4b 18050000 		.4byte	.LASF158
 2039 0a4f 04       		.byte	0x4
 2040 0a50 42       		.byte	0x42
 2041 0a51 550A0000 		.4byte	0xa55
 2042 0a55 0A       		.uleb128 0xa
 2043 0a56 04       		.byte	0x4
 2044 0a57 5B0A0000 		.4byte	0xa5b
 2045 0a5b 0C       		.uleb128 0xc
 2046 0a5c 660A0000 		.4byte	0xa66
 2047 0a60 0D       		.uleb128 0xd
 2048 0a61 660A0000 		.4byte	0xa66
ARM GAS  C:\Users\IDONNO~1\AppData\Local\Temp\cctBsQvq.s 			page 37


 2049 0a65 00       		.byte	0
 2050 0a66 0A       		.uleb128 0xa
 2051 0a67 04       		.byte	0x4
 2052 0a68 D2090000 		.4byte	0x9d2
 2053 0a6c 05       		.uleb128 0x5
 2054 0a6d 2C000000 		.4byte	0x2c
 2055 0a71 0A       		.uleb128 0xa
 2056 0a72 04       		.byte	0x4
 2057 0a73 AD000000 		.4byte	0xad
 2058 0a77 03       		.uleb128 0x3
 2059 0a78 9A090000 		.4byte	.LASF159
 2060 0a7c 04       		.byte	0x4
 2061 0a7d 64       		.byte	0x64
 2062 0a7e D2090000 		.4byte	0x9d2
 2063 0a82 03       		.uleb128 0x3
 2064 0a83 020A0000 		.4byte	.LASF160
 2065 0a87 04       		.byte	0x4
 2066 0a88 71       		.byte	0x71
 2067 0a89 D2090000 		.4byte	0x9d2
 2068 0a8d 19       		.uleb128 0x19
 2069 0a8e 2C000000 		.4byte	0x2c
 2070 0a92 A60A0000 		.4byte	0xaa6
 2071 0a96 0D       		.uleb128 0xd
 2072 0a97 5F030000 		.4byte	0x35f
 2073 0a9b 0D       		.uleb128 0xd
 2074 0a9c A60A0000 		.4byte	0xaa6
 2075 0aa0 0D       		.uleb128 0xd
 2076 0aa1 2C000000 		.4byte	0x2c
 2077 0aa5 00       		.byte	0
 2078 0aa6 0A       		.uleb128 0xa
 2079 0aa7 04       		.byte	0x4
 2080 0aa8 AC0A0000 		.4byte	0xaac
 2081 0aac 18       		.uleb128 0x18
 2082 0aad AD000000 		.4byte	0xad
 2083 0ab1 0A       		.uleb128 0xa
 2084 0ab2 04       		.byte	0x4
 2085 0ab3 8D0A0000 		.4byte	0xa8d
 2086 0ab7 19       		.uleb128 0x19
 2087 0ab8 2C000000 		.4byte	0x2c
 2088 0abc D00A0000 		.4byte	0xad0
 2089 0ac0 0D       		.uleb128 0xd
 2090 0ac1 5F030000 		.4byte	0x35f
 2091 0ac5 0D       		.uleb128 0xd
 2092 0ac6 710A0000 		.4byte	0xa71
 2093 0aca 0D       		.uleb128 0xd
 2094 0acb 2C000000 		.4byte	0x2c
 2095 0acf 00       		.byte	0
 2096 0ad0 0A       		.uleb128 0xa
 2097 0ad1 04       		.byte	0x4
 2098 0ad2 B70A0000 		.4byte	0xab7
 2099 0ad6 19       		.uleb128 0x19
 2100 0ad7 30010000 		.4byte	0x130
 2101 0adb EA0A0000 		.4byte	0xaea
 2102 0adf 0D       		.uleb128 0xd
 2103 0ae0 5F030000 		.4byte	0x35f
 2104 0ae4 0D       		.uleb128 0xd
 2105 0ae5 AD000000 		.4byte	0xad
ARM GAS  C:\Users\IDONNO~1\AppData\Local\Temp\cctBsQvq.s 			page 38


 2106 0ae9 00       		.byte	0
 2107 0aea 0A       		.uleb128 0xa
 2108 0aeb 04       		.byte	0x4
 2109 0aec D60A0000 		.4byte	0xad6
 2110 0af0 19       		.uleb128 0x19
 2111 0af1 30010000 		.4byte	0x130
 2112 0af5 FF0A0000 		.4byte	0xaff
 2113 0af9 0D       		.uleb128 0xd
 2114 0afa 5F030000 		.4byte	0x35f
 2115 0afe 00       		.byte	0
 2116 0aff 0A       		.uleb128 0xa
 2117 0b00 04       		.byte	0x4
 2118 0b01 F00A0000 		.4byte	0xaf0
 2119 0b05 19       		.uleb128 0x19
 2120 0b06 30010000 		.4byte	0x130
 2121 0b0a 1E0B0000 		.4byte	0xb1e
 2122 0b0e 0D       		.uleb128 0xd
 2123 0b0f 5F030000 		.4byte	0x35f
 2124 0b13 0D       		.uleb128 0xd
 2125 0b14 AD000000 		.4byte	0xad
 2126 0b18 0D       		.uleb128 0xd
 2127 0b19 5C010000 		.4byte	0x15c
 2128 0b1d 00       		.byte	0
 2129 0b1e 0A       		.uleb128 0xa
 2130 0b1f 04       		.byte	0x4
 2131 0b20 050B0000 		.4byte	0xb05
 2132 0b24 19       		.uleb128 0x19
 2133 0b25 30010000 		.4byte	0x130
 2134 0b29 380B0000 		.4byte	0xb38
 2135 0b2d 0D       		.uleb128 0xd
 2136 0b2e 5F030000 		.4byte	0x35f
 2137 0b32 0D       		.uleb128 0xd
 2138 0b33 5C010000 		.4byte	0x15c
 2139 0b37 00       		.byte	0
 2140 0b38 0A       		.uleb128 0xa
 2141 0b39 04       		.byte	0x4
 2142 0b3a 240B0000 		.4byte	0xb24
 2143 0b3e 19       		.uleb128 0x19
 2144 0b3f 2C000000 		.4byte	0x2c
 2145 0b43 5C0B0000 		.4byte	0xb5c
 2146 0b47 0D       		.uleb128 0xd
 2147 0b48 5F030000 		.4byte	0x35f
 2148 0b4c 0D       		.uleb128 0xd
 2149 0b4d A60A0000 		.4byte	0xaa6
 2150 0b51 0D       		.uleb128 0xd
 2151 0b52 2C000000 		.4byte	0x2c
 2152 0b56 0D       		.uleb128 0xd
 2153 0b57 5C010000 		.4byte	0x15c
 2154 0b5b 00       		.byte	0
 2155 0b5c 0A       		.uleb128 0xa
 2156 0b5d 04       		.byte	0x4
 2157 0b5e 3E0B0000 		.4byte	0xb3e
 2158 0b62 19       		.uleb128 0x19
 2159 0b63 2C000000 		.4byte	0x2c
 2160 0b67 800B0000 		.4byte	0xb80
 2161 0b6b 0D       		.uleb128 0xd
 2162 0b6c 5F030000 		.4byte	0x35f
ARM GAS  C:\Users\IDONNO~1\AppData\Local\Temp\cctBsQvq.s 			page 39


 2163 0b70 0D       		.uleb128 0xd
 2164 0b71 710A0000 		.4byte	0xa71
 2165 0b75 0D       		.uleb128 0xd
 2166 0b76 2C000000 		.4byte	0x2c
 2167 0b7a 0D       		.uleb128 0xd
 2168 0b7b 5C010000 		.4byte	0x15c
 2169 0b7f 00       		.byte	0
 2170 0b80 0A       		.uleb128 0xa
 2171 0b81 04       		.byte	0x4
 2172 0b82 620B0000 		.4byte	0xb62
 2173 0b86 04       		.uleb128 0x4
 2174 0b87 01       		.byte	0x1
 2175 0b88 02       		.byte	0x2
 2176 0b89 EC020000 		.4byte	.LASF161
 2177 0b8d 1A       		.uleb128 0x1a
 2178 0b8e 01       		.byte	0x1
 2179 0b8f 50000000 		.4byte	0x50
 2180 0b93 12       		.byte	0x12
 2181 0b94 55       		.byte	0x55
 2182 0b95 AC0B0000 		.4byte	0xbac
 2183 0b99 1B       		.uleb128 0x1b
 2184 0b9a E2020000 		.4byte	.LASF162
 2185 0b9e 00       		.byte	0
 2186 0b9f 1B       		.uleb128 0x1b
 2187 0ba0 1B0A0000 		.4byte	.LASF163
 2188 0ba4 01       		.byte	0x1
 2189 0ba5 1B       		.uleb128 0x1b
 2190 0ba6 9C080000 		.4byte	.LASF164
 2191 0baa 02       		.byte	0x2
 2192 0bab 00       		.byte	0
 2193 0bac 03       		.uleb128 0x3
 2194 0bad 7F080000 		.4byte	.LASF165
 2195 0bb1 12       		.byte	0x12
 2196 0bb2 59       		.byte	0x59
 2197 0bb3 8D0B0000 		.4byte	0xb8d
 2198 0bb7 03       		.uleb128 0x3
 2199 0bb8 23080000 		.4byte	.LASF166
 2200 0bbc 12       		.byte	0x12
 2201 0bbd 5E       		.byte	0x5e
 2202 0bbe C20B0000 		.4byte	0xbc2
 2203 0bc2 06       		.uleb128 0x6
 2204 0bc3 23080000 		.4byte	.LASF166
 2205 0bc7 78       		.byte	0x78
 2206 0bc8 12       		.byte	0x12
 2207 0bc9 78       		.byte	0x78
 2208 0bca 2D0C0000 		.4byte	0xc2d
 2209 0bce 14       		.uleb128 0x14
 2210 0bcf 766D7400 		.ascii	"vmt\000"
 2211 0bd3 12       		.byte	0x12
 2212 0bd4 7A       		.byte	0x7a
 2213 0bd5 DE0C0000 		.4byte	0xcde
 2214 0bd9 00       		.byte	0
 2215 0bda 07       		.uleb128 0x7
 2216 0bdb 2C050000 		.4byte	.LASF167
 2217 0bdf 12       		.byte	0x12
 2218 0be0 7B       		.byte	0x7b
 2219 0be1 C7090000 		.4byte	0x9c7
ARM GAS  C:\Users\IDONNO~1\AppData\Local\Temp\cctBsQvq.s 			page 40


 2220 0be5 04       		.byte	0x4
 2221 0be6 07       		.uleb128 0x7
 2222 0be7 9D000000 		.4byte	.LASF168
 2223 0beb 12       		.byte	0x12
 2224 0bec 7B       		.byte	0x7b
 2225 0bed AC0B0000 		.4byte	0xbac
 2226 0bf1 08       		.byte	0x8
 2227 0bf2 07       		.uleb128 0x7
 2228 0bf3 1E090000 		.4byte	.LASF169
 2229 0bf7 12       		.byte	0x12
 2230 0bf8 7B       		.byte	0x7b
 2231 0bf9 770A0000 		.4byte	0xa77
 2232 0bfd 0C       		.byte	0xc
 2233 0bfe 07       		.uleb128 0x7
 2234 0bff B6010000 		.4byte	.LASF170
 2235 0c03 12       		.byte	0x12
 2236 0c04 7B       		.byte	0x7b
 2237 0c05 820A0000 		.4byte	0xa82
 2238 0c09 30       		.byte	0x30
 2239 0c0a 14       		.uleb128 0x14
 2240 0c0b 696200   		.ascii	"ib\000"
 2241 0c0e 12       		.byte	0x12
 2242 0c0f 7B       		.byte	0x7b
 2243 0c10 E90C0000 		.4byte	0xce9
 2244 0c14 54       		.byte	0x54
 2245 0c15 14       		.uleb128 0x14
 2246 0c16 6F6200   		.ascii	"ob\000"
 2247 0c19 12       		.byte	0x12
 2248 0c1a 7B       		.byte	0x7b
 2249 0c1b E90C0000 		.4byte	0xce9
 2250 0c1f 64       		.byte	0x64
 2251 0c20 07       		.uleb128 0x7
 2252 0c21 E1010000 		.4byte	.LASF171
 2253 0c25 12       		.byte	0x12
 2254 0c26 7B       		.byte	0x7b
 2255 0c27 F90C0000 		.4byte	0xcf9
 2256 0c2b 74       		.byte	0x74
 2257 0c2c 00       		.byte	0
 2258 0c2d 15       		.uleb128 0x15
 2259 0c2e 0C       		.byte	0xc
 2260 0c2f 13       		.byte	0x13
 2261 0c30 D7       		.byte	0xd7
 2262 0c31 660C0000 		.4byte	0xc66
 2263 0c35 07       		.uleb128 0x7
 2264 0c36 73030000 		.4byte	.LASF172
 2265 0c3a 13       		.byte	0x13
 2266 0c3b DB       		.byte	0xdb
 2267 0c3c CE000000 		.4byte	0xce
 2268 0c40 00       		.byte	0
 2269 0c41 14       		.uleb128 0x14
 2270 0c42 63723100 		.ascii	"cr1\000"
 2271 0c46 13       		.byte	0x13
 2272 0c47 E0       		.byte	0xe0
 2273 0c48 B8000000 		.4byte	0xb8
 2274 0c4c 04       		.byte	0x4
 2275 0c4d 14       		.uleb128 0x14
 2276 0c4e 63723200 		.ascii	"cr2\000"
ARM GAS  C:\Users\IDONNO~1\AppData\Local\Temp\cctBsQvq.s 			page 41


 2277 0c52 13       		.byte	0x13
 2278 0c53 E4       		.byte	0xe4
 2279 0c54 B8000000 		.4byte	0xb8
 2280 0c58 06       		.byte	0x6
 2281 0c59 14       		.uleb128 0x14
 2282 0c5a 63723300 		.ascii	"cr3\000"
 2283 0c5e 13       		.byte	0x13
 2284 0c5f E8       		.byte	0xe8
 2285 0c60 B8000000 		.4byte	0xb8
 2286 0c64 08       		.byte	0x8
 2287 0c65 00       		.byte	0
 2288 0c66 03       		.uleb128 0x3
 2289 0c67 53000000 		.4byte	.LASF173
 2290 0c6b 13       		.byte	0x13
 2291 0c6c E9       		.byte	0xe9
 2292 0c6d 2D0C0000 		.4byte	0xc2d
 2293 0c71 06       		.uleb128 0x6
 2294 0c72 3C040000 		.4byte	.LASF174
 2295 0c76 20       		.byte	0x20
 2296 0c77 12       		.byte	0x12
 2297 0c78 6D       		.byte	0x6d
 2298 0c79 DE0C0000 		.4byte	0xcde
 2299 0c7d 07       		.uleb128 0x7
 2300 0c7e 87000000 		.4byte	.LASF175
 2301 0c82 12       		.byte	0x12
 2302 0c83 6E       		.byte	0x6e
 2303 0c84 B10A0000 		.4byte	0xab1
 2304 0c88 00       		.byte	0
 2305 0c89 07       		.uleb128 0x7
 2306 0c8a 3A050000 		.4byte	.LASF176
 2307 0c8e 12       		.byte	0x12
 2308 0c8f 6E       		.byte	0x6e
 2309 0c90 D00A0000 		.4byte	0xad0
 2310 0c94 04       		.byte	0x4
 2311 0c95 14       		.uleb128 0x14
 2312 0c96 70757400 		.ascii	"put\000"
 2313 0c9a 12       		.byte	0x12
 2314 0c9b 6E       		.byte	0x6e
 2315 0c9c EA0A0000 		.4byte	0xaea
 2316 0ca0 08       		.byte	0x8
 2317 0ca1 14       		.uleb128 0x14
 2318 0ca2 67657400 		.ascii	"get\000"
 2319 0ca6 12       		.byte	0x12
 2320 0ca7 6E       		.byte	0x6e
 2321 0ca8 FF0A0000 		.4byte	0xaff
 2322 0cac 0C       		.byte	0xc
 2323 0cad 07       		.uleb128 0x7
 2324 0cae A3000000 		.4byte	.LASF177
 2325 0cb2 12       		.byte	0x12
 2326 0cb3 6E       		.byte	0x6e
 2327 0cb4 1E0B0000 		.4byte	0xb1e
 2328 0cb8 10       		.byte	0x10
 2329 0cb9 07       		.uleb128 0x7
 2330 0cba 31030000 		.4byte	.LASF178
 2331 0cbe 12       		.byte	0x12
 2332 0cbf 6E       		.byte	0x6e
 2333 0cc0 380B0000 		.4byte	0xb38
ARM GAS  C:\Users\IDONNO~1\AppData\Local\Temp\cctBsQvq.s 			page 42


 2334 0cc4 14       		.byte	0x14
 2335 0cc5 07       		.uleb128 0x7
 2336 0cc6 60000000 		.4byte	.LASF179
 2337 0cca 12       		.byte	0x12
 2338 0ccb 6E       		.byte	0x6e
 2339 0ccc 5C0B0000 		.4byte	0xb5c
 2340 0cd0 18       		.byte	0x18
 2341 0cd1 07       		.uleb128 0x7
 2342 0cd2 0E010000 		.4byte	.LASF180
 2343 0cd6 12       		.byte	0x12
 2344 0cd7 6E       		.byte	0x6e
 2345 0cd8 800B0000 		.4byte	0xb80
 2346 0cdc 1C       		.byte	0x1c
 2347 0cdd 00       		.byte	0
 2348 0cde 0A       		.uleb128 0xa
 2349 0cdf 04       		.byte	0x4
 2350 0ce0 E40C0000 		.4byte	0xce4
 2351 0ce4 18       		.uleb128 0x18
 2352 0ce5 710C0000 		.4byte	0xc71
 2353 0ce9 10       		.uleb128 0x10
 2354 0cea AD000000 		.4byte	0xad
 2355 0cee F90C0000 		.4byte	0xcf9
 2356 0cf2 11       		.uleb128 0x11
 2357 0cf3 95040000 		.4byte	0x495
 2358 0cf7 0F       		.byte	0xf
 2359 0cf8 00       		.byte	0
 2360 0cf9 0A       		.uleb128 0xa
 2361 0cfa 04       		.byte	0x4
 2362 0cfb AA060000 		.4byte	0x6aa
 2363 0cff 0A       		.uleb128 0xa
 2364 0d00 04       		.byte	0x4
 2365 0d01 820A0000 		.4byte	0xa82
 2366 0d05 1C       		.uleb128 0x1c
 2367 0d06 0D080000 		.4byte	.LASF187
 2368 0d0a 02       		.byte	0x2
 2369 0d0b 2002     		.2byte	0x220
 2370 0d0d 03       		.byte	0x3
 2371 0d0e 1F0D0000 		.4byte	0xd1f
 2372 0d12 1D       		.uleb128 0x1d
 2373 0d13 BA060000 		.4byte	.LASF189
 2374 0d17 02       		.byte	0x2
 2375 0d18 2002     		.2byte	0x220
 2376 0d1a CE000000 		.4byte	0xce
 2377 0d1e 00       		.byte	0
 2378 0d1f 1E       		.uleb128 0x1e
 2379 0d20 CF080000 		.4byte	.LASF181
 2380 0d24 0D       		.byte	0xd
 2381 0d25 BC01     		.2byte	0x1bc
 2382 0d27 03       		.byte	0x3
 2383 0d28 1E       		.uleb128 0x1e
 2384 0d29 58010000 		.4byte	.LASF182
 2385 0d2d 0D       		.byte	0xd
 2386 0d2e CA01     		.2byte	0x1ca
 2387 0d30 03       		.byte	0x3
 2388 0d31 1E       		.uleb128 0x1e
 2389 0d32 AE040000 		.4byte	.LASF183
 2390 0d36 0D       		.byte	0xd
ARM GAS  C:\Users\IDONNO~1\AppData\Local\Temp\cctBsQvq.s 			page 43


 2391 0d37 D901     		.2byte	0x1d9
 2392 0d39 03       		.byte	0x3
 2393 0d3a 1E       		.uleb128 0x1e
 2394 0d3b 1D060000 		.4byte	.LASF184
 2395 0d3f 0D       		.byte	0xd
 2396 0d40 E401     		.2byte	0x1e4
 2397 0d42 03       		.byte	0x3
 2398 0d43 1E       		.uleb128 0x1e
 2399 0d44 82010000 		.4byte	.LASF185
 2400 0d48 14       		.byte	0x14
 2401 0d49 8201     		.2byte	0x182
 2402 0d4b 03       		.byte	0x3
 2403 0d4c 1E       		.uleb128 0x1e
 2404 0d4d 26020000 		.4byte	.LASF186
 2405 0d51 14       		.byte	0x14
 2406 0d52 9601     		.2byte	0x196
 2407 0d54 03       		.byte	0x3
 2408 0d55 1C       		.uleb128 0x1c
 2409 0d56 A8090000 		.4byte	.LASF188
 2410 0d5a 03       		.byte	0x3
 2411 0d5b 4903     		.2byte	0x349
 2412 0d5d 03       		.byte	0x3
 2413 0d5e 7B0D0000 		.4byte	0xd7b
 2414 0d62 1F       		.uleb128 0x1f
 2415 0d63 65737000 		.ascii	"esp\000"
 2416 0d67 03       		.byte	0x3
 2417 0d68 4903     		.2byte	0x349
 2418 0d6a 7B0D0000 		.4byte	0xd7b
 2419 0d6e 1D       		.uleb128 0x1d
 2420 0d6f FC020000 		.4byte	.LASF190
 2421 0d73 03       		.byte	0x3
 2422 0d74 4A03     		.2byte	0x34a
 2423 0d76 46010000 		.4byte	0x146
 2424 0d7a 00       		.byte	0
 2425 0d7b 0A       		.uleb128 0xa
 2426 0d7c 04       		.byte	0x4
 2427 0d7d C7090000 		.4byte	0x9c7
 2428 0d81 1E       		.uleb128 0x1e
 2429 0d82 9E030000 		.4byte	.LASF191
 2430 0d86 03       		.byte	0x3
 2431 0d87 0C02     		.2byte	0x20c
 2432 0d89 03       		.byte	0x3
 2433 0d8a 1E       		.uleb128 0x1e
 2434 0d8b B8000000 		.4byte	.LASF192
 2435 0d8f 03       		.byte	0x3
 2436 0d90 0102     		.2byte	0x201
 2437 0d92 03       		.byte	0x3
 2438 0d93 20       		.uleb128 0x20
 2439 0d94 F4040000 		.4byte	.LASF213
 2440 0d98 04       		.byte	0x4
 2441 0d99 8201     		.2byte	0x182
 2442 0d9b 860B0000 		.4byte	0xb86
 2443 0d9f 03       		.byte	0x3
 2444 0da0 B10D0000 		.4byte	0xdb1
 2445 0da4 1F       		.uleb128 0x1f
 2446 0da5 6F717000 		.ascii	"oqp\000"
 2447 0da9 04       		.byte	0x4
ARM GAS  C:\Users\IDONNO~1\AppData\Local\Temp\cctBsQvq.s 			page 44


 2448 0daa 8201     		.2byte	0x182
 2449 0dac FF0C0000 		.4byte	0xcff
 2450 0db0 00       		.byte	0
 2451 0db1 21       		.uleb128 0x21
 2452 0db2 4C040000 		.4byte	.LASF193
 2453 0db6 01       		.byte	0x1
 2454 0db7 79       		.byte	0x79
 2455 0db8 01       		.byte	0x1
 2456 0db9 C70D0000 		.4byte	0xdc7
 2457 0dbd 22       		.uleb128 0x22
 2458 0dbe 7500     		.ascii	"u\000"
 2459 0dc0 01       		.byte	0x1
 2460 0dc1 79       		.byte	0x79
 2461 0dc2 F90C0000 		.4byte	0xcf9
 2462 0dc6 00       		.byte	0
 2463 0dc7 21       		.uleb128 0x21
 2464 0dc8 CB000000 		.4byte	.LASF194
 2465 0dcc 01       		.byte	0x1
 2466 0dcd 86       		.byte	0x86
 2467 0dce 01       		.byte	0x1
 2468 0dcf F40D0000 		.4byte	0xdf4
 2469 0dd3 22       		.uleb128 0x22
 2470 0dd4 73647000 		.ascii	"sdp\000"
 2471 0dd8 01       		.byte	0x1
 2472 0dd9 86       		.byte	0x86
 2473 0dda F40D0000 		.4byte	0xdf4
 2474 0dde 22       		.uleb128 0x22
 2475 0ddf 737200   		.ascii	"sr\000"
 2476 0de2 01       		.byte	0x1
 2477 0de3 86       		.byte	0x86
 2478 0de4 B8000000 		.4byte	0xb8
 2479 0de8 23       		.uleb128 0x23
 2480 0de9 73747300 		.ascii	"sts\000"
 2481 0ded 01       		.byte	0x1
 2482 0dee 87       		.byte	0x87
 2483 0def 46010000 		.4byte	0x146
 2484 0df3 00       		.byte	0
 2485 0df4 0A       		.uleb128 0xa
 2486 0df5 04       		.byte	0x4
 2487 0df6 B70B0000 		.4byte	0xbb7
 2488 0dfa 21       		.uleb128 0x21
 2489 0dfb A8000000 		.4byte	.LASF195
 2490 0dff 01       		.byte	0x1
 2491 0e00 99       		.byte	0x99
 2492 0e01 01       		.byte	0x1
 2493 0e02 4A0E0000 		.4byte	0xe4a
 2494 0e06 22       		.uleb128 0x22
 2495 0e07 73647000 		.ascii	"sdp\000"
 2496 0e0b 01       		.byte	0x1
 2497 0e0c 99       		.byte	0x99
 2498 0e0d F40D0000 		.4byte	0xdf4
 2499 0e11 23       		.uleb128 0x23
 2500 0e12 7500     		.ascii	"u\000"
 2501 0e14 01       		.byte	0x1
 2502 0e15 9A       		.byte	0x9a
 2503 0e16 F90C0000 		.4byte	0xcf9
 2504 0e1a 23       		.uleb128 0x23
ARM GAS  C:\Users\IDONNO~1\AppData\Local\Temp\cctBsQvq.s 			page 45


 2505 0e1b 63723100 		.ascii	"cr1\000"
 2506 0e1f 01       		.byte	0x1
 2507 0e20 9B       		.byte	0x9b
 2508 0e21 B8000000 		.4byte	0xb8
 2509 0e25 23       		.uleb128 0x23
 2510 0e26 737200   		.ascii	"sr\000"
 2511 0e29 01       		.byte	0x1
 2512 0e2a 9C       		.byte	0x9c
 2513 0e2b B8000000 		.4byte	0xb8
 2514 0e2f 24       		.uleb128 0x24
 2515 0e30 3E0E0000 		.4byte	0xe3e
 2516 0e34 23       		.uleb128 0x23
 2517 0e35 6200     		.ascii	"b\000"
 2518 0e37 01       		.byte	0x1
 2519 0e38 AA       		.byte	0xaa
 2520 0e39 AD000000 		.4byte	0xad
 2521 0e3d 00       		.byte	0
 2522 0e3e 25       		.uleb128 0x25
 2523 0e3f 23       		.uleb128 0x23
 2524 0e40 6200     		.ascii	"b\000"
 2525 0e42 01       		.byte	0x1
 2526 0e43 B8       		.byte	0xb8
 2527 0e44 30010000 		.4byte	0x130
 2528 0e48 00       		.byte	0
 2529 0e49 00       		.byte	0
 2530 0e4a 26       		.uleb128 0x26
 2531 0e4b E1080000 		.4byte	.LASF214
 2532 0e4f 01       		.byte	0x1
 2533 0e50 D0       		.byte	0xd0
 2534 0e51 00000000 		.4byte	.LFB260
 2535 0e55 10000000 		.4byte	.LFE260-.LFB260
 2536 0e59 01       		.uleb128 0x1
 2537 0e5a 9C       		.byte	0x9c
 2538 0e5b 6C0E0000 		.4byte	0xe6c
 2539 0e5f 27       		.uleb128 0x27
 2540 0e60 717000   		.ascii	"qp\000"
 2541 0e63 01       		.byte	0x1
 2542 0e64 D0       		.byte	0xd0
 2543 0e65 660A0000 		.4byte	0xa66
 2544 0e69 01       		.uleb128 0x1
 2545 0e6a 50       		.byte	0x50
 2546 0e6b 00       		.byte	0
 2547 0e6c 28       		.uleb128 0x28
 2548 0e6d 91090000 		.4byte	.LASF196
 2549 0e71 01       		.byte	0x1
 2550 0e72 0C01     		.2byte	0x10c
 2551 0e74 00000000 		.4byte	.LFB261
 2552 0e78 1C010000 		.4byte	.LFE261-.LFB261
 2553 0e7c 01       		.uleb128 0x1
 2554 0e7d 9C       		.byte	0x9c
 2555 0e7e 59130000 		.4byte	0x1359
 2556 0e82 29       		.uleb128 0x29
 2557 0e83 FA0D0000 		.4byte	0xdfa
 2558 0e87 02000000 		.4byte	.LBB230
 2559 0e8b 00000000 		.4byte	.Ldebug_ranges0+0
 2560 0e8f 01       		.byte	0x1
 2561 0e90 1001     		.2byte	0x110
ARM GAS  C:\Users\IDONNO~1\AppData\Local\Temp\cctBsQvq.s 			page 46


 2562 0e92 4F130000 		.4byte	0x134f
 2563 0e96 2A       		.uleb128 0x2a
 2564 0e97 060E0000 		.4byte	0xe06
 2565 0e9b 00000000 		.4byte	.LLST0
 2566 0e9f 2B       		.uleb128 0x2b
 2567 0ea0 00000000 		.4byte	.Ldebug_ranges0+0
 2568 0ea4 2C       		.uleb128 0x2c
 2569 0ea5 110E0000 		.4byte	0xe11
 2570 0ea9 28000000 		.4byte	.LLST1
 2571 0ead 2C       		.uleb128 0x2c
 2572 0eae 1A0E0000 		.4byte	0xe1a
 2573 0eb2 46000000 		.4byte	.LLST2
 2574 0eb6 2C       		.uleb128 0x2c
 2575 0eb7 250E0000 		.4byte	0xe25
 2576 0ebb 64000000 		.4byte	.LLST3
 2577 0ebf 2D       		.uleb128 0x2d
 2578 0ec0 8A0D0000 		.4byte	0xd8a
 2579 0ec4 10000000 		.4byte	.LBB232
 2580 0ec8 06000000 		.4byte	.LBE232-.LBB232
 2581 0ecc 01       		.byte	0x1
 2582 0ecd A7       		.byte	0xa7
 2583 0ece 200F0000 		.4byte	0xf20
 2584 0ed2 2E       		.uleb128 0x2e
 2585 0ed3 430D0000 		.4byte	0xd43
 2586 0ed7 10000000 		.4byte	.LBB233
 2587 0edb 06000000 		.4byte	.LBE233-.LBB233
 2588 0edf 03       		.byte	0x3
 2589 0ee0 0302     		.2byte	0x203
 2590 0ee2 2E       		.uleb128 0x2e
 2591 0ee3 310D0000 		.4byte	0xd31
 2592 0ee7 10000000 		.4byte	.LBB234
 2593 0eeb 06000000 		.4byte	.LBE234-.LBB234
 2594 0eef 14       		.byte	0x14
 2595 0ef0 8401     		.2byte	0x184
 2596 0ef2 2E       		.uleb128 0x2e
 2597 0ef3 1F0D0000 		.4byte	0xd1f
 2598 0ef7 10000000 		.4byte	.LBB235
 2599 0efb 06000000 		.4byte	.LBE235-.LBB235
 2600 0eff 0D       		.byte	0xd
 2601 0f00 DB01     		.2byte	0x1db
 2602 0f02 2E       		.uleb128 0x2e
 2603 0f03 050D0000 		.4byte	0xd05
 2604 0f07 10000000 		.4byte	.LBB236
 2605 0f0b 06000000 		.4byte	.LBE236-.LBB236
 2606 0f0f 0D       		.byte	0xd
 2607 0f10 BF01     		.2byte	0x1bf
 2608 0f12 2A       		.uleb128 0x2a
 2609 0f13 120D0000 		.4byte	0xd12
 2610 0f17 98000000 		.4byte	.LLST4
 2611 0f1b 00       		.byte	0
 2612 0f1c 00       		.byte	0
 2613 0f1d 00       		.byte	0
 2614 0f1e 00       		.byte	0
 2615 0f1f 00       		.byte	0
 2616 0f20 2F       		.uleb128 0x2f
 2617 0f21 18000000 		.4byte	.Ldebug_ranges0+0x18
 2618 0f25 B10F0000 		.4byte	0xfb1
ARM GAS  C:\Users\IDONNO~1\AppData\Local\Temp\cctBsQvq.s 			page 47


 2619 0f29 2C       		.uleb128 0x2c
 2620 0f2a 340E0000 		.4byte	0xe34
 2621 0f2e AD000000 		.4byte	.LLST5
 2622 0f32 2D       		.uleb128 0x2d
 2623 0f33 C70D0000 		.4byte	0xdc7
 2624 0f37 32000000 		.4byte	.LBB239
 2625 0f3b 28000000 		.4byte	.LBE239-.LBB239
 2626 0f3f 01       		.byte	0x1
 2627 0f40 AE       		.byte	0xae
 2628 0f41 A00F0000 		.4byte	0xfa0
 2629 0f45 2A       		.uleb128 0x2a
 2630 0f46 D30D0000 		.4byte	0xdd3
 2631 0f4a CB000000 		.4byte	.LLST6
 2632 0f4e 2A       		.uleb128 0x2a
 2633 0f4f DE0D0000 		.4byte	0xdde
 2634 0f53 E3000000 		.4byte	.LLST7
 2635 0f57 30       		.uleb128 0x30
 2636 0f58 32000000 		.4byte	.LBB240
 2637 0f5c 28000000 		.4byte	.LBE240-.LBB240
 2638 0f60 2C       		.uleb128 0x2c
 2639 0f61 E80D0000 		.4byte	0xde8
 2640 0f65 F6000000 		.4byte	.LLST8
 2641 0f69 31       		.uleb128 0x31
 2642 0f6a 550D0000 		.4byte	0xd55
 2643 0f6e 54000000 		.4byte	.LBB241
 2644 0f72 06000000 		.4byte	.LBE241-.LBB241
 2645 0f76 01       		.byte	0x1
 2646 0f77 91       		.byte	0x91
 2647 0f78 2A       		.uleb128 0x2a
 2648 0f79 6E0D0000 		.4byte	0xd6e
 2649 0f7d 15010000 		.4byte	.LLST9
 2650 0f81 2A       		.uleb128 0x2a
 2651 0f82 620D0000 		.4byte	0xd62
 2652 0f86 28010000 		.4byte	.LLST10
 2653 0f8a 32       		.uleb128 0x32
 2654 0f8b 5A000000 		.4byte	.LVL16
 2655 0f8f D5140000 		.4byte	0x14d5
 2656 0f93 33       		.uleb128 0x33
 2657 0f94 01       		.uleb128 0x1
 2658 0f95 50       		.byte	0x50
 2659 0f96 05       		.uleb128 0x5
 2660 0f97 03       		.byte	0x3
 2661 0f98 04000000 		.4byte	.LANCHOR0+4
 2662 0f9c 00       		.byte	0
 2663 0f9d 00       		.byte	0
 2664 0f9e 00       		.byte	0
 2665 0f9f 00       		.byte	0
 2666 0fa0 32       		.uleb128 0x32
 2667 0fa1 68000000 		.4byte	.LVL19
 2668 0fa5 E0140000 		.4byte	0x14e0
 2669 0fa9 33       		.uleb128 0x33
 2670 0faa 01       		.uleb128 0x1
 2671 0fab 50       		.byte	0x50
 2672 0fac 02       		.uleb128 0x2
 2673 0fad 76       		.byte	0x76
 2674 0fae 00       		.sleb128 0
 2675 0faf 00       		.byte	0
ARM GAS  C:\Users\IDONNO~1\AppData\Local\Temp\cctBsQvq.s 			page 48


 2676 0fb0 00       		.byte	0
 2677 0fb1 2D       		.uleb128 0x2d
 2678 0fb2 810D0000 		.4byte	0xd81
 2679 0fb6 72000000 		.4byte	.LBB244
 2680 0fba 06000000 		.4byte	.LBE244-.LBB244
 2681 0fbe 01       		.byte	0x1
 2682 0fbf B4       		.byte	0xb4
 2683 0fc0 12100000 		.4byte	0x1012
 2684 0fc4 2E       		.uleb128 0x2e
 2685 0fc5 4C0D0000 		.4byte	0xd4c
 2686 0fc9 72000000 		.4byte	.LBB245
 2687 0fcd 06000000 		.4byte	.LBE245-.LBB245
 2688 0fd1 03       		.byte	0x3
 2689 0fd2 0E02     		.2byte	0x20e
 2690 0fd4 2E       		.uleb128 0x2e
 2691 0fd5 3A0D0000 		.4byte	0xd3a
 2692 0fd9 72000000 		.4byte	.LBB246
 2693 0fdd 06000000 		.4byte	.LBE246-.LBB246
 2694 0fe1 14       		.byte	0x14
 2695 0fe2 9A01     		.2byte	0x19a
 2696 0fe4 2E       		.uleb128 0x2e
 2697 0fe5 280D0000 		.4byte	0xd28
 2698 0fe9 72000000 		.4byte	.LBB247
 2699 0fed 06000000 		.4byte	.LBE247-.LBB247
 2700 0ff1 0D       		.byte	0xd
 2701 0ff2 E601     		.2byte	0x1e6
 2702 0ff4 2E       		.uleb128 0x2e
 2703 0ff5 050D0000 		.4byte	0xd05
 2704 0ff9 72000000 		.4byte	.LBB248
 2705 0ffd 06000000 		.4byte	.LBE248-.LBB248
 2706 1001 0D       		.byte	0xd
 2707 1002 CD01     		.2byte	0x1cd
 2708 1004 2A       		.uleb128 0x2a
 2709 1005 120D0000 		.4byte	0xd12
 2710 1009 40010000 		.4byte	.LLST11
 2711 100d 00       		.byte	0
 2712 100e 00       		.byte	0
 2713 100f 00       		.byte	0
 2714 1010 00       		.byte	0
 2715 1011 00       		.byte	0
 2716 1012 2D       		.uleb128 0x2d
 2717 1013 8A0D0000 		.4byte	0xd8a
 2718 1017 84000000 		.4byte	.LBB250
 2719 101b 06000000 		.4byte	.LBE250-.LBB250
 2720 101f 01       		.byte	0x1
 2721 1020 C6       		.byte	0xc6
 2722 1021 73100000 		.4byte	0x1073
 2723 1025 2E       		.uleb128 0x2e
 2724 1026 430D0000 		.4byte	0xd43
 2725 102a 84000000 		.4byte	.LBB251
 2726 102e 06000000 		.4byte	.LBE251-.LBB251
 2727 1032 03       		.byte	0x3
 2728 1033 0302     		.2byte	0x203
 2729 1035 2E       		.uleb128 0x2e
 2730 1036 310D0000 		.4byte	0xd31
 2731 103a 84000000 		.4byte	.LBB252
 2732 103e 06000000 		.4byte	.LBE252-.LBB252
ARM GAS  C:\Users\IDONNO~1\AppData\Local\Temp\cctBsQvq.s 			page 49


 2733 1042 14       		.byte	0x14
 2734 1043 8401     		.2byte	0x184
 2735 1045 2E       		.uleb128 0x2e
 2736 1046 1F0D0000 		.4byte	0xd1f
 2737 104a 84000000 		.4byte	.LBB253
 2738 104e 06000000 		.4byte	.LBE253-.LBB253
 2739 1052 0D       		.byte	0xd
 2740 1053 DB01     		.2byte	0x1db
 2741 1055 2E       		.uleb128 0x2e
 2742 1056 050D0000 		.4byte	0xd05
 2743 105a 84000000 		.4byte	.LBB254
 2744 105e 06000000 		.4byte	.LBE254-.LBB254
 2745 1062 0D       		.byte	0xd
 2746 1063 BF01     		.2byte	0x1bf
 2747 1065 2A       		.uleb128 0x2a
 2748 1066 120D0000 		.4byte	0xd12
 2749 106a 54010000 		.4byte	.LLST12
 2750 106e 00       		.byte	0
 2751 106f 00       		.byte	0
 2752 1070 00       		.byte	0
 2753 1071 00       		.byte	0
 2754 1072 00       		.byte	0
 2755 1073 34       		.uleb128 0x34
 2756 1074 930D0000 		.4byte	0xd93
 2757 1078 8A000000 		.4byte	.LBB256
 2758 107c 30000000 		.4byte	.Ldebug_ranges0+0x30
 2759 1080 01       		.byte	0x1
 2760 1081 C7       		.byte	0xc7
 2761 1082 90100000 		.4byte	0x1090
 2762 1086 2A       		.uleb128 0x2a
 2763 1087 A40D0000 		.4byte	0xda4
 2764 108b 69010000 		.4byte	.LLST13
 2765 108f 00       		.byte	0
 2766 1090 34       		.uleb128 0x34
 2767 1091 810D0000 		.4byte	0xd81
 2768 1095 A0000000 		.4byte	.LBB259
 2769 1099 48000000 		.4byte	.Ldebug_ranges0+0x48
 2770 109d 01       		.byte	0x1
 2771 109e CB       		.byte	0xcb
 2772 109f F1100000 		.4byte	0x10f1
 2773 10a3 35       		.uleb128 0x35
 2774 10a4 4C0D0000 		.4byte	0xd4c
 2775 10a8 A0000000 		.4byte	.LBB260
 2776 10ac 48000000 		.4byte	.Ldebug_ranges0+0x48
 2777 10b0 03       		.byte	0x3
 2778 10b1 0E02     		.2byte	0x20e
 2779 10b3 35       		.uleb128 0x35
 2780 10b4 3A0D0000 		.4byte	0xd3a
 2781 10b8 A0000000 		.4byte	.LBB261
 2782 10bc 48000000 		.4byte	.Ldebug_ranges0+0x48
 2783 10c0 14       		.byte	0x14
 2784 10c1 9A01     		.2byte	0x19a
 2785 10c3 35       		.uleb128 0x35
 2786 10c4 280D0000 		.4byte	0xd28
 2787 10c8 A0000000 		.4byte	.LBB262
 2788 10cc 48000000 		.4byte	.Ldebug_ranges0+0x48
 2789 10d0 0D       		.byte	0xd
ARM GAS  C:\Users\IDONNO~1\AppData\Local\Temp\cctBsQvq.s 			page 50


 2790 10d1 E601     		.2byte	0x1e6
 2791 10d3 35       		.uleb128 0x35
 2792 10d4 050D0000 		.4byte	0xd05
 2793 10d8 A0000000 		.4byte	.LBB263
 2794 10dc 48000000 		.4byte	.Ldebug_ranges0+0x48
 2795 10e0 0D       		.byte	0xd
 2796 10e1 CD01     		.2byte	0x1cd
 2797 10e3 2A       		.uleb128 0x2a
 2798 10e4 120D0000 		.4byte	0xd12
 2799 10e8 91010000 		.4byte	.LLST14
 2800 10ec 00       		.byte	0
 2801 10ed 00       		.byte	0
 2802 10ee 00       		.byte	0
 2803 10ef 00       		.byte	0
 2804 10f0 00       		.byte	0
 2805 10f1 2D       		.uleb128 0x2d
 2806 10f2 8A0D0000 		.4byte	0xd8a
 2807 10f6 B0000000 		.4byte	.LBB271
 2808 10fa 06000000 		.4byte	.LBE271-.LBB271
 2809 10fe 01       		.byte	0x1
 2810 10ff A0       		.byte	0xa0
 2811 1100 52110000 		.4byte	0x1152
 2812 1104 2E       		.uleb128 0x2e
 2813 1105 430D0000 		.4byte	0xd43
 2814 1109 B0000000 		.4byte	.LBB272
 2815 110d 06000000 		.4byte	.LBE272-.LBB272
 2816 1111 03       		.byte	0x3
 2817 1112 0302     		.2byte	0x203
 2818 1114 2E       		.uleb128 0x2e
 2819 1115 310D0000 		.4byte	0xd31
 2820 1119 B0000000 		.4byte	.LBB273
 2821 111d 06000000 		.4byte	.LBE273-.LBB273
 2822 1121 14       		.byte	0x14
 2823 1122 8401     		.2byte	0x184
 2824 1124 2E       		.uleb128 0x2e
 2825 1125 1F0D0000 		.4byte	0xd1f
 2826 1129 B0000000 		.4byte	.LBB274
 2827 112d 06000000 		.4byte	.LBE274-.LBB274
 2828 1131 0D       		.byte	0xd
 2829 1132 DB01     		.2byte	0x1db
 2830 1134 2E       		.uleb128 0x2e
 2831 1135 050D0000 		.4byte	0xd05
 2832 1139 B0000000 		.4byte	.LBB275
 2833 113d 06000000 		.4byte	.LBE275-.LBB275
 2834 1141 0D       		.byte	0xd
 2835 1142 BF01     		.2byte	0x1bf
 2836 1144 2A       		.uleb128 0x2a
 2837 1145 120D0000 		.4byte	0xd12
 2838 1149 A5010000 		.4byte	.LLST15
 2839 114d 00       		.byte	0
 2840 114e 00       		.byte	0
 2841 114f 00       		.byte	0
 2842 1150 00       		.byte	0
 2843 1151 00       		.byte	0
 2844 1152 2D       		.uleb128 0x2d
 2845 1153 550D0000 		.4byte	0xd55
 2846 1157 B6000000 		.4byte	.LBB277
ARM GAS  C:\Users\IDONNO~1\AppData\Local\Temp\cctBsQvq.s 			page 51


 2847 115b 0A000000 		.4byte	.LBE277-.LBB277
 2848 115f 01       		.byte	0x1
 2849 1160 A1       		.byte	0xa1
 2850 1161 8F110000 		.4byte	0x118f
 2851 1165 2A       		.uleb128 0x2a
 2852 1166 6E0D0000 		.4byte	0xd6e
 2853 116a BA010000 		.4byte	.LLST16
 2854 116e 2A       		.uleb128 0x2a
 2855 116f 620D0000 		.4byte	0xd62
 2856 1173 D0010000 		.4byte	.LLST17
 2857 1177 32       		.uleb128 0x32
 2858 1178 C0000000 		.4byte	.LVL32
 2859 117c D5140000 		.4byte	0x14d5
 2860 1180 33       		.uleb128 0x33
 2861 1181 01       		.uleb128 0x1
 2862 1182 50       		.byte	0x50
 2863 1183 02       		.uleb128 0x2
 2864 1184 76       		.byte	0x76
 2865 1185 04       		.sleb128 4
 2866 1186 33       		.uleb128 0x33
 2867 1187 01       		.uleb128 0x1
 2868 1188 51       		.byte	0x51
 2869 1189 03       		.uleb128 0x3
 2870 118a 0A       		.byte	0xa
 2871 118b 0002     		.2byte	0x200
 2872 118d 00       		.byte	0
 2873 118e 00       		.byte	0
 2874 118f 2D       		.uleb128 0x2d
 2875 1190 810D0000 		.4byte	0xd81
 2876 1194 C6000000 		.4byte	.LBB279
 2877 1198 08000000 		.4byte	.LBE279-.LBB279
 2878 119c 01       		.byte	0x1
 2879 119d A3       		.byte	0xa3
 2880 119e F0110000 		.4byte	0x11f0
 2881 11a2 2E       		.uleb128 0x2e
 2882 11a3 4C0D0000 		.4byte	0xd4c
 2883 11a7 C6000000 		.4byte	.LBB280
 2884 11ab 08000000 		.4byte	.LBE280-.LBB280
 2885 11af 03       		.byte	0x3
 2886 11b0 0E02     		.2byte	0x20e
 2887 11b2 2E       		.uleb128 0x2e
 2888 11b3 3A0D0000 		.4byte	0xd3a
 2889 11b7 C6000000 		.4byte	.LBB281
 2890 11bb 08000000 		.4byte	.LBE281-.LBB281
 2891 11bf 14       		.byte	0x14
 2892 11c0 9A01     		.2byte	0x19a
 2893 11c2 2E       		.uleb128 0x2e
 2894 11c3 280D0000 		.4byte	0xd28
 2895 11c7 C6000000 		.4byte	.LBB282
 2896 11cb 08000000 		.4byte	.LBE282-.LBB282
 2897 11cf 0D       		.byte	0xd
 2898 11d0 E601     		.2byte	0x1e6
 2899 11d2 2E       		.uleb128 0x2e
 2900 11d3 050D0000 		.4byte	0xd05
 2901 11d7 C6000000 		.4byte	.LBB283
 2902 11db 08000000 		.4byte	.LBE283-.LBB283
 2903 11df 0D       		.byte	0xd
ARM GAS  C:\Users\IDONNO~1\AppData\Local\Temp\cctBsQvq.s 			page 52


 2904 11e0 CD01     		.2byte	0x1cd
 2905 11e2 2A       		.uleb128 0x2a
 2906 11e3 120D0000 		.4byte	0xd12
 2907 11e7 E8010000 		.4byte	.LLST18
 2908 11eb 00       		.byte	0
 2909 11ec 00       		.byte	0
 2910 11ed 00       		.byte	0
 2911 11ee 00       		.byte	0
 2912 11ef 00       		.byte	0
 2913 11f0 2F       		.uleb128 0x2f
 2914 11f1 60000000 		.4byte	.Ldebug_ranges0+0x60
 2915 11f5 16130000 		.4byte	0x1316
 2916 11f9 2C       		.uleb128 0x2c
 2917 11fa 3F0E0000 		.4byte	0xe3f
 2918 11fe FC010000 		.4byte	.LLST19
 2919 1202 2D       		.uleb128 0x2d
 2920 1203 8A0D0000 		.4byte	0xd8a
 2921 1207 CE000000 		.4byte	.LBB286
 2922 120b 06000000 		.4byte	.LBE286-.LBB286
 2923 120f 01       		.byte	0x1
 2924 1210 B9       		.byte	0xb9
 2925 1211 63120000 		.4byte	0x1263
 2926 1215 2E       		.uleb128 0x2e
 2927 1216 430D0000 		.4byte	0xd43
 2928 121a CE000000 		.4byte	.LBB287
 2929 121e 06000000 		.4byte	.LBE287-.LBB287
 2930 1222 03       		.byte	0x3
 2931 1223 0302     		.2byte	0x203
 2932 1225 2E       		.uleb128 0x2e
 2933 1226 310D0000 		.4byte	0xd31
 2934 122a CE000000 		.4byte	.LBB288
 2935 122e 06000000 		.4byte	.LBE288-.LBB288
 2936 1232 14       		.byte	0x14
 2937 1233 8401     		.2byte	0x184
 2938 1235 2E       		.uleb128 0x2e
 2939 1236 1F0D0000 		.4byte	0xd1f
 2940 123a CE000000 		.4byte	.LBB289
 2941 123e 06000000 		.4byte	.LBE289-.LBB289
 2942 1242 0D       		.byte	0xd
 2943 1243 DB01     		.2byte	0x1db
 2944 1245 2E       		.uleb128 0x2e
 2945 1246 050D0000 		.4byte	0xd05
 2946 124a CE000000 		.4byte	.LBB290
 2947 124e 06000000 		.4byte	.LBE290-.LBB290
 2948 1252 0D       		.byte	0xd
 2949 1253 BF01     		.2byte	0x1bf
 2950 1255 2A       		.uleb128 0x2a
 2951 1256 120D0000 		.4byte	0xd12
 2952 125a 1A020000 		.4byte	.LLST20
 2953 125e 00       		.byte	0
 2954 125f 00       		.byte	0
 2955 1260 00       		.byte	0
 2956 1261 00       		.byte	0
 2957 1262 00       		.byte	0
 2958 1263 2D       		.uleb128 0x2d
 2959 1264 810D0000 		.4byte	0xd81
 2960 1268 E0000000 		.4byte	.LBB292
ARM GAS  C:\Users\IDONNO~1\AppData\Local\Temp\cctBsQvq.s 			page 53


 2961 126c 08000000 		.4byte	.LBE292-.LBB292
 2962 1270 01       		.byte	0x1
 2963 1271 C1       		.byte	0xc1
 2964 1272 C4120000 		.4byte	0x12c4
 2965 1276 2E       		.uleb128 0x2e
 2966 1277 4C0D0000 		.4byte	0xd4c
 2967 127b E0000000 		.4byte	.LBB293
 2968 127f 08000000 		.4byte	.LBE293-.LBB293
 2969 1283 03       		.byte	0x3
 2970 1284 0E02     		.2byte	0x20e
 2971 1286 2E       		.uleb128 0x2e
 2972 1287 3A0D0000 		.4byte	0xd3a
 2973 128b E0000000 		.4byte	.LBB294
 2974 128f 08000000 		.4byte	.LBE294-.LBB294
 2975 1293 14       		.byte	0x14
 2976 1294 9A01     		.2byte	0x19a
 2977 1296 2E       		.uleb128 0x2e
 2978 1297 280D0000 		.4byte	0xd28
 2979 129b E0000000 		.4byte	.LBB295
 2980 129f 08000000 		.4byte	.LBE295-.LBB295
 2981 12a3 0D       		.byte	0xd
 2982 12a4 E601     		.2byte	0x1e6
 2983 12a6 2E       		.uleb128 0x2e
 2984 12a7 050D0000 		.4byte	0xd05
 2985 12ab E0000000 		.4byte	.LBB296
 2986 12af 08000000 		.4byte	.LBE296-.LBB296
 2987 12b3 0D       		.byte	0xd
 2988 12b4 CD01     		.2byte	0x1cd
 2989 12b6 2A       		.uleb128 0x2a
 2990 12b7 120D0000 		.4byte	0xd12
 2991 12bb 2F020000 		.4byte	.LLST21
 2992 12bf 00       		.byte	0
 2993 12c0 00       		.byte	0
 2994 12c1 00       		.byte	0
 2995 12c2 00       		.byte	0
 2996 12c3 00       		.byte	0
 2997 12c4 2D       		.uleb128 0x2d
 2998 12c5 550D0000 		.4byte	0xd55
 2999 12c9 F8000000 		.4byte	.LBB298
 3000 12cd 08000000 		.4byte	.LBE298-.LBB298
 3001 12d1 01       		.byte	0x1
 3002 12d2 BC       		.byte	0xbc
 3003 12d3 02130000 		.4byte	0x1302
 3004 12d7 2A       		.uleb128 0x2a
 3005 12d8 6E0D0000 		.4byte	0xd6e
 3006 12dc 43020000 		.4byte	.LLST22
 3007 12e0 2A       		.uleb128 0x2a
 3008 12e1 620D0000 		.4byte	0xd62
 3009 12e5 57020000 		.4byte	.LLST23
 3010 12e9 32       		.uleb128 0x32
 3011 12ea 00010000 		.4byte	.LVL45
 3012 12ee D5140000 		.4byte	0x14d5
 3013 12f2 33       		.uleb128 0x33
 3014 12f3 01       		.uleb128 0x1
 3015 12f4 50       		.byte	0x50
 3016 12f5 05       		.uleb128 0x5
 3017 12f6 03       		.byte	0x3
ARM GAS  C:\Users\IDONNO~1\AppData\Local\Temp\cctBsQvq.s 			page 54


 3018 12f7 04000000 		.4byte	.LANCHOR0+4
 3019 12fb 33       		.uleb128 0x33
 3020 12fc 01       		.uleb128 0x1
 3021 12fd 51       		.byte	0x51
 3022 12fe 01       		.uleb128 0x1
 3023 12ff 38       		.byte	0x38
 3024 1300 00       		.byte	0
 3025 1301 00       		.byte	0
 3026 1302 32       		.uleb128 0x32
 3027 1303 DA000000 		.4byte	.LVL37
 3028 1307 EC140000 		.4byte	0x14ec
 3029 130b 33       		.uleb128 0x33
 3030 130c 01       		.uleb128 0x1
 3031 130d 50       		.byte	0x50
 3032 130e 05       		.uleb128 0x5
 3033 130f 03       		.byte	0x3
 3034 1310 30000000 		.4byte	.LANCHOR0+48
 3035 1314 00       		.byte	0
 3036 1315 00       		.byte	0
 3037 1316 31       		.uleb128 0x31
 3038 1317 550D0000 		.4byte	0xd55
 3039 131b EE000000 		.4byte	.LBB301
 3040 131f 0A000000 		.4byte	.LBE301-.LBB301
 3041 1323 01       		.byte	0x1
 3042 1324 C8       		.byte	0xc8
 3043 1325 2A       		.uleb128 0x2a
 3044 1326 6E0D0000 		.4byte	0xd6e
 3045 132a 6F020000 		.4byte	.LLST24
 3046 132e 2A       		.uleb128 0x2a
 3047 132f 620D0000 		.4byte	0xd62
 3048 1333 83020000 		.4byte	.LLST25
 3049 1337 32       		.uleb128 0x32
 3050 1338 F6000000 		.4byte	.LVL42
 3051 133c D5140000 		.4byte	0x14d5
 3052 1340 33       		.uleb128 0x33
 3053 1341 01       		.uleb128 0x1
 3054 1342 50       		.byte	0x50
 3055 1343 02       		.uleb128 0x2
 3056 1344 76       		.byte	0x76
 3057 1345 04       		.sleb128 4
 3058 1346 33       		.uleb128 0x33
 3059 1347 01       		.uleb128 0x1
 3060 1348 51       		.byte	0x51
 3061 1349 01       		.uleb128 0x1
 3062 134a 40       		.byte	0x40
 3063 134b 00       		.byte	0
 3064 134c 00       		.byte	0
 3065 134d 00       		.byte	0
 3066 134e 00       		.byte	0
 3067 134f 36       		.uleb128 0x36
 3068 1350 B0000000 		.4byte	.LVL30
 3069 1354 F7140000 		.4byte	0x14f7
 3070 1358 00       		.byte	0
 3071 1359 28       		.uleb128 0x28
 3072 135a 69040000 		.4byte	.LASF197
 3073 135e 01       		.byte	0x1
 3074 135f 7E01     		.2byte	0x17e
ARM GAS  C:\Users\IDONNO~1\AppData\Local\Temp\cctBsQvq.s 			page 55


 3075 1361 00000000 		.4byte	.LFB262
 3076 1365 20000000 		.4byte	.LFE262-.LFB262
 3077 1369 01       		.uleb128 0x1
 3078 136a 9C       		.byte	0x9c
 3079 136b 8E130000 		.4byte	0x138e
 3080 136f 32       		.uleb128 0x32
 3081 1370 0E000000 		.4byte	.LVL46
 3082 1374 03150000 		.4byte	0x1503
 3083 1378 33       		.uleb128 0x33
 3084 1379 01       		.uleb128 0x1
 3085 137a 50       		.byte	0x50
 3086 137b 02       		.uleb128 0x2
 3087 137c 74       		.byte	0x74
 3088 137d 00       		.sleb128 0
 3089 137e 33       		.uleb128 0x33
 3090 137f 01       		.uleb128 0x1
 3091 1380 51       		.byte	0x51
 3092 1381 01       		.uleb128 0x1
 3093 1382 30       		.byte	0x30
 3094 1383 33       		.uleb128 0x33
 3095 1384 01       		.uleb128 0x1
 3096 1385 52       		.byte	0x52
 3097 1386 05       		.uleb128 0x5
 3098 1387 03       		.byte	0x3
 3099 1388 00000000 		.4byte	notify1
 3100 138c 00       		.byte	0
 3101 138d 00       		.byte	0
 3102 138e 21       		.uleb128 0x21
 3103 138f 44060000 		.4byte	.LASF198
 3104 1393 01       		.byte	0x1
 3105 1394 5B       		.byte	0x5b
 3106 1395 01       		.byte	0x1
 3107 1396 BA130000 		.4byte	0x13ba
 3108 139a 22       		.uleb128 0x22
 3109 139b 73647000 		.ascii	"sdp\000"
 3110 139f 01       		.byte	0x1
 3111 13a0 5B       		.byte	0x5b
 3112 13a1 F40D0000 		.4byte	0xdf4
 3113 13a5 37       		.uleb128 0x37
 3114 13a6 96000000 		.4byte	.LASF199
 3115 13aa 01       		.byte	0x1
 3116 13ab 5B       		.byte	0x5b
 3117 13ac BA130000 		.4byte	0x13ba
 3118 13b0 23       		.uleb128 0x23
 3119 13b1 7500     		.ascii	"u\000"
 3120 13b3 01       		.byte	0x1
 3121 13b4 5C       		.byte	0x5c
 3122 13b5 F90C0000 		.4byte	0xcf9
 3123 13b9 00       		.byte	0
 3124 13ba 0A       		.uleb128 0xa
 3125 13bb 04       		.byte	0x4
 3126 13bc C0130000 		.4byte	0x13c0
 3127 13c0 18       		.uleb128 0x18
 3128 13c1 660C0000 		.4byte	0xc66
 3129 13c5 28       		.uleb128 0x28
 3130 13c6 14010000 		.4byte	.LASF200
 3131 13ca 01       		.byte	0x1
ARM GAS  C:\Users\IDONNO~1\AppData\Local\Temp\cctBsQvq.s 			page 56


 3132 13cb A901     		.2byte	0x1a9
 3133 13cd 00000000 		.4byte	.LFB263
 3134 13d1 98000000 		.4byte	.LFE263-.LFB263
 3135 13d5 01       		.uleb128 0x1
 3136 13d6 9C       		.byte	0x9c
 3137 13d7 47140000 		.4byte	0x1447
 3138 13db 38       		.uleb128 0x38
 3139 13dc 73647000 		.ascii	"sdp\000"
 3140 13e0 01       		.byte	0x1
 3141 13e1 A901     		.2byte	0x1a9
 3142 13e3 F40D0000 		.4byte	0xdf4
 3143 13e7 9B020000 		.4byte	.LLST26
 3144 13eb 39       		.uleb128 0x39
 3145 13ec 96000000 		.4byte	.LASF199
 3146 13f0 01       		.byte	0x1
 3147 13f1 A901     		.2byte	0x1a9
 3148 13f3 BA130000 		.4byte	0x13ba
 3149 13f7 CF020000 		.4byte	.LLST27
 3150 13fb 29       		.uleb128 0x29
 3151 13fc 8E130000 		.4byte	0x138e
 3152 1400 12000000 		.4byte	.LBB308
 3153 1404 78000000 		.4byte	.Ldebug_ranges0+0x78
 3154 1408 01       		.byte	0x1
 3155 1409 D401     		.2byte	0x1d4
 3156 140b 31140000 		.4byte	0x1431
 3157 140f 2A       		.uleb128 0x2a
 3158 1410 A5130000 		.4byte	0x13a5
 3159 1414 15030000 		.4byte	.LLST28
 3160 1418 2A       		.uleb128 0x2a
 3161 1419 9A130000 		.4byte	0x139a
 3162 141d 50030000 		.4byte	.LLST29
 3163 1421 2B       		.uleb128 0x2b
 3164 1422 78000000 		.4byte	.Ldebug_ranges0+0x78
 3165 1426 2C       		.uleb128 0x2c
 3166 1427 B0130000 		.4byte	0x13b0
 3167 142b 6E030000 		.4byte	.LLST30
 3168 142f 00       		.byte	0
 3169 1430 00       		.byte	0
 3170 1431 32       		.uleb128 0x32
 3171 1432 70000000 		.4byte	.LVL55
 3172 1436 0F150000 		.4byte	0x150f
 3173 143a 33       		.uleb128 0x33
 3174 143b 01       		.uleb128 0x1
 3175 143c 50       		.byte	0x50
 3176 143d 02       		.uleb128 0x2
 3177 143e 08       		.byte	0x8
 3178 143f 25       		.byte	0x25
 3179 1440 33       		.uleb128 0x33
 3180 1441 01       		.uleb128 0x1
 3181 1442 51       		.byte	0x51
 3182 1443 01       		.uleb128 0x1
 3183 1444 3C       		.byte	0x3c
 3184 1445 00       		.byte	0
 3185 1446 00       		.byte	0
 3186 1447 28       		.uleb128 0x28
 3187 1448 EA090000 		.4byte	.LASF201
 3188 144c 01       		.byte	0x1
ARM GAS  C:\Users\IDONNO~1\AppData\Local\Temp\cctBsQvq.s 			page 57


 3189 144d E001     		.2byte	0x1e0
 3190 144f 00000000 		.4byte	.LFB264
 3191 1453 30000000 		.4byte	.LFE264-.LFB264
 3192 1457 01       		.uleb128 0x1
 3193 1458 9C       		.byte	0x9c
 3194 1459 9C140000 		.4byte	0x149c
 3195 145d 38       		.uleb128 0x38
 3196 145e 73647000 		.ascii	"sdp\000"
 3197 1462 01       		.byte	0x1
 3198 1463 E001     		.2byte	0x1e0
 3199 1465 F40D0000 		.4byte	0xdf4
 3200 1469 8C030000 		.4byte	.LLST31
 3201 146d 29       		.uleb128 0x29
 3202 146e B10D0000 		.4byte	0xdb1
 3203 1472 0C000000 		.4byte	.LBB312
 3204 1476 90000000 		.4byte	.Ldebug_ranges0+0x90
 3205 147a 01       		.byte	0x1
 3206 147b E301     		.2byte	0x1e3
 3207 147d 8B140000 		.4byte	0x148b
 3208 1481 2A       		.uleb128 0x2a
 3209 1482 BD0D0000 		.4byte	0xdbd
 3210 1486 AD030000 		.4byte	.LLST32
 3211 148a 00       		.byte	0
 3212 148b 3A       		.uleb128 0x3a
 3213 148c 28000000 		.4byte	.LVL61
 3214 1490 1A150000 		.4byte	0x151a
 3215 1494 33       		.uleb128 0x33
 3216 1495 01       		.uleb128 0x1
 3217 1496 50       		.byte	0x50
 3218 1497 02       		.uleb128 0x2
 3219 1498 08       		.byte	0x8
 3220 1499 25       		.byte	0x25
 3221 149a 00       		.byte	0
 3222 149b 00       		.byte	0
 3223 149c 3B       		.uleb128 0x3b
 3224 149d 73010000 		.4byte	.LASF215
 3225 14a1 01       		.byte	0x1
 3226 14a2 48       		.byte	0x48
 3227 14a3 C0130000 		.4byte	0x13c0
 3228 14a7 05       		.uleb128 0x5
 3229 14a8 03       		.byte	0x3
 3230 14a9 00000000 		.4byte	default_config
 3231 14ad 3C       		.uleb128 0x3c
 3232 14ae 01050000 		.4byte	.LASF202
 3233 14b2 16       		.byte	0x16
 3234 14b3 A706     		.2byte	0x6a7
 3235 14b5 E4000000 		.4byte	0xe4
 3236 14b9 3D       		.uleb128 0x3d
 3237 14ba 636800   		.ascii	"ch\000"
 3238 14bd 0A       		.byte	0xa
 3239 14be 0902     		.2byte	0x209
 3240 14c0 2E040000 		.4byte	0x42e
 3241 14c4 3E       		.uleb128 0x3e
 3242 14c5 53443100 		.ascii	"SD1\000"
 3243 14c9 01       		.byte	0x1
 3244 14ca 27       		.byte	0x27
 3245 14cb B70B0000 		.4byte	0xbb7
ARM GAS  C:\Users\IDONNO~1\AppData\Local\Temp\cctBsQvq.s 			page 58


 3246 14cf 05       		.uleb128 0x5
 3247 14d0 03       		.byte	0x3
 3248 14d1 00000000 		.4byte	SD1
 3249 14d5 3F       		.uleb128 0x3f
 3250 14d6 BA050000 		.4byte	.LASF203
 3251 14da BA050000 		.4byte	.LASF203
 3252 14de 11       		.byte	0x11
 3253 14df 87       		.byte	0x87
 3254 14e0 40       		.uleb128 0x40
 3255 14e1 88040000 		.4byte	.LASF204
 3256 14e5 88040000 		.4byte	.LASF204
 3257 14e9 12       		.byte	0x12
 3258 14ea 2A01     		.2byte	0x12a
 3259 14ec 3F       		.uleb128 0x3f
 3260 14ed 72050000 		.4byte	.LASF205
 3261 14f1 72050000 		.4byte	.LASF205
 3262 14f5 04       		.byte	0x4
 3263 14f6 FA       		.byte	0xfa
 3264 14f7 40       		.uleb128 0x40
 3265 14f8 8F050000 		.4byte	.LASF206
 3266 14fc 8F050000 		.4byte	.LASF206
 3267 1500 0D       		.byte	0xd
 3268 1501 6601     		.2byte	0x166
 3269 1503 40       		.uleb128 0x40
 3270 1504 33010000 		.4byte	.LASF207
 3271 1508 33010000 		.4byte	.LASF207
 3272 150c 12       		.byte	0x12
 3273 150d 2701     		.2byte	0x127
 3274 150f 3F       		.uleb128 0x3f
 3275 1510 77090000 		.4byte	.LASF208
 3276 1514 77090000 		.4byte	.LASF208
 3277 1518 15       		.byte	0x15
 3278 1519 4E       		.byte	0x4e
 3279 151a 3F       		.uleb128 0x3f
 3280 151b E1050000 		.4byte	.LASF209
 3281 151f E1050000 		.4byte	.LASF209
 3282 1523 15       		.byte	0x15
 3283 1524 4F       		.byte	0x4f
 3284 1525 00       		.byte	0
 3285              		.section	.debug_abbrev,"",%progbits
 3286              	.Ldebug_abbrev0:
 3287 0000 01       		.uleb128 0x1
 3288 0001 11       		.uleb128 0x11
 3289 0002 01       		.byte	0x1
 3290 0003 25       		.uleb128 0x25
 3291 0004 0E       		.uleb128 0xe
 3292 0005 13       		.uleb128 0x13
 3293 0006 0B       		.uleb128 0xb
 3294 0007 03       		.uleb128 0x3
 3295 0008 0E       		.uleb128 0xe
 3296 0009 1B       		.uleb128 0x1b
 3297 000a 0E       		.uleb128 0xe
 3298 000b 55       		.uleb128 0x55
 3299 000c 17       		.uleb128 0x17
 3300 000d 11       		.uleb128 0x11
 3301 000e 01       		.uleb128 0x1
 3302 000f 10       		.uleb128 0x10
ARM GAS  C:\Users\IDONNO~1\AppData\Local\Temp\cctBsQvq.s 			page 59


 3303 0010 17       		.uleb128 0x17
 3304 0011 00       		.byte	0
 3305 0012 00       		.byte	0
 3306 0013 02       		.uleb128 0x2
 3307 0014 24       		.uleb128 0x24
 3308 0015 00       		.byte	0
 3309 0016 0B       		.uleb128 0xb
 3310 0017 0B       		.uleb128 0xb
 3311 0018 3E       		.uleb128 0x3e
 3312 0019 0B       		.uleb128 0xb
 3313 001a 03       		.uleb128 0x3
 3314 001b 08       		.uleb128 0x8
 3315 001c 00       		.byte	0
 3316 001d 00       		.byte	0
 3317 001e 03       		.uleb128 0x3
 3318 001f 16       		.uleb128 0x16
 3319 0020 00       		.byte	0
 3320 0021 03       		.uleb128 0x3
 3321 0022 0E       		.uleb128 0xe
 3322 0023 3A       		.uleb128 0x3a
 3323 0024 0B       		.uleb128 0xb
 3324 0025 3B       		.uleb128 0x3b
 3325 0026 0B       		.uleb128 0xb
 3326 0027 49       		.uleb128 0x49
 3327 0028 13       		.uleb128 0x13
 3328 0029 00       		.byte	0
 3329 002a 00       		.byte	0
 3330 002b 04       		.uleb128 0x4
 3331 002c 24       		.uleb128 0x24
 3332 002d 00       		.byte	0
 3333 002e 0B       		.uleb128 0xb
 3334 002f 0B       		.uleb128 0xb
 3335 0030 3E       		.uleb128 0x3e
 3336 0031 0B       		.uleb128 0xb
 3337 0032 03       		.uleb128 0x3
 3338 0033 0E       		.uleb128 0xe
 3339 0034 00       		.byte	0
 3340 0035 00       		.byte	0
 3341 0036 05       		.uleb128 0x5
 3342 0037 35       		.uleb128 0x35
 3343 0038 00       		.byte	0
 3344 0039 49       		.uleb128 0x49
 3345 003a 13       		.uleb128 0x13
 3346 003b 00       		.byte	0
 3347 003c 00       		.byte	0
 3348 003d 06       		.uleb128 0x6
 3349 003e 13       		.uleb128 0x13
 3350 003f 01       		.byte	0x1
 3351 0040 03       		.uleb128 0x3
 3352 0041 0E       		.uleb128 0xe
 3353 0042 0B       		.uleb128 0xb
 3354 0043 0B       		.uleb128 0xb
 3355 0044 3A       		.uleb128 0x3a
 3356 0045 0B       		.uleb128 0xb
 3357 0046 3B       		.uleb128 0x3b
 3358 0047 0B       		.uleb128 0xb
 3359 0048 01       		.uleb128 0x1
ARM GAS  C:\Users\IDONNO~1\AppData\Local\Temp\cctBsQvq.s 			page 60


 3360 0049 13       		.uleb128 0x13
 3361 004a 00       		.byte	0
 3362 004b 00       		.byte	0
 3363 004c 07       		.uleb128 0x7
 3364 004d 0D       		.uleb128 0xd
 3365 004e 00       		.byte	0
 3366 004f 03       		.uleb128 0x3
 3367 0050 0E       		.uleb128 0xe
 3368 0051 3A       		.uleb128 0x3a
 3369 0052 0B       		.uleb128 0xb
 3370 0053 3B       		.uleb128 0x3b
 3371 0054 0B       		.uleb128 0xb
 3372 0055 49       		.uleb128 0x49
 3373 0056 13       		.uleb128 0x13
 3374 0057 38       		.uleb128 0x38
 3375 0058 0B       		.uleb128 0xb
 3376 0059 00       		.byte	0
 3377 005a 00       		.byte	0
 3378 005b 08       		.uleb128 0x8
 3379 005c 0D       		.uleb128 0xd
 3380 005d 00       		.byte	0
 3381 005e 03       		.uleb128 0x3
 3382 005f 08       		.uleb128 0x8
 3383 0060 3A       		.uleb128 0x3a
 3384 0061 0B       		.uleb128 0xb
 3385 0062 3B       		.uleb128 0x3b
 3386 0063 05       		.uleb128 0x5
 3387 0064 49       		.uleb128 0x49
 3388 0065 13       		.uleb128 0x13
 3389 0066 38       		.uleb128 0x38
 3390 0067 0B       		.uleb128 0xb
 3391 0068 00       		.byte	0
 3392 0069 00       		.byte	0
 3393 006a 09       		.uleb128 0x9
 3394 006b 0D       		.uleb128 0xd
 3395 006c 00       		.byte	0
 3396 006d 03       		.uleb128 0x3
 3397 006e 0E       		.uleb128 0xe
 3398 006f 3A       		.uleb128 0x3a
 3399 0070 0B       		.uleb128 0xb
 3400 0071 3B       		.uleb128 0x3b
 3401 0072 05       		.uleb128 0x5
 3402 0073 49       		.uleb128 0x49
 3403 0074 13       		.uleb128 0x13
 3404 0075 38       		.uleb128 0x38
 3405 0076 0B       		.uleb128 0xb
 3406 0077 00       		.byte	0
 3407 0078 00       		.byte	0
 3408 0079 0A       		.uleb128 0xa
 3409 007a 0F       		.uleb128 0xf
 3410 007b 00       		.byte	0
 3411 007c 0B       		.uleb128 0xb
 3412 007d 0B       		.uleb128 0xb
 3413 007e 49       		.uleb128 0x49
 3414 007f 13       		.uleb128 0x13
 3415 0080 00       		.byte	0
 3416 0081 00       		.byte	0
ARM GAS  C:\Users\IDONNO~1\AppData\Local\Temp\cctBsQvq.s 			page 61


 3417 0082 0B       		.uleb128 0xb
 3418 0083 13       		.uleb128 0x13
 3419 0084 01       		.byte	0x1
 3420 0085 03       		.uleb128 0x3
 3421 0086 0E       		.uleb128 0xe
 3422 0087 0B       		.uleb128 0xb
 3423 0088 0B       		.uleb128 0xb
 3424 0089 3A       		.uleb128 0x3a
 3425 008a 0B       		.uleb128 0xb
 3426 008b 3B       		.uleb128 0x3b
 3427 008c 05       		.uleb128 0x5
 3428 008d 01       		.uleb128 0x1
 3429 008e 13       		.uleb128 0x13
 3430 008f 00       		.byte	0
 3431 0090 00       		.byte	0
 3432 0091 0C       		.uleb128 0xc
 3433 0092 15       		.uleb128 0x15
 3434 0093 01       		.byte	0x1
 3435 0094 27       		.uleb128 0x27
 3436 0095 19       		.uleb128 0x19
 3437 0096 01       		.uleb128 0x1
 3438 0097 13       		.uleb128 0x13
 3439 0098 00       		.byte	0
 3440 0099 00       		.byte	0
 3441 009a 0D       		.uleb128 0xd
 3442 009b 05       		.uleb128 0x5
 3443 009c 00       		.byte	0
 3444 009d 49       		.uleb128 0x49
 3445 009e 13       		.uleb128 0x13
 3446 009f 00       		.byte	0
 3447 00a0 00       		.byte	0
 3448 00a1 0E       		.uleb128 0xe
 3449 00a2 0F       		.uleb128 0xf
 3450 00a3 00       		.byte	0
 3451 00a4 0B       		.uleb128 0xb
 3452 00a5 0B       		.uleb128 0xb
 3453 00a6 00       		.byte	0
 3454 00a7 00       		.byte	0
 3455 00a8 0F       		.uleb128 0xf
 3456 00a9 13       		.uleb128 0x13
 3457 00aa 01       		.byte	0x1
 3458 00ab 03       		.uleb128 0x3
 3459 00ac 0E       		.uleb128 0xe
 3460 00ad 0B       		.uleb128 0xb
 3461 00ae 05       		.uleb128 0x5
 3462 00af 3A       		.uleb128 0x3a
 3463 00b0 0B       		.uleb128 0xb
 3464 00b1 3B       		.uleb128 0x3b
 3465 00b2 05       		.uleb128 0x5
 3466 00b3 01       		.uleb128 0x1
 3467 00b4 13       		.uleb128 0x13
 3468 00b5 00       		.byte	0
 3469 00b6 00       		.byte	0
 3470 00b7 10       		.uleb128 0x10
 3471 00b8 01       		.uleb128 0x1
 3472 00b9 01       		.byte	0x1
 3473 00ba 49       		.uleb128 0x49
ARM GAS  C:\Users\IDONNO~1\AppData\Local\Temp\cctBsQvq.s 			page 62


 3474 00bb 13       		.uleb128 0x13
 3475 00bc 01       		.uleb128 0x1
 3476 00bd 13       		.uleb128 0x13
 3477 00be 00       		.byte	0
 3478 00bf 00       		.byte	0
 3479 00c0 11       		.uleb128 0x11
 3480 00c1 21       		.uleb128 0x21
 3481 00c2 00       		.byte	0
 3482 00c3 49       		.uleb128 0x49
 3483 00c4 13       		.uleb128 0x13
 3484 00c5 2F       		.uleb128 0x2f
 3485 00c6 0B       		.uleb128 0xb
 3486 00c7 00       		.byte	0
 3487 00c8 00       		.byte	0
 3488 00c9 12       		.uleb128 0x12
 3489 00ca 13       		.uleb128 0x13
 3490 00cb 01       		.byte	0x1
 3491 00cc 0B       		.uleb128 0xb
 3492 00cd 0B       		.uleb128 0xb
 3493 00ce 3A       		.uleb128 0x3a
 3494 00cf 0B       		.uleb128 0xb
 3495 00d0 3B       		.uleb128 0x3b
 3496 00d1 05       		.uleb128 0x5
 3497 00d2 01       		.uleb128 0x1
 3498 00d3 13       		.uleb128 0x13
 3499 00d4 00       		.byte	0
 3500 00d5 00       		.byte	0
 3501 00d6 13       		.uleb128 0x13
 3502 00d7 16       		.uleb128 0x16
 3503 00d8 00       		.byte	0
 3504 00d9 03       		.uleb128 0x3
 3505 00da 0E       		.uleb128 0xe
 3506 00db 3A       		.uleb128 0x3a
 3507 00dc 0B       		.uleb128 0xb
 3508 00dd 3B       		.uleb128 0x3b
 3509 00de 05       		.uleb128 0x5
 3510 00df 49       		.uleb128 0x49
 3511 00e0 13       		.uleb128 0x13
 3512 00e1 00       		.byte	0
 3513 00e2 00       		.byte	0
 3514 00e3 14       		.uleb128 0x14
 3515 00e4 0D       		.uleb128 0xd
 3516 00e5 00       		.byte	0
 3517 00e6 03       		.uleb128 0x3
 3518 00e7 08       		.uleb128 0x8
 3519 00e8 3A       		.uleb128 0x3a
 3520 00e9 0B       		.uleb128 0xb
 3521 00ea 3B       		.uleb128 0x3b
 3522 00eb 0B       		.uleb128 0xb
 3523 00ec 49       		.uleb128 0x49
 3524 00ed 13       		.uleb128 0x13
 3525 00ee 38       		.uleb128 0x38
 3526 00ef 0B       		.uleb128 0xb
 3527 00f0 00       		.byte	0
 3528 00f1 00       		.byte	0
 3529 00f2 15       		.uleb128 0x15
 3530 00f3 13       		.uleb128 0x13
ARM GAS  C:\Users\IDONNO~1\AppData\Local\Temp\cctBsQvq.s 			page 63


 3531 00f4 01       		.byte	0x1
 3532 00f5 0B       		.uleb128 0xb
 3533 00f6 0B       		.uleb128 0xb
 3534 00f7 3A       		.uleb128 0x3a
 3535 00f8 0B       		.uleb128 0xb
 3536 00f9 3B       		.uleb128 0x3b
 3537 00fa 0B       		.uleb128 0xb
 3538 00fb 01       		.uleb128 0x1
 3539 00fc 13       		.uleb128 0x13
 3540 00fd 00       		.byte	0
 3541 00fe 00       		.byte	0
 3542 00ff 16       		.uleb128 0x16
 3543 0100 17       		.uleb128 0x17
 3544 0101 01       		.byte	0x1
 3545 0102 0B       		.uleb128 0xb
 3546 0103 0B       		.uleb128 0xb
 3547 0104 3A       		.uleb128 0x3a
 3548 0105 0B       		.uleb128 0xb
 3549 0106 3B       		.uleb128 0x3b
 3550 0107 0B       		.uleb128 0xb
 3551 0108 01       		.uleb128 0x1
 3552 0109 13       		.uleb128 0x13
 3553 010a 00       		.byte	0
 3554 010b 00       		.byte	0
 3555 010c 17       		.uleb128 0x17
 3556 010d 0D       		.uleb128 0xd
 3557 010e 00       		.byte	0
 3558 010f 03       		.uleb128 0x3
 3559 0110 0E       		.uleb128 0xe
 3560 0111 3A       		.uleb128 0x3a
 3561 0112 0B       		.uleb128 0xb
 3562 0113 3B       		.uleb128 0x3b
 3563 0114 05       		.uleb128 0x5
 3564 0115 49       		.uleb128 0x49
 3565 0116 13       		.uleb128 0x13
 3566 0117 00       		.byte	0
 3567 0118 00       		.byte	0
 3568 0119 18       		.uleb128 0x18
 3569 011a 26       		.uleb128 0x26
 3570 011b 00       		.byte	0
 3571 011c 49       		.uleb128 0x49
 3572 011d 13       		.uleb128 0x13
 3573 011e 00       		.byte	0
 3574 011f 00       		.byte	0
 3575 0120 19       		.uleb128 0x19
 3576 0121 15       		.uleb128 0x15
 3577 0122 01       		.byte	0x1
 3578 0123 27       		.uleb128 0x27
 3579 0124 19       		.uleb128 0x19
 3580 0125 49       		.uleb128 0x49
 3581 0126 13       		.uleb128 0x13
 3582 0127 01       		.uleb128 0x1
 3583 0128 13       		.uleb128 0x13
 3584 0129 00       		.byte	0
 3585 012a 00       		.byte	0
 3586 012b 1A       		.uleb128 0x1a
 3587 012c 04       		.uleb128 0x4
ARM GAS  C:\Users\IDONNO~1\AppData\Local\Temp\cctBsQvq.s 			page 64


 3588 012d 01       		.byte	0x1
 3589 012e 0B       		.uleb128 0xb
 3590 012f 0B       		.uleb128 0xb
 3591 0130 49       		.uleb128 0x49
 3592 0131 13       		.uleb128 0x13
 3593 0132 3A       		.uleb128 0x3a
 3594 0133 0B       		.uleb128 0xb
 3595 0134 3B       		.uleb128 0x3b
 3596 0135 0B       		.uleb128 0xb
 3597 0136 01       		.uleb128 0x1
 3598 0137 13       		.uleb128 0x13
 3599 0138 00       		.byte	0
 3600 0139 00       		.byte	0
 3601 013a 1B       		.uleb128 0x1b
 3602 013b 28       		.uleb128 0x28
 3603 013c 00       		.byte	0
 3604 013d 03       		.uleb128 0x3
 3605 013e 0E       		.uleb128 0xe
 3606 013f 1C       		.uleb128 0x1c
 3607 0140 0B       		.uleb128 0xb
 3608 0141 00       		.byte	0
 3609 0142 00       		.byte	0
 3610 0143 1C       		.uleb128 0x1c
 3611 0144 2E       		.uleb128 0x2e
 3612 0145 01       		.byte	0x1
 3613 0146 03       		.uleb128 0x3
 3614 0147 0E       		.uleb128 0xe
 3615 0148 3A       		.uleb128 0x3a
 3616 0149 0B       		.uleb128 0xb
 3617 014a 3B       		.uleb128 0x3b
 3618 014b 05       		.uleb128 0x5
 3619 014c 27       		.uleb128 0x27
 3620 014d 19       		.uleb128 0x19
 3621 014e 20       		.uleb128 0x20
 3622 014f 0B       		.uleb128 0xb
 3623 0150 01       		.uleb128 0x1
 3624 0151 13       		.uleb128 0x13
 3625 0152 00       		.byte	0
 3626 0153 00       		.byte	0
 3627 0154 1D       		.uleb128 0x1d
 3628 0155 05       		.uleb128 0x5
 3629 0156 00       		.byte	0
 3630 0157 03       		.uleb128 0x3
 3631 0158 0E       		.uleb128 0xe
 3632 0159 3A       		.uleb128 0x3a
 3633 015a 0B       		.uleb128 0xb
 3634 015b 3B       		.uleb128 0x3b
 3635 015c 05       		.uleb128 0x5
 3636 015d 49       		.uleb128 0x49
 3637 015e 13       		.uleb128 0x13
 3638 015f 00       		.byte	0
 3639 0160 00       		.byte	0
 3640 0161 1E       		.uleb128 0x1e
 3641 0162 2E       		.uleb128 0x2e
 3642 0163 00       		.byte	0
 3643 0164 03       		.uleb128 0x3
 3644 0165 0E       		.uleb128 0xe
ARM GAS  C:\Users\IDONNO~1\AppData\Local\Temp\cctBsQvq.s 			page 65


 3645 0166 3A       		.uleb128 0x3a
 3646 0167 0B       		.uleb128 0xb
 3647 0168 3B       		.uleb128 0x3b
 3648 0169 05       		.uleb128 0x5
 3649 016a 27       		.uleb128 0x27
 3650 016b 19       		.uleb128 0x19
 3651 016c 20       		.uleb128 0x20
 3652 016d 0B       		.uleb128 0xb
 3653 016e 00       		.byte	0
 3654 016f 00       		.byte	0
 3655 0170 1F       		.uleb128 0x1f
 3656 0171 05       		.uleb128 0x5
 3657 0172 00       		.byte	0
 3658 0173 03       		.uleb128 0x3
 3659 0174 08       		.uleb128 0x8
 3660 0175 3A       		.uleb128 0x3a
 3661 0176 0B       		.uleb128 0xb
 3662 0177 3B       		.uleb128 0x3b
 3663 0178 05       		.uleb128 0x5
 3664 0179 49       		.uleb128 0x49
 3665 017a 13       		.uleb128 0x13
 3666 017b 00       		.byte	0
 3667 017c 00       		.byte	0
 3668 017d 20       		.uleb128 0x20
 3669 017e 2E       		.uleb128 0x2e
 3670 017f 01       		.byte	0x1
 3671 0180 03       		.uleb128 0x3
 3672 0181 0E       		.uleb128 0xe
 3673 0182 3A       		.uleb128 0x3a
 3674 0183 0B       		.uleb128 0xb
 3675 0184 3B       		.uleb128 0x3b
 3676 0185 05       		.uleb128 0x5
 3677 0186 27       		.uleb128 0x27
 3678 0187 19       		.uleb128 0x19
 3679 0188 49       		.uleb128 0x49
 3680 0189 13       		.uleb128 0x13
 3681 018a 20       		.uleb128 0x20
 3682 018b 0B       		.uleb128 0xb
 3683 018c 01       		.uleb128 0x1
 3684 018d 13       		.uleb128 0x13
 3685 018e 00       		.byte	0
 3686 018f 00       		.byte	0
 3687 0190 21       		.uleb128 0x21
 3688 0191 2E       		.uleb128 0x2e
 3689 0192 01       		.byte	0x1
 3690 0193 03       		.uleb128 0x3
 3691 0194 0E       		.uleb128 0xe
 3692 0195 3A       		.uleb128 0x3a
 3693 0196 0B       		.uleb128 0xb
 3694 0197 3B       		.uleb128 0x3b
 3695 0198 0B       		.uleb128 0xb
 3696 0199 27       		.uleb128 0x27
 3697 019a 19       		.uleb128 0x19
 3698 019b 20       		.uleb128 0x20
 3699 019c 0B       		.uleb128 0xb
 3700 019d 01       		.uleb128 0x1
 3701 019e 13       		.uleb128 0x13
ARM GAS  C:\Users\IDONNO~1\AppData\Local\Temp\cctBsQvq.s 			page 66


 3702 019f 00       		.byte	0
 3703 01a0 00       		.byte	0
 3704 01a1 22       		.uleb128 0x22
 3705 01a2 05       		.uleb128 0x5
 3706 01a3 00       		.byte	0
 3707 01a4 03       		.uleb128 0x3
 3708 01a5 08       		.uleb128 0x8
 3709 01a6 3A       		.uleb128 0x3a
 3710 01a7 0B       		.uleb128 0xb
 3711 01a8 3B       		.uleb128 0x3b
 3712 01a9 0B       		.uleb128 0xb
 3713 01aa 49       		.uleb128 0x49
 3714 01ab 13       		.uleb128 0x13
 3715 01ac 00       		.byte	0
 3716 01ad 00       		.byte	0
 3717 01ae 23       		.uleb128 0x23
 3718 01af 34       		.uleb128 0x34
 3719 01b0 00       		.byte	0
 3720 01b1 03       		.uleb128 0x3
 3721 01b2 08       		.uleb128 0x8
 3722 01b3 3A       		.uleb128 0x3a
 3723 01b4 0B       		.uleb128 0xb
 3724 01b5 3B       		.uleb128 0x3b
 3725 01b6 0B       		.uleb128 0xb
 3726 01b7 49       		.uleb128 0x49
 3727 01b8 13       		.uleb128 0x13
 3728 01b9 00       		.byte	0
 3729 01ba 00       		.byte	0
 3730 01bb 24       		.uleb128 0x24
 3731 01bc 0B       		.uleb128 0xb
 3732 01bd 01       		.byte	0x1
 3733 01be 01       		.uleb128 0x1
 3734 01bf 13       		.uleb128 0x13
 3735 01c0 00       		.byte	0
 3736 01c1 00       		.byte	0
 3737 01c2 25       		.uleb128 0x25
 3738 01c3 0B       		.uleb128 0xb
 3739 01c4 01       		.byte	0x1
 3740 01c5 00       		.byte	0
 3741 01c6 00       		.byte	0
 3742 01c7 26       		.uleb128 0x26
 3743 01c8 2E       		.uleb128 0x2e
 3744 01c9 01       		.byte	0x1
 3745 01ca 03       		.uleb128 0x3
 3746 01cb 0E       		.uleb128 0xe
 3747 01cc 3A       		.uleb128 0x3a
 3748 01cd 0B       		.uleb128 0xb
 3749 01ce 3B       		.uleb128 0x3b
 3750 01cf 0B       		.uleb128 0xb
 3751 01d0 27       		.uleb128 0x27
 3752 01d1 19       		.uleb128 0x19
 3753 01d2 11       		.uleb128 0x11
 3754 01d3 01       		.uleb128 0x1
 3755 01d4 12       		.uleb128 0x12
 3756 01d5 06       		.uleb128 0x6
 3757 01d6 40       		.uleb128 0x40
 3758 01d7 18       		.uleb128 0x18
ARM GAS  C:\Users\IDONNO~1\AppData\Local\Temp\cctBsQvq.s 			page 67


 3759 01d8 9742     		.uleb128 0x2117
 3760 01da 19       		.uleb128 0x19
 3761 01db 01       		.uleb128 0x1
 3762 01dc 13       		.uleb128 0x13
 3763 01dd 00       		.byte	0
 3764 01de 00       		.byte	0
 3765 01df 27       		.uleb128 0x27
 3766 01e0 05       		.uleb128 0x5
 3767 01e1 00       		.byte	0
 3768 01e2 03       		.uleb128 0x3
 3769 01e3 08       		.uleb128 0x8
 3770 01e4 3A       		.uleb128 0x3a
 3771 01e5 0B       		.uleb128 0xb
 3772 01e6 3B       		.uleb128 0x3b
 3773 01e7 0B       		.uleb128 0xb
 3774 01e8 49       		.uleb128 0x49
 3775 01e9 13       		.uleb128 0x13
 3776 01ea 02       		.uleb128 0x2
 3777 01eb 18       		.uleb128 0x18
 3778 01ec 00       		.byte	0
 3779 01ed 00       		.byte	0
 3780 01ee 28       		.uleb128 0x28
 3781 01ef 2E       		.uleb128 0x2e
 3782 01f0 01       		.byte	0x1
 3783 01f1 3F       		.uleb128 0x3f
 3784 01f2 19       		.uleb128 0x19
 3785 01f3 03       		.uleb128 0x3
 3786 01f4 0E       		.uleb128 0xe
 3787 01f5 3A       		.uleb128 0x3a
 3788 01f6 0B       		.uleb128 0xb
 3789 01f7 3B       		.uleb128 0x3b
 3790 01f8 05       		.uleb128 0x5
 3791 01f9 27       		.uleb128 0x27
 3792 01fa 19       		.uleb128 0x19
 3793 01fb 11       		.uleb128 0x11
 3794 01fc 01       		.uleb128 0x1
 3795 01fd 12       		.uleb128 0x12
 3796 01fe 06       		.uleb128 0x6
 3797 01ff 40       		.uleb128 0x40
 3798 0200 18       		.uleb128 0x18
 3799 0201 9742     		.uleb128 0x2117
 3800 0203 19       		.uleb128 0x19
 3801 0204 01       		.uleb128 0x1
 3802 0205 13       		.uleb128 0x13
 3803 0206 00       		.byte	0
 3804 0207 00       		.byte	0
 3805 0208 29       		.uleb128 0x29
 3806 0209 1D       		.uleb128 0x1d
 3807 020a 01       		.byte	0x1
 3808 020b 31       		.uleb128 0x31
 3809 020c 13       		.uleb128 0x13
 3810 020d 52       		.uleb128 0x52
 3811 020e 01       		.uleb128 0x1
 3812 020f 55       		.uleb128 0x55
 3813 0210 17       		.uleb128 0x17
 3814 0211 58       		.uleb128 0x58
 3815 0212 0B       		.uleb128 0xb
ARM GAS  C:\Users\IDONNO~1\AppData\Local\Temp\cctBsQvq.s 			page 68


 3816 0213 59       		.uleb128 0x59
 3817 0214 05       		.uleb128 0x5
 3818 0215 01       		.uleb128 0x1
 3819 0216 13       		.uleb128 0x13
 3820 0217 00       		.byte	0
 3821 0218 00       		.byte	0
 3822 0219 2A       		.uleb128 0x2a
 3823 021a 05       		.uleb128 0x5
 3824 021b 00       		.byte	0
 3825 021c 31       		.uleb128 0x31
 3826 021d 13       		.uleb128 0x13
 3827 021e 02       		.uleb128 0x2
 3828 021f 17       		.uleb128 0x17
 3829 0220 00       		.byte	0
 3830 0221 00       		.byte	0
 3831 0222 2B       		.uleb128 0x2b
 3832 0223 0B       		.uleb128 0xb
 3833 0224 01       		.byte	0x1
 3834 0225 55       		.uleb128 0x55
 3835 0226 17       		.uleb128 0x17
 3836 0227 00       		.byte	0
 3837 0228 00       		.byte	0
 3838 0229 2C       		.uleb128 0x2c
 3839 022a 34       		.uleb128 0x34
 3840 022b 00       		.byte	0
 3841 022c 31       		.uleb128 0x31
 3842 022d 13       		.uleb128 0x13
 3843 022e 02       		.uleb128 0x2
 3844 022f 17       		.uleb128 0x17
 3845 0230 00       		.byte	0
 3846 0231 00       		.byte	0
 3847 0232 2D       		.uleb128 0x2d
 3848 0233 1D       		.uleb128 0x1d
 3849 0234 01       		.byte	0x1
 3850 0235 31       		.uleb128 0x31
 3851 0236 13       		.uleb128 0x13
 3852 0237 11       		.uleb128 0x11
 3853 0238 01       		.uleb128 0x1
 3854 0239 12       		.uleb128 0x12
 3855 023a 06       		.uleb128 0x6
 3856 023b 58       		.uleb128 0x58
 3857 023c 0B       		.uleb128 0xb
 3858 023d 59       		.uleb128 0x59
 3859 023e 0B       		.uleb128 0xb
 3860 023f 01       		.uleb128 0x1
 3861 0240 13       		.uleb128 0x13
 3862 0241 00       		.byte	0
 3863 0242 00       		.byte	0
 3864 0243 2E       		.uleb128 0x2e
 3865 0244 1D       		.uleb128 0x1d
 3866 0245 01       		.byte	0x1
 3867 0246 31       		.uleb128 0x31
 3868 0247 13       		.uleb128 0x13
 3869 0248 11       		.uleb128 0x11
 3870 0249 01       		.uleb128 0x1
 3871 024a 12       		.uleb128 0x12
 3872 024b 06       		.uleb128 0x6
ARM GAS  C:\Users\IDONNO~1\AppData\Local\Temp\cctBsQvq.s 			page 69


 3873 024c 58       		.uleb128 0x58
 3874 024d 0B       		.uleb128 0xb
 3875 024e 59       		.uleb128 0x59
 3876 024f 05       		.uleb128 0x5
 3877 0250 00       		.byte	0
 3878 0251 00       		.byte	0
 3879 0252 2F       		.uleb128 0x2f
 3880 0253 0B       		.uleb128 0xb
 3881 0254 01       		.byte	0x1
 3882 0255 55       		.uleb128 0x55
 3883 0256 17       		.uleb128 0x17
 3884 0257 01       		.uleb128 0x1
 3885 0258 13       		.uleb128 0x13
 3886 0259 00       		.byte	0
 3887 025a 00       		.byte	0
 3888 025b 30       		.uleb128 0x30
 3889 025c 0B       		.uleb128 0xb
 3890 025d 01       		.byte	0x1
 3891 025e 11       		.uleb128 0x11
 3892 025f 01       		.uleb128 0x1
 3893 0260 12       		.uleb128 0x12
 3894 0261 06       		.uleb128 0x6
 3895 0262 00       		.byte	0
 3896 0263 00       		.byte	0
 3897 0264 31       		.uleb128 0x31
 3898 0265 1D       		.uleb128 0x1d
 3899 0266 01       		.byte	0x1
 3900 0267 31       		.uleb128 0x31
 3901 0268 13       		.uleb128 0x13
 3902 0269 11       		.uleb128 0x11
 3903 026a 01       		.uleb128 0x1
 3904 026b 12       		.uleb128 0x12
 3905 026c 06       		.uleb128 0x6
 3906 026d 58       		.uleb128 0x58
 3907 026e 0B       		.uleb128 0xb
 3908 026f 59       		.uleb128 0x59
 3909 0270 0B       		.uleb128 0xb
 3910 0271 00       		.byte	0
 3911 0272 00       		.byte	0
 3912 0273 32       		.uleb128 0x32
 3913 0274 898201   		.uleb128 0x4109
 3914 0277 01       		.byte	0x1
 3915 0278 11       		.uleb128 0x11
 3916 0279 01       		.uleb128 0x1
 3917 027a 31       		.uleb128 0x31
 3918 027b 13       		.uleb128 0x13
 3919 027c 00       		.byte	0
 3920 027d 00       		.byte	0
 3921 027e 33       		.uleb128 0x33
 3922 027f 8A8201   		.uleb128 0x410a
 3923 0282 00       		.byte	0
 3924 0283 02       		.uleb128 0x2
 3925 0284 18       		.uleb128 0x18
 3926 0285 9142     		.uleb128 0x2111
 3927 0287 18       		.uleb128 0x18
 3928 0288 00       		.byte	0
 3929 0289 00       		.byte	0
ARM GAS  C:\Users\IDONNO~1\AppData\Local\Temp\cctBsQvq.s 			page 70


 3930 028a 34       		.uleb128 0x34
 3931 028b 1D       		.uleb128 0x1d
 3932 028c 01       		.byte	0x1
 3933 028d 31       		.uleb128 0x31
 3934 028e 13       		.uleb128 0x13
 3935 028f 52       		.uleb128 0x52
 3936 0290 01       		.uleb128 0x1
 3937 0291 55       		.uleb128 0x55
 3938 0292 17       		.uleb128 0x17
 3939 0293 58       		.uleb128 0x58
 3940 0294 0B       		.uleb128 0xb
 3941 0295 59       		.uleb128 0x59
 3942 0296 0B       		.uleb128 0xb
 3943 0297 01       		.uleb128 0x1
 3944 0298 13       		.uleb128 0x13
 3945 0299 00       		.byte	0
 3946 029a 00       		.byte	0
 3947 029b 35       		.uleb128 0x35
 3948 029c 1D       		.uleb128 0x1d
 3949 029d 01       		.byte	0x1
 3950 029e 31       		.uleb128 0x31
 3951 029f 13       		.uleb128 0x13
 3952 02a0 52       		.uleb128 0x52
 3953 02a1 01       		.uleb128 0x1
 3954 02a2 55       		.uleb128 0x55
 3955 02a3 17       		.uleb128 0x17
 3956 02a4 58       		.uleb128 0x58
 3957 02a5 0B       		.uleb128 0xb
 3958 02a6 59       		.uleb128 0x59
 3959 02a7 05       		.uleb128 0x5
 3960 02a8 00       		.byte	0
 3961 02a9 00       		.byte	0
 3962 02aa 36       		.uleb128 0x36
 3963 02ab 898201   		.uleb128 0x4109
 3964 02ae 00       		.byte	0
 3965 02af 11       		.uleb128 0x11
 3966 02b0 01       		.uleb128 0x1
 3967 02b1 9542     		.uleb128 0x2115
 3968 02b3 19       		.uleb128 0x19
 3969 02b4 31       		.uleb128 0x31
 3970 02b5 13       		.uleb128 0x13
 3971 02b6 00       		.byte	0
 3972 02b7 00       		.byte	0
 3973 02b8 37       		.uleb128 0x37
 3974 02b9 05       		.uleb128 0x5
 3975 02ba 00       		.byte	0
 3976 02bb 03       		.uleb128 0x3
 3977 02bc 0E       		.uleb128 0xe
 3978 02bd 3A       		.uleb128 0x3a
 3979 02be 0B       		.uleb128 0xb
 3980 02bf 3B       		.uleb128 0x3b
 3981 02c0 0B       		.uleb128 0xb
 3982 02c1 49       		.uleb128 0x49
 3983 02c2 13       		.uleb128 0x13
 3984 02c3 00       		.byte	0
 3985 02c4 00       		.byte	0
 3986 02c5 38       		.uleb128 0x38
ARM GAS  C:\Users\IDONNO~1\AppData\Local\Temp\cctBsQvq.s 			page 71


 3987 02c6 05       		.uleb128 0x5
 3988 02c7 00       		.byte	0
 3989 02c8 03       		.uleb128 0x3
 3990 02c9 08       		.uleb128 0x8
 3991 02ca 3A       		.uleb128 0x3a
 3992 02cb 0B       		.uleb128 0xb
 3993 02cc 3B       		.uleb128 0x3b
 3994 02cd 05       		.uleb128 0x5
 3995 02ce 49       		.uleb128 0x49
 3996 02cf 13       		.uleb128 0x13
 3997 02d0 02       		.uleb128 0x2
 3998 02d1 17       		.uleb128 0x17
 3999 02d2 00       		.byte	0
 4000 02d3 00       		.byte	0
 4001 02d4 39       		.uleb128 0x39
 4002 02d5 05       		.uleb128 0x5
 4003 02d6 00       		.byte	0
 4004 02d7 03       		.uleb128 0x3
 4005 02d8 0E       		.uleb128 0xe
 4006 02d9 3A       		.uleb128 0x3a
 4007 02da 0B       		.uleb128 0xb
 4008 02db 3B       		.uleb128 0x3b
 4009 02dc 05       		.uleb128 0x5
 4010 02dd 49       		.uleb128 0x49
 4011 02de 13       		.uleb128 0x13
 4012 02df 02       		.uleb128 0x2
 4013 02e0 17       		.uleb128 0x17
 4014 02e1 00       		.byte	0
 4015 02e2 00       		.byte	0
 4016 02e3 3A       		.uleb128 0x3a
 4017 02e4 898201   		.uleb128 0x4109
 4018 02e7 01       		.byte	0x1
 4019 02e8 11       		.uleb128 0x11
 4020 02e9 01       		.uleb128 0x1
 4021 02ea 9542     		.uleb128 0x2115
 4022 02ec 19       		.uleb128 0x19
 4023 02ed 31       		.uleb128 0x31
 4024 02ee 13       		.uleb128 0x13
 4025 02ef 00       		.byte	0
 4026 02f0 00       		.byte	0
 4027 02f1 3B       		.uleb128 0x3b
 4028 02f2 34       		.uleb128 0x34
 4029 02f3 00       		.byte	0
 4030 02f4 03       		.uleb128 0x3
 4031 02f5 0E       		.uleb128 0xe
 4032 02f6 3A       		.uleb128 0x3a
 4033 02f7 0B       		.uleb128 0xb
 4034 02f8 3B       		.uleb128 0x3b
 4035 02f9 0B       		.uleb128 0xb
 4036 02fa 49       		.uleb128 0x49
 4037 02fb 13       		.uleb128 0x13
 4038 02fc 02       		.uleb128 0x2
 4039 02fd 18       		.uleb128 0x18
 4040 02fe 00       		.byte	0
 4041 02ff 00       		.byte	0
 4042 0300 3C       		.uleb128 0x3c
 4043 0301 34       		.uleb128 0x34
ARM GAS  C:\Users\IDONNO~1\AppData\Local\Temp\cctBsQvq.s 			page 72


 4044 0302 00       		.byte	0
 4045 0303 03       		.uleb128 0x3
 4046 0304 0E       		.uleb128 0xe
 4047 0305 3A       		.uleb128 0x3a
 4048 0306 0B       		.uleb128 0xb
 4049 0307 3B       		.uleb128 0x3b
 4050 0308 05       		.uleb128 0x5
 4051 0309 49       		.uleb128 0x49
 4052 030a 13       		.uleb128 0x13
 4053 030b 3F       		.uleb128 0x3f
 4054 030c 19       		.uleb128 0x19
 4055 030d 3C       		.uleb128 0x3c
 4056 030e 19       		.uleb128 0x19
 4057 030f 00       		.byte	0
 4058 0310 00       		.byte	0
 4059 0311 3D       		.uleb128 0x3d
 4060 0312 34       		.uleb128 0x34
 4061 0313 00       		.byte	0
 4062 0314 03       		.uleb128 0x3
 4063 0315 08       		.uleb128 0x8
 4064 0316 3A       		.uleb128 0x3a
 4065 0317 0B       		.uleb128 0xb
 4066 0318 3B       		.uleb128 0x3b
 4067 0319 05       		.uleb128 0x5
 4068 031a 49       		.uleb128 0x49
 4069 031b 13       		.uleb128 0x13
 4070 031c 3F       		.uleb128 0x3f
 4071 031d 19       		.uleb128 0x19
 4072 031e 3C       		.uleb128 0x3c
 4073 031f 19       		.uleb128 0x19
 4074 0320 00       		.byte	0
 4075 0321 00       		.byte	0
 4076 0322 3E       		.uleb128 0x3e
 4077 0323 34       		.uleb128 0x34
 4078 0324 00       		.byte	0
 4079 0325 03       		.uleb128 0x3
 4080 0326 08       		.uleb128 0x8
 4081 0327 3A       		.uleb128 0x3a
 4082 0328 0B       		.uleb128 0xb
 4083 0329 3B       		.uleb128 0x3b
 4084 032a 0B       		.uleb128 0xb
 4085 032b 49       		.uleb128 0x49
 4086 032c 13       		.uleb128 0x13
 4087 032d 3F       		.uleb128 0x3f
 4088 032e 19       		.uleb128 0x19
 4089 032f 02       		.uleb128 0x2
 4090 0330 18       		.uleb128 0x18
 4091 0331 00       		.byte	0
 4092 0332 00       		.byte	0
 4093 0333 3F       		.uleb128 0x3f
 4094 0334 2E       		.uleb128 0x2e
 4095 0335 00       		.byte	0
 4096 0336 3F       		.uleb128 0x3f
 4097 0337 19       		.uleb128 0x19
 4098 0338 3C       		.uleb128 0x3c
 4099 0339 19       		.uleb128 0x19
 4100 033a 6E       		.uleb128 0x6e
ARM GAS  C:\Users\IDONNO~1\AppData\Local\Temp\cctBsQvq.s 			page 73


 4101 033b 0E       		.uleb128 0xe
 4102 033c 03       		.uleb128 0x3
 4103 033d 0E       		.uleb128 0xe
 4104 033e 3A       		.uleb128 0x3a
 4105 033f 0B       		.uleb128 0xb
 4106 0340 3B       		.uleb128 0x3b
 4107 0341 0B       		.uleb128 0xb
 4108 0342 00       		.byte	0
 4109 0343 00       		.byte	0
 4110 0344 40       		.uleb128 0x40
 4111 0345 2E       		.uleb128 0x2e
 4112 0346 00       		.byte	0
 4113 0347 3F       		.uleb128 0x3f
 4114 0348 19       		.uleb128 0x19
 4115 0349 3C       		.uleb128 0x3c
 4116 034a 19       		.uleb128 0x19
 4117 034b 6E       		.uleb128 0x6e
 4118 034c 0E       		.uleb128 0xe
 4119 034d 03       		.uleb128 0x3
 4120 034e 0E       		.uleb128 0xe
 4121 034f 3A       		.uleb128 0x3a
 4122 0350 0B       		.uleb128 0xb
 4123 0351 3B       		.uleb128 0x3b
 4124 0352 05       		.uleb128 0x5
 4125 0353 00       		.byte	0
 4126 0354 00       		.byte	0
 4127 0355 00       		.byte	0
 4128              		.section	.debug_loc,"",%progbits
 4129              	.Ldebug_loc0:
 4130              	.LLST0:
 4131 0000 00000000 		.4byte	.LVL1
 4132 0004 A8000000 		.4byte	.LVL28
 4133 0008 0600     		.2byte	0x6
 4134 000a 03       		.byte	0x3
 4135 000b 00000000 		.4byte	SD1
 4136 000f 9F       		.byte	0x9f
 4137 0010 B0000000 		.4byte	.LVL30
 4138 0014 1C010000 		.4byte	.LFE261
 4139 0018 0600     		.2byte	0x6
 4140 001a 03       		.byte	0x3
 4141 001b 00000000 		.4byte	SD1
 4142 001f 9F       		.byte	0x9f
 4143 0020 00000000 		.4byte	0
 4144 0024 00000000 		.4byte	0
 4145              	.LLST1:
 4146 0028 06000000 		.4byte	.LVL2
 4147 002c A8000000 		.4byte	.LVL28
 4148 0030 0100     		.2byte	0x1
 4149 0032 55       		.byte	0x55
 4150 0033 B0000000 		.4byte	.LVL30
 4151 0037 1C010000 		.4byte	.LFE261
 4152 003b 0100     		.2byte	0x1
 4153 003d 55       		.byte	0x55
 4154 003e 00000000 		.4byte	0
 4155 0042 00000000 		.4byte	0
 4156              	.LLST2:
 4157 0046 08000000 		.4byte	.LVL3
ARM GAS  C:\Users\IDONNO~1\AppData\Local\Temp\cctBsQvq.s 			page 74


 4158 004a AC000000 		.4byte	.LVL29
 4159 004e 0100     		.2byte	0x1
 4160 0050 57       		.byte	0x57
 4161 0051 B0000000 		.4byte	.LVL30
 4162 0055 1C010000 		.4byte	.LFE261
 4163 0059 0100     		.2byte	0x1
 4164 005b 57       		.byte	0x57
 4165 005c 00000000 		.4byte	0
 4166 0060 00000000 		.4byte	0
 4167              	.LLST3:
 4168 0064 0E000000 		.4byte	.LVL4
 4169 0068 26000000 		.4byte	.LVL8
 4170 006c 0100     		.2byte	0x1
 4171 006e 54       		.byte	0x54
 4172 006f 28000000 		.4byte	.LVL9
 4173 0073 6A000000 		.4byte	.LVL20
 4174 0077 0100     		.2byte	0x1
 4175 0079 54       		.byte	0x54
 4176 007a 6C000000 		.4byte	.LVL21
 4177 007e A8000000 		.4byte	.LVL28
 4178 0082 0100     		.2byte	0x1
 4179 0084 54       		.byte	0x54
 4180 0085 B0000000 		.4byte	.LVL30
 4181 0089 1C010000 		.4byte	.LFE261
 4182 008d 0100     		.2byte	0x1
 4183 008f 54       		.byte	0x54
 4184 0090 00000000 		.4byte	0
 4185 0094 00000000 		.4byte	0
 4186              	.LLST4:
 4187 0098 10000000 		.4byte	.LVL5
 4188 009c 16000000 		.4byte	.LVL6
 4189 00a0 0300     		.2byte	0x3
 4190 00a2 08       		.byte	0x8
 4191 00a3 20       		.byte	0x20
 4192 00a4 9F       		.byte	0x9f
 4193 00a5 00000000 		.4byte	0
 4194 00a9 00000000 		.4byte	0
 4195              	.LLST5:
 4196 00ad 22000000 		.4byte	.LVL7
 4197 00b1 2E000000 		.4byte	.LVL10
 4198 00b5 0100     		.2byte	0x1
 4199 00b7 51       		.byte	0x51
 4200 00b8 5E000000 		.4byte	.LVL17
 4201 00bc 67000000 		.4byte	.LVL19-1
 4202 00c0 0100     		.2byte	0x1
 4203 00c2 51       		.byte	0x51
 4204 00c3 00000000 		.4byte	0
 4205 00c7 00000000 		.4byte	0
 4206              	.LLST6:
 4207 00cb 32000000 		.4byte	.LVL11
 4208 00cf 60000000 		.4byte	.LVL18
 4209 00d3 0600     		.2byte	0x6
 4210 00d5 03       		.byte	0x3
 4211 00d6 00000000 		.4byte	SD1
 4212 00da 9F       		.byte	0x9f
 4213 00db 00000000 		.4byte	0
 4214 00df 00000000 		.4byte	0
ARM GAS  C:\Users\IDONNO~1\AppData\Local\Temp\cctBsQvq.s 			page 75


 4215              	.LLST7:
 4216 00e3 32000000 		.4byte	.LVL11
 4217 00e7 60000000 		.4byte	.LVL18
 4218 00eb 0100     		.2byte	0x1
 4219 00ed 54       		.byte	0x54
 4220 00ee 00000000 		.4byte	0
 4221 00f2 00000000 		.4byte	0
 4222              	.LLST8:
 4223 00f6 32000000 		.4byte	.LVL11
 4224 00fa 3C000000 		.4byte	.LVL12
 4225 00fe 0200     		.2byte	0x2
 4226 0100 30       		.byte	0x30
 4227 0101 9F       		.byte	0x9f
 4228 0102 3C000000 		.4byte	.LVL12
 4229 0106 59000000 		.4byte	.LVL16-1
 4230 010a 0100     		.2byte	0x1
 4231 010c 51       		.byte	0x51
 4232 010d 00000000 		.4byte	0
 4233 0111 00000000 		.4byte	0
 4234              	.LLST9:
 4235 0115 54000000 		.4byte	.LVL15
 4236 0119 59000000 		.4byte	.LVL16-1
 4237 011d 0100     		.2byte	0x1
 4238 011f 51       		.byte	0x51
 4239 0120 00000000 		.4byte	0
 4240 0124 00000000 		.4byte	0
 4241              	.LLST10:
 4242 0128 54000000 		.4byte	.LVL15
 4243 012c 5A000000 		.4byte	.LVL16
 4244 0130 0600     		.2byte	0x6
 4245 0132 03       		.byte	0x3
 4246 0133 04000000 		.4byte	SD1+4
 4247 0137 9F       		.byte	0x9f
 4248 0138 00000000 		.4byte	0
 4249 013c 00000000 		.4byte	0
 4250              	.LLST11:
 4251 0140 72000000 		.4byte	.LVL22
 4252 0144 78000000 		.4byte	.LVL23
 4253 0148 0200     		.2byte	0x2
 4254 014a 30       		.byte	0x30
 4255 014b 9F       		.byte	0x9f
 4256 014c 00000000 		.4byte	0
 4257 0150 00000000 		.4byte	0
 4258              	.LLST12:
 4259 0154 84000000 		.4byte	.LVL24
 4260 0158 8A000000 		.4byte	.LVL25
 4261 015c 0300     		.2byte	0x3
 4262 015e 08       		.byte	0x8
 4263 015f 20       		.byte	0x20
 4264 0160 9F       		.byte	0x9f
 4265 0161 00000000 		.4byte	0
 4266 0165 00000000 		.4byte	0
 4267              	.LLST13:
 4268 0169 8A000000 		.4byte	.LVL25
 4269 016d 94000000 		.4byte	.LVL26
 4270 0171 0600     		.2byte	0x6
 4271 0173 03       		.byte	0x3
ARM GAS  C:\Users\IDONNO~1\AppData\Local\Temp\cctBsQvq.s 			page 76


 4272 0174 30000000 		.4byte	SD1+48
 4273 0178 9F       		.byte	0x9f
 4274 0179 E8000000 		.4byte	.LVL40
 4275 017d EE000000 		.4byte	.LVL41
 4276 0181 0600     		.2byte	0x6
 4277 0183 03       		.byte	0x3
 4278 0184 30000000 		.4byte	SD1+48
 4279 0188 9F       		.byte	0x9f
 4280 0189 00000000 		.4byte	0
 4281 018d 00000000 		.4byte	0
 4282              	.LLST14:
 4283 0191 A4000000 		.4byte	.LVL27
 4284 0195 A8000000 		.4byte	.LVL28
 4285 0199 0200     		.2byte	0x2
 4286 019b 30       		.byte	0x30
 4287 019c 9F       		.byte	0x9f
 4288 019d 00000000 		.4byte	0
 4289 01a1 00000000 		.4byte	0
 4290              	.LLST15:
 4291 01a5 B0000000 		.4byte	.LVL30
 4292 01a9 B6000000 		.4byte	.LVL31
 4293 01ad 0300     		.2byte	0x3
 4294 01af 08       		.byte	0x8
 4295 01b0 20       		.byte	0x20
 4296 01b1 9F       		.byte	0x9f
 4297 01b2 00000000 		.4byte	0
 4298 01b6 00000000 		.4byte	0
 4299              	.LLST16:
 4300 01ba B6000000 		.4byte	.LVL31
 4301 01be C0000000 		.4byte	.LVL32
 4302 01c2 0400     		.2byte	0x4
 4303 01c4 0A       		.byte	0xa
 4304 01c5 0002     		.2byte	0x200
 4305 01c7 9F       		.byte	0x9f
 4306 01c8 00000000 		.4byte	0
 4307 01cc 00000000 		.4byte	0
 4308              	.LLST17:
 4309 01d0 B6000000 		.4byte	.LVL31
 4310 01d4 C0000000 		.4byte	.LVL32
 4311 01d8 0600     		.2byte	0x6
 4312 01da 03       		.byte	0x3
 4313 01db 04000000 		.4byte	SD1+4
 4314 01df 9F       		.byte	0x9f
 4315 01e0 00000000 		.4byte	0
 4316 01e4 00000000 		.4byte	0
 4317              	.LLST18:
 4318 01e8 C6000000 		.4byte	.LVL33
 4319 01ec CC000000 		.4byte	.LVL34
 4320 01f0 0200     		.2byte	0x2
 4321 01f2 30       		.byte	0x30
 4322 01f3 9F       		.byte	0x9f
 4323 01f4 00000000 		.4byte	0
 4324 01f8 00000000 		.4byte	0
 4325              	.LLST19:
 4326 01fc DA000000 		.4byte	.LVL37
 4327 0200 E0000000 		.4byte	.LVL38
 4328 0204 0100     		.2byte	0x1
ARM GAS  C:\Users\IDONNO~1\AppData\Local\Temp\cctBsQvq.s 			page 77


 4329 0206 50       		.byte	0x50
 4330 0207 F8000000 		.4byte	.LVL43
 4331 020b FC000000 		.4byte	.LVL44
 4332 020f 0100     		.2byte	0x1
 4333 0211 50       		.byte	0x50
 4334 0212 00000000 		.4byte	0
 4335 0216 00000000 		.4byte	0
 4336              	.LLST20:
 4337 021a CE000000 		.4byte	.LVL35
 4338 021e D4000000 		.4byte	.LVL36
 4339 0222 0300     		.2byte	0x3
 4340 0224 08       		.byte	0x8
 4341 0225 20       		.byte	0x20
 4342 0226 9F       		.byte	0x9f
 4343 0227 00000000 		.4byte	0
 4344 022b 00000000 		.4byte	0
 4345              	.LLST21:
 4346 022f E0000000 		.4byte	.LVL38
 4347 0233 E6000000 		.4byte	.LVL39
 4348 0237 0200     		.2byte	0x2
 4349 0239 30       		.byte	0x30
 4350 023a 9F       		.byte	0x9f
 4351 023b 00000000 		.4byte	0
 4352 023f 00000000 		.4byte	0
 4353              	.LLST22:
 4354 0243 F8000000 		.4byte	.LVL43
 4355 0247 00010000 		.4byte	.LVL45
 4356 024b 0200     		.2byte	0x2
 4357 024d 38       		.byte	0x38
 4358 024e 9F       		.byte	0x9f
 4359 024f 00000000 		.4byte	0
 4360 0253 00000000 		.4byte	0
 4361              	.LLST23:
 4362 0257 F8000000 		.4byte	.LVL43
 4363 025b 00010000 		.4byte	.LVL45
 4364 025f 0600     		.2byte	0x6
 4365 0261 03       		.byte	0x3
 4366 0262 04000000 		.4byte	SD1+4
 4367 0266 9F       		.byte	0x9f
 4368 0267 00000000 		.4byte	0
 4369 026b 00000000 		.4byte	0
 4370              	.LLST24:
 4371 026f EE000000 		.4byte	.LVL41
 4372 0273 F8000000 		.4byte	.LVL43
 4373 0277 0200     		.2byte	0x2
 4374 0279 40       		.byte	0x40
 4375 027a 9F       		.byte	0x9f
 4376 027b 00000000 		.4byte	0
 4377 027f 00000000 		.4byte	0
 4378              	.LLST25:
 4379 0283 EE000000 		.4byte	.LVL41
 4380 0287 F8000000 		.4byte	.LVL43
 4381 028b 0600     		.2byte	0x6
 4382 028d 03       		.byte	0x3
 4383 028e 04000000 		.4byte	SD1+4
 4384 0292 9F       		.byte	0x9f
 4385 0293 00000000 		.4byte	0
ARM GAS  C:\Users\IDONNO~1\AppData\Local\Temp\cctBsQvq.s 			page 78


 4386 0297 00000000 		.4byte	0
 4387              	.LLST26:
 4388 029b 00000000 		.4byte	.LVL47
 4389 029f 12000000 		.4byte	.LVL49
 4390 02a3 0100     		.2byte	0x1
 4391 02a5 50       		.byte	0x50
 4392 02a6 12000000 		.4byte	.LVL49
 4393 02aa 58000000 		.4byte	.LVL53
 4394 02ae 0100     		.2byte	0x1
 4395 02b0 55       		.byte	0x55
 4396 02b1 58000000 		.4byte	.LVL53
 4397 02b5 6C000000 		.4byte	.LVL54
 4398 02b9 0100     		.2byte	0x1
 4399 02bb 50       		.byte	0x50
 4400 02bc 6C000000 		.4byte	.LVL54
 4401 02c0 98000000 		.4byte	.LFE263
 4402 02c4 0100     		.2byte	0x1
 4403 02c6 55       		.byte	0x55
 4404 02c7 00000000 		.4byte	0
 4405 02cb 00000000 		.4byte	0
 4406              	.LLST27:
 4407 02cf 00000000 		.4byte	.LVL47
 4408 02d3 0C000000 		.4byte	.LVL48
 4409 02d7 0100     		.2byte	0x1
 4410 02d9 51       		.byte	0x51
 4411 02da 0C000000 		.4byte	.LVL48
 4412 02de 4A000000 		.4byte	.LVL51
 4413 02e2 0100     		.2byte	0x1
 4414 02e4 54       		.byte	0x54
 4415 02e5 4A000000 		.4byte	.LVL51
 4416 02e9 58000000 		.4byte	.LVL53
 4417 02ed 1300     		.2byte	0x13
 4418 02ef F3       		.byte	0xf3
 4419 02f0 01       		.uleb128 0x1
 4420 02f1 51       		.byte	0x51
 4421 02f2 03       		.byte	0x3
 4422 02f3 00000000 		.4byte	.LANCHOR1
 4423 02f7 F3       		.byte	0xf3
 4424 02f8 01       		.uleb128 0x1
 4425 02f9 51       		.byte	0x51
 4426 02fa 30       		.byte	0x30
 4427 02fb 2E       		.byte	0x2e
 4428 02fc 28       		.byte	0x28
 4429 02fd 0100     		.2byte	0x1
 4430 02ff 16       		.byte	0x16
 4431 0300 13       		.byte	0x13
 4432 0301 9F       		.byte	0x9f
 4433 0302 58000000 		.4byte	.LVL53
 4434 0306 98000000 		.4byte	.LFE263
 4435 030a 0100     		.2byte	0x1
 4436 030c 54       		.byte	0x54
 4437 030d 00000000 		.4byte	0
 4438 0311 00000000 		.4byte	0
 4439              	.LLST28:
 4440 0315 12000000 		.4byte	.LVL49
 4441 0319 4A000000 		.4byte	.LVL51
 4442 031d 0100     		.2byte	0x1
ARM GAS  C:\Users\IDONNO~1\AppData\Local\Temp\cctBsQvq.s 			page 79


 4443 031f 54       		.byte	0x54
 4444 0320 4A000000 		.4byte	.LVL51
 4445 0324 56000000 		.4byte	.LVL52
 4446 0328 1300     		.2byte	0x13
 4447 032a F3       		.byte	0xf3
 4448 032b 01       		.uleb128 0x1
 4449 032c 51       		.byte	0x51
 4450 032d 03       		.byte	0x3
 4451 032e 00000000 		.4byte	.LANCHOR1
 4452 0332 F3       		.byte	0xf3
 4453 0333 01       		.uleb128 0x1
 4454 0334 51       		.byte	0x51
 4455 0335 30       		.byte	0x30
 4456 0336 2E       		.byte	0x2e
 4457 0337 28       		.byte	0x28
 4458 0338 0100     		.2byte	0x1
 4459 033a 16       		.byte	0x16
 4460 033b 13       		.byte	0x13
 4461 033c 9F       		.byte	0x9f
 4462 033d 72000000 		.4byte	.LVL56
 4463 0341 98000000 		.4byte	.LFE263
 4464 0345 0100     		.2byte	0x1
 4465 0347 54       		.byte	0x54
 4466 0348 00000000 		.4byte	0
 4467 034c 00000000 		.4byte	0
 4468              	.LLST29:
 4469 0350 12000000 		.4byte	.LVL49
 4470 0354 56000000 		.4byte	.LVL52
 4471 0358 0100     		.2byte	0x1
 4472 035a 55       		.byte	0x55
 4473 035b 72000000 		.4byte	.LVL56
 4474 035f 98000000 		.4byte	.LFE263
 4475 0363 0100     		.2byte	0x1
 4476 0365 55       		.byte	0x55
 4477 0366 00000000 		.4byte	0
 4478 036a 00000000 		.4byte	0
 4479              	.LLST30:
 4480 036e 14000000 		.4byte	.LVL50
 4481 0372 56000000 		.4byte	.LVL52
 4482 0376 0100     		.2byte	0x1
 4483 0378 53       		.byte	0x53
 4484 0379 72000000 		.4byte	.LVL56
 4485 037d 98000000 		.4byte	.LFE263
 4486 0381 0100     		.2byte	0x1
 4487 0383 53       		.byte	0x53
 4488 0384 00000000 		.4byte	0
 4489 0388 00000000 		.4byte	0
 4490              	.LLST31:
 4491 038c 00000000 		.4byte	.LVL57
 4492 0390 24000000 		.4byte	.LVL60
 4493 0394 0100     		.2byte	0x1
 4494 0396 50       		.byte	0x50
 4495 0397 24000000 		.4byte	.LVL60
 4496 039b 30000000 		.4byte	.LFE264
 4497 039f 0400     		.2byte	0x4
 4498 03a1 F3       		.byte	0xf3
 4499 03a2 01       		.uleb128 0x1
ARM GAS  C:\Users\IDONNO~1\AppData\Local\Temp\cctBsQvq.s 			page 80


 4500 03a3 50       		.byte	0x50
 4501 03a4 9F       		.byte	0x9f
 4502 03a5 00000000 		.4byte	0
 4503 03a9 00000000 		.4byte	0
 4504              	.LLST32:
 4505 03ad 0C000000 		.4byte	.LVL58
 4506 03b1 16000000 		.4byte	.LVL59
 4507 03b5 0100     		.2byte	0x1
 4508 03b7 53       		.byte	0x53
 4509 03b8 00000000 		.4byte	0
 4510 03bc 00000000 		.4byte	0
 4511              		.section	.debug_aranges,"",%progbits
 4512 0000 3C000000 		.4byte	0x3c
 4513 0004 0200     		.2byte	0x2
 4514 0006 00000000 		.4byte	.Ldebug_info0
 4515 000a 04       		.byte	0x4
 4516 000b 00       		.byte	0
 4517 000c 0000     		.2byte	0
 4518 000e 0000     		.2byte	0
 4519 0010 00000000 		.4byte	.LFB260
 4520 0014 10000000 		.4byte	.LFE260-.LFB260
 4521 0018 00000000 		.4byte	.LFB261
 4522 001c 1C010000 		.4byte	.LFE261-.LFB261
 4523 0020 00000000 		.4byte	.LFB262
 4524 0024 20000000 		.4byte	.LFE262-.LFB262
 4525 0028 00000000 		.4byte	.LFB263
 4526 002c 98000000 		.4byte	.LFE263-.LFB263
 4527 0030 00000000 		.4byte	.LFB264
 4528 0034 30000000 		.4byte	.LFE264-.LFB264
 4529 0038 00000000 		.4byte	0
 4530 003c 00000000 		.4byte	0
 4531              		.section	.debug_ranges,"",%progbits
 4532              	.Ldebug_ranges0:
 4533 0000 02000000 		.4byte	.LBB230
 4534 0004 A8000000 		.4byte	.LBE230
 4535 0008 B0000000 		.4byte	.LBB305
 4536 000c 1C010000 		.4byte	.LBE305
 4537 0010 00000000 		.4byte	0
 4538 0014 00000000 		.4byte	0
 4539 0018 1E000000 		.4byte	.LBB238
 4540 001c 28000000 		.4byte	.LBE238
 4541 0020 2E000000 		.4byte	.LBB243
 4542 0024 6C000000 		.4byte	.LBE243
 4543 0028 00000000 		.4byte	0
 4544 002c 00000000 		.4byte	0
 4545 0030 8A000000 		.4byte	.LBB256
 4546 0034 94000000 		.4byte	.LBE256
 4547 0038 E8000000 		.4byte	.LBB300
 4548 003c EE000000 		.4byte	.LBE300
 4549 0040 00000000 		.4byte	0
 4550 0044 00000000 		.4byte	0
 4551 0048 A0000000 		.4byte	.LBB259
 4552 004c A2000000 		.4byte	.LBE259
 4553 0050 A4000000 		.4byte	.LBB270
 4554 0054 A8000000 		.4byte	.LBE270
 4555 0058 00000000 		.4byte	0
 4556 005c 00000000 		.4byte	0
ARM GAS  C:\Users\IDONNO~1\AppData\Local\Temp\cctBsQvq.s 			page 81


 4557 0060 CE000000 		.4byte	.LBB285
 4558 0064 E8000000 		.4byte	.LBE285
 4559 0068 F8000000 		.4byte	.LBB303
 4560 006c 1C010000 		.4byte	.LBE303
 4561 0070 00000000 		.4byte	0
 4562 0074 00000000 		.4byte	0
 4563 0078 12000000 		.4byte	.LBB308
 4564 007c 58000000 		.4byte	.LBE308
 4565 0080 72000000 		.4byte	.LBB311
 4566 0084 98000000 		.4byte	.LBE311
 4567 0088 00000000 		.4byte	0
 4568 008c 00000000 		.4byte	0
 4569 0090 0C000000 		.4byte	.LBB312
 4570 0094 0E000000 		.4byte	.LBE312
 4571 0098 10000000 		.4byte	.LBB315
 4572 009c 16000000 		.4byte	.LBE315
 4573 00a0 00000000 		.4byte	0
 4574 00a4 00000000 		.4byte	0
 4575 00a8 00000000 		.4byte	.LFB260
 4576 00ac 10000000 		.4byte	.LFE260
 4577 00b0 00000000 		.4byte	.LFB261
 4578 00b4 1C010000 		.4byte	.LFE261
 4579 00b8 00000000 		.4byte	.LFB262
 4580 00bc 20000000 		.4byte	.LFE262
 4581 00c0 00000000 		.4byte	.LFB263
 4582 00c4 98000000 		.4byte	.LFE263
 4583 00c8 00000000 		.4byte	.LFB264
 4584 00cc 30000000 		.4byte	.LFE264
 4585 00d0 00000000 		.4byte	0
 4586 00d4 00000000 		.4byte	0
 4587              		.section	.debug_line,"",%progbits
 4588              	.Ldebug_line0:
 4589 0000 E8040000 		.section	.debug_str,"MS",%progbits,1
 4589      0200A403 
 4589      00000201 
 4589      FB0E0D00 
 4589      01010101 
 4590              	.LASF2:
 4591 0000 73697A65 		.ascii	"size_t\000"
 4591      5F7400
 4592              	.LASF85:
 4593 0007 73697A65 		.ascii	"sizetype\000"
 4593      74797065 
 4593      00
 4594              	.LASF126:
 4595 0010 77747365 		.ascii	"wtsemp\000"
 4595      6D7000
 4596              	.LASF30:
 4597 0017 73797374 		.ascii	"systime_t\000"
 4597      696D655F 
 4597      7400
 4598              	.LASF112:
 4599 0021 504C4C49 		.ascii	"PLLI2SCFGR\000"
 4599      32534346 
 4599      475200
 4600              	.LASF35:
 4601 002c 705F6374 		.ascii	"p_ctx\000"
ARM GAS  C:\Users\IDONNO~1\AppData\Local\Temp\cctBsQvq.s 			page 82


 4601      7800
 4602              	.LASF25:
 4603 0032 74707269 		.ascii	"tprio_t\000"
 4603      6F5F7400 
 4604              	.LASF45:
 4605 003a 705F6D73 		.ascii	"p_msgqueue\000"
 4605      67717565 
 4605      756500
 4606              	.LASF61:
 4607 0045 725F6374 		.ascii	"r_ctx\000"
 4607      7800
 4608              	.LASF17:
 4609 004b 696E7433 		.ascii	"int32_t\000"
 4609      325F7400 
 4610              	.LASF173:
 4611 0053 53657269 		.ascii	"SerialConfig\000"
 4611      616C436F 
 4611      6E666967 
 4611      00
 4612              	.LASF179:
 4613 0060 77726974 		.ascii	"writet\000"
 4613      657400
 4614              	.LASF65:
 4615 0067 76746675 		.ascii	"vtfunc_t\000"
 4615      6E635F74 
 4615      00
 4616              	.LASF74:
 4617 0070 63685F76 		.ascii	"ch_virtual_timers_list\000"
 4617      69727475 
 4617      616C5F74 
 4617      696D6572 
 4617      735F6C69 
 4618              	.LASF175:
 4619 0087 77726974 		.ascii	"write\000"
 4619      6500
 4620              	.LASF143:
 4621 008d 656C5F66 		.ascii	"el_flags\000"
 4621      6C616773 
 4621      00
 4622              	.LASF199:
 4623 0096 636F6E66 		.ascii	"config\000"
 4623      696700
 4624              	.LASF168:
 4625 009d 73746174 		.ascii	"state\000"
 4625      6500
 4626              	.LASF177:
 4627 00a3 70757474 		.ascii	"putt\000"
 4627      00
 4628              	.LASF195:
 4629 00a8 73657276 		.ascii	"serve_interrupt\000"
 4629      655F696E 
 4629      74657272 
 4629      75707400 
 4630              	.LASF192:
 4631 00b8 6F73616C 		.ascii	"osalSysLockFromISR\000"
 4631      5379734C 
 4631      6F636B46 
ARM GAS  C:\Users\IDONNO~1\AppData\Local\Temp\cctBsQvq.s 			page 83


 4631      726F6D49 
 4631      535200
 4632              	.LASF194:
 4633 00cb 7365745F 		.ascii	"set_error\000"
 4633      6572726F 
 4633      7200
 4634              	.LASF134:
 4635 00d5 6D5F6F77 		.ascii	"m_owner\000"
 4635      6E657200 
 4636              	.LASF72:
 4637 00dd 76745F70 		.ascii	"vt_par\000"
 4637      617200
 4638              	.LASF123:
 4639 00e4 65786974 		.ascii	"exitcode\000"
 4639      636F6465 
 4639      00
 4640              	.LASF3:
 4641 00ed 5F5F7569 		.ascii	"__uint8_t\000"
 4641      6E74385F 
 4641      7400
 4642              	.LASF153:
 4643 00f7 715F746F 		.ascii	"q_top\000"
 4643      7000
 4644              	.LASF128:
 4645 00fd 65776D61 		.ascii	"ewmask\000"
 4645      736B00
 4646              	.LASF103:
 4647 0104 41484232 		.ascii	"AHB2LPENR\000"
 4647      4C50454E 
 4647      5200
 4648              	.LASF180:
 4649 010e 72656164 		.ascii	"readt\000"
 4649      7400
 4650              	.LASF200:
 4651 0114 73645F6C 		.ascii	"sd_lld_start\000"
 4651      6C645F73 
 4651      74617274 
 4651      00
 4652              	.LASF152:
 4653 0121 715F6275 		.ascii	"q_buffer\000"
 4653      66666572 
 4653      00
 4654              	.LASF156:
 4655 012a 715F6E6F 		.ascii	"q_notify\000"
 4655      74696679 
 4655      00
 4656              	.LASF207:
 4657 0133 73644F62 		.ascii	"sdObjectInit\000"
 4657      6A656374 
 4657      496E6974 
 4657      00
 4658              	.LASF36:
 4659 0140 705F6E65 		.ascii	"p_newer\000"
 4659      77657200 
 4660              	.LASF9:
 4661 0148 6C6F6E67 		.ascii	"long int\000"
 4661      20696E74 
ARM GAS  C:\Users\IDONNO~1\AppData\Local\Temp\cctBsQvq.s 			page 84


 4661      00
 4662              	.LASF32:
 4663 0151 705F6E65 		.ascii	"p_next\000"
 4663      787400
 4664              	.LASF182:
 4665 0158 706F7274 		.ascii	"port_unlock\000"
 4665      5F756E6C 
 4665      6F636B00 
 4666              	.LASF155:
 4667 0164 715F7264 		.ascii	"q_rdptr\000"
 4667      70747200 
 4668              	.LASF33:
 4669 016c 705F7072 		.ascii	"p_prev\000"
 4669      657600
 4670              	.LASF215:
 4671 0173 64656661 		.ascii	"default_config\000"
 4671      756C745F 
 4671      636F6E66 
 4671      696700
 4672              	.LASF185:
 4673 0182 63685379 		.ascii	"chSysLockFromISR\000"
 4673      734C6F63 
 4673      6B46726F 
 4673      6D495352 
 4673      00
 4674              	.LASF22:
 4675 0193 74737461 		.ascii	"tstate_t\000"
 4675      74655F74 
 4675      00
 4676              	.LASF55:
 4677 019c 74687265 		.ascii	"threads_queue_t\000"
 4677      6164735F 
 4677      71756575 
 4677      655F7400 
 4678              	.LASF48:
 4679 01ac 705F6D74 		.ascii	"p_mtxlist\000"
 4679      786C6973 
 4679      7400
 4680              	.LASF170:
 4681 01b6 6F717565 		.ascii	"oqueue\000"
 4681      756500
 4682              	.LASF116:
 4683 01bd 72656761 		.ascii	"regarm_t\000"
 4683      726D5F74 
 4683      00
 4684              	.LASF100:
 4685 01c6 41504232 		.ascii	"APB2ENR\000"
 4685      454E5200 
 4686              	.LASF149:
 4687 01ce 696F5F71 		.ascii	"io_queue\000"
 4687      75657565 
 4687      00
 4688              	.LASF102:
 4689 01d7 41484231 		.ascii	"AHB1LPENR\000"
 4689      4C50454E 
 4689      5200
 4690              	.LASF171:
ARM GAS  C:\Users\IDONNO~1\AppData\Local\Temp\cctBsQvq.s 			page 85


 4691 01e1 75736172 		.ascii	"usart\000"
 4691      7400
 4692              	.LASF157:
 4693 01e7 715F6C69 		.ascii	"q_link\000"
 4693      6E6B00
 4694              	.LASF1:
 4695 01ee 7369676E 		.ascii	"signed char\000"
 4695      65642063 
 4695      68617200 
 4696              	.LASF42:
 4697 01fa 705F7072 		.ascii	"p_preempt\000"
 4697      65656D70 
 4697      7400
 4698              	.LASF15:
 4699 0204 75696E74 		.ascii	"uint8_t\000"
 4699      385F7400 
 4700              	.LASF27:
 4701 020c 6576656E 		.ascii	"eventmask_t\000"
 4701      746D6173 
 4701      6B5F7400 
 4702              	.LASF118:
 4703 0218 636F6E74 		.ascii	"context\000"
 4703      65787400 
 4704              	.LASF125:
 4705 0220 77747472 		.ascii	"wttrp\000"
 4705      7000
 4706              	.LASF186:
 4707 0226 63685379 		.ascii	"chSysUnlockFromISR\000"
 4707      73556E6C 
 4707      6F636B46 
 4707      726F6D49 
 4707      535200
 4708              	.LASF91:
 4709 0239 52455345 		.ascii	"RESERVED0\000"
 4709      52564544 
 4709      3000
 4710              	.LASF94:
 4711 0243 52455345 		.ascii	"RESERVED1\000"
 4711      52564544 
 4711      3100
 4712              	.LASF4:
 4713 024d 756E7369 		.ascii	"unsigned char\000"
 4713      676E6564 
 4713      20636861 
 4713      7200
 4714              	.LASF101:
 4715 025b 52455345 		.ascii	"RESERVED3\000"
 4715      52564544 
 4715      3300
 4716              	.LASF105:
 4717 0265 52455345 		.ascii	"RESERVED4\000"
 4717      52564544 
 4717      3400
 4718              	.LASF108:
 4719 026f 52455345 		.ascii	"RESERVED5\000"
 4719      52564544 
 4719      3500
ARM GAS  C:\Users\IDONNO~1\AppData\Local\Temp\cctBsQvq.s 			page 86


 4720              	.LASF110:
 4721 0279 52455345 		.ascii	"RESERVED6\000"
 4721      52564544 
 4721      3600
 4722              	.LASF78:
 4723 0283 70616E69 		.ascii	"panic_msg\000"
 4723      635F6D73 
 4723      6700
 4724              	.LASF211:
 4725 028d 7372632F 		.ascii	"src/ChibiOS_3.0.2/os/hal/ports/STM32/LLD/USARTv1/se"
 4725      43686962 
 4725      694F535F 
 4725      332E302E 
 4725      322F6F73 
 4726 02c0 7269616C 		.ascii	"rial_lld.c\000"
 4726      5F6C6C64 
 4726      2E6300
 4727              	.LASF62:
 4728 02cb 725F6E65 		.ascii	"r_newer\000"
 4728      77657200 
 4729              	.LASF76:
 4730 02d3 73797374 		.ascii	"system_debug_t\000"
 4730      656D5F64 
 4730      65627567 
 4730      5F7400
 4731              	.LASF162:
 4732 02e2 53445F55 		.ascii	"SD_UNINIT\000"
 4732      4E494E49 
 4732      5400
 4733              	.LASF161:
 4734 02ec 5F426F6F 		.ascii	"_Bool\000"
 4734      6C00
 4735              	.LASF98:
 4736 02f2 52455345 		.ascii	"RESERVED2\000"
 4736      52564544 
 4736      3200
 4737              	.LASF190:
 4738 02fc 666C6167 		.ascii	"flags\000"
 4738      7300
 4739              	.LASF136:
 4740 0302 63686172 		.ascii	"char\000"
 4740      00
 4741              	.LASF88:
 4742 0307 41484231 		.ascii	"AHB1RSTR\000"
 4742      52535452 
 4742      00
 4743              	.LASF34:
 4744 0310 705F7072 		.ascii	"p_prio\000"
 4744      696F00
 4745              	.LASF6:
 4746 0317 5F5F7569 		.ascii	"__uint16_t\000"
 4746      6E743136 
 4746      5F7400
 4747              	.LASF96:
 4748 0322 41484232 		.ascii	"AHB2ENR\000"
 4748      454E5200 
 4749              	.LASF124:
ARM GAS  C:\Users\IDONNO~1\AppData\Local\Temp\cctBsQvq.s 			page 87


 4750 032a 77746F62 		.ascii	"wtobjp\000"
 4750      6A7000
 4751              	.LASF178:
 4752 0331 67657474 		.ascii	"gett\000"
 4752      00
 4753              	.LASF117:
 4754 0336 73746B61 		.ascii	"stkalign_t\000"
 4754      6C69676E 
 4754      5F7400
 4755              	.LASF115:
 4756 0341 55534152 		.ascii	"USART_TypeDef\000"
 4756      545F5479 
 4756      70654465 
 4756      6600
 4757              	.LASF138:
 4758 034f 6576656E 		.ascii	"event_listener_t\000"
 4758      745F6C69 
 4758      7374656E 
 4758      65725F74 
 4758      00
 4759              	.LASF109:
 4760 0360 42444352 		.ascii	"BDCR\000"
 4760      00
 4761              	.LASF29:
 4762 0365 636E745F 		.ascii	"cnt_t\000"
 4762      7400
 4763              	.LASF71:
 4764 036b 76745F66 		.ascii	"vt_func\000"
 4764      756E6300 
 4765              	.LASF172:
 4766 0373 73706565 		.ascii	"speed\000"
 4766      6400
 4767              	.LASF47:
 4768 0379 705F6570 		.ascii	"p_epending\000"
 4768      656E6469 
 4768      6E6700
 4769              	.LASF127:
 4770 0384 77746D74 		.ascii	"wtmtxp\000"
 4770      787000
 4771              	.LASF58:
 4772 038b 63685F72 		.ascii	"ch_ready_list\000"
 4772      65616479 
 4772      5F6C6973 
 4772      7400
 4773              	.LASF87:
 4774 0399 43464752 		.ascii	"CFGR\000"
 4774      00
 4775              	.LASF191:
 4776 039e 6F73616C 		.ascii	"osalSysUnlockFromISR\000"
 4776      53797355 
 4776      6E6C6F63 
 4776      6B46726F 
 4776      6D495352 
 4777              	.LASF146:
 4778 03b3 65735F6E 		.ascii	"es_next\000"
 4778      65787400 
 4779              	.LASF151:
ARM GAS  C:\Users\IDONNO~1\AppData\Local\Temp\cctBsQvq.s 			page 88


 4780 03bb 715F636F 		.ascii	"q_counter\000"
 4780      756E7465 
 4780      7200
 4781              	.LASF13:
 4782 03c5 5F5F7569 		.ascii	"__uint64_t\000"
 4782      6E743634 
 4782      5F7400
 4783              	.LASF11:
 4784 03d0 6C6F6E67 		.ascii	"long unsigned int\000"
 4784      20756E73 
 4784      69676E65 
 4784      6420696E 
 4784      7400
 4785              	.LASF129:
 4786 03e2 63685F73 		.ascii	"ch_semaphore\000"
 4786      656D6170 
 4786      686F7265 
 4786      00
 4787              	.LASF53:
 4788 03ef 63685F74 		.ascii	"ch_thread\000"
 4788      68726561 
 4788      6400
 4789              	.LASF73:
 4790 03f9 76697274 		.ascii	"virtual_timers_list_t\000"
 4790      75616C5F 
 4790      74696D65 
 4790      72735F6C 
 4790      6973745F 
 4791              	.LASF140:
 4792 040f 656C5F6E 		.ascii	"el_next\000"
 4792      65787400 
 4793              	.LASF66:
 4794 0417 76697274 		.ascii	"virtual_timer_t\000"
 4794      75616C5F 
 4794      74696D65 
 4794      725F7400 
 4795              	.LASF57:
 4796 0427 72656164 		.ascii	"ready_list_t\000"
 4796      795F6C69 
 4796      73745F74 
 4796      00
 4797              	.LASF154:
 4798 0434 715F7772 		.ascii	"q_wrptr\000"
 4798      70747200 
 4799              	.LASF174:
 4800 043c 53657269 		.ascii	"SerialDriverVMT\000"
 4800      616C4472 
 4800      69766572 
 4800      564D5400 
 4801              	.LASF193:
 4802 044c 75736172 		.ascii	"usart_deinit\000"
 4802      745F6465 
 4802      696E6974 
 4802      00
 4803              	.LASF54:
 4804 0459 63685F74 		.ascii	"ch_threads_list\000"
 4804      68726561 
ARM GAS  C:\Users\IDONNO~1\AppData\Local\Temp\cctBsQvq.s 			page 89


 4804      64735F6C 
 4804      69737400 
 4805              	.LASF197:
 4806 0469 73645F6C 		.ascii	"sd_lld_init\000"
 4806      6C645F69 
 4806      6E697400 
 4807              	.LASF86:
 4808 0475 504C4C43 		.ascii	"PLLCFGR\000"
 4808      46475200 
 4809              	.LASF10:
 4810 047d 5F5F7569 		.ascii	"__uint32_t\000"
 4810      6E743332 
 4810      5F7400
 4811              	.LASF204:
 4812 0488 7364496E 		.ascii	"sdIncomingDataI\000"
 4812      636F6D69 
 4812      6E674461 
 4812      74614900 
 4813              	.LASF12:
 4814 0498 6C6F6E67 		.ascii	"long long int\000"
 4814      206C6F6E 
 4814      6720696E 
 4814      7400
 4815              	.LASF133:
 4816 04a6 6D5F7175 		.ascii	"m_queue\000"
 4816      65756500 
 4817              	.LASF183:
 4818 04ae 706F7274 		.ascii	"port_lock_from_isr\000"
 4818      5F6C6F63 
 4818      6B5F6672 
 4818      6F6D5F69 
 4818      737200
 4819              	.LASF111:
 4820 04c1 53534347 		.ascii	"SSCGR\000"
 4820      5200
 4821              	.LASF68:
 4822 04c7 76745F6E 		.ascii	"vt_next\000"
 4822      65787400 
 4823              	.LASF69:
 4824 04cf 76745F70 		.ascii	"vt_prev\000"
 4824      72657600 
 4825              	.LASF114:
 4826 04d7 47545052 		.ascii	"GTPR\000"
 4826      00
 4827              	.LASF93:
 4828 04dc 41504232 		.ascii	"APB2RSTR\000"
 4828      52535452 
 4828      00
 4829              	.LASF147:
 4830 04e5 6576656E 		.ascii	"event_source_t\000"
 4830      745F736F 
 4830      75726365 
 4830      5F7400
 4831              	.LASF213:
 4832 04f4 63684F51 		.ascii	"chOQIsEmptyI\000"
 4832      4973456D 
 4832      70747949 
ARM GAS  C:\Users\IDONNO~1\AppData\Local\Temp\cctBsQvq.s 			page 90


 4832      00
 4833              	.LASF202:
 4834 0501 49544D5F 		.ascii	"ITM_RxBuffer\000"
 4834      52784275 
 4834      66666572 
 4834      00
 4835              	.LASF107:
 4836 050e 41504232 		.ascii	"APB2LPENR\000"
 4836      4C50454E 
 4836      5200
 4837              	.LASF158:
 4838 0518 716E6F74 		.ascii	"qnotify_t\000"
 4838      6966795F 
 4838      7400
 4839              	.LASF44:
 4840 0522 705F7761 		.ascii	"p_waiting\000"
 4840      6974696E 
 4840      6700
 4841              	.LASF167:
 4842 052c 6576656E 		.ascii	"event\000"
 4842      7400
 4843              	.LASF40:
 4844 0532 705F666C 		.ascii	"p_flags\000"
 4844      61677300 
 4845              	.LASF176:
 4846 053a 72656164 		.ascii	"read\000"
 4846      00
 4847              	.LASF84:
 4848 053f 69646C65 		.ascii	"idle_thread_wa\000"
 4848      5F746872 
 4848      6561645F 
 4848      776100
 4849              	.LASF0:
 4850 054e 756E7369 		.ascii	"unsigned int\000"
 4850      676E6564 
 4850      20696E74 
 4850      00
 4851              	.LASF20:
 4852 055b 7274636E 		.ascii	"rtcnt_t\000"
 4852      745F7400 
 4853              	.LASF50:
 4854 0563 705F6D70 		.ascii	"p_mpool\000"
 4854      6F6F6C00 
 4855              	.LASF41:
 4856 056b 705F7265 		.ascii	"p_refs\000"
 4856      667300
 4857              	.LASF205:
 4858 0572 63684F51 		.ascii	"chOQGetI\000"
 4858      47657449 
 4858      00
 4859              	.LASF144:
 4860 057b 656C5F77 		.ascii	"el_wflags\000"
 4860      666C6167 
 4860      7300
 4861              	.LASF142:
 4862 0585 656C5F65 		.ascii	"el_events\000"
 4862      76656E74 
ARM GAS  C:\Users\IDONNO~1\AppData\Local\Temp\cctBsQvq.s 			page 91


 4862      7300
 4863              	.LASF206:
 4864 058f 5F706F72 		.ascii	"_port_irq_epilogue\000"
 4864      745F6972 
 4864      715F6570 
 4864      696C6F67 
 4864      756500
 4865              	.LASF120:
 4866 05a2 6F666673 		.ascii	"offset\000"
 4866      657400
 4867              	.LASF106:
 4868 05a9 41504231 		.ascii	"APB1LPENR\000"
 4868      4C50454E 
 4868      5200
 4869              	.LASF43:
 4870 05b3 705F7469 		.ascii	"p_time\000"
 4870      6D6500
 4871              	.LASF203:
 4872 05ba 63684576 		.ascii	"chEvtBroadcastFlagsI\000"
 4872      7442726F 
 4872      61646361 
 4872      7374466C 
 4872      61677349 
 4873              	.LASF90:
 4874 05cf 41484233 		.ascii	"AHB3RSTR\000"
 4874      52535452 
 4874      00
 4875              	.LASF31:
 4876 05d8 74687265 		.ascii	"thread_t\000"
 4876      61645F74 
 4876      00
 4877              	.LASF209:
 4878 05e1 6E766963 		.ascii	"nvicDisableVector\000"
 4878      44697361 
 4878      626C6556 
 4878      6563746F 
 4878      7200
 4879              	.LASF51:
 4880 05f3 74687265 		.ascii	"thread_reference_t\000"
 4880      61645F72 
 4880      65666572 
 4880      656E6365 
 4880      5F7400
 4881              	.LASF49:
 4882 0606 705F7265 		.ascii	"p_realprio\000"
 4882      616C7072 
 4882      696F00
 4883              	.LASF119:
 4884 0611 706F7274 		.ascii	"port_intctx\000"
 4884      5F696E74 
 4884      63747800 
 4885              	.LASF184:
 4886 061d 706F7274 		.ascii	"port_unlock_from_isr\000"
 4886      5F756E6C 
 4886      6F636B5F 
 4886      66726F6D 
 4886      5F697372 
ARM GAS  C:\Users\IDONNO~1\AppData\Local\Temp\cctBsQvq.s 			page 92


 4887              	.LASF70:
 4888 0632 76745F64 		.ascii	"vt_delta\000"
 4888      656C7461 
 4888      00
 4889              	.LASF92:
 4890 063b 41504231 		.ascii	"APB1RSTR\000"
 4890      52535452 
 4890      00
 4891              	.LASF198:
 4892 0644 75736172 		.ascii	"usart_init\000"
 4892      745F696E 
 4892      697400
 4893              	.LASF67:
 4894 064f 63685F76 		.ascii	"ch_virtual_timer\000"
 4894      69727475 
 4894      616C5F74 
 4894      696D6572 
 4894      00
 4895              	.LASF99:
 4896 0660 41504231 		.ascii	"APB1ENR\000"
 4896      454E5200 
 4897              	.LASF131:
 4898 0668 735F636E 		.ascii	"s_cnt\000"
 4898      7400
 4899              	.LASF14:
 4900 066e 6C6F6E67 		.ascii	"long long unsigned int\000"
 4900      206C6F6E 
 4900      6720756E 
 4900      7369676E 
 4900      65642069 
 4901              	.LASF37:
 4902 0685 705F6F6C 		.ascii	"p_older\000"
 4902      64657200 
 4903              	.LASF16:
 4904 068d 75696E74 		.ascii	"uint16_t\000"
 4904      31365F74 
 4904      00
 4905              	.LASF26:
 4906 0696 6D73675F 		.ascii	"msg_t\000"
 4906      7400
 4907              	.LASF56:
 4908 069c 63685F74 		.ascii	"ch_threads_queue\000"
 4908      68726561 
 4908      64735F71 
 4908      75657565 
 4908      00
 4909              	.LASF28:
 4910 06ad 6576656E 		.ascii	"eventflags_t\000"
 4910      74666C61 
 4910      67735F74 
 4910      00
 4911              	.LASF189:
 4912 06ba 76616C75 		.ascii	"value\000"
 4912      6500
 4913              	.LASF24:
 4914 06c0 74736C69 		.ascii	"tslices_t\000"
 4914      6365735F 
ARM GAS  C:\Users\IDONNO~1\AppData\Local\Temp\cctBsQvq.s 			page 93


 4914      7400
 4915              	.LASF64:
 4916 06ca 725F6375 		.ascii	"r_current\000"
 4916      7272656E 
 4916      7400
 4917              	.LASF210:
 4918 06d4 474E5520 		.ascii	"GNU C99 5.4.1 20160919 (release) [ARM/embedded-5-br"
 4918      43393920 
 4918      352E342E 
 4918      31203230 
 4918      31363039 
 4919 0707 616E6368 		.ascii	"anch revision 240496] -mcpu=cortex-m4 -mfloat-abi=h"
 4919      20726576 
 4919      6973696F 
 4919      6E203234 
 4919      30343936 
 4920 073a 61726420 		.ascii	"ard -mfpu=fpv4-sp-d16 -mno-thumb-interwork -mthumb "
 4920      2D6D6670 
 4920      753D6670 
 4920      76342D73 
 4920      702D6431 
 4921 076d 2D676764 		.ascii	"-ggdb -O2 -std=gnu99 -fomit-frame-pointer -falign-f"
 4921      62202D4F 
 4921      32202D73 
 4921      74643D67 
 4921      6E753939 
 4922 07a0 756E6374 		.ascii	"unctions=16 -ffunction-sections -fdata-sections -fn"
 4922      696F6E73 
 4922      3D313620 
 4922      2D666675 
 4922      6E637469 
 4923 07d3 6F2D636F 		.ascii	"o-common -fsingle-precision-constant\000"
 4923      6D6D6F6E 
 4923      202D6673 
 4923      696E676C 
 4923      652D7072 
 4924              	.LASF83:
 4925 07f8 6D61696E 		.ascii	"mainthread\000"
 4925      74687265 
 4925      616400
 4926              	.LASF104:
 4927 0803 41484233 		.ascii	"AHB3LPENR\000"
 4927      4C50454E 
 4927      5200
 4928              	.LASF187:
 4929 080d 5F5F7365 		.ascii	"__set_BASEPRI\000"
 4929      745F4241 
 4929      53455052 
 4929      4900
 4930              	.LASF59:
 4931 081b 725F7175 		.ascii	"r_queue\000"
 4931      65756500 
 4932              	.LASF166:
 4933 0823 53657269 		.ascii	"SerialDriver\000"
 4933      616C4472 
 4933      69766572 
 4933      00
ARM GAS  C:\Users\IDONNO~1\AppData\Local\Temp\cctBsQvq.s 			page 94


 4934              	.LASF212:
 4935 0830 443A5C67 		.ascii	"D:\\git\\oroca_bldc_dev\\oroca_bldc_fw\\oroca_bldc_"
 4935      69745C6F 
 4935      726F6361 
 4935      5F626C64 
 4935      635F6465 
 4936 085f 63686962 		.ascii	"chibios\000"
 4936      696F7300 
 4937              	.LASF150:
 4938 0867 715F7761 		.ascii	"q_waiting\000"
 4938      6974696E 
 4938      6700
 4939              	.LASF81:
 4940 0871 726C6973 		.ascii	"rlist\000"
 4940      7400
 4941              	.LASF21:
 4942 0877 746D6F64 		.ascii	"tmode_t\000"
 4942      655F7400 
 4943              	.LASF165:
 4944 087f 73647374 		.ascii	"sdstate_t\000"
 4944      6174655F 
 4944      7400
 4945              	.LASF95:
 4946 0889 41484231 		.ascii	"AHB1ENR\000"
 4946      454E5200 
 4947              	.LASF75:
 4948 0891 76745F73 		.ascii	"vt_systime\000"
 4948      79737469 
 4948      6D6500
 4949              	.LASF164:
 4950 089c 53445F52 		.ascii	"SD_READY\000"
 4950      45414459 
 4950      00
 4951              	.LASF97:
 4952 08a5 41484233 		.ascii	"AHB3ENR\000"
 4952      454E5200 
 4953              	.LASF63:
 4954 08ad 725F6F6C 		.ascii	"r_older\000"
 4954      64657200 
 4955              	.LASF121:
 4956 08b5 746D5F63 		.ascii	"tm_calibration_t\000"
 4956      616C6962 
 4956      72617469 
 4956      6F6E5F74 
 4956      00
 4957              	.LASF89:
 4958 08c6 41484232 		.ascii	"AHB2RSTR\000"
 4958      52535452 
 4958      00
 4959              	.LASF181:
 4960 08cf 706F7274 		.ascii	"port_lock\000"
 4960      5F6C6F63 
 4960      6B00
 4961              	.LASF130:
 4962 08d9 735F7175 		.ascii	"s_queue\000"
 4962      65756500 
 4963              	.LASF214:
ARM GAS  C:\Users\IDONNO~1\AppData\Local\Temp\cctBsQvq.s 			page 95


 4964 08e1 6E6F7469 		.ascii	"notify1\000"
 4964      66793100 
 4965              	.LASF113:
 4966 08e9 5243435F 		.ascii	"RCC_TypeDef\000"
 4966      54797065 
 4966      44656600 
 4967              	.LASF5:
 4968 08f5 73686F72 		.ascii	"short int\000"
 4968      7420696E 
 4968      7400
 4969              	.LASF145:
 4970 08ff 6576656E 		.ascii	"event_source\000"
 4970      745F736F 
 4970      75726365 
 4970      00
 4971              	.LASF19:
 4972 090c 75696E74 		.ascii	"uint64_t\000"
 4972      36345F74 
 4972      00
 4973              	.LASF132:
 4974 0915 63685F6D 		.ascii	"ch_mutex\000"
 4974      75746578 
 4974      00
 4975              	.LASF169:
 4976 091e 69717565 		.ascii	"iqueue\000"
 4976      756500
 4977              	.LASF60:
 4978 0925 725F7072 		.ascii	"r_prio\000"
 4978      696F00
 4979              	.LASF77:
 4980 092c 63685F73 		.ascii	"ch_system_debug\000"
 4980      79737465 
 4980      6D5F6465 
 4980      62756700 
 4981              	.LASF148:
 4982 093c 696F5F71 		.ascii	"io_queue_t\000"
 4982      75657565 
 4982      5F7400
 4983              	.LASF82:
 4984 0947 76746C69 		.ascii	"vtlist\000"
 4984      737400
 4985              	.LASF137:
 4986 094e 6D757465 		.ascii	"mutex_t\000"
 4986      785F7400 
 4987              	.LASF23:
 4988 0956 74726566 		.ascii	"trefs_t\000"
 4988      735F7400 
 4989              	.LASF52:
 4990 095e 74687265 		.ascii	"threads_list_t\000"
 4990      6164735F 
 4990      6C697374 
 4990      5F7400
 4991              	.LASF80:
 4992 096d 63685F73 		.ascii	"ch_system\000"
 4992      79737465 
 4992      6D00
 4993              	.LASF208:
ARM GAS  C:\Users\IDONNO~1\AppData\Local\Temp\cctBsQvq.s 			page 96


 4994 0977 6E766963 		.ascii	"nvicEnableVector\000"
 4994      456E6162 
 4994      6C655665 
 4994      63746F72 
 4994      00
 4995              	.LASF18:
 4996 0988 75696E74 		.ascii	"uint32_t\000"
 4996      33325F74 
 4996      00
 4997              	.LASF196:
 4998 0991 56656374 		.ascii	"VectorD4\000"
 4998      6F724434 
 4998      00
 4999              	.LASF159:
 5000 099a 696E7075 		.ascii	"input_queue_t\000"
 5000      745F7175 
 5000      6575655F 
 5000      7400
 5001              	.LASF188:
 5002 09a8 6F73616C 		.ascii	"osalEventBroadcastFlagsI\000"
 5002      4576656E 
 5002      7442726F 
 5002      61646361 
 5002      7374466C 
 5003              	.LASF139:
 5004 09c1 6576656E 		.ascii	"event_listener\000"
 5004      745F6C69 
 5004      7374656E 
 5004      657200
 5005              	.LASF122:
 5006 09d0 7264796D 		.ascii	"rdymsg\000"
 5006      736700
 5007              	.LASF7:
 5008 09d7 73686F72 		.ascii	"short unsigned int\000"
 5008      7420756E 
 5008      7369676E 
 5008      65642069 
 5008      6E7400
 5009              	.LASF201:
 5010 09ea 73645F6C 		.ascii	"sd_lld_stop\000"
 5010      6C645F73 
 5010      746F7000 
 5011              	.LASF79:
 5012 09f6 63685F73 		.ascii	"ch_system_t\000"
 5012      79737465 
 5012      6D5F7400 
 5013              	.LASF160:
 5014 0a02 6F757470 		.ascii	"output_queue_t\000"
 5014      75745F71 
 5014      75657565 
 5014      5F7400
 5015              	.LASF8:
 5016 0a11 5F5F696E 		.ascii	"__int32_t\000"
 5016      7433325F 
 5016      7400
 5017              	.LASF163:
 5018 0a1b 53445F53 		.ascii	"SD_STOP\000"
ARM GAS  C:\Users\IDONNO~1\AppData\Local\Temp\cctBsQvq.s 			page 97


 5018      544F5000 
 5019              	.LASF38:
 5020 0a23 705F6E61 		.ascii	"p_name\000"
 5020      6D6500
 5021              	.LASF135:
 5022 0a2a 6D5F6E65 		.ascii	"m_next\000"
 5022      787400
 5023              	.LASF46:
 5024 0a31 705F6D73 		.ascii	"p_msg\000"
 5024      6700
 5025              	.LASF141:
 5026 0a37 656C5F6C 		.ascii	"el_listener\000"
 5026      69737465 
 5026      6E657200 
 5027              	.LASF39:
 5028 0a43 705F7374 		.ascii	"p_state\000"
 5028      61746500 
 5029              		.ident	"GCC: (GNU Tools for ARM Embedded Processors) 5.4.1 20160919 (release) [ARM/embedded-5-bran
ARM GAS  C:\Users\IDONNO~1\AppData\Local\Temp\cctBsQvq.s 			page 98


DEFINED SYMBOLS
                            *ABS*:00000000 serial_lld.c
C:\Users\IDONNO~1\AppData\Local\Temp\cctBsQvq.s:22     .text.notify1:00000000 $t
C:\Users\IDONNO~1\AppData\Local\Temp\cctBsQvq.s:27     .text.notify1:00000000 notify1
C:\Users\IDONNO~1\AppData\Local\Temp\cctBsQvq.s:45     .text.notify1:0000000c $d
C:\Users\IDONNO~1\AppData\Local\Temp\cctBsQvq.s:50     .text.VectorD4:00000000 $t
C:\Users\IDONNO~1\AppData\Local\Temp\cctBsQvq.s:56     .text.VectorD4:00000000 VectorD4
C:\Users\IDONNO~1\AppData\Local\Temp\cctBsQvq.s:490    .text.VectorD4:00000110 $d
C:\Users\IDONNO~1\AppData\Local\Temp\cctBsQvq.s:500    .text.sd_lld_init:00000000 $t
C:\Users\IDONNO~1\AppData\Local\Temp\cctBsQvq.s:506    .text.sd_lld_init:00000000 sd_lld_init
C:\Users\IDONNO~1\AppData\Local\Temp\cctBsQvq.s:530    .text.sd_lld_init:00000014 $d
C:\Users\IDONNO~1\AppData\Local\Temp\cctBsQvq.s:537    .text.sd_lld_start:00000000 $t
C:\Users\IDONNO~1\AppData\Local\Temp\cctBsQvq.s:543    .text.sd_lld_start:00000000 sd_lld_start
C:\Users\IDONNO~1\AppData\Local\Temp\cctBsQvq.s:661    .text.sd_lld_start:00000080 $d
C:\Users\IDONNO~1\AppData\Local\Temp\cctBsQvq.s:673    .text.sd_lld_stop:00000000 $t
C:\Users\IDONNO~1\AppData\Local\Temp\cctBsQvq.s:679    .text.sd_lld_stop:00000000 sd_lld_stop
C:\Users\IDONNO~1\AppData\Local\Temp\cctBsQvq.s:733    .text.sd_lld_stop:00000028 $d
C:\Users\IDONNO~1\AppData\Local\Temp\cctBsQvq.s:755    .bss.SD1:00000000 SD1
C:\Users\IDONNO~1\AppData\Local\Temp\cctBsQvq.s:740    .rodata.default_config:00000000 $d
C:\Users\IDONNO~1\AppData\Local\Temp\cctBsQvq.s:744    .rodata.default_config:00000000 default_config
C:\Users\IDONNO~1\AppData\Local\Temp\cctBsQvq.s:751    .bss.SD1:00000000 $d
                     .debug_frame:00000010 $d

UNDEFINED SYMBOLS
chEvtBroadcastFlagsI
sdIncomingDataI
_port_irq_epilogue
chOQGetI
sdObjectInit
nvicEnableVector
nvicDisableVector
