ARM GAS  C:\Users\USER\AppData\Local\Temp\ccgfUCVP.s 			page 1


   1              		.cpu cortex-m4
   2              		.eabi_attribute 27, 1
   3              		.eabi_attribute 28, 1
   4              		.eabi_attribute 20, 1
   5              		.eabi_attribute 21, 1
   6              		.eabi_attribute 23, 3
   7              		.eabi_attribute 24, 1
   8              		.eabi_attribute 25, 1
   9              		.eabi_attribute 26, 1
  10              		.eabi_attribute 30, 2
  11              		.eabi_attribute 34, 1
  12              		.eabi_attribute 18, 4
  13              		.file	"spi.c"
  14              		.text
  15              	.Ltext0:
  16              		.cfi_sections	.debug_frame
  17              		.section	.text.spiInit,"ax",%progbits
  18              		.align	1
  19              		.p2align 4,,15
  20              		.global	spiInit
  21              		.arch armv7e-m
  22              		.syntax unified
  23              		.thumb
  24              		.thumb_func
  25              		.fpu fpv4-sp-d16
  26              		.type	spiInit, %function
  27              	spiInit:
  28              	.LFB256:
  29              		.file 1 "src/ChibiOS_3.0.2/os/hal/src/spi.c"
  30              		.loc 1 56 20 view -0
  31              		.cfi_startproc
  32              		@ args = 0, pretend = 0, frame = 0
  33              		@ frame_needed = 0, uses_anonymous_args = 0
  34              		@ link register save eliminated.
  35              		.loc 1 58 3 view .LVU1
  36 0000 FFF7FEBF 		b	spi_lld_init
  37              	.LVL0:
  38              		.cfi_endproc
  39              	.LFE256:
  40              		.size	spiInit, .-spiInit
  41              		.section	.text.spiObjectInit,"ax",%progbits
  42              		.align	1
  43              		.p2align 4,,15
  44              		.global	spiObjectInit
  45              		.syntax unified
  46              		.thumb
  47              		.thumb_func
  48              		.fpu fpv4-sp-d16
  49              		.type	spiObjectInit, %function
  50              	spiObjectInit:
  51              	.LVL1:
  52              	.LFB257:
  53              		.loc 1 68 37 view -0
  54              		.cfi_startproc
  55              		@ args = 0, pretend = 0, frame = 0
  56              		@ frame_needed = 0, uses_anonymous_args = 0
  57              		@ link register save eliminated.
ARM GAS  C:\Users\USER\AppData\Local\Temp\ccgfUCVP.s 			page 2


  58              		.loc 1 70 3 view .LVU3
  59              		.loc 1 70 15 is_stmt 0 view .LVU4
  60 0000 0122     		movs	r2, #1
  61              		.loc 1 71 16 view .LVU5
  62 0002 0023     		movs	r3, #0
  63              		.loc 1 70 15 view .LVU6
  64 0004 0270     		strb	r2, [r0]
  65              		.loc 1 71 3 is_stmt 1 view .LVU7
  66              		.loc 1 73 16 is_stmt 0 view .LVU8
  67 0006 C0E90133 		strd	r3, r3, [r0, #4]
  68              		.loc 1 76 3 is_stmt 1 view .LVU9
  69              	.LVL2:
  70              	.LBB194:
  71              	.LBI194:
  72              		.file 2 "src/ChibiOS_3.0.2/os/hal/osal/rt/osal.h"
  73              		.loc 2 884 20 view .LVU10
  74              	.LBB195:
  75              		.loc 2 887 3 view .LVU11
  76 000a 0C30     		adds	r0, r0, #12
  77              	.LVL3:
  78              		.loc 2 887 3 is_stmt 0 view .LVU12
  79 000c FFF7FEBF 		b	chMtxObjectInit
  80              	.LVL4:
  81              		.loc 2 887 3 view .LVU13
  82              	.LBE195:
  83              	.LBE194:
  84              		.cfi_endproc
  85              	.LFE257:
  86              		.size	spiObjectInit, .-spiObjectInit
  87              		.section	.text.spiStart,"ax",%progbits
  88              		.align	1
  89              		.p2align 4,,15
  90              		.global	spiStart
  91              		.syntax unified
  92              		.thumb
  93              		.thumb_func
  94              		.fpu fpv4-sp-d16
  95              		.type	spiStart, %function
  96              	spiStart:
  97              	.LVL5:
  98              	.LFB258:
  99              		.loc 1 91 57 is_stmt 1 view -0
 100              		.cfi_startproc
 101              		@ args = 0, pretend = 0, frame = 0
 102              		@ frame_needed = 0, uses_anonymous_args = 0
 103              		.loc 1 93 3 view .LVU15
 104              		.loc 1 93 3 view .LVU16
 105              		.loc 1 95 3 view .LVU17
 106              	.LBB196:
 107              	.LBI196:
 108              		.loc 2 491 20 view .LVU18
 109              	.LBE196:
 110              		.loc 2 493 3 view .LVU19
 111              	.LBB212:
 112              	.LBB197:
 113              	.LBI197:
 114              		.file 3 "src/ChibiOS_3.0.2/os/rt/include/chsys.h"
ARM GAS  C:\Users\USER\AppData\Local\Temp\ccgfUCVP.s 			page 3


 115              		.loc 3 346 20 view .LVU20
 116              	.LBE197:
 117              	.LBE212:
 118              		.loc 3 348 3 view .LVU21
 119              	.LBB213:
 120              	.LBB208:
 121              	.LBB198:
 122              	.LBI198:
 123              		.file 4 "src/ChibiOS_3.0.2/os/rt/ports/ARMCMx/chcore_v7m.h"
 124              		.loc 4 444 20 view .LVU22
 125              	.LBE198:
 126              	.LBE208:
 127              	.LBE213:
 128              		.loc 4 447 3 view .LVU23
 129              	.LBB214:
 130              	.LBB209:
 131              	.LBB205:
 132              	.LBB199:
 133              	.LBI199:
 134              		.file 5 "src/ChibiOS_3.0.2/os/ext/CMSIS/include/core_cmFunc.h"
 135              		.loc 5 544 57 view .LVU24
 136              	.LBB200:
 137              		.loc 5 546 3 view .LVU25
 138              	.LBE200:
 139              	.LBE199:
 140              	.LBE205:
 141              	.LBE209:
 142              	.LBE214:
 143              		.loc 1 91 57 is_stmt 0 view .LVU26
 144 0000 10B5     		push	{r4, lr}
 145              		.cfi_def_cfa_offset 8
 146              		.cfi_offset 4, -8
 147              		.cfi_offset 14, -4
 148              	.LBB215:
 149              	.LBB210:
 150              	.LBB206:
 151              	.LBB203:
 152              	.LBB201:
 153              		.loc 5 546 3 view .LVU27
 154 0002 2023     		movs	r3, #32
 155              	.LBE201:
 156              	.LBE203:
 157              	.LBE206:
 158              	.LBE210:
 159              	.LBE215:
 160              		.loc 1 91 57 view .LVU28
 161 0004 0446     		mov	r4, r0
 162              	.LBB216:
 163              	.LBB211:
 164              	.LBB207:
 165              	.LBB204:
 166              	.LBB202:
 167              		.loc 5 546 3 view .LVU29
 168              		.syntax unified
 169              	@ 546 "src/ChibiOS_3.0.2/os/ext/CMSIS/include/core_cmFunc.h" 1
 170 0006 83F31188 		MSR basepri, r3
 171              	@ 0 "" 2
ARM GAS  C:\Users\USER\AppData\Local\Temp\ccgfUCVP.s 			page 4


 172              	.LVL6:
 173              		.loc 5 546 3 view .LVU30
 174              		.thumb
 175              		.syntax unified
 176              	.LBE202:
 177              	.LBE204:
 178              	.LBE207:
 179              	.LBE211:
 180              	.LBE216:
 181              		.loc 3 349 34 is_stmt 1 view .LVU31
 182              		.loc 3 350 20 view .LVU32
 183              		.loc 1 96 3 view .LVU33
 184              		.loc 1 96 3 view .LVU34
 185              		.loc 1 98 3 view .LVU35
 186              		.loc 1 98 16 is_stmt 0 view .LVU36
 187 000a 4160     		str	r1, [r0, #4]
 188              		.loc 1 99 3 is_stmt 1 view .LVU37
 189 000c FFF7FEFF 		bl	spi_lld_start
 190              	.LVL7:
 191              		.loc 1 100 3 view .LVU38
 192              		.loc 1 100 15 is_stmt 0 view .LVU39
 193 0010 0223     		movs	r3, #2
 194 0012 2370     		strb	r3, [r4]
 195              		.loc 1 101 3 is_stmt 1 view .LVU40
 196              	.LBB217:
 197              	.LBI217:
 198              		.loc 2 502 20 view .LVU41
 199              	.LBE217:
 200              		.loc 2 504 3 view .LVU42
 201              	.LBB226:
 202              	.LBB218:
 203              	.LBI218:
 204              		.loc 3 358 20 view .LVU43
 205              	.LBB219:
 206              		.loc 3 360 22 view .LVU44
 207              		.loc 3 361 33 view .LVU45
 208              		.loc 3 367 3 view .LVU46
 209              		.loc 3 367 3 view .LVU47
 210              		.loc 3 371 3 view .LVU48
 211              	.LBB220:
 212              	.LBI220:
 213              		.loc 4 458 20 view .LVU49
 214              	.LBE220:
 215              	.LBE219:
 216              	.LBE218:
 217              	.LBE226:
 218              		.loc 4 461 3 view .LVU50
 219              	.LVL8:
 220              	.LBB227:
 221              	.LBB225:
 222              	.LBB224:
 223              	.LBB223:
 224              	.LBB221:
 225              	.LBI221:
 226              		.loc 5 544 57 view .LVU51
 227              	.LBB222:
 228              		.loc 5 546 3 view .LVU52
ARM GAS  C:\Users\USER\AppData\Local\Temp\ccgfUCVP.s 			page 5


 229 0014 0023     		movs	r3, #0
 230              		.syntax unified
 231              	@ 546 "src/ChibiOS_3.0.2/os/ext/CMSIS/include/core_cmFunc.h" 1
 232 0016 83F31188 		MSR basepri, r3
 233              	@ 0 "" 2
 234              	.LVL9:
 235              		.loc 5 546 3 is_stmt 0 view .LVU53
 236              		.thumb
 237              		.syntax unified
 238              	.LBE222:
 239              	.LBE221:
 240              	.LBE223:
 241              	.LBE224:
 242              	.LBE225:
 243              	.LBE227:
 244              		.loc 1 102 1 view .LVU54
 245 001a 10BD     		pop	{r4, pc}
 246              		.loc 1 102 1 view .LVU55
 247              		.cfi_endproc
 248              	.LFE258:
 249              		.size	spiStart, .-spiStart
 250              		.section	.text.spiStop,"ax",%progbits
 251              		.align	1
 252              		.p2align 4,,15
 253              		.global	spiStop
 254              		.syntax unified
 255              		.thumb
 256              		.thumb_func
 257              		.fpu fpv4-sp-d16
 258              		.type	spiStop, %function
 259              	spiStop:
 260              	.LVL10:
 261              	.LFB259:
 262              		.loc 1 113 31 is_stmt 1 view -0
 263              		.cfi_startproc
 264              		@ args = 0, pretend = 0, frame = 0
 265              		@ frame_needed = 0, uses_anonymous_args = 0
 266              		.loc 1 115 3 view .LVU57
 267              		.loc 1 115 3 view .LVU58
 268              		.loc 1 117 3 view .LVU59
 269              	.LBB228:
 270              	.LBI228:
 271              		.loc 2 491 20 view .LVU60
 272              	.LBE228:
 273              		.loc 2 493 3 view .LVU61
 274              	.LBB244:
 275              	.LBB229:
 276              	.LBI229:
 277              		.loc 3 346 20 view .LVU62
 278              	.LBE229:
 279              	.LBE244:
 280              		.loc 3 348 3 view .LVU63
 281              	.LBB245:
 282              	.LBB240:
 283              	.LBB230:
 284              	.LBI230:
 285              		.loc 4 444 20 view .LVU64
ARM GAS  C:\Users\USER\AppData\Local\Temp\ccgfUCVP.s 			page 6


 286              	.LBE230:
 287              	.LBE240:
 288              	.LBE245:
 289              		.loc 4 447 3 view .LVU65
 290              	.LBB246:
 291              	.LBB241:
 292              	.LBB237:
 293              	.LBB231:
 294              	.LBI231:
 295              		.loc 5 544 57 view .LVU66
 296              	.LBB232:
 297              		.loc 5 546 3 view .LVU67
 298              	.LBE232:
 299              	.LBE231:
 300              	.LBE237:
 301              	.LBE241:
 302              	.LBE246:
 303              		.loc 1 113 31 is_stmt 0 view .LVU68
 304 0000 10B5     		push	{r4, lr}
 305              		.cfi_def_cfa_offset 8
 306              		.cfi_offset 4, -8
 307              		.cfi_offset 14, -4
 308              	.LBB247:
 309              	.LBB242:
 310              	.LBB238:
 311              	.LBB235:
 312              	.LBB233:
 313              		.loc 5 546 3 view .LVU69
 314 0002 2023     		movs	r3, #32
 315              	.LBE233:
 316              	.LBE235:
 317              	.LBE238:
 318              	.LBE242:
 319              	.LBE247:
 320              		.loc 1 113 31 view .LVU70
 321 0004 0446     		mov	r4, r0
 322              	.LBB248:
 323              	.LBB243:
 324              	.LBB239:
 325              	.LBB236:
 326              	.LBB234:
 327              		.loc 5 546 3 view .LVU71
 328              		.syntax unified
 329              	@ 546 "src/ChibiOS_3.0.2/os/ext/CMSIS/include/core_cmFunc.h" 1
 330 0006 83F31188 		MSR basepri, r3
 331              	@ 0 "" 2
 332              	.LVL11:
 333              		.loc 5 546 3 view .LVU72
 334              		.thumb
 335              		.syntax unified
 336              	.LBE234:
 337              	.LBE236:
 338              	.LBE239:
 339              	.LBE243:
 340              	.LBE248:
 341              		.loc 3 349 34 is_stmt 1 view .LVU73
 342              		.loc 3 350 20 view .LVU74
ARM GAS  C:\Users\USER\AppData\Local\Temp\ccgfUCVP.s 			page 7


 343              		.loc 1 118 3 view .LVU75
 344              		.loc 1 118 3 view .LVU76
 345              		.loc 1 120 3 view .LVU77
 346 000a FFF7FEFF 		bl	spi_lld_stop
 347              	.LVL12:
 348              		.loc 1 121 3 view .LVU78
 349              		.loc 1 121 15 is_stmt 0 view .LVU79
 350 000e 0123     		movs	r3, #1
 351 0010 2370     		strb	r3, [r4]
 352              		.loc 1 122 3 is_stmt 1 view .LVU80
 353              	.LBB249:
 354              	.LBI249:
 355              		.loc 2 502 20 view .LVU81
 356              	.LBE249:
 357              		.loc 2 504 3 view .LVU82
 358              	.LBB258:
 359              	.LBB250:
 360              	.LBI250:
 361              		.loc 3 358 20 view .LVU83
 362              	.LBB251:
 363              		.loc 3 360 22 view .LVU84
 364              		.loc 3 361 33 view .LVU85
 365              		.loc 3 367 3 view .LVU86
 366              		.loc 3 367 3 view .LVU87
 367              		.loc 3 371 3 view .LVU88
 368              	.LBB252:
 369              	.LBI252:
 370              		.loc 4 458 20 view .LVU89
 371              	.LBE252:
 372              	.LBE251:
 373              	.LBE250:
 374              	.LBE258:
 375              		.loc 4 461 3 view .LVU90
 376              	.LVL13:
 377              	.LBB259:
 378              	.LBB257:
 379              	.LBB256:
 380              	.LBB255:
 381              	.LBB253:
 382              	.LBI253:
 383              		.loc 5 544 57 view .LVU91
 384              	.LBB254:
 385              		.loc 5 546 3 view .LVU92
 386 0012 0023     		movs	r3, #0
 387              		.syntax unified
 388              	@ 546 "src/ChibiOS_3.0.2/os/ext/CMSIS/include/core_cmFunc.h" 1
 389 0014 83F31188 		MSR basepri, r3
 390              	@ 0 "" 2
 391              	.LVL14:
 392              		.loc 5 546 3 is_stmt 0 view .LVU93
 393              		.thumb
 394              		.syntax unified
 395              	.LBE254:
 396              	.LBE253:
 397              	.LBE255:
 398              	.LBE256:
 399              	.LBE257:
ARM GAS  C:\Users\USER\AppData\Local\Temp\ccgfUCVP.s 			page 8


 400              	.LBE259:
 401              		.loc 1 123 1 view .LVU94
 402 0018 10BD     		pop	{r4, pc}
 403              		.loc 1 123 1 view .LVU95
 404              		.cfi_endproc
 405              	.LFE259:
 406              		.size	spiStop, .-spiStop
 407 001a 00BF     		.section	.text.spiSelect,"ax",%progbits
 408              		.align	1
 409              		.p2align 4,,15
 410              		.global	spiSelect
 411              		.syntax unified
 412              		.thumb
 413              		.thumb_func
 414              		.fpu fpv4-sp-d16
 415              		.type	spiSelect, %function
 416              	spiSelect:
 417              	.LVL15:
 418              	.LFB260:
 419              		.loc 1 132 33 is_stmt 1 view -0
 420              		.cfi_startproc
 421              		@ args = 0, pretend = 0, frame = 0
 422              		@ frame_needed = 0, uses_anonymous_args = 0
 423              		.loc 1 134 3 view .LVU97
 424              		.loc 1 134 3 view .LVU98
 425              		.loc 1 136 3 view .LVU99
 426              	.LBB260:
 427              	.LBI260:
 428              		.loc 2 491 20 view .LVU100
 429              	.LBE260:
 430              		.loc 2 493 3 view .LVU101
 431              	.LBB272:
 432              	.LBB261:
 433              	.LBI261:
 434              		.loc 3 346 20 view .LVU102
 435              	.LBE261:
 436              	.LBE272:
 437              		.loc 3 348 3 view .LVU103
 438              	.LBB273:
 439              	.LBB269:
 440              	.LBB262:
 441              	.LBI262:
 442              		.loc 4 444 20 view .LVU104
 443              	.LBE262:
 444              	.LBE269:
 445              	.LBE273:
 446              		.loc 4 447 3 view .LVU105
 447              	.LBB274:
 448              	.LBB270:
 449              	.LBB267:
 450              	.LBB263:
 451              	.LBI263:
 452              		.loc 5 544 57 view .LVU106
 453              	.LBB264:
 454              		.loc 5 546 3 view .LVU107
 455              	.LBE264:
 456              	.LBE263:
ARM GAS  C:\Users\USER\AppData\Local\Temp\ccgfUCVP.s 			page 9


 457              	.LBE267:
 458              	.LBE270:
 459              	.LBE274:
 460              		.loc 1 132 33 is_stmt 0 view .LVU108
 461 0000 08B5     		push	{r3, lr}
 462              		.cfi_def_cfa_offset 8
 463              		.cfi_offset 3, -8
 464              		.cfi_offset 14, -4
 465              	.LBB275:
 466              	.LBB271:
 467              	.LBB268:
 468              	.LBB266:
 469              	.LBB265:
 470              		.loc 5 546 3 view .LVU109
 471 0002 2023     		movs	r3, #32
 472              		.syntax unified
 473              	@ 546 "src/ChibiOS_3.0.2/os/ext/CMSIS/include/core_cmFunc.h" 1
 474 0004 83F31188 		MSR basepri, r3
 475              	@ 0 "" 2
 476              	.LVL16:
 477              		.loc 5 546 3 view .LVU110
 478              		.thumb
 479              		.syntax unified
 480              	.LBE265:
 481              	.LBE266:
 482              	.LBE268:
 483              	.LBE271:
 484              	.LBE275:
 485              		.loc 3 349 34 is_stmt 1 view .LVU111
 486              		.loc 3 350 20 view .LVU112
 487              		.loc 1 137 3 view .LVU113
 488              		.loc 1 137 3 view .LVU114
 489              		.loc 1 138 3 view .LVU115
 490 0008 FFF7FEFF 		bl	spi_lld_select
 491              	.LVL17:
 492              		.loc 1 138 19 view .LVU116
 493              		.loc 1 139 3 view .LVU117
 494              	.LBB276:
 495              	.LBI276:
 496              		.loc 2 502 20 view .LVU118
 497              	.LBE276:
 498              		.loc 2 504 3 view .LVU119
 499              	.LBB285:
 500              	.LBB277:
 501              	.LBI277:
 502              		.loc 3 358 20 view .LVU120
 503              	.LBB278:
 504              		.loc 3 360 22 view .LVU121
 505              		.loc 3 361 33 view .LVU122
 506              		.loc 3 367 3 view .LVU123
 507              		.loc 3 367 3 view .LVU124
 508              		.loc 3 371 3 view .LVU125
 509              	.LBB279:
 510              	.LBI279:
 511              		.loc 4 458 20 view .LVU126
 512              	.LBE279:
 513              	.LBE278:
ARM GAS  C:\Users\USER\AppData\Local\Temp\ccgfUCVP.s 			page 10


 514              	.LBE277:
 515              	.LBE285:
 516              		.loc 4 461 3 view .LVU127
 517              	.LBB286:
 518              	.LBB284:
 519              	.LBB283:
 520              	.LBB282:
 521              	.LBB280:
 522              	.LBI280:
 523              		.loc 5 544 57 view .LVU128
 524              	.LBB281:
 525              		.loc 5 546 3 view .LVU129
 526 000c 0023     		movs	r3, #0
 527              		.syntax unified
 528              	@ 546 "src/ChibiOS_3.0.2/os/ext/CMSIS/include/core_cmFunc.h" 1
 529 000e 83F31188 		MSR basepri, r3
 530              	@ 0 "" 2
 531              	.LVL18:
 532              		.loc 5 546 3 is_stmt 0 view .LVU130
 533              		.thumb
 534              		.syntax unified
 535              	.LBE281:
 536              	.LBE280:
 537              	.LBE282:
 538              	.LBE283:
 539              	.LBE284:
 540              	.LBE286:
 541              		.loc 1 140 1 view .LVU131
 542 0012 08BD     		pop	{r3, pc}
 543              		.cfi_endproc
 544              	.LFE260:
 545              		.size	spiSelect, .-spiSelect
 546              		.section	.text.spiUnselect,"ax",%progbits
 547              		.align	1
 548              		.p2align 4,,15
 549              		.global	spiUnselect
 550              		.syntax unified
 551              		.thumb
 552              		.thumb_func
 553              		.fpu fpv4-sp-d16
 554              		.type	spiUnselect, %function
 555              	spiUnselect:
 556              	.LVL19:
 557              	.LFB261:
 558              		.loc 1 150 35 is_stmt 1 view -0
 559              		.cfi_startproc
 560              		@ args = 0, pretend = 0, frame = 0
 561              		@ frame_needed = 0, uses_anonymous_args = 0
 562              		.loc 1 152 3 view .LVU133
 563              		.loc 1 152 3 view .LVU134
 564              		.loc 1 154 3 view .LVU135
 565              	.LBB287:
 566              	.LBI287:
 567              		.loc 2 491 20 view .LVU136
 568              	.LBE287:
 569              		.loc 2 493 3 view .LVU137
 570              	.LBB299:
ARM GAS  C:\Users\USER\AppData\Local\Temp\ccgfUCVP.s 			page 11


 571              	.LBB288:
 572              	.LBI288:
 573              		.loc 3 346 20 view .LVU138
 574              	.LBE288:
 575              	.LBE299:
 576              		.loc 3 348 3 view .LVU139
 577              	.LBB300:
 578              	.LBB296:
 579              	.LBB289:
 580              	.LBI289:
 581              		.loc 4 444 20 view .LVU140
 582              	.LBE289:
 583              	.LBE296:
 584              	.LBE300:
 585              		.loc 4 447 3 view .LVU141
 586              	.LBB301:
 587              	.LBB297:
 588              	.LBB294:
 589              	.LBB290:
 590              	.LBI290:
 591              		.loc 5 544 57 view .LVU142
 592              	.LBB291:
 593              		.loc 5 546 3 view .LVU143
 594              	.LBE291:
 595              	.LBE290:
 596              	.LBE294:
 597              	.LBE297:
 598              	.LBE301:
 599              		.loc 1 150 35 is_stmt 0 view .LVU144
 600 0000 08B5     		push	{r3, lr}
 601              		.cfi_def_cfa_offset 8
 602              		.cfi_offset 3, -8
 603              		.cfi_offset 14, -4
 604              	.LBB302:
 605              	.LBB298:
 606              	.LBB295:
 607              	.LBB293:
 608              	.LBB292:
 609              		.loc 5 546 3 view .LVU145
 610 0002 2023     		movs	r3, #32
 611              		.syntax unified
 612              	@ 546 "src/ChibiOS_3.0.2/os/ext/CMSIS/include/core_cmFunc.h" 1
 613 0004 83F31188 		MSR basepri, r3
 614              	@ 0 "" 2
 615              	.LVL20:
 616              		.loc 5 546 3 view .LVU146
 617              		.thumb
 618              		.syntax unified
 619              	.LBE292:
 620              	.LBE293:
 621              	.LBE295:
 622              	.LBE298:
 623              	.LBE302:
 624              		.loc 3 349 34 is_stmt 1 view .LVU147
 625              		.loc 3 350 20 view .LVU148
 626              		.loc 1 155 3 view .LVU149
 627              		.loc 1 155 3 view .LVU150
ARM GAS  C:\Users\USER\AppData\Local\Temp\ccgfUCVP.s 			page 12


 628              		.loc 1 156 3 view .LVU151
 629 0008 FFF7FEFF 		bl	spi_lld_unselect
 630              	.LVL21:
 631              		.loc 1 156 21 view .LVU152
 632              		.loc 1 157 3 view .LVU153
 633              	.LBB303:
 634              	.LBI303:
 635              		.loc 2 502 20 view .LVU154
 636              	.LBE303:
 637              		.loc 2 504 3 view .LVU155
 638              	.LBB312:
 639              	.LBB304:
 640              	.LBI304:
 641              		.loc 3 358 20 view .LVU156
 642              	.LBB305:
 643              		.loc 3 360 22 view .LVU157
 644              		.loc 3 361 33 view .LVU158
 645              		.loc 3 367 3 view .LVU159
 646              		.loc 3 367 3 view .LVU160
 647              		.loc 3 371 3 view .LVU161
 648              	.LBB306:
 649              	.LBI306:
 650              		.loc 4 458 20 view .LVU162
 651              	.LBE306:
 652              	.LBE305:
 653              	.LBE304:
 654              	.LBE312:
 655              		.loc 4 461 3 view .LVU163
 656              	.LBB313:
 657              	.LBB311:
 658              	.LBB310:
 659              	.LBB309:
 660              	.LBB307:
 661              	.LBI307:
 662              		.loc 5 544 57 view .LVU164
 663              	.LBB308:
 664              		.loc 5 546 3 view .LVU165
 665 000c 0023     		movs	r3, #0
 666              		.syntax unified
 667              	@ 546 "src/ChibiOS_3.0.2/os/ext/CMSIS/include/core_cmFunc.h" 1
 668 000e 83F31188 		MSR basepri, r3
 669              	@ 0 "" 2
 670              	.LVL22:
 671              		.loc 5 546 3 is_stmt 0 view .LVU166
 672              		.thumb
 673              		.syntax unified
 674              	.LBE308:
 675              	.LBE307:
 676              	.LBE309:
 677              	.LBE310:
 678              	.LBE311:
 679              	.LBE313:
 680              		.loc 1 158 1 view .LVU167
 681 0012 08BD     		pop	{r3, pc}
 682              		.cfi_endproc
 683              	.LFE261:
 684              		.size	spiUnselect, .-spiUnselect
ARM GAS  C:\Users\USER\AppData\Local\Temp\ccgfUCVP.s 			page 13


 685              		.section	.text.spiStartIgnore,"ax",%progbits
 686              		.align	1
 687              		.p2align 4,,15
 688              		.global	spiStartIgnore
 689              		.syntax unified
 690              		.thumb
 691              		.thumb_func
 692              		.fpu fpv4-sp-d16
 693              		.type	spiStartIgnore, %function
 694              	spiStartIgnore:
 695              	.LVL23:
 696              	.LFB262:
 697              		.loc 1 173 48 is_stmt 1 view -0
 698              		.cfi_startproc
 699              		@ args = 0, pretend = 0, frame = 0
 700              		@ frame_needed = 0, uses_anonymous_args = 0
 701              		.loc 1 175 3 view .LVU169
 702              		.loc 1 175 3 view .LVU170
 703              		.loc 1 177 3 view .LVU171
 704              	.LBB314:
 705              	.LBI314:
 706              		.loc 2 491 20 view .LVU172
 707              	.LBE314:
 708              		.loc 2 493 3 view .LVU173
 709              	.LBB326:
 710              	.LBB315:
 711              	.LBI315:
 712              		.loc 3 346 20 view .LVU174
 713              	.LBE315:
 714              	.LBE326:
 715              		.loc 3 348 3 view .LVU175
 716              	.LBB327:
 717              	.LBB323:
 718              	.LBB316:
 719              	.LBI316:
 720              		.loc 4 444 20 view .LVU176
 721              	.LBE316:
 722              	.LBE323:
 723              	.LBE327:
 724              		.loc 4 447 3 view .LVU177
 725              	.LBB328:
 726              	.LBB324:
 727              	.LBB321:
 728              	.LBB317:
 729              	.LBI317:
 730              		.loc 5 544 57 view .LVU178
 731              	.LBB318:
 732              		.loc 5 546 3 view .LVU179
 733              	.LBE318:
 734              	.LBE317:
 735              	.LBE321:
 736              	.LBE324:
 737              	.LBE328:
 738              		.loc 1 173 48 is_stmt 0 view .LVU180
 739 0000 08B5     		push	{r3, lr}
 740              		.cfi_def_cfa_offset 8
 741              		.cfi_offset 3, -8
ARM GAS  C:\Users\USER\AppData\Local\Temp\ccgfUCVP.s 			page 14


 742              		.cfi_offset 14, -4
 743              	.LBB329:
 744              	.LBB325:
 745              	.LBB322:
 746              	.LBB320:
 747              	.LBB319:
 748              		.loc 5 546 3 view .LVU181
 749 0002 2022     		movs	r2, #32
 750              		.syntax unified
 751              	@ 546 "src/ChibiOS_3.0.2/os/ext/CMSIS/include/core_cmFunc.h" 1
 752 0004 82F31188 		MSR basepri, r2
 753              	@ 0 "" 2
 754              	.LVL24:
 755              		.loc 5 546 3 view .LVU182
 756              		.thumb
 757              		.syntax unified
 758              	.LBE319:
 759              	.LBE320:
 760              	.LBE322:
 761              	.LBE325:
 762              	.LBE329:
 763              		.loc 3 349 34 is_stmt 1 view .LVU183
 764              		.loc 3 350 20 view .LVU184
 765              		.loc 1 178 3 view .LVU185
 766              		.loc 1 178 3 view .LVU186
 767              		.loc 1 179 3 view .LVU187
 768 0008 0322     		movs	r2, #3
 769 000a 0270     		strb	r2, [r0]
 770              		.loc 1 179 3 view .LVU188
 771 000c FFF7FEFF 		bl	spi_lld_ignore
 772              	.LVL25:
 773              		.loc 1 179 27 view .LVU189
 774              		.loc 1 180 3 view .LVU190
 775              	.LBB330:
 776              	.LBI330:
 777              		.loc 2 502 20 view .LVU191
 778              	.LBE330:
 779              		.loc 2 504 3 view .LVU192
 780              	.LBB339:
 781              	.LBB331:
 782              	.LBI331:
 783              		.loc 3 358 20 view .LVU193
 784              	.LBB332:
 785              		.loc 3 360 22 view .LVU194
 786              		.loc 3 361 33 view .LVU195
 787              		.loc 3 367 3 view .LVU196
 788              		.loc 3 367 3 view .LVU197
 789              		.loc 3 371 3 view .LVU198
 790              	.LBB333:
 791              	.LBI333:
 792              		.loc 4 458 20 view .LVU199
 793              	.LBE333:
 794              	.LBE332:
 795              	.LBE331:
 796              	.LBE339:
 797              		.loc 4 461 3 view .LVU200
 798              	.LBB340:
ARM GAS  C:\Users\USER\AppData\Local\Temp\ccgfUCVP.s 			page 15


 799              	.LBB338:
 800              	.LBB337:
 801              	.LBB336:
 802              	.LBB334:
 803              	.LBI334:
 804              		.loc 5 544 57 view .LVU201
 805              	.LBB335:
 806              		.loc 5 546 3 view .LVU202
 807 0010 0023     		movs	r3, #0
 808              		.syntax unified
 809              	@ 546 "src/ChibiOS_3.0.2/os/ext/CMSIS/include/core_cmFunc.h" 1
 810 0012 83F31188 		MSR basepri, r3
 811              	@ 0 "" 2
 812              	.LVL26:
 813              		.loc 5 546 3 is_stmt 0 view .LVU203
 814              		.thumb
 815              		.syntax unified
 816              	.LBE335:
 817              	.LBE334:
 818              	.LBE336:
 819              	.LBE337:
 820              	.LBE338:
 821              	.LBE340:
 822              		.loc 1 181 1 view .LVU204
 823 0016 08BD     		pop	{r3, pc}
 824              		.cfi_endproc
 825              	.LFE262:
 826              		.size	spiStartIgnore, .-spiStartIgnore
 827              		.section	.text.spiStartExchange,"ax",%progbits
 828              		.align	1
 829              		.p2align 4,,15
 830              		.global	spiStartExchange
 831              		.syntax unified
 832              		.thumb
 833              		.thumb_func
 834              		.fpu fpv4-sp-d16
 835              		.type	spiStartExchange, %function
 836              	spiStartExchange:
 837              	.LVL27:
 838              	.LFB263:
 839              		.loc 1 201 55 is_stmt 1 view -0
 840              		.cfi_startproc
 841              		@ args = 0, pretend = 0, frame = 0
 842              		@ frame_needed = 0, uses_anonymous_args = 0
 843              		.loc 1 203 3 view .LVU206
 844              		.loc 1 203 3 view .LVU207
 845              		.loc 1 206 3 view .LVU208
 846              	.LBB341:
 847              	.LBI341:
 848              		.loc 2 491 20 view .LVU209
 849              	.LBE341:
 850              		.loc 2 493 3 view .LVU210
 851              	.LBB353:
 852              	.LBB342:
 853              	.LBI342:
 854              		.loc 3 346 20 view .LVU211
 855              	.LBE342:
ARM GAS  C:\Users\USER\AppData\Local\Temp\ccgfUCVP.s 			page 16


 856              	.LBE353:
 857              		.loc 3 348 3 view .LVU212
 858              	.LBB354:
 859              	.LBB350:
 860              	.LBB343:
 861              	.LBI343:
 862              		.loc 4 444 20 view .LVU213
 863              	.LBE343:
 864              	.LBE350:
 865              	.LBE354:
 866              		.loc 4 447 3 view .LVU214
 867              	.LBB355:
 868              	.LBB351:
 869              	.LBB348:
 870              	.LBB344:
 871              	.LBI344:
 872              		.loc 5 544 57 view .LVU215
 873              	.LBB345:
 874              		.loc 5 546 3 view .LVU216
 875              	.LBE345:
 876              	.LBE344:
 877              	.LBE348:
 878              	.LBE351:
 879              	.LBE355:
 880              		.loc 1 201 55 is_stmt 0 view .LVU217
 881 0000 38B5     		push	{r3, r4, r5, lr}
 882              		.cfi_def_cfa_offset 16
 883              		.cfi_offset 3, -16
 884              		.cfi_offset 4, -12
 885              		.cfi_offset 5, -8
 886              		.cfi_offset 14, -4
 887              	.LBB356:
 888              	.LBB352:
 889              	.LBB349:
 890              	.LBB347:
 891              	.LBB346:
 892              		.loc 5 546 3 view .LVU218
 893 0002 2025     		movs	r5, #32
 894              		.syntax unified
 895              	@ 546 "src/ChibiOS_3.0.2/os/ext/CMSIS/include/core_cmFunc.h" 1
 896 0004 85F31188 		MSR basepri, r5
 897              	@ 0 "" 2
 898              	.LVL28:
 899              		.loc 5 546 3 view .LVU219
 900              		.thumb
 901              		.syntax unified
 902              	.LBE346:
 903              	.LBE347:
 904              	.LBE349:
 905              	.LBE352:
 906              	.LBE356:
 907              		.loc 3 349 34 is_stmt 1 view .LVU220
 908              		.loc 3 350 20 view .LVU221
 909              		.loc 1 207 3 view .LVU222
 910              		.loc 1 207 3 view .LVU223
 911              		.loc 1 208 3 view .LVU224
 912 0008 0325     		movs	r5, #3
ARM GAS  C:\Users\USER\AppData\Local\Temp\ccgfUCVP.s 			page 17


 913 000a 0570     		strb	r5, [r0]
 914              		.loc 1 208 3 view .LVU225
 915 000c FFF7FEFF 		bl	spi_lld_exchange
 916              	.LVL29:
 917              		.loc 1 208 43 view .LVU226
 918              		.loc 1 209 3 view .LVU227
 919              	.LBB357:
 920              	.LBI357:
 921              		.loc 2 502 20 view .LVU228
 922              	.LBE357:
 923              		.loc 2 504 3 view .LVU229
 924              	.LBB366:
 925              	.LBB358:
 926              	.LBI358:
 927              		.loc 3 358 20 view .LVU230
 928              	.LBB359:
 929              		.loc 3 360 22 view .LVU231
 930              		.loc 3 361 33 view .LVU232
 931              		.loc 3 367 3 view .LVU233
 932              		.loc 3 367 3 view .LVU234
 933              		.loc 3 371 3 view .LVU235
 934              	.LBB360:
 935              	.LBI360:
 936              		.loc 4 458 20 view .LVU236
 937              	.LBE360:
 938              	.LBE359:
 939              	.LBE358:
 940              	.LBE366:
 941              		.loc 4 461 3 view .LVU237
 942              	.LBB367:
 943              	.LBB365:
 944              	.LBB364:
 945              	.LBB363:
 946              	.LBB361:
 947              	.LBI361:
 948              		.loc 5 544 57 view .LVU238
 949              	.LBB362:
 950              		.loc 5 546 3 view .LVU239
 951 0010 0023     		movs	r3, #0
 952              		.syntax unified
 953              	@ 546 "src/ChibiOS_3.0.2/os/ext/CMSIS/include/core_cmFunc.h" 1
 954 0012 83F31188 		MSR basepri, r3
 955              	@ 0 "" 2
 956              	.LVL30:
 957              		.loc 5 546 3 is_stmt 0 view .LVU240
 958              		.thumb
 959              		.syntax unified
 960              	.LBE362:
 961              	.LBE361:
 962              	.LBE363:
 963              	.LBE364:
 964              	.LBE365:
 965              	.LBE367:
 966              		.loc 1 210 1 view .LVU241
 967 0016 38BD     		pop	{r3, r4, r5, pc}
 968              		.cfi_endproc
 969              	.LFE263:
ARM GAS  C:\Users\USER\AppData\Local\Temp\ccgfUCVP.s 			page 18


 970              		.size	spiStartExchange, .-spiStartExchange
 971              		.section	.text.spiStartSend,"ax",%progbits
 972              		.align	1
 973              		.p2align 4,,15
 974              		.global	spiStartSend
 975              		.syntax unified
 976              		.thumb
 977              		.thumb_func
 978              		.fpu fpv4-sp-d16
 979              		.type	spiStartSend, %function
 980              	spiStartSend:
 981              	.LVL31:
 982              	.LFB264:
 983              		.loc 1 227 65 is_stmt 1 view -0
 984              		.cfi_startproc
 985              		@ args = 0, pretend = 0, frame = 0
 986              		@ frame_needed = 0, uses_anonymous_args = 0
 987              		.loc 1 229 3 view .LVU243
 988              		.loc 1 229 3 view .LVU244
 989              		.loc 1 231 3 view .LVU245
 990              	.LBB368:
 991              	.LBI368:
 992              		.loc 2 491 20 view .LVU246
 993              	.LBE368:
 994              		.loc 2 493 3 view .LVU247
 995              	.LBB380:
 996              	.LBB369:
 997              	.LBI369:
 998              		.loc 3 346 20 view .LVU248
 999              	.LBE369:
 1000              	.LBE380:
 1001              		.loc 3 348 3 view .LVU249
 1002              	.LBB381:
 1003              	.LBB377:
 1004              	.LBB370:
 1005              	.LBI370:
 1006              		.loc 4 444 20 view .LVU250
 1007              	.LBE370:
 1008              	.LBE377:
 1009              	.LBE381:
 1010              		.loc 4 447 3 view .LVU251
 1011              	.LBB382:
 1012              	.LBB378:
 1013              	.LBB375:
 1014              	.LBB371:
 1015              	.LBI371:
 1016              		.loc 5 544 57 view .LVU252
 1017              	.LBB372:
 1018              		.loc 5 546 3 view .LVU253
 1019              	.LBE372:
 1020              	.LBE371:
 1021              	.LBE375:
 1022              	.LBE378:
 1023              	.LBE382:
 1024              		.loc 1 227 65 is_stmt 0 view .LVU254
 1025 0000 10B5     		push	{r4, lr}
 1026              		.cfi_def_cfa_offset 8
ARM GAS  C:\Users\USER\AppData\Local\Temp\ccgfUCVP.s 			page 19


 1027              		.cfi_offset 4, -8
 1028              		.cfi_offset 14, -4
 1029              	.LBB383:
 1030              	.LBB379:
 1031              	.LBB376:
 1032              	.LBB374:
 1033              	.LBB373:
 1034              		.loc 5 546 3 view .LVU255
 1035 0002 2024     		movs	r4, #32
 1036              		.syntax unified
 1037              	@ 546 "src/ChibiOS_3.0.2/os/ext/CMSIS/include/core_cmFunc.h" 1
 1038 0004 84F31188 		MSR basepri, r4
 1039              	@ 0 "" 2
 1040              	.LVL32:
 1041              		.loc 5 546 3 view .LVU256
 1042              		.thumb
 1043              		.syntax unified
 1044              	.LBE373:
 1045              	.LBE374:
 1046              	.LBE376:
 1047              	.LBE379:
 1048              	.LBE383:
 1049              		.loc 3 349 34 is_stmt 1 view .LVU257
 1050              		.loc 3 350 20 view .LVU258
 1051              		.loc 1 232 3 view .LVU259
 1052              		.loc 1 232 3 view .LVU260
 1053              		.loc 1 233 3 view .LVU261
 1054 0008 0324     		movs	r4, #3
 1055 000a 0470     		strb	r4, [r0]
 1056              		.loc 1 233 3 view .LVU262
 1057 000c FFF7FEFF 		bl	spi_lld_send
 1058              	.LVL33:
 1059              		.loc 1 233 32 view .LVU263
 1060              		.loc 1 234 3 view .LVU264
 1061              	.LBB384:
 1062              	.LBI384:
 1063              		.loc 2 502 20 view .LVU265
 1064              	.LBE384:
 1065              		.loc 2 504 3 view .LVU266
 1066              	.LBB393:
 1067              	.LBB385:
 1068              	.LBI385:
 1069              		.loc 3 358 20 view .LVU267
 1070              	.LBB386:
 1071              		.loc 3 360 22 view .LVU268
 1072              		.loc 3 361 33 view .LVU269
 1073              		.loc 3 367 3 view .LVU270
 1074              		.loc 3 367 3 view .LVU271
 1075              		.loc 3 371 3 view .LVU272
 1076              	.LBB387:
 1077              	.LBI387:
 1078              		.loc 4 458 20 view .LVU273
 1079              	.LBE387:
 1080              	.LBE386:
 1081              	.LBE385:
 1082              	.LBE393:
 1083              		.loc 4 461 3 view .LVU274
ARM GAS  C:\Users\USER\AppData\Local\Temp\ccgfUCVP.s 			page 20


 1084              	.LBB394:
 1085              	.LBB392:
 1086              	.LBB391:
 1087              	.LBB390:
 1088              	.LBB388:
 1089              	.LBI388:
 1090              		.loc 5 544 57 view .LVU275
 1091              	.LBB389:
 1092              		.loc 5 546 3 view .LVU276
 1093 0010 0023     		movs	r3, #0
 1094              		.syntax unified
 1095              	@ 546 "src/ChibiOS_3.0.2/os/ext/CMSIS/include/core_cmFunc.h" 1
 1096 0012 83F31188 		MSR basepri, r3
 1097              	@ 0 "" 2
 1098              	.LVL34:
 1099              		.loc 5 546 3 is_stmt 0 view .LVU277
 1100              		.thumb
 1101              		.syntax unified
 1102              	.LBE389:
 1103              	.LBE388:
 1104              	.LBE390:
 1105              	.LBE391:
 1106              	.LBE392:
 1107              	.LBE394:
 1108              		.loc 1 235 1 view .LVU278
 1109 0016 10BD     		pop	{r4, pc}
 1110              		.cfi_endproc
 1111              	.LFE264:
 1112              		.size	spiStartSend, .-spiStartSend
 1113              		.section	.text.spiStartReceive,"ax",%progbits
 1114              		.align	1
 1115              		.p2align 4,,15
 1116              		.global	spiStartReceive
 1117              		.syntax unified
 1118              		.thumb
 1119              		.thumb_func
 1120              		.fpu fpv4-sp-d16
 1121              		.type	spiStartReceive, %function
 1122              	spiStartReceive:
 1123              	.LVL35:
 1124              	.LFB265:
 1125              		.loc 1 252 62 is_stmt 1 view -0
 1126              		.cfi_startproc
 1127              		@ args = 0, pretend = 0, frame = 0
 1128              		@ frame_needed = 0, uses_anonymous_args = 0
 1129              		.loc 1 254 3 view .LVU280
 1130              		.loc 1 254 3 view .LVU281
 1131              		.loc 1 256 3 view .LVU282
 1132              	.LBB395:
 1133              	.LBI395:
 1134              		.loc 2 491 20 view .LVU283
 1135              	.LBE395:
 1136              		.loc 2 493 3 view .LVU284
 1137              	.LBB407:
 1138              	.LBB396:
 1139              	.LBI396:
 1140              		.loc 3 346 20 view .LVU285
ARM GAS  C:\Users\USER\AppData\Local\Temp\ccgfUCVP.s 			page 21


 1141              	.LBE396:
 1142              	.LBE407:
 1143              		.loc 3 348 3 view .LVU286
 1144              	.LBB408:
 1145              	.LBB404:
 1146              	.LBB397:
 1147              	.LBI397:
 1148              		.loc 4 444 20 view .LVU287
 1149              	.LBE397:
 1150              	.LBE404:
 1151              	.LBE408:
 1152              		.loc 4 447 3 view .LVU288
 1153              	.LBB409:
 1154              	.LBB405:
 1155              	.LBB402:
 1156              	.LBB398:
 1157              	.LBI398:
 1158              		.loc 5 544 57 view .LVU289
 1159              	.LBB399:
 1160              		.loc 5 546 3 view .LVU290
 1161              	.LBE399:
 1162              	.LBE398:
 1163              	.LBE402:
 1164              	.LBE405:
 1165              	.LBE409:
 1166              		.loc 1 252 62 is_stmt 0 view .LVU291
 1167 0000 10B5     		push	{r4, lr}
 1168              		.cfi_def_cfa_offset 8
 1169              		.cfi_offset 4, -8
 1170              		.cfi_offset 14, -4
 1171              	.LBB410:
 1172              	.LBB406:
 1173              	.LBB403:
 1174              	.LBB401:
 1175              	.LBB400:
 1176              		.loc 5 546 3 view .LVU292
 1177 0002 2024     		movs	r4, #32
 1178              		.syntax unified
 1179              	@ 546 "src/ChibiOS_3.0.2/os/ext/CMSIS/include/core_cmFunc.h" 1
 1180 0004 84F31188 		MSR basepri, r4
 1181              	@ 0 "" 2
 1182              	.LVL36:
 1183              		.loc 5 546 3 view .LVU293
 1184              		.thumb
 1185              		.syntax unified
 1186              	.LBE400:
 1187              	.LBE401:
 1188              	.LBE403:
 1189              	.LBE406:
 1190              	.LBE410:
 1191              		.loc 3 349 34 is_stmt 1 view .LVU294
 1192              		.loc 3 350 20 view .LVU295
 1193              		.loc 1 257 3 view .LVU296
 1194              		.loc 1 257 3 view .LVU297
 1195              		.loc 1 258 3 view .LVU298
 1196 0008 0324     		movs	r4, #3
 1197 000a 0470     		strb	r4, [r0]
ARM GAS  C:\Users\USER\AppData\Local\Temp\ccgfUCVP.s 			page 22


 1198              		.loc 1 258 3 view .LVU299
 1199 000c FFF7FEFF 		bl	spi_lld_receive
 1200              	.LVL37:
 1201              		.loc 1 258 35 view .LVU300
 1202              		.loc 1 259 3 view .LVU301
 1203              	.LBB411:
 1204              	.LBI411:
 1205              		.loc 2 502 20 view .LVU302
 1206              	.LBE411:
 1207              		.loc 2 504 3 view .LVU303
 1208              	.LBB420:
 1209              	.LBB412:
 1210              	.LBI412:
 1211              		.loc 3 358 20 view .LVU304
 1212              	.LBB413:
 1213              		.loc 3 360 22 view .LVU305
 1214              		.loc 3 361 33 view .LVU306
 1215              		.loc 3 367 3 view .LVU307
 1216              		.loc 3 367 3 view .LVU308
 1217              		.loc 3 371 3 view .LVU309
 1218              	.LBB414:
 1219              	.LBI414:
 1220              		.loc 4 458 20 view .LVU310
 1221              	.LBE414:
 1222              	.LBE413:
 1223              	.LBE412:
 1224              	.LBE420:
 1225              		.loc 4 461 3 view .LVU311
 1226              	.LBB421:
 1227              	.LBB419:
 1228              	.LBB418:
 1229              	.LBB417:
 1230              	.LBB415:
 1231              	.LBI415:
 1232              		.loc 5 544 57 view .LVU312
 1233              	.LBB416:
 1234              		.loc 5 546 3 view .LVU313
 1235 0010 0023     		movs	r3, #0
 1236              		.syntax unified
 1237              	@ 546 "src/ChibiOS_3.0.2/os/ext/CMSIS/include/core_cmFunc.h" 1
 1238 0012 83F31188 		MSR basepri, r3
 1239              	@ 0 "" 2
 1240              	.LVL38:
 1241              		.loc 5 546 3 is_stmt 0 view .LVU314
 1242              		.thumb
 1243              		.syntax unified
 1244              	.LBE416:
 1245              	.LBE415:
 1246              	.LBE417:
 1247              	.LBE418:
 1248              	.LBE419:
 1249              	.LBE421:
 1250              		.loc 1 260 1 view .LVU315
 1251 0016 10BD     		pop	{r4, pc}
 1252              		.cfi_endproc
 1253              	.LFE265:
 1254              		.size	spiStartReceive, .-spiStartReceive
ARM GAS  C:\Users\USER\AppData\Local\Temp\ccgfUCVP.s 			page 23


 1255              		.section	.text.spiIgnore,"ax",%progbits
 1256              		.align	1
 1257              		.p2align 4,,15
 1258              		.global	spiIgnore
 1259              		.syntax unified
 1260              		.thumb
 1261              		.thumb_func
 1262              		.fpu fpv4-sp-d16
 1263              		.type	spiIgnore, %function
 1264              	spiIgnore:
 1265              	.LVL39:
 1266              	.LFB266:
 1267              		.loc 1 277 43 is_stmt 1 view -0
 1268              		.cfi_startproc
 1269              		@ args = 0, pretend = 0, frame = 0
 1270              		@ frame_needed = 0, uses_anonymous_args = 0
 1271              		.loc 1 279 3 view .LVU317
 1272              		.loc 1 279 3 view .LVU318
 1273              		.loc 1 281 3 view .LVU319
 1274              	.LBB422:
 1275              	.LBI422:
 1276              		.loc 2 491 20 view .LVU320
 1277              	.LBE422:
 1278              		.loc 2 493 3 view .LVU321
 1279              	.LBB438:
 1280              	.LBB423:
 1281              	.LBI423:
 1282              		.loc 3 346 20 view .LVU322
 1283              	.LBE423:
 1284              	.LBE438:
 1285              		.loc 3 348 3 view .LVU323
 1286              	.LBB439:
 1287              	.LBB434:
 1288              	.LBB424:
 1289              	.LBI424:
 1290              		.loc 4 444 20 view .LVU324
 1291              	.LBE424:
 1292              	.LBE434:
 1293              	.LBE439:
 1294              		.loc 4 447 3 view .LVU325
 1295              	.LBB440:
 1296              	.LBB435:
 1297              	.LBB431:
 1298              	.LBB425:
 1299              	.LBI425:
 1300              		.loc 5 544 57 view .LVU326
 1301              	.LBB426:
 1302              		.loc 5 546 3 view .LVU327
 1303              	.LBE426:
 1304              	.LBE425:
 1305              	.LBE431:
 1306              	.LBE435:
 1307              	.LBE440:
 1308              		.loc 1 277 43 is_stmt 0 view .LVU328
 1309 0000 10B5     		push	{r4, lr}
 1310              		.cfi_def_cfa_offset 8
 1311              		.cfi_offset 4, -8
ARM GAS  C:\Users\USER\AppData\Local\Temp\ccgfUCVP.s 			page 24


 1312              		.cfi_offset 14, -4
 1313              	.LBB441:
 1314              	.LBB436:
 1315              	.LBB432:
 1316              	.LBB429:
 1317              	.LBB427:
 1318              		.loc 5 546 3 view .LVU329
 1319 0002 2023     		movs	r3, #32
 1320              	.LBE427:
 1321              	.LBE429:
 1322              	.LBE432:
 1323              	.LBE436:
 1324              	.LBE441:
 1325              		.loc 1 277 43 view .LVU330
 1326 0004 0446     		mov	r4, r0
 1327              	.LBB442:
 1328              	.LBB437:
 1329              	.LBB433:
 1330              	.LBB430:
 1331              	.LBB428:
 1332              		.loc 5 546 3 view .LVU331
 1333              		.syntax unified
 1334              	@ 546 "src/ChibiOS_3.0.2/os/ext/CMSIS/include/core_cmFunc.h" 1
 1335 0006 83F31188 		MSR basepri, r3
 1336              	@ 0 "" 2
 1337              	.LVL40:
 1338              		.loc 5 546 3 view .LVU332
 1339              		.thumb
 1340              		.syntax unified
 1341              	.LBE428:
 1342              	.LBE430:
 1343              	.LBE433:
 1344              	.LBE437:
 1345              	.LBE442:
 1346              		.loc 3 349 34 is_stmt 1 view .LVU333
 1347              		.loc 3 350 20 view .LVU334
 1348              		.loc 1 282 3 view .LVU335
 1349              		.loc 1 282 3 view .LVU336
 1350              		.loc 1 283 3 view .LVU337
 1351              		.loc 1 283 3 view .LVU338
 1352              		.loc 1 284 3 view .LVU339
 1353 000a 0323     		movs	r3, #3
 1354 000c 04F8083B 		strb	r3, [r4], #8
 1355              		.loc 1 284 3 view .LVU340
 1356 0010 FFF7FEFF 		bl	spi_lld_ignore
 1357              	.LVL41:
 1358              		.loc 1 284 27 view .LVU341
 1359              		.loc 1 285 3 view .LVU342
 1360              	.LBB443:
 1361              	.LBI443:
 1362              		.loc 2 686 21 view .LVU343
 1363              	.LBB444:
 1364              		.loc 2 688 3 view .LVU344
 1365              		.loc 2 688 10 is_stmt 0 view .LVU345
 1366 0014 2046     		mov	r0, r4
 1367 0016 FFF7FEFF 		bl	chThdSuspendS
 1368              	.LVL42:
ARM GAS  C:\Users\USER\AppData\Local\Temp\ccgfUCVP.s 			page 25


 1369              		.loc 2 688 10 view .LVU346
 1370              	.LBE444:
 1371              	.LBE443:
 1372              		.loc 1 286 3 is_stmt 1 view .LVU347
 1373              	.LBB445:
 1374              	.LBI445:
 1375              		.loc 2 502 20 view .LVU348
 1376              	.LBE445:
 1377              		.loc 2 504 3 view .LVU349
 1378              	.LBB454:
 1379              	.LBB446:
 1380              	.LBI446:
 1381              		.loc 3 358 20 view .LVU350
 1382              	.LBB447:
 1383              		.loc 3 360 22 view .LVU351
 1384              		.loc 3 361 33 view .LVU352
 1385              		.loc 3 367 3 view .LVU353
 1386              		.loc 3 367 3 view .LVU354
 1387              		.loc 3 371 3 view .LVU355
 1388              	.LBB448:
 1389              	.LBI448:
 1390              		.loc 4 458 20 view .LVU356
 1391              	.LBE448:
 1392              	.LBE447:
 1393              	.LBE446:
 1394              	.LBE454:
 1395              		.loc 4 461 3 view .LVU357
 1396              	.LBB455:
 1397              	.LBB453:
 1398              	.LBB452:
 1399              	.LBB451:
 1400              	.LBB449:
 1401              	.LBI449:
 1402              		.loc 5 544 57 view .LVU358
 1403              	.LBB450:
 1404              		.loc 5 546 3 view .LVU359
 1405 001a 0023     		movs	r3, #0
 1406              		.syntax unified
 1407              	@ 546 "src/ChibiOS_3.0.2/os/ext/CMSIS/include/core_cmFunc.h" 1
 1408 001c 83F31188 		MSR basepri, r3
 1409              	@ 0 "" 2
 1410              	.LVL43:
 1411              		.loc 5 546 3 is_stmt 0 view .LVU360
 1412              		.thumb
 1413              		.syntax unified
 1414              	.LBE450:
 1415              	.LBE449:
 1416              	.LBE451:
 1417              	.LBE452:
 1418              	.LBE453:
 1419              	.LBE455:
 1420              		.loc 1 287 1 view .LVU361
 1421 0020 10BD     		pop	{r4, pc}
 1422              		.loc 1 287 1 view .LVU362
 1423              		.cfi_endproc
 1424              	.LFE266:
 1425              		.size	spiIgnore, .-spiIgnore
ARM GAS  C:\Users\USER\AppData\Local\Temp\ccgfUCVP.s 			page 26


 1426 0022 00BF     		.section	.text.spiExchange,"ax",%progbits
 1427              		.align	1
 1428              		.p2align 4,,15
 1429              		.global	spiExchange
 1430              		.syntax unified
 1431              		.thumb
 1432              		.thumb_func
 1433              		.fpu fpv4-sp-d16
 1434              		.type	spiExchange, %function
 1435              	spiExchange:
 1436              	.LVL44:
 1437              	.LFB267:
 1438              		.loc 1 308 50 is_stmt 1 view -0
 1439              		.cfi_startproc
 1440              		@ args = 0, pretend = 0, frame = 0
 1441              		@ frame_needed = 0, uses_anonymous_args = 0
 1442              		.loc 1 310 3 view .LVU364
 1443              		.loc 1 310 3 view .LVU365
 1444              		.loc 1 313 3 view .LVU366
 1445              	.LBB456:
 1446              	.LBI456:
 1447              		.loc 2 491 20 view .LVU367
 1448              	.LBE456:
 1449              		.loc 2 493 3 view .LVU368
 1450              	.LBB468:
 1451              	.LBB457:
 1452              	.LBI457:
 1453              		.loc 3 346 20 view .LVU369
 1454              	.LBE457:
 1455              	.LBE468:
 1456              		.loc 3 348 3 view .LVU370
 1457              	.LBB469:
 1458              	.LBB465:
 1459              	.LBB458:
 1460              	.LBI458:
 1461              		.loc 4 444 20 view .LVU371
 1462              	.LBE458:
 1463              	.LBE465:
 1464              	.LBE469:
 1465              		.loc 4 447 3 view .LVU372
 1466              	.LBB470:
 1467              	.LBB466:
 1468              	.LBB463:
 1469              	.LBB459:
 1470              	.LBI459:
 1471              		.loc 5 544 57 view .LVU373
 1472              	.LBB460:
 1473              		.loc 5 546 3 view .LVU374
 1474              	.LBE460:
 1475              	.LBE459:
 1476              	.LBE463:
 1477              	.LBE466:
 1478              	.LBE470:
 1479              		.loc 1 308 50 is_stmt 0 view .LVU375
 1480 0000 38B5     		push	{r3, r4, r5, lr}
 1481              		.cfi_def_cfa_offset 16
 1482              		.cfi_offset 3, -16
ARM GAS  C:\Users\USER\AppData\Local\Temp\ccgfUCVP.s 			page 27


 1483              		.cfi_offset 4, -12
 1484              		.cfi_offset 5, -8
 1485              		.cfi_offset 14, -4
 1486              		.loc 1 308 50 view .LVU376
 1487 0002 0446     		mov	r4, r0
 1488              	.LBB471:
 1489              	.LBB467:
 1490              	.LBB464:
 1491              	.LBB462:
 1492              	.LBB461:
 1493              		.loc 5 546 3 view .LVU377
 1494 0004 2025     		movs	r5, #32
 1495              		.syntax unified
 1496              	@ 546 "src/ChibiOS_3.0.2/os/ext/CMSIS/include/core_cmFunc.h" 1
 1497 0006 85F31188 		MSR basepri, r5
 1498              	@ 0 "" 2
 1499              	.LVL45:
 1500              		.loc 5 546 3 view .LVU378
 1501              		.thumb
 1502              		.syntax unified
 1503              	.LBE461:
 1504              	.LBE462:
 1505              	.LBE464:
 1506              	.LBE467:
 1507              	.LBE471:
 1508              		.loc 3 349 34 is_stmt 1 view .LVU379
 1509              		.loc 3 350 20 view .LVU380
 1510              		.loc 1 314 3 view .LVU381
 1511              		.loc 1 314 3 view .LVU382
 1512              		.loc 1 315 3 view .LVU383
 1513              		.loc 1 315 3 view .LVU384
 1514              		.loc 1 316 3 view .LVU385
 1515 000a 0325     		movs	r5, #3
 1516 000c 04F8085B 		strb	r5, [r4], #8
 1517              		.loc 1 316 3 view .LVU386
 1518 0010 FFF7FEFF 		bl	spi_lld_exchange
 1519              	.LVL46:
 1520              		.loc 1 316 43 view .LVU387
 1521              		.loc 1 317 3 view .LVU388
 1522              	.LBB472:
 1523              	.LBI472:
 1524              		.loc 2 686 21 view .LVU389
 1525              	.LBB473:
 1526              		.loc 2 688 3 view .LVU390
 1527              		.loc 2 688 10 is_stmt 0 view .LVU391
 1528 0014 2046     		mov	r0, r4
 1529 0016 FFF7FEFF 		bl	chThdSuspendS
 1530              	.LVL47:
 1531              		.loc 2 688 10 view .LVU392
 1532              	.LBE473:
 1533              	.LBE472:
 1534              		.loc 1 318 3 is_stmt 1 view .LVU393
 1535              	.LBB474:
 1536              	.LBI474:
 1537              		.loc 2 502 20 view .LVU394
 1538              	.LBE474:
 1539              		.loc 2 504 3 view .LVU395
ARM GAS  C:\Users\USER\AppData\Local\Temp\ccgfUCVP.s 			page 28


 1540              	.LBB483:
 1541              	.LBB475:
 1542              	.LBI475:
 1543              		.loc 3 358 20 view .LVU396
 1544              	.LBB476:
 1545              		.loc 3 360 22 view .LVU397
 1546              		.loc 3 361 33 view .LVU398
 1547              		.loc 3 367 3 view .LVU399
 1548              		.loc 3 367 3 view .LVU400
 1549              		.loc 3 371 3 view .LVU401
 1550              	.LBB477:
 1551              	.LBI477:
 1552              		.loc 4 458 20 view .LVU402
 1553              	.LBE477:
 1554              	.LBE476:
 1555              	.LBE475:
 1556              	.LBE483:
 1557              		.loc 4 461 3 view .LVU403
 1558              	.LBB484:
 1559              	.LBB482:
 1560              	.LBB481:
 1561              	.LBB480:
 1562              	.LBB478:
 1563              	.LBI478:
 1564              		.loc 5 544 57 view .LVU404
 1565              	.LBB479:
 1566              		.loc 5 546 3 view .LVU405
 1567 001a 0023     		movs	r3, #0
 1568              		.syntax unified
 1569              	@ 546 "src/ChibiOS_3.0.2/os/ext/CMSIS/include/core_cmFunc.h" 1
 1570 001c 83F31188 		MSR basepri, r3
 1571              	@ 0 "" 2
 1572              	.LVL48:
 1573              		.loc 5 546 3 is_stmt 0 view .LVU406
 1574              		.thumb
 1575              		.syntax unified
 1576              	.LBE479:
 1577              	.LBE478:
 1578              	.LBE480:
 1579              	.LBE481:
 1580              	.LBE482:
 1581              	.LBE484:
 1582              		.loc 1 319 1 view .LVU407
 1583 0020 38BD     		pop	{r3, r4, r5, pc}
 1584              		.loc 1 319 1 view .LVU408
 1585              		.cfi_endproc
 1586              	.LFE267:
 1587              		.size	spiExchange, .-spiExchange
 1588 0022 00BF     		.section	.text.spiSend,"ax",%progbits
 1589              		.align	1
 1590              		.p2align 4,,15
 1591              		.global	spiSend
 1592              		.syntax unified
 1593              		.thumb
 1594              		.thumb_func
 1595              		.fpu fpv4-sp-d16
 1596              		.type	spiSend, %function
ARM GAS  C:\Users\USER\AppData\Local\Temp\ccgfUCVP.s 			page 29


 1597              	spiSend:
 1598              	.LVL49:
 1599              	.LFB268:
 1600              		.loc 1 337 60 is_stmt 1 view -0
 1601              		.cfi_startproc
 1602              		@ args = 0, pretend = 0, frame = 0
 1603              		@ frame_needed = 0, uses_anonymous_args = 0
 1604              		.loc 1 339 3 view .LVU410
 1605              		.loc 1 339 3 view .LVU411
 1606              		.loc 1 341 3 view .LVU412
 1607              	.LBB485:
 1608              	.LBI485:
 1609              		.loc 2 491 20 view .LVU413
 1610              	.LBE485:
 1611              		.loc 2 493 3 view .LVU414
 1612              	.LBB501:
 1613              	.LBB486:
 1614              	.LBI486:
 1615              		.loc 3 346 20 view .LVU415
 1616              	.LBE486:
 1617              	.LBE501:
 1618              		.loc 3 348 3 view .LVU416
 1619              	.LBB502:
 1620              	.LBB497:
 1621              	.LBB487:
 1622              	.LBI487:
 1623              		.loc 4 444 20 view .LVU417
 1624              	.LBE487:
 1625              	.LBE497:
 1626              	.LBE502:
 1627              		.loc 4 447 3 view .LVU418
 1628              	.LBB503:
 1629              	.LBB498:
 1630              	.LBB494:
 1631              	.LBB488:
 1632              	.LBI488:
 1633              		.loc 5 544 57 view .LVU419
 1634              	.LBB489:
 1635              		.loc 5 546 3 view .LVU420
 1636              	.LBE489:
 1637              	.LBE488:
 1638              	.LBE494:
 1639              	.LBE498:
 1640              	.LBE503:
 1641              		.loc 1 337 60 is_stmt 0 view .LVU421
 1642 0000 10B5     		push	{r4, lr}
 1643              		.cfi_def_cfa_offset 8
 1644              		.cfi_offset 4, -8
 1645              		.cfi_offset 14, -4
 1646              	.LBB504:
 1647              	.LBB499:
 1648              	.LBB495:
 1649              	.LBB492:
 1650              	.LBB490:
 1651              		.loc 5 546 3 view .LVU422
 1652 0002 2023     		movs	r3, #32
 1653              	.LBE490:
ARM GAS  C:\Users\USER\AppData\Local\Temp\ccgfUCVP.s 			page 30


 1654              	.LBE492:
 1655              	.LBE495:
 1656              	.LBE499:
 1657              	.LBE504:
 1658              		.loc 1 337 60 view .LVU423
 1659 0004 0446     		mov	r4, r0
 1660              	.LBB505:
 1661              	.LBB500:
 1662              	.LBB496:
 1663              	.LBB493:
 1664              	.LBB491:
 1665              		.loc 5 546 3 view .LVU424
 1666              		.syntax unified
 1667              	@ 546 "src/ChibiOS_3.0.2/os/ext/CMSIS/include/core_cmFunc.h" 1
 1668 0006 83F31188 		MSR basepri, r3
 1669              	@ 0 "" 2
 1670              	.LVL50:
 1671              		.loc 5 546 3 view .LVU425
 1672              		.thumb
 1673              		.syntax unified
 1674              	.LBE491:
 1675              	.LBE493:
 1676              	.LBE496:
 1677              	.LBE500:
 1678              	.LBE505:
 1679              		.loc 3 349 34 is_stmt 1 view .LVU426
 1680              		.loc 3 350 20 view .LVU427
 1681              		.loc 1 342 3 view .LVU428
 1682              		.loc 1 342 3 view .LVU429
 1683              		.loc 1 343 3 view .LVU430
 1684              		.loc 1 343 3 view .LVU431
 1685              		.loc 1 344 3 view .LVU432
 1686 000a 0323     		movs	r3, #3
 1687 000c 04F8083B 		strb	r3, [r4], #8
 1688              		.loc 1 344 3 view .LVU433
 1689 0010 FFF7FEFF 		bl	spi_lld_send
 1690              	.LVL51:
 1691              		.loc 1 344 32 view .LVU434
 1692              		.loc 1 345 3 view .LVU435
 1693              	.LBB506:
 1694              	.LBI506:
 1695              		.loc 2 686 21 view .LVU436
 1696              	.LBB507:
 1697              		.loc 2 688 3 view .LVU437
 1698              		.loc 2 688 10 is_stmt 0 view .LVU438
 1699 0014 2046     		mov	r0, r4
 1700 0016 FFF7FEFF 		bl	chThdSuspendS
 1701              	.LVL52:
 1702              		.loc 2 688 10 view .LVU439
 1703              	.LBE507:
 1704              	.LBE506:
 1705              		.loc 1 346 3 is_stmt 1 view .LVU440
 1706              	.LBB508:
 1707              	.LBI508:
 1708              		.loc 2 502 20 view .LVU441
 1709              	.LBE508:
 1710              		.loc 2 504 3 view .LVU442
ARM GAS  C:\Users\USER\AppData\Local\Temp\ccgfUCVP.s 			page 31


 1711              	.LBB517:
 1712              	.LBB509:
 1713              	.LBI509:
 1714              		.loc 3 358 20 view .LVU443
 1715              	.LBB510:
 1716              		.loc 3 360 22 view .LVU444
 1717              		.loc 3 361 33 view .LVU445
 1718              		.loc 3 367 3 view .LVU446
 1719              		.loc 3 367 3 view .LVU447
 1720              		.loc 3 371 3 view .LVU448
 1721              	.LBB511:
 1722              	.LBI511:
 1723              		.loc 4 458 20 view .LVU449
 1724              	.LBE511:
 1725              	.LBE510:
 1726              	.LBE509:
 1727              	.LBE517:
 1728              		.loc 4 461 3 view .LVU450
 1729              	.LBB518:
 1730              	.LBB516:
 1731              	.LBB515:
 1732              	.LBB514:
 1733              	.LBB512:
 1734              	.LBI512:
 1735              		.loc 5 544 57 view .LVU451
 1736              	.LBB513:
 1737              		.loc 5 546 3 view .LVU452
 1738 001a 0023     		movs	r3, #0
 1739              		.syntax unified
 1740              	@ 546 "src/ChibiOS_3.0.2/os/ext/CMSIS/include/core_cmFunc.h" 1
 1741 001c 83F31188 		MSR basepri, r3
 1742              	@ 0 "" 2
 1743              	.LVL53:
 1744              		.loc 5 546 3 is_stmt 0 view .LVU453
 1745              		.thumb
 1746              		.syntax unified
 1747              	.LBE513:
 1748              	.LBE512:
 1749              	.LBE514:
 1750              	.LBE515:
 1751              	.LBE516:
 1752              	.LBE518:
 1753              		.loc 1 347 1 view .LVU454
 1754 0020 10BD     		pop	{r4, pc}
 1755              		.loc 1 347 1 view .LVU455
 1756              		.cfi_endproc
 1757              	.LFE268:
 1758              		.size	spiSend, .-spiSend
 1759 0022 00BF     		.section	.text.spiReceive,"ax",%progbits
 1760              		.align	1
 1761              		.p2align 4,,15
 1762              		.global	spiReceive
 1763              		.syntax unified
 1764              		.thumb
 1765              		.thumb_func
 1766              		.fpu fpv4-sp-d16
 1767              		.type	spiReceive, %function
ARM GAS  C:\Users\USER\AppData\Local\Temp\ccgfUCVP.s 			page 32


 1768              	spiReceive:
 1769              	.LVL54:
 1770              	.LFB269:
 1771              		.loc 1 365 57 is_stmt 1 view -0
 1772              		.cfi_startproc
 1773              		@ args = 0, pretend = 0, frame = 0
 1774              		@ frame_needed = 0, uses_anonymous_args = 0
 1775              		.loc 1 367 3 view .LVU457
 1776              		.loc 1 367 3 view .LVU458
 1777              		.loc 1 369 3 view .LVU459
 1778              	.LBB519:
 1779              	.LBI519:
 1780              		.loc 2 491 20 view .LVU460
 1781              	.LBE519:
 1782              		.loc 2 493 3 view .LVU461
 1783              	.LBB535:
 1784              	.LBB520:
 1785              	.LBI520:
 1786              		.loc 3 346 20 view .LVU462
 1787              	.LBE520:
 1788              	.LBE535:
 1789              		.loc 3 348 3 view .LVU463
 1790              	.LBB536:
 1791              	.LBB531:
 1792              	.LBB521:
 1793              	.LBI521:
 1794              		.loc 4 444 20 view .LVU464
 1795              	.LBE521:
 1796              	.LBE531:
 1797              	.LBE536:
 1798              		.loc 4 447 3 view .LVU465
 1799              	.LBB537:
 1800              	.LBB532:
 1801              	.LBB528:
 1802              	.LBB522:
 1803              	.LBI522:
 1804              		.loc 5 544 57 view .LVU466
 1805              	.LBB523:
 1806              		.loc 5 546 3 view .LVU467
 1807              	.LBE523:
 1808              	.LBE522:
 1809              	.LBE528:
 1810              	.LBE532:
 1811              	.LBE537:
 1812              		.loc 1 365 57 is_stmt 0 view .LVU468
 1813 0000 10B5     		push	{r4, lr}
 1814              		.cfi_def_cfa_offset 8
 1815              		.cfi_offset 4, -8
 1816              		.cfi_offset 14, -4
 1817              	.LBB538:
 1818              	.LBB533:
 1819              	.LBB529:
 1820              	.LBB526:
 1821              	.LBB524:
 1822              		.loc 5 546 3 view .LVU469
 1823 0002 2023     		movs	r3, #32
 1824              	.LBE524:
ARM GAS  C:\Users\USER\AppData\Local\Temp\ccgfUCVP.s 			page 33


 1825              	.LBE526:
 1826              	.LBE529:
 1827              	.LBE533:
 1828              	.LBE538:
 1829              		.loc 1 365 57 view .LVU470
 1830 0004 0446     		mov	r4, r0
 1831              	.LBB539:
 1832              	.LBB534:
 1833              	.LBB530:
 1834              	.LBB527:
 1835              	.LBB525:
 1836              		.loc 5 546 3 view .LVU471
 1837              		.syntax unified
 1838              	@ 546 "src/ChibiOS_3.0.2/os/ext/CMSIS/include/core_cmFunc.h" 1
 1839 0006 83F31188 		MSR basepri, r3
 1840              	@ 0 "" 2
 1841              	.LVL55:
 1842              		.loc 5 546 3 view .LVU472
 1843              		.thumb
 1844              		.syntax unified
 1845              	.LBE525:
 1846              	.LBE527:
 1847              	.LBE530:
 1848              	.LBE534:
 1849              	.LBE539:
 1850              		.loc 3 349 34 is_stmt 1 view .LVU473
 1851              		.loc 3 350 20 view .LVU474
 1852              		.loc 1 370 3 view .LVU475
 1853              		.loc 1 370 3 view .LVU476
 1854              		.loc 1 371 3 view .LVU477
 1855              		.loc 1 371 3 view .LVU478
 1856              		.loc 1 372 3 view .LVU479
 1857 000a 0323     		movs	r3, #3
 1858 000c 04F8083B 		strb	r3, [r4], #8
 1859              		.loc 1 372 3 view .LVU480
 1860 0010 FFF7FEFF 		bl	spi_lld_receive
 1861              	.LVL56:
 1862              		.loc 1 372 35 view .LVU481
 1863              		.loc 1 373 3 view .LVU482
 1864              	.LBB540:
 1865              	.LBI540:
 1866              		.loc 2 686 21 view .LVU483
 1867              	.LBB541:
 1868              		.loc 2 688 3 view .LVU484
 1869              		.loc 2 688 10 is_stmt 0 view .LVU485
 1870 0014 2046     		mov	r0, r4
 1871 0016 FFF7FEFF 		bl	chThdSuspendS
 1872              	.LVL57:
 1873              		.loc 2 688 10 view .LVU486
 1874              	.LBE541:
 1875              	.LBE540:
 1876              		.loc 1 374 3 is_stmt 1 view .LVU487
 1877              	.LBB542:
 1878              	.LBI542:
 1879              		.loc 2 502 20 view .LVU488
 1880              	.LBE542:
 1881              		.loc 2 504 3 view .LVU489
ARM GAS  C:\Users\USER\AppData\Local\Temp\ccgfUCVP.s 			page 34


 1882              	.LBB551:
 1883              	.LBB543:
 1884              	.LBI543:
 1885              		.loc 3 358 20 view .LVU490
 1886              	.LBB544:
 1887              		.loc 3 360 22 view .LVU491
 1888              		.loc 3 361 33 view .LVU492
 1889              		.loc 3 367 3 view .LVU493
 1890              		.loc 3 367 3 view .LVU494
 1891              		.loc 3 371 3 view .LVU495
 1892              	.LBB545:
 1893              	.LBI545:
 1894              		.loc 4 458 20 view .LVU496
 1895              	.LBE545:
 1896              	.LBE544:
 1897              	.LBE543:
 1898              	.LBE551:
 1899              		.loc 4 461 3 view .LVU497
 1900              	.LBB552:
 1901              	.LBB550:
 1902              	.LBB549:
 1903              	.LBB548:
 1904              	.LBB546:
 1905              	.LBI546:
 1906              		.loc 5 544 57 view .LVU498
 1907              	.LBB547:
 1908              		.loc 5 546 3 view .LVU499
 1909 001a 0023     		movs	r3, #0
 1910              		.syntax unified
 1911              	@ 546 "src/ChibiOS_3.0.2/os/ext/CMSIS/include/core_cmFunc.h" 1
 1912 001c 83F31188 		MSR basepri, r3
 1913              	@ 0 "" 2
 1914              	.LVL58:
 1915              		.loc 5 546 3 is_stmt 0 view .LVU500
 1916              		.thumb
 1917              		.syntax unified
 1918              	.LBE547:
 1919              	.LBE546:
 1920              	.LBE548:
 1921              	.LBE549:
 1922              	.LBE550:
 1923              	.LBE552:
 1924              		.loc 1 375 1 view .LVU501
 1925 0020 10BD     		pop	{r4, pc}
 1926              		.loc 1 375 1 view .LVU502
 1927              		.cfi_endproc
 1928              	.LFE269:
 1929              		.size	spiReceive, .-spiReceive
 1930 0022 00BF     		.section	.text.spiAcquireBus,"ax",%progbits
 1931              		.align	1
 1932              		.p2align 4,,15
 1933              		.global	spiAcquireBus
 1934              		.syntax unified
 1935              		.thumb
 1936              		.thumb_func
 1937              		.fpu fpv4-sp-d16
 1938              		.type	spiAcquireBus, %function
ARM GAS  C:\Users\USER\AppData\Local\Temp\ccgfUCVP.s 			page 35


 1939              	spiAcquireBus:
 1940              	.LVL59:
 1941              	.LFB270:
 1942              		.loc 1 390 37 is_stmt 1 view -0
 1943              		.cfi_startproc
 1944              		@ args = 0, pretend = 0, frame = 0
 1945              		@ frame_needed = 0, uses_anonymous_args = 0
 1946              		@ link register save eliminated.
 1947              		.loc 1 392 3 view .LVU504
 1948              		.loc 1 392 3 view .LVU505
 1949              		.loc 1 394 3 view .LVU506
 1950              	.LBB553:
 1951              	.LBI553:
 1952              		.loc 2 904 20 view .LVU507
 1953              	.LBB554:
 1954              		.loc 2 907 3 view .LVU508
 1955 0000 0C30     		adds	r0, r0, #12
 1956              	.LVL60:
 1957              		.loc 2 907 3 is_stmt 0 view .LVU509
 1958 0002 FFF7FEBF 		b	chMtxLock
 1959              	.LVL61:
 1960              		.loc 2 907 3 view .LVU510
 1961              	.LBE554:
 1962              	.LBE553:
 1963              		.cfi_endproc
 1964              	.LFE270:
 1965              		.size	spiAcquireBus, .-spiAcquireBus
 1966 0006 00BF     		.section	.text.spiReleaseBus,"ax",%progbits
 1967              		.align	1
 1968              		.p2align 4,,15
 1969              		.global	spiReleaseBus
 1970              		.syntax unified
 1971              		.thumb
 1972              		.thumb_func
 1973              		.fpu fpv4-sp-d16
 1974              		.type	spiReleaseBus, %function
 1975              	spiReleaseBus:
 1976              	.LVL62:
 1977              	.LFB271:
 1978              		.loc 1 406 37 is_stmt 1 view -0
 1979              		.cfi_startproc
 1980              		@ args = 0, pretend = 0, frame = 0
 1981              		@ frame_needed = 0, uses_anonymous_args = 0
 1982              		@ link register save eliminated.
 1983              		.loc 1 408 3 view .LVU512
 1984              		.loc 1 408 3 view .LVU513
 1985              		.loc 1 410 3 view .LVU514
 1986              	.LBB555:
 1987              	.LBI555:
 1988              		.loc 2 928 20 view .LVU515
 1989              	.LBB556:
 1990              		.loc 2 931 3 view .LVU516
 1991 0000 0C30     		adds	r0, r0, #12
 1992              	.LVL63:
 1993              		.loc 2 931 3 is_stmt 0 view .LVU517
 1994 0002 FFF7FEBF 		b	chMtxUnlock
 1995              	.LVL64:
ARM GAS  C:\Users\USER\AppData\Local\Temp\ccgfUCVP.s 			page 36


 1996              		.loc 2 931 3 view .LVU518
 1997              	.LBE556:
 1998              	.LBE555:
 1999              		.cfi_endproc
 2000              	.LFE271:
 2001              		.size	spiReleaseBus, .-spiReleaseBus
 2002 0006 00BF     		.text
 2003              	.Letext0:
 2004              		.file 6 "c:\\program files (x86)\\gnu tools arm embedded\\8 2018-q4-major\\lib\\gcc\\arm-none-eabi
 2005              		.file 7 "c:\\program files (x86)\\gnu tools arm embedded\\8 2018-q4-major\\arm-none-eabi\\include\
 2006              		.file 8 "c:\\program files (x86)\\gnu tools arm embedded\\8 2018-q4-major\\arm-none-eabi\\include\
 2007              		.file 9 "src/ChibiOS_3.0.2/os/rt/ports/ARMCMx/compilers/GCC/chtypes.h"
 2008              		.file 10 "src/ChibiOS_3.0.2/os/rt/include/chsystypes.h"
 2009              		.file 11 "src/ChibiOS_3.0.2/os/rt/include/chschd.h"
 2010              		.file 12 "src/ChibiOS_3.0.2/os/ext/CMSIS/include/core_cm4.h"
 2011              		.file 13 "src/ChibiOS_3.0.2/os/ext/CMSIS/ST/system_stm32f4xx.h"
 2012              		.file 14 "src/ChibiOS_3.0.2/os/ext/CMSIS/ST/stm32f407xx.h"
 2013              		.file 15 "src/ChibiOS_3.0.2/os/rt/ports/ARMCMx/chcore.h"
 2014              		.file 16 "src/ChibiOS_3.0.2/os/rt/include/chtm.h"
 2015              		.file 17 "src/ChibiOS_3.0.2/os/rt/include/chsem.h"
 2016              		.file 18 "src/ChibiOS_3.0.2/os/rt/include/chmtx.h"
 2017              		.file 19 "src/ChibiOS_3.0.2/os/rt/include/chregistry.h"
 2018              		.file 20 "src/ChibiOS_3.0.2/os/rt/include/chevents.h"
 2019              		.file 21 "src/ChibiOS_3.0.2/os/rt/include/chqueues.h"
 2020              		.file 22 "src/ChibiOS_3.0.2/os/hal/ports/STM32/STM32F4xx/stm32_dma.h"
 2021              		.file 23 "src/ChibiOS_3.0.2/os/hal/ports/STM32/LLD/GPIOv2/pal_lld.h"
 2022              		.file 24 "src/ChibiOS_3.0.2/os/hal/include/can.h"
 2023              		.file 25 "src/ChibiOS_3.0.2/os/hal/ports/STM32/LLD/can_lld.h"
 2024              		.file 26 "src/ChibiOS_3.0.2/os/hal/include/i2c.h"
 2025              		.file 27 "src/ChibiOS_3.0.2/os/hal/ports/STM32/LLD/I2Cv1/i2c_lld.h"
 2026              		.file 28 "src/ChibiOS_3.0.2/os/hal/include/icu.h"
 2027              		.file 29 "src/ChibiOS_3.0.2/os/hal/ports/STM32/LLD/TIMv1/icu_lld.h"
 2028              		.file 30 "src/ChibiOS_3.0.2/os/hal/ports/STM32/LLD/TIMv1/stm32_tim.h"
 2029              		.file 31 "src/ChibiOS_3.0.2/os/hal/include/serial.h"
 2030              		.file 32 "src/ChibiOS_3.0.2/os/hal/ports/STM32/LLD/USARTv1/serial_lld.h"
 2031              		.file 33 "src/ChibiOS_3.0.2/os/hal/include/spi.h"
 2032              		.file 34 "src/ChibiOS_3.0.2/os/hal/ports/STM32/LLD/SPIv1/spi_lld.h"
 2033              		.file 35 "src/ChibiOS_3.0.2/os/hal/include/uart.h"
 2034              		.file 36 "src/ChibiOS_3.0.2/os/hal/ports/STM32/LLD/USARTv1/uart_lld.h"
 2035              		.file 37 "src/ChibiOS_3.0.2/os/hal/include/usb.h"
 2036              		.file 38 "src/ChibiOS_3.0.2/os/hal/ports/STM32/LLD/OTGv1/usb_lld.h"
 2037              		.file 39 "src/ChibiOS_3.0.2/os/hal/ports/STM32/LLD/OTGv1/stm32_otg.h"
 2038              		.file 40 "src/ChibiOS_3.0.2/os/rt/include/chthreads.h"