ARM GAS  C:\Users\USER\AppData\Local\Temp\ccgPbGPC.s 			page 1


   1              		.cpu cortex-m4
   2              		.eabi_attribute 27, 1
   3              		.eabi_attribute 28, 1
   4              		.eabi_attribute 20, 1
   5              		.eabi_attribute 21, 1
   6              		.eabi_attribute 23, 3
   7              		.eabi_attribute 24, 1
   8              		.eabi_attribute 25, 1
   9              		.eabi_attribute 26, 1
  10              		.eabi_attribute 30, 2
  11              		.eabi_attribute 34, 1
  12              		.eabi_attribute 18, 4
  13              		.file	"spi_lld.c"
  14              		.text
  15              	.Ltext0:
  16              		.cfi_sections	.debug_frame
  17              		.section	.text.spi_lld_serve_tx_interrupt,"ax",%progbits
  18              		.align	1
  19              		.p2align 4,,15
  20              		.arch armv7e-m
  21              		.syntax unified
  22              		.thumb
  23              		.thumb_func
  24              		.fpu fpv4-sp-d16
  25              		.type	spi_lld_serve_tx_interrupt, %function
  26              	spi_lld_serve_tx_interrupt:
  27              	.LVL0:
  28              	.LFB257:
  29              		.file 1 "src/ChibiOS_3.0.2/os/hal/ports/STM32/LLD/SPIv1/spi_lld.c"
  30              		.loc 1 158 73 view -0
  31              		.cfi_startproc
  32              		@ args = 0, pretend = 0, frame = 0
  33              		@ frame_needed = 0, uses_anonymous_args = 0
  34              		@ link register save eliminated.
  35              		.loc 1 162 3 view .LVU1
  36              		.loc 1 163 3 view .LVU2
  37              		.loc 1 163 6 is_stmt 0 view .LVU3
  38 0000 11F00C0F 		tst	r1, #12
  39 0004 00D1     		bne	.L4
  40              		.loc 1 170 1 view .LVU4
  41 0006 7047     		bx	lr
  42              	.L4:
  43              		.loc 1 164 5 is_stmt 1 view .LVU5
  44              	.LVL1:
  45              	.LBB56:
  46              	.LBI56:
  47              		.file 2 "src/ChibiOS_3.0.2/os/hal/osal/rt/osal.h"
  48              		.loc 2 460 20 view .LVU6
  49              	.LBB57:
  50              		.loc 2 462 3 view .LVU7
  51 0008 0148     		ldr	r0, .L5
  52              	.LVL2:
  53              		.loc 2 462 3 is_stmt 0 view .LVU8
  54 000a FFF7FEBF 		b	chSysHalt
  55              	.LVL3:
  56              	.L6:
  57              		.loc 2 462 3 view .LVU9
ARM GAS  C:\Users\USER\AppData\Local\Temp\ccgPbGPC.s 			page 2


  58 000e 00BF     		.align	2
  59              	.L5:
  60 0010 00000000 		.word	.LC0
  61              	.LBE57:
  62              	.LBE56:
  63              		.cfi_endproc
  64              	.LFE257:
  65              		.size	spi_lld_serve_tx_interrupt, .-spi_lld_serve_tx_interrupt
  66              		.section	.text.spi_lld_serve_rx_interrupt,"ax",%progbits
  67              		.align	1
  68              		.p2align 4,,15
  69              		.syntax unified
  70              		.thumb
  71              		.thumb_func
  72              		.fpu fpv4-sp-d16
  73              		.type	spi_lld_serve_rx_interrupt, %function
  74              	spi_lld_serve_rx_interrupt:
  75              	.LVL4:
  76              	.LFB256:
  77              		.loc 1 132 73 is_stmt 1 view -0
  78              		.cfi_startproc
  79              		@ args = 0, pretend = 0, frame = 0
  80              		@ frame_needed = 0, uses_anonymous_args = 0
  81              		.loc 1 136 3 view .LVU11
  82              		.loc 1 136 6 is_stmt 0 view .LVU12
  83 0000 11F00C0F 		tst	r1, #12
  84              		.loc 1 132 73 view .LVU13
  85 0004 38B5     		push	{r3, r4, r5, lr}
  86              		.cfi_def_cfa_offset 16
  87              		.cfi_offset 3, -16
  88              		.cfi_offset 4, -12
  89              		.cfi_offset 5, -8
  90              		.cfi_offset 14, -4
  91              		.loc 1 132 73 view .LVU14
  92 0006 0446     		mov	r4, r0
  93              		.loc 1 136 6 view .LVU15
  94 0008 34D1     		bne	.L22
  95              	.LVL5:
  96              	.L8:
  97              		.loc 1 144 3 is_stmt 1 view .LVU16
  98 000a 606A     		ldr	r0, [r4, #36]
  99 000c 0268     		ldr	r2, [r0]
 100 000e 1368     		ldr	r3, [r2]
 101 0010 23F01F03 		bic	r3, r3, #31
 102 0014 1360     		str	r3, [r2]
 103              		.loc 1 144 3 view .LVU17
 104              	.L9:
 105              		.loc 1 144 3 discriminator 2 view .LVU18
 106 0016 1368     		ldr	r3, [r2]
 107 0018 D907     		lsls	r1, r3, #31
 108 001a FCD4     		bmi	.L9
 109              		.loc 1 144 3 discriminator 3 view .LVU19
 110 001c 057A     		ldrb	r5, [r0, #8]	@ zero_extendqisi2
 111              		.loc 1 145 3 is_stmt 0 discriminator 3 view .LVU20
 112 001e 216A     		ldr	r1, [r4, #32]
 113              		.loc 1 144 3 discriminator 3 view .LVU21
 114 0020 4068     		ldr	r0, [r0, #4]
ARM GAS  C:\Users\USER\AppData\Local\Temp\ccgPbGPC.s 			page 3


 115              		.loc 1 145 3 discriminator 3 view .LVU22
 116 0022 0A68     		ldr	r2, [r1]
 117              		.loc 1 144 3 discriminator 3 view .LVU23
 118 0024 3D23     		movs	r3, #61
 119 0026 AB40     		lsls	r3, r3, r5
 120 0028 0360     		str	r3, [r0]
 121              		.loc 1 144 3 is_stmt 1 discriminator 3 view .LVU24
 122              		.loc 1 144 32 discriminator 3 view .LVU25
 123              		.loc 1 145 3 discriminator 3 view .LVU26
 124 002a 1368     		ldr	r3, [r2]
 125 002c 23F01F03 		bic	r3, r3, #31
 126 0030 1360     		str	r3, [r2]
 127              		.loc 1 145 3 discriminator 3 view .LVU27
 128              	.L10:
 129              		.loc 1 145 3 discriminator 2 view .LVU28
 130 0032 1368     		ldr	r3, [r2]
 131 0034 DB07     		lsls	r3, r3, #31
 132 0036 FCD4     		bmi	.L10
 133              		.loc 1 145 3 discriminator 3 view .LVU29
 134              		.loc 1 149 3 is_stmt 0 discriminator 3 view .LVU30
 135 0038 6368     		ldr	r3, [r4, #4]
 136              		.loc 1 145 3 discriminator 3 view .LVU31
 137 003a 087A     		ldrb	r0, [r1, #8]	@ zero_extendqisi2
 138              		.loc 1 149 3 discriminator 3 view .LVU32
 139 003c 1A68     		ldr	r2, [r3]
 140              		.loc 1 145 3 discriminator 3 view .LVU33
 141 003e 4968     		ldr	r1, [r1, #4]
 142 0040 3D23     		movs	r3, #61
 143 0042 8340     		lsls	r3, r3, r0
 144 0044 0B60     		str	r3, [r1]
 145              		.loc 1 145 3 is_stmt 1 discriminator 3 view .LVU34
 146              		.loc 1 145 32 discriminator 3 view .LVU35
 147              		.loc 1 149 3 discriminator 3 view .LVU36
 148 0046 92B1     		cbz	r2, .L11
 149              		.loc 1 149 3 discriminator 1 view .LVU37
 150 0048 0423     		movs	r3, #4
 151 004a 2370     		strb	r3, [r4]
 152              		.loc 1 149 3 discriminator 1 view .LVU38
 153 004c 2046     		mov	r0, r4
 154 004e 9047     		blx	r2
 155              	.LVL6:
 156              		.loc 1 149 3 discriminator 1 view .LVU39
 157 0050 2378     		ldrb	r3, [r4]	@ zero_extendqisi2
 158 0052 042B     		cmp	r3, #4
 159 0054 0BD0     		beq	.L11
 160              	.L12:
 161              		.loc 1 149 3 discriminator 4 view .LVU40
 162              	.LBB58:
 163              	.LBI58:
 164              		.loc 2 513 20 discriminator 4 view .LVU41
 165              	.LBE58:
 166              		.loc 2 515 3 discriminator 4 view .LVU42
 167              	.LBB70:
 168              	.LBB59:
 169              	.LBI59:
 170              		.file 3 "src/ChibiOS_3.0.2/os/rt/include/chsys.h"
 171              		.loc 3 386 20 discriminator 4 view .LVU43
ARM GAS  C:\Users\USER\AppData\Local\Temp\ccgPbGPC.s 			page 4


 172              	.LBE59:
 173              	.LBE70:
 174              		.loc 3 388 3 discriminator 4 view .LVU44
 175              	.LBB71:
 176              	.LBB67:
 177              	.LBB60:
 178              	.LBI60:
 179              		.file 4 "src/ChibiOS_3.0.2/os/rt/ports/ARMCMx/chcore_v7m.h"
 180              		.loc 4 473 20 discriminator 4 view .LVU45
 181              	.LBE60:
 182              	.LBE67:
 183              	.LBE71:
 184              		.loc 4 475 3 discriminator 4 view .LVU46
 185              	.LBB72:
 186              	.LBB68:
 187              	.LBB65:
 188              	.LBB61:
 189              	.LBI61:
 190              		.loc 4 444 20 discriminator 4 view .LVU47
 191              	.LBE61:
 192              	.LBE65:
 193              	.LBE68:
 194              	.LBE72:
 195              		.loc 4 447 3 discriminator 4 view .LVU48
 196              	.LVL7:
 197              	.LBB73:
 198              	.LBB69:
 199              	.LBB66:
 200              	.LBB64:
 201              	.LBB62:
 202              	.LBI62:
 203              		.file 5 "src/ChibiOS_3.0.2/os/ext/CMSIS/include/core_cmFunc.h"
 204              		.loc 5 544 57 discriminator 4 view .LVU49
 205              	.LBB63:
 206              		.loc 5 546 3 discriminator 4 view .LVU50
 207 0056 2023     		movs	r3, #32
 208              		.syntax unified
 209              	@ 546 "src/ChibiOS_3.0.2/os/ext/CMSIS/include/core_cmFunc.h" 1
 210 0058 83F31188 		MSR basepri, r3
 211              	@ 0 "" 2
 212              	.LVL8:
 213              		.loc 5 546 3 is_stmt 0 discriminator 4 view .LVU51
 214              		.thumb
 215              		.syntax unified
 216              	.LBE63:
 217              	.LBE62:
 218              	.LBE64:
 219              	.LBE66:
 220              	.LBE69:
 221              	.LBE73:
 222              		.loc 3 389 34 is_stmt 1 discriminator 4 view .LVU52
 223              		.loc 3 390 29 discriminator 4 view .LVU53
 224              		.loc 1 149 3 discriminator 4 view .LVU54
 225              	.LBB74:
 226              	.LBI74:
 227              		.loc 2 726 20 discriminator 4 view .LVU55
 228              	.LBB75:
ARM GAS  C:\Users\USER\AppData\Local\Temp\ccgPbGPC.s 			page 5


 229              		.loc 2 728 3 discriminator 4 view .LVU56
 230 005c 0021     		movs	r1, #0
 231 005e 04F10800 		add	r0, r4, #8
 232              	.LVL9:
 233              		.loc 2 728 3 is_stmt 0 discriminator 4 view .LVU57
 234 0062 FFF7FEFF 		bl	chThdResumeI
 235              	.LVL10:
 236              		.loc 2 728 3 discriminator 4 view .LVU58
 237              	.LBE75:
 238              	.LBE74:
 239              		.loc 1 149 3 is_stmt 1 discriminator 4 view .LVU59
 240              	.LBB76:
 241              	.LBI76:
 242              		.loc 2 524 20 discriminator 4 view .LVU60
 243              	.LBE76:
 244              		.loc 2 526 3 discriminator 4 view .LVU61
 245              	.LBB88:
 246              	.LBB77:
 247              	.LBI77:
 248              		.loc 3 406 20 discriminator 4 view .LVU62
 249              	.LBE77:
 250              	.LBE88:
 251              		.loc 3 408 31 discriminator 4 view .LVU63
 252              		.loc 3 409 33 discriminator 4 view .LVU64
 253              		.loc 3 410 3 discriminator 4 view .LVU65
 254              	.LBB89:
 255              	.LBB85:
 256              	.LBB78:
 257              	.LBI78:
 258              		.loc 4 484 20 discriminator 4 view .LVU66
 259              	.LBE78:
 260              	.LBE85:
 261              	.LBE89:
 262              		.loc 4 486 3 discriminator 4 view .LVU67
 263              	.LBB90:
 264              	.LBB86:
 265              	.LBB83:
 266              	.LBB79:
 267              	.LBI79:
 268              		.loc 4 458 20 discriminator 4 view .LVU68
 269              	.LBE79:
 270              	.LBE83:
 271              	.LBE86:
 272              	.LBE90:
 273              		.loc 4 461 3 discriminator 4 view .LVU69
 274              	.LBB91:
 275              	.LBB87:
 276              	.LBB84:
 277              	.LBB82:
 278              	.LBB80:
 279              	.LBI80:
 280              		.loc 5 544 57 discriminator 4 view .LVU70
 281              	.LBB81:
 282              		.loc 5 546 3 discriminator 4 view .LVU71
 283 0066 0023     		movs	r3, #0
 284              		.syntax unified
 285              	@ 546 "src/ChibiOS_3.0.2/os/ext/CMSIS/include/core_cmFunc.h" 1
ARM GAS  C:\Users\USER\AppData\Local\Temp\ccgPbGPC.s 			page 6


 286 0068 83F31188 		MSR basepri, r3
 287              	@ 0 "" 2
 288              	.LVL11:
 289              		.loc 5 546 3 is_stmt 0 discriminator 4 view .LVU72
 290              		.thumb
 291              		.syntax unified
 292              	.LBE81:
 293              	.LBE80:
 294              	.LBE82:
 295              	.LBE84:
 296              	.LBE87:
 297              	.LBE91:
 298              		.loc 1 149 3 is_stmt 1 discriminator 4 view .LVU73
 299              		.loc 1 149 22 discriminator 4 view .LVU74
 300              		.loc 1 150 1 is_stmt 0 discriminator 4 view .LVU75
 301 006c 38BD     		pop	{r3, r4, r5, pc}
 302              	.LVL12:
 303              	.L11:
 304              		.loc 1 149 3 is_stmt 1 discriminator 3 view .LVU76
 305 006e 0223     		movs	r3, #2
 306 0070 2370     		strb	r3, [r4]
 307 0072 F0E7     		b	.L12
 308              	.LVL13:
 309              	.L22:
 310              		.loc 1 137 5 view .LVU77
 311              	.LBB92:
 312              	.LBI92:
 313              		.loc 2 460 20 view .LVU78
 314              	.LBB93:
 315              		.loc 2 462 3 view .LVU79
 316 0074 0148     		ldr	r0, .L23
 317              	.LVL14:
 318              		.loc 2 462 3 is_stmt 0 view .LVU80
 319 0076 FFF7FEFF 		bl	chSysHalt
 320              	.LVL15:
 321              		.loc 2 462 3 view .LVU81
 322 007a C6E7     		b	.L8
 323              	.L24:
 324              		.align	2
 325              	.L23:
 326 007c 00000000 		.word	.LC0
 327              	.LBE93:
 328              	.LBE92:
 329              		.cfi_endproc
 330              	.LFE256:
 331              		.size	spi_lld_serve_rx_interrupt, .-spi_lld_serve_rx_interrupt
 332              		.section	.text.spi_lld_init,"ax",%progbits
 333              		.align	1
 334              		.p2align 4,,15
 335              		.global	spi_lld_init
 336              		.syntax unified
 337              		.thumb
 338              		.thumb_func
 339              		.fpu fpv4-sp-d16
 340              		.type	spi_lld_init, %function
 341              	spi_lld_init:
 342              	.LFB258:
ARM GAS  C:\Users\USER\AppData\Local\Temp\ccgPbGPC.s 			page 7


 343              		.loc 1 185 25 is_stmt 1 view -0
 344              		.cfi_startproc
 345              		@ args = 0, pretend = 0, frame = 0
 346              		@ frame_needed = 0, uses_anonymous_args = 0
 347              		.loc 1 187 3 view .LVU83
 348              		.loc 1 185 25 is_stmt 0 view .LVU84
 349 0000 10B5     		push	{r4, lr}
 350              		.cfi_def_cfa_offset 8
 351              		.cfi_offset 4, -8
 352              		.cfi_offset 14, -4
 353              		.loc 1 190 3 view .LVU85
 354 0002 0A4C     		ldr	r4, .L27
 355              		.loc 1 187 11 view .LVU86
 356 0004 0A4B     		ldr	r3, .L27+4
 357 0006 4FF6FF72 		movw	r2, #65535
 358              		.loc 1 190 3 view .LVU87
 359 000a 2046     		mov	r0, r4
 360              		.loc 1 187 11 view .LVU88
 361 000c 1A80     		strh	r2, [r3]	@ movhi
 362              		.loc 1 190 3 is_stmt 1 view .LVU89
 363 000e FFF7FEFF 		bl	spiObjectInit
 364              	.LVL16:
 365              		.loc 1 191 3 view .LVU90
 366              		.loc 1 192 19 is_stmt 0 view .LVU91
 367 0012 084B     		ldr	r3, .L27+8
 368              		.loc 1 191 19 view .LVU92
 369 0014 0848     		ldr	r0, .L27+12
 370              		.loc 1 194 19 view .LVU93
 371 0016 0949     		ldr	r1, .L27+16
 372              		.loc 1 200 19 view .LVU94
 373 0018 094A     		ldr	r2, .L27+20
 374              		.loc 1 191 19 view .LVU95
 375 001a E061     		str	r0, [r4, #28]
 376              		.loc 1 192 3 is_stmt 1 view .LVU96
 377              		.loc 1 193 19 is_stmt 0 view .LVU97
 378 001c 03F12400 		add	r0, r3, #36
 379 0020 C4E90830 		strd	r3, r0, [r4, #32]
 380              		.loc 1 194 3 is_stmt 1 view .LVU98
 381              		.loc 1 200 19 is_stmt 0 view .LVU99
 382 0024 C4E90A12 		strd	r1, r2, [r4, #40]
 383              		.loc 1 296 1 view .LVU100
 384 0028 10BD     		pop	{r4, pc}
 385              	.L28:
 386 002a 00BF     		.align	2
 387              	.L27:
 388 002c 00000000 		.word	.LANCHOR1
 389 0030 00000000 		.word	.LANCHOR0
 390 0034 60000000 		.word	_stm32_dma_streams+96
 391 0038 00300140 		.word	1073819648
 392 003c 16000106 		.word	100728854
 393 0040 46000106 		.word	100728902
 394              		.cfi_endproc
 395              	.LFE258:
 396              		.size	spi_lld_init, .-spi_lld_init
 397              		.section	.text.spi_lld_start,"ax",%progbits
 398              		.align	1
 399              		.p2align 4,,15
ARM GAS  C:\Users\USER\AppData\Local\Temp\ccgPbGPC.s 			page 8


 400              		.global	spi_lld_start
 401              		.syntax unified
 402              		.thumb
 403              		.thumb_func
 404              		.fpu fpv4-sp-d16
 405              		.type	spi_lld_start, %function
 406              	spi_lld_start:
 407              	.LVL17:
 408              	.LFB259:
 409              		.loc 1 305 37 is_stmt 1 view -0
 410              		.cfi_startproc
 411              		@ args = 0, pretend = 0, frame = 0
 412              		@ frame_needed = 0, uses_anonymous_args = 0
 413              		.loc 1 308 3 view .LVU102
 414              		.loc 1 308 6 is_stmt 0 view .LVU103
 415 0000 0378     		ldrb	r3, [r0]	@ zero_extendqisi2
 416 0002 012B     		cmp	r3, #1
 417              		.loc 1 305 37 view .LVU104
 418 0004 10B5     		push	{r4, lr}
 419              		.cfi_def_cfa_offset 8
 420              		.cfi_offset 4, -8
 421              		.cfi_offset 14, -4
 422              		.loc 1 305 37 view .LVU105
 423 0006 0446     		mov	r4, r0
 424              		.loc 1 308 6 view .LVU106
 425 0008 1DD0     		beq	.L35
 426 000a C369     		ldr	r3, [r0, #28]
 427              	.LVL18:
 428              	.L30:
 429              		.loc 1 408 56 is_stmt 1 discriminator 1 view .LVU107
 430              		.loc 1 412 3 discriminator 1 view .LVU108
 431              		.loc 1 412 20 is_stmt 0 discriminator 1 view .LVU109
 432 000c 6268     		ldr	r2, [r4, #4]
 433 000e A06A     		ldr	r0, [r4, #40]
 434 0010 5289     		ldrh	r2, [r2, #10]
 435 0012 E16A     		ldr	r1, [r4, #44]
 436 0014 20F4F040 		bic	r0, r0, #30720
 437 0018 21F4F041 		bic	r1, r1, #30720
 438              		.loc 1 412 6 discriminator 1 view .LVU110
 439 001c 12F4006F 		tst	r2, #2048
 440              		.loc 1 414 5 is_stmt 1 discriminator 1 view .LVU111
 441              		.loc 1 421 5 discriminator 1 view .LVU112
 442              		.loc 1 427 3 discriminator 1 view .LVU113
 443              		.loc 1 422 48 is_stmt 0 discriminator 1 view .LVU114
 444 0020 1CBF     		itt	ne
 445 0022 40F42050 		orrne	r0, r0, #10240
 446              		.loc 1 424 48 discriminator 1 view .LVU115
 447 0026 41F42051 		orrne	r1, r1, #10240
 448              		.loc 1 423 21 discriminator 1 view .LVU116
 449 002a C4E90A01 		strd	r0, r1, [r4, #40]
 450              		.loc 1 428 68 discriminator 1 view .LVU117
 451 002e 42F44172 		orr	r2, r2, #772
 452              		.loc 1 427 19 discriminator 1 view .LVU118
 453 0032 0020     		movs	r0, #0
 454              		.loc 1 430 19 discriminator 1 view .LVU119
 455 0034 0721     		movs	r1, #7
 456              		.loc 1 427 19 discriminator 1 view .LVU120
ARM GAS  C:\Users\USER\AppData\Local\Temp\ccgPbGPC.s 			page 9


 457 0036 1860     		str	r0, [r3]
 458              		.loc 1 428 3 is_stmt 1 discriminator 1 view .LVU121
 459              		.loc 1 428 19 is_stmt 0 discriminator 1 view .LVU122
 460 0038 1A60     		str	r2, [r3]
 461              		.loc 1 430 3 is_stmt 1 discriminator 1 view .LVU123
 462              		.loc 1 430 19 is_stmt 0 discriminator 1 view .LVU124
 463 003a 5960     		str	r1, [r3, #4]
 464              		.loc 1 431 3 is_stmt 1 discriminator 1 view .LVU125
 465              		.loc 1 431 18 is_stmt 0 discriminator 1 view .LVU126
 466 003c 1A68     		ldr	r2, [r3]
 467 003e 42F04002 		orr	r2, r2, #64
 468 0042 1A60     		str	r2, [r3]
 469              		.loc 1 432 1 discriminator 1 view .LVU127
 470 0044 10BD     		pop	{r4, pc}
 471              	.LVL19:
 472              	.L35:
 473              		.loc 1 310 5 is_stmt 1 view .LVU128
 474              		.loc 1 310 8 is_stmt 0 view .LVU129
 475 0046 0F4B     		ldr	r3, .L39
 476 0048 9842     		cmp	r0, r3
 477 004a 09D0     		beq	.L38
 478              	.LVL20:
 479              	.L31:
 480              	.LBB94:
 481              		.loc 1 322 27 is_stmt 1 discriminator 3 view .LVU130
 482              	.LBE94:
 483              		.loc 1 407 5 discriminator 3 view .LVU131
 484              		.loc 1 408 5 is_stmt 0 discriminator 3 view .LVU132
 485 004c D4E90812 		ldrd	r1, r2, [r4, #32]
 486              		.loc 1 407 5 discriminator 3 view .LVU133
 487 0050 E369     		ldr	r3, [r4, #28]
 488 0052 0868     		ldr	r0, [r1]
 489              		.loc 1 408 5 discriminator 3 view .LVU134
 490 0054 1168     		ldr	r1, [r2]
 491              		.loc 1 407 5 discriminator 3 view .LVU135
 492 0056 03F10C02 		add	r2, r3, #12
 493 005a 8260     		str	r2, [r0, #8]
 494              		.loc 1 407 56 is_stmt 1 discriminator 3 view .LVU136
 495              		.loc 1 408 5 discriminator 3 view .LVU137
 496 005c 8A60     		str	r2, [r1, #8]
 497 005e D5E7     		b	.L30
 498              	.LVL21:
 499              	.L38:
 500              	.LBB95:
 501              		.loc 1 311 7 view .LVU138
 502              		.loc 1 312 7 view .LVU139
 503              		.loc 1 312 11 is_stmt 0 view .LVU140
 504 0060 0346     		mov	r3, r0
 505 0062 094A     		ldr	r2, .L39+4
 506 0064 006A     		ldr	r0, [r0, #32]
 507              	.LVL22:
 508              		.loc 1 312 11 view .LVU141
 509 0066 0A21     		movs	r1, #10
 510 0068 FFF7FEFF 		bl	dmaStreamAllocate
 511              	.LVL23:
 512              		.loc 1 316 7 is_stmt 1 view .LVU142
 513              		.loc 1 316 7 view .LVU143
ARM GAS  C:\Users\USER\AppData\Local\Temp\ccgPbGPC.s 			page 10


 514              		.loc 1 317 7 view .LVU144
 515              		.loc 1 317 11 is_stmt 0 view .LVU145
 516 006c 2346     		mov	r3, r4
 517 006e 074A     		ldr	r2, .L39+8
 518 0070 606A     		ldr	r0, [r4, #36]
 519 0072 0A21     		movs	r1, #10
 520 0074 FFF7FEFF 		bl	dmaStreamAllocate
 521              	.LVL24:
 522              		.loc 1 321 7 is_stmt 1 view .LVU146
 523              		.loc 1 321 7 view .LVU147
 524              		.loc 1 322 7 view .LVU148
 525 0078 054A     		ldr	r2, .L39+12
 526 007a 536C     		ldr	r3, [r2, #68]
 527 007c 43F48053 		orr	r3, r3, #4096
 528 0080 5364     		str	r3, [r2, #68]
 529              		.loc 1 322 7 view .LVU149
 530 0082 E3E7     		b	.L31
 531              	.L40:
 532              		.align	2
 533              	.L39:
 534 0084 00000000 		.word	.LANCHOR1
 535 0088 00000000 		.word	spi_lld_serve_rx_interrupt
 536 008c 00000000 		.word	spi_lld_serve_tx_interrupt
 537 0090 00380240 		.word	1073887232
 538              	.LBE95:
 539              		.cfi_endproc
 540              	.LFE259:
 541              		.size	spi_lld_start, .-spi_lld_start
 542              		.section	.text.spi_lld_stop,"ax",%progbits
 543              		.align	1
 544              		.p2align 4,,15
 545              		.global	spi_lld_stop
 546              		.syntax unified
 547              		.thumb
 548              		.thumb_func
 549              		.fpu fpv4-sp-d16
 550              		.type	spi_lld_stop, %function
 551              	spi_lld_stop:
 552              	.LVL25:
 553              	.LFB260:
 554              		.loc 1 441 36 view -0
 555              		.cfi_startproc
 556              		@ args = 0, pretend = 0, frame = 0
 557              		@ frame_needed = 0, uses_anonymous_args = 0
 558              		.loc 1 444 3 view .LVU151
 559              		.loc 1 444 6 is_stmt 0 view .LVU152
 560 0000 0378     		ldrb	r3, [r0]	@ zero_extendqisi2
 561 0002 022B     		cmp	r3, #2
 562 0004 00D0     		beq	.L49
 563 0006 7047     		bx	lr
 564              	.L49:
 565              		.loc 1 447 5 is_stmt 1 view .LVU153
 566              		.loc 1 441 36 is_stmt 0 view .LVU154
 567 0008 10B5     		push	{r4, lr}
 568              		.cfi_def_cfa_offset 8
 569              		.cfi_offset 4, -8
 570              		.cfi_offset 14, -4
ARM GAS  C:\Users\USER\AppData\Local\Temp\ccgPbGPC.s 			page 11


 571 000a 0446     		mov	r4, r0
 572              		.loc 1 449 5 view .LVU155
 573 000c D0E90730 		ldrd	r3, r0, [r0, #28]
 574              	.LVL26:
 575              		.loc 1 447 20 view .LVU156
 576 0010 0022     		movs	r2, #0
 577 0012 1A60     		str	r2, [r3]
 578              		.loc 1 448 5 is_stmt 1 view .LVU157
 579              		.loc 1 448 20 is_stmt 0 view .LVU158
 580 0014 5A60     		str	r2, [r3, #4]
 581              		.loc 1 449 5 is_stmt 1 view .LVU159
 582 0016 FFF7FEFF 		bl	dmaStreamRelease
 583              	.LVL27:
 584              		.loc 1 450 5 view .LVU160
 585 001a 606A     		ldr	r0, [r4, #36]
 586 001c FFF7FEFF 		bl	dmaStreamRelease
 587              	.LVL28:
 588              		.loc 1 453 5 view .LVU161
 589              		.loc 1 453 8 is_stmt 0 view .LVU162
 590 0020 044B     		ldr	r3, .L51
 591 0022 9C42     		cmp	r4, r3
 592 0024 00D0     		beq	.L50
 593              		.loc 1 477 1 view .LVU163
 594 0026 10BD     		pop	{r4, pc}
 595              	.LVL29:
 596              	.L50:
 597              		.loc 1 454 7 is_stmt 1 view .LVU164
 598 0028 034A     		ldr	r2, .L51+4
 599 002a 536C     		ldr	r3, [r2, #68]
 600 002c 23F48053 		bic	r3, r3, #4096
 601 0030 5364     		str	r3, [r2, #68]
 602              		.loc 1 454 7 view .LVU165
 603              		.loc 1 454 28 view .LVU166
 604              		.loc 1 477 1 is_stmt 0 view .LVU167
 605 0032 10BD     		pop	{r4, pc}
 606              	.LVL30:
 607              	.L52:
 608              		.loc 1 477 1 view .LVU168
 609              		.align	2
 610              	.L51:
 611 0034 00000000 		.word	.LANCHOR1
 612 0038 00380240 		.word	1073887232
 613              		.cfi_endproc
 614              	.LFE260:
 615              		.size	spi_lld_stop, .-spi_lld_stop
 616              		.section	.text.spi_lld_select,"ax",%progbits
 617              		.align	1
 618              		.p2align 4,,15
 619              		.global	spi_lld_select
 620              		.syntax unified
 621              		.thumb
 622              		.thumb_func
 623              		.fpu fpv4-sp-d16
 624              		.type	spi_lld_select, %function
 625              	spi_lld_select:
 626              	.LVL31:
 627              	.LFB261:
ARM GAS  C:\Users\USER\AppData\Local\Temp\ccgPbGPC.s 			page 12


 628              		.loc 1 486 38 is_stmt 1 view -0
 629              		.cfi_startproc
 630              		@ args = 0, pretend = 0, frame = 0
 631              		@ frame_needed = 0, uses_anonymous_args = 0
 632              		@ link register save eliminated.
 633              		.loc 1 488 3 view .LVU170
 634 0000 4268     		ldr	r2, [r0, #4]
 635 0002 1189     		ldrh	r1, [r2, #8]
 636 0004 5268     		ldr	r2, [r2, #4]
 637 0006 0123     		movs	r3, #1
 638 0008 8B40     		lsls	r3, r3, r1
 639 000a 9BB2     		uxth	r3, r3
 640 000c 5383     		strh	r3, [r2, #26]	@ movhi
 641              		.loc 1 489 1 is_stmt 0 view .LVU171
 642 000e 7047     		bx	lr
 643              		.cfi_endproc
 644              	.LFE261:
 645              		.size	spi_lld_select, .-spi_lld_select
 646              		.section	.text.spi_lld_unselect,"ax",%progbits
 647              		.align	1
 648              		.p2align 4,,15
 649              		.global	spi_lld_unselect
 650              		.syntax unified
 651              		.thumb
 652              		.thumb_func
 653              		.fpu fpv4-sp-d16
 654              		.type	spi_lld_unselect, %function
 655              	spi_lld_unselect:
 656              	.LVL32:
 657              	.LFB262:
 658              		.loc 1 499 40 is_stmt 1 view -0
 659              		.cfi_startproc
 660              		@ args = 0, pretend = 0, frame = 0
 661              		@ frame_needed = 0, uses_anonymous_args = 0
 662              		@ link register save eliminated.
 663              		.loc 1 501 3 view .LVU173
 664 0000 4268     		ldr	r2, [r0, #4]
 665 0002 1189     		ldrh	r1, [r2, #8]
 666 0004 5268     		ldr	r2, [r2, #4]
 667 0006 0123     		movs	r3, #1
 668 0008 8B40     		lsls	r3, r3, r1
 669 000a 9BB2     		uxth	r3, r3
 670 000c 1383     		strh	r3, [r2, #24]	@ movhi
 671              		.loc 1 502 1 is_stmt 0 view .LVU174
 672 000e 7047     		bx	lr
 673              		.cfi_endproc
 674              	.LFE262:
 675              		.size	spi_lld_unselect, .-spi_lld_unselect
 676              		.section	.text.spi_lld_ignore,"ax",%progbits
 677              		.align	1
 678              		.p2align 4,,15
 679              		.global	spi_lld_ignore
 680              		.syntax unified
 681              		.thumb
 682              		.thumb_func
 683              		.fpu fpv4-sp-d16
 684              		.type	spi_lld_ignore, %function
ARM GAS  C:\Users\USER\AppData\Local\Temp\ccgPbGPC.s 			page 13


 685              	spi_lld_ignore:
 686              	.LVL33:
 687              	.LFB263:
 688              		.loc 1 515 48 is_stmt 1 view -0
 689              		.cfi_startproc
 690              		@ args = 0, pretend = 0, frame = 0
 691              		@ frame_needed = 0, uses_anonymous_args = 0
 692              		@ link register save eliminated.
 693              		.loc 1 517 3 view .LVU176
 694              		.loc 1 521 3 is_stmt 0 view .LVU177
 695 0000 D0E90823 		ldrd	r2, r3, [r0, #32]
 696              		.loc 1 515 48 view .LVU178
 697 0004 30B4     		push	{r4, r5}
 698              		.cfi_def_cfa_offset 8
 699              		.cfi_offset 4, -8
 700              		.cfi_offset 5, -4
 701              		.loc 1 517 3 view .LVU179
 702 0006 1268     		ldr	r2, [r2]
 703              		.loc 1 521 3 view .LVU180
 704 0008 1B68     		ldr	r3, [r3]
 705              		.loc 1 517 3 view .LVU181
 706 000a 0A4C     		ldr	r4, .L57
 707              		.loc 1 523 3 view .LVU182
 708 000c D0E90A50 		ldrd	r5, r0, [r0, #40]
 709              	.LVL34:
 710              		.loc 1 517 3 view .LVU183
 711 0010 D460     		str	r4, [r2, #12]
 712              		.loc 1 517 45 is_stmt 1 view .LVU184
 713              		.loc 1 518 3 view .LVU185
 714              		.loc 1 521 3 is_stmt 0 view .LVU186
 715 0012 094C     		ldr	r4, .L57+4
 716              		.loc 1 518 3 view .LVU187
 717 0014 5160     		str	r1, [r2, #4]
 718              		.loc 1 518 46 is_stmt 1 view .LVU188
 719              		.loc 1 519 3 view .LVU189
 720 0016 1560     		str	r5, [r2]
 721              		.loc 1 519 49 view .LVU190
 722              		.loc 1 521 3 view .LVU191
 723 0018 DC60     		str	r4, [r3, #12]
 724              		.loc 1 521 45 view .LVU192
 725              		.loc 1 522 3 view .LVU193
 726 001a 5960     		str	r1, [r3, #4]
 727              		.loc 1 522 46 view .LVU194
 728              		.loc 1 523 3 view .LVU195
 729 001c 1860     		str	r0, [r3]
 730              		.loc 1 523 49 view .LVU196
 731              		.loc 1 525 3 view .LVU197
 732 001e 1168     		ldr	r1, [r2]
 733              	.LVL35:
 734              		.loc 1 525 3 is_stmt 0 view .LVU198
 735 0020 41F00101 		orr	r1, r1, #1
 736 0024 1160     		str	r1, [r2]
 737              		.loc 1 525 31 is_stmt 1 view .LVU199
 738              		.loc 1 526 3 view .LVU200
 739 0026 1A68     		ldr	r2, [r3]
 740 0028 42F00102 		orr	r2, r2, #1
 741 002c 1A60     		str	r2, [r3]
ARM GAS  C:\Users\USER\AppData\Local\Temp\ccgPbGPC.s 			page 14


 742              		.loc 1 526 31 view .LVU201
 743              		.loc 1 527 1 is_stmt 0 view .LVU202
 744 002e 30BC     		pop	{r4, r5}
 745              		.cfi_restore 5
 746              		.cfi_restore 4
 747              		.cfi_def_cfa_offset 0
 748 0030 7047     		bx	lr
 749              	.L58:
 750 0032 00BF     		.align	2
 751              	.L57:
 752 0034 00000000 		.word	.LANCHOR2
 753 0038 00000000 		.word	.LANCHOR0
 754              		.cfi_endproc
 755              	.LFE263:
 756              		.size	spi_lld_ignore, .-spi_lld_ignore
 757              		.section	.text.spi_lld_exchange,"ax",%progbits
 758              		.align	1
 759              		.p2align 4,,15
 760              		.global	spi_lld_exchange
 761              		.syntax unified
 762              		.thumb
 763              		.thumb_func
 764              		.fpu fpv4-sp-d16
 765              		.type	spi_lld_exchange, %function
 766              	spi_lld_exchange:
 767              	.LVL36:
 768              	.LFB264:
 769              		.loc 1 545 55 is_stmt 1 view -0
 770              		.cfi_startproc
 771              		@ args = 0, pretend = 0, frame = 0
 772              		@ frame_needed = 0, uses_anonymous_args = 0
 773              		@ link register save eliminated.
 774              		.loc 1 547 3 view .LVU204
 775              		.loc 1 545 55 is_stmt 0 view .LVU205
 776 0000 70B4     		push	{r4, r5, r6}
 777              		.cfi_def_cfa_offset 12
 778              		.cfi_offset 4, -12
 779              		.cfi_offset 5, -8
 780              		.cfi_offset 6, -4
 781              		.loc 1 551 3 view .LVU206
 782 0002 D0E90854 		ldrd	r5, r4, [r0, #32]
 783              		.loc 1 553 3 view .LVU207
 784 0006 D0E90A60 		ldrd	r6, r0, [r0, #40]
 785              	.LVL37:
 786              		.loc 1 547 3 view .LVU208
 787 000a 2D68     		ldr	r5, [r5]
 788              		.loc 1 551 3 view .LVU209
 789 000c 2468     		ldr	r4, [r4]
 790              		.loc 1 547 3 view .LVU210
 791 000e EB60     		str	r3, [r5, #12]
 792              		.loc 1 547 42 is_stmt 1 view .LVU211
 793              		.loc 1 548 3 view .LVU212
 794              		.loc 1 549 3 is_stmt 0 view .LVU213
 795 0010 46F48066 		orr	r6, r6, #1024
 796              		.loc 1 553 3 view .LVU214
 797 0014 40F48060 		orr	r0, r0, #1024
 798              		.loc 1 548 3 view .LVU215
ARM GAS  C:\Users\USER\AppData\Local\Temp\ccgPbGPC.s 			page 15


 799 0018 6960     		str	r1, [r5, #4]
 800              		.loc 1 548 46 is_stmt 1 view .LVU216
 801              		.loc 1 549 3 view .LVU217
 802 001a 2E60     		str	r6, [r5]
 803              		.loc 1 549 68 view .LVU218
 804              		.loc 1 551 3 view .LVU219
 805 001c E260     		str	r2, [r4, #12]
 806              		.loc 1 551 42 view .LVU220
 807              		.loc 1 552 3 view .LVU221
 808 001e 6160     		str	r1, [r4, #4]
 809              		.loc 1 552 46 view .LVU222
 810              		.loc 1 553 3 view .LVU223
 811 0020 2060     		str	r0, [r4]
 812              		.loc 1 553 69 view .LVU224
 813              		.loc 1 555 3 view .LVU225
 814 0022 2B68     		ldr	r3, [r5]
 815              	.LVL38:
 816              		.loc 1 555 3 is_stmt 0 view .LVU226
 817 0024 43F00103 		orr	r3, r3, #1
 818 0028 2B60     		str	r3, [r5]
 819              		.loc 1 555 31 is_stmt 1 view .LVU227
 820              		.loc 1 556 3 view .LVU228
 821 002a 2368     		ldr	r3, [r4]
 822 002c 43F00103 		orr	r3, r3, #1
 823 0030 2360     		str	r3, [r4]
 824              		.loc 1 556 31 view .LVU229
 825              		.loc 1 557 1 is_stmt 0 view .LVU230
 826 0032 70BC     		pop	{r4, r5, r6}
 827              		.cfi_restore 6
 828              		.cfi_restore 5
 829              		.cfi_restore 4
 830              		.cfi_def_cfa_offset 0
 831 0034 7047     		bx	lr
 832              		.cfi_endproc
 833              	.LFE264:
 834              		.size	spi_lld_exchange, .-spi_lld_exchange
 835 0036 00BF     		.section	.text.spi_lld_send,"ax",%progbits
 836              		.align	1
 837              		.p2align 4,,15
 838              		.global	spi_lld_send
 839              		.syntax unified
 840              		.thumb
 841              		.thumb_func
 842              		.fpu fpv4-sp-d16
 843              		.type	spi_lld_send, %function
 844              	spi_lld_send:
 845              	.LVL39:
 846              	.LFB265:
 847              		.loc 1 572 65 is_stmt 1 view -0
 848              		.cfi_startproc
 849              		@ args = 0, pretend = 0, frame = 0
 850              		@ frame_needed = 0, uses_anonymous_args = 0
 851              		@ link register save eliminated.
 852              		.loc 1 574 3 view .LVU232
 853              		.loc 1 572 65 is_stmt 0 view .LVU233
 854 0000 70B4     		push	{r4, r5, r6}
 855              		.cfi_def_cfa_offset 12
ARM GAS  C:\Users\USER\AppData\Local\Temp\ccgPbGPC.s 			page 16


 856              		.cfi_offset 4, -12
 857              		.cfi_offset 5, -8
 858              		.cfi_offset 6, -4
 859              		.loc 1 578 3 view .LVU234
 860 0002 D0E90843 		ldrd	r4, r3, [r0, #32]
 861              		.loc 1 580 3 view .LVU235
 862 0006 C56A     		ldr	r5, [r0, #44]
 863              		.loc 1 574 3 view .LVU236
 864 0008 2468     		ldr	r4, [r4]
 865              		.loc 1 578 3 view .LVU237
 866 000a 1B68     		ldr	r3, [r3]
 867              		.loc 1 576 3 view .LVU238
 868 000c 806A     		ldr	r0, [r0, #40]
 869              	.LVL40:
 870              		.loc 1 574 3 view .LVU239
 871 000e 094E     		ldr	r6, .L63
 872 0010 E660     		str	r6, [r4, #12]
 873              		.loc 1 574 45 is_stmt 1 view .LVU240
 874              		.loc 1 575 3 view .LVU241
 875              		.loc 1 580 3 is_stmt 0 view .LVU242
 876 0012 45F48065 		orr	r5, r5, #1024
 877              		.loc 1 575 3 view .LVU243
 878 0016 6160     		str	r1, [r4, #4]
 879              		.loc 1 575 46 is_stmt 1 view .LVU244
 880              		.loc 1 576 3 view .LVU245
 881 0018 2060     		str	r0, [r4]
 882              		.loc 1 576 49 view .LVU246
 883              		.loc 1 578 3 view .LVU247
 884 001a DA60     		str	r2, [r3, #12]
 885              		.loc 1 578 42 view .LVU248
 886              		.loc 1 579 3 view .LVU249
 887 001c 5960     		str	r1, [r3, #4]
 888              		.loc 1 579 46 view .LVU250
 889              		.loc 1 580 3 view .LVU251
 890 001e 1D60     		str	r5, [r3]
 891              		.loc 1 580 69 view .LVU252
 892              		.loc 1 582 3 view .LVU253
 893 0020 2268     		ldr	r2, [r4]
 894              	.LVL41:
 895              		.loc 1 582 3 is_stmt 0 view .LVU254
 896 0022 42F00102 		orr	r2, r2, #1
 897 0026 2260     		str	r2, [r4]
 898              		.loc 1 582 31 is_stmt 1 view .LVU255
 899              		.loc 1 583 3 view .LVU256
 900 0028 1A68     		ldr	r2, [r3]
 901 002a 42F00102 		orr	r2, r2, #1
 902 002e 1A60     		str	r2, [r3]
 903              		.loc 1 583 31 view .LVU257
 904              		.loc 1 584 1 is_stmt 0 view .LVU258
 905 0030 70BC     		pop	{r4, r5, r6}
 906              		.cfi_restore 6
 907              		.cfi_restore 5
 908              		.cfi_restore 4
 909              		.cfi_def_cfa_offset 0
 910 0032 7047     		bx	lr
 911              	.L64:
 912              		.align	2
ARM GAS  C:\Users\USER\AppData\Local\Temp\ccgPbGPC.s 			page 17


 913              	.L63:
 914 0034 00000000 		.word	.LANCHOR2
 915              		.cfi_endproc
 916              	.LFE265:
 917              		.size	spi_lld_send, .-spi_lld_send
 918              		.section	.text.spi_lld_receive,"ax",%progbits
 919              		.align	1
 920              		.p2align 4,,15
 921              		.global	spi_lld_receive
 922              		.syntax unified
 923              		.thumb
 924              		.thumb_func
 925              		.fpu fpv4-sp-d16
 926              		.type	spi_lld_receive, %function
 927              	spi_lld_receive:
 928              	.LVL42:
 929              	.LFB266:
 930              		.loc 1 599 62 is_stmt 1 view -0
 931              		.cfi_startproc
 932              		@ args = 0, pretend = 0, frame = 0
 933              		@ frame_needed = 0, uses_anonymous_args = 0
 934              		@ link register save eliminated.
 935              		.loc 1 601 3 view .LVU260
 936              		.loc 1 599 62 is_stmt 0 view .LVU261
 937 0000 30B4     		push	{r4, r5}
 938              		.cfi_def_cfa_offset 8
 939              		.cfi_offset 4, -8
 940              		.cfi_offset 5, -4
 941              		.loc 1 605 3 view .LVU262
 942 0002 D0E90843 		ldrd	r4, r3, [r0, #32]
 943              		.loc 1 603 3 view .LVU263
 944 0006 856A     		ldr	r5, [r0, #40]
 945              		.loc 1 601 3 view .LVU264
 946 0008 2468     		ldr	r4, [r4]
 947              		.loc 1 605 3 view .LVU265
 948 000a 1B68     		ldr	r3, [r3]
 949              		.loc 1 607 3 view .LVU266
 950 000c C06A     		ldr	r0, [r0, #44]
 951              	.LVL43:
 952              		.loc 1 601 3 view .LVU267
 953 000e E260     		str	r2, [r4, #12]
 954              		.loc 1 601 42 is_stmt 1 view .LVU268
 955              		.loc 1 602 3 view .LVU269
 956              		.loc 1 603 3 is_stmt 0 view .LVU270
 957 0010 45F48065 		orr	r5, r5, #1024
 958              		.loc 1 605 3 view .LVU271
 959 0014 074A     		ldr	r2, .L67
 960              	.LVL44:
 961              		.loc 1 602 3 view .LVU272
 962 0016 6160     		str	r1, [r4, #4]
 963              	.LVL45:
 964              		.loc 1 602 46 is_stmt 1 view .LVU273
 965              		.loc 1 603 3 view .LVU274
 966 0018 2560     		str	r5, [r4]
 967              		.loc 1 603 69 view .LVU275
 968              		.loc 1 605 3 view .LVU276
 969 001a DA60     		str	r2, [r3, #12]
ARM GAS  C:\Users\USER\AppData\Local\Temp\ccgPbGPC.s 			page 18


 970              		.loc 1 605 45 view .LVU277
 971              		.loc 1 606 3 view .LVU278
 972 001c 5960     		str	r1, [r3, #4]
 973              		.loc 1 606 46 view .LVU279
 974              		.loc 1 607 3 view .LVU280
 975 001e 1860     		str	r0, [r3]
 976              		.loc 1 607 49 view .LVU281
 977              		.loc 1 609 3 view .LVU282
 978 0020 2268     		ldr	r2, [r4]
 979 0022 42F00102 		orr	r2, r2, #1
 980 0026 2260     		str	r2, [r4]
 981              		.loc 1 609 31 view .LVU283
 982              		.loc 1 610 3 view .LVU284
 983 0028 1A68     		ldr	r2, [r3]
 984 002a 42F00102 		orr	r2, r2, #1
 985 002e 1A60     		str	r2, [r3]
 986              		.loc 1 610 31 view .LVU285
 987              		.loc 1 611 1 is_stmt 0 view .LVU286
 988 0030 30BC     		pop	{r4, r5}
 989              		.cfi_restore 5
 990              		.cfi_restore 4
 991              		.cfi_def_cfa_offset 0
 992 0032 7047     		bx	lr
 993              	.L68:
 994              		.align	2
 995              	.L67:
 996 0034 00000000 		.word	.LANCHOR0
 997              		.cfi_endproc
 998              	.LFE266:
 999              		.size	spi_lld_receive, .-spi_lld_receive
 1000              		.section	.text.spi_lld_polled_exchange,"ax",%progbits
 1001              		.align	1
 1002              		.p2align 4,,15
 1003              		.global	spi_lld_polled_exchange
 1004              		.syntax unified
 1005              		.thumb
 1006              		.thumb_func
 1007              		.fpu fpv4-sp-d16
 1008              		.type	spi_lld_polled_exchange, %function
 1009              	spi_lld_polled_exchange:
 1010              	.LVL46:
 1011              	.LFB267:
 1012              		.loc 1 625 67 is_stmt 1 view -0
 1013              		.cfi_startproc
 1014              		@ args = 0, pretend = 0, frame = 0
 1015              		@ frame_needed = 0, uses_anonymous_args = 0
 1016              		@ link register save eliminated.
 1017              		.loc 1 627 3 view .LVU288
 1018              		.loc 1 627 7 is_stmt 0 view .LVU289
 1019 0000 C269     		ldr	r2, [r0, #28]
 1020              		.loc 1 627 17 view .LVU290
 1021 0002 D160     		str	r1, [r2, #12]
 1022              		.loc 1 628 3 is_stmt 1 view .LVU291
 1023              	.L70:
 1024              		.loc 1 629 5 discriminator 1 view .LVU292
 1025              		.loc 1 628 20 is_stmt 0 discriminator 1 view .LVU293
 1026 0004 9368     		ldr	r3, [r2, #8]
ARM GAS  C:\Users\USER\AppData\Local\Temp\ccgPbGPC.s 			page 19


 1027              		.loc 1 628 9 discriminator 1 view .LVU294
 1028 0006 DB07     		lsls	r3, r3, #31
 1029 0008 FCD5     		bpl	.L70
 1030              		.loc 1 630 3 is_stmt 1 view .LVU295
 1031              		.loc 1 630 19 is_stmt 0 view .LVU296
 1032 000a D068     		ldr	r0, [r2, #12]
 1033              	.LVL47:
 1034              		.loc 1 631 1 view .LVU297
 1035 000c 80B2     		uxth	r0, r0
 1036 000e 7047     		bx	lr
 1037              		.cfi_endproc
 1038              	.LFE267:
 1039              		.size	spi_lld_polled_exchange, .-spi_lld_polled_exchange
 1040              		.global	SPID1
 1041              		.section	.bss.SPID1,"aw",%nobits
 1042              		.align	2
 1043              		.set	.LANCHOR1,. + 0
 1044              		.type	SPID1, %object
 1045              		.size	SPID1, 48
 1046              	SPID1:
 1047 0000 00000000 		.space	48
 1047      00000000 
 1047      00000000 
 1047      00000000 
 1047      00000000 
 1048              		.section	.bss.dummyrx,"aw",%nobits
 1049              		.align	1
 1050              		.set	.LANCHOR2,. + 0
 1051              		.type	dummyrx, %object
 1052              		.size	dummyrx, 2
 1053              	dummyrx:
 1054 0000 0000     		.space	2
 1055              		.section	.bss.dummytx,"aw",%nobits
 1056              		.align	1
 1057              		.set	.LANCHOR0,. + 0
 1058              		.type	dummytx, %object
 1059              		.size	dummytx, 2
 1060              	dummytx:
 1061 0000 0000     		.space	2
 1062              		.section	.rodata.spi_lld_serve_tx_interrupt.str1.4,"aMS",%progbits,1
 1063              		.align	2
 1064              	.LC0:
 1065 0000 444D4120 		.ascii	"DMA failure\000"
 1065      6661696C 
 1065      75726500 
 1066              		.text
 1067              	.Letext0:
 1068              		.file 6 "c:\\program files (x86)\\gnu tools arm embedded\\8 2018-q4-major\\lib\\gcc\\arm-none-eabi
 1069              		.file 7 "c:\\program files (x86)\\gnu tools arm embedded\\8 2018-q4-major\\arm-none-eabi\\include\
 1070              		.file 8 "c:\\program files (x86)\\gnu tools arm embedded\\8 2018-q4-major\\arm-none-eabi\\include\
 1071              		.file 9 "src/ChibiOS_3.0.2/os/rt/ports/ARMCMx/compilers/GCC/chtypes.h"
 1072              		.file 10 "src/ChibiOS_3.0.2/os/rt/include/chsystypes.h"
 1073              		.file 11 "src/ChibiOS_3.0.2/os/rt/include/chschd.h"
 1074              		.file 12 "src/ChibiOS_3.0.2/os/ext/CMSIS/include/core_cm4.h"
 1075              		.file 13 "src/ChibiOS_3.0.2/os/ext/CMSIS/ST/system_stm32f4xx.h"
 1076              		.file 14 "src/ChibiOS_3.0.2/os/ext/CMSIS/ST/stm32f407xx.h"
 1077              		.file 15 "src/ChibiOS_3.0.2/os/rt/ports/ARMCMx/chcore.h"
ARM GAS  C:\Users\USER\AppData\Local\Temp\ccgPbGPC.s 			page 20


 1078              		.file 16 "src/ChibiOS_3.0.2/os/rt/include/chtm.h"
 1079              		.file 17 "src/ChibiOS_3.0.2/os/rt/include/chsem.h"
 1080              		.file 18 "src/ChibiOS_3.0.2/os/rt/include/chmtx.h"
 1081              		.file 19 "src/ChibiOS_3.0.2/os/rt/include/chregistry.h"
 1082              		.file 20 "src/ChibiOS_3.0.2/os/rt/include/chevents.h"
 1083              		.file 21 "src/ChibiOS_3.0.2/os/rt/include/chqueues.h"
 1084              		.file 22 "src/ChibiOS_3.0.2/os/hal/ports/STM32/STM32F4xx/stm32_dma.h"
 1085              		.file 23 "src/ChibiOS_3.0.2/os/hal/ports/STM32/LLD/GPIOv2/pal_lld.h"
 1086              		.file 24 "src/ChibiOS_3.0.2/os/hal/include/can.h"
 1087              		.file 25 "src/ChibiOS_3.0.2/os/hal/ports/STM32/LLD/can_lld.h"
 1088              		.file 26 "src/ChibiOS_3.0.2/os/hal/include/i2c.h"
 1089              		.file 27 "src/ChibiOS_3.0.2/os/hal/ports/STM32/LLD/I2Cv1/i2c_lld.h"
 1090              		.file 28 "src/ChibiOS_3.0.2/os/hal/include/icu.h"
 1091              		.file 29 "src/ChibiOS_3.0.2/os/hal/ports/STM32/LLD/TIMv1/icu_lld.h"
 1092              		.file 30 "src/ChibiOS_3.0.2/os/hal/ports/STM32/LLD/TIMv1/stm32_tim.h"
 1093              		.file 31 "src/ChibiOS_3.0.2/os/hal/include/serial.h"
 1094              		.file 32 "src/ChibiOS_3.0.2/os/hal/ports/STM32/LLD/USARTv1/serial_lld.h"
 1095              		.file 33 "src/ChibiOS_3.0.2/os/hal/include/spi.h"
 1096              		.file 34 "src/ChibiOS_3.0.2/os/hal/ports/STM32/LLD/SPIv1/spi_lld.h"
 1097              		.file 35 "src/ChibiOS_3.0.2/os/hal/include/uart.h"
 1098              		.file 36 "src/ChibiOS_3.0.2/os/hal/ports/STM32/LLD/USARTv1/uart_lld.h"
 1099              		.file 37 "src/ChibiOS_3.0.2/os/hal/include/usb.h"
 1100              		.file 38 "src/ChibiOS_3.0.2/os/hal/ports/STM32/LLD/OTGv1/usb_lld.h"
 1101              		.file 39 "src/ChibiOS_3.0.2/os/hal/ports/STM32/LLD/OTGv1/stm32_otg.h"
 1102              		.file 40 "src/ChibiOS_3.0.2/os/rt/include/chthreads.h"