ARM GAS  C:\Users\IDONNO~1\AppData\Local\Temp\ccJIOTQC.s 			page 1


   1              		.syntax unified
   2              		.cpu cortex-m4
   3              		.eabi_attribute 27, 1
   4              		.eabi_attribute 28, 1
   5              		.fpu fpv4-sp-d16
   6              		.eabi_attribute 20, 1
   7              		.eabi_attribute 21, 1
   8              		.eabi_attribute 23, 3
   9              		.eabi_attribute 24, 1
  10              		.eabi_attribute 25, 1
  11              		.eabi_attribute 26, 1
  12              		.eabi_attribute 30, 2
  13              		.eabi_attribute 34, 1
  14              		.eabi_attribute 18, 4
  15              		.thumb
  16              		.syntax unified
  17              		.file	"spi_sw.c"
  18              		.text
  19              	.Ltext0:
  20              		.cfi_sections	.debug_frame
  21              		.section	.text.spi_sw_init,"ax",%progbits
  22              		.align	2
  23              		.p2align 4,,15
  24              		.global	spi_sw_init
  25              		.thumb
  26              		.thumb_func
  27              		.type	spi_sw_init, %function
  28              	spi_sw_init:
  29              	.LFB256:
  30              		.file 1 "src/core/spi_sw.c"
  31              		.loc 1 29 0
  32              		.cfi_startproc
  33              		@ args = 0, pretend = 0, frame = 0
  34              		@ frame_needed = 0, uses_anonymous_args = 0
  35 0000 38B5     		push	{r3, r4, r5, lr}
  36              		.cfi_def_cfa_offset 16
  37              		.cfi_offset 3, -16
  38              		.cfi_offset 4, -12
  39              		.cfi_offset 5, -8
  40              		.cfi_offset 14, -4
  41              		.loc 1 30 0
  42 0002 0F4D     		ldr	r5, .L5
  43 0004 2A78     		ldrb	r2, [r5]	@ zero_extendqisi2
  44 0006 CAB9     		cbnz	r2, .L1
  45              		.loc 1 31 0
  46 0008 0E4C     		ldr	r4, .L5+4
  47 000a 4021     		movs	r1, #64
  48 000c 2046     		mov	r0, r4
  49 000e FFF7FEFF 		bl	_pal_lld_setgroupmode
  50              	.LVL0:
  51              		.loc 1 32 0
  52 0012 2046     		mov	r0, r4
  53 0014 0122     		movs	r2, #1
  54 0016 1021     		movs	r1, #16
  55 0018 FFF7FEFF 		bl	_pal_lld_setgroupmode
  56              	.LVL1:
  57              		.loc 1 33 0
ARM GAS  C:\Users\IDONNO~1\AppData\Local\Temp\ccJIOTQC.s 			page 2


  58 001c 2046     		mov	r0, r4
  59 001e 0122     		movs	r2, #1
  60 0020 2021     		movs	r1, #32
  61 0022 FFF7FEFF 		bl	_pal_lld_setgroupmode
  62              	.LVL2:
  63              		.loc 1 34 0
  64 0026 0122     		movs	r2, #1
  65 0028 8021     		movs	r1, #128
  66 002a 2046     		mov	r0, r4
  67 002c FFF7FEFF 		bl	_pal_lld_setgroupmode
  68              	.LVL3:
  69              		.loc 1 36 0
  70 0030 1021     		movs	r1, #16
  71              		.loc 1 37 0
  72 0032 2022     		movs	r2, #32
  73              		.loc 1 38 0
  74 0034 0123     		movs	r3, #1
  75              		.loc 1 36 0
  76 0036 2183     		strh	r1, [r4, #24]	@ movhi
  77              		.loc 1 37 0
  78 0038 6283     		strh	r2, [r4, #26]	@ movhi
  79              		.loc 1 38 0
  80 003a 2B70     		strb	r3, [r5]
  81              	.L1:
  82 003c 38BD     		pop	{r3, r4, r5, pc}
  83              	.L6:
  84 003e 00BF     		.align	2
  85              	.L5:
  86 0040 00000000 		.word	.LANCHOR0
  87 0044 00000240 		.word	1073872896
  88              		.cfi_endproc
  89              	.LFE256:
  90              		.size	spi_sw_init, .-spi_sw_init
  91              		.section	.text.spi_sw_transfer,"ax",%progbits
  92              		.align	2
  93              		.p2align 4,,15
  94              		.global	spi_sw_transfer
  95              		.thumb
  96              		.thumb_func
  97              		.type	spi_sw_transfer, %function
  98              	spi_sw_transfer:
  99              	.LFB257:
 100              		.loc 1 42 0
 101              		.cfi_startproc
 102              		@ args = 0, pretend = 0, frame = 16
 103              		@ frame_needed = 0, uses_anonymous_args = 0
 104              	.LVL4:
 105 0000 2DE9F047 		push	{r4, r5, r6, r7, r8, r9, r10, lr}
 106              		.cfi_def_cfa_offset 32
 107              		.cfi_offset 4, -32
 108              		.cfi_offset 5, -28
 109              		.cfi_offset 6, -24
 110              		.cfi_offset 7, -20
 111              		.cfi_offset 8, -16
 112              		.cfi_offset 9, -12
 113              		.cfi_offset 10, -8
 114              		.cfi_offset 14, -4
ARM GAS  C:\Users\IDONNO~1\AppData\Local\Temp\ccJIOTQC.s 			page 3


 115              		.loc 1 43 0
 116 0004 2E4C     		ldr	r4, .L40
 117              		.loc 1 42 0
 118 0006 84B0     		sub	sp, sp, #16
 119              		.cfi_def_cfa_offset 48
 120              	.LBB33:
 121              	.LBB34:
 122              		.loc 1 83 0
 123 0008 0023     		movs	r3, #0
 124              	.LBE34:
 125              	.LBE33:
 126              		.loc 1 43 0
 127 000a 2025     		movs	r5, #32
 128 000c 6583     		strh	r5, [r4, #26]	@ movhi
 129              	.LBB39:
 130              	.LBB37:
 131              		.loc 1 83 0
 132 000e 0193     		str	r3, [sp, #4]
 133 0010 019B     		ldr	r3, [sp, #4]
 134 0012 042B     		cmp	r3, #4
 135              	.LBE37:
 136              	.LBE39:
 137              		.loc 1 42 0
 138 0014 8846     		mov	r8, r1
 139              	.LBB40:
 140              	.LBB38:
 141              		.loc 1 83 0
 142 0016 06DC     		bgt	.L11
 143              	.L30:
 144              	.LBB35:
 145              	.LBB36:
 146              		.file 2 "src/ChibiOS_3.0.2/os/ext/CMSIS/include/core_cmInstr.h"
 147              		.loc 2 327 0
 148              		.syntax unified
 149              	@ 327 "src/ChibiOS_3.0.2/os/ext/CMSIS/include/core_cmInstr.h" 1
 150 0018 00BF     		nop
 151              	@ 0 "" 2
 152              		.thumb
 153              		.syntax unified
 154              	.LBE36:
 155              	.LBE35:
 156              		.loc 1 83 0
 157 001a 019B     		ldr	r3, [sp, #4]
 158 001c 0133     		adds	r3, r3, #1
 159 001e 0193     		str	r3, [sp, #4]
 160 0020 019B     		ldr	r3, [sp, #4]
 161 0022 042B     		cmp	r3, #4
 162 0024 F8DD     		ble	.L30
 163              	.L11:
 164              	.LVL5:
 165              	.LBE38:
 166              	.LBE40:
 167              	.LBB41:
 168              		.loc 1 46 0
 169 0026 002A     		cmp	r2, #0
 170 0028 45DD     		ble	.L7
 171              	.LBB42:
ARM GAS  C:\Users\IDONNO~1\AppData\Local\Temp\ccJIOTQC.s 			page 4


 172              	.LBB43:
 173              		.loc 1 51 0
 174 002a 254D     		ldr	r5, .L40
 175 002c 00EB0209 		add	r9, r0, r2
 176 0030 8646     		mov	lr, r0
 177 0032 C446     		mov	ip, r8
 178              	.LBB44:
 179              	.LBB45:
 180              		.loc 1 83 0
 181 0034 0021     		movs	r1, #0
 182              	.LVL6:
 183              	.L23:
 184              	.LBE45:
 185              	.LBE44:
 186              	.LBE43:
 187              		.loc 1 47 0
 188 0036 B8F1000F 		cmp	r8, #0
 189 003a 3FD0     		beq	.L24
 190              		.loc 1 47 0 is_stmt 0 discriminator 1
 191 003c 9CF80040 		ldrb	r4, [ip]	@ zero_extendqisi2
 192              	.L12:
 193              	.LVL7:
 194 0040 0826     		movs	r6, #8
 195 0042 0022     		movs	r2, #0
 196              	.LBB58:
 197              		.loc 1 61 0 is_stmt 1 discriminator 1
 198 0044 4FF02007 		mov	r7, #32	@ movhi
 199              	.LVL8:
 200              	.L19:
 201              		.loc 1 51 0
 202 0048 C4F3C71A 		ubfx	r10, r4, #7, #8
 203 004c BAF1000F 		cmp	r10, #0
 204 0050 0CBF     		ite	eq
 205 0052 4FF40003 		moveq	r3, #8388608
 206 0056 0023     		movne	r3, #0
 207 0058 43EACA13 		orr	r3, r3, r10, lsl #7
 208 005c AB61     		str	r3, [r5, #24]
 209              	.LBB51:
 210              	.LBB48:
 211              		.loc 1 83 0
 212 005e 0291     		str	r1, [sp, #8]
 213 0060 029B     		ldr	r3, [sp, #8]
 214              	.LBE48:
 215              	.LBE51:
 216              		.loc 1 52 0
 217 0062 6400     		lsls	r4, r4, #1
 218              	.LVL9:
 219              	.LBB52:
 220              	.LBB49:
 221              		.loc 1 83 0
 222 0064 042B     		cmp	r3, #4
 223              	.LBE49:
 224              	.LBE52:
 225              		.loc 1 52 0
 226 0066 E4B2     		uxtb	r4, r4
 227              	.LVL10:
 228              	.LBB53:
ARM GAS  C:\Users\IDONNO~1\AppData\Local\Temp\ccJIOTQC.s 			page 5


 229              	.LBB50:
 230              		.loc 1 83 0
 231 0068 06DC     		bgt	.L17
 232              	.L29:
 233              	.LBB46:
 234              	.LBB47:
 235              		.loc 2 327 0
 236              		.syntax unified
 237              	@ 327 "src/ChibiOS_3.0.2/os/ext/CMSIS/include/core_cmInstr.h" 1
 238 006a 00BF     		nop
 239              	@ 0 "" 2
 240              		.thumb
 241              		.syntax unified
 242              	.LBE47:
 243              	.LBE46:
 244              		.loc 1 83 0
 245 006c 029B     		ldr	r3, [sp, #8]
 246 006e 0133     		adds	r3, r3, #1
 247 0070 0293     		str	r3, [sp, #8]
 248 0072 029B     		ldr	r3, [sp, #8]
 249 0074 042B     		cmp	r3, #4
 250 0076 F8DD     		ble	.L29
 251              	.L17:
 252              	.LBE50:
 253              	.LBE53:
 254              		.loc 1 57 0
 255 0078 2B69     		ldr	r3, [r5, #16]
 256              		.loc 1 56 0
 257 007a 5200     		lsls	r2, r2, #1
 258              	.LVL11:
 259              		.loc 1 57 0
 260 007c 5B06     		lsls	r3, r3, #25
 261              		.loc 1 56 0
 262 007e D2B2     		uxtb	r2, r2
 263              	.LVL12:
 264              		.loc 1 57 0
 265 0080 01D5     		bpl	.L16
 266              		.loc 1 58 0
 267 0082 42F00102 		orr	r2, r2, #1
 268              	.LVL13:
 269              	.L16:
 270              		.loc 1 61 0 discriminator 2
 271 0086 2F83     		strh	r7, [r5, #24]	@ movhi
 272              	.LBB54:
 273              	.LBB55:
 274              		.loc 1 83 0 discriminator 2
 275 0088 0391     		str	r1, [sp, #12]
 276 008a 039B     		ldr	r3, [sp, #12]
 277 008c 042B     		cmp	r3, #4
 278 008e 06DC     		bgt	.L21
 279              	.L28:
 280              	.LBB56:
 281              	.LBB57:
 282              		.loc 2 327 0
 283              		.syntax unified
 284              	@ 327 "src/ChibiOS_3.0.2/os/ext/CMSIS/include/core_cmInstr.h" 1
 285 0090 00BF     		nop
ARM GAS  C:\Users\IDONNO~1\AppData\Local\Temp\ccJIOTQC.s 			page 6


 286              	@ 0 "" 2
 287              		.thumb
 288              		.syntax unified
 289              	.LBE57:
 290              	.LBE56:
 291              		.loc 1 83 0
 292 0092 039B     		ldr	r3, [sp, #12]
 293 0094 0133     		adds	r3, r3, #1
 294 0096 0393     		str	r3, [sp, #12]
 295 0098 039B     		ldr	r3, [sp, #12]
 296 009a 042B     		cmp	r3, #4
 297 009c F8DD     		ble	.L28
 298              	.L21:
 299              	.LBE55:
 300              	.LBE54:
 301              		.loc 1 50 0
 302 009e 013E     		subs	r6, r6, #1
 303              	.LVL14:
 304              		.loc 1 63 0
 305 00a0 6F83     		strh	r7, [r5, #26]	@ movhi
 306              	.LVL15:
 307              		.loc 1 50 0
 308 00a2 D1D1     		bne	.L19
 309              	.LBE58:
 310              		.loc 1 66 0
 311 00a4 08B1     		cbz	r0, .L22
 312              		.loc 1 67 0
 313 00a6 8EF80020 		strb	r2, [lr]
 314              	.L22:
 315 00aa 0EF1010E 		add	lr, lr, #1
 316              	.LBE42:
 317              		.loc 1 46 0 discriminator 2
 318 00ae F145     		cmp	r9, lr
 319 00b0 0CF1010C 		add	ip, ip, #1
 320 00b4 BFD1     		bne	.L23
 321              	.LVL16:
 322              	.L7:
 323              	.LBE41:
 324              		.loc 1 70 0
 325 00b6 04B0     		add	sp, sp, #16
 326              		.cfi_remember_state
 327              		.cfi_def_cfa_offset 32
 328              		@ sp needed
 329 00b8 BDE8F087 		pop	{r4, r5, r6, r7, r8, r9, r10, pc}
 330              	.LVL17:
 331              	.L24:
 332              		.cfi_restore_state
 333              	.LBB60:
 334              	.LBB59:
 335              		.loc 1 47 0
 336 00bc 4446     		mov	r4, r8
 337 00be BFE7     		b	.L12
 338              	.L41:
 339              		.align	2
 340              	.L40:
 341 00c0 00000240 		.word	1073872896
 342              	.LBE59:
ARM GAS  C:\Users\IDONNO~1\AppData\Local\Temp\ccJIOTQC.s 			page 7


 343              	.LBE60:
 344              		.cfi_endproc
 345              	.LFE257:
 346              		.size	spi_sw_transfer, .-spi_sw_transfer
 347              		.section	.text.spi_sw_begin,"ax",%progbits
 348              		.align	2
 349              		.p2align 4,,15
 350              		.global	spi_sw_begin
 351              		.thumb
 352              		.thumb_func
 353              		.type	spi_sw_begin, %function
 354              	spi_sw_begin:
 355              	.LFB258:
 356              		.loc 1 72 0
 357              		.cfi_startproc
 358              		@ args = 0, pretend = 0, frame = 8
 359              		@ frame_needed = 0, uses_anonymous_args = 0
 360              		@ link register save eliminated.
 361 0000 82B0     		sub	sp, sp, #8
 362              		.cfi_def_cfa_offset 8
 363              		.loc 1 73 0
 364 0002 084A     		ldr	r2, .L48
 365              	.LBB61:
 366              	.LBB62:
 367              		.loc 1 83 0
 368 0004 0023     		movs	r3, #0
 369              	.LBE62:
 370              	.LBE61:
 371              		.loc 1 73 0
 372 0006 1021     		movs	r1, #16
 373 0008 5183     		strh	r1, [r2, #26]	@ movhi
 374              	.LBB66:
 375              	.LBB65:
 376              		.loc 1 83 0
 377 000a 0193     		str	r3, [sp, #4]
 378 000c 019B     		ldr	r3, [sp, #4]
 379 000e 042B     		cmp	r3, #4
 380 0010 06DC     		bgt	.L42
 381              	.L45:
 382              	.LBB63:
 383              	.LBB64:
 384              		.loc 2 327 0
 385              		.syntax unified
 386              	@ 327 "src/ChibiOS_3.0.2/os/ext/CMSIS/include/core_cmInstr.h" 1
 387 0012 00BF     		nop
 388              	@ 0 "" 2
 389              		.thumb
 390              		.syntax unified
 391              	.LBE64:
 392              	.LBE63:
 393              		.loc 1 83 0
 394 0014 019B     		ldr	r3, [sp, #4]
 395 0016 0133     		adds	r3, r3, #1
 396 0018 0193     		str	r3, [sp, #4]
 397 001a 019B     		ldr	r3, [sp, #4]
 398 001c 042B     		cmp	r3, #4
 399 001e F8DD     		ble	.L45
ARM GAS  C:\Users\IDONNO~1\AppData\Local\Temp\ccJIOTQC.s 			page 8


 400              	.L42:
 401              	.LBE65:
 402              	.LBE66:
 403              		.loc 1 75 0
 404 0020 02B0     		add	sp, sp, #8
 405              		.cfi_def_cfa_offset 0
 406              		@ sp needed
 407 0022 7047     		bx	lr
 408              	.L49:
 409              		.align	2
 410              	.L48:
 411 0024 00000240 		.word	1073872896
 412              		.cfi_endproc
 413              	.LFE258:
 414              		.size	spi_sw_begin, .-spi_sw_begin
 415              		.section	.text.spi_sw_end,"ax",%progbits
 416              		.align	2
 417              		.p2align 4,,15
 418              		.global	spi_sw_end
 419              		.thumb
 420              		.thumb_func
 421              		.type	spi_sw_end, %function
 422              	spi_sw_end:
 423              	.LFB259:
 424              		.loc 1 77 0
 425              		.cfi_startproc
 426              		@ args = 0, pretend = 0, frame = 8
 427              		@ frame_needed = 0, uses_anonymous_args = 0
 428              		@ link register save eliminated.
 429 0000 82B0     		sub	sp, sp, #8
 430              		.cfi_def_cfa_offset 8
 431              	.LBB67:
 432              	.LBB68:
 433              		.loc 1 83 0
 434 0002 0023     		movs	r3, #0
 435 0004 0193     		str	r3, [sp, #4]
 436 0006 019B     		ldr	r3, [sp, #4]
 437 0008 042B     		cmp	r3, #4
 438 000a 06DC     		bgt	.L52
 439              	.L53:
 440              	.LBB69:
 441              	.LBB70:
 442              		.loc 2 327 0
 443              		.syntax unified
 444              	@ 327 "src/ChibiOS_3.0.2/os/ext/CMSIS/include/core_cmInstr.h" 1
 445 000c 00BF     		nop
 446              	@ 0 "" 2
 447              		.thumb
 448              		.syntax unified
 449              	.LBE70:
 450              	.LBE69:
 451              		.loc 1 83 0
 452 000e 019B     		ldr	r3, [sp, #4]
 453 0010 0133     		adds	r3, r3, #1
 454 0012 0193     		str	r3, [sp, #4]
 455 0014 019B     		ldr	r3, [sp, #4]
 456 0016 042B     		cmp	r3, #4
ARM GAS  C:\Users\IDONNO~1\AppData\Local\Temp\ccJIOTQC.s 			page 9


 457 0018 F8DD     		ble	.L53
 458              	.L52:
 459              	.LBE68:
 460              	.LBE67:
 461              		.loc 1 79 0
 462 001a 024B     		ldr	r3, .L57
 463 001c 1022     		movs	r2, #16
 464 001e 1A83     		strh	r2, [r3, #24]	@ movhi
 465              		.loc 1 80 0
 466 0020 02B0     		add	sp, sp, #8
 467              		.cfi_def_cfa_offset 0
 468              		@ sp needed
 469 0022 7047     		bx	lr
 470              	.L58:
 471              		.align	2
 472              	.L57:
 473 0024 00000240 		.word	1073872896
 474              		.cfi_endproc
 475              	.LFE259:
 476              		.size	spi_sw_end, .-spi_sw_end
 477              		.section	.bss.init_done,"aw",%nobits
 478              		.set	.LANCHOR0,. + 0
 479              		.type	init_done, %object
 480              		.size	init_done, 1
 481              	init_done:
 482 0000 00       		.space	1
 483              		.text
 484              	.Letext0:
 485              		.file 3 "c:\\program files (x86)\\gnu tools arm embedded\\5.4 2016q3\\arm-none-eabi\\include\\mach
 486              		.file 4 "c:\\program files (x86)\\gnu tools arm embedded\\5.4 2016q3\\arm-none-eabi\\include\\sys\
 487              		.file 5 "c:\\program files (x86)\\gnu tools arm embedded\\5.4 2016q3\\lib\\gcc\\arm-none-eabi\\5.4
 488              		.file 6 "src/ChibiOS_3.0.2/os/rt/ports/ARMCMx/compilers/GCC/chtypes.h"
 489              		.file 7 "src/ChibiOS_3.0.2/os/rt/include/chsystypes.h"
 490              		.file 8 "src/ChibiOS_3.0.2/os/rt/include/chschd.h"
 491              		.file 9 "src/ChibiOS_3.0.2/os/rt/ports/ARMCMx/chcore.h"
 492              		.file 10 "src/ChibiOS_3.0.2/os/rt/ports/ARMCMx/chcore_v7m.h"
 493              		.file 11 "src/ChibiOS_3.0.2/os/rt/include/chtm.h"
 494              		.file 12 "src/ChibiOS_3.0.2/os/rt/include/chsem.h"
 495              		.file 13 "src/ChibiOS_3.0.2/os/rt/include/chmtx.h"
 496              		.file 14 "src/ChibiOS_3.0.2/os/hal/ports/STM32/LLD/GPIOv2/pal_lld.h"
 497              		.file 15 "src/ChibiOS_3.0.2/os/ext/CMSIS/include/core_cm4.h"