ARM GAS  C:\Users\USER\AppData\Local\Temp\ccWq8y3g.s 			page 1


   1              		.cpu cortex-m4
   2              		.eabi_attribute 27, 1
   3              		.eabi_attribute 28, 1
   4              		.eabi_attribute 20, 1
   5              		.eabi_attribute 21, 1
   6              		.eabi_attribute 23, 3
   7              		.eabi_attribute 24, 1
   8              		.eabi_attribute 25, 1
   9              		.eabi_attribute 26, 1
  10              		.eabi_attribute 30, 2
  11              		.eabi_attribute 34, 1
  12              		.eabi_attribute 18, 4
  13              		.file	"st.c"
  14              		.text
  15              	.Ltext0:
  16              		.cfi_sections	.debug_frame
  17              		.section	.text.stInit,"ax",%progbits
  18              		.align	1
  19              		.p2align 4,,15
  20              		.global	stInit
  21              		.arch armv7e-m
  22              		.syntax unified
  23              		.thumb
  24              		.thumb_func
  25              		.fpu fpv4-sp-d16
  26              		.type	stInit, %function
  27              	stInit:
  28              	.LFB256:
  29              		.file 1 "src/ChibiOS_3.0.2/os/hal/src/st.c"
  30              		.loc 1 60 19 view -0
  31              		.cfi_startproc
  32              		@ args = 0, pretend = 0, frame = 0
  33              		@ frame_needed = 0, uses_anonymous_args = 0
  34              		@ link register save eliminated.
  35              		.loc 1 62 3 view .LVU1
  36 0000 FFF7FEBF 		b	st_lld_init
  37              	.LVL0:
  38              		.cfi_endproc
  39              	.LFE256:
  40              		.size	stInit, .-stInit
  41              		.section	.text.stStartAlarm,"ax",%progbits
  42              		.align	1
  43              		.p2align 4,,15
  44              		.global	stStartAlarm
  45              		.syntax unified
  46              		.thumb
  47              		.thumb_func
  48              		.fpu fpv4-sp-d16
  49              		.type	stStartAlarm, %function
  50              	stStartAlarm:
  51              	.LVL1:
  52              	.LFB257:
  53              		.loc 1 77 38 view -0
  54              		.cfi_startproc
  55              		@ args = 0, pretend = 0, frame = 0
  56              		@ frame_needed = 0, uses_anonymous_args = 0
  57              		@ link register save eliminated.
ARM GAS  C:\Users\USER\AppData\Local\Temp\ccWq8y3g.s 			page 2


  58              		.loc 1 79 3 view .LVU3
  59              		.loc 1 79 3 view .LVU4
  60              		.loc 1 81 3 view .LVU5
  61              	.LBB10:
  62              	.LBB11:
  63              		.file 2 "src/ChibiOS_3.0.2/os/hal/ports/STM32/LLD/TIMv1/st_lld.h"
  64              		.loc 2 143 24 is_stmt 0 view .LVU6
  65 0000 4FF08043 		mov	r3, #1073741824
  66              	.LVL2:
  67              		.loc 2 143 24 view .LVU7
  68              	.LBE11:
  69              	.LBI10:
  70              		.loc 2 141 20 is_stmt 1 view .LVU8
  71              	.LBB12:
  72              		.loc 2 143 3 view .LVU9
  73              		.loc 2 144 24 is_stmt 0 view .LVU10
  74 0004 0021     		movs	r1, #0
  75              		.loc 2 145 24 view .LVU11
  76 0006 0222     		movs	r2, #2
  77              		.loc 2 143 24 view .LVU12
  78 0008 5863     		str	r0, [r3, #52]
  79              		.loc 2 144 3 is_stmt 1 view .LVU13
  80              		.loc 2 144 24 is_stmt 0 view .LVU14
  81 000a 1961     		str	r1, [r3, #16]
  82              		.loc 2 145 3 is_stmt 1 view .LVU15
  83              		.loc 2 145 24 is_stmt 0 view .LVU16
  84 000c DA60     		str	r2, [r3, #12]
  85              	.LVL3:
  86              		.loc 2 145 24 view .LVU17
  87              	.LBE12:
  88              	.LBE10:
  89              		.loc 1 82 1 view .LVU18
  90 000e 7047     		bx	lr
  91              		.cfi_endproc
  92              	.LFE257:
  93              		.size	stStartAlarm, .-stStartAlarm
  94              		.section	.text.stStopAlarm,"ax",%progbits
  95              		.align	1
  96              		.p2align 4,,15
  97              		.global	stStopAlarm
  98              		.syntax unified
  99              		.thumb
 100              		.thumb_func
 101              		.fpu fpv4-sp-d16
 102              		.type	stStopAlarm, %function
 103              	stStopAlarm:
 104              	.LFB258:
 105              		.loc 1 91 24 is_stmt 1 view -0
 106              		.cfi_startproc
 107              		@ args = 0, pretend = 0, frame = 0
 108              		@ frame_needed = 0, uses_anonymous_args = 0
 109              		@ link register save eliminated.
 110              		.loc 1 93 3 view .LVU20
 111              	.LBB13:
 112              	.LBI13:
 113              		.loc 2 153 20 view .LVU21
 114              	.LBB14:
ARM GAS  C:\Users\USER\AppData\Local\Temp\ccWq8y3g.s 			page 3


 115              		.loc 2 155 3 view .LVU22
 116              		.loc 2 155 22 is_stmt 0 view .LVU23
 117 0000 4FF08043 		mov	r3, #1073741824
 118 0004 0022     		movs	r2, #0
 119 0006 DA60     		str	r2, [r3, #12]
 120              	.LBE14:
 121              	.LBE13:
 122              		.loc 1 94 1 view .LVU24
 123 0008 7047     		bx	lr
 124              		.cfi_endproc
 125              	.LFE258:
 126              		.size	stStopAlarm, .-stStopAlarm
 127 000a 00BF     		.section	.text.stSetAlarm,"ax",%progbits
 128              		.align	1
 129              		.p2align 4,,15
 130              		.global	stSetAlarm
 131              		.syntax unified
 132              		.thumb
 133              		.thumb_func
 134              		.fpu fpv4-sp-d16
 135              		.type	stSetAlarm, %function
 136              	stSetAlarm:
 137              	.LVL4:
 138              	.LFB259:
 139              		.loc 1 105 36 is_stmt 1 view -0
 140              		.cfi_startproc
 141              		@ args = 0, pretend = 0, frame = 0
 142              		@ frame_needed = 0, uses_anonymous_args = 0
 143              		@ link register save eliminated.
 144              		.loc 1 107 3 view .LVU26
 145              		.loc 1 107 3 view .LVU27
 146              		.loc 1 109 3 view .LVU28
 147              	.LBB15:
 148              	.LBB16:
 149              		.loc 2 167 24 is_stmt 0 view .LVU29
 150 0000 4FF08043 		mov	r3, #1073741824
 151              	.LVL5:
 152              		.loc 2 167 24 view .LVU30
 153              	.LBE16:
 154              	.LBI15:
 155              		.loc 2 165 20 is_stmt 1 view .LVU31
 156              	.LBB17:
 157              		.loc 2 167 3 view .LVU32
 158              		.loc 2 167 24 is_stmt 0 view .LVU33
 159 0004 5863     		str	r0, [r3, #52]
 160              	.LVL6:
 161              		.loc 2 167 24 view .LVU34
 162              	.LBE17:
 163              	.LBE15:
 164              		.loc 1 110 1 view .LVU35
 165 0006 7047     		bx	lr
 166              		.cfi_endproc
 167              	.LFE259:
 168              		.size	stSetAlarm, .-stSetAlarm
 169              		.section	.text.stGetAlarm,"ax",%progbits
 170              		.align	1
 171              		.p2align 4,,15
ARM GAS  C:\Users\USER\AppData\Local\Temp\ccWq8y3g.s 			page 4


 172              		.global	stGetAlarm
 173              		.syntax unified
 174              		.thumb
 175              		.thumb_func
 176              		.fpu fpv4-sp-d16
 177              		.type	stGetAlarm, %function
 178              	stGetAlarm:
 179              	.LFB260:
 180              		.loc 1 121 28 is_stmt 1 view -0
 181              		.cfi_startproc
 182              		@ args = 0, pretend = 0, frame = 0
 183              		@ frame_needed = 0, uses_anonymous_args = 0
 184              		@ link register save eliminated.
 185              		.loc 1 123 3 view .LVU37
 186              		.loc 1 123 3 view .LVU38
 187              		.loc 1 125 3 view .LVU39
 188              	.LBB18:
 189              	.LBI18:
 190              		.loc 2 177 25 view .LVU40
 191              	.LBB19:
 192              		.loc 2 179 3 view .LVU41
 193              		.loc 2 179 10 is_stmt 0 view .LVU42
 194 0000 4FF08043 		mov	r3, #1073741824
 195 0004 586B     		ldr	r0, [r3, #52]
 196              	.LBE19:
 197              	.LBE18:
 198              		.loc 1 126 1 view .LVU43
 199 0006 7047     		bx	lr
 200              		.cfi_endproc
 201              	.LFE260:
 202              		.size	stGetAlarm, .-stGetAlarm
 203              		.text
 204              	.Letext0:
 205              		.file 3 "c:\\program files (x86)\\gnu tools arm embedded\\8 2018-q4-major\\lib\\gcc\\arm-none-eabi
 206              		.file 4 "c:\\program files (x86)\\gnu tools arm embedded\\8 2018-q4-major\\arm-none-eabi\\include\
 207              		.file 5 "c:\\program files (x86)\\gnu tools arm embedded\\8 2018-q4-major\\arm-none-eabi\\include\
 208              		.file 6 "src/ChibiOS_3.0.2/os/rt/ports/ARMCMx/compilers/GCC/chtypes.h"
 209              		.file 7 "src/ChibiOS_3.0.2/os/rt/include/chsystypes.h"
 210              		.file 8 "src/ChibiOS_3.0.2/os/rt/include/chschd.h"
 211              		.file 9 "src/ChibiOS_3.0.2/os/ext/CMSIS/include/core_cm4.h"
 212              		.file 10 "src/ChibiOS_3.0.2/os/ext/CMSIS/ST/system_stm32f4xx.h"
 213              		.file 11 "src/ChibiOS_3.0.2/os/ext/CMSIS/ST/stm32f407xx.h"
 214              		.file 12 "src/ChibiOS_3.0.2/os/rt/ports/ARMCMx/chcore.h"
 215              		.file 13 "src/ChibiOS_3.0.2/os/rt/ports/ARMCMx/chcore_v7m.h"
 216              		.file 14 "src/ChibiOS_3.0.2/os/rt/include/chtm.h"
 217              		.file 15 "src/ChibiOS_3.0.2/os/rt/include/chsem.h"
 218              		.file 16 "src/ChibiOS_3.0.2/os/rt/include/chmtx.h"
 219              		.file 17 "src/ChibiOS_3.0.2/os/rt/include/chregistry.h"
 220              		.file 18 "src/ChibiOS_3.0.2/os/rt/include/chevents.h"
 221              		.file 19 "src/ChibiOS_3.0.2/os/rt/include/chqueues.h"
 222              		.file 20 "src/ChibiOS_3.0.2/os/hal/ports/STM32/STM32F4xx/stm32_dma.h"
 223              		.file 21 "src/ChibiOS_3.0.2/os/hal/ports/STM32/LLD/GPIOv2/pal_lld.h"
 224              		.file 22 "src/ChibiOS_3.0.2/os/hal/include/can.h"
 225              		.file 23 "src/ChibiOS_3.0.2/os/hal/ports/STM32/LLD/can_lld.h"
 226              		.file 24 "src/ChibiOS_3.0.2/os/hal/include/i2c.h"
 227              		.file 25 "src/ChibiOS_3.0.2/os/hal/ports/STM32/LLD/I2Cv1/i2c_lld.h"
 228              		.file 26 "src/ChibiOS_3.0.2/os/hal/include/icu.h"
ARM GAS  C:\Users\USER\AppData\Local\Temp\ccWq8y3g.s 			page 5


 229              		.file 27 "src/ChibiOS_3.0.2/os/hal/ports/STM32/LLD/TIMv1/icu_lld.h"
 230              		.file 28 "src/ChibiOS_3.0.2/os/hal/ports/STM32/LLD/TIMv1/stm32_tim.h"
 231              		.file 29 "src/ChibiOS_3.0.2/os/hal/include/serial.h"
 232              		.file 30 "src/ChibiOS_3.0.2/os/hal/ports/STM32/LLD/USARTv1/serial_lld.h"
 233              		.file 31 "src/ChibiOS_3.0.2/os/hal/include/spi.h"
 234              		.file 32 "src/ChibiOS_3.0.2/os/hal/ports/STM32/LLD/SPIv1/spi_lld.h"
 235              		.file 33 "src/ChibiOS_3.0.2/os/hal/include/uart.h"
 236              		.file 34 "src/ChibiOS_3.0.2/os/hal/ports/STM32/LLD/USARTv1/uart_lld.h"
 237              		.file 35 "src/ChibiOS_3.0.2/os/hal/include/usb.h"
 238              		.file 36 "src/ChibiOS_3.0.2/os/hal/ports/STM32/LLD/OTGv1/usb_lld.h"
 239              		.file 37 "src/ChibiOS_3.0.2/os/hal/ports/STM32/LLD/OTGv1/stm32_otg.h"