ARM GAS  C:\Users\USER\AppData\Local\Temp\ccf4fUld.s 			page 1


   1              		.cpu cortex-m4
   2              		.eabi_attribute 27, 1
   3              		.eabi_attribute 28, 1
   4              		.eabi_attribute 20, 1
   5              		.eabi_attribute 21, 1
   6              		.eabi_attribute 23, 3
   7              		.eabi_attribute 24, 1
   8              		.eabi_attribute 25, 1
   9              		.eabi_attribute 26, 1
  10              		.eabi_attribute 30, 2
  11              		.eabi_attribute 34, 1
  12              		.eabi_attribute 18, 4
  13              		.file	"st_lld.c"
  14              		.text
  15              	.Ltext0:
  16              		.cfi_sections	.debug_frame
  17              		.section	.text.SysTick_Handler,"ax",%progbits
  18              		.align	1
  19              		.p2align 4,,15
  20              		.global	SysTick_Handler
  21              		.arch armv7e-m
  22              		.syntax unified
  23              		.thumb
  24              		.thumb_func
  25              		.fpu fpv4-sp-d16
  26              		.type	SysTick_Handler, %function
  27              	SysTick_Handler:
  28              	.LFB256:
  29              		.file 1 "src/ChibiOS_3.0.2/os/hal/ports/STM32/LLD/TIMv1/st_lld.c"
  30              		.loc 1 154 35 view -0
  31              		.cfi_startproc
  32              		@ args = 0, pretend = 0, frame = 0
  33              		@ frame_needed = 0, uses_anonymous_args = 0
  34              		.loc 1 156 3 view .LVU1
  35              		.loc 1 156 3 view .LVU2
  36              		.loc 1 156 22 view .LVU3
  37              		.loc 1 158 3 view .LVU4
  38              	.LBB52:
  39              	.LBI52:
  40              		.file 2 "src/ChibiOS_3.0.2/os/hal/osal/rt/osal.h"
  41              		.loc 2 513 20 view .LVU5
  42              	.LBE52:
  43              		.loc 2 515 3 view .LVU6
  44              	.LBB69:
  45              	.LBB53:
  46              	.LBI53:
  47              		.file 3 "src/ChibiOS_3.0.2/os/rt/include/chsys.h"
  48              		.loc 3 386 20 view .LVU7
  49              	.LBE53:
  50              	.LBE69:
  51              		.loc 3 388 3 view .LVU8
  52              	.LBB70:
  53              	.LBB65:
  54              	.LBB54:
  55              	.LBI54:
  56              		.file 4 "src/ChibiOS_3.0.2/os/rt/ports/ARMCMx/chcore_v7m.h"
  57              		.loc 4 473 20 view .LVU9
ARM GAS  C:\Users\USER\AppData\Local\Temp\ccf4fUld.s 			page 2


  58              	.LBE54:
  59              	.LBE65:
  60              	.LBE70:
  61              		.loc 4 475 3 view .LVU10
  62              	.LBB71:
  63              	.LBB66:
  64              	.LBB62:
  65              	.LBB55:
  66              	.LBI55:
  67              		.loc 4 444 20 view .LVU11
  68              	.LBE55:
  69              	.LBE62:
  70              	.LBE66:
  71              	.LBE71:
  72              		.loc 4 447 3 view .LVU12
  73              	.LVL0:
  74              	.LBB72:
  75              	.LBB67:
  76              	.LBB63:
  77              	.LBB60:
  78              	.LBB56:
  79              	.LBI56:
  80              		.file 5 "src/ChibiOS_3.0.2/os/ext/CMSIS/include/core_cmFunc.h"
  81              		.loc 5 544 57 view .LVU13
  82              	.LBB57:
  83              		.loc 5 546 3 view .LVU14
  84              	.LBE57:
  85              	.LBE56:
  86              	.LBE60:
  87              	.LBE63:
  88              	.LBE67:
  89              	.LBE72:
  90              		.loc 1 154 35 is_stmt 0 view .LVU15
  91 0000 08B5     		push	{r3, lr}
  92              		.cfi_def_cfa_offset 8
  93              		.cfi_offset 3, -8
  94              		.cfi_offset 14, -4
  95              	.LBB73:
  96              	.LBB68:
  97              	.LBB64:
  98              	.LBB61:
  99              	.LBB59:
 100              	.LBB58:
 101              		.loc 5 546 3 view .LVU16
 102 0002 2023     		movs	r3, #32
 103              		.syntax unified
 104              	@ 546 "src/ChibiOS_3.0.2/os/ext/CMSIS/include/core_cmFunc.h" 1
 105 0004 83F31188 		MSR basepri, r3
 106              	@ 0 "" 2
 107              	.LVL1:
 108              		.loc 5 546 3 view .LVU17
 109              		.thumb
 110              		.syntax unified
 111              	.LBE58:
 112              	.LBE59:
 113              	.LBE61:
 114              	.LBE64:
ARM GAS  C:\Users\USER\AppData\Local\Temp\ccf4fUld.s 			page 3


 115              	.LBE68:
 116              	.LBE73:
 117              		.loc 3 389 34 is_stmt 1 view .LVU18
 118              		.loc 3 390 29 view .LVU19
 119              		.loc 1 159 3 view .LVU20
 120              	.LBB74:
 121              	.LBI74:
 122              		.loc 2 583 20 view .LVU21
 123              	.LBB75:
 124              		.loc 2 585 3 view .LVU22
 125 0008 FFF7FEFF 		bl	chSysTimerHandlerI
 126              	.LVL2:
 127              	.LBE75:
 128              	.LBE74:
 129              		.loc 1 160 3 view .LVU23
 130              	.LBB76:
 131              	.LBI76:
 132              		.loc 2 524 20 view .LVU24
 133              	.LBE76:
 134              		.loc 2 526 3 view .LVU25
 135              	.LBB88:
 136              	.LBB77:
 137              	.LBI77:
 138              		.loc 3 406 20 view .LVU26
 139              	.LBE77:
 140              	.LBE88:
 141              		.loc 3 408 31 view .LVU27
 142              		.loc 3 409 33 view .LVU28
 143              		.loc 3 410 3 view .LVU29
 144              	.LBB89:
 145              	.LBB85:
 146              	.LBB78:
 147              	.LBI78:
 148              		.loc 4 484 20 view .LVU30
 149              	.LBE78:
 150              	.LBE85:
 151              	.LBE89:
 152              		.loc 4 486 3 view .LVU31
 153              	.LBB90:
 154              	.LBB86:
 155              	.LBB83:
 156              	.LBB79:
 157              	.LBI79:
 158              		.loc 4 458 20 view .LVU32
 159              	.LBE79:
 160              	.LBE83:
 161              	.LBE86:
 162              	.LBE90:
 163              		.loc 4 461 3 view .LVU33
 164              	.LBB91:
 165              	.LBB87:
 166              	.LBB84:
 167              	.LBB82:
 168              	.LBB80:
 169              	.LBI80:
 170              		.loc 5 544 57 view .LVU34
 171              	.LBB81:
ARM GAS  C:\Users\USER\AppData\Local\Temp\ccf4fUld.s 			page 4


 172              		.loc 5 546 3 view .LVU35
 173 000c 0023     		movs	r3, #0
 174              		.syntax unified
 175              	@ 546 "src/ChibiOS_3.0.2/os/ext/CMSIS/include/core_cmFunc.h" 1
 176 000e 83F31188 		MSR basepri, r3
 177              	@ 0 "" 2
 178              	.LVL3:
 179              		.loc 5 546 3 is_stmt 0 view .LVU36
 180              		.thumb
 181              		.syntax unified
 182              	.LBE81:
 183              	.LBE80:
 184              	.LBE82:
 185              	.LBE84:
 186              	.LBE87:
 187              	.LBE91:
 188              		.loc 1 162 3 is_stmt 1 view .LVU37
 189              		.loc 1 162 3 view .LVU38
 190              		.loc 1 163 1 is_stmt 0 view .LVU39
 191 0012 BDE80840 		pop	{r3, lr}
 192              		.cfi_restore 14
 193              		.cfi_restore 3
 194              		.cfi_def_cfa_offset 0
 195              		.loc 1 162 3 view .LVU40
 196 0016 FFF7FEBF 		b	_port_irq_epilogue
 197              	.LVL4:
 198              		.cfi_endproc
 199              	.LFE256:
 200              		.size	SysTick_Handler, .-SysTick_Handler
 201 001a 00BF     		.section	.text.st_lld_init,"ax",%progbits
 202              		.align	1
 203              		.p2align 4,,15
 204              		.global	st_lld_init
 205              		.syntax unified
 206              		.thumb
 207              		.thumb_func
 208              		.fpu fpv4-sp-d16
 209              		.type	st_lld_init, %function
 210              	st_lld_init:
 211              	.LFB257:
 212              		.loc 1 201 24 is_stmt 1 view -0
 213              		.cfi_startproc
 214              		@ args = 0, pretend = 0, frame = 0
 215              		@ frame_needed = 0, uses_anonymous_args = 0
 216              		@ link register save eliminated.
 217              		.loc 1 229 3 view .LVU42
 218              		.loc 1 229 17 is_stmt 0 view .LVU43
 219 0000 054B     		ldr	r3, .L5
 220 0002 44F29F11 		movw	r1, #16799
 221              		.loc 1 230 16 view .LVU44
 222 0006 0020     		movs	r0, #0
 223              		.loc 1 231 17 view .LVU45
 224 0008 0722     		movs	r2, #7
 225              		.loc 1 229 17 view .LVU46
 226 000a 5960     		str	r1, [r3, #4]
 227              		.loc 1 230 3 is_stmt 1 view .LVU47
 228              		.loc 1 230 16 is_stmt 0 view .LVU48
ARM GAS  C:\Users\USER\AppData\Local\Temp\ccf4fUld.s 			page 5


 229 000c 9860     		str	r0, [r3, #8]
 230              		.loc 1 231 3 is_stmt 1 view .LVU49
 231              		.loc 1 236 3 is_stmt 0 view .LVU50
 232 000e 0821     		movs	r1, #8
 233 0010 0B20     		movs	r0, #11
 234              		.loc 1 231 17 view .LVU51
 235 0012 1A60     		str	r2, [r3]
 236              		.loc 1 236 3 is_stmt 1 view .LVU52
 237 0014 FFF7FEBF 		b	nvicSetSystemHandlerPriority
 238              	.LVL5:
 239              	.L6:
 240              		.align	2
 241              	.L5:
 242 0018 10E000E0 		.word	-536813552
 243              		.cfi_endproc
 244              	.LFE257:
 245              		.size	st_lld_init, .-st_lld_init
 246              		.text
 247              	.Letext0:
 248              		.file 6 "c:\\program files (x86)\\gnu tools arm embedded\\8 2018-q4-major\\lib\\gcc\\arm-none-eabi
 249              		.file 7 "c:\\program files (x86)\\gnu tools arm embedded\\8 2018-q4-major\\arm-none-eabi\\include\
 250              		.file 8 "c:\\program files (x86)\\gnu tools arm embedded\\8 2018-q4-major\\arm-none-eabi\\include\
 251              		.file 9 "src/ChibiOS_3.0.2/os/rt/ports/ARMCMx/compilers/GCC/chtypes.h"
 252              		.file 10 "src/ChibiOS_3.0.2/os/rt/include/chsystypes.h"
 253              		.file 11 "src/ChibiOS_3.0.2/os/rt/include/chschd.h"
 254              		.file 12 "src/ChibiOS_3.0.2/os/ext/CMSIS/include/core_cm4.h"
 255              		.file 13 "src/ChibiOS_3.0.2/os/ext/CMSIS/ST/system_stm32f4xx.h"
 256              		.file 14 "src/ChibiOS_3.0.2/os/ext/CMSIS/ST/stm32f407xx.h"
 257              		.file 15 "src/ChibiOS_3.0.2/os/rt/ports/ARMCMx/chcore.h"
 258              		.file 16 "src/ChibiOS_3.0.2/os/rt/include/chtm.h"
 259              		.file 17 "src/ChibiOS_3.0.2/os/rt/include/chsem.h"
 260              		.file 18 "src/ChibiOS_3.0.2/os/rt/include/chmtx.h"
 261              		.file 19 "src/ChibiOS_3.0.2/os/rt/include/chregistry.h"
 262              		.file 20 "src/ChibiOS_3.0.2/os/rt/include/chevents.h"
 263              		.file 21 "src/ChibiOS_3.0.2/os/rt/include/chqueues.h"
 264              		.file 22 "src/ChibiOS_3.0.2/os/hal/ports/STM32/STM32F4xx/stm32_dma.h"
 265              		.file 23 "src/ChibiOS_3.0.2/os/hal/ports/STM32/LLD/GPIOv2/pal_lld.h"
 266              		.file 24 "src/ChibiOS_3.0.2/os/hal/include/can.h"
 267              		.file 25 "src/ChibiOS_3.0.2/os/hal/ports/STM32/LLD/can_lld.h"
 268              		.file 26 "src/ChibiOS_3.0.2/os/hal/include/i2c.h"
 269              		.file 27 "src/ChibiOS_3.0.2/os/hal/ports/STM32/LLD/I2Cv1/i2c_lld.h"
 270              		.file 28 "src/ChibiOS_3.0.2/os/hal/include/icu.h"
 271              		.file 29 "src/ChibiOS_3.0.2/os/hal/ports/STM32/LLD/TIMv1/icu_lld.h"
 272              		.file 30 "src/ChibiOS_3.0.2/os/hal/ports/STM32/LLD/TIMv1/stm32_tim.h"
 273              		.file 31 "src/ChibiOS_3.0.2/os/hal/include/serial.h"
 274              		.file 32 "src/ChibiOS_3.0.2/os/hal/ports/STM32/LLD/USARTv1/serial_lld.h"
 275              		.file 33 "src/ChibiOS_3.0.2/os/hal/include/spi.h"
 276              		.file 34 "src/ChibiOS_3.0.2/os/hal/ports/STM32/LLD/SPIv1/spi_lld.h"
 277              		.file 35 "src/ChibiOS_3.0.2/os/hal/include/uart.h"
 278              		.file 36 "src/ChibiOS_3.0.2/os/hal/ports/STM32/LLD/USARTv1/uart_lld.h"
 279              		.file 37 "src/ChibiOS_3.0.2/os/hal/include/usb.h"
 280              		.file 38 "src/ChibiOS_3.0.2/os/hal/ports/STM32/LLD/OTGv1/usb_lld.h"
 281              		.file 39 "src/ChibiOS_3.0.2/os/hal/ports/STM32/LLD/OTGv1/stm32_otg.h"
 282              		.file 40 "src/ChibiOS_3.0.2/os/hal/ports/common/ARMCMx/nvic.h"