ARM GAS  C:\Users\USER\AppData\Local\Temp\ccslTfpZ.s 			page 1


   1              		.cpu cortex-m4
   2              		.eabi_attribute 27, 1
   3              		.eabi_attribute 28, 1
   4              		.eabi_attribute 20, 1
   5              		.eabi_attribute 21, 1
   6              		.eabi_attribute 23, 3
   7              		.eabi_attribute 24, 1
   8              		.eabi_attribute 25, 1
   9              		.eabi_attribute 26, 1
  10              		.eabi_attribute 30, 2
  11              		.eabi_attribute 34, 1
  12              		.eabi_attribute 18, 4
  13              		.file	"stm32f4xx_syscfg.c"
  14              		.text
  15              	.Ltext0:
  16              		.cfi_sections	.debug_frame
  17              		.section	.text.SYSCFG_DeInit,"ax",%progbits
  18              		.align	1
  19              		.p2align 4,,15
  20              		.global	SYSCFG_DeInit
  21              		.arch armv7e-m
  22              		.syntax unified
  23              		.thumb
  24              		.thumb_func
  25              		.fpu fpv4-sp-d16
  26              		.type	SYSCFG_DeInit, %function
  27              	SYSCFG_DeInit:
  28              	.LFB112:
  29              		.file 1 "src/ChibiOS_3.0.2/ext/stdperiph_stm32f4/src/stm32f4xx_syscfg.c"
  30              		.loc 1 104 1 view -0
  31              		.cfi_startproc
  32              		@ args = 0, pretend = 0, frame = 0
  33              		@ frame_needed = 0, uses_anonymous_args = 0
  34              		.loc 1 105 4 view .LVU1
  35              		.loc 1 104 1 is_stmt 0 view .LVU2
  36 0000 08B5     		push	{r3, lr}
  37              		.cfi_def_cfa_offset 8
  38              		.cfi_offset 3, -8
  39              		.cfi_offset 14, -4
  40              		.loc 1 105 4 view .LVU3
  41 0002 0121     		movs	r1, #1
  42 0004 4FF48040 		mov	r0, #16384
  43 0008 FFF7FEFF 		bl	RCC_APB2PeriphResetCmd
  44              	.LVL0:
  45              		.loc 1 106 4 is_stmt 1 view .LVU4
  46 000c 0021     		movs	r1, #0
  47 000e 4FF48040 		mov	r0, #16384
  48              		.loc 1 107 1 is_stmt 0 view .LVU5
  49 0012 BDE80840 		pop	{r3, lr}
  50              		.cfi_restore 14
  51              		.cfi_restore 3
  52              		.cfi_def_cfa_offset 0
  53              		.loc 1 106 4 view .LVU6
  54 0016 FFF7FEBF 		b	RCC_APB2PeriphResetCmd
  55              	.LVL1:
  56              		.cfi_endproc
  57              	.LFE112:
ARM GAS  C:\Users\USER\AppData\Local\Temp\ccslTfpZ.s 			page 2


  58              		.size	SYSCFG_DeInit, .-SYSCFG_DeInit
  59 001a 00BF     		.section	.text.SYSCFG_MemoryRemapConfig,"ax",%progbits
  60              		.align	1
  61              		.p2align 4,,15
  62              		.global	SYSCFG_MemoryRemapConfig
  63              		.syntax unified
  64              		.thumb
  65              		.thumb_func
  66              		.fpu fpv4-sp-d16
  67              		.type	SYSCFG_MemoryRemapConfig, %function
  68              	SYSCFG_MemoryRemapConfig:
  69              	.LVL2:
  70              	.LFB113:
  71              		.loc 1 123 1 is_stmt 1 view -0
  72              		.cfi_startproc
  73              		@ args = 0, pretend = 0, frame = 0
  74              		@ frame_needed = 0, uses_anonymous_args = 0
  75              		@ link register save eliminated.
  76              		.loc 1 125 3 view .LVU8
  77              		.loc 1 127 3 view .LVU9
  78              		.loc 1 127 18 is_stmt 0 view .LVU10
  79 0000 014B     		ldr	r3, .L5
  80 0002 1860     		str	r0, [r3]
  81              		.loc 1 128 1 view .LVU11
  82 0004 7047     		bx	lr
  83              	.L6:
  84 0006 00BF     		.align	2
  85              	.L5:
  86 0008 00380140 		.word	1073821696
  87              		.cfi_endproc
  88              	.LFE113:
  89              		.size	SYSCFG_MemoryRemapConfig, .-SYSCFG_MemoryRemapConfig
  90              		.section	.text.SYSCFG_MemorySwappingBank,"ax",%progbits
  91              		.align	1
  92              		.p2align 4,,15
  93              		.global	SYSCFG_MemorySwappingBank
  94              		.syntax unified
  95              		.thumb
  96              		.thumb_func
  97              		.fpu fpv4-sp-d16
  98              		.type	SYSCFG_MemorySwappingBank, %function
  99              	SYSCFG_MemorySwappingBank:
 100              	.LVL3:
 101              	.LFB114:
 102              		.loc 1 144 1 is_stmt 1 view -0
 103              		.cfi_startproc
 104              		@ args = 0, pretend = 0, frame = 0
 105              		@ frame_needed = 0, uses_anonymous_args = 0
 106              		@ link register save eliminated.
 107              		.loc 1 146 3 view .LVU13
 108              		.loc 1 148 3 view .LVU14
 109              		.loc 1 148 34 is_stmt 0 view .LVU15
 110 0000 014B     		ldr	r3, .L8
 111 0002 1860     		str	r0, [r3]
 112              		.loc 1 149 1 view .LVU16
 113 0004 7047     		bx	lr
 114              	.L9:
ARM GAS  C:\Users\USER\AppData\Local\Temp\ccslTfpZ.s 			page 3


 115 0006 00BF     		.align	2
 116              	.L8:
 117 0008 20002742 		.word	1109852192
 118              		.cfi_endproc
 119              	.LFE114:
 120              		.size	SYSCFG_MemorySwappingBank, .-SYSCFG_MemorySwappingBank
 121              		.section	.text.SYSCFG_EXTILineConfig,"ax",%progbits
 122              		.align	1
 123              		.p2align 4,,15
 124              		.global	SYSCFG_EXTILineConfig
 125              		.syntax unified
 126              		.thumb
 127              		.thumb_func
 128              		.fpu fpv4-sp-d16
 129              		.type	SYSCFG_EXTILineConfig, %function
 130              	SYSCFG_EXTILineConfig:
 131              	.LVL4:
 132              	.LFB115:
 133              		.loc 1 167 1 is_stmt 1 view -0
 134              		.cfi_startproc
 135              		@ args = 0, pretend = 0, frame = 0
 136              		@ frame_needed = 0, uses_anonymous_args = 0
 137              		@ link register save eliminated.
 138              		.loc 1 168 3 view .LVU18
 139              		.loc 1 171 3 view .LVU19
 140              		.loc 1 172 3 view .LVU20
 141              		.loc 1 174 3 view .LVU21
 142 0000 01F0FC03 		and	r3, r1, #252
 143 0004 03F18043 		add	r3, r3, #1073741824
 144 0008 03F59C33 		add	r3, r3, #79872
 145              		.loc 1 174 35 is_stmt 0 view .LVU22
 146 000c 01F00301 		and	r1, r1, #3
 147              	.LVL5:
 148              		.loc 1 167 1 view .LVU23
 149 0010 10B4     		push	{r4}
 150              		.cfi_def_cfa_offset 4
 151              		.cfi_offset 4, -4
 152              		.loc 1 175 43 view .LVU24
 153 0012 9A68     		ldr	r2, [r3, #8]
 154              		.loc 1 174 35 view .LVU25
 155 0014 8900     		lsls	r1, r1, #2
 156              	.LVL6:
 157              		.loc 1 175 3 is_stmt 1 view .LVU26
 158              		.loc 1 174 7 is_stmt 0 view .LVU27
 159 0016 0F24     		movs	r4, #15
 160 0018 8C40     		lsls	r4, r4, r1
 161              	.LVL7:
 162              		.loc 1 175 43 view .LVU28
 163 001a 22EA0402 		bic	r2, r2, r4
 164 001e 9A60     		str	r2, [r3, #8]
 165              		.loc 1 176 3 is_stmt 1 view .LVU29
 166              		.loc 1 176 43 is_stmt 0 view .LVU30
 167 0020 9A68     		ldr	r2, [r3, #8]
 168              		.loc 1 177 1 view .LVU31
 169 0022 5DF8044B 		ldr	r4, [sp], #4
 170              		.cfi_restore 4
 171              		.cfi_def_cfa_offset 0
ARM GAS  C:\Users\USER\AppData\Local\Temp\ccslTfpZ.s 			page 4


 172              	.LVL8:
 173              		.loc 1 176 80 view .LVU32
 174 0026 00FA01F1 		lsl	r1, r0, r1
 175              	.LVL9:
 176              		.loc 1 176 43 view .LVU33
 177 002a 1143     		orrs	r1, r1, r2
 178 002c 9960     		str	r1, [r3, #8]
 179              		.loc 1 177 1 view .LVU34
 180 002e 7047     		bx	lr
 181              		.cfi_endproc
 182              	.LFE115:
 183              		.size	SYSCFG_EXTILineConfig, .-SYSCFG_EXTILineConfig
 184              		.section	.text.SYSCFG_ETH_MediaInterfaceConfig,"ax",%progbits
 185              		.align	1
 186              		.p2align 4,,15
 187              		.global	SYSCFG_ETH_MediaInterfaceConfig
 188              		.syntax unified
 189              		.thumb
 190              		.thumb_func
 191              		.fpu fpv4-sp-d16
 192              		.type	SYSCFG_ETH_MediaInterfaceConfig, %function
 193              	SYSCFG_ETH_MediaInterfaceConfig:
 194              	.LVL10:
 195              	.LFB116:
 196              		.loc 1 188 1 is_stmt 1 view -0
 197              		.cfi_startproc
 198              		@ args = 0, pretend = 0, frame = 0
 199              		@ frame_needed = 0, uses_anonymous_args = 0
 200              		@ link register save eliminated.
 201              		.loc 1 189 3 view .LVU36
 202              		.loc 1 191 3 view .LVU37
 203              		.loc 1 191 42 is_stmt 0 view .LVU38
 204 0000 014B     		ldr	r3, .L13
 205 0002 1860     		str	r0, [r3]
 206              		.loc 1 192 1 view .LVU39
 207 0004 7047     		bx	lr
 208              	.L14:
 209 0006 00BF     		.align	2
 210              	.L13:
 211 0008 DC002742 		.word	1109852380
 212              		.cfi_endproc
 213              	.LFE116:
 214              		.size	SYSCFG_ETH_MediaInterfaceConfig, .-SYSCFG_ETH_MediaInterfaceConfig
 215              		.section	.text.SYSCFG_CompensationCellCmd,"ax",%progbits
 216              		.align	1
 217              		.p2align 4,,15
 218              		.global	SYSCFG_CompensationCellCmd
 219              		.syntax unified
 220              		.thumb
 221              		.thumb_func
 222              		.fpu fpv4-sp-d16
 223              		.type	SYSCFG_CompensationCellCmd, %function
 224              	SYSCFG_CompensationCellCmd:
 225              	.LVL11:
 226              	.LFB117:
 227              		.loc 1 205 1 is_stmt 1 view -0
 228              		.cfi_startproc
ARM GAS  C:\Users\USER\AppData\Local\Temp\ccslTfpZ.s 			page 5


 229              		@ args = 0, pretend = 0, frame = 0
 230              		@ frame_needed = 0, uses_anonymous_args = 0
 231              		@ link register save eliminated.
 232              		.loc 1 207 3 view .LVU41
 233              		.loc 1 209 3 view .LVU42
 234              		.loc 1 209 38 is_stmt 0 view .LVU43
 235 0000 014B     		ldr	r3, .L16
 236 0002 1860     		str	r0, [r3]
 237              		.loc 1 210 1 view .LVU44
 238 0004 7047     		bx	lr
 239              	.L17:
 240 0006 00BF     		.align	2
 241              	.L16:
 242 0008 00042742 		.word	1109853184
 243              		.cfi_endproc
 244              	.LFE117:
 245              		.size	SYSCFG_CompensationCellCmd, .-SYSCFG_CompensationCellCmd
 246              		.section	.text.SYSCFG_GetCompensationCellStatus,"ax",%progbits
 247              		.align	1
 248              		.p2align 4,,15
 249              		.global	SYSCFG_GetCompensationCellStatus
 250              		.syntax unified
 251              		.thumb
 252              		.thumb_func
 253              		.fpu fpv4-sp-d16
 254              		.type	SYSCFG_GetCompensationCellStatus, %function
 255              	SYSCFG_GetCompensationCellStatus:
 256              	.LFB118:
 257              		.loc 1 218 1 is_stmt 1 view -0
 258              		.cfi_startproc
 259              		@ args = 0, pretend = 0, frame = 0
 260              		@ frame_needed = 0, uses_anonymous_args = 0
 261              		@ link register save eliminated.
 262              		.loc 1 219 3 view .LVU46
 263              	.LVL12:
 264              		.loc 1 221 3 view .LVU47
 265              		.loc 1 221 14 is_stmt 0 view .LVU48
 266 0000 024B     		ldr	r3, .L19
 267 0002 186A     		ldr	r0, [r3, #32]
 268              	.LVL13:
 269              		.loc 1 229 3 is_stmt 1 view .LVU49
 270              		.loc 1 230 1 is_stmt 0 view .LVU50
 271 0004 C0F30020 		ubfx	r0, r0, #8, #1
 272              	.LVL14:
 273              		.loc 1 230 1 view .LVU51
 274 0008 7047     		bx	lr
 275              	.L20:
 276 000a 00BF     		.align	2
 277              	.L19:
 278 000c 00380140 		.word	1073821696
 279              		.cfi_endproc
 280              	.LFE118:
 281              		.size	SYSCFG_GetCompensationCellStatus, .-SYSCFG_GetCompensationCellStatus
 282              		.text
 283              	.Letext0:
 284              		.file 2 "c:\\program files (x86)\\gnu tools arm embedded\\8 2018-q4-major\\arm-none-eabi\\include\
 285              		.file 3 "c:\\program files (x86)\\gnu tools arm embedded\\8 2018-q4-major\\arm-none-eabi\\include\
ARM GAS  C:\Users\USER\AppData\Local\Temp\ccslTfpZ.s 			page 6


 286              		.file 4 "src/ChibiOS_3.0.2/os/ext/CMSIS/include/core_cm4.h"
 287              		.file 5 "src/ChibiOS_3.0.2/os/ext/CMSIS/ST/system_stm32f4xx.h"
 288              		.file 6 "src/ChibiOS_3.0.2/os/ext/CMSIS/ST/stm32f407xx.h"
 289              		.file 7 "src/ChibiOS_3.0.2/os/ext/CMSIS/ST/stm32f4xx.h"
 290              		.file 8 "src/ChibiOS_3.0.2/ext/stdperiph_stm32f4/inc/stm32f4xx_rcc.h"