ARM GAS  C:\Users\USER\AppData\Local\Temp\ccNdlOSb.s 			page 1


   1              		.cpu cortex-m4
   2              		.eabi_attribute 27, 1
   3              		.eabi_attribute 28, 1
   4              		.eabi_attribute 20, 1
   5              		.eabi_attribute 21, 1
   6              		.eabi_attribute 23, 3
   7              		.eabi_attribute 24, 1
   8              		.eabi_attribute 25, 1
   9              		.eabi_attribute 26, 1
  10              		.eabi_attribute 30, 2
  11              		.eabi_attribute 34, 1
  12              		.eabi_attribute 18, 4
  13              		.file	"stm32f4xx_tim.c"
  14              		.text
  15              	.Ltext0:
  16              		.cfi_sections	.debug_frame
  17              		.section	.text.TIM_DeInit,"ax",%progbits
  18              		.align	1
  19              		.p2align 4,,15
  20              		.global	TIM_DeInit
  21              		.arch armv7e-m
  22              		.syntax unified
  23              		.thumb
  24              		.thumb_func
  25              		.fpu fpv4-sp-d16
  26              		.type	TIM_DeInit, %function
  27              	TIM_DeInit:
  28              	.LVL0:
  29              	.LFB112:
  30              		.file 1 "src/ChibiOS_3.0.2/ext/stdperiph_stm32f4/src/stm32f4xx_tim.c"
  31              		.loc 1 205 1 view -0
  32              		.cfi_startproc
  33              		@ args = 0, pretend = 0, frame = 0
  34              		@ frame_needed = 0, uses_anonymous_args = 0
  35              		.loc 1 207 3 view .LVU1
  36              		.loc 1 209 3 view .LVU2
  37              		.loc 1 205 1 is_stmt 0 view .LVU3
  38 0000 08B5     		push	{r3, lr}
  39              		.cfi_def_cfa_offset 8
  40              		.cfi_offset 3, -8
  41              		.cfi_offset 14, -4
  42              		.loc 1 209 6 view .LVU4
  43 0002 604B     		ldr	r3, .L32
  44 0004 9842     		cmp	r0, r3
  45 0006 33D0     		beq	.L18
  46              		.loc 1 214 8 is_stmt 1 view .LVU5
  47              		.loc 1 214 11 is_stmt 0 view .LVU6
  48 0008 B0F1804F 		cmp	r0, #1073741824
  49 000c 3AD0     		beq	.L19
  50              		.loc 1 219 8 is_stmt 1 view .LVU7
  51              		.loc 1 219 11 is_stmt 0 view .LVU8
  52 000e 5E4B     		ldr	r3, .L32+4
  53 0010 9842     		cmp	r0, r3
  54 0012 41D0     		beq	.L20
  55              		.loc 1 224 8 is_stmt 1 view .LVU9
  56              		.loc 1 224 11 is_stmt 0 view .LVU10
  57 0014 5D4B     		ldr	r3, .L32+8
ARM GAS  C:\Users\USER\AppData\Local\Temp\ccNdlOSb.s 			page 2


  58 0016 9842     		cmp	r0, r3
  59 0018 20D0     		beq	.L21
  60              		.loc 1 229 8 is_stmt 1 view .LVU11
  61              		.loc 1 229 11 is_stmt 0 view .LVU12
  62 001a 5D4B     		ldr	r3, .L32+12
  63 001c 9842     		cmp	r0, r3
  64 001e 45D0     		beq	.L22
  65              		.loc 1 234 8 is_stmt 1 view .LVU13
  66              		.loc 1 234 11 is_stmt 0 view .LVU14
  67 0020 5C4B     		ldr	r3, .L32+16
  68 0022 9842     		cmp	r0, r3
  69 0024 4CD0     		beq	.L23
  70              		.loc 1 239 8 is_stmt 1 view .LVU15
  71              		.loc 1 239 11 is_stmt 0 view .LVU16
  72 0026 5C4B     		ldr	r3, .L32+20
  73 0028 9842     		cmp	r0, r3
  74 002a 53D0     		beq	.L24
  75              		.loc 1 244 8 is_stmt 1 view .LVU17
  76              		.loc 1 244 11 is_stmt 0 view .LVU18
  77 002c 5B4B     		ldr	r3, .L32+24
  78 002e 9842     		cmp	r0, r3
  79 0030 66D0     		beq	.L25
  80              		.loc 1 249 8 is_stmt 1 view .LVU19
  81              		.loc 1 249 11 is_stmt 0 view .LVU20
  82 0032 5B4B     		ldr	r3, .L32+28
  83 0034 9842     		cmp	r0, r3
  84 0036 57D0     		beq	.L26
  85              		.loc 1 254 8 is_stmt 1 view .LVU21
  86              		.loc 1 254 11 is_stmt 0 view .LVU22
  87 0038 5A4B     		ldr	r3, .L32+32
  88 003a 9842     		cmp	r0, r3
  89 003c 6AD0     		beq	.L27
  90              		.loc 1 259 8 is_stmt 1 view .LVU23
  91              		.loc 1 259 11 is_stmt 0 view .LVU24
  92 003e 5A4B     		ldr	r3, .L32+36
  93 0040 9842     		cmp	r0, r3
  94 0042 73D0     		beq	.L28
  95              		.loc 1 264 8 is_stmt 1 view .LVU25
  96              		.loc 1 264 11 is_stmt 0 view .LVU26
  97 0044 594B     		ldr	r3, .L32+40
  98 0046 9842     		cmp	r0, r3
  99 0048 7CD0     		beq	.L29
 100              		.loc 1 269 8 is_stmt 1 view .LVU27
 101              		.loc 1 269 11 is_stmt 0 view .LVU28
 102 004a 594B     		ldr	r3, .L32+44
 103 004c 9842     		cmp	r0, r3
 104 004e 00F08380 		beq	.L30
 105              		.loc 1 276 5 is_stmt 1 view .LVU29
 106              		.loc 1 276 8 is_stmt 0 view .LVU30
 107 0052 584B     		ldr	r3, .L32+48
 108 0054 9842     		cmp	r0, r3
 109 0056 00F08980 		beq	.L31
 110              		.loc 1 282 1 view .LVU31
 111 005a 08BD     		pop	{r3, pc}
 112              	.L21:
 113              		.loc 1 226 5 is_stmt 1 view .LVU32
 114 005c 0121     		movs	r1, #1
ARM GAS  C:\Users\USER\AppData\Local\Temp\ccNdlOSb.s 			page 3


 115 005e 0420     		movs	r0, #4
 116              	.LVL1:
 117              		.loc 1 226 5 is_stmt 0 view .LVU33
 118 0060 FFF7FEFF 		bl	RCC_APB1PeriphResetCmd
 119              	.LVL2:
 120              		.loc 1 227 5 is_stmt 1 view .LVU34
 121 0064 0021     		movs	r1, #0
 122 0066 0420     		movs	r0, #4
 123              		.loc 1 282 1 is_stmt 0 view .LVU35
 124 0068 BDE80840 		pop	{r3, lr}
 125              		.cfi_remember_state
 126              		.cfi_restore 14
 127              		.cfi_restore 3
 128              		.cfi_def_cfa_offset 0
 129              		.loc 1 227 5 view .LVU36
 130 006c FFF7FEBF 		b	RCC_APB1PeriphResetCmd
 131              	.LVL3:
 132              	.L18:
 133              		.cfi_restore_state
 134              		.loc 1 211 5 is_stmt 1 view .LVU37
 135 0070 0121     		movs	r1, #1
 136 0072 0846     		mov	r0, r1
 137              	.LVL4:
 138              		.loc 1 211 5 is_stmt 0 view .LVU38
 139 0074 FFF7FEFF 		bl	RCC_APB2PeriphResetCmd
 140              	.LVL5:
 141              		.loc 1 212 5 is_stmt 1 view .LVU39
 142 0078 0021     		movs	r1, #0
 143 007a 0120     		movs	r0, #1
 144              		.loc 1 282 1 is_stmt 0 view .LVU40
 145 007c BDE80840 		pop	{r3, lr}
 146              		.cfi_remember_state
 147              		.cfi_restore 14
 148              		.cfi_restore 3
 149              		.cfi_def_cfa_offset 0
 150              		.loc 1 212 5 view .LVU41
 151 0080 FFF7FEBF 		b	RCC_APB2PeriphResetCmd
 152              	.LVL6:
 153              	.L19:
 154              		.cfi_restore_state
 155              		.loc 1 216 5 is_stmt 1 view .LVU42
 156 0084 0121     		movs	r1, #1
 157 0086 0846     		mov	r0, r1
 158              	.LVL7:
 159              		.loc 1 216 5 is_stmt 0 view .LVU43
 160 0088 FFF7FEFF 		bl	RCC_APB1PeriphResetCmd
 161              	.LVL8:
 162              		.loc 1 217 5 is_stmt 1 view .LVU44
 163 008c 0021     		movs	r1, #0
 164 008e 0120     		movs	r0, #1
 165              		.loc 1 282 1 is_stmt 0 view .LVU45
 166 0090 BDE80840 		pop	{r3, lr}
 167              		.cfi_remember_state
 168              		.cfi_restore 14
 169              		.cfi_restore 3
 170              		.cfi_def_cfa_offset 0
 171              		.loc 1 217 5 view .LVU46
ARM GAS  C:\Users\USER\AppData\Local\Temp\ccNdlOSb.s 			page 4


 172 0094 FFF7FEBF 		b	RCC_APB1PeriphResetCmd
 173              	.LVL9:
 174              	.L20:
 175              		.cfi_restore_state
 176              		.loc 1 221 5 is_stmt 1 view .LVU47
 177 0098 0121     		movs	r1, #1
 178 009a 0220     		movs	r0, #2
 179              	.LVL10:
 180              		.loc 1 221 5 is_stmt 0 view .LVU48
 181 009c FFF7FEFF 		bl	RCC_APB1PeriphResetCmd
 182              	.LVL11:
 183              		.loc 1 222 5 is_stmt 1 view .LVU49
 184 00a0 0021     		movs	r1, #0
 185 00a2 0220     		movs	r0, #2
 186              		.loc 1 282 1 is_stmt 0 view .LVU50
 187 00a4 BDE80840 		pop	{r3, lr}
 188              		.cfi_remember_state
 189              		.cfi_restore 14
 190              		.cfi_restore 3
 191              		.cfi_def_cfa_offset 0
 192              		.loc 1 222 5 view .LVU51
 193 00a8 FFF7FEBF 		b	RCC_APB1PeriphResetCmd
 194              	.LVL12:
 195              	.L22:
 196              		.cfi_restore_state
 197              		.loc 1 231 5 is_stmt 1 view .LVU52
 198 00ac 0121     		movs	r1, #1
 199 00ae 0820     		movs	r0, #8
 200              	.LVL13:
 201              		.loc 1 231 5 is_stmt 0 view .LVU53
 202 00b0 FFF7FEFF 		bl	RCC_APB1PeriphResetCmd
 203              	.LVL14:
 204              		.loc 1 232 5 is_stmt 1 view .LVU54
 205 00b4 0021     		movs	r1, #0
 206 00b6 0820     		movs	r0, #8
 207              		.loc 1 282 1 is_stmt 0 view .LVU55
 208 00b8 BDE80840 		pop	{r3, lr}
 209              		.cfi_remember_state
 210              		.cfi_restore 14
 211              		.cfi_restore 3
 212              		.cfi_def_cfa_offset 0
 213              		.loc 1 232 5 view .LVU56
 214 00bc FFF7FEBF 		b	RCC_APB1PeriphResetCmd
 215              	.LVL15:
 216              	.L23:
 217              		.cfi_restore_state
 218              		.loc 1 236 5 is_stmt 1 view .LVU57
 219 00c0 0121     		movs	r1, #1
 220 00c2 1020     		movs	r0, #16
 221              	.LVL16:
 222              		.loc 1 236 5 is_stmt 0 view .LVU58
 223 00c4 FFF7FEFF 		bl	RCC_APB1PeriphResetCmd
 224              	.LVL17:
 225              		.loc 1 237 5 is_stmt 1 view .LVU59
 226 00c8 0021     		movs	r1, #0
 227 00ca 1020     		movs	r0, #16
 228              		.loc 1 282 1 is_stmt 0 view .LVU60
ARM GAS  C:\Users\USER\AppData\Local\Temp\ccNdlOSb.s 			page 5


 229 00cc BDE80840 		pop	{r3, lr}
 230              		.cfi_remember_state
 231              		.cfi_restore 14
 232              		.cfi_restore 3
 233              		.cfi_def_cfa_offset 0
 234              		.loc 1 237 5 view .LVU61
 235 00d0 FFF7FEBF 		b	RCC_APB1PeriphResetCmd
 236              	.LVL18:
 237              	.L24:
 238              		.cfi_restore_state
 239              		.loc 1 241 5 is_stmt 1 view .LVU62
 240 00d4 0121     		movs	r1, #1
 241 00d6 2020     		movs	r0, #32
 242              	.LVL19:
 243              		.loc 1 241 5 is_stmt 0 view .LVU63
 244 00d8 FFF7FEFF 		bl	RCC_APB1PeriphResetCmd
 245              	.LVL20:
 246              		.loc 1 242 5 is_stmt 1 view .LVU64
 247 00dc 0021     		movs	r1, #0
 248 00de 2020     		movs	r0, #32
 249              		.loc 1 282 1 is_stmt 0 view .LVU65
 250 00e0 BDE80840 		pop	{r3, lr}
 251              		.cfi_remember_state
 252              		.cfi_restore 14
 253              		.cfi_restore 3
 254              		.cfi_def_cfa_offset 0
 255              		.loc 1 242 5 view .LVU66
 256 00e4 FFF7FEBF 		b	RCC_APB1PeriphResetCmd
 257              	.LVL21:
 258              	.L26:
 259              		.cfi_restore_state
 260              		.loc 1 251 5 is_stmt 1 view .LVU67
 261 00e8 0121     		movs	r1, #1
 262 00ea 4FF48030 		mov	r0, #65536
 263              	.LVL22:
 264              		.loc 1 251 5 is_stmt 0 view .LVU68
 265 00ee FFF7FEFF 		bl	RCC_APB2PeriphResetCmd
 266              	.LVL23:
 267              		.loc 1 252 5 is_stmt 1 view .LVU69
 268 00f2 0021     		movs	r1, #0
 269 00f4 4FF48030 		mov	r0, #65536
 270              		.loc 1 282 1 is_stmt 0 view .LVU70
 271 00f8 BDE80840 		pop	{r3, lr}
 272              		.cfi_remember_state
 273              		.cfi_restore 14
 274              		.cfi_restore 3
 275              		.cfi_def_cfa_offset 0
 276              		.loc 1 252 5 view .LVU71
 277 00fc FFF7FEBF 		b	RCC_APB2PeriphResetCmd
 278              	.LVL24:
 279              	.L25:
 280              		.cfi_restore_state
 281              		.loc 1 246 5 is_stmt 1 view .LVU72
 282 0100 0121     		movs	r1, #1
 283 0102 0220     		movs	r0, #2
 284              	.LVL25:
 285              		.loc 1 246 5 is_stmt 0 view .LVU73
ARM GAS  C:\Users\USER\AppData\Local\Temp\ccNdlOSb.s 			page 6


 286 0104 FFF7FEFF 		bl	RCC_APB2PeriphResetCmd
 287              	.LVL26:
 288              		.loc 1 247 5 is_stmt 1 view .LVU74
 289 0108 0021     		movs	r1, #0
 290 010a 0220     		movs	r0, #2
 291              		.loc 1 282 1 is_stmt 0 view .LVU75
 292 010c BDE80840 		pop	{r3, lr}
 293              		.cfi_remember_state
 294              		.cfi_restore 14
 295              		.cfi_restore 3
 296              		.cfi_def_cfa_offset 0
 297              		.loc 1 247 5 view .LVU76
 298 0110 FFF7FEBF 		b	RCC_APB2PeriphResetCmd
 299              	.LVL27:
 300              	.L27:
 301              		.cfi_restore_state
 302              		.loc 1 256 5 is_stmt 1 view .LVU77
 303 0114 0121     		movs	r1, #1
 304 0116 4FF40030 		mov	r0, #131072
 305              	.LVL28:
 306              		.loc 1 256 5 is_stmt 0 view .LVU78
 307 011a FFF7FEFF 		bl	RCC_APB2PeriphResetCmd
 308              	.LVL29:
 309              		.loc 1 257 5 is_stmt 1 view .LVU79
 310 011e 0021     		movs	r1, #0
 311 0120 4FF40030 		mov	r0, #131072
 312              		.loc 1 282 1 is_stmt 0 view .LVU80
 313 0124 BDE80840 		pop	{r3, lr}
 314              		.cfi_remember_state
 315              		.cfi_restore 14
 316              		.cfi_restore 3
 317              		.cfi_def_cfa_offset 0
 318              		.loc 1 257 5 view .LVU81
 319 0128 FFF7FEBF 		b	RCC_APB2PeriphResetCmd
 320              	.LVL30:
 321              	.L28:
 322              		.cfi_restore_state
 323              		.loc 1 261 5 is_stmt 1 view .LVU82
 324 012c 0121     		movs	r1, #1
 325 012e 4FF48020 		mov	r0, #262144
 326              	.LVL31:
 327              		.loc 1 261 5 is_stmt 0 view .LVU83
 328 0132 FFF7FEFF 		bl	RCC_APB2PeriphResetCmd
 329              	.LVL32:
 330              		.loc 1 262 5 is_stmt 1 view .LVU84
 331 0136 0021     		movs	r1, #0
 332 0138 4FF48020 		mov	r0, #262144
 333              		.loc 1 282 1 is_stmt 0 view .LVU85
 334 013c BDE80840 		pop	{r3, lr}
 335              		.cfi_remember_state
 336              		.cfi_restore 14
 337              		.cfi_restore 3
 338              		.cfi_def_cfa_offset 0
 339              		.loc 1 262 5 view .LVU86
 340 0140 FFF7FEBF 		b	RCC_APB2PeriphResetCmd
 341              	.LVL33:
 342              	.L29:
ARM GAS  C:\Users\USER\AppData\Local\Temp\ccNdlOSb.s 			page 7


 343              		.cfi_restore_state
 344              		.loc 1 266 5 is_stmt 1 view .LVU87
 345 0144 0121     		movs	r1, #1
 346 0146 4020     		movs	r0, #64
 347              	.LVL34:
 348              		.loc 1 266 5 is_stmt 0 view .LVU88
 349 0148 FFF7FEFF 		bl	RCC_APB1PeriphResetCmd
 350              	.LVL35:
 351              		.loc 1 267 5 is_stmt 1 view .LVU89
 352 014c 0021     		movs	r1, #0
 353 014e 4020     		movs	r0, #64
 354              		.loc 1 282 1 is_stmt 0 view .LVU90
 355 0150 BDE80840 		pop	{r3, lr}
 356              		.cfi_remember_state
 357              		.cfi_restore 14
 358              		.cfi_restore 3
 359              		.cfi_def_cfa_offset 0
 360              		.loc 1 267 5 view .LVU91
 361 0154 FFF7FEBF 		b	RCC_APB1PeriphResetCmd
 362              	.LVL36:
 363              	.L30:
 364              		.cfi_restore_state
 365              		.loc 1 271 5 is_stmt 1 view .LVU92
 366 0158 0121     		movs	r1, #1
 367 015a 8020     		movs	r0, #128
 368              	.LVL37:
 369              		.loc 1 271 5 is_stmt 0 view .LVU93
 370 015c FFF7FEFF 		bl	RCC_APB1PeriphResetCmd
 371              	.LVL38:
 372              		.loc 1 272 5 is_stmt 1 view .LVU94
 373 0160 0021     		movs	r1, #0
 374 0162 8020     		movs	r0, #128
 375              		.loc 1 282 1 is_stmt 0 view .LVU95
 376 0164 BDE80840 		pop	{r3, lr}
 377              		.cfi_remember_state
 378              		.cfi_restore 14
 379              		.cfi_restore 3
 380              		.cfi_def_cfa_offset 0
 381              		.loc 1 272 5 view .LVU96
 382 0168 FFF7FEBF 		b	RCC_APB1PeriphResetCmd
 383              	.LVL39:
 384              	.L31:
 385              		.cfi_restore_state
 386              		.loc 1 278 7 is_stmt 1 view .LVU97
 387 016c 0121     		movs	r1, #1
 388 016e 4FF48070 		mov	r0, #256
 389              	.LVL40:
 390              		.loc 1 278 7 is_stmt 0 view .LVU98
 391 0172 FFF7FEFF 		bl	RCC_APB1PeriphResetCmd
 392              	.LVL41:
 393              		.loc 1 279 7 is_stmt 1 view .LVU99
 394 0176 0021     		movs	r1, #0
 395 0178 4FF48070 		mov	r0, #256
 396              		.loc 1 282 1 is_stmt 0 view .LVU100
 397 017c BDE80840 		pop	{r3, lr}
 398              		.cfi_restore 14
 399              		.cfi_restore 3
ARM GAS  C:\Users\USER\AppData\Local\Temp\ccNdlOSb.s 			page 8


 400              		.cfi_def_cfa_offset 0
 401              		.loc 1 279 7 view .LVU101
 402 0180 FFF7FEBF 		b	RCC_APB1PeriphResetCmd
 403              	.LVL42:
 404              	.L33:
 405              		.align	2
 406              	.L32:
 407 0184 00000140 		.word	1073807360
 408 0188 00040040 		.word	1073742848
 409 018c 00080040 		.word	1073743872
 410 0190 000C0040 		.word	1073744896
 411 0194 00100040 		.word	1073745920
 412 0198 00140040 		.word	1073746944
 413 019c 00040140 		.word	1073808384
 414 01a0 00400140 		.word	1073823744
 415 01a4 00440140 		.word	1073824768
 416 01a8 00480140 		.word	1073825792
 417 01ac 00180040 		.word	1073747968
 418 01b0 001C0040 		.word	1073748992
 419 01b4 00200040 		.word	1073750016
 420              		.cfi_endproc
 421              	.LFE112:
 422              		.size	TIM_DeInit, .-TIM_DeInit
 423              		.section	.text.TIM_TimeBaseInit,"ax",%progbits
 424              		.align	1
 425              		.p2align 4,,15
 426              		.global	TIM_TimeBaseInit
 427              		.syntax unified
 428              		.thumb
 429              		.thumb_func
 430              		.fpu fpv4-sp-d16
 431              		.type	TIM_TimeBaseInit, %function
 432              	TIM_TimeBaseInit:
 433              	.LVL43:
 434              	.LFB113:
 435              		.loc 1 293 1 is_stmt 1 view -0
 436              		.cfi_startproc
 437              		@ args = 0, pretend = 0, frame = 0
 438              		@ frame_needed = 0, uses_anonymous_args = 0
 439              		@ link register save eliminated.
 440              		.loc 1 294 3 view .LVU103
 441              		.loc 1 297 3 view .LVU104
 442              		.loc 1 298 3 view .LVU105
 443              		.loc 1 299 3 view .LVU106
 444              		.loc 1 301 3 view .LVU107
 445              		.loc 1 303 5 is_stmt 0 view .LVU108
 446 0000 214A     		ldr	r2, .L47
 447              		.loc 1 301 16 view .LVU109
 448 0002 0368     		ldr	r3, [r0]
 449              		.loc 1 303 5 view .LVU110
 450 0004 9042     		cmp	r0, r2
 451              		.loc 1 293 1 view .LVU111
 452 0006 70B4     		push	{r4, r5, r6}
 453              		.cfi_def_cfa_offset 12
 454              		.cfi_offset 4, -12
 455              		.cfi_offset 5, -8
 456              		.cfi_offset 6, -4
ARM GAS  C:\Users\USER\AppData\Local\Temp\ccNdlOSb.s 			page 9


 457              		.loc 1 301 10 view .LVU112
 458 0008 9BB2     		uxth	r3, r3
 459              	.LVL44:
 460              		.loc 1 303 3 is_stmt 1 view .LVU113
 461              		.loc 1 303 5 is_stmt 0 view .LVU114
 462 000a 12D0     		beq	.L35
 463              		.loc 1 303 21 discriminator 1 view .LVU115
 464 000c 02F58062 		add	r2, r2, #1024
 465 0010 9042     		cmp	r0, r2
 466 0012 0ED0     		beq	.L35
 467              		.loc 1 303 38 discriminator 2 view .LVU116
 468 0014 B0F1804F 		cmp	r0, #1073741824
 469 0018 0BD0     		beq	.L35
 470              		.loc 1 304 21 view .LVU117
 471 001a A2F58032 		sub	r2, r2, #65536
 472 001e 9042     		cmp	r0, r2
 473 0020 07D0     		beq	.L35
 474              		.loc 1 304 38 discriminator 1 view .LVU118
 475 0022 02F58062 		add	r2, r2, #1024
 476 0026 9042     		cmp	r0, r2
 477 0028 03D0     		beq	.L35
 478              		.loc 1 305 21 view .LVU119
 479 002a 02F58062 		add	r2, r2, #1024
 480 002e 9042     		cmp	r0, r2
 481 0030 03D1     		bne	.L36
 482              	.L35:
 483              		.loc 1 308 5 is_stmt 1 view .LVU120
 484              		.loc 1 309 12 is_stmt 0 view .LVU121
 485 0032 4A88     		ldrh	r2, [r1, #2]
 486              		.loc 1 308 12 view .LVU122
 487 0034 23F07003 		bic	r3, r3, #112
 488              	.LVL45:
 489              		.loc 1 309 5 is_stmt 1 view .LVU123
 490              		.loc 1 309 12 is_stmt 0 view .LVU124
 491 0038 1343     		orrs	r3, r3, r2
 492              	.LVL46:
 493              	.L36:
 494              		.loc 1 312 3 is_stmt 1 view .LVU125
 495              		.loc 1 312 5 is_stmt 0 view .LVU126
 496 003a 144D     		ldr	r5, .L47+4
 497 003c 4C68     		ldr	r4, [r1, #4]
 498 003e 0A88     		ldrh	r2, [r1]
 499 0040 A842     		cmp	r0, r5
 500 0042 15D0     		beq	.L38
 501              		.loc 1 312 21 discriminator 1 view .LVU127
 502 0044 05F58065 		add	r5, r5, #1024
 503 0048 A842     		cmp	r0, r5
 504 004a 11D0     		beq	.L38
 505              		.loc 1 315 5 is_stmt 1 view .LVU128
 506              		.loc 1 316 12 is_stmt 0 view .LVU129
 507 004c 0E89     		ldrh	r6, [r1, #8]
 508              		.loc 1 315 12 view .LVU130
 509 004e 23F44073 		bic	r3, r3, #768
 510              	.LVL47:
 511              		.loc 1 327 6 view .LVU131
 512 0052 05F56C45 		add	r5, r5, #60416
 513              		.loc 1 315 12 view .LVU132
ARM GAS  C:\Users\USER\AppData\Local\Temp\ccNdlOSb.s 			page 10


 514 0056 9BB2     		uxth	r3, r3
 515              	.LVL48:
 516              		.loc 1 316 5 is_stmt 1 view .LVU133
 517              		.loc 1 319 3 view .LVU134
 518              		.loc 1 319 13 is_stmt 0 view .LVU135
 519 0058 3343     		orrs	r3, r3, r6
 520              	.LVL49:
 521              		.loc 1 327 6 view .LVU136
 522 005a A842     		cmp	r0, r5
 523              		.loc 1 319 13 view .LVU137
 524 005c 0360     		str	r3, [r0]
 525              		.loc 1 322 3 is_stmt 1 view .LVU138
 526              		.loc 1 322 13 is_stmt 0 view .LVU139
 527 005e C462     		str	r4, [r0, #44]
 528              		.loc 1 325 3 is_stmt 1 view .LVU140
 529              		.loc 1 325 13 is_stmt 0 view .LVU141
 530 0060 8262     		str	r2, [r0, #40]
 531              		.loc 1 327 3 is_stmt 1 view .LVU142
 532              		.loc 1 327 6 is_stmt 0 view .LVU143
 533 0062 0CD1     		bne	.L39
 534              	.L41:
 535              		.loc 1 330 5 is_stmt 1 view .LVU144
 536              		.loc 1 330 39 is_stmt 0 view .LVU145
 537 0064 8B7A     		ldrb	r3, [r1, #10]	@ zero_extendqisi2
 538              		.loc 1 330 15 view .LVU146
 539 0066 0363     		str	r3, [r0, #48]
 540              		.loc 1 335 3 is_stmt 1 view .LVU147
 541              		.loc 1 335 13 is_stmt 0 view .LVU148
 542 0068 0123     		movs	r3, #1
 543 006a 4361     		str	r3, [r0, #20]
 544              		.loc 1 336 1 view .LVU149
 545 006c 70BC     		pop	{r4, r5, r6}
 546              		.cfi_remember_state
 547              		.cfi_restore 6
 548              		.cfi_restore 5
 549              		.cfi_restore 4
 550              		.cfi_def_cfa_offset 0
 551 006e 7047     		bx	lr
 552              	.LVL50:
 553              	.L38:
 554              		.cfi_restore_state
 555              		.loc 1 319 3 is_stmt 1 view .LVU150
 556              		.loc 1 319 13 is_stmt 0 view .LVU151
 557 0070 0360     		str	r3, [r0]
 558              		.loc 1 322 3 is_stmt 1 view .LVU152
 559              		.loc 1 322 13 is_stmt 0 view .LVU153
 560 0072 C462     		str	r4, [r0, #44]
 561              		.loc 1 325 3 is_stmt 1 view .LVU154
 562              		.loc 1 325 13 is_stmt 0 view .LVU155
 563 0074 8262     		str	r2, [r0, #40]
 564              		.loc 1 327 3 is_stmt 1 view .LVU156
 565              	.LVL51:
 566              	.L40:
 567              		.loc 1 335 3 view .LVU157
 568              		.loc 1 335 13 is_stmt 0 view .LVU158
 569 0076 0123     		movs	r3, #1
 570 0078 4361     		str	r3, [r0, #20]
ARM GAS  C:\Users\USER\AppData\Local\Temp\ccNdlOSb.s 			page 11


 571              		.loc 1 336 1 view .LVU159
 572 007a 70BC     		pop	{r4, r5, r6}
 573              		.cfi_remember_state
 574              		.cfi_restore 6
 575              		.cfi_restore 5
 576              		.cfi_restore 4
 577              		.cfi_def_cfa_offset 0
 578 007c 7047     		bx	lr
 579              	.L39:
 580              		.cfi_restore_state
 581              		.loc 1 327 22 discriminator 1 view .LVU160
 582 007e 044B     		ldr	r3, .L47+8
 583 0080 9842     		cmp	r0, r3
 584 0082 EFD0     		beq	.L41
 585 0084 F7E7     		b	.L40
 586              	.L48:
 587 0086 00BF     		.align	2
 588              	.L47:
 589 0088 00000140 		.word	1073807360
 590 008c 00100040 		.word	1073745920
 591 0090 00040140 		.word	1073808384
 592              		.cfi_endproc
 593              	.LFE113:
 594              		.size	TIM_TimeBaseInit, .-TIM_TimeBaseInit
 595              		.section	.text.TIM_TimeBaseStructInit,"ax",%progbits
 596              		.align	1
 597              		.p2align 4,,15
 598              		.global	TIM_TimeBaseStructInit
 599              		.syntax unified
 600              		.thumb
 601              		.thumb_func
 602              		.fpu fpv4-sp-d16
 603              		.type	TIM_TimeBaseStructInit, %function
 604              	TIM_TimeBaseStructInit:
 605              	.LVL52:
 606              	.LFB114:
 607              		.loc 1 345 1 is_stmt 1 view -0
 608              		.cfi_startproc
 609              		@ args = 0, pretend = 0, frame = 0
 610              		@ frame_needed = 0, uses_anonymous_args = 0
 611              		@ link register save eliminated.
 612              		.loc 1 347 3 view .LVU162
 613              		.loc 1 348 3 view .LVU163
 614              		.loc 1 349 3 view .LVU164
 615              		.loc 1 350 3 view .LVU165
 616              		.loc 1 351 3 view .LVU166
 617              		.loc 1 348 41 is_stmt 0 view .LVU167
 618 0000 0023     		movs	r3, #0
 619 0002 4FF0FF32 		mov	r2, #-1
 620 0006 C0E90032 		strd	r3, r2, [r0]
 621              		.loc 1 349 45 view .LVU168
 622 000a 0381     		strh	r3, [r0, #8]	@ movhi
 623              		.loc 1 351 49 view .LVU169
 624 000c 8372     		strb	r3, [r0, #10]
 625              		.loc 1 352 1 view .LVU170
 626 000e 7047     		bx	lr
 627              		.cfi_endproc
ARM GAS  C:\Users\USER\AppData\Local\Temp\ccNdlOSb.s 			page 12


 628              	.LFE114:
 629              		.size	TIM_TimeBaseStructInit, .-TIM_TimeBaseStructInit
 630              		.section	.text.TIM_PrescalerConfig,"ax",%progbits
 631              		.align	1
 632              		.p2align 4,,15
 633              		.global	TIM_PrescalerConfig
 634              		.syntax unified
 635              		.thumb
 636              		.thumb_func
 637              		.fpu fpv4-sp-d16
 638              		.type	TIM_PrescalerConfig, %function
 639              	TIM_PrescalerConfig:
 640              	.LVL53:
 641              	.LFB115:
 642              		.loc 1 365 1 is_stmt 1 view -0
 643              		.cfi_startproc
 644              		@ args = 0, pretend = 0, frame = 0
 645              		@ frame_needed = 0, uses_anonymous_args = 0
 646              		@ link register save eliminated.
 647              		.loc 1 367 3 view .LVU172
 648              		.loc 1 368 3 view .LVU173
 649              		.loc 1 370 3 view .LVU174
 650              		.loc 1 370 13 is_stmt 0 view .LVU175
 651 0000 8162     		str	r1, [r0, #40]
 652              		.loc 1 372 3 is_stmt 1 view .LVU176
 653              		.loc 1 372 13 is_stmt 0 view .LVU177
 654 0002 4261     		str	r2, [r0, #20]
 655              		.loc 1 373 1 view .LVU178
 656 0004 7047     		bx	lr
 657              		.cfi_endproc
 658              	.LFE115:
 659              		.size	TIM_PrescalerConfig, .-TIM_PrescalerConfig
 660 0006 00BF     		.section	.text.TIM_CounterModeConfig,"ax",%progbits
 661              		.align	1
 662              		.p2align 4,,15
 663              		.global	TIM_CounterModeConfig
 664              		.syntax unified
 665              		.thumb
 666              		.thumb_func
 667              		.fpu fpv4-sp-d16
 668              		.type	TIM_CounterModeConfig, %function
 669              	TIM_CounterModeConfig:
 670              	.LVL54:
 671              	.LFB116:
 672              		.loc 1 388 1 is_stmt 1 view -0
 673              		.cfi_startproc
 674              		@ args = 0, pretend = 0, frame = 0
 675              		@ frame_needed = 0, uses_anonymous_args = 0
 676              		@ link register save eliminated.
 677              		.loc 1 389 3 view .LVU180
 678              		.loc 1 392 3 view .LVU181
 679              		.loc 1 393 3 view .LVU182
 680              		.loc 1 395 3 view .LVU183
 681              		.loc 1 395 16 is_stmt 0 view .LVU184
 682 0000 0268     		ldr	r2, [r0]
 683              	.LVL55:
 684              		.loc 1 398 3 is_stmt 1 view .LVU185
ARM GAS  C:\Users\USER\AppData\Local\Temp\ccNdlOSb.s 			page 13


 685              		.loc 1 398 10 is_stmt 0 view .LVU186
 686 0002 4FF68F73 		movw	r3, #65423
 687 0006 1340     		ands	r3, r3, r2
 688              	.LVL56:
 689              		.loc 1 401 3 is_stmt 1 view .LVU187
 690              		.loc 1 404 3 view .LVU188
 691              		.loc 1 404 13 is_stmt 0 view .LVU189
 692 0008 1943     		orrs	r1, r1, r3
 693              	.LVL57:
 694              		.loc 1 404 13 view .LVU190
 695 000a 0160     		str	r1, [r0]
 696              		.loc 1 405 1 view .LVU191
 697 000c 7047     		bx	lr
 698              		.cfi_endproc
 699              	.LFE116:
 700              		.size	TIM_CounterModeConfig, .-TIM_CounterModeConfig
 701 000e 00BF     		.section	.text.TIM_SetCounter,"ax",%progbits
 702              		.align	1
 703              		.p2align 4,,15
 704              		.global	TIM_SetCounter
 705              		.syntax unified
 706              		.thumb
 707              		.thumb_func
 708              		.fpu fpv4-sp-d16
 709              		.type	TIM_SetCounter, %function
 710              	TIM_SetCounter:
 711              	.LVL58:
 712              	.LFB117:
 713              		.loc 1 414 1 is_stmt 1 view -0
 714              		.cfi_startproc
 715              		@ args = 0, pretend = 0, frame = 0
 716              		@ frame_needed = 0, uses_anonymous_args = 0
 717              		@ link register save eliminated.
 718              		.loc 1 416 4 view .LVU193
 719              		.loc 1 419 3 view .LVU194
 720              		.loc 1 419 13 is_stmt 0 view .LVU195
 721 0000 4162     		str	r1, [r0, #36]
 722              		.loc 1 420 1 view .LVU196
 723 0002 7047     		bx	lr
 724              		.cfi_endproc
 725              	.LFE117:
 726              		.size	TIM_SetCounter, .-TIM_SetCounter
 727              		.section	.text.TIM_SetAutoreload,"ax",%progbits
 728              		.align	1
 729              		.p2align 4,,15
 730              		.global	TIM_SetAutoreload
 731              		.syntax unified
 732              		.thumb
 733              		.thumb_func
 734              		.fpu fpv4-sp-d16
 735              		.type	TIM_SetAutoreload, %function
 736              	TIM_SetAutoreload:
 737              	.LVL59:
 738              	.LFB118:
 739              		.loc 1 429 1 is_stmt 1 view -0
 740              		.cfi_startproc
 741              		@ args = 0, pretend = 0, frame = 0
ARM GAS  C:\Users\USER\AppData\Local\Temp\ccNdlOSb.s 			page 14


 742              		@ frame_needed = 0, uses_anonymous_args = 0
 743              		@ link register save eliminated.
 744              		.loc 1 431 3 view .LVU198
 745              		.loc 1 434 3 view .LVU199
 746              		.loc 1 434 13 is_stmt 0 view .LVU200
 747 0000 C162     		str	r1, [r0, #44]
 748              		.loc 1 435 1 view .LVU201
 749 0002 7047     		bx	lr
 750              		.cfi_endproc
 751              	.LFE118:
 752              		.size	TIM_SetAutoreload, .-TIM_SetAutoreload
 753              		.section	.text.TIM_GetCounter,"ax",%progbits
 754              		.align	1
 755              		.p2align 4,,15
 756              		.global	TIM_GetCounter
 757              		.syntax unified
 758              		.thumb
 759              		.thumb_func
 760              		.fpu fpv4-sp-d16
 761              		.type	TIM_GetCounter, %function
 762              	TIM_GetCounter:
 763              	.LVL60:
 764              	.LFB119:
 765              		.loc 1 443 1 is_stmt 1 view -0
 766              		.cfi_startproc
 767              		@ args = 0, pretend = 0, frame = 0
 768              		@ frame_needed = 0, uses_anonymous_args = 0
 769              		@ link register save eliminated.
 770              		.loc 1 445 3 view .LVU203
 771              		.loc 1 448 3 view .LVU204
 772              		.loc 1 448 14 is_stmt 0 view .LVU205
 773 0000 406A     		ldr	r0, [r0, #36]
 774              	.LVL61:
 775              		.loc 1 449 1 view .LVU206
 776 0002 7047     		bx	lr
 777              		.cfi_endproc
 778              	.LFE119:
 779              		.size	TIM_GetCounter, .-TIM_GetCounter
 780              		.section	.text.TIM_GetPrescaler,"ax",%progbits
 781              		.align	1
 782              		.p2align 4,,15
 783              		.global	TIM_GetPrescaler
 784              		.syntax unified
 785              		.thumb
 786              		.thumb_func
 787              		.fpu fpv4-sp-d16
 788              		.type	TIM_GetPrescaler, %function
 789              	TIM_GetPrescaler:
 790              	.LVL62:
 791              	.LFB120:
 792              		.loc 1 457 1 is_stmt 1 view -0
 793              		.cfi_startproc
 794              		@ args = 0, pretend = 0, frame = 0
 795              		@ frame_needed = 0, uses_anonymous_args = 0
 796              		@ link register save eliminated.
 797              		.loc 1 459 3 view .LVU208
 798              		.loc 1 462 3 view .LVU209
ARM GAS  C:\Users\USER\AppData\Local\Temp\ccNdlOSb.s 			page 15


 799              		.loc 1 462 14 is_stmt 0 view .LVU210
 800 0000 806A     		ldr	r0, [r0, #40]
 801              	.LVL63:
 802              		.loc 1 463 1 view .LVU211
 803 0002 80B2     		uxth	r0, r0
 804 0004 7047     		bx	lr
 805              		.cfi_endproc
 806              	.LFE120:
 807              		.size	TIM_GetPrescaler, .-TIM_GetPrescaler
 808 0006 00BF     		.section	.text.TIM_UpdateDisableConfig,"ax",%progbits
 809              		.align	1
 810              		.p2align 4,,15
 811              		.global	TIM_UpdateDisableConfig
 812              		.syntax unified
 813              		.thumb
 814              		.thumb_func
 815              		.fpu fpv4-sp-d16
 816              		.type	TIM_UpdateDisableConfig, %function
 817              	TIM_UpdateDisableConfig:
 818              	.LVL64:
 819              	.LFB121:
 820              		.loc 1 473 1 is_stmt 1 view -0
 821              		.cfi_startproc
 822              		@ args = 0, pretend = 0, frame = 0
 823              		@ frame_needed = 0, uses_anonymous_args = 0
 824              		@ link register save eliminated.
 825              		.loc 1 475 3 view .LVU213
 826              		.loc 1 476 3 view .LVU214
 827              		.loc 1 478 3 view .LVU215
 828              		.loc 1 481 15 is_stmt 0 view .LVU216
 829 0000 0368     		ldr	r3, [r0]
 830              		.loc 1 478 6 view .LVU217
 831 0002 19B1     		cbz	r1, .L57
 832              		.loc 1 481 5 is_stmt 1 view .LVU218
 833              		.loc 1 481 15 is_stmt 0 view .LVU219
 834 0004 43F00203 		orr	r3, r3, #2
 835 0008 0360     		str	r3, [r0]
 836 000a 7047     		bx	lr
 837              	.L57:
 838              		.loc 1 486 5 is_stmt 1 view .LVU220
 839              		.loc 1 486 15 is_stmt 0 view .LVU221
 840 000c 4FF6FD72 		movw	r2, #65533
 841 0010 1340     		ands	r3, r3, r2
 842 0012 0360     		str	r3, [r0]
 843              		.loc 1 488 1 view .LVU222
 844 0014 7047     		bx	lr
 845              		.cfi_endproc
 846              	.LFE121:
 847              		.size	TIM_UpdateDisableConfig, .-TIM_UpdateDisableConfig
 848 0016 00BF     		.section	.text.TIM_UpdateRequestConfig,"ax",%progbits
 849              		.align	1
 850              		.p2align 4,,15
 851              		.global	TIM_UpdateRequestConfig
 852              		.syntax unified
 853              		.thumb
 854              		.thumb_func
 855              		.fpu fpv4-sp-d16
ARM GAS  C:\Users\USER\AppData\Local\Temp\ccNdlOSb.s 			page 16


 856              		.type	TIM_UpdateRequestConfig, %function
 857              	TIM_UpdateRequestConfig:
 858              	.LVL65:
 859              	.LFB122:
 860              		.loc 1 502 1 is_stmt 1 view -0
 861              		.cfi_startproc
 862              		@ args = 0, pretend = 0, frame = 0
 863              		@ frame_needed = 0, uses_anonymous_args = 0
 864              		@ link register save eliminated.
 865              		.loc 1 504 3 view .LVU224
 866              		.loc 1 505 3 view .LVU225
 867              		.loc 1 507 3 view .LVU226
 868              		.loc 1 510 15 is_stmt 0 view .LVU227
 869 0000 0368     		ldr	r3, [r0]
 870              		.loc 1 507 6 view .LVU228
 871 0002 19B1     		cbz	r1, .L60
 872              		.loc 1 510 5 is_stmt 1 view .LVU229
 873              		.loc 1 510 15 is_stmt 0 view .LVU230
 874 0004 43F00403 		orr	r3, r3, #4
 875 0008 0360     		str	r3, [r0]
 876 000a 7047     		bx	lr
 877              	.L60:
 878              		.loc 1 515 5 is_stmt 1 view .LVU231
 879              		.loc 1 515 15 is_stmt 0 view .LVU232
 880 000c 4FF6FB72 		movw	r2, #65531
 881 0010 1340     		ands	r3, r3, r2
 882 0012 0360     		str	r3, [r0]
 883              		.loc 1 517 1 view .LVU233
 884 0014 7047     		bx	lr
 885              		.cfi_endproc
 886              	.LFE122:
 887              		.size	TIM_UpdateRequestConfig, .-TIM_UpdateRequestConfig
 888 0016 00BF     		.section	.text.TIM_ARRPreloadConfig,"ax",%progbits
 889              		.align	1
 890              		.p2align 4,,15
 891              		.global	TIM_ARRPreloadConfig
 892              		.syntax unified
 893              		.thumb
 894              		.thumb_func
 895              		.fpu fpv4-sp-d16
 896              		.type	TIM_ARRPreloadConfig, %function
 897              	TIM_ARRPreloadConfig:
 898              	.LVL66:
 899              	.LFB123:
 900              		.loc 1 527 1 is_stmt 1 view -0
 901              		.cfi_startproc
 902              		@ args = 0, pretend = 0, frame = 0
 903              		@ frame_needed = 0, uses_anonymous_args = 0
 904              		@ link register save eliminated.
 905              		.loc 1 529 3 view .LVU235
 906              		.loc 1 530 3 view .LVU236
 907              		.loc 1 532 3 view .LVU237
 908              		.loc 1 535 15 is_stmt 0 view .LVU238
 909 0000 0368     		ldr	r3, [r0]
 910              		.loc 1 532 6 view .LVU239
 911 0002 19B1     		cbz	r1, .L63
 912              		.loc 1 535 5 is_stmt 1 view .LVU240
ARM GAS  C:\Users\USER\AppData\Local\Temp\ccNdlOSb.s 			page 17


 913              		.loc 1 535 15 is_stmt 0 view .LVU241
 914 0004 43F08003 		orr	r3, r3, #128
 915 0008 0360     		str	r3, [r0]
 916 000a 7047     		bx	lr
 917              	.L63:
 918              		.loc 1 540 5 is_stmt 1 view .LVU242
 919              		.loc 1 540 15 is_stmt 0 view .LVU243
 920 000c 4FF67F72 		movw	r2, #65407
 921 0010 1340     		ands	r3, r3, r2
 922 0012 0360     		str	r3, [r0]
 923              		.loc 1 542 1 view .LVU244
 924 0014 7047     		bx	lr
 925              		.cfi_endproc
 926              	.LFE123:
 927              		.size	TIM_ARRPreloadConfig, .-TIM_ARRPreloadConfig
 928 0016 00BF     		.section	.text.TIM_SelectOnePulseMode,"ax",%progbits
 929              		.align	1
 930              		.p2align 4,,15
 931              		.global	TIM_SelectOnePulseMode
 932              		.syntax unified
 933              		.thumb
 934              		.thumb_func
 935              		.fpu fpv4-sp-d16
 936              		.type	TIM_SelectOnePulseMode, %function
 937              	TIM_SelectOnePulseMode:
 938              	.LVL67:
 939              	.LFB124:
 940              		.loc 1 554 1 is_stmt 1 view -0
 941              		.cfi_startproc
 942              		@ args = 0, pretend = 0, frame = 0
 943              		@ frame_needed = 0, uses_anonymous_args = 0
 944              		@ link register save eliminated.
 945              		.loc 1 556 3 view .LVU246
 946              		.loc 1 557 3 view .LVU247
 947              		.loc 1 560 3 view .LVU248
 948              		.loc 1 560 13 is_stmt 0 view .LVU249
 949 0000 0368     		ldr	r3, [r0]
 950 0002 4FF6F772 		movw	r2, #65527
 951 0006 1340     		ands	r3, r3, r2
 952 0008 0360     		str	r3, [r0]
 953              		.loc 1 563 3 is_stmt 1 view .LVU250
 954              		.loc 1 563 13 is_stmt 0 view .LVU251
 955 000a 0368     		ldr	r3, [r0]
 956 000c 1943     		orrs	r1, r1, r3
 957              	.LVL68:
 958              		.loc 1 563 13 view .LVU252
 959 000e 0160     		str	r1, [r0]
 960              		.loc 1 564 1 view .LVU253
 961 0010 7047     		bx	lr
 962              		.cfi_endproc
 963              	.LFE124:
 964              		.size	TIM_SelectOnePulseMode, .-TIM_SelectOnePulseMode
 965 0012 00BF     		.section	.text.TIM_SetClockDivision,"ax",%progbits
 966              		.align	1
 967              		.p2align 4,,15
 968              		.global	TIM_SetClockDivision
 969              		.syntax unified
ARM GAS  C:\Users\USER\AppData\Local\Temp\ccNdlOSb.s 			page 18


 970              		.thumb
 971              		.thumb_func
 972              		.fpu fpv4-sp-d16
 973              		.type	TIM_SetClockDivision, %function
 974              	TIM_SetClockDivision:
 975              	.LVL69:
 976              	.LFB125:
 977              		.loc 1 577 1 is_stmt 1 view -0
 978              		.cfi_startproc
 979              		@ args = 0, pretend = 0, frame = 0
 980              		@ frame_needed = 0, uses_anonymous_args = 0
 981              		@ link register save eliminated.
 982              		.loc 1 579 3 view .LVU255
 983              		.loc 1 580 3 view .LVU256
 984              		.loc 1 583 3 view .LVU257
 985              		.loc 1 583 13 is_stmt 0 view .LVU258
 986 0000 0368     		ldr	r3, [r0]
 987 0002 4FF6FF42 		movw	r2, #64767
 988 0006 1340     		ands	r3, r3, r2
 989 0008 0360     		str	r3, [r0]
 990              		.loc 1 586 3 is_stmt 1 view .LVU259
 991              		.loc 1 586 13 is_stmt 0 view .LVU260
 992 000a 0368     		ldr	r3, [r0]
 993 000c 1943     		orrs	r1, r1, r3
 994              	.LVL70:
 995              		.loc 1 586 13 view .LVU261
 996 000e 0160     		str	r1, [r0]
 997              		.loc 1 587 1 view .LVU262
 998 0010 7047     		bx	lr
 999              		.cfi_endproc
 1000              	.LFE125:
 1001              		.size	TIM_SetClockDivision, .-TIM_SetClockDivision
 1002 0012 00BF     		.section	.text.TIM_Cmd,"ax",%progbits
 1003              		.align	1
 1004              		.p2align 4,,15
 1005              		.global	TIM_Cmd
 1006              		.syntax unified
 1007              		.thumb
 1008              		.thumb_func
 1009              		.fpu fpv4-sp-d16
 1010              		.type	TIM_Cmd, %function
 1011              	TIM_Cmd:
 1012              	.LVL71:
 1013              	.LFB126:
 1014              		.loc 1 597 1 is_stmt 1 view -0
 1015              		.cfi_startproc
 1016              		@ args = 0, pretend = 0, frame = 0
 1017              		@ frame_needed = 0, uses_anonymous_args = 0
 1018              		@ link register save eliminated.
 1019              		.loc 1 599 3 view .LVU264
 1020              		.loc 1 600 3 view .LVU265
 1021              		.loc 1 602 3 view .LVU266
 1022              		.loc 1 605 15 is_stmt 0 view .LVU267
 1023 0000 0368     		ldr	r3, [r0]
 1024              		.loc 1 602 6 view .LVU268
 1025 0002 19B1     		cbz	r1, .L68
 1026              		.loc 1 605 5 is_stmt 1 view .LVU269
ARM GAS  C:\Users\USER\AppData\Local\Temp\ccNdlOSb.s 			page 19


 1027              		.loc 1 605 15 is_stmt 0 view .LVU270
 1028 0004 43F00103 		orr	r3, r3, #1
 1029 0008 0360     		str	r3, [r0]
 1030 000a 7047     		bx	lr
 1031              	.L68:
 1032              		.loc 1 610 5 is_stmt 1 view .LVU271
 1033              		.loc 1 610 15 is_stmt 0 view .LVU272
 1034 000c 4FF6FE72 		movw	r2, #65534
 1035 0010 1340     		ands	r3, r3, r2
 1036 0012 0360     		str	r3, [r0]
 1037              		.loc 1 612 1 view .LVU273
 1038 0014 7047     		bx	lr
 1039              		.cfi_endproc
 1040              	.LFE126:
 1041              		.size	TIM_Cmd, .-TIM_Cmd
 1042 0016 00BF     		.section	.text.TIM_OC1Init,"ax",%progbits
 1043              		.align	1
 1044              		.p2align 4,,15
 1045              		.global	TIM_OC1Init
 1046              		.syntax unified
 1047              		.thumb
 1048              		.thumb_func
 1049              		.fpu fpv4-sp-d16
 1050              		.type	TIM_OC1Init, %function
 1051              	TIM_OC1Init:
 1052              	.LVL72:
 1053              	.LFB127:
 1054              		.loc 1 678 1 is_stmt 1 view -0
 1055              		.cfi_startproc
 1056              		@ args = 0, pretend = 0, frame = 0
 1057              		@ frame_needed = 0, uses_anonymous_args = 0
 1058              		@ link register save eliminated.
 1059              		.loc 1 679 3 view .LVU275
 1060              		.loc 1 682 3 view .LVU276
 1061              		.loc 1 683 3 view .LVU277
 1062              		.loc 1 684 3 view .LVU278
 1063              		.loc 1 685 3 view .LVU279
 1064              		.loc 1 688 3 view .LVU280
 1065              		.loc 1 688 14 is_stmt 0 view .LVU281
 1066 0000 036A     		ldr	r3, [r0, #32]
 1067 0002 4FF6FE72 		movw	r2, #65534
 1068 0006 1340     		ands	r3, r3, r2
 1069 0008 0362     		str	r3, [r0, #32]
 1070              		.loc 1 691 3 is_stmt 1 view .LVU282
 1071              		.loc 1 678 1 is_stmt 0 view .LVU283
 1072 000a F0B4     		push	{r4, r5, r6, r7}
 1073              		.cfi_def_cfa_offset 16
 1074              		.cfi_offset 4, -16
 1075              		.cfi_offset 5, -12
 1076              		.cfi_offset 6, -8
 1077              		.cfi_offset 7, -4
 1078              		.loc 1 691 17 view .LVU284
 1079 000c D0F820C0 		ldr	ip, [r0, #32]
 1080              	.LVL73:
 1081              		.loc 1 693 3 is_stmt 1 view .LVU285
 1082              		.loc 1 710 11 is_stmt 0 view .LVU286
 1083 0010 8A89     		ldrh	r2, [r1, #12]
ARM GAS  C:\Users\USER\AppData\Local\Temp\ccNdlOSb.s 			page 20


 1084 0012 4F88     		ldrh	r7, [r1, #2]
 1085              		.loc 1 693 17 view .LVU287
 1086 0014 4368     		ldr	r3, [r0, #4]
 1087              		.loc 1 696 18 view .LVU288
 1088 0016 8569     		ldr	r5, [r0, #24]
 1089              		.loc 1 712 5 view .LVU289
 1090 0018 144E     		ldr	r6, .L74
 1091              		.loc 1 705 11 view .LVU290
 1092 001a 4FF6FD74 		movw	r4, #65533
 1093              		.loc 1 710 11 view .LVU291
 1094 001e 3A43     		orrs	r2, r2, r7
 1095              		.loc 1 705 11 view .LVU292
 1096 0020 0CEA0404 		and	r4, ip, r4
 1097              		.loc 1 710 11 view .LVU293
 1098 0024 1443     		orrs	r4, r4, r2
 1099              		.loc 1 700 12 view .LVU294
 1100 0026 4FF68C72 		movw	r2, #65420
 1101 002a 2A40     		ands	r2, r2, r5
 1102              		.loc 1 702 12 view .LVU295
 1103 002c 0D88     		ldrh	r5, [r1]
 1104              		.loc 1 712 5 view .LVU296
 1105 002e B042     		cmp	r0, r6
 1106              		.loc 1 693 10 view .LVU297
 1107 0030 9BB2     		uxth	r3, r3
 1108              	.LVL74:
 1109              		.loc 1 696 3 is_stmt 1 view .LVU298
 1110              		.loc 1 699 3 view .LVU299
 1111              		.loc 1 700 3 view .LVU300
 1112              		.loc 1 702 3 view .LVU301
 1113              		.loc 1 702 12 is_stmt 0 view .LVU302
 1114 0032 42EA0502 		orr	r2, r2, r5
 1115              	.LVL75:
 1116              		.loc 1 705 3 is_stmt 1 view .LVU303
 1117              		.loc 1 707 3 view .LVU304
 1118              		.loc 1 710 3 view .LVU305
 1119              		.loc 1 712 3 view .LVU306
 1120              		.loc 1 712 5 is_stmt 0 view .LVU307
 1121 0036 0AD0     		beq	.L71
 1122              		.loc 1 712 21 discriminator 1 view .LVU308
 1123 0038 06F58066 		add	r6, r6, #1024
 1124 003c B042     		cmp	r0, r6
 1125 003e 06D0     		beq	.L71
 1126              	.L72:
 1127              		.loc 1 737 3 is_stmt 1 view .LVU309
 1128              		.loc 1 743 32 is_stmt 0 view .LVU310
 1129 0040 8968     		ldr	r1, [r1, #8]
 1130              	.LVL76:
 1131              		.loc 1 737 13 view .LVU311
 1132 0042 4360     		str	r3, [r0, #4]
 1133              		.loc 1 740 3 is_stmt 1 view .LVU312
 1134              		.loc 1 740 15 is_stmt 0 view .LVU313
 1135 0044 8261     		str	r2, [r0, #24]
 1136              		.loc 1 743 3 is_stmt 1 view .LVU314
 1137              		.loc 1 743 14 is_stmt 0 view .LVU315
 1138 0046 4163     		str	r1, [r0, #52]
 1139              		.loc 1 746 3 is_stmt 1 view .LVU316
 1140              		.loc 1 746 14 is_stmt 0 view .LVU317
ARM GAS  C:\Users\USER\AppData\Local\Temp\ccNdlOSb.s 			page 21


 1141 0048 0462     		str	r4, [r0, #32]
 1142              		.loc 1 747 1 view .LVU318
 1143 004a F0BC     		pop	{r4, r5, r6, r7}
 1144              		.cfi_remember_state
 1145              		.cfi_restore 7
 1146              		.cfi_restore 6
 1147              		.cfi_restore 5
 1148              		.cfi_restore 4
 1149              		.cfi_def_cfa_offset 0
 1150              	.LVL77:
 1151              		.loc 1 747 1 view .LVU319
 1152 004c 7047     		bx	lr
 1153              	.LVL78:
 1154              	.L71:
 1155              		.cfi_restore_state
 1156              		.loc 1 714 5 is_stmt 1 view .LVU320
 1157              		.loc 1 715 5 view .LVU321
 1158              		.loc 1 716 5 view .LVU322
 1159              		.loc 1 717 5 view .LVU323
 1160              		.loc 1 720 5 view .LVU324
 1161              		.loc 1 722 13 is_stmt 0 view .LVU325
 1162 004e CE89     		ldrh	r6, [r1, #14]
 1163              		.loc 1 734 12 view .LVU326
 1164 0050 0D8A     		ldrh	r5, [r1, #16]
 1165 0052 4F8A     		ldrh	r7, [r1, #18]
 1166              		.loc 1 720 13 view .LVU327
 1167 0054 24F00804 		bic	r4, r4, #8
 1168              	.LVL79:
 1169              		.loc 1 722 5 is_stmt 1 view .LVU328
 1170              		.loc 1 722 13 is_stmt 0 view .LVU329
 1171 0058 3443     		orrs	r4, r4, r6
 1172              	.LVL80:
 1173              		.loc 1 724 5 is_stmt 1 view .LVU330
 1174              		.loc 1 727 13 is_stmt 0 view .LVU331
 1175 005a 8E88     		ldrh	r6, [r1, #4]
 1176              		.loc 1 730 12 view .LVU332
 1177 005c 23F44073 		bic	r3, r3, #768
 1178              	.LVL81:
 1179              		.loc 1 724 13 view .LVU333
 1180 0060 24F00404 		bic	r4, r4, #4
 1181              	.LVL82:
 1182              		.loc 1 727 5 is_stmt 1 view .LVU334
 1183              		.loc 1 734 12 is_stmt 0 view .LVU335
 1184 0064 3D43     		orrs	r5, r5, r7
 1185              		.loc 1 727 13 view .LVU336
 1186 0066 3443     		orrs	r4, r4, r6
 1187              	.LVL83:
 1188              		.loc 1 729 5 is_stmt 1 view .LVU337
 1189              		.loc 1 730 5 view .LVU338
 1190              		.loc 1 732 5 view .LVU339
 1191              		.loc 1 734 5 view .LVU340
 1192              		.loc 1 734 12 is_stmt 0 view .LVU341
 1193 0068 2B43     		orrs	r3, r3, r5
 1194              	.LVL84:
 1195              		.loc 1 734 12 view .LVU342
 1196 006a E9E7     		b	.L72
 1197              	.L75:
ARM GAS  C:\Users\USER\AppData\Local\Temp\ccNdlOSb.s 			page 22


 1198              		.align	2
 1199              	.L74:
 1200 006c 00000140 		.word	1073807360
 1201              		.cfi_endproc
 1202              	.LFE127:
 1203              		.size	TIM_OC1Init, .-TIM_OC1Init
 1204              		.section	.text.TIM_OC2Init,"ax",%progbits
 1205              		.align	1
 1206              		.p2align 4,,15
 1207              		.global	TIM_OC2Init
 1208              		.syntax unified
 1209              		.thumb
 1210              		.thumb_func
 1211              		.fpu fpv4-sp-d16
 1212              		.type	TIM_OC2Init, %function
 1213              	TIM_OC2Init:
 1214              	.LVL85:
 1215              	.LFB128:
 1216              		.loc 1 759 1 is_stmt 1 view -0
 1217              		.cfi_startproc
 1218              		@ args = 0, pretend = 0, frame = 0
 1219              		@ frame_needed = 0, uses_anonymous_args = 0
 1220              		@ link register save eliminated.
 1221              		.loc 1 760 3 view .LVU344
 1222              		.loc 1 763 3 view .LVU345
 1223              		.loc 1 764 3 view .LVU346
 1224              		.loc 1 765 3 view .LVU347
 1225              		.loc 1 766 3 view .LVU348
 1226              		.loc 1 769 3 view .LVU349
 1227              		.loc 1 769 14 is_stmt 0 view .LVU350
 1228 0000 036A     		ldr	r3, [r0, #32]
 1229 0002 4FF6EF72 		movw	r2, #65519
 1230 0006 1340     		ands	r3, r3, r2
 1231 0008 0362     		str	r3, [r0, #32]
 1232              		.loc 1 772 3 is_stmt 1 view .LVU351
 1233              		.loc 1 759 1 is_stmt 0 view .LVU352
 1234 000a F0B4     		push	{r4, r5, r6, r7}
 1235              		.cfi_def_cfa_offset 16
 1236              		.cfi_offset 4, -16
 1237              		.cfi_offset 5, -12
 1238              		.cfi_offset 6, -8
 1239              		.cfi_offset 7, -4
 1240              		.loc 1 772 17 view .LVU353
 1241 000c D0F820C0 		ldr	ip, [r0, #32]
 1242              	.LVL86:
 1243              		.loc 1 774 3 is_stmt 1 view .LVU354
 1244              		.loc 1 789 14 is_stmt 0 view .LVU355
 1245 0010 8A89     		ldrh	r2, [r1, #12]
 1246              		.loc 1 792 14 view .LVU356
 1247 0012 4F88     		ldrh	r7, [r1, #2]
 1248              		.loc 1 774 17 view .LVU357
 1249 0014 4468     		ldr	r4, [r0, #4]
 1250              		.loc 1 777 18 view .LVU358
 1251 0016 8669     		ldr	r6, [r0, #24]
 1252              		.loc 1 794 5 view .LVU359
 1253 0018 194D     		ldr	r5, .L80
 1254              		.loc 1 787 11 view .LVU360
ARM GAS  C:\Users\USER\AppData\Local\Temp\ccNdlOSb.s 			page 23


 1255 001a 4FF6DF73 		movw	r3, #65503
 1256              		.loc 1 792 11 view .LVU361
 1257 001e 3A43     		orrs	r2, r2, r7
 1258              		.loc 1 787 11 view .LVU362
 1259 0020 0CEA0303 		and	r3, ip, r3
 1260              		.loc 1 792 11 view .LVU363
 1261 0024 43EA0213 		orr	r3, r3, r2, lsl #4
 1262              		.loc 1 781 12 view .LVU364
 1263 0028 48F6FF42 		movw	r2, #36095
 1264 002c 3240     		ands	r2, r2, r6
 1265              		.loc 1 784 15 view .LVU365
 1266 002e 0E88     		ldrh	r6, [r1]
 1267              		.loc 1 794 5 view .LVU366
 1268 0030 A842     		cmp	r0, r5
 1269              		.loc 1 784 12 view .LVU367
 1270 0032 42EA0622 		orr	r2, r2, r6, lsl #8
 1271              		.loc 1 792 11 view .LVU368
 1272 0036 9BB2     		uxth	r3, r3
 1273              		.loc 1 774 10 view .LVU369
 1274 0038 A4B2     		uxth	r4, r4
 1275              	.LVL87:
 1276              		.loc 1 777 3 is_stmt 1 view .LVU370
 1277              		.loc 1 780 3 view .LVU371
 1278              		.loc 1 781 3 view .LVU372
 1279              		.loc 1 784 3 view .LVU373
 1280              		.loc 1 784 12 is_stmt 0 view .LVU374
 1281 003a 92B2     		uxth	r2, r2
 1282              	.LVL88:
 1283              		.loc 1 787 3 is_stmt 1 view .LVU375
 1284              		.loc 1 789 3 view .LVU376
 1285              		.loc 1 792 3 view .LVU377
 1286              		.loc 1 794 3 view .LVU378
 1287              		.loc 1 794 5 is_stmt 0 view .LVU379
 1288 003c 0AD0     		beq	.L77
 1289              		.loc 1 794 21 discriminator 1 view .LVU380
 1290 003e 05F58065 		add	r5, r5, #1024
 1291 0042 A842     		cmp	r0, r5
 1292 0044 06D0     		beq	.L77
 1293              	.L78:
 1294              		.loc 1 819 3 is_stmt 1 view .LVU381
 1295              		.loc 1 825 32 is_stmt 0 view .LVU382
 1296 0046 8968     		ldr	r1, [r1, #8]
 1297              	.LVL89:
 1298              		.loc 1 819 13 view .LVU383
 1299 0048 4460     		str	r4, [r0, #4]
 1300              		.loc 1 822 3 is_stmt 1 view .LVU384
 1301              		.loc 1 822 15 is_stmt 0 view .LVU385
 1302 004a 8261     		str	r2, [r0, #24]
 1303              		.loc 1 825 3 is_stmt 1 view .LVU386
 1304              		.loc 1 829 1 is_stmt 0 view .LVU387
 1305 004c F0BC     		pop	{r4, r5, r6, r7}
 1306              		.cfi_remember_state
 1307              		.cfi_restore 7
 1308              		.cfi_restore 6
 1309              		.cfi_restore 5
 1310              		.cfi_restore 4
 1311              		.cfi_def_cfa_offset 0
ARM GAS  C:\Users\USER\AppData\Local\Temp\ccNdlOSb.s 			page 24


 1312              	.LVL90:
 1313              		.loc 1 825 14 view .LVU388
 1314 004e 8163     		str	r1, [r0, #56]
 1315              		.loc 1 828 3 is_stmt 1 view .LVU389
 1316              		.loc 1 828 14 is_stmt 0 view .LVU390
 1317 0050 0362     		str	r3, [r0, #32]
 1318              		.loc 1 829 1 view .LVU391
 1319 0052 7047     		bx	lr
 1320              	.LVL91:
 1321              	.L77:
 1322              		.cfi_restore_state
 1323              		.loc 1 796 5 is_stmt 1 view .LVU392
 1324              		.loc 1 797 5 view .LVU393
 1325              		.loc 1 798 5 view .LVU394
 1326              		.loc 1 799 5 view .LVU395
 1327              		.loc 1 802 5 view .LVU396
 1328              		.loc 1 804 16 is_stmt 0 view .LVU397
 1329 0054 CD89     		ldrh	r5, [r1, #14]
 1330              		.loc 1 814 15 view .LVU398
 1331 0056 0E8A     		ldrh	r6, [r1, #16]
 1332              		.loc 1 816 15 view .LVU399
 1333 0058 4F8A     		ldrh	r7, [r1, #18]
 1334              		.loc 1 802 13 view .LVU400
 1335 005a 23F08003 		bic	r3, r3, #128
 1336              	.LVL92:
 1337              		.loc 1 804 5 is_stmt 1 view .LVU401
 1338              		.loc 1 804 13 is_stmt 0 view .LVU402
 1339 005e 43EA0513 		orr	r3, r3, r5, lsl #4
 1340              	.LVL93:
 1341              		.loc 1 806 5 is_stmt 1 view .LVU403
 1342              		.loc 1 806 13 is_stmt 0 view .LVU404
 1343 0062 4FF6BF75 		movw	r5, #65471
 1344 0066 1D40     		ands	r5, r5, r3
 1345              	.LVL94:
 1346              		.loc 1 809 5 is_stmt 1 view .LVU405
 1347              		.loc 1 809 16 is_stmt 0 view .LVU406
 1348 0068 8B88     		ldrh	r3, [r1, #4]
 1349              		.loc 1 812 12 view .LVU407
 1350 006a 24F44064 		bic	r4, r4, #3072
 1351              	.LVL95:
 1352              		.loc 1 816 12 view .LVU408
 1353 006e 3E43     		orrs	r6, r6, r7
 1354              		.loc 1 809 13 view .LVU409
 1355 0070 45EA0313 		orr	r3, r5, r3, lsl #4
 1356              		.loc 1 816 12 view .LVU410
 1357 0074 44EA8604 		orr	r4, r4, r6, lsl #2
 1358              		.loc 1 809 13 view .LVU411
 1359 0078 9BB2     		uxth	r3, r3
 1360              	.LVL96:
 1361              		.loc 1 811 5 is_stmt 1 view .LVU412
 1362              		.loc 1 812 5 view .LVU413
 1363              		.loc 1 814 5 view .LVU414
 1364              		.loc 1 816 5 view .LVU415
 1365              		.loc 1 816 12 is_stmt 0 view .LVU416
 1366 007a A4B2     		uxth	r4, r4
 1367              	.LVL97:
 1368              		.loc 1 816 12 view .LVU417
ARM GAS  C:\Users\USER\AppData\Local\Temp\ccNdlOSb.s 			page 25


 1369 007c E3E7     		b	.L78
 1370              	.L81:
 1371 007e 00BF     		.align	2
 1372              	.L80:
 1373 0080 00000140 		.word	1073807360
 1374              		.cfi_endproc
 1375              	.LFE128:
 1376              		.size	TIM_OC2Init, .-TIM_OC2Init
 1377              		.section	.text.TIM_OC3Init,"ax",%progbits
 1378              		.align	1
 1379              		.p2align 4,,15
 1380              		.global	TIM_OC3Init
 1381              		.syntax unified
 1382              		.thumb
 1383              		.thumb_func
 1384              		.fpu fpv4-sp-d16
 1385              		.type	TIM_OC3Init, %function
 1386              	TIM_OC3Init:
 1387              	.LVL98:
 1388              	.LFB129:
 1389              		.loc 1 840 1 is_stmt 1 view -0
 1390              		.cfi_startproc
 1391              		@ args = 0, pretend = 0, frame = 0
 1392              		@ frame_needed = 0, uses_anonymous_args = 0
 1393              		@ link register save eliminated.
 1394              		.loc 1 841 3 view .LVU419
 1395              		.loc 1 844 3 view .LVU420
 1396              		.loc 1 845 3 view .LVU421
 1397              		.loc 1 846 3 view .LVU422
 1398              		.loc 1 847 3 view .LVU423
 1399              		.loc 1 850 3 view .LVU424
 1400              		.loc 1 850 14 is_stmt 0 view .LVU425
 1401 0000 036A     		ldr	r3, [r0, #32]
 1402 0002 4FF6FF62 		movw	r2, #65279
 1403 0006 1340     		ands	r3, r3, r2
 1404 0008 0362     		str	r3, [r0, #32]
 1405              		.loc 1 853 3 is_stmt 1 view .LVU426
 1406              		.loc 1 840 1 is_stmt 0 view .LVU427
 1407 000a F0B4     		push	{r4, r5, r6, r7}
 1408              		.cfi_def_cfa_offset 16
 1409              		.cfi_offset 4, -16
 1410              		.cfi_offset 5, -12
 1411              		.cfi_offset 6, -8
 1412              		.cfi_offset 7, -4
 1413              		.loc 1 872 14 view .LVU428
 1414 000c 4A88     		ldrh	r2, [r1, #2]
 1415              		.loc 1 853 17 view .LVU429
 1416 000e 076A     		ldr	r7, [r0, #32]
 1417              	.LVL99:
 1418              		.loc 1 855 3 is_stmt 1 view .LVU430
 1419              		.loc 1 869 14 is_stmt 0 view .LVU431
 1420 0010 8C89     		ldrh	r4, [r1, #12]
 1421              		.loc 1 855 17 view .LVU432
 1422 0012 4568     		ldr	r5, [r0, #4]
 1423              		.loc 1 874 5 view .LVU433
 1424 0014 194E     		ldr	r6, .L86
 1425              		.loc 1 858 18 view .LVU434
ARM GAS  C:\Users\USER\AppData\Local\Temp\ccNdlOSb.s 			page 26


 1426 0016 D0F81CC0 		ldr	ip, [r0, #28]
 1427              		.loc 1 867 11 view .LVU435
 1428 001a 4FF6FF53 		movw	r3, #65023
 1429 001e 3B40     		ands	r3, r3, r7
 1430              		.loc 1 872 11 view .LVU436
 1431 0020 1443     		orrs	r4, r4, r2
 1432              		.loc 1 864 12 view .LVU437
 1433 0022 0F88     		ldrh	r7, [r1]
 1434              	.LVL100:
 1435              		.loc 1 862 12 view .LVU438
 1436 0024 4FF68C72 		movw	r2, #65420
 1437              		.loc 1 872 11 view .LVU439
 1438 0028 43EA0423 		orr	r3, r3, r4, lsl #8
 1439              		.loc 1 862 12 view .LVU440
 1440 002c 0CEA0202 		and	r2, ip, r2
 1441              		.loc 1 874 5 view .LVU441
 1442 0030 B042     		cmp	r0, r6
 1443              		.loc 1 872 11 view .LVU442
 1444 0032 9BB2     		uxth	r3, r3
 1445              		.loc 1 855 10 view .LVU443
 1446 0034 ADB2     		uxth	r5, r5
 1447              	.LVL101:
 1448              		.loc 1 858 3 is_stmt 1 view .LVU444
 1449              		.loc 1 861 3 view .LVU445
 1450              		.loc 1 862 3 view .LVU446
 1451              		.loc 1 864 3 view .LVU447
 1452              		.loc 1 864 12 is_stmt 0 view .LVU448
 1453 0036 42EA0702 		orr	r2, r2, r7
 1454              	.LVL102:
 1455              		.loc 1 867 3 is_stmt 1 view .LVU449
 1456              		.loc 1 869 3 view .LVU450
 1457              		.loc 1 872 3 view .LVU451
 1458              		.loc 1 874 3 view .LVU452
 1459              		.loc 1 874 5 is_stmt 0 view .LVU453
 1460 003a 09D0     		beq	.L83
 1461              		.loc 1 874 21 discriminator 1 view .LVU454
 1462 003c 104C     		ldr	r4, .L86+4
 1463 003e A042     		cmp	r0, r4
 1464 0040 06D0     		beq	.L83
 1465              	.L84:
 1466              		.loc 1 899 3 is_stmt 1 view .LVU455
 1467              		.loc 1 905 32 is_stmt 0 view .LVU456
 1468 0042 8968     		ldr	r1, [r1, #8]
 1469              	.LVL103:
 1470              		.loc 1 899 13 view .LVU457
 1471 0044 4560     		str	r5, [r0, #4]
 1472              		.loc 1 902 3 is_stmt 1 view .LVU458
 1473              		.loc 1 902 15 is_stmt 0 view .LVU459
 1474 0046 C261     		str	r2, [r0, #28]
 1475              		.loc 1 905 3 is_stmt 1 view .LVU460
 1476              		.loc 1 909 1 is_stmt 0 view .LVU461
 1477 0048 F0BC     		pop	{r4, r5, r6, r7}
 1478              		.cfi_remember_state
 1479              		.cfi_restore 7
 1480              		.cfi_restore 6
 1481              		.cfi_restore 5
 1482              		.cfi_restore 4
ARM GAS  C:\Users\USER\AppData\Local\Temp\ccNdlOSb.s 			page 27


 1483              		.cfi_def_cfa_offset 0
 1484              	.LVL104:
 1485              		.loc 1 905 14 view .LVU462
 1486 004a C163     		str	r1, [r0, #60]
 1487              		.loc 1 908 3 is_stmt 1 view .LVU463
 1488              		.loc 1 908 14 is_stmt 0 view .LVU464
 1489 004c 0362     		str	r3, [r0, #32]
 1490              		.loc 1 909 1 view .LVU465
 1491 004e 7047     		bx	lr
 1492              	.LVL105:
 1493              	.L83:
 1494              		.cfi_restore_state
 1495              		.loc 1 876 5 is_stmt 1 view .LVU466
 1496              		.loc 1 877 5 view .LVU467
 1497              		.loc 1 878 5 view .LVU468
 1498              		.loc 1 879 5 view .LVU469
 1499              		.loc 1 882 5 view .LVU470
 1500              		.loc 1 884 16 is_stmt 0 view .LVU471
 1501 0050 CC89     		ldrh	r4, [r1, #14]
 1502              		.loc 1 894 15 view .LVU472
 1503 0052 0E8A     		ldrh	r6, [r1, #16]
 1504              		.loc 1 896 15 view .LVU473
 1505 0054 4F8A     		ldrh	r7, [r1, #18]
 1506              		.loc 1 882 13 view .LVU474
 1507 0056 23F40063 		bic	r3, r3, #2048
 1508              	.LVL106:
 1509              		.loc 1 884 5 is_stmt 1 view .LVU475
 1510              		.loc 1 884 13 is_stmt 0 view .LVU476
 1511 005a 43EA0423 		orr	r3, r3, r4, lsl #8
 1512              	.LVL107:
 1513              		.loc 1 886 5 is_stmt 1 view .LVU477
 1514              		.loc 1 886 13 is_stmt 0 view .LVU478
 1515 005e 4FF6FF34 		movw	r4, #64511
 1516 0062 1C40     		ands	r4, r4, r3
 1517              	.LVL108:
 1518              		.loc 1 889 5 is_stmt 1 view .LVU479
 1519              		.loc 1 889 16 is_stmt 0 view .LVU480
 1520 0064 8B88     		ldrh	r3, [r1, #4]
 1521              		.loc 1 892 12 view .LVU481
 1522 0066 25F44055 		bic	r5, r5, #12288
 1523              	.LVL109:
 1524              		.loc 1 896 12 view .LVU482
 1525 006a 3E43     		orrs	r6, r6, r7
 1526              		.loc 1 889 13 view .LVU483
 1527 006c 44EA0323 		orr	r3, r4, r3, lsl #8
 1528              		.loc 1 896 12 view .LVU484
 1529 0070 45EA0614 		orr	r4, r5, r6, lsl #4
 1530              	.LVL110:
 1531              		.loc 1 889 13 view .LVU485
 1532 0074 9BB2     		uxth	r3, r3
 1533              	.LVL111:
 1534              		.loc 1 891 5 is_stmt 1 view .LVU486
 1535              		.loc 1 892 5 view .LVU487
 1536              		.loc 1 894 5 view .LVU488
 1537              		.loc 1 896 5 view .LVU489
 1538              		.loc 1 896 12 is_stmt 0 view .LVU490
 1539 0076 A5B2     		uxth	r5, r4
ARM GAS  C:\Users\USER\AppData\Local\Temp\ccNdlOSb.s 			page 28


 1540              	.LVL112:
 1541              		.loc 1 896 12 view .LVU491
 1542 0078 E3E7     		b	.L84
 1543              	.L87:
 1544 007a 00BF     		.align	2
 1545              	.L86:
 1546 007c 00000140 		.word	1073807360
 1547 0080 00040140 		.word	1073808384
 1548              		.cfi_endproc
 1549              	.LFE129:
 1550              		.size	TIM_OC3Init, .-TIM_OC3Init
 1551              		.section	.text.TIM_OC4Init,"ax",%progbits
 1552              		.align	1
 1553              		.p2align 4,,15
 1554              		.global	TIM_OC4Init
 1555              		.syntax unified
 1556              		.thumb
 1557              		.thumb_func
 1558              		.fpu fpv4-sp-d16
 1559              		.type	TIM_OC4Init, %function
 1560              	TIM_OC4Init:
 1561              	.LVL113:
 1562              	.LFB130:
 1563              		.loc 1 920 1 is_stmt 1 view -0
 1564              		.cfi_startproc
 1565              		@ args = 0, pretend = 0, frame = 0
 1566              		@ frame_needed = 0, uses_anonymous_args = 0
 1567              		@ link register save eliminated.
 1568              		.loc 1 921 3 view .LVU493
 1569              		.loc 1 924 3 view .LVU494
 1570              		.loc 1 925 3 view .LVU495
 1571              		.loc 1 926 3 view .LVU496
 1572              		.loc 1 927 3 view .LVU497
 1573              		.loc 1 930 3 view .LVU498
 1574              		.loc 1 930 14 is_stmt 0 view .LVU499
 1575 0000 036A     		ldr	r3, [r0, #32]
 1576 0002 4EF6FF72 		movw	r2, #61439
 1577 0006 1340     		ands	r3, r3, r2
 1578 0008 0362     		str	r3, [r0, #32]
 1579              		.loc 1 933 3 is_stmt 1 view .LVU500
 1580              		.loc 1 920 1 is_stmt 0 view .LVU501
 1581 000a F0B4     		push	{r4, r5, r6, r7}
 1582              		.cfi_def_cfa_offset 16
 1583              		.cfi_offset 4, -16
 1584              		.cfi_offset 5, -12
 1585              		.cfi_offset 6, -8
 1586              		.cfi_offset 7, -4
 1587              		.loc 1 933 17 view .LVU502
 1588 000c D0F820C0 		ldr	ip, [r0, #32]
 1589              	.LVL114:
 1590              		.loc 1 935 3 is_stmt 1 view .LVU503
 1591              		.loc 1 950 14 is_stmt 0 view .LVU504
 1592 0010 8A89     		ldrh	r2, [r1, #12]
 1593              		.loc 1 953 14 view .LVU505
 1594 0012 4F88     		ldrh	r7, [r1, #2]
 1595              		.loc 1 935 17 view .LVU506
 1596 0014 4468     		ldr	r4, [r0, #4]
ARM GAS  C:\Users\USER\AppData\Local\Temp\ccNdlOSb.s 			page 29


 1597              		.loc 1 938 18 view .LVU507
 1598 0016 C669     		ldr	r6, [r0, #28]
 1599              		.loc 1 955 5 view .LVU508
 1600 0018 124D     		ldr	r5, .L92
 1601              		.loc 1 948 11 view .LVU509
 1602 001a 4DF6FF73 		movw	r3, #57343
 1603              		.loc 1 953 11 view .LVU510
 1604 001e 3A43     		orrs	r2, r2, r7
 1605              		.loc 1 948 11 view .LVU511
 1606 0020 0CEA0303 		and	r3, ip, r3
 1607              		.loc 1 953 11 view .LVU512
 1608 0024 43EA0233 		orr	r3, r3, r2, lsl #12
 1609              		.loc 1 942 12 view .LVU513
 1610 0028 48F6FF42 		movw	r2, #36095
 1611 002c 3240     		ands	r2, r2, r6
 1612              		.loc 1 945 15 view .LVU514
 1613 002e 0E88     		ldrh	r6, [r1]
 1614              		.loc 1 955 5 view .LVU515
 1615 0030 A842     		cmp	r0, r5
 1616              		.loc 1 945 12 view .LVU516
 1617 0032 42EA0622 		orr	r2, r2, r6, lsl #8
 1618              		.loc 1 953 11 view .LVU517
 1619 0036 9BB2     		uxth	r3, r3
 1620              		.loc 1 935 10 view .LVU518
 1621 0038 A4B2     		uxth	r4, r4
 1622              	.LVL115:
 1623              		.loc 1 938 3 is_stmt 1 view .LVU519
 1624              		.loc 1 941 3 view .LVU520
 1625              		.loc 1 942 3 view .LVU521
 1626              		.loc 1 945 3 view .LVU522
 1627              		.loc 1 945 12 is_stmt 0 view .LVU523
 1628 003a 92B2     		uxth	r2, r2
 1629              	.LVL116:
 1630              		.loc 1 948 3 is_stmt 1 view .LVU524
 1631              		.loc 1 950 3 view .LVU525
 1632              		.loc 1 953 3 view .LVU526
 1633              		.loc 1 955 3 view .LVU527
 1634              		.loc 1 955 5 is_stmt 0 view .LVU528
 1635 003c 0AD0     		beq	.L89
 1636              		.loc 1 955 21 discriminator 1 view .LVU529
 1637 003e 05F58065 		add	r5, r5, #1024
 1638 0042 A842     		cmp	r0, r5
 1639 0044 06D0     		beq	.L89
 1640              	.L90:
 1641              		.loc 1 964 3 is_stmt 1 view .LVU530
 1642              		.loc 1 970 32 is_stmt 0 view .LVU531
 1643 0046 8968     		ldr	r1, [r1, #8]
 1644              	.LVL117:
 1645              		.loc 1 964 13 view .LVU532
 1646 0048 4460     		str	r4, [r0, #4]
 1647              		.loc 1 967 3 is_stmt 1 view .LVU533
 1648              		.loc 1 967 15 is_stmt 0 view .LVU534
 1649 004a C261     		str	r2, [r0, #28]
 1650              		.loc 1 970 3 is_stmt 1 view .LVU535
 1651              		.loc 1 974 1 is_stmt 0 view .LVU536
 1652 004c F0BC     		pop	{r4, r5, r6, r7}
 1653              		.cfi_remember_state
ARM GAS  C:\Users\USER\AppData\Local\Temp\ccNdlOSb.s 			page 30


 1654              		.cfi_restore 7
 1655              		.cfi_restore 6
 1656              		.cfi_restore 5
 1657              		.cfi_restore 4
 1658              		.cfi_def_cfa_offset 0
 1659              	.LVL118:
 1660              		.loc 1 970 14 view .LVU537
 1661 004e 0164     		str	r1, [r0, #64]
 1662              		.loc 1 973 3 is_stmt 1 view .LVU538
 1663              		.loc 1 973 14 is_stmt 0 view .LVU539
 1664 0050 0362     		str	r3, [r0, #32]
 1665              		.loc 1 974 1 view .LVU540
 1666 0052 7047     		bx	lr
 1667              	.LVL119:
 1668              	.L89:
 1669              		.cfi_restore_state
 1670              		.loc 1 957 5 is_stmt 1 view .LVU541
 1671              		.loc 1 959 5 view .LVU542
 1672              		.loc 1 961 15 is_stmt 0 view .LVU543
 1673 0054 0D8A     		ldrh	r5, [r1, #16]
 1674              		.loc 1 959 12 view .LVU544
 1675 0056 24F48044 		bic	r4, r4, #16384
 1676              	.LVL120:
 1677              		.loc 1 961 5 is_stmt 1 view .LVU545
 1678              		.loc 1 961 12 is_stmt 0 view .LVU546
 1679 005a 44EA8514 		orr	r4, r4, r5, lsl #6
 1680              	.LVL121:
 1681              		.loc 1 961 12 view .LVU547
 1682 005e A4B2     		uxth	r4, r4
 1683              	.LVL122:
 1684              		.loc 1 961 12 view .LVU548
 1685 0060 F1E7     		b	.L90
 1686              	.L93:
 1687 0062 00BF     		.align	2
 1688              	.L92:
 1689 0064 00000140 		.word	1073807360
 1690              		.cfi_endproc
 1691              	.LFE130:
 1692              		.size	TIM_OC4Init, .-TIM_OC4Init
 1693              		.section	.text.TIM_OCStructInit,"ax",%progbits
 1694              		.align	1
 1695              		.p2align 4,,15
 1696              		.global	TIM_OCStructInit
 1697              		.syntax unified
 1698              		.thumb
 1699              		.thumb_func
 1700              		.fpu fpv4-sp-d16
 1701              		.type	TIM_OCStructInit, %function
 1702              	TIM_OCStructInit:
 1703              	.LVL123:
 1704              	.LFB131:
 1705              		.loc 1 983 1 is_stmt 1 view -0
 1706              		.cfi_startproc
 1707              		@ args = 0, pretend = 0, frame = 0
 1708              		@ frame_needed = 0, uses_anonymous_args = 0
 1709              		@ link register save eliminated.
 1710              		.loc 1 985 3 view .LVU550
ARM GAS  C:\Users\USER\AppData\Local\Temp\ccNdlOSb.s 			page 31


 1711              		.loc 1 986 3 view .LVU551
 1712              		.loc 1 987 3 view .LVU552
 1713              		.loc 1 985 32 is_stmt 0 view .LVU553
 1714 0000 0023     		movs	r3, #0
 1715 0002 0360     		str	r3, [r0]
 1716              		.loc 1 987 38 view .LVU554
 1717 0004 8380     		strh	r3, [r0, #4]	@ movhi
 1718              		.loc 1 988 3 is_stmt 1 view .LVU555
 1719              		.loc 1 989 3 view .LVU556
 1720              		.loc 1 990 3 view .LVU557
 1721              		.loc 1 991 3 view .LVU558
 1722              		.loc 1 992 3 view .LVU559
 1723              		.loc 1 989 36 is_stmt 0 view .LVU560
 1724 0006 C0E90233 		strd	r3, r3, [r0, #8]
 1725              		.loc 1 991 37 view .LVU561
 1726 000a 0361     		str	r3, [r0, #16]
 1727              		.loc 1 993 1 view .LVU562
 1728 000c 7047     		bx	lr
 1729              		.cfi_endproc
 1730              	.LFE131:
 1731              		.size	TIM_OCStructInit, .-TIM_OCStructInit
 1732 000e 00BF     		.section	.text.TIM_SelectOCxM,"ax",%progbits
 1733              		.align	1
 1734              		.p2align 4,,15
 1735              		.global	TIM_SelectOCxM
 1736              		.syntax unified
 1737              		.thumb
 1738              		.thumb_func
 1739              		.fpu fpv4-sp-d16
 1740              		.type	TIM_SelectOCxM, %function
 1741              	TIM_SelectOCxM:
 1742              	.LVL124:
 1743              	.LFB132:
 1744              		.loc 1 1019 1 is_stmt 1 view -0
 1745              		.cfi_startproc
 1746              		@ args = 0, pretend = 0, frame = 0
 1747              		@ frame_needed = 0, uses_anonymous_args = 0
 1748              		@ link register save eliminated.
 1749              		.loc 1 1020 3 view .LVU564
 1750              		.loc 1 1021 3 view .LVU565
 1751              		.loc 1 1024 3 view .LVU566
 1752              		.loc 1 1025 3 view .LVU567
 1753              		.loc 1 1026 3 view .LVU568
 1754              		.loc 1 1028 3 view .LVU569
 1755              		.loc 1 1029 3 view .LVU570
 1756              		.loc 1 1031 23 is_stmt 0 view .LVU571
 1757 0000 0123     		movs	r3, #1
 1758 0002 8B40     		lsls	r3, r3, r1
 1759              		.loc 1 1019 1 view .LVU572
 1760 0004 10B4     		push	{r4}
 1761              		.cfi_def_cfa_offset 4
 1762              		.cfi_offset 4, -4
 1763              		.loc 1 1034 17 view .LVU573
 1764 0006 DB43     		mvns	r3, r3
 1765              		.loc 1 1034 14 view .LVU574
 1766 0008 046A     		ldr	r4, [r0, #32]
 1767              		.loc 1 1034 17 view .LVU575
ARM GAS  C:\Users\USER\AppData\Local\Temp\ccNdlOSb.s 			page 32


 1768 000a 9BB2     		uxth	r3, r3
 1769              		.loc 1 1034 14 view .LVU576
 1770 000c 2340     		ands	r3, r3, r4
 1771              		.loc 1 1036 5 view .LVU577
 1772 000e 21F00804 		bic	r4, r1, #8
 1773              		.loc 1 1034 14 view .LVU578
 1774 0012 0362     		str	r3, [r0, #32]
 1775              		.loc 1 1029 7 view .LVU579
 1776 0014 1830     		adds	r0, r0, #24
 1777              	.LVL125:
 1778              		.loc 1 1031 3 is_stmt 1 view .LVU580
 1779              		.loc 1 1034 3 view .LVU581
 1780              		.loc 1 1036 3 view .LVU582
 1781              		.loc 1 1036 5 is_stmt 0 view .LVU583
 1782 0016 7CB1     		cbz	r4, .L99
 1783              		.loc 1 1048 5 is_stmt 1 view .LVU584
 1784              	.LVL126:
 1785              		.loc 1 1051 5 view .LVU585
 1786              		.loc 1 1048 12 is_stmt 0 view .LVU586
 1787 0018 0439     		subs	r1, r1, #4
 1788              	.LVL127:
 1789              		.loc 1 1048 49 view .LVU587
 1790 001a C1F34E01 		ubfx	r1, r1, #1, #15
 1791              		.loc 1 1051 28 view .LVU588
 1792 001e 48F6FF74 		movw	r4, #36863
 1793 0022 0B58     		ldr	r3, [r1, r0]
 1794 0024 2340     		ands	r3, r3, r4
 1795 0026 0B50     		str	r3, [r1, r0]
 1796              		.loc 1 1054 5 is_stmt 1 view .LVU589
 1797              		.loc 1 1054 31 is_stmt 0 view .LVU590
 1798 0028 1202     		lsls	r2, r2, #8
 1799              	.LVL128:
 1800              		.loc 1 1054 28 view .LVU591
 1801 002a 0B58     		ldr	r3, [r1, r0]
 1802              		.loc 1 1056 1 view .LVU592
 1803 002c 5DF8044B 		ldr	r4, [sp], #4
 1804              		.cfi_remember_state
 1805              		.cfi_restore 4
 1806              		.cfi_def_cfa_offset 0
 1807              		.loc 1 1054 31 view .LVU593
 1808 0030 92B2     		uxth	r2, r2
 1809              		.loc 1 1054 28 view .LVU594
 1810 0032 1A43     		orrs	r2, r2, r3
 1811 0034 0A50     		str	r2, [r1, r0]
 1812              		.loc 1 1056 1 view .LVU595
 1813 0036 7047     		bx	lr
 1814              	.LVL129:
 1815              	.L99:
 1816              		.cfi_restore_state
 1817              		.loc 1 1038 5 is_stmt 1 view .LVU596
 1818              		.loc 1 1041 5 view .LVU597
 1819              		.loc 1 1038 24 is_stmt 0 view .LVU598
 1820 0038 4908     		lsrs	r1, r1, #1
 1821              	.LVL130:
 1822              		.loc 1 1041 28 view .LVU599
 1823 003a 4FF68F74 		movw	r4, #65423
 1824 003e 0B58     		ldr	r3, [r1, r0]
ARM GAS  C:\Users\USER\AppData\Local\Temp\ccNdlOSb.s 			page 33


 1825 0040 2340     		ands	r3, r3, r4
 1826 0042 0B50     		str	r3, [r1, r0]
 1827              		.loc 1 1044 5 is_stmt 1 view .LVU600
 1828              		.loc 1 1044 28 is_stmt 0 view .LVU601
 1829 0044 0B58     		ldr	r3, [r1, r0]
 1830              		.loc 1 1056 1 view .LVU602
 1831 0046 5DF8044B 		ldr	r4, [sp], #4
 1832              		.cfi_restore 4
 1833              		.cfi_def_cfa_offset 0
 1834              		.loc 1 1044 28 view .LVU603
 1835 004a 1A43     		orrs	r2, r2, r3
 1836              	.LVL131:
 1837              		.loc 1 1044 28 view .LVU604
 1838 004c 0A50     		str	r2, [r1, r0]
 1839              		.loc 1 1056 1 view .LVU605
 1840 004e 7047     		bx	lr
 1841              		.cfi_endproc
 1842              	.LFE132:
 1843              		.size	TIM_SelectOCxM, .-TIM_SelectOCxM
 1844              		.section	.text.TIM_SetCompare1,"ax",%progbits
 1845              		.align	1
 1846              		.p2align 4,,15
 1847              		.global	TIM_SetCompare1
 1848              		.syntax unified
 1849              		.thumb
 1850              		.thumb_func
 1851              		.fpu fpv4-sp-d16
 1852              		.type	TIM_SetCompare1, %function
 1853              	TIM_SetCompare1:
 1854              	.LVL132:
 1855              	.LFB133:
 1856              		.loc 1 1065 1 is_stmt 1 view -0
 1857              		.cfi_startproc
 1858              		@ args = 0, pretend = 0, frame = 0
 1859              		@ frame_needed = 0, uses_anonymous_args = 0
 1860              		@ link register save eliminated.
 1861              		.loc 1 1067 3 view .LVU607
 1862              		.loc 1 1070 3 view .LVU608
 1863              		.loc 1 1070 14 is_stmt 0 view .LVU609
 1864 0000 4163     		str	r1, [r0, #52]
 1865              		.loc 1 1071 1 view .LVU610
 1866 0002 7047     		bx	lr
 1867              		.cfi_endproc
 1868              	.LFE133:
 1869              		.size	TIM_SetCompare1, .-TIM_SetCompare1
 1870              		.section	.text.TIM_SetCompare2,"ax",%progbits
 1871              		.align	1
 1872              		.p2align 4,,15
 1873              		.global	TIM_SetCompare2
 1874              		.syntax unified
 1875              		.thumb
 1876              		.thumb_func
 1877              		.fpu fpv4-sp-d16
 1878              		.type	TIM_SetCompare2, %function
 1879              	TIM_SetCompare2:
 1880              	.LVL133:
 1881              	.LFB134:
ARM GAS  C:\Users\USER\AppData\Local\Temp\ccNdlOSb.s 			page 34


 1882              		.loc 1 1081 1 is_stmt 1 view -0
 1883              		.cfi_startproc
 1884              		@ args = 0, pretend = 0, frame = 0
 1885              		@ frame_needed = 0, uses_anonymous_args = 0
 1886              		@ link register save eliminated.
 1887              		.loc 1 1083 3 view .LVU612
 1888              		.loc 1 1086 3 view .LVU613
 1889              		.loc 1 1086 14 is_stmt 0 view .LVU614
 1890 0000 8163     		str	r1, [r0, #56]
 1891              		.loc 1 1087 1 view .LVU615
 1892 0002 7047     		bx	lr
 1893              		.cfi_endproc
 1894              	.LFE134:
 1895              		.size	TIM_SetCompare2, .-TIM_SetCompare2
 1896              		.section	.text.TIM_SetCompare3,"ax",%progbits
 1897              		.align	1
 1898              		.p2align 4,,15
 1899              		.global	TIM_SetCompare3
 1900              		.syntax unified
 1901              		.thumb
 1902              		.thumb_func
 1903              		.fpu fpv4-sp-d16
 1904              		.type	TIM_SetCompare3, %function
 1905              	TIM_SetCompare3:
 1906              	.LVL134:
 1907              	.LFB135:
 1908              		.loc 1 1096 1 is_stmt 1 view -0
 1909              		.cfi_startproc
 1910              		@ args = 0, pretend = 0, frame = 0
 1911              		@ frame_needed = 0, uses_anonymous_args = 0
 1912              		@ link register save eliminated.
 1913              		.loc 1 1098 3 view .LVU617
 1914              		.loc 1 1101 3 view .LVU618
 1915              		.loc 1 1101 14 is_stmt 0 view .LVU619
 1916 0000 C163     		str	r1, [r0, #60]
 1917              		.loc 1 1102 1 view .LVU620
 1918 0002 7047     		bx	lr
 1919              		.cfi_endproc
 1920              	.LFE135:
 1921              		.size	TIM_SetCompare3, .-TIM_SetCompare3
 1922              		.section	.text.TIM_SetCompare4,"ax",%progbits
 1923              		.align	1
 1924              		.p2align 4,,15
 1925              		.global	TIM_SetCompare4
 1926              		.syntax unified
 1927              		.thumb
 1928              		.thumb_func
 1929              		.fpu fpv4-sp-d16
 1930              		.type	TIM_SetCompare4, %function
 1931              	TIM_SetCompare4:
 1932              	.LVL135:
 1933              	.LFB136:
 1934              		.loc 1 1111 1 is_stmt 1 view -0
 1935              		.cfi_startproc
 1936              		@ args = 0, pretend = 0, frame = 0
 1937              		@ frame_needed = 0, uses_anonymous_args = 0
 1938              		@ link register save eliminated.
ARM GAS  C:\Users\USER\AppData\Local\Temp\ccNdlOSb.s 			page 35


 1939              		.loc 1 1113 3 view .LVU622
 1940              		.loc 1 1116 3 view .LVU623
 1941              		.loc 1 1116 14 is_stmt 0 view .LVU624
 1942 0000 0164     		str	r1, [r0, #64]
 1943              		.loc 1 1117 1 view .LVU625
 1944 0002 7047     		bx	lr
 1945              		.cfi_endproc
 1946              	.LFE136:
 1947              		.size	TIM_SetCompare4, .-TIM_SetCompare4
 1948              		.section	.text.TIM_ForcedOC1Config,"ax",%progbits
 1949              		.align	1
 1950              		.p2align 4,,15
 1951              		.global	TIM_ForcedOC1Config
 1952              		.syntax unified
 1953              		.thumb
 1954              		.thumb_func
 1955              		.fpu fpv4-sp-d16
 1956              		.type	TIM_ForcedOC1Config, %function
 1957              	TIM_ForcedOC1Config:
 1958              	.LVL136:
 1959              	.LFB137:
 1960              		.loc 1 1129 1 is_stmt 1 view -0
 1961              		.cfi_startproc
 1962              		@ args = 0, pretend = 0, frame = 0
 1963              		@ frame_needed = 0, uses_anonymous_args = 0
 1964              		@ link register save eliminated.
 1965              		.loc 1 1130 3 view .LVU627
 1966              		.loc 1 1133 3 view .LVU628
 1967              		.loc 1 1134 3 view .LVU629
 1968              		.loc 1 1135 3 view .LVU630
 1969              		.loc 1 1135 18 is_stmt 0 view .LVU631
 1970 0000 8269     		ldr	r2, [r0, #24]
 1971              	.LVL137:
 1972              		.loc 1 1138 3 is_stmt 1 view .LVU632
 1973              		.loc 1 1138 12 is_stmt 0 view .LVU633
 1974 0002 4FF68F73 		movw	r3, #65423
 1975 0006 1340     		ands	r3, r3, r2
 1976              	.LVL138:
 1977              		.loc 1 1141 3 is_stmt 1 view .LVU634
 1978              		.loc 1 1144 3 view .LVU635
 1979              		.loc 1 1144 15 is_stmt 0 view .LVU636
 1980 0008 1943     		orrs	r1, r1, r3
 1981              	.LVL139:
 1982              		.loc 1 1144 15 view .LVU637
 1983 000a 8161     		str	r1, [r0, #24]
 1984              		.loc 1 1145 1 view .LVU638
 1985 000c 7047     		bx	lr
 1986              		.cfi_endproc
 1987              	.LFE137:
 1988              		.size	TIM_ForcedOC1Config, .-TIM_ForcedOC1Config
 1989 000e 00BF     		.section	.text.TIM_ForcedOC2Config,"ax",%progbits
 1990              		.align	1
 1991              		.p2align 4,,15
 1992              		.global	TIM_ForcedOC2Config
 1993              		.syntax unified
 1994              		.thumb
 1995              		.thumb_func
ARM GAS  C:\Users\USER\AppData\Local\Temp\ccNdlOSb.s 			page 36


 1996              		.fpu fpv4-sp-d16
 1997              		.type	TIM_ForcedOC2Config, %function
 1998              	TIM_ForcedOC2Config:
 1999              	.LVL140:
 2000              	.LFB138:
 2001              		.loc 1 1158 1 is_stmt 1 view -0
 2002              		.cfi_startproc
 2003              		@ args = 0, pretend = 0, frame = 0
 2004              		@ frame_needed = 0, uses_anonymous_args = 0
 2005              		@ link register save eliminated.
 2006              		.loc 1 1159 3 view .LVU640
 2007              		.loc 1 1162 3 view .LVU641
 2008              		.loc 1 1163 3 view .LVU642
 2009              		.loc 1 1164 3 view .LVU643
 2010              		.loc 1 1164 18 is_stmt 0 view .LVU644
 2011 0000 8269     		ldr	r2, [r0, #24]
 2012              	.LVL141:
 2013              		.loc 1 1167 3 is_stmt 1 view .LVU645
 2014              		.loc 1 1167 12 is_stmt 0 view .LVU646
 2015 0002 48F6FF73 		movw	r3, #36863
 2016 0006 1340     		ands	r3, r3, r2
 2017              	.LVL142:
 2018              		.loc 1 1170 3 is_stmt 1 view .LVU647
 2019              		.loc 1 1173 3 view .LVU648
 2020              		.loc 1 1170 12 is_stmt 0 view .LVU649
 2021 0008 43EA0121 		orr	r1, r3, r1, lsl #8
 2022              	.LVL143:
 2023              		.loc 1 1173 15 view .LVU650
 2024 000c 89B2     		uxth	r1, r1
 2025 000e 8161     		str	r1, [r0, #24]
 2026              		.loc 1 1174 1 view .LVU651
 2027 0010 7047     		bx	lr
 2028              		.cfi_endproc
 2029              	.LFE138:
 2030              		.size	TIM_ForcedOC2Config, .-TIM_ForcedOC2Config
 2031 0012 00BF     		.section	.text.TIM_ForcedOC3Config,"ax",%progbits
 2032              		.align	1
 2033              		.p2align 4,,15
 2034              		.global	TIM_ForcedOC3Config
 2035              		.syntax unified
 2036              		.thumb
 2037              		.thumb_func
 2038              		.fpu fpv4-sp-d16
 2039              		.type	TIM_ForcedOC3Config, %function
 2040              	TIM_ForcedOC3Config:
 2041              	.LVL144:
 2042              	.LFB139:
 2043              		.loc 1 1186 1 is_stmt 1 view -0
 2044              		.cfi_startproc
 2045              		@ args = 0, pretend = 0, frame = 0
 2046              		@ frame_needed = 0, uses_anonymous_args = 0
 2047              		@ link register save eliminated.
 2048              		.loc 1 1187 3 view .LVU653
 2049              		.loc 1 1190 3 view .LVU654
 2050              		.loc 1 1191 3 view .LVU655
 2051              		.loc 1 1193 3 view .LVU656
 2052              		.loc 1 1193 18 is_stmt 0 view .LVU657
ARM GAS  C:\Users\USER\AppData\Local\Temp\ccNdlOSb.s 			page 37


 2053 0000 C269     		ldr	r2, [r0, #28]
 2054              	.LVL145:
 2055              		.loc 1 1196 3 is_stmt 1 view .LVU658
 2056              		.loc 1 1196 12 is_stmt 0 view .LVU659
 2057 0002 4FF68F73 		movw	r3, #65423
 2058 0006 1340     		ands	r3, r3, r2
 2059              	.LVL146:
 2060              		.loc 1 1199 3 is_stmt 1 view .LVU660
 2061              		.loc 1 1202 3 view .LVU661
 2062              		.loc 1 1202 15 is_stmt 0 view .LVU662
 2063 0008 1943     		orrs	r1, r1, r3
 2064              	.LVL147:
 2065              		.loc 1 1202 15 view .LVU663
 2066 000a C161     		str	r1, [r0, #28]
 2067              		.loc 1 1203 1 view .LVU664
 2068 000c 7047     		bx	lr
 2069              		.cfi_endproc
 2070              	.LFE139:
 2071              		.size	TIM_ForcedOC3Config, .-TIM_ForcedOC3Config
 2072 000e 00BF     		.section	.text.TIM_ForcedOC4Config,"ax",%progbits
 2073              		.align	1
 2074              		.p2align 4,,15
 2075              		.global	TIM_ForcedOC4Config
 2076              		.syntax unified
 2077              		.thumb
 2078              		.thumb_func
 2079              		.fpu fpv4-sp-d16
 2080              		.type	TIM_ForcedOC4Config, %function
 2081              	TIM_ForcedOC4Config:
 2082              	.LVL148:
 2083              	.LFB140:
 2084              		.loc 1 1215 1 is_stmt 1 view -0
 2085              		.cfi_startproc
 2086              		@ args = 0, pretend = 0, frame = 0
 2087              		@ frame_needed = 0, uses_anonymous_args = 0
 2088              		@ link register save eliminated.
 2089              		.loc 1 1216 3 view .LVU666
 2090              		.loc 1 1219 3 view .LVU667
 2091              		.loc 1 1220 3 view .LVU668
 2092              		.loc 1 1221 3 view .LVU669
 2093              		.loc 1 1221 18 is_stmt 0 view .LVU670
 2094 0000 C269     		ldr	r2, [r0, #28]
 2095              	.LVL149:
 2096              		.loc 1 1224 3 is_stmt 1 view .LVU671
 2097              		.loc 1 1224 12 is_stmt 0 view .LVU672
 2098 0002 48F6FF73 		movw	r3, #36863
 2099 0006 1340     		ands	r3, r3, r2
 2100              	.LVL150:
 2101              		.loc 1 1227 3 is_stmt 1 view .LVU673
 2102              		.loc 1 1230 3 view .LVU674
 2103              		.loc 1 1227 12 is_stmt 0 view .LVU675
 2104 0008 43EA0121 		orr	r1, r3, r1, lsl #8
 2105              	.LVL151:
 2106              		.loc 1 1230 15 view .LVU676
 2107 000c 89B2     		uxth	r1, r1
 2108 000e C161     		str	r1, [r0, #28]
 2109              		.loc 1 1231 1 view .LVU677
ARM GAS  C:\Users\USER\AppData\Local\Temp\ccNdlOSb.s 			page 38


 2110 0010 7047     		bx	lr
 2111              		.cfi_endproc
 2112              	.LFE140:
 2113              		.size	TIM_ForcedOC4Config, .-TIM_ForcedOC4Config
 2114 0012 00BF     		.section	.text.TIM_OC1PreloadConfig,"ax",%progbits
 2115              		.align	1
 2116              		.p2align 4,,15
 2117              		.global	TIM_OC1PreloadConfig
 2118              		.syntax unified
 2119              		.thumb
 2120              		.thumb_func
 2121              		.fpu fpv4-sp-d16
 2122              		.type	TIM_OC1PreloadConfig, %function
 2123              	TIM_OC1PreloadConfig:
 2124              	.LVL152:
 2125              	.LFB141:
 2126              		.loc 1 1243 1 is_stmt 1 view -0
 2127              		.cfi_startproc
 2128              		@ args = 0, pretend = 0, frame = 0
 2129              		@ frame_needed = 0, uses_anonymous_args = 0
 2130              		@ link register save eliminated.
 2131              		.loc 1 1244 3 view .LVU679
 2132              		.loc 1 1247 3 view .LVU680
 2133              		.loc 1 1248 3 view .LVU681
 2134              		.loc 1 1250 3 view .LVU682
 2135              		.loc 1 1250 18 is_stmt 0 view .LVU683
 2136 0000 8269     		ldr	r2, [r0, #24]
 2137              	.LVL153:
 2138              		.loc 1 1253 3 is_stmt 1 view .LVU684
 2139              		.loc 1 1253 12 is_stmt 0 view .LVU685
 2140 0002 4FF6F773 		movw	r3, #65527
 2141 0006 1340     		ands	r3, r3, r2
 2142              	.LVL154:
 2143              		.loc 1 1256 3 is_stmt 1 view .LVU686
 2144              		.loc 1 1259 3 view .LVU687
 2145              		.loc 1 1259 15 is_stmt 0 view .LVU688
 2146 0008 1943     		orrs	r1, r1, r3
 2147              	.LVL155:
 2148              		.loc 1 1259 15 view .LVU689
 2149 000a 8161     		str	r1, [r0, #24]
 2150              		.loc 1 1260 1 view .LVU690
 2151 000c 7047     		bx	lr
 2152              		.cfi_endproc
 2153              	.LFE141:
 2154              		.size	TIM_OC1PreloadConfig, .-TIM_OC1PreloadConfig
 2155 000e 00BF     		.section	.text.TIM_OC2PreloadConfig,"ax",%progbits
 2156              		.align	1
 2157              		.p2align 4,,15
 2158              		.global	TIM_OC2PreloadConfig
 2159              		.syntax unified
 2160              		.thumb
 2161              		.thumb_func
 2162              		.fpu fpv4-sp-d16
 2163              		.type	TIM_OC2PreloadConfig, %function
 2164              	TIM_OC2PreloadConfig:
 2165              	.LVL156:
 2166              	.LFB142:
ARM GAS  C:\Users\USER\AppData\Local\Temp\ccNdlOSb.s 			page 39


 2167              		.loc 1 1273 1 is_stmt 1 view -0
 2168              		.cfi_startproc
 2169              		@ args = 0, pretend = 0, frame = 0
 2170              		@ frame_needed = 0, uses_anonymous_args = 0
 2171              		@ link register save eliminated.
 2172              		.loc 1 1274 3 view .LVU692
 2173              		.loc 1 1277 3 view .LVU693
 2174              		.loc 1 1278 3 view .LVU694
 2175              		.loc 1 1280 3 view .LVU695
 2176              		.loc 1 1280 18 is_stmt 0 view .LVU696
 2177 0000 8269     		ldr	r2, [r0, #24]
 2178              	.LVL157:
 2179              		.loc 1 1283 3 is_stmt 1 view .LVU697
 2180              		.loc 1 1283 12 is_stmt 0 view .LVU698
 2181 0002 4FF2FF73 		movw	r3, #63487
 2182 0006 1340     		ands	r3, r3, r2
 2183              	.LVL158:
 2184              		.loc 1 1286 3 is_stmt 1 view .LVU699
 2185              		.loc 1 1289 3 view .LVU700
 2186              		.loc 1 1286 12 is_stmt 0 view .LVU701
 2187 0008 43EA0121 		orr	r1, r3, r1, lsl #8
 2188              	.LVL159:
 2189              		.loc 1 1289 15 view .LVU702
 2190 000c 89B2     		uxth	r1, r1
 2191 000e 8161     		str	r1, [r0, #24]
 2192              		.loc 1 1290 1 view .LVU703
 2193 0010 7047     		bx	lr
 2194              		.cfi_endproc
 2195              	.LFE142:
 2196              		.size	TIM_OC2PreloadConfig, .-TIM_OC2PreloadConfig
 2197 0012 00BF     		.section	.text.TIM_OC3PreloadConfig,"ax",%progbits
 2198              		.align	1
 2199              		.p2align 4,,15
 2200              		.global	TIM_OC3PreloadConfig
 2201              		.syntax unified
 2202              		.thumb
 2203              		.thumb_func
 2204              		.fpu fpv4-sp-d16
 2205              		.type	TIM_OC3PreloadConfig, %function
 2206              	TIM_OC3PreloadConfig:
 2207              	.LVL160:
 2208              	.LFB143:
 2209              		.loc 1 1302 1 is_stmt 1 view -0
 2210              		.cfi_startproc
 2211              		@ args = 0, pretend = 0, frame = 0
 2212              		@ frame_needed = 0, uses_anonymous_args = 0
 2213              		@ link register save eliminated.
 2214              		.loc 1 1303 3 view .LVU705
 2215              		.loc 1 1306 3 view .LVU706
 2216              		.loc 1 1307 3 view .LVU707
 2217              		.loc 1 1309 3 view .LVU708
 2218              		.loc 1 1309 18 is_stmt 0 view .LVU709
 2219 0000 C269     		ldr	r2, [r0, #28]
 2220              	.LVL161:
 2221              		.loc 1 1312 3 is_stmt 1 view .LVU710
 2222              		.loc 1 1312 12 is_stmt 0 view .LVU711
 2223 0002 4FF6F773 		movw	r3, #65527
ARM GAS  C:\Users\USER\AppData\Local\Temp\ccNdlOSb.s 			page 40


 2224 0006 1340     		ands	r3, r3, r2
 2225              	.LVL162:
 2226              		.loc 1 1315 3 is_stmt 1 view .LVU712
 2227              		.loc 1 1318 3 view .LVU713
 2228              		.loc 1 1318 15 is_stmt 0 view .LVU714
 2229 0008 1943     		orrs	r1, r1, r3
 2230              	.LVL163:
 2231              		.loc 1 1318 15 view .LVU715
 2232 000a C161     		str	r1, [r0, #28]
 2233              		.loc 1 1319 1 view .LVU716
 2234 000c 7047     		bx	lr
 2235              		.cfi_endproc
 2236              	.LFE143:
 2237              		.size	TIM_OC3PreloadConfig, .-TIM_OC3PreloadConfig
 2238 000e 00BF     		.section	.text.TIM_OC4PreloadConfig,"ax",%progbits
 2239              		.align	1
 2240              		.p2align 4,,15
 2241              		.global	TIM_OC4PreloadConfig
 2242              		.syntax unified
 2243              		.thumb
 2244              		.thumb_func
 2245              		.fpu fpv4-sp-d16
 2246              		.type	TIM_OC4PreloadConfig, %function
 2247              	TIM_OC4PreloadConfig:
 2248              	.LVL164:
 2249              	.LFB144:
 2250              		.loc 1 1331 1 is_stmt 1 view -0
 2251              		.cfi_startproc
 2252              		@ args = 0, pretend = 0, frame = 0
 2253              		@ frame_needed = 0, uses_anonymous_args = 0
 2254              		@ link register save eliminated.
 2255              		.loc 1 1332 3 view .LVU718
 2256              		.loc 1 1335 3 view .LVU719
 2257              		.loc 1 1336 3 view .LVU720
 2258              		.loc 1 1338 3 view .LVU721
 2259              		.loc 1 1338 18 is_stmt 0 view .LVU722
 2260 0000 C269     		ldr	r2, [r0, #28]
 2261              	.LVL165:
 2262              		.loc 1 1341 3 is_stmt 1 view .LVU723
 2263              		.loc 1 1341 12 is_stmt 0 view .LVU724
 2264 0002 4FF2FF73 		movw	r3, #63487
 2265 0006 1340     		ands	r3, r3, r2
 2266              	.LVL166:
 2267              		.loc 1 1344 3 is_stmt 1 view .LVU725
 2268              		.loc 1 1347 3 view .LVU726
 2269              		.loc 1 1344 12 is_stmt 0 view .LVU727
 2270 0008 43EA0121 		orr	r1, r3, r1, lsl #8
 2271              	.LVL167:
 2272              		.loc 1 1347 15 view .LVU728
 2273 000c 89B2     		uxth	r1, r1
 2274 000e C161     		str	r1, [r0, #28]
 2275              		.loc 1 1348 1 view .LVU729
 2276 0010 7047     		bx	lr
 2277              		.cfi_endproc
 2278              	.LFE144:
 2279              		.size	TIM_OC4PreloadConfig, .-TIM_OC4PreloadConfig
 2280 0012 00BF     		.section	.text.TIM_OC1FastConfig,"ax",%progbits
ARM GAS  C:\Users\USER\AppData\Local\Temp\ccNdlOSb.s 			page 41


 2281              		.align	1
 2282              		.p2align 4,,15
 2283              		.global	TIM_OC1FastConfig
 2284              		.syntax unified
 2285              		.thumb
 2286              		.thumb_func
 2287              		.fpu fpv4-sp-d16
 2288              		.type	TIM_OC1FastConfig, %function
 2289              	TIM_OC1FastConfig:
 2290              	.LVL168:
 2291              	.LFB145:
 2292              		.loc 1 1360 1 is_stmt 1 view -0
 2293              		.cfi_startproc
 2294              		@ args = 0, pretend = 0, frame = 0
 2295              		@ frame_needed = 0, uses_anonymous_args = 0
 2296              		@ link register save eliminated.
 2297              		.loc 1 1361 3 view .LVU731
 2298              		.loc 1 1364 3 view .LVU732
 2299              		.loc 1 1365 3 view .LVU733
 2300              		.loc 1 1368 3 view .LVU734
 2301              		.loc 1 1368 18 is_stmt 0 view .LVU735
 2302 0000 8269     		ldr	r2, [r0, #24]
 2303              	.LVL169:
 2304              		.loc 1 1371 3 is_stmt 1 view .LVU736
 2305              		.loc 1 1371 12 is_stmt 0 view .LVU737
 2306 0002 4FF6FB73 		movw	r3, #65531
 2307 0006 1340     		ands	r3, r3, r2
 2308              	.LVL170:
 2309              		.loc 1 1374 3 is_stmt 1 view .LVU738
 2310              		.loc 1 1377 3 view .LVU739
 2311              		.loc 1 1377 15 is_stmt 0 view .LVU740
 2312 0008 1943     		orrs	r1, r1, r3
 2313              	.LVL171:
 2314              		.loc 1 1377 15 view .LVU741
 2315 000a 8161     		str	r1, [r0, #24]
 2316              		.loc 1 1378 1 view .LVU742
 2317 000c 7047     		bx	lr
 2318              		.cfi_endproc
 2319              	.LFE145:
 2320              		.size	TIM_OC1FastConfig, .-TIM_OC1FastConfig
 2321 000e 00BF     		.section	.text.TIM_OC2FastConfig,"ax",%progbits
 2322              		.align	1
 2323              		.p2align 4,,15
 2324              		.global	TIM_OC2FastConfig
 2325              		.syntax unified
 2326              		.thumb
 2327              		.thumb_func
 2328              		.fpu fpv4-sp-d16
 2329              		.type	TIM_OC2FastConfig, %function
 2330              	TIM_OC2FastConfig:
 2331              	.LVL172:
 2332              	.LFB146:
 2333              		.loc 1 1391 1 is_stmt 1 view -0
 2334              		.cfi_startproc
 2335              		@ args = 0, pretend = 0, frame = 0
 2336              		@ frame_needed = 0, uses_anonymous_args = 0
 2337              		@ link register save eliminated.
ARM GAS  C:\Users\USER\AppData\Local\Temp\ccNdlOSb.s 			page 42


 2338              		.loc 1 1392 3 view .LVU744
 2339              		.loc 1 1395 3 view .LVU745
 2340              		.loc 1 1396 3 view .LVU746
 2341              		.loc 1 1399 3 view .LVU747
 2342              		.loc 1 1399 18 is_stmt 0 view .LVU748
 2343 0000 8269     		ldr	r2, [r0, #24]
 2344              	.LVL173:
 2345              		.loc 1 1402 3 is_stmt 1 view .LVU749
 2346              		.loc 1 1402 12 is_stmt 0 view .LVU750
 2347 0002 4FF6FF33 		movw	r3, #64511
 2348 0006 1340     		ands	r3, r3, r2
 2349              	.LVL174:
 2350              		.loc 1 1405 3 is_stmt 1 view .LVU751
 2351              		.loc 1 1408 3 view .LVU752
 2352              		.loc 1 1405 12 is_stmt 0 view .LVU753
 2353 0008 43EA0121 		orr	r1, r3, r1, lsl #8
 2354              	.LVL175:
 2355              		.loc 1 1408 15 view .LVU754
 2356 000c 89B2     		uxth	r1, r1
 2357 000e 8161     		str	r1, [r0, #24]
 2358              		.loc 1 1409 1 view .LVU755
 2359 0010 7047     		bx	lr
 2360              		.cfi_endproc
 2361              	.LFE146:
 2362              		.size	TIM_OC2FastConfig, .-TIM_OC2FastConfig
 2363 0012 00BF     		.section	.text.TIM_OC3FastConfig,"ax",%progbits
 2364              		.align	1
 2365              		.p2align 4,,15
 2366              		.global	TIM_OC3FastConfig
 2367              		.syntax unified
 2368              		.thumb
 2369              		.thumb_func
 2370              		.fpu fpv4-sp-d16
 2371              		.type	TIM_OC3FastConfig, %function
 2372              	TIM_OC3FastConfig:
 2373              	.LVL176:
 2374              	.LFB147:
 2375              		.loc 1 1421 1 is_stmt 1 view -0
 2376              		.cfi_startproc
 2377              		@ args = 0, pretend = 0, frame = 0
 2378              		@ frame_needed = 0, uses_anonymous_args = 0
 2379              		@ link register save eliminated.
 2380              		.loc 1 1422 3 view .LVU757
 2381              		.loc 1 1425 3 view .LVU758
 2382              		.loc 1 1426 3 view .LVU759
 2383              		.loc 1 1429 3 view .LVU760
 2384              		.loc 1 1429 18 is_stmt 0 view .LVU761
 2385 0000 C269     		ldr	r2, [r0, #28]
 2386              	.LVL177:
 2387              		.loc 1 1432 3 is_stmt 1 view .LVU762
 2388              		.loc 1 1432 12 is_stmt 0 view .LVU763
 2389 0002 4FF6FB73 		movw	r3, #65531
 2390 0006 1340     		ands	r3, r3, r2
 2391              	.LVL178:
 2392              		.loc 1 1435 3 is_stmt 1 view .LVU764
 2393              		.loc 1 1438 3 view .LVU765
 2394              		.loc 1 1438 15 is_stmt 0 view .LVU766
ARM GAS  C:\Users\USER\AppData\Local\Temp\ccNdlOSb.s 			page 43


 2395 0008 1943     		orrs	r1, r1, r3
 2396              	.LVL179:
 2397              		.loc 1 1438 15 view .LVU767
 2398 000a C161     		str	r1, [r0, #28]
 2399              		.loc 1 1439 1 view .LVU768
 2400 000c 7047     		bx	lr
 2401              		.cfi_endproc
 2402              	.LFE147:
 2403              		.size	TIM_OC3FastConfig, .-TIM_OC3FastConfig
 2404 000e 00BF     		.section	.text.TIM_OC4FastConfig,"ax",%progbits
 2405              		.align	1
 2406              		.p2align 4,,15
 2407              		.global	TIM_OC4FastConfig
 2408              		.syntax unified
 2409              		.thumb
 2410              		.thumb_func
 2411              		.fpu fpv4-sp-d16
 2412              		.type	TIM_OC4FastConfig, %function
 2413              	TIM_OC4FastConfig:
 2414              	.LVL180:
 2415              	.LFB148:
 2416              		.loc 1 1451 1 is_stmt 1 view -0
 2417              		.cfi_startproc
 2418              		@ args = 0, pretend = 0, frame = 0
 2419              		@ frame_needed = 0, uses_anonymous_args = 0
 2420              		@ link register save eliminated.
 2421              		.loc 1 1452 3 view .LVU770
 2422              		.loc 1 1455 3 view .LVU771
 2423              		.loc 1 1456 3 view .LVU772
 2424              		.loc 1 1459 3 view .LVU773
 2425              		.loc 1 1459 18 is_stmt 0 view .LVU774
 2426 0000 C269     		ldr	r2, [r0, #28]
 2427              	.LVL181:
 2428              		.loc 1 1462 3 is_stmt 1 view .LVU775
 2429              		.loc 1 1462 12 is_stmt 0 view .LVU776
 2430 0002 4FF6FF33 		movw	r3, #64511
 2431 0006 1340     		ands	r3, r3, r2
 2432              	.LVL182:
 2433              		.loc 1 1465 3 is_stmt 1 view .LVU777
 2434              		.loc 1 1468 3 view .LVU778
 2435              		.loc 1 1465 12 is_stmt 0 view .LVU779
 2436 0008 43EA0121 		orr	r1, r3, r1, lsl #8
 2437              	.LVL183:
 2438              		.loc 1 1468 15 view .LVU780
 2439 000c 89B2     		uxth	r1, r1
 2440 000e C161     		str	r1, [r0, #28]
 2441              		.loc 1 1469 1 view .LVU781
 2442 0010 7047     		bx	lr
 2443              		.cfi_endproc
 2444              	.LFE148:
 2445              		.size	TIM_OC4FastConfig, .-TIM_OC4FastConfig
 2446 0012 00BF     		.section	.text.TIM_ClearOC1Ref,"ax",%progbits
 2447              		.align	1
 2448              		.p2align 4,,15
 2449              		.global	TIM_ClearOC1Ref
 2450              		.syntax unified
 2451              		.thumb
ARM GAS  C:\Users\USER\AppData\Local\Temp\ccNdlOSb.s 			page 44


 2452              		.thumb_func
 2453              		.fpu fpv4-sp-d16
 2454              		.type	TIM_ClearOC1Ref, %function
 2455              	TIM_ClearOC1Ref:
 2456              	.LVL184:
 2457              	.LFB149:
 2458              		.loc 1 1481 1 is_stmt 1 view -0
 2459              		.cfi_startproc
 2460              		@ args = 0, pretend = 0, frame = 0
 2461              		@ frame_needed = 0, uses_anonymous_args = 0
 2462              		@ link register save eliminated.
 2463              		.loc 1 1482 3 view .LVU783
 2464              		.loc 1 1485 3 view .LVU784
 2465              		.loc 1 1486 3 view .LVU785
 2466              		.loc 1 1488 3 view .LVU786
 2467              		.loc 1 1488 18 is_stmt 0 view .LVU787
 2468 0000 8269     		ldr	r2, [r0, #24]
 2469              	.LVL185:
 2470              		.loc 1 1491 3 is_stmt 1 view .LVU788
 2471              		.loc 1 1491 12 is_stmt 0 view .LVU789
 2472 0002 4FF67F73 		movw	r3, #65407
 2473 0006 1340     		ands	r3, r3, r2
 2474              	.LVL186:
 2475              		.loc 1 1494 3 is_stmt 1 view .LVU790
 2476              		.loc 1 1497 3 view .LVU791
 2477              		.loc 1 1497 15 is_stmt 0 view .LVU792
 2478 0008 1943     		orrs	r1, r1, r3
 2479              	.LVL187:
 2480              		.loc 1 1497 15 view .LVU793
 2481 000a 8161     		str	r1, [r0, #24]
 2482              		.loc 1 1498 1 view .LVU794
 2483 000c 7047     		bx	lr
 2484              		.cfi_endproc
 2485              	.LFE149:
 2486              		.size	TIM_ClearOC1Ref, .-TIM_ClearOC1Ref
 2487 000e 00BF     		.section	.text.TIM_ClearOC2Ref,"ax",%progbits
 2488              		.align	1
 2489              		.p2align 4,,15
 2490              		.global	TIM_ClearOC2Ref
 2491              		.syntax unified
 2492              		.thumb
 2493              		.thumb_func
 2494              		.fpu fpv4-sp-d16
 2495              		.type	TIM_ClearOC2Ref, %function
 2496              	TIM_ClearOC2Ref:
 2497              	.LVL188:
 2498              	.LFB150:
 2499              		.loc 1 1511 1 is_stmt 1 view -0
 2500              		.cfi_startproc
 2501              		@ args = 0, pretend = 0, frame = 0
 2502              		@ frame_needed = 0, uses_anonymous_args = 0
 2503              		@ link register save eliminated.
 2504              		.loc 1 1512 3 view .LVU796
 2505              		.loc 1 1515 3 view .LVU797
 2506              		.loc 1 1516 3 view .LVU798
 2507              		.loc 1 1518 3 view .LVU799
 2508              		.loc 1 1518 18 is_stmt 0 view .LVU800
ARM GAS  C:\Users\USER\AppData\Local\Temp\ccNdlOSb.s 			page 45


 2509 0000 8369     		ldr	r3, [r0, #24]
 2510              	.LVL189:
 2511              		.loc 1 1521 3 is_stmt 1 view .LVU801
 2512              		.loc 1 1521 12 is_stmt 0 view .LVU802
 2513 0002 C3F30E03 		ubfx	r3, r3, #0, #15
 2514              	.LVL190:
 2515              		.loc 1 1524 3 is_stmt 1 view .LVU803
 2516              		.loc 1 1527 3 view .LVU804
 2517              		.loc 1 1524 12 is_stmt 0 view .LVU805
 2518 0006 43EA0121 		orr	r1, r3, r1, lsl #8
 2519              	.LVL191:
 2520              		.loc 1 1527 15 view .LVU806
 2521 000a 89B2     		uxth	r1, r1
 2522 000c 8161     		str	r1, [r0, #24]
 2523              		.loc 1 1528 1 view .LVU807
 2524 000e 7047     		bx	lr
 2525              		.cfi_endproc
 2526              	.LFE150:
 2527              		.size	TIM_ClearOC2Ref, .-TIM_ClearOC2Ref
 2528              		.section	.text.TIM_ClearOC3Ref,"ax",%progbits
 2529              		.align	1
 2530              		.p2align 4,,15
 2531              		.global	TIM_ClearOC3Ref
 2532              		.syntax unified
 2533              		.thumb
 2534              		.thumb_func
 2535              		.fpu fpv4-sp-d16
 2536              		.type	TIM_ClearOC3Ref, %function
 2537              	TIM_ClearOC3Ref:
 2538              	.LVL192:
 2539              	.LFB151:
 2540              		.loc 1 1540 1 is_stmt 1 view -0
 2541              		.cfi_startproc
 2542              		@ args = 0, pretend = 0, frame = 0
 2543              		@ frame_needed = 0, uses_anonymous_args = 0
 2544              		@ link register save eliminated.
 2545              		.loc 1 1541 3 view .LVU809
 2546              		.loc 1 1544 3 view .LVU810
 2547              		.loc 1 1545 3 view .LVU811
 2548              		.loc 1 1547 3 view .LVU812
 2549              		.loc 1 1547 18 is_stmt 0 view .LVU813
 2550 0000 C269     		ldr	r2, [r0, #28]
 2551              	.LVL193:
 2552              		.loc 1 1550 3 is_stmt 1 view .LVU814
 2553              		.loc 1 1550 12 is_stmt 0 view .LVU815
 2554 0002 4FF67F73 		movw	r3, #65407
 2555 0006 1340     		ands	r3, r3, r2
 2556              	.LVL194:
 2557              		.loc 1 1553 3 is_stmt 1 view .LVU816
 2558              		.loc 1 1556 3 view .LVU817
 2559              		.loc 1 1556 15 is_stmt 0 view .LVU818
 2560 0008 1943     		orrs	r1, r1, r3
 2561              	.LVL195:
 2562              		.loc 1 1556 15 view .LVU819
 2563 000a C161     		str	r1, [r0, #28]
 2564              		.loc 1 1557 1 view .LVU820
 2565 000c 7047     		bx	lr
ARM GAS  C:\Users\USER\AppData\Local\Temp\ccNdlOSb.s 			page 46


 2566              		.cfi_endproc
 2567              	.LFE151:
 2568              		.size	TIM_ClearOC3Ref, .-TIM_ClearOC3Ref
 2569 000e 00BF     		.section	.text.TIM_ClearOC4Ref,"ax",%progbits
 2570              		.align	1
 2571              		.p2align 4,,15
 2572              		.global	TIM_ClearOC4Ref
 2573              		.syntax unified
 2574              		.thumb
 2575              		.thumb_func
 2576              		.fpu fpv4-sp-d16
 2577              		.type	TIM_ClearOC4Ref, %function
 2578              	TIM_ClearOC4Ref:
 2579              	.LVL196:
 2580              	.LFB152:
 2581              		.loc 1 1569 1 is_stmt 1 view -0
 2582              		.cfi_startproc
 2583              		@ args = 0, pretend = 0, frame = 0
 2584              		@ frame_needed = 0, uses_anonymous_args = 0
 2585              		@ link register save eliminated.
 2586              		.loc 1 1570 3 view .LVU822
 2587              		.loc 1 1573 3 view .LVU823
 2588              		.loc 1 1574 3 view .LVU824
 2589              		.loc 1 1576 3 view .LVU825
 2590              		.loc 1 1576 18 is_stmt 0 view .LVU826
 2591 0000 C369     		ldr	r3, [r0, #28]
 2592              	.LVL197:
 2593              		.loc 1 1579 3 is_stmt 1 view .LVU827
 2594              		.loc 1 1579 12 is_stmt 0 view .LVU828
 2595 0002 C3F30E03 		ubfx	r3, r3, #0, #15
 2596              	.LVL198:
 2597              		.loc 1 1582 3 is_stmt 1 view .LVU829
 2598              		.loc 1 1585 3 view .LVU830
 2599              		.loc 1 1582 12 is_stmt 0 view .LVU831
 2600 0006 43EA0121 		orr	r1, r3, r1, lsl #8
 2601              	.LVL199:
 2602              		.loc 1 1585 15 view .LVU832
 2603 000a 89B2     		uxth	r1, r1
 2604 000c C161     		str	r1, [r0, #28]
 2605              		.loc 1 1586 1 view .LVU833
 2606 000e 7047     		bx	lr
 2607              		.cfi_endproc
 2608              	.LFE152:
 2609              		.size	TIM_ClearOC4Ref, .-TIM_ClearOC4Ref
 2610              		.section	.text.TIM_OC1PolarityConfig,"ax",%progbits
 2611              		.align	1
 2612              		.p2align 4,,15
 2613              		.global	TIM_OC1PolarityConfig
 2614              		.syntax unified
 2615              		.thumb
 2616              		.thumb_func
 2617              		.fpu fpv4-sp-d16
 2618              		.type	TIM_OC1PolarityConfig, %function
 2619              	TIM_OC1PolarityConfig:
 2620              	.LVL200:
 2621              	.LFB153:
 2622              		.loc 1 1598 1 is_stmt 1 view -0
ARM GAS  C:\Users\USER\AppData\Local\Temp\ccNdlOSb.s 			page 47


 2623              		.cfi_startproc
 2624              		@ args = 0, pretend = 0, frame = 0
 2625              		@ frame_needed = 0, uses_anonymous_args = 0
 2626              		@ link register save eliminated.
 2627              		.loc 1 1599 3 view .LVU835
 2628              		.loc 1 1602 3 view .LVU836
 2629              		.loc 1 1603 3 view .LVU837
 2630              		.loc 1 1605 3 view .LVU838
 2631              		.loc 1 1605 17 is_stmt 0 view .LVU839
 2632 0000 026A     		ldr	r2, [r0, #32]
 2633              	.LVL201:
 2634              		.loc 1 1608 3 is_stmt 1 view .LVU840
 2635              		.loc 1 1608 11 is_stmt 0 view .LVU841
 2636 0002 4FF6FD73 		movw	r3, #65533
 2637 0006 1340     		ands	r3, r3, r2
 2638              	.LVL202:
 2639              		.loc 1 1609 3 is_stmt 1 view .LVU842
 2640              		.loc 1 1612 3 view .LVU843
 2641              		.loc 1 1612 14 is_stmt 0 view .LVU844
 2642 0008 1943     		orrs	r1, r1, r3
 2643              	.LVL203:
 2644              		.loc 1 1612 14 view .LVU845
 2645 000a 0162     		str	r1, [r0, #32]
 2646              		.loc 1 1613 1 view .LVU846
 2647 000c 7047     		bx	lr
 2648              		.cfi_endproc
 2649              	.LFE153:
 2650              		.size	TIM_OC1PolarityConfig, .-TIM_OC1PolarityConfig
 2651 000e 00BF     		.section	.text.TIM_OC1NPolarityConfig,"ax",%progbits
 2652              		.align	1
 2653              		.p2align 4,,15
 2654              		.global	TIM_OC1NPolarityConfig
 2655              		.syntax unified
 2656              		.thumb
 2657              		.thumb_func
 2658              		.fpu fpv4-sp-d16
 2659              		.type	TIM_OC1NPolarityConfig, %function
 2660              	TIM_OC1NPolarityConfig:
 2661              	.LVL204:
 2662              	.LFB154:
 2663              		.loc 1 1625 1 is_stmt 1 view -0
 2664              		.cfi_startproc
 2665              		@ args = 0, pretend = 0, frame = 0
 2666              		@ frame_needed = 0, uses_anonymous_args = 0
 2667              		@ link register save eliminated.
 2668              		.loc 1 1626 3 view .LVU848
 2669              		.loc 1 1628 3 view .LVU849
 2670              		.loc 1 1629 3 view .LVU850
 2671              		.loc 1 1631 3 view .LVU851
 2672              		.loc 1 1631 17 is_stmt 0 view .LVU852
 2673 0000 026A     		ldr	r2, [r0, #32]
 2674              	.LVL205:
 2675              		.loc 1 1634 3 is_stmt 1 view .LVU853
 2676              		.loc 1 1634 11 is_stmt 0 view .LVU854
 2677 0002 4FF6F773 		movw	r3, #65527
 2678 0006 1340     		ands	r3, r3, r2
 2679              	.LVL206:
ARM GAS  C:\Users\USER\AppData\Local\Temp\ccNdlOSb.s 			page 48


 2680              		.loc 1 1635 3 is_stmt 1 view .LVU855
 2681              		.loc 1 1638 3 view .LVU856
 2682              		.loc 1 1638 14 is_stmt 0 view .LVU857
 2683 0008 1943     		orrs	r1, r1, r3
 2684              	.LVL207:
 2685              		.loc 1 1638 14 view .LVU858
 2686 000a 0162     		str	r1, [r0, #32]
 2687              		.loc 1 1639 1 view .LVU859
 2688 000c 7047     		bx	lr
 2689              		.cfi_endproc
 2690              	.LFE154:
 2691              		.size	TIM_OC1NPolarityConfig, .-TIM_OC1NPolarityConfig
 2692 000e 00BF     		.section	.text.TIM_OC2PolarityConfig,"ax",%progbits
 2693              		.align	1
 2694              		.p2align 4,,15
 2695              		.global	TIM_OC2PolarityConfig
 2696              		.syntax unified
 2697              		.thumb
 2698              		.thumb_func
 2699              		.fpu fpv4-sp-d16
 2700              		.type	TIM_OC2PolarityConfig, %function
 2701              	TIM_OC2PolarityConfig:
 2702              	.LVL208:
 2703              	.LFB155:
 2704              		.loc 1 1652 1 is_stmt 1 view -0
 2705              		.cfi_startproc
 2706              		@ args = 0, pretend = 0, frame = 0
 2707              		@ frame_needed = 0, uses_anonymous_args = 0
 2708              		@ link register save eliminated.
 2709              		.loc 1 1653 3 view .LVU861
 2710              		.loc 1 1656 3 view .LVU862
 2711              		.loc 1 1657 3 view .LVU863
 2712              		.loc 1 1659 3 view .LVU864
 2713              		.loc 1 1659 17 is_stmt 0 view .LVU865
 2714 0000 026A     		ldr	r2, [r0, #32]
 2715              	.LVL209:
 2716              		.loc 1 1662 3 is_stmt 1 view .LVU866
 2717              		.loc 1 1662 11 is_stmt 0 view .LVU867
 2718 0002 4FF6DF73 		movw	r3, #65503
 2719 0006 1340     		ands	r3, r3, r2
 2720              	.LVL210:
 2721              		.loc 1 1663 3 is_stmt 1 view .LVU868
 2722              		.loc 1 1666 3 view .LVU869
 2723              		.loc 1 1663 11 is_stmt 0 view .LVU870
 2724 0008 43EA0111 		orr	r1, r3, r1, lsl #4
 2725              	.LVL211:
 2726              		.loc 1 1666 14 view .LVU871
 2727 000c 89B2     		uxth	r1, r1
 2728 000e 0162     		str	r1, [r0, #32]
 2729              		.loc 1 1667 1 view .LVU872
 2730 0010 7047     		bx	lr
 2731              		.cfi_endproc
 2732              	.LFE155:
 2733              		.size	TIM_OC2PolarityConfig, .-TIM_OC2PolarityConfig
 2734 0012 00BF     		.section	.text.TIM_OC2NPolarityConfig,"ax",%progbits
 2735              		.align	1
 2736              		.p2align 4,,15
ARM GAS  C:\Users\USER\AppData\Local\Temp\ccNdlOSb.s 			page 49


 2737              		.global	TIM_OC2NPolarityConfig
 2738              		.syntax unified
 2739              		.thumb
 2740              		.thumb_func
 2741              		.fpu fpv4-sp-d16
 2742              		.type	TIM_OC2NPolarityConfig, %function
 2743              	TIM_OC2NPolarityConfig:
 2744              	.LVL212:
 2745              	.LFB156:
 2746              		.loc 1 1679 1 is_stmt 1 view -0
 2747              		.cfi_startproc
 2748              		@ args = 0, pretend = 0, frame = 0
 2749              		@ frame_needed = 0, uses_anonymous_args = 0
 2750              		@ link register save eliminated.
 2751              		.loc 1 1680 3 view .LVU874
 2752              		.loc 1 1683 3 view .LVU875
 2753              		.loc 1 1684 3 view .LVU876
 2754              		.loc 1 1686 3 view .LVU877
 2755              		.loc 1 1686 17 is_stmt 0 view .LVU878
 2756 0000 026A     		ldr	r2, [r0, #32]
 2757              	.LVL213:
 2758              		.loc 1 1689 3 is_stmt 1 view .LVU879
 2759              		.loc 1 1689 11 is_stmt 0 view .LVU880
 2760 0002 4FF67F73 		movw	r3, #65407
 2761 0006 1340     		ands	r3, r3, r2
 2762              	.LVL214:
 2763              		.loc 1 1690 3 is_stmt 1 view .LVU881
 2764              		.loc 1 1693 3 view .LVU882
 2765              		.loc 1 1690 11 is_stmt 0 view .LVU883
 2766 0008 43EA0111 		orr	r1, r3, r1, lsl #4
 2767              	.LVL215:
 2768              		.loc 1 1693 14 view .LVU884
 2769 000c 89B2     		uxth	r1, r1
 2770 000e 0162     		str	r1, [r0, #32]
 2771              		.loc 1 1694 1 view .LVU885
 2772 0010 7047     		bx	lr
 2773              		.cfi_endproc
 2774              	.LFE156:
 2775              		.size	TIM_OC2NPolarityConfig, .-TIM_OC2NPolarityConfig
 2776 0012 00BF     		.section	.text.TIM_OC3PolarityConfig,"ax",%progbits
 2777              		.align	1
 2778              		.p2align 4,,15
 2779              		.global	TIM_OC3PolarityConfig
 2780              		.syntax unified
 2781              		.thumb
 2782              		.thumb_func
 2783              		.fpu fpv4-sp-d16
 2784              		.type	TIM_OC3PolarityConfig, %function
 2785              	TIM_OC3PolarityConfig:
 2786              	.LVL216:
 2787              	.LFB157:
 2788              		.loc 1 1706 1 is_stmt 1 view -0
 2789              		.cfi_startproc
 2790              		@ args = 0, pretend = 0, frame = 0
 2791              		@ frame_needed = 0, uses_anonymous_args = 0
 2792              		@ link register save eliminated.
 2793              		.loc 1 1707 3 view .LVU887
ARM GAS  C:\Users\USER\AppData\Local\Temp\ccNdlOSb.s 			page 50


 2794              		.loc 1 1710 3 view .LVU888
 2795              		.loc 1 1711 3 view .LVU889
 2796              		.loc 1 1713 3 view .LVU890
 2797              		.loc 1 1713 17 is_stmt 0 view .LVU891
 2798 0000 026A     		ldr	r2, [r0, #32]
 2799              	.LVL217:
 2800              		.loc 1 1716 3 is_stmt 1 view .LVU892
 2801              		.loc 1 1716 11 is_stmt 0 view .LVU893
 2802 0002 4FF6FF53 		movw	r3, #65023
 2803 0006 1340     		ands	r3, r3, r2
 2804              	.LVL218:
 2805              		.loc 1 1717 3 is_stmt 1 view .LVU894
 2806              		.loc 1 1720 3 view .LVU895
 2807              		.loc 1 1717 11 is_stmt 0 view .LVU896
 2808 0008 43EA0121 		orr	r1, r3, r1, lsl #8
 2809              	.LVL219:
 2810              		.loc 1 1720 14 view .LVU897
 2811 000c 89B2     		uxth	r1, r1
 2812 000e 0162     		str	r1, [r0, #32]
 2813              		.loc 1 1721 1 view .LVU898
 2814 0010 7047     		bx	lr
 2815              		.cfi_endproc
 2816              	.LFE157:
 2817              		.size	TIM_OC3PolarityConfig, .-TIM_OC3PolarityConfig
 2818 0012 00BF     		.section	.text.TIM_OC3NPolarityConfig,"ax",%progbits
 2819              		.align	1
 2820              		.p2align 4,,15
 2821              		.global	TIM_OC3NPolarityConfig
 2822              		.syntax unified
 2823              		.thumb
 2824              		.thumb_func
 2825              		.fpu fpv4-sp-d16
 2826              		.type	TIM_OC3NPolarityConfig, %function
 2827              	TIM_OC3NPolarityConfig:
 2828              	.LVL220:
 2829              	.LFB158:
 2830              		.loc 1 1733 1 is_stmt 1 view -0
 2831              		.cfi_startproc
 2832              		@ args = 0, pretend = 0, frame = 0
 2833              		@ frame_needed = 0, uses_anonymous_args = 0
 2834              		@ link register save eliminated.
 2835              		.loc 1 1734 3 view .LVU900
 2836              		.loc 1 1737 3 view .LVU901
 2837              		.loc 1 1738 3 view .LVU902
 2838              		.loc 1 1740 3 view .LVU903
 2839              		.loc 1 1740 17 is_stmt 0 view .LVU904
 2840 0000 026A     		ldr	r2, [r0, #32]
 2841              	.LVL221:
 2842              		.loc 1 1743 3 is_stmt 1 view .LVU905
 2843              		.loc 1 1743 11 is_stmt 0 view .LVU906
 2844 0002 4FF2FF73 		movw	r3, #63487
 2845 0006 1340     		ands	r3, r3, r2
 2846              	.LVL222:
 2847              		.loc 1 1744 3 is_stmt 1 view .LVU907
 2848              		.loc 1 1747 3 view .LVU908
 2849              		.loc 1 1744 11 is_stmt 0 view .LVU909
 2850 0008 43EA0121 		orr	r1, r3, r1, lsl #8
ARM GAS  C:\Users\USER\AppData\Local\Temp\ccNdlOSb.s 			page 51


 2851              	.LVL223:
 2852              		.loc 1 1747 14 view .LVU910
 2853 000c 89B2     		uxth	r1, r1
 2854 000e 0162     		str	r1, [r0, #32]
 2855              		.loc 1 1748 1 view .LVU911
 2856 0010 7047     		bx	lr
 2857              		.cfi_endproc
 2858              	.LFE158:
 2859              		.size	TIM_OC3NPolarityConfig, .-TIM_OC3NPolarityConfig
 2860 0012 00BF     		.section	.text.TIM_OC4PolarityConfig,"ax",%progbits
 2861              		.align	1
 2862              		.p2align 4,,15
 2863              		.global	TIM_OC4PolarityConfig
 2864              		.syntax unified
 2865              		.thumb
 2866              		.thumb_func
 2867              		.fpu fpv4-sp-d16
 2868              		.type	TIM_OC4PolarityConfig, %function
 2869              	TIM_OC4PolarityConfig:
 2870              	.LVL224:
 2871              	.LFB159:
 2872              		.loc 1 1760 1 is_stmt 1 view -0
 2873              		.cfi_startproc
 2874              		@ args = 0, pretend = 0, frame = 0
 2875              		@ frame_needed = 0, uses_anonymous_args = 0
 2876              		@ link register save eliminated.
 2877              		.loc 1 1761 3 view .LVU913
 2878              		.loc 1 1764 3 view .LVU914
 2879              		.loc 1 1765 3 view .LVU915
 2880              		.loc 1 1767 3 view .LVU916
 2881              		.loc 1 1767 17 is_stmt 0 view .LVU917
 2882 0000 026A     		ldr	r2, [r0, #32]
 2883              	.LVL225:
 2884              		.loc 1 1770 3 is_stmt 1 view .LVU918
 2885              		.loc 1 1770 11 is_stmt 0 view .LVU919
 2886 0002 4DF6FF73 		movw	r3, #57343
 2887 0006 1340     		ands	r3, r3, r2
 2888              	.LVL226:
 2889              		.loc 1 1771 3 is_stmt 1 view .LVU920
 2890              		.loc 1 1774 3 view .LVU921
 2891              		.loc 1 1771 11 is_stmt 0 view .LVU922
 2892 0008 43EA0131 		orr	r1, r3, r1, lsl #12
 2893              	.LVL227:
 2894              		.loc 1 1774 14 view .LVU923
 2895 000c 89B2     		uxth	r1, r1
 2896 000e 0162     		str	r1, [r0, #32]
 2897              		.loc 1 1775 1 view .LVU924
 2898 0010 7047     		bx	lr
 2899              		.cfi_endproc
 2900              	.LFE159:
 2901              		.size	TIM_OC4PolarityConfig, .-TIM_OC4PolarityConfig
 2902 0012 00BF     		.section	.text.TIM_CCxCmd,"ax",%progbits
 2903              		.align	1
 2904              		.p2align 4,,15
 2905              		.global	TIM_CCxCmd
 2906              		.syntax unified
 2907              		.thumb
ARM GAS  C:\Users\USER\AppData\Local\Temp\ccNdlOSb.s 			page 52


 2908              		.thumb_func
 2909              		.fpu fpv4-sp-d16
 2910              		.type	TIM_CCxCmd, %function
 2911              	TIM_CCxCmd:
 2912              	.LVL228:
 2913              	.LFB160:
 2914              		.loc 1 1791 1 is_stmt 1 view -0
 2915              		.cfi_startproc
 2916              		@ args = 0, pretend = 0, frame = 0
 2917              		@ frame_needed = 0, uses_anonymous_args = 0
 2918              		@ link register save eliminated.
 2919              		.loc 1 1792 3 view .LVU926
 2920              		.loc 1 1795 3 view .LVU927
 2921              		.loc 1 1796 3 view .LVU928
 2922              		.loc 1 1797 3 view .LVU929
 2923              		.loc 1 1799 3 view .LVU930
 2924              		.loc 1 1802 3 view .LVU931
 2925              		.loc 1 1799 22 is_stmt 0 view .LVU932
 2926 0000 0123     		movs	r3, #1
 2927 0002 8B40     		lsls	r3, r3, r1
 2928              		.loc 1 1791 1 view .LVU933
 2929 0004 10B4     		push	{r4}
 2930              		.cfi_def_cfa_offset 4
 2931              		.cfi_offset 4, -4
 2932              		.loc 1 1802 17 view .LVU934
 2933 0006 DB43     		mvns	r3, r3
 2934              		.loc 1 1802 14 view .LVU935
 2935 0008 046A     		ldr	r4, [r0, #32]
 2936              		.loc 1 1802 17 view .LVU936
 2937 000a 9BB2     		uxth	r3, r3
 2938              		.loc 1 1802 14 view .LVU937
 2939 000c 2340     		ands	r3, r3, r4
 2940 000e 0362     		str	r3, [r0, #32]
 2941              		.loc 1 1805 3 is_stmt 1 view .LVU938
 2942              		.loc 1 1805 37 is_stmt 0 view .LVU939
 2943 0010 02FA01F1 		lsl	r1, r2, r1
 2944              	.LVL229:
 2945              		.loc 1 1805 14 view .LVU940
 2946 0014 026A     		ldr	r2, [r0, #32]
 2947              	.LVL230:
 2948              		.loc 1 1806 1 view .LVU941
 2949 0016 5DF8044B 		ldr	r4, [sp], #4
 2950              		.cfi_restore 4
 2951              		.cfi_def_cfa_offset 0
 2952              		.loc 1 1805 18 view .LVU942
 2953 001a 89B2     		uxth	r1, r1
 2954              		.loc 1 1805 14 view .LVU943
 2955 001c 1143     		orrs	r1, r1, r2
 2956 001e 0162     		str	r1, [r0, #32]
 2957              		.loc 1 1806 1 view .LVU944
 2958 0020 7047     		bx	lr
 2959              		.cfi_endproc
 2960              	.LFE160:
 2961              		.size	TIM_CCxCmd, .-TIM_CCxCmd
 2962 0022 00BF     		.section	.text.TIM_CCxNCmd,"ax",%progbits
 2963              		.align	1
 2964              		.p2align 4,,15
ARM GAS  C:\Users\USER\AppData\Local\Temp\ccNdlOSb.s 			page 53


 2965              		.global	TIM_CCxNCmd
 2966              		.syntax unified
 2967              		.thumb
 2968              		.thumb_func
 2969              		.fpu fpv4-sp-d16
 2970              		.type	TIM_CCxNCmd, %function
 2971              	TIM_CCxNCmd:
 2972              	.LVL231:
 2973              	.LFB161:
 2974              		.loc 1 1821 1 is_stmt 1 view -0
 2975              		.cfi_startproc
 2976              		@ args = 0, pretend = 0, frame = 0
 2977              		@ frame_needed = 0, uses_anonymous_args = 0
 2978              		@ link register save eliminated.
 2979              		.loc 1 1822 3 view .LVU946
 2980              		.loc 1 1825 3 view .LVU947
 2981              		.loc 1 1826 3 view .LVU948
 2982              		.loc 1 1827 3 view .LVU949
 2983              		.loc 1 1829 3 view .LVU950
 2984              		.loc 1 1832 3 view .LVU951
 2985              		.loc 1 1829 23 is_stmt 0 view .LVU952
 2986 0000 0423     		movs	r3, #4
 2987 0002 8B40     		lsls	r3, r3, r1
 2988              		.loc 1 1821 1 view .LVU953
 2989 0004 10B4     		push	{r4}
 2990              		.cfi_def_cfa_offset 4
 2991              		.cfi_offset 4, -4
 2992              		.loc 1 1832 17 view .LVU954
 2993 0006 DB43     		mvns	r3, r3
 2994              		.loc 1 1832 14 view .LVU955
 2995 0008 046A     		ldr	r4, [r0, #32]
 2996              		.loc 1 1832 17 view .LVU956
 2997 000a 9BB2     		uxth	r3, r3
 2998              		.loc 1 1832 14 view .LVU957
 2999 000c 2340     		ands	r3, r3, r4
 3000 000e 0362     		str	r3, [r0, #32]
 3001              		.loc 1 1835 3 is_stmt 1 view .LVU958
 3002              		.loc 1 1835 38 is_stmt 0 view .LVU959
 3003 0010 02FA01F1 		lsl	r1, r2, r1
 3004              	.LVL232:
 3005              		.loc 1 1835 14 view .LVU960
 3006 0014 026A     		ldr	r2, [r0, #32]
 3007              	.LVL233:
 3008              		.loc 1 1836 1 view .LVU961
 3009 0016 5DF8044B 		ldr	r4, [sp], #4
 3010              		.cfi_restore 4
 3011              		.cfi_def_cfa_offset 0
 3012              		.loc 1 1835 18 view .LVU962
 3013 001a 89B2     		uxth	r1, r1
 3014              		.loc 1 1835 14 view .LVU963
 3015 001c 1143     		orrs	r1, r1, r2
 3016 001e 0162     		str	r1, [r0, #32]
 3017              		.loc 1 1836 1 view .LVU964
 3018 0020 7047     		bx	lr
 3019              		.cfi_endproc
 3020              	.LFE161:
 3021              		.size	TIM_CCxNCmd, .-TIM_CCxNCmd
ARM GAS  C:\Users\USER\AppData\Local\Temp\ccNdlOSb.s 			page 54


 3022 0022 00BF     		.section	.text.TIM_ICInit,"ax",%progbits
 3023              		.align	1
 3024              		.p2align 4,,15
 3025              		.global	TIM_ICInit
 3026              		.syntax unified
 3027              		.thumb
 3028              		.thumb_func
 3029              		.fpu fpv4-sp-d16
 3030              		.type	TIM_ICInit, %function
 3031              	TIM_ICInit:
 3032              	.LVL234:
 3033              	.LFB162:
 3034              		.loc 1 1905 1 is_stmt 1 view -0
 3035              		.cfi_startproc
 3036              		@ args = 0, pretend = 0, frame = 0
 3037              		@ frame_needed = 0, uses_anonymous_args = 0
 3038              		@ link register save eliminated.
 3039              		.loc 1 1907 3 view .LVU966
 3040              		.loc 1 1908 3 view .LVU967
 3041              		.loc 1 1909 3 view .LVU968
 3042              		.loc 1 1910 3 view .LVU969
 3043              		.loc 1 1911 3 view .LVU970
 3044              		.loc 1 1913 3 view .LVU971
 3045              		.loc 1 1905 1 is_stmt 0 view .LVU972
 3046 0000 F0B4     		push	{r4, r5, r6, r7}
 3047              		.cfi_def_cfa_offset 16
 3048              		.cfi_offset 4, -16
 3049              		.cfi_offset 5, -12
 3050              		.cfi_offset 6, -8
 3051              		.cfi_offset 7, -4
 3052              		.loc 1 1913 23 view .LVU973
 3053 0002 0C88     		ldrh	r4, [r1]
 3054 0004 4E88     		ldrh	r6, [r1, #2]
 3055 0006 8D88     		ldrh	r5, [r1, #4]
 3056 0008 0F89     		ldrh	r7, [r1, #8]
 3057              	.LBB46:
 3058              	.LBB47:
 3059              		.loc 1 3214 14 view .LVU974
 3060 000a 036A     		ldr	r3, [r0, #32]
 3061 000c C988     		ldrh	r1, [r1, #6]
 3062              	.LVL235:
 3063              		.loc 1 3214 14 view .LVU975
 3064              	.LBE47:
 3065              	.LBE46:
 3066              		.loc 1 1913 6 view .LVU976
 3067 000e F4B9     		cbnz	r4, .L132
 3068              		.loc 1 1916 5 is_stmt 1 view .LVU977
 3069              	.LVL236:
 3070              	.LBB49:
 3071              	.LBI46:
 3072              		.loc 1 3208 13 view .LVU978
 3073              	.LBB48:
 3074              		.loc 1 3211 3 view .LVU979
 3075              		.loc 1 3214 3 view .LVU980
 3076              		.loc 1 3214 14 is_stmt 0 view .LVU981
 3077 0010 4FF6FE72 		movw	r2, #65534
 3078 0014 1340     		ands	r3, r3, r2
ARM GAS  C:\Users\USER\AppData\Local\Temp\ccNdlOSb.s 			page 55


 3079 0016 0362     		str	r3, [r0, #32]
 3080              		.loc 1 3215 3 is_stmt 1 view .LVU982
 3081              		.loc 1 3215 18 is_stmt 0 view .LVU983
 3082 0018 8369     		ldr	r3, [r0, #24]
 3083              		.loc 1 3216 17 view .LVU984
 3084 001a 026A     		ldr	r2, [r0, #32]
 3085              		.loc 1 3215 12 view .LVU985
 3086 001c 9BB2     		uxth	r3, r3
 3087              	.LVL237:
 3088              		.loc 1 3216 3 is_stmt 1 view .LVU986
 3089              		.loc 1 3219 12 is_stmt 0 view .LVU987
 3090 001e 23F0F303 		bic	r3, r3, #243
 3091              	.LVL238:
 3092              		.loc 1 3216 11 view .LVU988
 3093 0022 92B2     		uxth	r2, r2
 3094              	.LVL239:
 3095              		.loc 1 3219 3 is_stmt 1 view .LVU989
 3096              		.loc 1 3220 3 view .LVU990
 3097 0024 43EA0713 		orr	r3, r3, r7, lsl #4
 3098              		.loc 1 3223 11 is_stmt 0 view .LVU991
 3099 0028 22F00A02 		bic	r2, r2, #10
 3100              	.LVL240:
 3101              		.loc 1 3224 11 view .LVU992
 3102 002c 3243     		orrs	r2, r2, r6
 3103 002e 9BB2     		uxth	r3, r3
 3104              	.LVL241:
 3105              		.loc 1 3223 3 is_stmt 1 view .LVU993
 3106              		.loc 1 3224 3 view .LVU994
 3107              		.loc 1 3227 3 view .LVU995
 3108              		.loc 1 3227 15 is_stmt 0 view .LVU996
 3109 0030 2B43     		orrs	r3, r3, r5
 3110              	.LVL242:
 3111              		.loc 1 3228 14 view .LVU997
 3112 0032 42F00102 		orr	r2, r2, #1
 3113              	.LVL243:
 3114              		.loc 1 3227 15 view .LVU998
 3115 0036 8361     		str	r3, [r0, #24]
 3116              		.loc 1 3228 3 is_stmt 1 view .LVU999
 3117              		.loc 1 3228 14 is_stmt 0 view .LVU1000
 3118 0038 0262     		str	r2, [r0, #32]
 3119              	.LVL244:
 3120              		.loc 1 3228 14 view .LVU1001
 3121              	.LBE48:
 3122              	.LBE49:
 3123              		.loc 1 1920 5 is_stmt 1 view .LVU1002
 3124              	.LBB50:
 3125              	.LBI50:
 3126              		.loc 1 2099 6 view .LVU1003
 3127              	.LBB51:
 3128              		.loc 1 2102 3 view .LVU1004
 3129              		.loc 1 2103 3 view .LVU1005
 3130              		.loc 1 2106 3 view .LVU1006
 3131              		.loc 1 2106 15 is_stmt 0 view .LVU1007
 3132 003a 8369     		ldr	r3, [r0, #24]
 3133 003c 4FF6F372 		movw	r2, #65523
 3134 0040 1340     		ands	r3, r3, r2
 3135 0042 8361     		str	r3, [r0, #24]
ARM GAS  C:\Users\USER\AppData\Local\Temp\ccNdlOSb.s 			page 56


 3136              		.loc 1 2109 3 is_stmt 1 view .LVU1008
 3137              		.loc 1 2109 15 is_stmt 0 view .LVU1009
 3138 0044 8369     		ldr	r3, [r0, #24]
 3139 0046 1943     		orrs	r1, r1, r3
 3140 0048 8161     		str	r1, [r0, #24]
 3141              	.LBE51:
 3142              	.LBE50:
 3143              		.loc 1 1952 1 view .LVU1010
 3144 004a F0BC     		pop	{r4, r5, r6, r7}
 3145              		.cfi_remember_state
 3146              		.cfi_restore 7
 3147              		.cfi_restore 6
 3148              		.cfi_restore 5
 3149              		.cfi_restore 4
 3150              		.cfi_def_cfa_offset 0
 3151 004c 7047     		bx	lr
 3152              	.LVL245:
 3153              	.L132:
 3154              		.cfi_restore_state
 3155              		.loc 1 1922 8 is_stmt 1 view .LVU1011
 3156              		.loc 1 1922 11 is_stmt 0 view .LVU1012
 3157 004e 042C     		cmp	r4, #4
 3158 0050 25D0     		beq	.L137
 3159              		.loc 1 1932 8 is_stmt 1 view .LVU1013
 3160              		.loc 1 1932 11 is_stmt 0 view .LVU1014
 3161 0052 082C     		cmp	r4, #8
 3162 0054 48D0     		beq	.L138
 3163              		.loc 1 1945 5 is_stmt 1 view .LVU1015
 3164              		.loc 1 1946 5 view .LVU1016
 3165              	.LVL246:
 3166              	.LBB52:
 3167              	.LBI52:
 3168              		.loc 1 3332 13 view .LVU1017
 3169              	.LBB53:
 3170              		.loc 1 3335 3 view .LVU1018
 3171              		.loc 1 3338 3 view .LVU1019
 3172              		.loc 1 3338 14 is_stmt 0 view .LVU1020
 3173 0056 4EF6FF72 		movw	r2, #61439
 3174 005a 1340     		ands	r3, r3, r2
 3175 005c 0362     		str	r3, [r0, #32]
 3176              		.loc 1 3339 3 is_stmt 1 view .LVU1021
 3177              		.loc 1 3339 18 is_stmt 0 view .LVU1022
 3178 005e C369     		ldr	r3, [r0, #28]
 3179              	.LVL247:
 3180              		.loc 1 3340 3 is_stmt 1 view .LVU1023
 3181              		.loc 1 3340 17 is_stmt 0 view .LVU1024
 3182 0060 026A     		ldr	r2, [r0, #32]
 3183              	.LVL248:
 3184              		.loc 1 3341 3 is_stmt 1 view .LVU1025
 3185              		.loc 1 3344 3 view .LVU1026
 3186              		.loc 1 3344 12 is_stmt 0 view .LVU1027
 3187 0062 40F6FF44 		movw	r4, #3327
 3188 0066 2340     		ands	r3, r3, r4
 3189              	.LVL249:
 3190              		.loc 1 3345 3 is_stmt 1 view .LVU1028
 3191              		.loc 1 3349 11 is_stmt 0 view .LVU1029
 3192 0068 45F6FF74 		movw	r4, #24575
ARM GAS  C:\Users\USER\AppData\Local\Temp\ccNdlOSb.s 			page 57


 3193 006c 2240     		ands	r2, r2, r4
 3194              	.LVL250:
 3195              		.loc 1 3345 12 view .LVU1030
 3196 006e 43EA0523 		orr	r3, r3, r5, lsl #8
 3197              	.LVL251:
 3198              		.loc 1 3346 3 is_stmt 1 view .LVU1031
 3199              		.loc 1 3349 3 view .LVU1032
 3200              		.loc 1 3350 3 view .LVU1033
 3201              		.loc 1 3350 11 is_stmt 0 view .LVU1034
 3202 0072 42EA0632 		orr	r2, r2, r6, lsl #12
 3203              		.loc 1 3346 12 view .LVU1035
 3204 0076 43EA0733 		orr	r3, r3, r7, lsl #12
 3205              	.LVL252:
 3206              		.loc 1 3350 11 view .LVU1036
 3207 007a 92B2     		uxth	r2, r2
 3208              	.LVL253:
 3209              		.loc 1 3353 3 is_stmt 1 view .LVU1037
 3210              		.loc 1 3353 15 is_stmt 0 view .LVU1038
 3211 007c 9BB2     		uxth	r3, r3
 3212              		.loc 1 3354 14 view .LVU1039
 3213 007e 42F48052 		orr	r2, r2, #4096
 3214              	.LVL254:
 3215              		.loc 1 3353 15 view .LVU1040
 3216 0082 C361     		str	r3, [r0, #28]
 3217              		.loc 1 3354 3 is_stmt 1 view .LVU1041
 3218              		.loc 1 3354 14 is_stmt 0 view .LVU1042
 3219 0084 0262     		str	r2, [r0, #32]
 3220              	.LVL255:
 3221              		.loc 1 3354 14 view .LVU1043
 3222              	.LBE53:
 3223              	.LBE52:
 3224              		.loc 1 1950 5 is_stmt 1 view .LVU1044
 3225              	.LBB54:
 3226              	.LBI54:
 3227              		.loc 1 2172 6 view .LVU1045
 3228              	.LBB55:
 3229              		.loc 1 2175 3 view .LVU1046
 3230              		.loc 1 2176 3 view .LVU1047
 3231              		.loc 1 2179 3 view .LVU1048
 3232              		.loc 1 2179 15 is_stmt 0 view .LVU1049
 3233 0086 C369     		ldr	r3, [r0, #28]
 3234 0088 4FF2FF32 		movw	r2, #62463
 3235 008c 1340     		ands	r3, r3, r2
 3236 008e C361     		str	r3, [r0, #28]
 3237              		.loc 1 2182 3 is_stmt 1 view .LVU1050
 3238              		.loc 1 2182 15 is_stmt 0 view .LVU1051
 3239 0090 C369     		ldr	r3, [r0, #28]
 3240              		.loc 1 2182 18 view .LVU1052
 3241 0092 0902     		lsls	r1, r1, #8
 3242 0094 89B2     		uxth	r1, r1
 3243              		.loc 1 2182 15 view .LVU1053
 3244 0096 1943     		orrs	r1, r1, r3
 3245 0098 C161     		str	r1, [r0, #28]
 3246              	.LBE55:
 3247              	.LBE54:
 3248              		.loc 1 1952 1 view .LVU1054
 3249 009a F0BC     		pop	{r4, r5, r6, r7}
ARM GAS  C:\Users\USER\AppData\Local\Temp\ccNdlOSb.s 			page 58


 3250              		.cfi_remember_state
 3251              		.cfi_restore 7
 3252              		.cfi_restore 6
 3253              		.cfi_restore 5
 3254              		.cfi_restore 4
 3255              		.cfi_def_cfa_offset 0
 3256 009c 7047     		bx	lr
 3257              	.LVL256:
 3258              	.L137:
 3259              		.cfi_restore_state
 3260              		.loc 1 1925 5 is_stmt 1 view .LVU1055
 3261              		.loc 1 1926 5 view .LVU1056
 3262              	.LBB56:
 3263              	.LBI56:
 3264              		.loc 1 3249 13 view .LVU1057
 3265              	.LBB57:
 3266              		.loc 1 3252 3 view .LVU1058
 3267              		.loc 1 3255 3 view .LVU1059
 3268              		.loc 1 3255 14 is_stmt 0 view .LVU1060
 3269 009e 4FF6EF72 		movw	r2, #65519
 3270 00a2 1340     		ands	r3, r3, r2
 3271 00a4 0362     		str	r3, [r0, #32]
 3272              		.loc 1 3256 3 is_stmt 1 view .LVU1061
 3273              		.loc 1 3256 18 is_stmt 0 view .LVU1062
 3274 00a6 8369     		ldr	r3, [r0, #24]
 3275              	.LVL257:
 3276              		.loc 1 3257 3 is_stmt 1 view .LVU1063
 3277              		.loc 1 3257 17 is_stmt 0 view .LVU1064
 3278 00a8 026A     		ldr	r2, [r0, #32]
 3279              		.loc 1 3261 12 view .LVU1065
 3280 00aa 40F6FF44 		movw	r4, #3327
 3281 00ae 2340     		ands	r3, r3, r4
 3282              	.LVL258:
 3283              		.loc 1 3257 11 view .LVU1066
 3284 00b0 92B2     		uxth	r2, r2
 3285              	.LVL259:
 3286              		.loc 1 3258 3 is_stmt 1 view .LVU1067
 3287              		.loc 1 3261 3 view .LVU1068
 3288              		.loc 1 3262 3 view .LVU1069
 3289              		.loc 1 3262 12 is_stmt 0 view .LVU1070
 3290 00b2 43EA0733 		orr	r3, r3, r7, lsl #12
 3291              	.LVL260:
 3292              		.loc 1 3266 11 view .LVU1071
 3293 00b6 22F0A002 		bic	r2, r2, #160
 3294              	.LVL261:
 3295              		.loc 1 3267 11 view .LVU1072
 3296 00ba 42EA0612 		orr	r2, r2, r6, lsl #4
 3297              		.loc 1 3262 12 view .LVU1073
 3298 00be 9BB2     		uxth	r3, r3
 3299              	.LVL262:
 3300              		.loc 1 3263 3 is_stmt 1 view .LVU1074
 3301              		.loc 1 3266 3 view .LVU1075
 3302              		.loc 1 3267 3 view .LVU1076
 3303              		.loc 1 3263 12 is_stmt 0 view .LVU1077
 3304 00c0 43EA0523 		orr	r3, r3, r5, lsl #8
 3305              	.LVL263:
 3306              		.loc 1 3267 11 view .LVU1078
ARM GAS  C:\Users\USER\AppData\Local\Temp\ccNdlOSb.s 			page 59


 3307 00c4 92B2     		uxth	r2, r2
 3308              	.LVL264:
 3309              		.loc 1 3270 3 is_stmt 1 view .LVU1079
 3310              		.loc 1 3270 15 is_stmt 0 view .LVU1080
 3311 00c6 9BB2     		uxth	r3, r3
 3312              		.loc 1 3271 14 view .LVU1081
 3313 00c8 42F01002 		orr	r2, r2, #16
 3314              	.LVL265:
 3315              		.loc 1 3270 15 view .LVU1082
 3316 00cc 8361     		str	r3, [r0, #24]
 3317              		.loc 1 3271 3 is_stmt 1 view .LVU1083
 3318              		.loc 1 3271 14 is_stmt 0 view .LVU1084
 3319 00ce 0262     		str	r2, [r0, #32]
 3320              	.LVL266:
 3321              		.loc 1 3271 14 view .LVU1085
 3322              	.LBE57:
 3323              	.LBE56:
 3324              		.loc 1 1930 5 is_stmt 1 view .LVU1086
 3325              	.LBB58:
 3326              	.LBI58:
 3327              		.loc 1 2124 6 view .LVU1087
 3328              	.LBB59:
 3329              		.loc 1 2127 3 view .LVU1088
 3330              		.loc 1 2128 3 view .LVU1089
 3331              		.loc 1 2131 3 view .LVU1090
 3332              		.loc 1 2131 15 is_stmt 0 view .LVU1091
 3333 00d0 8369     		ldr	r3, [r0, #24]
 3334 00d2 4FF2FF32 		movw	r2, #62463
 3335 00d6 1340     		ands	r3, r3, r2
 3336 00d8 8361     		str	r3, [r0, #24]
 3337              		.loc 1 2134 3 is_stmt 1 view .LVU1092
 3338              		.loc 1 2134 15 is_stmt 0 view .LVU1093
 3339 00da 8369     		ldr	r3, [r0, #24]
 3340              		.loc 1 2134 18 view .LVU1094
 3341 00dc 0902     		lsls	r1, r1, #8
 3342 00de 89B2     		uxth	r1, r1
 3343              		.loc 1 2134 15 view .LVU1095
 3344 00e0 1943     		orrs	r1, r1, r3
 3345 00e2 8161     		str	r1, [r0, #24]
 3346              	.LBE59:
 3347              	.LBE58:
 3348              		.loc 1 1952 1 view .LVU1096
 3349 00e4 F0BC     		pop	{r4, r5, r6, r7}
 3350              		.cfi_remember_state
 3351              		.cfi_restore 7
 3352              		.cfi_restore 6
 3353              		.cfi_restore 5
 3354              		.cfi_restore 4
 3355              		.cfi_def_cfa_offset 0
 3356 00e6 7047     		bx	lr
 3357              	.LVL267:
 3358              	.L138:
 3359              		.cfi_restore_state
 3360              		.loc 1 1935 5 is_stmt 1 view .LVU1097
 3361              		.loc 1 1936 5 view .LVU1098
 3362              	.LBB60:
 3363              	.LBI60:
ARM GAS  C:\Users\USER\AppData\Local\Temp\ccNdlOSb.s 			page 60


 3364              		.loc 1 3291 13 view .LVU1099
 3365              	.LBB61:
 3366              		.loc 1 3294 3 view .LVU1100
 3367              		.loc 1 3297 3 view .LVU1101
 3368              		.loc 1 3297 14 is_stmt 0 view .LVU1102
 3369 00e8 4FF6FF62 		movw	r2, #65279
 3370 00ec 1340     		ands	r3, r3, r2
 3371 00ee 0362     		str	r3, [r0, #32]
 3372              		.loc 1 3298 3 is_stmt 1 view .LVU1103
 3373              		.loc 1 3298 18 is_stmt 0 view .LVU1104
 3374 00f0 C369     		ldr	r3, [r0, #28]
 3375              		.loc 1 3299 17 view .LVU1105
 3376 00f2 026A     		ldr	r2, [r0, #32]
 3377              		.loc 1 3298 12 view .LVU1106
 3378 00f4 9BB2     		uxth	r3, r3
 3379              	.LVL268:
 3380              		.loc 1 3299 3 is_stmt 1 view .LVU1107
 3381              		.loc 1 3299 11 is_stmt 0 view .LVU1108
 3382 00f6 92B2     		uxth	r2, r2
 3383              	.LVL269:
 3384              		.loc 1 3300 3 is_stmt 1 view .LVU1109
 3385              		.loc 1 3303 3 view .LVU1110
 3386              		.loc 1 3304 3 view .LVU1111
 3387              		.loc 1 3303 12 is_stmt 0 view .LVU1112
 3388 00f8 23F0F303 		bic	r3, r3, #243
 3389              	.LVL270:
 3390              		.loc 1 3307 11 view .LVU1113
 3391 00fc 22F42062 		bic	r2, r2, #2560
 3392              	.LVL271:
 3393              		.loc 1 3307 11 view .LVU1114
 3394 0100 43EA0713 		orr	r3, r3, r7, lsl #4
 3395              		.loc 1 3308 11 view .LVU1115
 3396 0104 42EA0622 		orr	r2, r2, r6, lsl #8
 3397 0108 9BB2     		uxth	r3, r3
 3398              	.LVL272:
 3399              		.loc 1 3307 3 is_stmt 1 view .LVU1116
 3400              		.loc 1 3308 3 view .LVU1117
 3401              		.loc 1 3308 11 is_stmt 0 view .LVU1118
 3402 010a 92B2     		uxth	r2, r2
 3403              	.LVL273:
 3404              		.loc 1 3311 3 is_stmt 1 view .LVU1119
 3405              		.loc 1 3311 15 is_stmt 0 view .LVU1120
 3406 010c 2B43     		orrs	r3, r3, r5
 3407              	.LVL274:
 3408              		.loc 1 3312 14 view .LVU1121
 3409 010e 42F48072 		orr	r2, r2, #256
 3410              	.LVL275:
 3411              		.loc 1 3311 15 view .LVU1122
 3412 0112 C361     		str	r3, [r0, #28]
 3413              		.loc 1 3312 3 is_stmt 1 view .LVU1123
 3414              		.loc 1 3312 14 is_stmt 0 view .LVU1124
 3415 0114 0262     		str	r2, [r0, #32]
 3416              	.LVL276:
 3417              		.loc 1 3312 14 view .LVU1125
 3418              	.LBE61:
 3419              	.LBE60:
 3420              		.loc 1 1940 5 is_stmt 1 view .LVU1126
ARM GAS  C:\Users\USER\AppData\Local\Temp\ccNdlOSb.s 			page 61


 3421              	.LBB62:
 3422              	.LBI62:
 3423              		.loc 1 2148 6 view .LVU1127
 3424              	.LBB63:
 3425              		.loc 1 2151 3 view .LVU1128
 3426              		.loc 1 2152 3 view .LVU1129
 3427              		.loc 1 2155 3 view .LVU1130
 3428              		.loc 1 2155 15 is_stmt 0 view .LVU1131
 3429 0116 C369     		ldr	r3, [r0, #28]
 3430 0118 4FF6F372 		movw	r2, #65523
 3431 011c 1340     		ands	r3, r3, r2
 3432 011e C361     		str	r3, [r0, #28]
 3433              		.loc 1 2158 3 is_stmt 1 view .LVU1132
 3434              		.loc 1 2158 15 is_stmt 0 view .LVU1133
 3435 0120 C369     		ldr	r3, [r0, #28]
 3436 0122 1943     		orrs	r1, r1, r3
 3437 0124 C161     		str	r1, [r0, #28]
 3438              	.LBE63:
 3439              	.LBE62:
 3440              		.loc 1 1952 1 view .LVU1134
 3441 0126 F0BC     		pop	{r4, r5, r6, r7}
 3442              		.cfi_restore 7
 3443              		.cfi_restore 6
 3444              		.cfi_restore 5
 3445              		.cfi_restore 4
 3446              		.cfi_def_cfa_offset 0
 3447 0128 7047     		bx	lr
 3448              		.cfi_endproc
 3449              	.LFE162:
 3450              		.size	TIM_ICInit, .-TIM_ICInit
 3451 012a 00BF     		.section	.text.TIM_ICStructInit,"ax",%progbits
 3452              		.align	1
 3453              		.p2align 4,,15
 3454              		.global	TIM_ICStructInit
 3455              		.syntax unified
 3456              		.thumb
 3457              		.thumb_func
 3458              		.fpu fpv4-sp-d16
 3459              		.type	TIM_ICStructInit, %function
 3460              	TIM_ICStructInit:
 3461              	.LVL277:
 3462              	.LFB163:
 3463              		.loc 1 1961 1 is_stmt 1 view -0
 3464              		.cfi_startproc
 3465              		@ args = 0, pretend = 0, frame = 0
 3466              		@ frame_needed = 0, uses_anonymous_args = 0
 3467              		@ link register save eliminated.
 3468              		.loc 1 1963 3 view .LVU1136
 3469              		.loc 1 1963 33 is_stmt 0 view .LVU1137
 3470 0000 0023     		movs	r3, #0
 3471              		.loc 1 1965 37 view .LVU1138
 3472 0002 0122     		movs	r2, #1
 3473 0004 8280     		strh	r2, [r0, #4]	@ movhi
 3474              		.loc 1 1963 33 view .LVU1139
 3475 0006 0380     		strh	r3, [r0]	@ movhi
 3476              		.loc 1 1964 3 is_stmt 1 view .LVU1140
 3477              		.loc 1 1964 36 is_stmt 0 view .LVU1141
ARM GAS  C:\Users\USER\AppData\Local\Temp\ccNdlOSb.s 			page 62


 3478 0008 4380     		strh	r3, [r0, #2]	@ movhi
 3479              		.loc 1 1965 3 is_stmt 1 view .LVU1142
 3480              		.loc 1 1966 3 view .LVU1143
 3481              		.loc 1 1966 37 is_stmt 0 view .LVU1144
 3482 000a C380     		strh	r3, [r0, #6]	@ movhi
 3483              		.loc 1 1967 3 is_stmt 1 view .LVU1145
 3484              		.loc 1 1967 34 is_stmt 0 view .LVU1146
 3485 000c 0381     		strh	r3, [r0, #8]	@ movhi
 3486              		.loc 1 1968 1 view .LVU1147
 3487 000e 7047     		bx	lr
 3488              		.cfi_endproc
 3489              	.LFE163:
 3490              		.size	TIM_ICStructInit, .-TIM_ICStructInit
 3491              		.section	.text.TIM_PWMIConfig,"ax",%progbits
 3492              		.align	1
 3493              		.p2align 4,,15
 3494              		.global	TIM_PWMIConfig
 3495              		.syntax unified
 3496              		.thumb
 3497              		.thumb_func
 3498              		.fpu fpv4-sp-d16
 3499              		.type	TIM_PWMIConfig, %function
 3500              	TIM_PWMIConfig:
 3501              	.LVL278:
 3502              	.LFB164:
 3503              		.loc 1 1980 1 is_stmt 1 view -0
 3504              		.cfi_startproc
 3505              		@ args = 0, pretend = 0, frame = 0
 3506              		@ frame_needed = 0, uses_anonymous_args = 0
 3507              		.loc 1 1981 3 view .LVU1149
 3508              		.loc 1 1982 3 view .LVU1150
 3509              		.loc 1 1985 3 view .LVU1151
 3510              		.loc 1 1988 3 view .LVU1152
 3511              		.loc 1 1980 1 is_stmt 0 view .LVU1153
 3512 0000 2DE9F043 		push	{r4, r5, r6, r7, r8, r9, lr}
 3513              		.cfi_def_cfa_offset 28
 3514              		.cfi_offset 4, -28
 3515              		.cfi_offset 5, -24
 3516              		.cfi_offset 6, -20
 3517              		.cfi_offset 7, -16
 3518              		.cfi_offset 8, -12
 3519              		.cfi_offset 9, -8
 3520              		.cfi_offset 14, -4
 3521              		.loc 1 1988 23 view .LVU1154
 3522 0004 B1F802E0 		ldrh	lr, [r1, #2]
 3523              		.loc 1 1997 23 view .LVU1155
 3524 0008 B1F804C0 		ldrh	ip, [r1, #4]
 3525 000c 0B89     		ldrh	r3, [r1, #8]
 3526 000e CE88     		ldrh	r6, [r1, #6]
 3527              		.loc 1 2005 6 view .LVU1156
 3528 0010 0A88     		ldrh	r2, [r1]
 3529              		.loc 1 1988 6 view .LVU1157
 3530 0012 BEF1000F 		cmp	lr, #0
 3531 0016 4FEA0311 		lsl	r1, r3, #4
 3532              	.LVL279:
 3533              		.loc 1 1994 24 view .LVU1158
 3534 001a 0CBF     		ite	eq
ARM GAS  C:\Users\USER\AppData\Local\Temp\ccNdlOSb.s 			page 63


 3535 001c 0224     		moveq	r4, #2
 3536 001e 0024     		movne	r4, #0
 3537              	.LVL280:
 3538              		.loc 1 1997 3 is_stmt 1 view .LVU1159
 3539 0020 1B03     		lsls	r3, r3, #12
 3540              		.loc 1 1997 6 is_stmt 0 view .LVU1160
 3541 0022 BCF1010F 		cmp	ip, #1
 3542 0026 4FEA0625 		lsl	r5, r6, #8
 3543              		.loc 1 2003 25 view .LVU1161
 3544 002a 0CBF     		ite	eq
 3545 002c 0227     		moveq	r7, #2
 3546 002e 0127     		movne	r7, #1
 3547              	.LVL281:
 3548              		.loc 1 2005 3 is_stmt 1 view .LVU1162
 3549 0030 89B2     		uxth	r1, r1
 3550 0032 9BB2     		uxth	r3, r3
 3551 0034 ADB2     		uxth	r5, r5
 3552              		.loc 1 2005 6 is_stmt 0 view .LVU1163
 3553 0036 002A     		cmp	r2, #0
 3554 0038 41D1     		bne	.L143
 3555              		.loc 1 2008 5 is_stmt 1 view .LVU1164
 3556              	.LVL282:
 3557              	.LBB64:
 3558              	.LBI64:
 3559              		.loc 1 3208 13 view .LVU1165
 3560              	.LBB65:
 3561              		.loc 1 3211 3 view .LVU1166
 3562              		.loc 1 3214 3 view .LVU1167
 3563              		.loc 1 3214 14 is_stmt 0 view .LVU1168
 3564 003a 026A     		ldr	r2, [r0, #32]
 3565 003c 4FF6FE78 		movw	r8, #65534
 3566 0040 02EA0802 		and	r2, r2, r8
 3567 0044 0262     		str	r2, [r0, #32]
 3568              		.loc 1 3215 3 is_stmt 1 view .LVU1169
 3569              		.loc 1 3215 18 is_stmt 0 view .LVU1170
 3570 0046 D0F81880 		ldr	r8, [r0, #24]
 3571              		.loc 1 3216 17 view .LVU1171
 3572 004a 026A     		ldr	r2, [r0, #32]
 3573              		.loc 1 3215 12 view .LVU1172
 3574 004c 1FFA88F8 		uxth	r8, r8
 3575              	.LVL283:
 3576              		.loc 1 3216 3 is_stmt 1 view .LVU1173
 3577              		.loc 1 3216 11 is_stmt 0 view .LVU1174
 3578 0050 92B2     		uxth	r2, r2
 3579              	.LVL284:
 3580              		.loc 1 3219 3 is_stmt 1 view .LVU1175
 3581              		.loc 1 3220 3 view .LVU1176
 3582              		.loc 1 3219 12 is_stmt 0 view .LVU1177
 3583 0052 28F0F308 		bic	r8, r8, #243
 3584              	.LVL285:
 3585              		.loc 1 3223 11 view .LVU1178
 3586 0056 22F00A02 		bic	r2, r2, #10
 3587              	.LVL286:
 3588              		.loc 1 3223 11 view .LVU1179
 3589 005a 41EA0801 		orr	r1, r1, r8
 3590              	.LVL287:
 3591              		.loc 1 3223 3 is_stmt 1 view .LVU1180
ARM GAS  C:\Users\USER\AppData\Local\Temp\ccNdlOSb.s 			page 64


 3592              		.loc 1 3224 3 view .LVU1181
 3593              		.loc 1 3224 11 is_stmt 0 view .LVU1182
 3594 005e 4EEA0202 		orr	r2, lr, r2
 3595              	.LVL288:
 3596              		.loc 1 3227 3 is_stmt 1 view .LVU1183
 3597              		.loc 1 3227 15 is_stmt 0 view .LVU1184
 3598 0062 4CEA0101 		orr	r1, ip, r1
 3599              	.LVL289:
 3600              		.loc 1 3228 14 view .LVU1185
 3601 0066 42F00102 		orr	r2, r2, #1
 3602              	.LVL290:
 3603              		.loc 1 3227 15 view .LVU1186
 3604 006a 8161     		str	r1, [r0, #24]
 3605              		.loc 1 3228 3 is_stmt 1 view .LVU1187
 3606              		.loc 1 3228 14 is_stmt 0 view .LVU1188
 3607 006c 0262     		str	r2, [r0, #32]
 3608              	.LVL291:
 3609              		.loc 1 3228 14 view .LVU1189
 3610              	.LBE65:
 3611              	.LBE64:
 3612              		.loc 1 2011 5 is_stmt 1 view .LVU1190
 3613              	.LBB66:
 3614              	.LBI66:
 3615              		.loc 1 2099 6 view .LVU1191
 3616              	.LBB67:
 3617              		.loc 1 2102 3 view .LVU1192
 3618              		.loc 1 2103 3 view .LVU1193
 3619              		.loc 1 2106 3 view .LVU1194
 3620              		.loc 1 2106 15 is_stmt 0 view .LVU1195
 3621 006e 8269     		ldr	r2, [r0, #24]
 3622 0070 4FF6F371 		movw	r1, #65523
 3623 0074 0A40     		ands	r2, r2, r1
 3624 0076 8261     		str	r2, [r0, #24]
 3625              		.loc 1 2109 3 is_stmt 1 view .LVU1196
 3626              		.loc 1 2109 15 is_stmt 0 view .LVU1197
 3627 0078 8269     		ldr	r2, [r0, #24]
 3628 007a 1643     		orrs	r6, r6, r2
 3629 007c 8661     		str	r6, [r0, #24]
 3630              	.LVL292:
 3631              		.loc 1 2109 15 view .LVU1198
 3632              	.LBE67:
 3633              	.LBE66:
 3634              		.loc 1 2013 5 is_stmt 1 view .LVU1199
 3635              	.LBB68:
 3636              	.LBI68:
 3637              		.loc 1 3249 13 view .LVU1200
 3638              	.LBB69:
 3639              		.loc 1 3252 3 view .LVU1201
 3640              		.loc 1 3255 3 view .LVU1202
 3641              		.loc 1 3255 14 is_stmt 0 view .LVU1203
 3642 007e 026A     		ldr	r2, [r0, #32]
 3643 0080 4FF6EF71 		movw	r1, #65519
 3644 0084 0A40     		ands	r2, r2, r1
 3645 0086 0262     		str	r2, [r0, #32]
 3646              		.loc 1 3256 3 is_stmt 1 view .LVU1204
 3647              		.loc 1 3256 18 is_stmt 0 view .LVU1205
 3648 0088 8169     		ldr	r1, [r0, #24]
ARM GAS  C:\Users\USER\AppData\Local\Temp\ccNdlOSb.s 			page 65


 3649              	.LVL293:
 3650              		.loc 1 3257 3 is_stmt 1 view .LVU1206
 3651              		.loc 1 3257 17 is_stmt 0 view .LVU1207
 3652 008a 026A     		ldr	r2, [r0, #32]
 3653              		.loc 1 3261 12 view .LVU1208
 3654 008c 40F6FF46 		movw	r6, #3327
 3655              		.loc 1 3257 11 view .LVU1209
 3656 0090 92B2     		uxth	r2, r2
 3657              	.LVL294:
 3658              		.loc 1 3258 3 is_stmt 1 view .LVU1210
 3659              		.loc 1 3261 3 view .LVU1211
 3660              		.loc 1 3266 11 is_stmt 0 view .LVU1212
 3661 0092 22F0A002 		bic	r2, r2, #160
 3662              	.LVL295:
 3663              		.loc 1 3261 12 view .LVU1213
 3664 0096 3140     		ands	r1, r1, r6
 3665              	.LVL296:
 3666              		.loc 1 3262 3 is_stmt 1 view .LVU1214
 3667              		.loc 1 3262 12 is_stmt 0 view .LVU1215
 3668 0098 0B43     		orrs	r3, r3, r1
 3669              	.LVL297:
 3670              		.loc 1 3263 3 is_stmt 1 view .LVU1216
 3671              		.loc 1 3266 3 view .LVU1217
 3672              		.loc 1 3267 3 view .LVU1218
 3673              		.loc 1 3267 11 is_stmt 0 view .LVU1219
 3674 009a 42EA0414 		orr	r4, r2, r4, lsl #4
 3675              	.LVL298:
 3676              		.loc 1 3270 3 is_stmt 1 view .LVU1220
 3677              		.loc 1 3270 15 is_stmt 0 view .LVU1221
 3678 009e 43EA0727 		orr	r7, r3, r7, lsl #8
 3679              	.LVL299:
 3680              		.loc 1 3271 14 view .LVU1222
 3681 00a2 44F01004 		orr	r4, r4, #16
 3682              	.LVL300:
 3683              		.loc 1 3270 15 view .LVU1223
 3684 00a6 8761     		str	r7, [r0, #24]
 3685              		.loc 1 3271 3 is_stmt 1 view .LVU1224
 3686              		.loc 1 3271 14 is_stmt 0 view .LVU1225
 3687 00a8 0462     		str	r4, [r0, #32]
 3688              	.LVL301:
 3689              		.loc 1 3271 14 view .LVU1226
 3690              	.LBE69:
 3691              	.LBE68:
 3692              		.loc 1 2015 5 is_stmt 1 view .LVU1227
 3693              	.LBB70:
 3694              	.LBI70:
 3695              		.loc 1 2124 6 view .LVU1228
 3696              	.LBB71:
 3697              		.loc 1 2127 3 view .LVU1229
 3698              		.loc 1 2128 3 view .LVU1230
 3699              		.loc 1 2131 3 view .LVU1231
 3700              		.loc 1 2131 15 is_stmt 0 view .LVU1232
 3701 00aa 8369     		ldr	r3, [r0, #24]
 3702 00ac 4FF2FF32 		movw	r2, #62463
 3703 00b0 1340     		ands	r3, r3, r2
 3704 00b2 8361     		str	r3, [r0, #24]
 3705              		.loc 1 2134 3 is_stmt 1 view .LVU1233
ARM GAS  C:\Users\USER\AppData\Local\Temp\ccNdlOSb.s 			page 66


 3706              		.loc 1 2134 15 is_stmt 0 view .LVU1234
 3707 00b4 8369     		ldr	r3, [r0, #24]
 3708 00b6 1D43     		orrs	r5, r5, r3
 3709 00b8 8561     		str	r5, [r0, #24]
 3710              	.LBE71:
 3711              	.LBE70:
 3712              		.loc 1 2029 1 view .LVU1235
 3713 00ba BDE8F083 		pop	{r4, r5, r6, r7, r8, r9, pc}
 3714              	.LVL302:
 3715              	.L143:
 3716              		.loc 1 2020 5 is_stmt 1 view .LVU1236
 3717              	.LBB72:
 3718              	.LBI72:
 3719              		.loc 1 3249 13 view .LVU1237
 3720              	.LBB73:
 3721              		.loc 1 3252 3 view .LVU1238
 3722              		.loc 1 3255 3 view .LVU1239
 3723              		.loc 1 3255 14 is_stmt 0 view .LVU1240
 3724 00be 026A     		ldr	r2, [r0, #32]
 3725 00c0 4FF6EF78 		movw	r8, #65519
 3726 00c4 02EA0802 		and	r2, r2, r8
 3727 00c8 0262     		str	r2, [r0, #32]
 3728              		.loc 1 3256 3 is_stmt 1 view .LVU1241
 3729              		.loc 1 3256 18 is_stmt 0 view .LVU1242
 3730 00ca D0F81880 		ldr	r8, [r0, #24]
 3731              	.LVL303:
 3732              		.loc 1 3257 3 is_stmt 1 view .LVU1243
 3733              		.loc 1 3257 17 is_stmt 0 view .LVU1244
 3734 00ce 026A     		ldr	r2, [r0, #32]
 3735              		.loc 1 3261 12 view .LVU1245
 3736 00d0 40F6FF49 		movw	r9, #3327
 3737              		.loc 1 3257 11 view .LVU1246
 3738 00d4 92B2     		uxth	r2, r2
 3739              	.LVL304:
 3740              		.loc 1 3258 3 is_stmt 1 view .LVU1247
 3741              		.loc 1 3261 3 view .LVU1248
 3742              		.loc 1 3261 12 is_stmt 0 view .LVU1249
 3743 00d6 08EA0908 		and	r8, r8, r9
 3744              	.LVL305:
 3745              		.loc 1 3262 3 is_stmt 1 view .LVU1250
 3746              		.loc 1 3266 11 is_stmt 0 view .LVU1251
 3747 00da 22F0A002 		bic	r2, r2, #160
 3748              	.LVL306:
 3749              		.loc 1 3262 12 view .LVU1252
 3750 00de 48EA0303 		orr	r3, r8, r3
 3751              	.LVL307:
 3752              		.loc 1 3263 3 is_stmt 1 view .LVU1253
 3753              		.loc 1 3266 3 view .LVU1254
 3754              		.loc 1 3267 3 view .LVU1255
 3755              		.loc 1 3267 11 is_stmt 0 view .LVU1256
 3756 00e2 42EA0E12 		orr	r2, r2, lr, lsl #4
 3757              		.loc 1 3263 12 view .LVU1257
 3758 00e6 43EA0C23 		orr	r3, r3, ip, lsl #8
 3759              	.LVL308:
 3760              		.loc 1 3267 11 view .LVU1258
 3761 00ea 92B2     		uxth	r2, r2
 3762              	.LVL309:
ARM GAS  C:\Users\USER\AppData\Local\Temp\ccNdlOSb.s 			page 67


 3763              		.loc 1 3270 3 is_stmt 1 view .LVU1259
 3764              		.loc 1 3270 15 is_stmt 0 view .LVU1260
 3765 00ec 9BB2     		uxth	r3, r3
 3766              		.loc 1 3271 14 view .LVU1261
 3767 00ee 42F01002 		orr	r2, r2, #16
 3768              	.LVL310:
 3769              		.loc 1 3270 15 view .LVU1262
 3770 00f2 8361     		str	r3, [r0, #24]
 3771              		.loc 1 3271 3 is_stmt 1 view .LVU1263
 3772              		.loc 1 3271 14 is_stmt 0 view .LVU1264
 3773 00f4 0262     		str	r2, [r0, #32]
 3774              	.LVL311:
 3775              		.loc 1 3271 14 view .LVU1265
 3776              	.LBE73:
 3777              	.LBE72:
 3778              		.loc 1 2023 5 is_stmt 1 view .LVU1266
 3779              	.LBB74:
 3780              	.LBI74:
 3781              		.loc 1 2124 6 view .LVU1267
 3782              	.LBB75:
 3783              		.loc 1 2127 3 view .LVU1268
 3784              		.loc 1 2128 3 view .LVU1269
 3785              		.loc 1 2131 3 view .LVU1270
 3786              		.loc 1 2131 15 is_stmt 0 view .LVU1271
 3787 00f6 8369     		ldr	r3, [r0, #24]
 3788 00f8 4FF2FF32 		movw	r2, #62463
 3789 00fc 1340     		ands	r3, r3, r2
 3790 00fe 8361     		str	r3, [r0, #24]
 3791              		.loc 1 2134 3 is_stmt 1 view .LVU1272
 3792              		.loc 1 2134 15 is_stmt 0 view .LVU1273
 3793 0100 8369     		ldr	r3, [r0, #24]
 3794 0102 1D43     		orrs	r5, r5, r3
 3795 0104 8561     		str	r5, [r0, #24]
 3796              	.LVL312:
 3797              		.loc 1 2134 15 view .LVU1274
 3798              	.LBE75:
 3799              	.LBE74:
 3800              		.loc 1 2025 5 is_stmt 1 view .LVU1275
 3801              	.LBB76:
 3802              	.LBI76:
 3803              		.loc 1 3208 13 view .LVU1276
 3804              	.LBB77:
 3805              		.loc 1 3211 3 view .LVU1277
 3806              		.loc 1 3214 3 view .LVU1278
 3807              		.loc 1 3214 14 is_stmt 0 view .LVU1279
 3808 0106 036A     		ldr	r3, [r0, #32]
 3809 0108 4FF6FE72 		movw	r2, #65534
 3810 010c 1340     		ands	r3, r3, r2
 3811 010e 0362     		str	r3, [r0, #32]
 3812              		.loc 1 3215 3 is_stmt 1 view .LVU1280
 3813              		.loc 1 3215 18 is_stmt 0 view .LVU1281
 3814 0110 8269     		ldr	r2, [r0, #24]
 3815              		.loc 1 3216 17 view .LVU1282
 3816 0112 036A     		ldr	r3, [r0, #32]
 3817              		.loc 1 3215 12 view .LVU1283
 3818 0114 92B2     		uxth	r2, r2
 3819              	.LVL313:
ARM GAS  C:\Users\USER\AppData\Local\Temp\ccNdlOSb.s 			page 68


 3820              		.loc 1 3216 3 is_stmt 1 view .LVU1284
 3821              		.loc 1 3216 11 is_stmt 0 view .LVU1285
 3822 0116 9BB2     		uxth	r3, r3
 3823              	.LVL314:
 3824              		.loc 1 3219 3 is_stmt 1 view .LVU1286
 3825              		.loc 1 3220 3 view .LVU1287
 3826              		.loc 1 3219 12 is_stmt 0 view .LVU1288
 3827 0118 22F0F302 		bic	r2, r2, #243
 3828              	.LVL315:
 3829              		.loc 1 3223 11 view .LVU1289
 3830 011c 23F00A03 		bic	r3, r3, #10
 3831              	.LVL316:
 3832              		.loc 1 3223 11 view .LVU1290
 3833 0120 1143     		orrs	r1, r1, r2
 3834              	.LVL317:
 3835              		.loc 1 3223 3 is_stmt 1 view .LVU1291
 3836              		.loc 1 3224 3 view .LVU1292
 3837              		.loc 1 3224 11 is_stmt 0 view .LVU1293
 3838 0122 1C43     		orrs	r4, r4, r3
 3839              	.LVL318:
 3840              		.loc 1 3227 3 is_stmt 1 view .LVU1294
 3841              		.loc 1 3227 15 is_stmt 0 view .LVU1295
 3842 0124 0F43     		orrs	r7, r7, r1
 3843              	.LVL319:
 3844              		.loc 1 3228 14 view .LVU1296
 3845 0126 44F00104 		orr	r4, r4, #1
 3846              	.LVL320:
 3847              		.loc 1 3227 15 view .LVU1297
 3848 012a 8761     		str	r7, [r0, #24]
 3849              		.loc 1 3228 3 is_stmt 1 view .LVU1298
 3850              		.loc 1 3228 14 is_stmt 0 view .LVU1299
 3851 012c 0462     		str	r4, [r0, #32]
 3852              	.LVL321:
 3853              		.loc 1 3228 14 view .LVU1300
 3854              	.LBE77:
 3855              	.LBE76:
 3856              		.loc 1 2027 5 is_stmt 1 view .LVU1301
 3857              	.LBB78:
 3858              	.LBI78:
 3859              		.loc 1 2099 6 view .LVU1302
 3860              	.LBB79:
 3861              		.loc 1 2102 3 view .LVU1303
 3862              		.loc 1 2103 3 view .LVU1304
 3863              		.loc 1 2106 3 view .LVU1305
 3864              		.loc 1 2106 15 is_stmt 0 view .LVU1306
 3865 012e 8369     		ldr	r3, [r0, #24]
 3866 0130 4FF6F372 		movw	r2, #65523
 3867 0134 1340     		ands	r3, r3, r2
 3868 0136 8361     		str	r3, [r0, #24]
 3869              		.loc 1 2109 3 is_stmt 1 view .LVU1307
 3870              		.loc 1 2109 15 is_stmt 0 view .LVU1308
 3871 0138 8369     		ldr	r3, [r0, #24]
 3872 013a 1E43     		orrs	r6, r6, r3
 3873 013c 8661     		str	r6, [r0, #24]
 3874              	.LBE79:
 3875              	.LBE78:
 3876              		.loc 1 2029 1 view .LVU1309
ARM GAS  C:\Users\USER\AppData\Local\Temp\ccNdlOSb.s 			page 69


 3877 013e BDE8F083 		pop	{r4, r5, r6, r7, r8, r9, pc}
 3878              		.cfi_endproc
 3879              	.LFE164:
 3880              		.size	TIM_PWMIConfig, .-TIM_PWMIConfig
 3881 0142 00BF     		.section	.text.TIM_GetCapture1,"ax",%progbits
 3882              		.align	1
 3883              		.p2align 4,,15
 3884              		.global	TIM_GetCapture1
 3885              		.syntax unified
 3886              		.thumb
 3887              		.thumb_func
 3888              		.fpu fpv4-sp-d16
 3889              		.type	TIM_GetCapture1, %function
 3890              	TIM_GetCapture1:
 3891              	.LVL322:
 3892              	.LFB165:
 3893              		.loc 1 2037 1 is_stmt 1 view -0
 3894              		.cfi_startproc
 3895              		@ args = 0, pretend = 0, frame = 0
 3896              		@ frame_needed = 0, uses_anonymous_args = 0
 3897              		@ link register save eliminated.
 3898              		.loc 1 2039 3 view .LVU1311
 3899              		.loc 1 2042 3 view .LVU1312
 3900              		.loc 1 2042 14 is_stmt 0 view .LVU1313
 3901 0000 406B     		ldr	r0, [r0, #52]
 3902              	.LVL323:
 3903              		.loc 1 2043 1 view .LVU1314
 3904 0002 7047     		bx	lr
 3905              		.cfi_endproc
 3906              	.LFE165:
 3907              		.size	TIM_GetCapture1, .-TIM_GetCapture1
 3908              		.section	.text.TIM_GetCapture2,"ax",%progbits
 3909              		.align	1
 3910              		.p2align 4,,15
 3911              		.global	TIM_GetCapture2
 3912              		.syntax unified
 3913              		.thumb
 3914              		.thumb_func
 3915              		.fpu fpv4-sp-d16
 3916              		.type	TIM_GetCapture2, %function
 3917              	TIM_GetCapture2:
 3918              	.LVL324:
 3919              	.LFB166:
 3920              		.loc 1 2052 1 is_stmt 1 view -0
 3921              		.cfi_startproc
 3922              		@ args = 0, pretend = 0, frame = 0
 3923              		@ frame_needed = 0, uses_anonymous_args = 0
 3924              		@ link register save eliminated.
 3925              		.loc 1 2054 3 view .LVU1316
 3926              		.loc 1 2057 3 view .LVU1317
 3927              		.loc 1 2057 14 is_stmt 0 view .LVU1318
 3928 0000 806B     		ldr	r0, [r0, #56]
 3929              	.LVL325:
 3930              		.loc 1 2058 1 view .LVU1319
 3931 0002 7047     		bx	lr
 3932              		.cfi_endproc
 3933              	.LFE166:
ARM GAS  C:\Users\USER\AppData\Local\Temp\ccNdlOSb.s 			page 70


 3934              		.size	TIM_GetCapture2, .-TIM_GetCapture2
 3935              		.section	.text.TIM_GetCapture3,"ax",%progbits
 3936              		.align	1
 3937              		.p2align 4,,15
 3938              		.global	TIM_GetCapture3
 3939              		.syntax unified
 3940              		.thumb
 3941              		.thumb_func
 3942              		.fpu fpv4-sp-d16
 3943              		.type	TIM_GetCapture3, %function
 3944              	TIM_GetCapture3:
 3945              	.LVL326:
 3946              	.LFB167:
 3947              		.loc 1 2066 1 is_stmt 1 view -0
 3948              		.cfi_startproc
 3949              		@ args = 0, pretend = 0, frame = 0
 3950              		@ frame_needed = 0, uses_anonymous_args = 0
 3951              		@ link register save eliminated.
 3952              		.loc 1 2068 3 view .LVU1321
 3953              		.loc 1 2071 3 view .LVU1322
 3954              		.loc 1 2071 14 is_stmt 0 view .LVU1323
 3955 0000 C06B     		ldr	r0, [r0, #60]
 3956              	.LVL327:
 3957              		.loc 1 2072 1 view .LVU1324
 3958 0002 7047     		bx	lr
 3959              		.cfi_endproc
 3960              	.LFE167:
 3961              		.size	TIM_GetCapture3, .-TIM_GetCapture3
 3962              		.section	.text.TIM_GetCapture4,"ax",%progbits
 3963              		.align	1
 3964              		.p2align 4,,15
 3965              		.global	TIM_GetCapture4
 3966              		.syntax unified
 3967              		.thumb
 3968              		.thumb_func
 3969              		.fpu fpv4-sp-d16
 3970              		.type	TIM_GetCapture4, %function
 3971              	TIM_GetCapture4:
 3972              	.LVL328:
 3973              	.LFB168:
 3974              		.loc 1 2080 1 is_stmt 1 view -0
 3975              		.cfi_startproc
 3976              		@ args = 0, pretend = 0, frame = 0
 3977              		@ frame_needed = 0, uses_anonymous_args = 0
 3978              		@ link register save eliminated.
 3979              		.loc 1 2082 3 view .LVU1326
 3980              		.loc 1 2085 3 view .LVU1327
 3981              		.loc 1 2085 14 is_stmt 0 view .LVU1328
 3982 0000 006C     		ldr	r0, [r0, #64]
 3983              	.LVL329:
 3984              		.loc 1 2086 1 view .LVU1329
 3985 0002 7047     		bx	lr
 3986              		.cfi_endproc
 3987              	.LFE168:
 3988              		.size	TIM_GetCapture4, .-TIM_GetCapture4
 3989              		.section	.text.TIM_SetIC1Prescaler,"ax",%progbits
 3990              		.align	1
ARM GAS  C:\Users\USER\AppData\Local\Temp\ccNdlOSb.s 			page 71


 3991              		.p2align 4,,15
 3992              		.global	TIM_SetIC1Prescaler
 3993              		.syntax unified
 3994              		.thumb
 3995              		.thumb_func
 3996              		.fpu fpv4-sp-d16
 3997              		.type	TIM_SetIC1Prescaler, %function
 3998              	TIM_SetIC1Prescaler:
 3999              	.LVL330:
 4000              	.LFB169:
 4001              		.loc 1 2100 1 is_stmt 1 view -0
 4002              		.cfi_startproc
 4003              		@ args = 0, pretend = 0, frame = 0
 4004              		@ frame_needed = 0, uses_anonymous_args = 0
 4005              		@ link register save eliminated.
 4006              		.loc 1 2102 3 view .LVU1331
 4007              		.loc 1 2103 3 view .LVU1332
 4008              		.loc 1 2106 3 view .LVU1333
 4009              		.loc 1 2106 15 is_stmt 0 view .LVU1334
 4010 0000 8369     		ldr	r3, [r0, #24]
 4011 0002 4FF6F372 		movw	r2, #65523
 4012 0006 1340     		ands	r3, r3, r2
 4013 0008 8361     		str	r3, [r0, #24]
 4014              		.loc 1 2109 3 is_stmt 1 view .LVU1335
 4015              		.loc 1 2109 15 is_stmt 0 view .LVU1336
 4016 000a 8369     		ldr	r3, [r0, #24]
 4017 000c 1943     		orrs	r1, r1, r3
 4018              	.LVL331:
 4019              		.loc 1 2109 15 view .LVU1337
 4020 000e 8161     		str	r1, [r0, #24]
 4021              		.loc 1 2110 1 view .LVU1338
 4022 0010 7047     		bx	lr
 4023              		.cfi_endproc
 4024              	.LFE169:
 4025              		.size	TIM_SetIC1Prescaler, .-TIM_SetIC1Prescaler
 4026 0012 00BF     		.section	.text.TIM_SetIC2Prescaler,"ax",%progbits
 4027              		.align	1
 4028              		.p2align 4,,15
 4029              		.global	TIM_SetIC2Prescaler
 4030              		.syntax unified
 4031              		.thumb
 4032              		.thumb_func
 4033              		.fpu fpv4-sp-d16
 4034              		.type	TIM_SetIC2Prescaler, %function
 4035              	TIM_SetIC2Prescaler:
 4036              	.LVL332:
 4037              	.LFB170:
 4038              		.loc 1 2125 1 is_stmt 1 view -0
 4039              		.cfi_startproc
 4040              		@ args = 0, pretend = 0, frame = 0
 4041              		@ frame_needed = 0, uses_anonymous_args = 0
 4042              		@ link register save eliminated.
 4043              		.loc 1 2127 3 view .LVU1340
 4044              		.loc 1 2128 3 view .LVU1341
 4045              		.loc 1 2131 3 view .LVU1342
 4046              		.loc 1 2131 15 is_stmt 0 view .LVU1343
 4047 0000 8369     		ldr	r3, [r0, #24]
ARM GAS  C:\Users\USER\AppData\Local\Temp\ccNdlOSb.s 			page 72


 4048 0002 4FF2FF32 		movw	r2, #62463
 4049 0006 1340     		ands	r3, r3, r2
 4050 0008 8361     		str	r3, [r0, #24]
 4051              		.loc 1 2134 3 is_stmt 1 view .LVU1344
 4052              		.loc 1 2134 15 is_stmt 0 view .LVU1345
 4053 000a 8369     		ldr	r3, [r0, #24]
 4054              		.loc 1 2134 18 view .LVU1346
 4055 000c 0902     		lsls	r1, r1, #8
 4056              	.LVL333:
 4057              		.loc 1 2134 18 view .LVU1347
 4058 000e 89B2     		uxth	r1, r1
 4059              		.loc 1 2134 15 view .LVU1348
 4060 0010 1943     		orrs	r1, r1, r3
 4061 0012 8161     		str	r1, [r0, #24]
 4062              		.loc 1 2135 1 view .LVU1349
 4063 0014 7047     		bx	lr
 4064              		.cfi_endproc
 4065              	.LFE170:
 4066              		.size	TIM_SetIC2Prescaler, .-TIM_SetIC2Prescaler
 4067 0016 00BF     		.section	.text.TIM_SetIC3Prescaler,"ax",%progbits
 4068              		.align	1
 4069              		.p2align 4,,15
 4070              		.global	TIM_SetIC3Prescaler
 4071              		.syntax unified
 4072              		.thumb
 4073              		.thumb_func
 4074              		.fpu fpv4-sp-d16
 4075              		.type	TIM_SetIC3Prescaler, %function
 4076              	TIM_SetIC3Prescaler:
 4077              	.LVL334:
 4078              	.LFB171:
 4079              		.loc 1 2149 1 is_stmt 1 view -0
 4080              		.cfi_startproc
 4081              		@ args = 0, pretend = 0, frame = 0
 4082              		@ frame_needed = 0, uses_anonymous_args = 0
 4083              		@ link register save eliminated.
 4084              		.loc 1 2151 3 view .LVU1351
 4085              		.loc 1 2152 3 view .LVU1352
 4086              		.loc 1 2155 3 view .LVU1353
 4087              		.loc 1 2155 15 is_stmt 0 view .LVU1354
 4088 0000 C369     		ldr	r3, [r0, #28]
 4089 0002 4FF6F372 		movw	r2, #65523
 4090 0006 1340     		ands	r3, r3, r2
 4091 0008 C361     		str	r3, [r0, #28]
 4092              		.loc 1 2158 3 is_stmt 1 view .LVU1355
 4093              		.loc 1 2158 15 is_stmt 0 view .LVU1356
 4094 000a C369     		ldr	r3, [r0, #28]
 4095 000c 1943     		orrs	r1, r1, r3
 4096              	.LVL335:
 4097              		.loc 1 2158 15 view .LVU1357
 4098 000e C161     		str	r1, [r0, #28]
 4099              		.loc 1 2159 1 view .LVU1358
 4100 0010 7047     		bx	lr
 4101              		.cfi_endproc
 4102              	.LFE171:
 4103              		.size	TIM_SetIC3Prescaler, .-TIM_SetIC3Prescaler
 4104 0012 00BF     		.section	.text.TIM_SetIC4Prescaler,"ax",%progbits
ARM GAS  C:\Users\USER\AppData\Local\Temp\ccNdlOSb.s 			page 73


 4105              		.align	1
 4106              		.p2align 4,,15
 4107              		.global	TIM_SetIC4Prescaler
 4108              		.syntax unified
 4109              		.thumb
 4110              		.thumb_func
 4111              		.fpu fpv4-sp-d16
 4112              		.type	TIM_SetIC4Prescaler, %function
 4113              	TIM_SetIC4Prescaler:
 4114              	.LVL336:
 4115              	.LFB172:
 4116              		.loc 1 2173 1 is_stmt 1 view -0
 4117              		.cfi_startproc
 4118              		@ args = 0, pretend = 0, frame = 0
 4119              		@ frame_needed = 0, uses_anonymous_args = 0
 4120              		@ link register save eliminated.
 4121              		.loc 1 2175 3 view .LVU1360
 4122              		.loc 1 2176 3 view .LVU1361
 4123              		.loc 1 2179 3 view .LVU1362
 4124              		.loc 1 2179 15 is_stmt 0 view .LVU1363
 4125 0000 C369     		ldr	r3, [r0, #28]
 4126 0002 4FF2FF32 		movw	r2, #62463
 4127 0006 1340     		ands	r3, r3, r2
 4128 0008 C361     		str	r3, [r0, #28]
 4129              		.loc 1 2182 3 is_stmt 1 view .LVU1364
 4130              		.loc 1 2182 15 is_stmt 0 view .LVU1365
 4131 000a C369     		ldr	r3, [r0, #28]
 4132              		.loc 1 2182 18 view .LVU1366
 4133 000c 0902     		lsls	r1, r1, #8
 4134              	.LVL337:
 4135              		.loc 1 2182 18 view .LVU1367
 4136 000e 89B2     		uxth	r1, r1
 4137              		.loc 1 2182 15 view .LVU1368
 4138 0010 1943     		orrs	r1, r1, r3
 4139 0012 C161     		str	r1, [r0, #28]
 4140              		.loc 1 2183 1 view .LVU1369
 4141 0014 7047     		bx	lr
 4142              		.cfi_endproc
 4143              	.LFE172:
 4144              		.size	TIM_SetIC4Prescaler, .-TIM_SetIC4Prescaler
 4145 0016 00BF     		.section	.text.TIM_BDTRConfig,"ax",%progbits
 4146              		.align	1
 4147              		.p2align 4,,15
 4148              		.global	TIM_BDTRConfig
 4149              		.syntax unified
 4150              		.thumb
 4151              		.thumb_func
 4152              		.fpu fpv4-sp-d16
 4153              		.type	TIM_BDTRConfig, %function
 4154              	TIM_BDTRConfig:
 4155              	.LVL338:
 4156              	.LFB173:
 4157              		.loc 1 2226 1 is_stmt 1 view -0
 4158              		.cfi_startproc
 4159              		@ args = 0, pretend = 0, frame = 0
 4160              		@ frame_needed = 0, uses_anonymous_args = 0
 4161              		@ link register save eliminated.
ARM GAS  C:\Users\USER\AppData\Local\Temp\ccNdlOSb.s 			page 74


 4162              		.loc 1 2228 3 view .LVU1371
 4163              		.loc 1 2229 3 view .LVU1372
 4164              		.loc 1 2230 3 view .LVU1373
 4165              		.loc 1 2231 3 view .LVU1374
 4166              		.loc 1 2232 3 view .LVU1375
 4167              		.loc 1 2233 3 view .LVU1376
 4168              		.loc 1 2234 3 view .LVU1377
 4169              		.loc 1 2238 3 view .LVU1378
 4170              		.loc 1 2226 1 is_stmt 0 view .LVU1379
 4171 0000 70B4     		push	{r4, r5, r6}
 4172              		.cfi_def_cfa_offset 12
 4173              		.cfi_offset 4, -12
 4174              		.cfi_offset 5, -8
 4175              		.cfi_offset 6, -4
 4176              		.loc 1 2240 84 view .LVU1380
 4177 0002 0B88     		ldrh	r3, [r1]
 4178 0004 4C88     		ldrh	r4, [r1, #2]
 4179 0006 8A88     		ldrh	r2, [r1, #4]
 4180 0008 CE88     		ldrh	r6, [r1, #6]
 4181 000a 0D89     		ldrh	r5, [r1, #8]
 4182 000c 2343     		orrs	r3, r3, r4
 4183 000e 1343     		orrs	r3, r3, r2
 4184 0010 4C89     		ldrh	r4, [r1, #10]
 4185 0012 8A89     		ldrh	r2, [r1, #12]
 4186 0014 3343     		orrs	r3, r3, r6
 4187 0016 2B43     		orrs	r3, r3, r5
 4188 0018 2343     		orrs	r3, r3, r4
 4189 001a 1343     		orrs	r3, r3, r2
 4190              		.loc 1 2238 14 view .LVU1381
 4191 001c 4364     		str	r3, [r0, #68]
 4192              		.loc 1 2242 1 view .LVU1382
 4193 001e 70BC     		pop	{r4, r5, r6}
 4194              		.cfi_restore 6
 4195              		.cfi_restore 5
 4196              		.cfi_restore 4
 4197              		.cfi_def_cfa_offset 0
 4198 0020 7047     		bx	lr
 4199              		.cfi_endproc
 4200              	.LFE173:
 4201              		.size	TIM_BDTRConfig, .-TIM_BDTRConfig
 4202 0022 00BF     		.section	.text.TIM_BDTRStructInit,"ax",%progbits
 4203              		.align	1
 4204              		.p2align 4,,15
 4205              		.global	TIM_BDTRStructInit
 4206              		.syntax unified
 4207              		.thumb
 4208              		.thumb_func
 4209              		.fpu fpv4-sp-d16
 4210              		.type	TIM_BDTRStructInit, %function
 4211              	TIM_BDTRStructInit:
 4212              	.LVL339:
 4213              	.LFB174:
 4214              		.loc 1 2251 1 is_stmt 1 view -0
 4215              		.cfi_startproc
 4216              		@ args = 0, pretend = 0, frame = 0
 4217              		@ frame_needed = 0, uses_anonymous_args = 0
 4218              		@ link register save eliminated.
ARM GAS  C:\Users\USER\AppData\Local\Temp\ccNdlOSb.s 			page 75


 4219              		.loc 1 2253 3 view .LVU1384
 4220              		.loc 1 2253 37 is_stmt 0 view .LVU1385
 4221 0000 0023     		movs	r3, #0
 4222 0002 0380     		strh	r3, [r0]	@ movhi
 4223              		.loc 1 2254 3 is_stmt 1 view .LVU1386
 4224              		.loc 1 2254 37 is_stmt 0 view .LVU1387
 4225 0004 4380     		strh	r3, [r0, #2]	@ movhi
 4226              		.loc 1 2255 3 is_stmt 1 view .LVU1388
 4227              		.loc 1 2255 37 is_stmt 0 view .LVU1389
 4228 0006 8380     		strh	r3, [r0, #4]	@ movhi
 4229              		.loc 1 2256 3 is_stmt 1 view .LVU1390
 4230              		.loc 1 2256 36 is_stmt 0 view .LVU1391
 4231 0008 C380     		strh	r3, [r0, #6]	@ movhi
 4232              		.loc 1 2257 3 is_stmt 1 view .LVU1392
 4233              		.loc 1 2257 33 is_stmt 0 view .LVU1393
 4234 000a 0381     		strh	r3, [r0, #8]	@ movhi
 4235              		.loc 1 2258 3 is_stmt 1 view .LVU1394
 4236              		.loc 1 2258 41 is_stmt 0 view .LVU1395
 4237 000c 4381     		strh	r3, [r0, #10]	@ movhi
 4238              		.loc 1 2259 3 is_stmt 1 view .LVU1396
 4239              		.loc 1 2259 43 is_stmt 0 view .LVU1397
 4240 000e 8381     		strh	r3, [r0, #12]	@ movhi
 4241              		.loc 1 2260 1 view .LVU1398
 4242 0010 7047     		bx	lr
 4243              		.cfi_endproc
 4244              	.LFE174:
 4245              		.size	TIM_BDTRStructInit, .-TIM_BDTRStructInit
 4246 0012 00BF     		.section	.text.TIM_CtrlPWMOutputs,"ax",%progbits
 4247              		.align	1
 4248              		.p2align 4,,15
 4249              		.global	TIM_CtrlPWMOutputs
 4250              		.syntax unified
 4251              		.thumb
 4252              		.thumb_func
 4253              		.fpu fpv4-sp-d16
 4254              		.type	TIM_CtrlPWMOutputs, %function
 4255              	TIM_CtrlPWMOutputs:
 4256              	.LVL340:
 4257              	.LFB175:
 4258              		.loc 1 2270 1 is_stmt 1 view -0
 4259              		.cfi_startproc
 4260              		@ args = 0, pretend = 0, frame = 0
 4261              		@ frame_needed = 0, uses_anonymous_args = 0
 4262              		@ link register save eliminated.
 4263              		.loc 1 2272 3 view .LVU1400
 4264              		.loc 1 2273 3 view .LVU1401
 4265              		.loc 1 2275 3 view .LVU1402
 4266              		.loc 1 2278 16 is_stmt 0 view .LVU1403
 4267 0000 436C     		ldr	r3, [r0, #68]
 4268              		.loc 1 2275 6 view .LVU1404
 4269 0002 19B1     		cbz	r1, .L160
 4270              		.loc 1 2278 5 is_stmt 1 view .LVU1405
 4271              		.loc 1 2278 16 is_stmt 0 view .LVU1406
 4272 0004 43F40043 		orr	r3, r3, #32768
 4273 0008 4364     		str	r3, [r0, #68]
 4274 000a 7047     		bx	lr
 4275              	.L160:
ARM GAS  C:\Users\USER\AppData\Local\Temp\ccNdlOSb.s 			page 76


 4276              		.loc 1 2283 5 is_stmt 1 view .LVU1407
 4277              		.loc 1 2283 16 is_stmt 0 view .LVU1408
 4278 000c C3F30E03 		ubfx	r3, r3, #0, #15
 4279 0010 4364     		str	r3, [r0, #68]
 4280              		.loc 1 2285 1 view .LVU1409
 4281 0012 7047     		bx	lr
 4282              		.cfi_endproc
 4283              	.LFE175:
 4284              		.size	TIM_CtrlPWMOutputs, .-TIM_CtrlPWMOutputs
 4285              		.section	.text.TIM_SelectCOM,"ax",%progbits
 4286              		.align	1
 4287              		.p2align 4,,15
 4288              		.global	TIM_SelectCOM
 4289              		.syntax unified
 4290              		.thumb
 4291              		.thumb_func
 4292              		.fpu fpv4-sp-d16
 4293              		.type	TIM_SelectCOM, %function
 4294              	TIM_SelectCOM:
 4295              	.LVL341:
 4296              	.LFB176:
 4297              		.loc 1 2295 1 is_stmt 1 view -0
 4298              		.cfi_startproc
 4299              		@ args = 0, pretend = 0, frame = 0
 4300              		@ frame_needed = 0, uses_anonymous_args = 0
 4301              		@ link register save eliminated.
 4302              		.loc 1 2297 3 view .LVU1411
 4303              		.loc 1 2298 3 view .LVU1412
 4304              		.loc 1 2300 3 view .LVU1413
 4305              		.loc 1 2303 15 is_stmt 0 view .LVU1414
 4306 0000 4368     		ldr	r3, [r0, #4]
 4307              		.loc 1 2300 6 view .LVU1415
 4308 0002 19B1     		cbz	r1, .L163
 4309              		.loc 1 2303 5 is_stmt 1 view .LVU1416
 4310              		.loc 1 2303 15 is_stmt 0 view .LVU1417
 4311 0004 43F00403 		orr	r3, r3, #4
 4312 0008 4360     		str	r3, [r0, #4]
 4313 000a 7047     		bx	lr
 4314              	.L163:
 4315              		.loc 1 2308 5 is_stmt 1 view .LVU1418
 4316              		.loc 1 2308 15 is_stmt 0 view .LVU1419
 4317 000c 4FF6FB72 		movw	r2, #65531
 4318 0010 1340     		ands	r3, r3, r2
 4319 0012 4360     		str	r3, [r0, #4]
 4320              		.loc 1 2310 1 view .LVU1420
 4321 0014 7047     		bx	lr
 4322              		.cfi_endproc
 4323              	.LFE176:
 4324              		.size	TIM_SelectCOM, .-TIM_SelectCOM
 4325 0016 00BF     		.section	.text.TIM_CCPreloadControl,"ax",%progbits
 4326              		.align	1
 4327              		.p2align 4,,15
 4328              		.global	TIM_CCPreloadControl
 4329              		.syntax unified
 4330              		.thumb
 4331              		.thumb_func
 4332              		.fpu fpv4-sp-d16
ARM GAS  C:\Users\USER\AppData\Local\Temp\ccNdlOSb.s 			page 77


 4333              		.type	TIM_CCPreloadControl, %function
 4334              	TIM_CCPreloadControl:
 4335              	.LVL342:
 4336              	.LFB177:
 4337              		.loc 1 2320 1 is_stmt 1 view -0
 4338              		.cfi_startproc
 4339              		@ args = 0, pretend = 0, frame = 0
 4340              		@ frame_needed = 0, uses_anonymous_args = 0
 4341              		@ link register save eliminated.
 4342              		.loc 1 2322 3 view .LVU1422
 4343              		.loc 1 2323 3 view .LVU1423
 4344              		.loc 1 2324 3 view .LVU1424
 4345              		.loc 1 2327 15 is_stmt 0 view .LVU1425
 4346 0000 4368     		ldr	r3, [r0, #4]
 4347              		.loc 1 2324 6 view .LVU1426
 4348 0002 19B1     		cbz	r1, .L166
 4349              		.loc 1 2327 5 is_stmt 1 view .LVU1427
 4350              		.loc 1 2327 15 is_stmt 0 view .LVU1428
 4351 0004 43F00103 		orr	r3, r3, #1
 4352 0008 4360     		str	r3, [r0, #4]
 4353 000a 7047     		bx	lr
 4354              	.L166:
 4355              		.loc 1 2332 5 is_stmt 1 view .LVU1429
 4356              		.loc 1 2332 15 is_stmt 0 view .LVU1430
 4357 000c 4FF6FE72 		movw	r2, #65534
 4358 0010 1340     		ands	r3, r3, r2
 4359 0012 4360     		str	r3, [r0, #4]
 4360              		.loc 1 2334 1 view .LVU1431
 4361 0014 7047     		bx	lr
 4362              		.cfi_endproc
 4363              	.LFE177:
 4364              		.size	TIM_CCPreloadControl, .-TIM_CCPreloadControl
 4365 0016 00BF     		.section	.text.TIM_ITConfig,"ax",%progbits
 4366              		.align	1
 4367              		.p2align 4,,15
 4368              		.global	TIM_ITConfig
 4369              		.syntax unified
 4370              		.thumb
 4371              		.thumb_func
 4372              		.fpu fpv4-sp-d16
 4373              		.type	TIM_ITConfig, %function
 4374              	TIM_ITConfig:
 4375              	.LVL343:
 4376              	.LFB178:
 4377              		.loc 1 2377 1 is_stmt 1 view -0
 4378              		.cfi_startproc
 4379              		@ args = 0, pretend = 0, frame = 0
 4380              		@ frame_needed = 0, uses_anonymous_args = 0
 4381              		@ link register save eliminated.
 4382              		.loc 1 2379 3 view .LVU1433
 4383              		.loc 1 2380 3 view .LVU1434
 4384              		.loc 1 2381 3 view .LVU1435
 4385              		.loc 1 2383 3 view .LVU1436
 4386              		.loc 1 2383 6 is_stmt 0 view .LVU1437
 4387 0000 1AB1     		cbz	r2, .L169
 4388              		.loc 1 2386 5 is_stmt 1 view .LVU1438
 4389              		.loc 1 2386 16 is_stmt 0 view .LVU1439
ARM GAS  C:\Users\USER\AppData\Local\Temp\ccNdlOSb.s 			page 78


 4390 0002 C368     		ldr	r3, [r0, #12]
 4391 0004 1943     		orrs	r1, r1, r3
 4392              	.LVL344:
 4393              		.loc 1 2386 16 view .LVU1440
 4394 0006 C160     		str	r1, [r0, #12]
 4395 0008 7047     		bx	lr
 4396              	.LVL345:
 4397              	.L169:
 4398              		.loc 1 2391 5 is_stmt 1 view .LVU1441
 4399              		.loc 1 2391 16 is_stmt 0 view .LVU1442
 4400 000a C368     		ldr	r3, [r0, #12]
 4401              		.loc 1 2391 19 view .LVU1443
 4402 000c C943     		mvns	r1, r1
 4403              	.LVL346:
 4404              		.loc 1 2391 19 view .LVU1444
 4405 000e 89B2     		uxth	r1, r1
 4406              		.loc 1 2391 16 view .LVU1445
 4407 0010 1940     		ands	r1, r1, r3
 4408 0012 C160     		str	r1, [r0, #12]
 4409              		.loc 1 2393 1 view .LVU1446
 4410 0014 7047     		bx	lr
 4411              		.cfi_endproc
 4412              	.LFE178:
 4413              		.size	TIM_ITConfig, .-TIM_ITConfig
 4414 0016 00BF     		.section	.text.TIM_GenerateEvent,"ax",%progbits
 4415              		.align	1
 4416              		.p2align 4,,15
 4417              		.global	TIM_GenerateEvent
 4418              		.syntax unified
 4419              		.thumb
 4420              		.thumb_func
 4421              		.fpu fpv4-sp-d16
 4422              		.type	TIM_GenerateEvent, %function
 4423              	TIM_GenerateEvent:
 4424              	.LVL347:
 4425              	.LFB179:
 4426              		.loc 1 2415 1 is_stmt 1 view -0
 4427              		.cfi_startproc
 4428              		@ args = 0, pretend = 0, frame = 0
 4429              		@ frame_needed = 0, uses_anonymous_args = 0
 4430              		@ link register save eliminated.
 4431              		.loc 1 2417 3 view .LVU1448
 4432              		.loc 1 2418 3 view .LVU1449
 4433              		.loc 1 2421 3 view .LVU1450
 4434              		.loc 1 2421 13 is_stmt 0 view .LVU1451
 4435 0000 4161     		str	r1, [r0, #20]
 4436              		.loc 1 2422 1 view .LVU1452
 4437 0002 7047     		bx	lr
 4438              		.cfi_endproc
 4439              	.LFE179:
 4440              		.size	TIM_GenerateEvent, .-TIM_GenerateEvent
 4441              		.section	.text.TIM_GetFlagStatus,"ax",%progbits
 4442              		.align	1
 4443              		.p2align 4,,15
 4444              		.global	TIM_GetFlagStatus
 4445              		.syntax unified
 4446              		.thumb
ARM GAS  C:\Users\USER\AppData\Local\Temp\ccNdlOSb.s 			page 79


 4447              		.thumb_func
 4448              		.fpu fpv4-sp-d16
 4449              		.type	TIM_GetFlagStatus, %function
 4450              	TIM_GetFlagStatus:
 4451              	.LVL348:
 4452              	.LFB180:
 4453              		.loc 1 2448 1 is_stmt 1 view -0
 4454              		.cfi_startproc
 4455              		@ args = 0, pretend = 0, frame = 0
 4456              		@ frame_needed = 0, uses_anonymous_args = 0
 4457              		@ link register save eliminated.
 4458              		.loc 1 2449 3 view .LVU1454
 4459              		.loc 1 2451 3 view .LVU1455
 4460              		.loc 1 2452 3 view .LVU1456
 4461              		.loc 1 2455 3 view .LVU1457
 4462              		.loc 1 2455 12 is_stmt 0 view .LVU1458
 4463 0000 0369     		ldr	r3, [r0, #16]
 4464              	.LVL349:
 4465              		.loc 1 2463 3 is_stmt 1 view .LVU1459
 4466              		.loc 1 2455 6 is_stmt 0 view .LVU1460
 4467 0002 1942     		tst	r1, r3
 4468              		.loc 1 2464 1 view .LVU1461
 4469 0004 14BF     		ite	ne
 4470 0006 0120     		movne	r0, #1
 4471              	.LVL350:
 4472              		.loc 1 2464 1 view .LVU1462
 4473 0008 0020     		moveq	r0, #0
 4474 000a 7047     		bx	lr
 4475              		.cfi_endproc
 4476              	.LFE180:
 4477              		.size	TIM_GetFlagStatus, .-TIM_GetFlagStatus
 4478              		.section	.text.TIM_ClearFlag,"ax",%progbits
 4479              		.align	1
 4480              		.p2align 4,,15
 4481              		.global	TIM_ClearFlag
 4482              		.syntax unified
 4483              		.thumb
 4484              		.thumb_func
 4485              		.fpu fpv4-sp-d16
 4486              		.type	TIM_ClearFlag, %function
 4487              	TIM_ClearFlag:
 4488              	.LVL351:
 4489              	.LFB181:
 4490              		.loc 1 2490 1 is_stmt 1 view -0
 4491              		.cfi_startproc
 4492              		@ args = 0, pretend = 0, frame = 0
 4493              		@ frame_needed = 0, uses_anonymous_args = 0
 4494              		@ link register save eliminated.
 4495              		.loc 1 2492 3 view .LVU1464
 4496              		.loc 1 2495 3 view .LVU1465
 4497              		.loc 1 2495 14 is_stmt 0 view .LVU1466
 4498 0000 C943     		mvns	r1, r1
 4499              	.LVL352:
 4500              		.loc 1 2495 14 view .LVU1467
 4501 0002 89B2     		uxth	r1, r1
 4502              		.loc 1 2495 12 view .LVU1468
 4503 0004 0161     		str	r1, [r0, #16]
ARM GAS  C:\Users\USER\AppData\Local\Temp\ccNdlOSb.s 			page 80


 4504              		.loc 1 2496 1 view .LVU1469
 4505 0006 7047     		bx	lr
 4506              		.cfi_endproc
 4507              	.LFE181:
 4508              		.size	TIM_ClearFlag, .-TIM_ClearFlag
 4509              		.section	.text.TIM_GetITStatus,"ax",%progbits
 4510              		.align	1
 4511              		.p2align 4,,15
 4512              		.global	TIM_GetITStatus
 4513              		.syntax unified
 4514              		.thumb
 4515              		.thumb_func
 4516              		.fpu fpv4-sp-d16
 4517              		.type	TIM_GetITStatus, %function
 4518              	TIM_GetITStatus:
 4519              	.LVL353:
 4520              	.LFB182:
 4521              		.loc 1 2518 1 is_stmt 1 view -0
 4522              		.cfi_startproc
 4523              		@ args = 0, pretend = 0, frame = 0
 4524              		@ frame_needed = 0, uses_anonymous_args = 0
 4525              		@ link register save eliminated.
 4526              		.loc 1 2519 3 view .LVU1471
 4527              		.loc 1 2520 3 view .LVU1472
 4528              		.loc 1 2522 3 view .LVU1473
 4529              		.loc 1 2523 3 view .LVU1474
 4530              		.loc 1 2525 3 view .LVU1475
 4531              		.loc 1 2525 18 is_stmt 0 view .LVU1476
 4532 0000 0369     		ldr	r3, [r0, #16]
 4533              	.LVL354:
 4534              		.loc 1 2527 3 is_stmt 1 view .LVU1477
 4535              		.loc 1 2527 18 is_stmt 0 view .LVU1478
 4536 0002 C268     		ldr	r2, [r0, #12]
 4537              	.LVL355:
 4538              		.loc 1 2528 3 is_stmt 1 view .LVU1479
 4539              		.loc 1 2528 6 is_stmt 0 view .LVU1480
 4540 0004 11EA0300 		ands	r0, r1, r3
 4541              	.LVL356:
 4542              		.loc 1 2528 6 view .LVU1481
 4543 0008 03D0     		beq	.L175
 4544              		.loc 1 2528 37 discriminator 1 view .LVU1482
 4545 000a 1142     		tst	r1, r2
 4546              		.loc 1 2534 15 discriminator 1 view .LVU1483
 4547 000c 14BF     		ite	ne
 4548 000e 0120     		movne	r0, #1
 4549 0010 0020     		moveq	r0, #0
 4550              	.L175:
 4551              	.LVL357:
 4552              		.loc 1 2536 3 is_stmt 1 view .LVU1484
 4553              		.loc 1 2537 1 is_stmt 0 view .LVU1485
 4554 0012 7047     		bx	lr
 4555              		.cfi_endproc
 4556              	.LFE182:
 4557              		.size	TIM_GetITStatus, .-TIM_GetITStatus
 4558              		.section	.text.TIM_ClearITPendingBit,"ax",%progbits
 4559              		.align	1
 4560              		.p2align 4,,15
ARM GAS  C:\Users\USER\AppData\Local\Temp\ccNdlOSb.s 			page 81


 4561              		.global	TIM_ClearITPendingBit
 4562              		.syntax unified
 4563              		.thumb
 4564              		.thumb_func
 4565              		.fpu fpv4-sp-d16
 4566              		.type	TIM_ClearITPendingBit, %function
 4567              	TIM_ClearITPendingBit:
 4568              	.LFB207:
 4569              		.cfi_startproc
 4570              		@ args = 0, pretend = 0, frame = 0
 4571              		@ frame_needed = 0, uses_anonymous_args = 0
 4572              		@ link register save eliminated.
 4573 0000 C943     		mvns	r1, r1
 4574 0002 89B2     		uxth	r1, r1
 4575 0004 0161     		str	r1, [r0, #16]
 4576 0006 7047     		bx	lr
 4577              		.cfi_endproc
 4578              	.LFE207:
 4579              		.size	TIM_ClearITPendingBit, .-TIM_ClearITPendingBit
 4580              		.section	.text.TIM_DMAConfig,"ax",%progbits
 4581              		.align	1
 4582              		.p2align 4,,15
 4583              		.global	TIM_DMAConfig
 4584              		.syntax unified
 4585              		.thumb
 4586              		.thumb_func
 4587              		.fpu fpv4-sp-d16
 4588              		.type	TIM_DMAConfig, %function
 4589              	TIM_DMAConfig:
 4590              	.LVL358:
 4591              	.LFB184:
 4592              		.loc 1 2596 1 is_stmt 1 view -0
 4593              		.cfi_startproc
 4594              		@ args = 0, pretend = 0, frame = 0
 4595              		@ frame_needed = 0, uses_anonymous_args = 0
 4596              		@ link register save eliminated.
 4597              		.loc 1 2598 3 view .LVU1487
 4598              		.loc 1 2599 3 view .LVU1488
 4599              		.loc 1 2600 3 view .LVU1489
 4600              		.loc 1 2603 3 view .LVU1490
 4601              		.loc 1 2603 27 is_stmt 0 view .LVU1491
 4602 0000 0A43     		orrs	r2, r2, r1
 4603              	.LVL359:
 4604              		.loc 1 2603 13 view .LVU1492
 4605 0002 8264     		str	r2, [r0, #72]
 4606              		.loc 1 2604 1 view .LVU1493
 4607 0004 7047     		bx	lr
 4608              		.cfi_endproc
 4609              	.LFE184:
 4610              		.size	TIM_DMAConfig, .-TIM_DMAConfig
 4611 0006 00BF     		.section	.text.TIM_DMACmd,"ax",%progbits
 4612              		.align	1
 4613              		.p2align 4,,15
 4614              		.global	TIM_DMACmd
 4615              		.syntax unified
 4616              		.thumb
 4617              		.thumb_func
ARM GAS  C:\Users\USER\AppData\Local\Temp\ccNdlOSb.s 			page 82


 4618              		.fpu fpv4-sp-d16
 4619              		.type	TIM_DMACmd, %function
 4620              	TIM_DMACmd:
 4621              	.LFB205:
 4622              		.cfi_startproc
 4623              		@ args = 0, pretend = 0, frame = 0
 4624              		@ frame_needed = 0, uses_anonymous_args = 0
 4625              		@ link register save eliminated.
 4626 0000 FFF7FEBF 		b	TIM_ITConfig
 4627              		.cfi_endproc
 4628              	.LFE205:
 4629              		.size	TIM_DMACmd, .-TIM_DMACmd
 4630              		.section	.text.TIM_SelectCCDMA,"ax",%progbits
 4631              		.align	1
 4632              		.p2align 4,,15
 4633              		.global	TIM_SelectCCDMA
 4634              		.syntax unified
 4635              		.thumb
 4636              		.thumb_func
 4637              		.fpu fpv4-sp-d16
 4638              		.type	TIM_SelectCCDMA, %function
 4639              	TIM_SelectCCDMA:
 4640              	.LVL360:
 4641              	.LFB186:
 4642              		.loc 1 2649 1 is_stmt 1 view -0
 4643              		.cfi_startproc
 4644              		@ args = 0, pretend = 0, frame = 0
 4645              		@ frame_needed = 0, uses_anonymous_args = 0
 4646              		@ link register save eliminated.
 4647              		.loc 1 2651 3 view .LVU1495
 4648              		.loc 1 2652 3 view .LVU1496
 4649              		.loc 1 2654 3 view .LVU1497
 4650              		.loc 1 2657 15 is_stmt 0 view .LVU1498
 4651 0000 4368     		ldr	r3, [r0, #4]
 4652              		.loc 1 2654 6 view .LVU1499
 4653 0002 19B1     		cbz	r1, .L181
 4654              		.loc 1 2657 5 is_stmt 1 view .LVU1500
 4655              		.loc 1 2657 15 is_stmt 0 view .LVU1501
 4656 0004 43F00803 		orr	r3, r3, #8
 4657 0008 4360     		str	r3, [r0, #4]
 4658 000a 7047     		bx	lr
 4659              	.L181:
 4660              		.loc 1 2662 5 is_stmt 1 view .LVU1502
 4661              		.loc 1 2662 15 is_stmt 0 view .LVU1503
 4662 000c 4FF6F772 		movw	r2, #65527
 4663 0010 1340     		ands	r3, r3, r2
 4664 0012 4360     		str	r3, [r0, #4]
 4665              		.loc 1 2664 1 view .LVU1504
 4666 0014 7047     		bx	lr
 4667              		.cfi_endproc
 4668              	.LFE186:
 4669              		.size	TIM_SelectCCDMA, .-TIM_SelectCCDMA
 4670 0016 00BF     		.section	.text.TIM_InternalClockConfig,"ax",%progbits
 4671              		.align	1
 4672              		.p2align 4,,15
 4673              		.global	TIM_InternalClockConfig
 4674              		.syntax unified
ARM GAS  C:\Users\USER\AppData\Local\Temp\ccNdlOSb.s 			page 83


 4675              		.thumb
 4676              		.thumb_func
 4677              		.fpu fpv4-sp-d16
 4678              		.type	TIM_InternalClockConfig, %function
 4679              	TIM_InternalClockConfig:
 4680              	.LVL361:
 4681              	.LFB187:
 4682              		.loc 1 2688 1 is_stmt 1 view -0
 4683              		.cfi_startproc
 4684              		@ args = 0, pretend = 0, frame = 0
 4685              		@ frame_needed = 0, uses_anonymous_args = 0
 4686              		@ link register save eliminated.
 4687              		.loc 1 2690 3 view .LVU1506
 4688              		.loc 1 2693 3 view .LVU1507
 4689              		.loc 1 2693 14 is_stmt 0 view .LVU1508
 4690 0000 8368     		ldr	r3, [r0, #8]
 4691 0002 4FF6F872 		movw	r2, #65528
 4692 0006 1340     		ands	r3, r3, r2
 4693 0008 8360     		str	r3, [r0, #8]
 4694              		.loc 1 2694 1 view .LVU1509
 4695 000a 7047     		bx	lr
 4696              		.cfi_endproc
 4697              	.LFE187:
 4698              		.size	TIM_InternalClockConfig, .-TIM_InternalClockConfig
 4699              		.section	.text.TIM_ITRxExternalClockConfig,"ax",%progbits
 4700              		.align	1
 4701              		.p2align 4,,15
 4702              		.global	TIM_ITRxExternalClockConfig
 4703              		.syntax unified
 4704              		.thumb
 4705              		.thumb_func
 4706              		.fpu fpv4-sp-d16
 4707              		.type	TIM_ITRxExternalClockConfig, %function
 4708              	TIM_ITRxExternalClockConfig:
 4709              	.LVL362:
 4710              	.LFB188:
 4711              		.loc 1 2709 1 is_stmt 1 view -0
 4712              		.cfi_startproc
 4713              		@ args = 0, pretend = 0, frame = 0
 4714              		@ frame_needed = 0, uses_anonymous_args = 0
 4715              		@ link register save eliminated.
 4716              		.loc 1 2711 3 view .LVU1511
 4717              		.loc 1 2712 3 view .LVU1512
 4718              		.loc 1 2715 3 view .LVU1513
 4719              	.LBB80:
 4720              	.LBI80:
 4721              		.loc 1 2896 6 view .LVU1514
 4722              	.LBB81:
 4723              		.loc 1 2898 3 view .LVU1515
 4724              		.loc 1 2901 3 view .LVU1516
 4725              		.loc 1 2902 3 view .LVU1517
 4726              		.loc 1 2905 3 view .LVU1518
 4727              		.loc 1 2905 17 is_stmt 0 view .LVU1519
 4728 0000 8268     		ldr	r2, [r0, #8]
 4729              	.LVL363:
 4730              		.loc 1 2908 3 is_stmt 1 view .LVU1520
 4731              		.loc 1 2908 11 is_stmt 0 view .LVU1521
ARM GAS  C:\Users\USER\AppData\Local\Temp\ccNdlOSb.s 			page 84


 4732 0002 4FF68F73 		movw	r3, #65423
 4733 0006 1340     		ands	r3, r3, r2
 4734              	.LVL364:
 4735              		.loc 1 2911 3 is_stmt 1 view .LVU1522
 4736              		.loc 1 2914 3 view .LVU1523
 4737              		.loc 1 2914 14 is_stmt 0 view .LVU1524
 4738 0008 1943     		orrs	r1, r1, r3
 4739              	.LVL365:
 4740              		.loc 1 2914 14 view .LVU1525
 4741 000a 8160     		str	r1, [r0, #8]
 4742              	.LVL366:
 4743              		.loc 1 2914 14 view .LVU1526
 4744              	.LBE81:
 4745              	.LBE80:
 4746              		.loc 1 2718 3 is_stmt 1 view .LVU1527
 4747              		.loc 1 2718 14 is_stmt 0 view .LVU1528
 4748 000c 8368     		ldr	r3, [r0, #8]
 4749 000e 43F00703 		orr	r3, r3, #7
 4750 0012 8360     		str	r3, [r0, #8]
 4751              		.loc 1 2719 1 view .LVU1529
 4752 0014 7047     		bx	lr
 4753              		.cfi_endproc
 4754              	.LFE188:
 4755              		.size	TIM_ITRxExternalClockConfig, .-TIM_ITRxExternalClockConfig
 4756 0016 00BF     		.section	.text.TIM_TIxExternalClockConfig,"ax",%progbits
 4757              		.align	1
 4758              		.p2align 4,,15
 4759              		.global	TIM_TIxExternalClockConfig
 4760              		.syntax unified
 4761              		.thumb
 4762              		.thumb_func
 4763              		.fpu fpv4-sp-d16
 4764              		.type	TIM_TIxExternalClockConfig, %function
 4765              	TIM_TIxExternalClockConfig:
 4766              	.LVL367:
 4767              	.LFB189:
 4768              		.loc 1 2740 1 is_stmt 1 view -0
 4769              		.cfi_startproc
 4770              		@ args = 0, pretend = 0, frame = 0
 4771              		@ frame_needed = 0, uses_anonymous_args = 0
 4772              		@ link register save eliminated.
 4773              		.loc 1 2742 3 view .LVU1531
 4774              		.loc 1 2743 3 view .LVU1532
 4775              		.loc 1 2744 3 view .LVU1533
 4776              		.loc 1 2747 3 view .LVU1534
 4777              		.loc 1 2747 6 is_stmt 0 view .LVU1535
 4778 0000 6029     		cmp	r1, #96
 4779              		.loc 1 2740 1 view .LVU1536
 4780 0002 70B4     		push	{r4, r5, r6}
 4781              		.cfi_def_cfa_offset 12
 4782              		.cfi_offset 4, -12
 4783              		.cfi_offset 5, -8
 4784              		.cfi_offset 6, -4
 4785              	.LBB82:
 4786              	.LBB83:
 4787              		.loc 1 3255 14 view .LVU1537
 4788 0004 046A     		ldr	r4, [r0, #32]
ARM GAS  C:\Users\USER\AppData\Local\Temp\ccNdlOSb.s 			page 85


 4789              	.LBE83:
 4790              	.LBE82:
 4791              		.loc 1 2747 6 view .LVU1538
 4792 0006 21D0     		beq	.L189
 4793              		.loc 1 2753 5 is_stmt 1 view .LVU1539
 4794              	.LVL368:
 4795              	.LBB85:
 4796              	.LBI85:
 4797              		.loc 1 3208 13 view .LVU1540
 4798              	.LBB86:
 4799              		.loc 1 3211 3 view .LVU1541
 4800              		.loc 1 3214 3 view .LVU1542
 4801              		.loc 1 3214 14 is_stmt 0 view .LVU1543
 4802 0008 4FF6FE75 		movw	r5, #65534
 4803 000c 2C40     		ands	r4, r4, r5
 4804 000e 0462     		str	r4, [r0, #32]
 4805              		.loc 1 3215 3 is_stmt 1 view .LVU1544
 4806              		.loc 1 3215 18 is_stmt 0 view .LVU1545
 4807 0010 8469     		ldr	r4, [r0, #24]
 4808              		.loc 1 3216 17 view .LVU1546
 4809 0012 056A     		ldr	r5, [r0, #32]
 4810              		.loc 1 3215 12 view .LVU1547
 4811 0014 A4B2     		uxth	r4, r4
 4812              	.LVL369:
 4813              		.loc 1 3216 3 is_stmt 1 view .LVU1548
 4814              		.loc 1 3219 12 is_stmt 0 view .LVU1549
 4815 0016 24F0F304 		bic	r4, r4, #243
 4816              	.LVL370:
 4817              		.loc 1 3216 11 view .LVU1550
 4818 001a ADB2     		uxth	r5, r5
 4819              	.LVL371:
 4820              		.loc 1 3219 3 is_stmt 1 view .LVU1551
 4821              		.loc 1 3220 3 view .LVU1552
 4822 001c 44EA0314 		orr	r4, r4, r3, lsl #4
 4823              		.loc 1 3223 11 is_stmt 0 view .LVU1553
 4824 0020 25F00A05 		bic	r5, r5, #10
 4825              	.LVL372:
 4826              		.loc 1 3223 11 view .LVU1554
 4827 0024 A4B2     		uxth	r4, r4
 4828              	.LVL373:
 4829              		.loc 1 3223 3 is_stmt 1 view .LVU1555
 4830              		.loc 1 3224 3 view .LVU1556
 4831              		.loc 1 3224 11 is_stmt 0 view .LVU1557
 4832 0026 2A43     		orrs	r2, r2, r5
 4833              	.LVL374:
 4834              		.loc 1 3227 3 is_stmt 1 view .LVU1558
 4835              		.loc 1 3227 15 is_stmt 0 view .LVU1559
 4836 0028 44F00104 		orr	r4, r4, #1
 4837              	.LVL375:
 4838              		.loc 1 3228 14 view .LVU1560
 4839 002c 42F00102 		orr	r2, r2, #1
 4840              	.LVL376:
 4841              		.loc 1 3227 15 view .LVU1561
 4842 0030 8461     		str	r4, [r0, #24]
 4843              		.loc 1 3228 3 is_stmt 1 view .LVU1562
 4844              		.loc 1 3228 14 is_stmt 0 view .LVU1563
 4845 0032 0262     		str	r2, [r0, #32]
ARM GAS  C:\Users\USER\AppData\Local\Temp\ccNdlOSb.s 			page 86


 4846              	.LVL377:
 4847              	.L187:
 4848              		.loc 1 3228 14 view .LVU1564
 4849              	.LBE86:
 4850              	.LBE85:
 4851              		.loc 1 2756 3 is_stmt 1 view .LVU1565
 4852              	.LBB87:
 4853              	.LBI87:
 4854              		.loc 1 2896 6 view .LVU1566
 4855              	.LBB88:
 4856              		.loc 1 2898 3 view .LVU1567
 4857              		.loc 1 2901 3 view .LVU1568
 4858              		.loc 1 2902 3 view .LVU1569
 4859              		.loc 1 2905 3 view .LVU1570
 4860              		.loc 1 2905 17 is_stmt 0 view .LVU1571
 4861 0034 8268     		ldr	r2, [r0, #8]
 4862              	.LVL378:
 4863              		.loc 1 2908 3 is_stmt 1 view .LVU1572
 4864              		.loc 1 2908 11 is_stmt 0 view .LVU1573
 4865 0036 4FF68F73 		movw	r3, #65423
 4866              	.LVL379:
 4867              		.loc 1 2908 11 view .LVU1574
 4868 003a 1340     		ands	r3, r3, r2
 4869              	.LVL380:
 4870              		.loc 1 2911 3 is_stmt 1 view .LVU1575
 4871              		.loc 1 2914 3 view .LVU1576
 4872              		.loc 1 2914 14 is_stmt 0 view .LVU1577
 4873 003c 1943     		orrs	r1, r1, r3
 4874              	.LVL381:
 4875              		.loc 1 2914 14 view .LVU1578
 4876 003e 8160     		str	r1, [r0, #8]
 4877              	.LVL382:
 4878              		.loc 1 2914 14 view .LVU1579
 4879              	.LBE88:
 4880              	.LBE87:
 4881              		.loc 1 2758 3 is_stmt 1 view .LVU1580
 4882              		.loc 1 2758 14 is_stmt 0 view .LVU1581
 4883 0040 8368     		ldr	r3, [r0, #8]
 4884 0042 43F00703 		orr	r3, r3, #7
 4885 0046 8360     		str	r3, [r0, #8]
 4886              		.loc 1 2759 1 view .LVU1582
 4887 0048 70BC     		pop	{r4, r5, r6}
 4888              		.cfi_remember_state
 4889              		.cfi_restore 6
 4890              		.cfi_restore 5
 4891              		.cfi_restore 4
 4892              		.cfi_def_cfa_offset 0
 4893 004a 7047     		bx	lr
 4894              	.LVL383:
 4895              	.L189:
 4896              		.cfi_restore_state
 4897              		.loc 1 2749 5 is_stmt 1 view .LVU1583
 4898              	.LBB89:
 4899              	.LBI82:
 4900              		.loc 1 3249 13 view .LVU1584
 4901              	.LBB84:
 4902              		.loc 1 3252 3 view .LVU1585
ARM GAS  C:\Users\USER\AppData\Local\Temp\ccNdlOSb.s 			page 87


 4903              		.loc 1 3255 3 view .LVU1586
 4904              		.loc 1 3255 14 is_stmt 0 view .LVU1587
 4905 004c 4FF6EF75 		movw	r5, #65519
 4906 0050 2C40     		ands	r4, r4, r5
 4907 0052 0462     		str	r4, [r0, #32]
 4908              		.loc 1 3256 3 is_stmt 1 view .LVU1588
 4909              		.loc 1 3256 18 is_stmt 0 view .LVU1589
 4910 0054 8669     		ldr	r6, [r0, #24]
 4911              	.LVL384:
 4912              		.loc 1 3257 3 is_stmt 1 view .LVU1590
 4913              		.loc 1 3257 17 is_stmt 0 view .LVU1591
 4914 0056 056A     		ldr	r5, [r0, #32]
 4915              		.loc 1 3261 12 view .LVU1592
 4916 0058 40F6FF44 		movw	r4, #3327
 4917              		.loc 1 3257 11 view .LVU1593
 4918 005c ADB2     		uxth	r5, r5
 4919              	.LVL385:
 4920              		.loc 1 3258 3 is_stmt 1 view .LVU1594
 4921              		.loc 1 3261 3 view .LVU1595
 4922              		.loc 1 3261 12 is_stmt 0 view .LVU1596
 4923 005e 2640     		ands	r6, r6, r4
 4924              	.LVL386:
 4925              		.loc 1 3262 3 is_stmt 1 view .LVU1597
 4926              		.loc 1 3266 11 is_stmt 0 view .LVU1598
 4927 0060 25F0A005 		bic	r5, r5, #160
 4928              	.LVL387:
 4929              		.loc 1 3262 12 view .LVU1599
 4930 0064 46EA0336 		orr	r6, r6, r3, lsl #12
 4931              	.LVL388:
 4932              		.loc 1 3267 11 view .LVU1600
 4933 0068 45EA0212 		orr	r2, r5, r2, lsl #4
 4934              	.LVL389:
 4935              		.loc 1 3262 12 view .LVU1601
 4936 006c B6B2     		uxth	r6, r6
 4937              	.LVL390:
 4938              		.loc 1 3263 3 is_stmt 1 view .LVU1602
 4939              		.loc 1 3266 3 view .LVU1603
 4940              		.loc 1 3267 3 view .LVU1604
 4941              		.loc 1 3267 11 is_stmt 0 view .LVU1605
 4942 006e 92B2     		uxth	r2, r2
 4943              	.LVL391:
 4944              		.loc 1 3270 3 is_stmt 1 view .LVU1606
 4945              		.loc 1 3270 15 is_stmt 0 view .LVU1607
 4946 0070 46F48076 		orr	r6, r6, #256
 4947              	.LVL392:
 4948              		.loc 1 3271 14 view .LVU1608
 4949 0074 42F01002 		orr	r2, r2, #16
 4950              	.LVL393:
 4951              		.loc 1 3270 15 view .LVU1609
 4952 0078 8661     		str	r6, [r0, #24]
 4953              		.loc 1 3271 3 is_stmt 1 view .LVU1610
 4954              		.loc 1 3271 14 is_stmt 0 view .LVU1611
 4955 007a 0262     		str	r2, [r0, #32]
 4956 007c DAE7     		b	.L187
 4957              	.LBE84:
 4958              	.LBE89:
 4959              		.cfi_endproc
ARM GAS  C:\Users\USER\AppData\Local\Temp\ccNdlOSb.s 			page 88


 4960              	.LFE189:
 4961              		.size	TIM_TIxExternalClockConfig, .-TIM_TIxExternalClockConfig
 4962 007e 00BF     		.section	.text.TIM_ETRClockMode1Config,"ax",%progbits
 4963              		.align	1
 4964              		.p2align 4,,15
 4965              		.global	TIM_ETRClockMode1Config
 4966              		.syntax unified
 4967              		.thumb
 4968              		.thumb_func
 4969              		.fpu fpv4-sp-d16
 4970              		.type	TIM_ETRClockMode1Config, %function
 4971              	TIM_ETRClockMode1Config:
 4972              	.LVL394:
 4973              	.LFB190:
 4974              		.loc 1 2780 1 is_stmt 1 view -0
 4975              		.cfi_startproc
 4976              		@ args = 0, pretend = 0, frame = 0
 4977              		@ frame_needed = 0, uses_anonymous_args = 0
 4978              		@ link register save eliminated.
 4979              		.loc 1 2781 3 view .LVU1613
 4980              		.loc 1 2784 3 view .LVU1614
 4981              		.loc 1 2785 3 view .LVU1615
 4982              		.loc 1 2786 3 view .LVU1616
 4983              		.loc 1 2787 3 view .LVU1617
 4984              		.loc 1 2789 3 view .LVU1618
 4985              	.LBB90:
 4986              	.LBI90:
 4987              		.loc 1 3016 6 view .LVU1619
 4988              	.LBB91:
 4989              		.loc 1 3019 3 view .LVU1620
 4990              		.loc 1 3022 3 view .LVU1621
 4991              		.loc 1 3023 3 view .LVU1622
 4992              		.loc 1 3024 3 view .LVU1623
 4993              		.loc 1 3025 3 view .LVU1624
 4994              		.loc 1 3027 3 view .LVU1625
 4995              	.LBE91:
 4996              	.LBE90:
 4997              		.loc 1 2780 1 is_stmt 0 view .LVU1626
 4998 0000 10B4     		push	{r4}
 4999              		.cfi_def_cfa_offset 4
 5000              		.cfi_offset 4, -4
 5001              	.LBB93:
 5002              	.LBB92:
 5003              		.loc 1 3027 17 view .LVU1627
 5004 0002 8468     		ldr	r4, [r0, #8]
 5005              	.LVL395:
 5006              		.loc 1 3030 3 is_stmt 1 view .LVU1628
 5007              		.loc 1 3033 47 is_stmt 0 view .LVU1629
 5008 0004 42EA0323 		orr	r3, r2, r3, lsl #8
 5009              	.LVL396:
 5010              		.loc 1 3033 14 view .LVU1630
 5011 0008 1943     		orrs	r1, r1, r3
 5012              	.LVL397:
 5013              		.loc 1 3030 11 view .LVU1631
 5014 000a E4B2     		uxtb	r4, r4
 5015              	.LVL398:
 5016              		.loc 1 3033 3 is_stmt 1 view .LVU1632
ARM GAS  C:\Users\USER\AppData\Local\Temp\ccNdlOSb.s 			page 89


 5017              		.loc 1 3036 3 view .LVU1633
 5018              		.loc 1 3033 11 is_stmt 0 view .LVU1634
 5019 000c 0C43     		orrs	r4, r4, r1
 5020              	.LVL399:
 5021              		.loc 1 3036 14 view .LVU1635
 5022 000e A4B2     		uxth	r4, r4
 5023 0010 8460     		str	r4, [r0, #8]
 5024              	.LVL400:
 5025              		.loc 1 3036 14 view .LVU1636
 5026              	.LBE92:
 5027              	.LBE93:
 5028              		.loc 1 2792 3 is_stmt 1 view .LVU1637
 5029              		.loc 1 2792 17 is_stmt 0 view .LVU1638
 5030 0012 8368     		ldr	r3, [r0, #8]
 5031              	.LVL401:
 5032              		.loc 1 2795 3 is_stmt 1 view .LVU1639
 5033              		.loc 1 2798 3 view .LVU1640
 5034              		.loc 1 2801 3 view .LVU1641
 5035              		.loc 1 2806 1 is_stmt 0 view .LVU1642
 5036 0014 5DF8044B 		ldr	r4, [sp], #4
 5037              		.cfi_restore 4
 5038              		.cfi_def_cfa_offset 0
 5039 0018 23F07703 		bic	r3, r3, #119
 5040              	.LVL402:
 5041              		.loc 1 2806 1 view .LVU1643
 5042 001c 9BB2     		uxth	r3, r3
 5043              	.LVL403:
 5044              		.loc 1 2802 3 is_stmt 1 view .LVU1644
 5045              		.loc 1 2805 3 view .LVU1645
 5046              		.loc 1 2805 14 is_stmt 0 view .LVU1646
 5047 001e 43F07703 		orr	r3, r3, #119
 5048              	.LVL404:
 5049              		.loc 1 2805 14 view .LVU1647
 5050 0022 8360     		str	r3, [r0, #8]
 5051              		.loc 1 2806 1 view .LVU1648
 5052 0024 7047     		bx	lr
 5053              		.cfi_endproc
 5054              	.LFE190:
 5055              		.size	TIM_ETRClockMode1Config, .-TIM_ETRClockMode1Config
 5056 0026 00BF     		.section	.text.TIM_ETRClockMode2Config,"ax",%progbits
 5057              		.align	1
 5058              		.p2align 4,,15
 5059              		.global	TIM_ETRClockMode2Config
 5060              		.syntax unified
 5061              		.thumb
 5062              		.thumb_func
 5063              		.fpu fpv4-sp-d16
 5064              		.type	TIM_ETRClockMode2Config, %function
 5065              	TIM_ETRClockMode2Config:
 5066              	.LVL405:
 5067              	.LFB191:
 5068              		.loc 1 2827 1 is_stmt 1 view -0
 5069              		.cfi_startproc
 5070              		@ args = 0, pretend = 0, frame = 0
 5071              		@ frame_needed = 0, uses_anonymous_args = 0
 5072              		@ link register save eliminated.
 5073              		.loc 1 2829 3 view .LVU1650
ARM GAS  C:\Users\USER\AppData\Local\Temp\ccNdlOSb.s 			page 90


 5074              		.loc 1 2830 3 view .LVU1651
 5075              		.loc 1 2831 3 view .LVU1652
 5076              		.loc 1 2832 3 view .LVU1653
 5077              		.loc 1 2835 3 view .LVU1654
 5078              	.LBB94:
 5079              	.LBI94:
 5080              		.loc 1 3016 6 view .LVU1655
 5081              	.LBB95:
 5082              		.loc 1 3019 3 view .LVU1656
 5083              		.loc 1 3022 3 view .LVU1657
 5084              		.loc 1 3023 3 view .LVU1658
 5085              		.loc 1 3024 3 view .LVU1659
 5086              		.loc 1 3025 3 view .LVU1660
 5087              		.loc 1 3027 3 view .LVU1661
 5088              	.LBE95:
 5089              	.LBE94:
 5090              		.loc 1 2827 1 is_stmt 0 view .LVU1662
 5091 0000 10B4     		push	{r4}
 5092              		.cfi_def_cfa_offset 4
 5093              		.cfi_offset 4, -4
 5094              	.LBB97:
 5095              	.LBB96:
 5096              		.loc 1 3027 17 view .LVU1663
 5097 0002 8468     		ldr	r4, [r0, #8]
 5098              	.LVL406:
 5099              		.loc 1 3030 3 is_stmt 1 view .LVU1664
 5100              		.loc 1 3033 47 is_stmt 0 view .LVU1665
 5101 0004 42EA0323 		orr	r3, r2, r3, lsl #8
 5102              	.LVL407:
 5103              		.loc 1 3033 14 view .LVU1666
 5104 0008 1943     		orrs	r1, r1, r3
 5105              	.LVL408:
 5106              		.loc 1 3030 11 view .LVU1667
 5107 000a E4B2     		uxtb	r4, r4
 5108              	.LVL409:
 5109              		.loc 1 3033 3 is_stmt 1 view .LVU1668
 5110              		.loc 1 3036 3 view .LVU1669
 5111              		.loc 1 3033 11 is_stmt 0 view .LVU1670
 5112 000c 0C43     		orrs	r4, r4, r1
 5113              	.LVL410:
 5114              		.loc 1 3036 14 view .LVU1671
 5115 000e A4B2     		uxth	r4, r4
 5116 0010 8460     		str	r4, [r0, #8]
 5117              	.LVL411:
 5118              		.loc 1 3036 14 view .LVU1672
 5119              	.LBE96:
 5120              	.LBE97:
 5121              		.loc 1 2838 3 is_stmt 1 view .LVU1673
 5122              		.loc 1 2838 14 is_stmt 0 view .LVU1674
 5123 0012 8368     		ldr	r3, [r0, #8]
 5124              		.loc 1 2839 1 view .LVU1675
 5125 0014 5DF8044B 		ldr	r4, [sp], #4
 5126              		.cfi_restore 4
 5127              		.cfi_def_cfa_offset 0
 5128              		.loc 1 2838 14 view .LVU1676
 5129 0018 43F48043 		orr	r3, r3, #16384
 5130 001c 8360     		str	r3, [r0, #8]
ARM GAS  C:\Users\USER\AppData\Local\Temp\ccNdlOSb.s 			page 91


 5131              		.loc 1 2839 1 view .LVU1677
 5132 001e 7047     		bx	lr
 5133              		.cfi_endproc
 5134              	.LFE191:
 5135              		.size	TIM_ETRClockMode2Config, .-TIM_ETRClockMode2Config
 5136              		.section	.text.TIM_SelectInputTrigger,"ax",%progbits
 5137              		.align	1
 5138              		.p2align 4,,15
 5139              		.global	TIM_SelectInputTrigger
 5140              		.syntax unified
 5141              		.thumb
 5142              		.thumb_func
 5143              		.fpu fpv4-sp-d16
 5144              		.type	TIM_SelectInputTrigger, %function
 5145              	TIM_SelectInputTrigger:
 5146              	.LVL412:
 5147              	.LFB192:
 5148              		.loc 1 2897 1 is_stmt 1 view -0
 5149              		.cfi_startproc
 5150              		@ args = 0, pretend = 0, frame = 0
 5151              		@ frame_needed = 0, uses_anonymous_args = 0
 5152              		@ link register save eliminated.
 5153              		.loc 1 2898 3 view .LVU1679
 5154              		.loc 1 2901 3 view .LVU1680
 5155              		.loc 1 2902 3 view .LVU1681
 5156              		.loc 1 2905 3 view .LVU1682
 5157              		.loc 1 2905 17 is_stmt 0 view .LVU1683
 5158 0000 8268     		ldr	r2, [r0, #8]
 5159              	.LVL413:
 5160              		.loc 1 2908 3 is_stmt 1 view .LVU1684
 5161              		.loc 1 2908 11 is_stmt 0 view .LVU1685
 5162 0002 4FF68F73 		movw	r3, #65423
 5163 0006 1340     		ands	r3, r3, r2
 5164              	.LVL414:
 5165              		.loc 1 2911 3 is_stmt 1 view .LVU1686
 5166              		.loc 1 2914 3 view .LVU1687
 5167              		.loc 1 2914 14 is_stmt 0 view .LVU1688
 5168 0008 1943     		orrs	r1, r1, r3
 5169              	.LVL415:
 5170              		.loc 1 2914 14 view .LVU1689
 5171 000a 8160     		str	r1, [r0, #8]
 5172              		.loc 1 2915 1 view .LVU1690
 5173 000c 7047     		bx	lr
 5174              		.cfi_endproc
 5175              	.LFE192:
 5176              		.size	TIM_SelectInputTrigger, .-TIM_SelectInputTrigger
 5177 000e 00BF     		.section	.text.TIM_SelectOutputTrigger,"ax",%progbits
 5178              		.align	1
 5179              		.p2align 4,,15
 5180              		.global	TIM_SelectOutputTrigger
 5181              		.syntax unified
 5182              		.thumb
 5183              		.thumb_func
 5184              		.fpu fpv4-sp-d16
 5185              		.type	TIM_SelectOutputTrigger, %function
 5186              	TIM_SelectOutputTrigger:
 5187              	.LVL416:
ARM GAS  C:\Users\USER\AppData\Local\Temp\ccNdlOSb.s 			page 92


 5188              	.LFB193:
 5189              		.loc 1 2940 1 is_stmt 1 view -0
 5190              		.cfi_startproc
 5191              		@ args = 0, pretend = 0, frame = 0
 5192              		@ frame_needed = 0, uses_anonymous_args = 0
 5193              		@ link register save eliminated.
 5194              		.loc 1 2942 3 view .LVU1692
 5195              		.loc 1 2943 3 view .LVU1693
 5196              		.loc 1 2946 3 view .LVU1694
 5197              		.loc 1 2946 13 is_stmt 0 view .LVU1695
 5198 0000 4368     		ldr	r3, [r0, #4]
 5199 0002 4FF68F72 		movw	r2, #65423
 5200 0006 1340     		ands	r3, r3, r2
 5201 0008 4360     		str	r3, [r0, #4]
 5202              		.loc 1 2948 3 is_stmt 1 view .LVU1696
 5203              		.loc 1 2948 13 is_stmt 0 view .LVU1697
 5204 000a 4368     		ldr	r3, [r0, #4]
 5205 000c 1943     		orrs	r1, r1, r3
 5206              	.LVL417:
 5207              		.loc 1 2948 13 view .LVU1698
 5208 000e 4160     		str	r1, [r0, #4]
 5209              		.loc 1 2949 1 view .LVU1699
 5210 0010 7047     		bx	lr
 5211              		.cfi_endproc
 5212              	.LFE193:
 5213              		.size	TIM_SelectOutputTrigger, .-TIM_SelectOutputTrigger
 5214 0012 00BF     		.section	.text.TIM_SelectSlaveMode,"ax",%progbits
 5215              		.align	1
 5216              		.p2align 4,,15
 5217              		.global	TIM_SelectSlaveMode
 5218              		.syntax unified
 5219              		.thumb
 5220              		.thumb_func
 5221              		.fpu fpv4-sp-d16
 5222              		.type	TIM_SelectSlaveMode, %function
 5223              	TIM_SelectSlaveMode:
 5224              	.LVL418:
 5225              	.LFB194:
 5226              		.loc 1 2964 1 is_stmt 1 view -0
 5227              		.cfi_startproc
 5228              		@ args = 0, pretend = 0, frame = 0
 5229              		@ frame_needed = 0, uses_anonymous_args = 0
 5230              		@ link register save eliminated.
 5231              		.loc 1 2966 3 view .LVU1701
 5232              		.loc 1 2967 3 view .LVU1702
 5233              		.loc 1 2970 3 view .LVU1703
 5234              		.loc 1 2970 14 is_stmt 0 view .LVU1704
 5235 0000 8368     		ldr	r3, [r0, #8]
 5236 0002 4FF6F872 		movw	r2, #65528
 5237 0006 1340     		ands	r3, r3, r2
 5238 0008 8360     		str	r3, [r0, #8]
 5239              		.loc 1 2973 3 is_stmt 1 view .LVU1705
 5240              		.loc 1 2973 14 is_stmt 0 view .LVU1706
 5241 000a 8368     		ldr	r3, [r0, #8]
 5242 000c 1943     		orrs	r1, r1, r3
 5243              	.LVL419:
 5244              		.loc 1 2973 14 view .LVU1707
ARM GAS  C:\Users\USER\AppData\Local\Temp\ccNdlOSb.s 			page 93


 5245 000e 8160     		str	r1, [r0, #8]
 5246              		.loc 1 2974 1 view .LVU1708
 5247 0010 7047     		bx	lr
 5248              		.cfi_endproc
 5249              	.LFE194:
 5250              		.size	TIM_SelectSlaveMode, .-TIM_SelectSlaveMode
 5251 0012 00BF     		.section	.text.TIM_SelectMasterSlaveMode,"ax",%progbits
 5252              		.align	1
 5253              		.p2align 4,,15
 5254              		.global	TIM_SelectMasterSlaveMode
 5255              		.syntax unified
 5256              		.thumb
 5257              		.thumb_func
 5258              		.fpu fpv4-sp-d16
 5259              		.type	TIM_SelectMasterSlaveMode, %function
 5260              	TIM_SelectMasterSlaveMode:
 5261              	.LVL420:
 5262              	.LFB195:
 5263              		.loc 1 2987 1 is_stmt 1 view -0
 5264              		.cfi_startproc
 5265              		@ args = 0, pretend = 0, frame = 0
 5266              		@ frame_needed = 0, uses_anonymous_args = 0
 5267              		@ link register save eliminated.
 5268              		.loc 1 2989 3 view .LVU1710
 5269              		.loc 1 2990 3 view .LVU1711
 5270              		.loc 1 2993 3 view .LVU1712
 5271              		.loc 1 2993 14 is_stmt 0 view .LVU1713
 5272 0000 8368     		ldr	r3, [r0, #8]
 5273 0002 4FF67F72 		movw	r2, #65407
 5274 0006 1340     		ands	r3, r3, r2
 5275 0008 8360     		str	r3, [r0, #8]
 5276              		.loc 1 2996 3 is_stmt 1 view .LVU1714
 5277              		.loc 1 2996 14 is_stmt 0 view .LVU1715
 5278 000a 8368     		ldr	r3, [r0, #8]
 5279 000c 1943     		orrs	r1, r1, r3
 5280              	.LVL421:
 5281              		.loc 1 2996 14 view .LVU1716
 5282 000e 8160     		str	r1, [r0, #8]
 5283              		.loc 1 2997 1 view .LVU1717
 5284 0010 7047     		bx	lr
 5285              		.cfi_endproc
 5286              	.LFE195:
 5287              		.size	TIM_SelectMasterSlaveMode, .-TIM_SelectMasterSlaveMode
 5288 0012 00BF     		.section	.text.TIM_ETRConfig,"ax",%progbits
 5289              		.align	1
 5290              		.p2align 4,,15
 5291              		.global	TIM_ETRConfig
 5292              		.syntax unified
 5293              		.thumb
 5294              		.thumb_func
 5295              		.fpu fpv4-sp-d16
 5296              		.type	TIM_ETRConfig, %function
 5297              	TIM_ETRConfig:
 5298              	.LVL422:
 5299              	.LFB196:
 5300              		.loc 1 3018 1 is_stmt 1 view -0
 5301              		.cfi_startproc
ARM GAS  C:\Users\USER\AppData\Local\Temp\ccNdlOSb.s 			page 94


 5302              		@ args = 0, pretend = 0, frame = 0
 5303              		@ frame_needed = 0, uses_anonymous_args = 0
 5304              		@ link register save eliminated.
 5305              		.loc 1 3019 3 view .LVU1719
 5306              		.loc 1 3022 3 view .LVU1720
 5307              		.loc 1 3023 3 view .LVU1721
 5308              		.loc 1 3024 3 view .LVU1722
 5309              		.loc 1 3025 3 view .LVU1723
 5310              		.loc 1 3027 3 view .LVU1724
 5311              		.loc 1 3018 1 is_stmt 0 view .LVU1725
 5312 0000 10B4     		push	{r4}
 5313              		.cfi_def_cfa_offset 4
 5314              		.cfi_offset 4, -4
 5315              		.loc 1 3027 17 view .LVU1726
 5316 0002 8468     		ldr	r4, [r0, #8]
 5317              	.LVL423:
 5318              		.loc 1 3030 3 is_stmt 1 view .LVU1727
 5319              		.loc 1 3033 14 is_stmt 0 view .LVU1728
 5320 0004 0A43     		orrs	r2, r2, r1
 5321              	.LVL424:
 5322              		.loc 1 3033 14 view .LVU1729
 5323 0006 42EA0323 		orr	r3, r2, r3, lsl #8
 5324              	.LVL425:
 5325              		.loc 1 3030 11 view .LVU1730
 5326 000a E4B2     		uxtb	r4, r4
 5327              	.LVL426:
 5328              		.loc 1 3033 3 is_stmt 1 view .LVU1731
 5329              		.loc 1 3036 3 view .LVU1732
 5330              		.loc 1 3033 11 is_stmt 0 view .LVU1733
 5331 000c 1C43     		orrs	r4, r4, r3
 5332              	.LVL427:
 5333              		.loc 1 3036 14 view .LVU1734
 5334 000e A4B2     		uxth	r4, r4
 5335 0010 8460     		str	r4, [r0, #8]
 5336              		.loc 1 3037 1 view .LVU1735
 5337 0012 5DF8044B 		ldr	r4, [sp], #4
 5338              		.cfi_restore 4
 5339              		.cfi_def_cfa_offset 0
 5340 0016 7047     		bx	lr
 5341              		.cfi_endproc
 5342              	.LFE196:
 5343              		.size	TIM_ETRConfig, .-TIM_ETRConfig
 5344              		.section	.text.TIM_EncoderInterfaceConfig,"ax",%progbits
 5345              		.align	1
 5346              		.p2align 4,,15
 5347              		.global	TIM_EncoderInterfaceConfig
 5348              		.syntax unified
 5349              		.thumb
 5350              		.thumb_func
 5351              		.fpu fpv4-sp-d16
 5352              		.type	TIM_EncoderInterfaceConfig, %function
 5353              	TIM_EncoderInterfaceConfig:
 5354              	.LVL428:
 5355              	.LFB197:
 5356              		.loc 1 3076 1 is_stmt 1 view -0
 5357              		.cfi_startproc
 5358              		@ args = 0, pretend = 0, frame = 0
ARM GAS  C:\Users\USER\AppData\Local\Temp\ccNdlOSb.s 			page 95


 5359              		@ frame_needed = 0, uses_anonymous_args = 0
 5360              		@ link register save eliminated.
 5361              		.loc 1 3077 3 view .LVU1737
 5362              		.loc 1 3078 3 view .LVU1738
 5363              		.loc 1 3079 3 view .LVU1739
 5364              		.loc 1 3082 3 view .LVU1740
 5365              		.loc 1 3083 3 view .LVU1741
 5366              		.loc 1 3084 3 view .LVU1742
 5367              		.loc 1 3085 3 view .LVU1743
 5368              		.loc 1 3088 3 view .LVU1744
 5369              		.loc 1 3076 1 is_stmt 0 view .LVU1745
 5370 0000 F0B4     		push	{r4, r5, r6, r7}
 5371              		.cfi_def_cfa_offset 16
 5372              		.cfi_offset 4, -16
 5373              		.cfi_offset 5, -12
 5374              		.cfi_offset 6, -8
 5375              		.cfi_offset 7, -4
 5376              		.loc 1 3088 17 view .LVU1746
 5377 0002 8768     		ldr	r7, [r0, #8]
 5378              	.LVL429:
 5379              		.loc 1 3091 3 is_stmt 1 view .LVU1747
 5380              		.loc 1 3091 18 is_stmt 0 view .LVU1748
 5381 0004 8669     		ldr	r6, [r0, #24]
 5382              	.LVL430:
 5383              		.loc 1 3094 3 is_stmt 1 view .LVU1749
 5384              		.loc 1 3094 17 is_stmt 0 view .LVU1750
 5385 0006 D0F820C0 		ldr	ip, [r0, #32]
 5386              	.LVL431:
 5387              		.loc 1 3097 3 is_stmt 1 view .LVU1751
 5388              		.loc 1 3105 11 is_stmt 0 view .LVU1752
 5389 000a 4FF6DD74 		movw	r4, #65501
 5390              		.loc 1 3101 12 view .LVU1753
 5391 000e 4FF6FC45 		movw	r5, #64764
 5392 0012 3540     		ands	r5, r5, r6
 5393              		.loc 1 3106 14 view .LVU1754
 5394 0014 42EA0313 		orr	r3, r2, r3, lsl #4
 5395              	.LVL432:
 5396              		.loc 1 3105 11 view .LVU1755
 5397 0018 0CEA0404 		and	r4, ip, r4
 5398              		.loc 1 3097 11 view .LVU1756
 5399 001c 4FF6F876 		movw	r6, #65528
 5400              	.LVL433:
 5401              		.loc 1 3097 11 view .LVU1757
 5402 0020 3E40     		ands	r6, r6, r7
 5403              		.loc 1 3106 11 view .LVU1758
 5404 0022 1C43     		orrs	r4, r4, r3
 5405              	.LVL434:
 5406              		.loc 1 3098 3 is_stmt 1 view .LVU1759
 5407              		.loc 1 3101 3 view .LVU1760
 5408              		.loc 1 3102 3 view .LVU1761
 5409              		.loc 1 3105 3 view .LVU1762
 5410              		.loc 1 3106 3 view .LVU1763
 5411              		.loc 1 3109 3 view .LVU1764
 5412              		.loc 1 3112 15 is_stmt 0 view .LVU1765
 5413 0024 45F48075 		orr	r5, r5, #256
 5414              	.LVL435:
 5415              		.loc 1 3115 14 view .LVU1766
ARM GAS  C:\Users\USER\AppData\Local\Temp\ccNdlOSb.s 			page 96


 5416 0028 A4B2     		uxth	r4, r4
 5417              		.loc 1 3112 15 view .LVU1767
 5418 002a 45F00105 		orr	r5, r5, #1
 5419              		.loc 1 3109 14 view .LVU1768
 5420 002e 3143     		orrs	r1, r1, r6
 5421              	.LVL436:
 5422              		.loc 1 3109 14 view .LVU1769
 5423 0030 8160     		str	r1, [r0, #8]
 5424              		.loc 1 3112 3 is_stmt 1 view .LVU1770
 5425              		.loc 1 3112 15 is_stmt 0 view .LVU1771
 5426 0032 8561     		str	r5, [r0, #24]
 5427              		.loc 1 3115 3 is_stmt 1 view .LVU1772
 5428              		.loc 1 3115 14 is_stmt 0 view .LVU1773
 5429 0034 0462     		str	r4, [r0, #32]
 5430              		.loc 1 3116 1 view .LVU1774
 5431 0036 F0BC     		pop	{r4, r5, r6, r7}
 5432              		.cfi_restore 7
 5433              		.cfi_restore 6
 5434              		.cfi_restore 5
 5435              		.cfi_restore 4
 5436              		.cfi_def_cfa_offset 0
 5437              	.LVL437:
 5438              		.loc 1 3116 1 view .LVU1775
 5439 0038 7047     		bx	lr
 5440              		.cfi_endproc
 5441              	.LFE197:
 5442              		.size	TIM_EncoderInterfaceConfig, .-TIM_EncoderInterfaceConfig
 5443 003a 00BF     		.section	.text.TIM_SelectHallSensor,"ax",%progbits
 5444              		.align	1
 5445              		.p2align 4,,15
 5446              		.global	TIM_SelectHallSensor
 5447              		.syntax unified
 5448              		.thumb
 5449              		.thumb_func
 5450              		.fpu fpv4-sp-d16
 5451              		.type	TIM_SelectHallSensor, %function
 5452              	TIM_SelectHallSensor:
 5453              	.LVL438:
 5454              	.LFB198:
 5455              		.loc 1 3127 1 is_stmt 1 view -0
 5456              		.cfi_startproc
 5457              		@ args = 0, pretend = 0, frame = 0
 5458              		@ frame_needed = 0, uses_anonymous_args = 0
 5459              		@ link register save eliminated.
 5460              		.loc 1 3129 3 view .LVU1777
 5461              		.loc 1 3130 3 view .LVU1778
 5462              		.loc 1 3132 3 view .LVU1779
 5463              		.loc 1 3135 15 is_stmt 0 view .LVU1780
 5464 0000 4368     		ldr	r3, [r0, #4]
 5465              		.loc 1 3132 6 view .LVU1781
 5466 0002 19B1     		cbz	r1, .L203
 5467              		.loc 1 3135 5 is_stmt 1 view .LVU1782
 5468              		.loc 1 3135 15 is_stmt 0 view .LVU1783
 5469 0004 43F08003 		orr	r3, r3, #128
 5470 0008 4360     		str	r3, [r0, #4]
 5471 000a 7047     		bx	lr
 5472              	.L203:
ARM GAS  C:\Users\USER\AppData\Local\Temp\ccNdlOSb.s 			page 97


 5473              		.loc 1 3140 5 is_stmt 1 view .LVU1784
 5474              		.loc 1 3140 15 is_stmt 0 view .LVU1785
 5475 000c 4FF67F72 		movw	r2, #65407
 5476 0010 1340     		ands	r3, r3, r2
 5477 0012 4360     		str	r3, [r0, #4]
 5478              		.loc 1 3142 1 view .LVU1786
 5479 0014 7047     		bx	lr
 5480              		.cfi_endproc
 5481              	.LFE198:
 5482              		.size	TIM_SelectHallSensor, .-TIM_SelectHallSensor
 5483 0016 00BF     		.section	.text.TIM_RemapConfig,"ax",%progbits
 5484              		.align	1
 5485              		.p2align 4,,15
 5486              		.global	TIM_RemapConfig
 5487              		.syntax unified
 5488              		.thumb
 5489              		.thumb_func
 5490              		.fpu fpv4-sp-d16
 5491              		.type	TIM_RemapConfig, %function
 5492              	TIM_RemapConfig:
 5493              	.LVL439:
 5494              	.LFB199:
 5495              		.loc 1 3178 1 is_stmt 1 view -0
 5496              		.cfi_startproc
 5497              		@ args = 0, pretend = 0, frame = 0
 5498              		@ frame_needed = 0, uses_anonymous_args = 0
 5499              		@ link register save eliminated.
 5500              		.loc 1 3180 3 view .LVU1788
 5501              		.loc 1 3181 3 view .LVU1789
 5502              		.loc 1 3184 3 view .LVU1790
 5503              		.loc 1 3184 12 is_stmt 0 view .LVU1791
 5504 0000 0165     		str	r1, [r0, #80]
 5505              		.loc 1 3185 1 view .LVU1792
 5506 0002 7047     		bx	lr
 5507              		.cfi_endproc
 5508              	.LFE199:
 5509              		.size	TIM_RemapConfig, .-TIM_RemapConfig
 5510              		.text
 5511              	.Letext0:
 5512              		.file 2 "c:\\program files (x86)\\gnu tools arm embedded\\8 2018-q4-major\\arm-none-eabi\\include\
 5513              		.file 3 "c:\\program files (x86)\\gnu tools arm embedded\\8 2018-q4-major\\arm-none-eabi\\include\
 5514              		.file 4 "src/ChibiOS_3.0.2/os/ext/CMSIS/include/core_cm4.h"
 5515              		.file 5 "src/ChibiOS_3.0.2/os/ext/CMSIS/ST/system_stm32f4xx.h"
 5516              		.file 6 "src/ChibiOS_3.0.2/os/ext/CMSIS/ST/stm32f407xx.h"
 5517              		.file 7 "src/ChibiOS_3.0.2/os/ext/CMSIS/ST/stm32f4xx.h"
 5518              		.file 8 "src/ChibiOS_3.0.2/ext/stdperiph_stm32f4/inc/stm32f4xx_tim.h"
 5519              		.file 9 "src/ChibiOS_3.0.2/ext/stdperiph_stm32f4/inc/stm32f4xx_rcc.h"
 5520              		.section	.debug_info,"",%progbits
 5521              	.Ldebug_info0:
 5522 0000 C1290000 		.4byte	0x29c1
 5523 0004 0400     		.2byte	0x4
 5524 0006 00000000 		.4byte	.Ldebug_abbrev0
 5525 000a 04       		.byte	0x4
 5526 000b 01       		.uleb128 0x1
 5527 000c 49040000 		.4byte	.LASF216
 5528 0010 0C       		.byte	0xc
 5529 0011 B4020000 		.4byte	.LASF217
ARM GAS  C:\Users\USER\AppData\Local\Temp\ccNdlOSb.s 			page 98


 5530 0015 EA090000 		.4byte	.LASF218
 5531 0019 60000000 		.4byte	.Ldebug_ranges0+0x60
 5532 001d 00000000 		.4byte	0
 5533 0021 00000000 		.4byte	.Ldebug_line0
 5534 0025 02       		.uleb128 0x2
 5535 0026 01       		.byte	0x1
 5536 0027 06       		.byte	0x6
 5537 0028 9A020000 		.4byte	.LASF0
 5538 002c 03       		.uleb128 0x3
 5539 002d D0000000 		.4byte	.LASF3
 5540 0031 02       		.byte	0x2
 5541 0032 2B       		.byte	0x2b
 5542 0033 18       		.byte	0x18
 5543 0034 38000000 		.4byte	0x38
 5544 0038 02       		.uleb128 0x2
 5545 0039 01       		.byte	0x1
 5546 003a 08       		.byte	0x8
 5547 003b C1090000 		.4byte	.LASF1
 5548 003f 02       		.uleb128 0x2
 5549 0040 02       		.byte	0x2
 5550 0041 05       		.byte	0x5
 5551 0042 300A0000 		.4byte	.LASF2
 5552 0046 03       		.uleb128 0x3
 5553 0047 12040000 		.4byte	.LASF4
 5554 004b 02       		.byte	0x2
 5555 004c 39       		.byte	0x39
 5556 004d 19       		.byte	0x19
 5557 004e 52000000 		.4byte	0x52
 5558 0052 02       		.uleb128 0x2
 5559 0053 02       		.byte	0x2
 5560 0054 07       		.byte	0x7
 5561 0055 A80A0000 		.4byte	.LASF5
 5562 0059 03       		.uleb128 0x3
 5563 005a C70B0000 		.4byte	.LASF6
 5564 005e 02       		.byte	0x2
 5565 005f 4D       		.byte	0x4d
 5566 0060 18       		.byte	0x18
 5567 0061 65000000 		.4byte	0x65
 5568 0065 02       		.uleb128 0x2
 5569 0066 04       		.byte	0x4
 5570 0067 05       		.byte	0x5
 5571 0068 34030000 		.4byte	.LASF7
 5572 006c 03       		.uleb128 0x3
 5573 006d 29040000 		.4byte	.LASF8
 5574 0071 02       		.byte	0x2
 5575 0072 4F       		.byte	0x4f
 5576 0073 19       		.byte	0x19
 5577 0074 78000000 		.4byte	0x78
 5578 0078 02       		.uleb128 0x2
 5579 0079 04       		.byte	0x4
 5580 007a 07       		.byte	0x7
 5581 007b 270B0000 		.4byte	.LASF9
 5582 007f 02       		.uleb128 0x2
 5583 0080 08       		.byte	0x8
 5584 0081 05       		.byte	0x5
 5585 0082 63030000 		.4byte	.LASF10
 5586 0086 02       		.uleb128 0x2
ARM GAS  C:\Users\USER\AppData\Local\Temp\ccNdlOSb.s 			page 99


 5587 0087 08       		.byte	0x8
 5588 0088 07       		.byte	0x7
 5589 0089 86010000 		.4byte	.LASF11
 5590 008d 04       		.uleb128 0x4
 5591 008e 04       		.byte	0x4
 5592 008f 05       		.byte	0x5
 5593 0090 696E7400 		.ascii	"int\000"
 5594 0094 02       		.uleb128 0x2
 5595 0095 04       		.byte	0x4
 5596 0096 07       		.byte	0x7
 5597 0097 E5050000 		.4byte	.LASF12
 5598 009b 03       		.uleb128 0x3
 5599 009c 1E0D0000 		.4byte	.LASF13
 5600 00a0 03       		.byte	0x3
 5601 00a1 18       		.byte	0x18
 5602 00a2 13       		.byte	0x13
 5603 00a3 2C000000 		.4byte	0x2c
 5604 00a7 03       		.uleb128 0x3
 5605 00a8 71030000 		.4byte	.LASF14
 5606 00ac 03       		.byte	0x3
 5607 00ad 24       		.byte	0x24
 5608 00ae 14       		.byte	0x14
 5609 00af 46000000 		.4byte	0x46
 5610 00b3 03       		.uleb128 0x3
 5611 00b4 B9090000 		.4byte	.LASF15
 5612 00b8 03       		.byte	0x3
 5613 00b9 2C       		.byte	0x2c
 5614 00ba 13       		.byte	0x13
 5615 00bb 59000000 		.4byte	0x59
 5616 00bf 05       		.uleb128 0x5
 5617 00c0 B3000000 		.4byte	0xb3
 5618 00c4 03       		.uleb128 0x3
 5619 00c5 D70C0000 		.4byte	.LASF16
 5620 00c9 03       		.byte	0x3
 5621 00ca 30       		.byte	0x30
 5622 00cb 14       		.byte	0x14
 5623 00cc 6C000000 		.4byte	0x6c
 5624 00d0 05       		.uleb128 0x5
 5625 00d1 C4000000 		.4byte	0xc4
 5626 00d5 06       		.uleb128 0x6
 5627 00d6 ED010000 		.4byte	.LASF17
 5628 00da 04       		.byte	0x4
 5629 00db A706     		.2byte	0x6a7
 5630 00dd 19       		.byte	0x19
 5631 00de BF000000 		.4byte	0xbf
 5632 00e2 07       		.uleb128 0x7
 5633 00e3 C70C0000 		.4byte	.LASF18
 5634 00e7 05       		.byte	0x5
 5635 00e8 4C       		.byte	0x4c
 5636 00e9 11       		.byte	0x11
 5637 00ea C4000000 		.4byte	0xc4
 5638 00ee 08       		.uleb128 0x8
 5639 00ef 54       		.byte	0x54
 5640 00f0 06       		.byte	0x6
 5641 00f1 EC02     		.2byte	0x2ec
 5642 00f3 09       		.byte	0x9
 5643 00f4 1D020000 		.4byte	0x21d
ARM GAS  C:\Users\USER\AppData\Local\Temp\ccNdlOSb.s 			page 100


 5644 00f8 09       		.uleb128 0x9
 5645 00f9 43523100 		.ascii	"CR1\000"
 5646 00fd 06       		.byte	0x6
 5647 00fe EE02     		.2byte	0x2ee
 5648 0100 11       		.byte	0x11
 5649 0101 D0000000 		.4byte	0xd0
 5650 0105 00       		.byte	0
 5651 0106 09       		.uleb128 0x9
 5652 0107 43523200 		.ascii	"CR2\000"
 5653 010b 06       		.byte	0x6
 5654 010c EF02     		.2byte	0x2ef
 5655 010e 11       		.byte	0x11
 5656 010f D0000000 		.4byte	0xd0
 5657 0113 04       		.byte	0x4
 5658 0114 0A       		.uleb128 0xa
 5659 0115 DE060000 		.4byte	.LASF19
 5660 0119 06       		.byte	0x6
 5661 011a F002     		.2byte	0x2f0
 5662 011c 11       		.byte	0x11
 5663 011d D0000000 		.4byte	0xd0
 5664 0121 08       		.byte	0x8
 5665 0122 0A       		.uleb128 0xa
 5666 0123 4A000000 		.4byte	.LASF20
 5667 0127 06       		.byte	0x6
 5668 0128 F102     		.2byte	0x2f1
 5669 012a 11       		.byte	0x11
 5670 012b D0000000 		.4byte	0xd0
 5671 012f 0C       		.byte	0xc
 5672 0130 09       		.uleb128 0x9
 5673 0131 535200   		.ascii	"SR\000"
 5674 0134 06       		.byte	0x6
 5675 0135 F202     		.2byte	0x2f2
 5676 0137 11       		.byte	0x11
 5677 0138 D0000000 		.4byte	0xd0
 5678 013c 10       		.byte	0x10
 5679 013d 09       		.uleb128 0x9
 5680 013e 45475200 		.ascii	"EGR\000"
 5681 0142 06       		.byte	0x6
 5682 0143 F302     		.2byte	0x2f3
 5683 0145 11       		.byte	0x11
 5684 0146 D0000000 		.4byte	0xd0
 5685 014a 14       		.byte	0x14
 5686 014b 0A       		.uleb128 0xa
 5687 014c 78020000 		.4byte	.LASF21
 5688 0150 06       		.byte	0x6
 5689 0151 F402     		.2byte	0x2f4
 5690 0153 11       		.byte	0x11
 5691 0154 D0000000 		.4byte	0xd0
 5692 0158 18       		.byte	0x18
 5693 0159 0A       		.uleb128 0xa
 5694 015a 7E020000 		.4byte	.LASF22
 5695 015e 06       		.byte	0x6
 5696 015f F502     		.2byte	0x2f5
 5697 0161 11       		.byte	0x11
 5698 0162 D0000000 		.4byte	0xd0
 5699 0166 1C       		.byte	0x1c
 5700 0167 0A       		.uleb128 0xa
ARM GAS  C:\Users\USER\AppData\Local\Temp\ccNdlOSb.s 			page 101


 5701 0168 5E030000 		.4byte	.LASF23
 5702 016c 06       		.byte	0x6
 5703 016d F602     		.2byte	0x2f6
 5704 016f 11       		.byte	0x11
 5705 0170 D0000000 		.4byte	0xd0
 5706 0174 20       		.byte	0x20
 5707 0175 09       		.uleb128 0x9
 5708 0176 434E5400 		.ascii	"CNT\000"
 5709 017a 06       		.byte	0x6
 5710 017b F702     		.2byte	0x2f7
 5711 017d 11       		.byte	0x11
 5712 017e D0000000 		.4byte	0xd0
 5713 0182 24       		.byte	0x24
 5714 0183 09       		.uleb128 0x9
 5715 0184 50534300 		.ascii	"PSC\000"
 5716 0188 06       		.byte	0x6
 5717 0189 F802     		.2byte	0x2f8
 5718 018b 11       		.byte	0x11
 5719 018c D0000000 		.4byte	0xd0
 5720 0190 28       		.byte	0x28
 5721 0191 09       		.uleb128 0x9
 5722 0192 41525200 		.ascii	"ARR\000"
 5723 0196 06       		.byte	0x6
 5724 0197 F902     		.2byte	0x2f9
 5725 0199 11       		.byte	0x11
 5726 019a D0000000 		.4byte	0xd0
 5727 019e 2C       		.byte	0x2c
 5728 019f 09       		.uleb128 0x9
 5729 01a0 52435200 		.ascii	"RCR\000"
 5730 01a4 06       		.byte	0x6
 5731 01a5 FA02     		.2byte	0x2fa
 5732 01a7 11       		.byte	0x11
 5733 01a8 D0000000 		.4byte	0xd0
 5734 01ac 30       		.byte	0x30
 5735 01ad 0A       		.uleb128 0xa
 5736 01ae E00C0000 		.4byte	.LASF24
 5737 01b2 06       		.byte	0x6
 5738 01b3 FB02     		.2byte	0x2fb
 5739 01b5 11       		.byte	0x11
 5740 01b6 D0000000 		.4byte	0xd0
 5741 01ba 34       		.byte	0x34
 5742 01bb 0A       		.uleb128 0xa
 5743 01bc E50C0000 		.4byte	.LASF25
 5744 01c0 06       		.byte	0x6
 5745 01c1 FC02     		.2byte	0x2fc
 5746 01c3 11       		.byte	0x11
 5747 01c4 D0000000 		.4byte	0xd0
 5748 01c8 38       		.byte	0x38
 5749 01c9 0A       		.uleb128 0xa
 5750 01ca EA0C0000 		.4byte	.LASF26
 5751 01ce 06       		.byte	0x6
 5752 01cf FD02     		.2byte	0x2fd
 5753 01d1 11       		.byte	0x11
 5754 01d2 D0000000 		.4byte	0xd0
 5755 01d6 3C       		.byte	0x3c
 5756 01d7 0A       		.uleb128 0xa
 5757 01d8 EF0C0000 		.4byte	.LASF27
ARM GAS  C:\Users\USER\AppData\Local\Temp\ccNdlOSb.s 			page 102


 5758 01dc 06       		.byte	0x6
 5759 01dd FE02     		.2byte	0x2fe
 5760 01df 11       		.byte	0x11
 5761 01e0 D0000000 		.4byte	0xd0
 5762 01e4 40       		.byte	0x40
 5763 01e5 0A       		.uleb128 0xa
 5764 01e6 3A0A0000 		.4byte	.LASF28
 5765 01ea 06       		.byte	0x6
 5766 01eb FF02     		.2byte	0x2ff
 5767 01ed 11       		.byte	0x11
 5768 01ee D0000000 		.4byte	0xd0
 5769 01f2 44       		.byte	0x44
 5770 01f3 09       		.uleb128 0x9
 5771 01f4 44435200 		.ascii	"DCR\000"
 5772 01f8 06       		.byte	0x6
 5773 01f9 0003     		.2byte	0x300
 5774 01fb 11       		.byte	0x11
 5775 01fc D0000000 		.4byte	0xd0
 5776 0200 48       		.byte	0x48
 5777 0201 0A       		.uleb128 0xa
 5778 0202 690B0000 		.4byte	.LASF29
 5779 0206 06       		.byte	0x6
 5780 0207 0103     		.2byte	0x301
 5781 0209 11       		.byte	0x11
 5782 020a D0000000 		.4byte	0xd0
 5783 020e 4C       		.byte	0x4c
 5784 020f 09       		.uleb128 0x9
 5785 0210 4F5200   		.ascii	"OR\000"
 5786 0213 06       		.byte	0x6
 5787 0214 0203     		.2byte	0x302
 5788 0216 11       		.byte	0x11
 5789 0217 D0000000 		.4byte	0xd0
 5790 021b 50       		.byte	0x50
 5791 021c 00       		.byte	0
 5792 021d 0B       		.uleb128 0xb
 5793 021e 1D040000 		.4byte	.LASF30
 5794 0222 06       		.byte	0x6
 5795 0223 0303     		.2byte	0x303
 5796 0225 03       		.byte	0x3
 5797 0226 EE000000 		.4byte	0xee
 5798 022a 0C       		.uleb128 0xc
 5799 022b 07       		.byte	0x7
 5800 022c 01       		.byte	0x1
 5801 022d 38000000 		.4byte	0x38
 5802 0231 07       		.byte	0x7
 5803 0232 A2       		.byte	0xa2
 5804 0233 01       		.byte	0x1
 5805 0234 45020000 		.4byte	0x245
 5806 0238 0D       		.uleb128 0xd
 5807 0239 A7070000 		.4byte	.LASF31
 5808 023d 00       		.byte	0
 5809 023e 0E       		.uleb128 0xe
 5810 023f 53455400 		.ascii	"SET\000"
 5811 0243 01       		.byte	0x1
 5812 0244 00       		.byte	0
 5813 0245 03       		.uleb128 0x3
 5814 0246 C5000000 		.4byte	.LASF32
ARM GAS  C:\Users\USER\AppData\Local\Temp\ccNdlOSb.s 			page 103


 5815 024a 07       		.byte	0x7
 5816 024b A5       		.byte	0xa5
 5817 024c 03       		.byte	0x3
 5818 024d 2A020000 		.4byte	0x22a
 5819 0251 03       		.uleb128 0x3
 5820 0252 70090000 		.4byte	.LASF33
 5821 0256 07       		.byte	0x7
 5822 0257 A5       		.byte	0xa5
 5823 0258 0F       		.byte	0xf
 5824 0259 2A020000 		.4byte	0x22a
 5825 025d 0C       		.uleb128 0xc
 5826 025e 07       		.byte	0x7
 5827 025f 01       		.byte	0x1
 5828 0260 38000000 		.4byte	0x38
 5829 0264 07       		.byte	0x7
 5830 0265 A8       		.byte	0xa8
 5831 0266 01       		.byte	0x1
 5832 0267 78020000 		.4byte	0x278
 5833 026b 0D       		.uleb128 0xd
 5834 026c 67010000 		.4byte	.LASF34
 5835 0270 00       		.byte	0
 5836 0271 0D       		.uleb128 0xd
 5837 0272 4E030000 		.4byte	.LASF35
 5838 0276 01       		.byte	0x1
 5839 0277 00       		.byte	0
 5840 0278 03       		.uleb128 0x3
 5841 0279 BB080000 		.4byte	.LASF36
 5842 027d 07       		.byte	0x7
 5843 027e AB       		.byte	0xab
 5844 027f 03       		.byte	0x3
 5845 0280 5D020000 		.4byte	0x25d
 5846 0284 0F       		.uleb128 0xf
 5847 0285 0C       		.byte	0xc
 5848 0286 08       		.byte	0x8
 5849 0287 37       		.byte	0x37
 5850 0288 09       		.byte	0x9
 5851 0289 CF020000 		.4byte	0x2cf
 5852 028d 10       		.uleb128 0x10
 5853 028e 90090000 		.4byte	.LASF37
 5854 0292 08       		.byte	0x8
 5855 0293 39       		.byte	0x39
 5856 0294 0C       		.byte	0xc
 5857 0295 A7000000 		.4byte	0xa7
 5858 0299 00       		.byte	0
 5859 029a 10       		.uleb128 0x10
 5860 029b 86000000 		.4byte	.LASF38
 5861 029f 08       		.byte	0x8
 5862 02a0 3C       		.byte	0x3c
 5863 02a1 0C       		.byte	0xc
 5864 02a2 A7000000 		.4byte	0xa7
 5865 02a6 02       		.byte	0x2
 5866 02a7 10       		.uleb128 0x10
 5867 02a8 8E0B0000 		.4byte	.LASF39
 5868 02ac 08       		.byte	0x8
 5869 02ad 3F       		.byte	0x3f
 5870 02ae 0C       		.byte	0xc
 5871 02af C4000000 		.4byte	0xc4
ARM GAS  C:\Users\USER\AppData\Local\Temp\ccNdlOSb.s 			page 104


 5872 02b3 04       		.byte	0x4
 5873 02b4 10       		.uleb128 0x10
 5874 02b5 0C060000 		.4byte	.LASF40
 5875 02b9 08       		.byte	0x8
 5876 02ba 43       		.byte	0x43
 5877 02bb 0C       		.byte	0xc
 5878 02bc A7000000 		.4byte	0xa7
 5879 02c0 08       		.byte	0x8
 5880 02c1 10       		.uleb128 0x10
 5881 02c2 580D0000 		.4byte	.LASF41
 5882 02c6 08       		.byte	0x8
 5883 02c7 46       		.byte	0x46
 5884 02c8 0B       		.byte	0xb
 5885 02c9 9B000000 		.4byte	0x9b
 5886 02cd 0A       		.byte	0xa
 5887 02ce 00       		.byte	0
 5888 02cf 03       		.uleb128 0x3
 5889 02d0 990B0000 		.4byte	.LASF42
 5890 02d4 08       		.byte	0x8
 5891 02d5 4E       		.byte	0x4e
 5892 02d6 03       		.byte	0x3
 5893 02d7 84020000 		.4byte	0x284
 5894 02db 0F       		.uleb128 0xf
 5895 02dc 14       		.byte	0x14
 5896 02dd 08       		.byte	0x8
 5897 02de 54       		.byte	0x54
 5898 02df 09       		.byte	0x9
 5899 02e0 4D030000 		.4byte	0x34d
 5900 02e4 10       		.uleb128 0x10
 5901 02e5 6E0C0000 		.4byte	.LASF43
 5902 02e9 08       		.byte	0x8
 5903 02ea 56       		.byte	0x56
 5904 02eb 0C       		.byte	0xc
 5905 02ec A7000000 		.4byte	0xa7
 5906 02f0 00       		.byte	0
 5907 02f1 10       		.uleb128 0x10
 5908 02f2 41090000 		.4byte	.LASF44
 5909 02f6 08       		.byte	0x8
 5910 02f7 59       		.byte	0x59
 5911 02f8 0C       		.byte	0xc
 5912 02f9 A7000000 		.4byte	0xa7
 5913 02fd 02       		.byte	0x2
 5914 02fe 10       		.uleb128 0x10
 5915 02ff 3D030000 		.4byte	.LASF45
 5916 0303 08       		.byte	0x8
 5917 0304 5C       		.byte	0x5c
 5918 0305 0C       		.byte	0xc
 5919 0306 A7000000 		.4byte	0xa7
 5920 030a 04       		.byte	0x4
 5921 030b 10       		.uleb128 0x10
 5922 030c 2D010000 		.4byte	.LASF46
 5923 0310 08       		.byte	0x8
 5924 0311 60       		.byte	0x60
 5925 0312 0C       		.byte	0xc
 5926 0313 C4000000 		.4byte	0xc4
 5927 0317 08       		.byte	0x8
 5928 0318 10       		.uleb128 0x10
ARM GAS  C:\Users\USER\AppData\Local\Temp\ccNdlOSb.s 			page 105


 5929 0319 FD050000 		.4byte	.LASF47
 5930 031d 08       		.byte	0x8
 5931 031e 63       		.byte	0x63
 5932 031f 0C       		.byte	0xc
 5933 0320 A7000000 		.4byte	0xa7
 5934 0324 0C       		.byte	0xc
 5935 0325 10       		.uleb128 0x10
 5936 0326 390B0000 		.4byte	.LASF48
 5937 032a 08       		.byte	0x8
 5938 032b 66       		.byte	0x66
 5939 032c 0C       		.byte	0xc
 5940 032d A7000000 		.4byte	0xa7
 5941 0331 0E       		.byte	0xe
 5942 0332 10       		.uleb128 0x10
 5943 0333 B30D0000 		.4byte	.LASF49
 5944 0337 08       		.byte	0x8
 5945 0338 6A       		.byte	0x6a
 5946 0339 0C       		.byte	0xc
 5947 033a A7000000 		.4byte	0xa7
 5948 033e 10       		.byte	0x10
 5949 033f 10       		.uleb128 0x10
 5950 0340 81080000 		.4byte	.LASF50
 5951 0344 08       		.byte	0x8
 5952 0345 6E       		.byte	0x6e
 5953 0346 0C       		.byte	0xc
 5954 0347 A7000000 		.4byte	0xa7
 5955 034b 12       		.byte	0x12
 5956 034c 00       		.byte	0
 5957 034d 03       		.uleb128 0x3
 5958 034e F40C0000 		.4byte	.LASF51
 5959 0352 08       		.byte	0x8
 5960 0353 71       		.byte	0x71
 5961 0354 03       		.byte	0x3
 5962 0355 DB020000 		.4byte	0x2db
 5963 0359 0F       		.uleb128 0xf
 5964 035a 0A       		.byte	0xa
 5965 035b 08       		.byte	0x8
 5966 035c 77       		.byte	0x77
 5967 035d 09       		.byte	0x9
 5968 035e A4030000 		.4byte	0x3a4
 5969 0362 10       		.uleb128 0x10
 5970 0363 6C020000 		.4byte	.LASF52
 5971 0367 08       		.byte	0x8
 5972 0368 7A       		.byte	0x7a
 5973 0369 0C       		.byte	0xc
 5974 036a A7000000 		.4byte	0xa7
 5975 036e 00       		.byte	0
 5976 036f 10       		.uleb128 0x10
 5977 0370 61090000 		.4byte	.LASF53
 5978 0374 08       		.byte	0x8
 5979 0375 7D       		.byte	0x7d
 5980 0376 0C       		.byte	0xc
 5981 0377 A7000000 		.4byte	0xa7
 5982 037b 02       		.byte	0x2
 5983 037c 10       		.uleb128 0x10
 5984 037d FA010000 		.4byte	.LASF54
 5985 0381 08       		.byte	0x8
ARM GAS  C:\Users\USER\AppData\Local\Temp\ccNdlOSb.s 			page 106


 5986 0382 80       		.byte	0x80
 5987 0383 0C       		.byte	0xc
 5988 0384 A7000000 		.4byte	0xa7
 5989 0388 04       		.byte	0x4
 5990 0389 10       		.uleb128 0x10
 5991 038a 5C080000 		.4byte	.LASF55
 5992 038e 08       		.byte	0x8
 5993 038f 83       		.byte	0x83
 5994 0390 0C       		.byte	0xc
 5995 0391 A7000000 		.4byte	0xa7
 5996 0395 06       		.byte	0x6
 5997 0396 10       		.uleb128 0x10
 5998 0397 9D010000 		.4byte	.LASF56
 5999 039b 08       		.byte	0x8
 6000 039c 86       		.byte	0x86
 6001 039d 0C       		.byte	0xc
 6002 039e A7000000 		.4byte	0xa7
 6003 03a2 08       		.byte	0x8
 6004 03a3 00       		.byte	0
 6005 03a4 03       		.uleb128 0x3
 6006 03a5 D10B0000 		.4byte	.LASF57
 6007 03a9 08       		.byte	0x8
 6008 03aa 88       		.byte	0x88
 6009 03ab 03       		.byte	0x3
 6010 03ac 59030000 		.4byte	0x359
 6011 03b0 0F       		.uleb128 0xf
 6012 03b1 0E       		.byte	0xe
 6013 03b2 08       		.byte	0x8
 6014 03b3 8F       		.byte	0x8f
 6015 03b4 09       		.byte	0x9
 6016 03b5 15040000 		.4byte	0x415
 6017 03b9 10       		.uleb128 0x10
 6018 03ba E3060000 		.4byte	.LASF58
 6019 03be 08       		.byte	0x8
 6020 03bf 92       		.byte	0x92
 6021 03c0 0C       		.byte	0xc
 6022 03c1 A7000000 		.4byte	0xa7
 6023 03c5 00       		.byte	0
 6024 03c6 10       		.uleb128 0x10
 6025 03c7 9A0A0000 		.4byte	.LASF59
 6026 03cb 08       		.byte	0x8
 6027 03cc 95       		.byte	0x95
 6028 03cd 0C       		.byte	0xc
 6029 03ce A7000000 		.4byte	0xa7
 6030 03d2 02       		.byte	0x2
 6031 03d3 10       		.uleb128 0x10
 6032 03d4 CF090000 		.4byte	.LASF60
 6033 03d8 08       		.byte	0x8
 6034 03d9 98       		.byte	0x98
 6035 03da 0C       		.byte	0xc
 6036 03db A7000000 		.4byte	0xa7
 6037 03df 04       		.byte	0x4
 6038 03e0 10       		.uleb128 0x10
 6039 03e1 11080000 		.4byte	.LASF61
 6040 03e5 08       		.byte	0x8
 6041 03e6 9B       		.byte	0x9b
 6042 03e7 0C       		.byte	0xc
ARM GAS  C:\Users\USER\AppData\Local\Temp\ccNdlOSb.s 			page 107


 6043 03e8 A7000000 		.4byte	0xa7
 6044 03ec 06       		.byte	0x6
 6045 03ed 10       		.uleb128 0x10
 6046 03ee 07080000 		.4byte	.LASF62
 6047 03f2 08       		.byte	0x8
 6048 03f3 9F       		.byte	0x9f
 6049 03f4 0C       		.byte	0xc
 6050 03f5 A7000000 		.4byte	0xa7
 6051 03f9 08       		.byte	0x8
 6052 03fa 10       		.uleb128 0x10
 6053 03fb 890C0000 		.4byte	.LASF63
 6054 03ff 08       		.byte	0x8
 6055 0400 A2       		.byte	0xa2
 6056 0401 0C       		.byte	0xc
 6057 0402 A7000000 		.4byte	0xa7
 6058 0406 0A       		.byte	0xa
 6059 0407 10       		.uleb128 0x10
 6060 0408 1C070000 		.4byte	.LASF64
 6061 040c 08       		.byte	0x8
 6062 040d A5       		.byte	0xa5
 6063 040e 0C       		.byte	0xc
 6064 040f A7000000 		.4byte	0xa7
 6065 0413 0C       		.byte	0xc
 6066 0414 00       		.byte	0
 6067 0415 03       		.uleb128 0x3
 6068 0416 B9060000 		.4byte	.LASF65
 6069 041a 08       		.byte	0x8
 6070 041b A7       		.byte	0xa7
 6071 041c 03       		.byte	0x3
 6072 041d B0030000 		.4byte	0x3b0
 6073 0421 11       		.uleb128 0x11
 6074 0422 F2050000 		.4byte	.LASF69
 6075 0426 01       		.byte	0x1
 6076 0427 040D     		.2byte	0xd04
 6077 0429 0D       		.byte	0xd
 6078 042a 01       		.byte	0x1
 6079 042b 8B040000 		.4byte	0x48b
 6080 042f 12       		.uleb128 0x12
 6081 0430 F1060000 		.4byte	.LASF66
 6082 0434 01       		.byte	0x1
 6083 0435 040D     		.2byte	0xd04
 6084 0437 25       		.byte	0x25
 6085 0438 8B040000 		.4byte	0x48b
 6086 043c 12       		.uleb128 0x12
 6087 043d 61090000 		.4byte	.LASF53
 6088 0441 01       		.byte	0x1
 6089 0442 040D     		.2byte	0xd04
 6090 0444 34       		.byte	0x34
 6091 0445 A7000000 		.4byte	0xa7
 6092 0449 12       		.uleb128 0x12
 6093 044a FA010000 		.4byte	.LASF54
 6094 044e 01       		.byte	0x1
 6095 044f 040D     		.2byte	0xd04
 6096 0451 4D       		.byte	0x4d
 6097 0452 A7000000 		.4byte	0xa7
 6098 0456 12       		.uleb128 0x12
 6099 0457 9D010000 		.4byte	.LASF56
ARM GAS  C:\Users\USER\AppData\Local\Temp\ccNdlOSb.s 			page 108


 6100 045b 01       		.byte	0x1
 6101 045c 050D     		.2byte	0xd05
 6102 045e 21       		.byte	0x21
 6103 045f A7000000 		.4byte	0xa7
 6104 0463 13       		.uleb128 0x13
 6105 0464 57010000 		.4byte	.LASF67
 6106 0468 01       		.byte	0x1
 6107 0469 070D     		.2byte	0xd07
 6108 046b 0C       		.byte	0xc
 6109 046c A7000000 		.4byte	0xa7
 6110 0470 13       		.uleb128 0x13
 6111 0471 C6050000 		.4byte	.LASF68
 6112 0475 01       		.byte	0x1
 6113 0476 070D     		.2byte	0xd07
 6114 0478 1A       		.byte	0x1a
 6115 0479 A7000000 		.4byte	0xa7
 6116 047d 14       		.uleb128 0x14
 6117 047e 746D7000 		.ascii	"tmp\000"
 6118 0482 01       		.byte	0x1
 6119 0483 070D     		.2byte	0xd07
 6120 0485 27       		.byte	0x27
 6121 0486 A7000000 		.4byte	0xa7
 6122 048a 00       		.byte	0
 6123 048b 15       		.uleb128 0x15
 6124 048c 04       		.byte	0x4
 6125 048d 1D020000 		.4byte	0x21d
 6126 0491 11       		.uleb128 0x11
 6127 0492 6B070000 		.4byte	.LASF70
 6128 0496 01       		.byte	0x1
 6129 0497 DB0C     		.2byte	0xcdb
 6130 0499 0D       		.byte	0xd
 6131 049a 01       		.byte	0x1
 6132 049b FB040000 		.4byte	0x4fb
 6133 049f 12       		.uleb128 0x12
 6134 04a0 F1060000 		.4byte	.LASF66
 6135 04a4 01       		.byte	0x1
 6136 04a5 DB0C     		.2byte	0xcdb
 6137 04a7 25       		.byte	0x25
 6138 04a8 8B040000 		.4byte	0x48b
 6139 04ac 12       		.uleb128 0x12
 6140 04ad 61090000 		.4byte	.LASF53
 6141 04b1 01       		.byte	0x1
 6142 04b2 DB0C     		.2byte	0xcdb
 6143 04b4 34       		.byte	0x34
 6144 04b5 A7000000 		.4byte	0xa7
 6145 04b9 12       		.uleb128 0x12
 6146 04ba FA010000 		.4byte	.LASF54
 6147 04be 01       		.byte	0x1
 6148 04bf DB0C     		.2byte	0xcdb
 6149 04c1 4D       		.byte	0x4d
 6150 04c2 A7000000 		.4byte	0xa7
 6151 04c6 12       		.uleb128 0x12
 6152 04c7 9D010000 		.4byte	.LASF56
 6153 04cb 01       		.byte	0x1
 6154 04cc DC0C     		.2byte	0xcdc
 6155 04ce 21       		.byte	0x21
 6156 04cf A7000000 		.4byte	0xa7
ARM GAS  C:\Users\USER\AppData\Local\Temp\ccNdlOSb.s 			page 109


 6157 04d3 13       		.uleb128 0x13
 6158 04d4 57010000 		.4byte	.LASF67
 6159 04d8 01       		.byte	0x1
 6160 04d9 DE0C     		.2byte	0xcde
 6161 04db 0C       		.byte	0xc
 6162 04dc A7000000 		.4byte	0xa7
 6163 04e0 13       		.uleb128 0x13
 6164 04e1 C6050000 		.4byte	.LASF68
 6165 04e5 01       		.byte	0x1
 6166 04e6 DE0C     		.2byte	0xcde
 6167 04e8 1A       		.byte	0x1a
 6168 04e9 A7000000 		.4byte	0xa7
 6169 04ed 14       		.uleb128 0x14
 6170 04ee 746D7000 		.ascii	"tmp\000"
 6171 04f2 01       		.byte	0x1
 6172 04f3 DE0C     		.2byte	0xcde
 6173 04f5 27       		.byte	0x27
 6174 04f6 A7000000 		.4byte	0xa7
 6175 04fa 00       		.byte	0
 6176 04fb 11       		.uleb128 0x11
 6177 04fc F80A0000 		.4byte	.LASF71
 6178 0500 01       		.byte	0x1
 6179 0501 B10C     		.2byte	0xcb1
 6180 0503 0D       		.byte	0xd
 6181 0504 01       		.byte	0x1
 6182 0505 65050000 		.4byte	0x565
 6183 0509 12       		.uleb128 0x12
 6184 050a F1060000 		.4byte	.LASF66
 6185 050e 01       		.byte	0x1
 6186 050f B10C     		.2byte	0xcb1
 6187 0511 25       		.byte	0x25
 6188 0512 8B040000 		.4byte	0x48b
 6189 0516 12       		.uleb128 0x12
 6190 0517 61090000 		.4byte	.LASF53
 6191 051b 01       		.byte	0x1
 6192 051c B10C     		.2byte	0xcb1
 6193 051e 34       		.byte	0x34
 6194 051f A7000000 		.4byte	0xa7
 6195 0523 12       		.uleb128 0x12
 6196 0524 FA010000 		.4byte	.LASF54
 6197 0528 01       		.byte	0x1
 6198 0529 B10C     		.2byte	0xcb1
 6199 052b 4D       		.byte	0x4d
 6200 052c A7000000 		.4byte	0xa7
 6201 0530 12       		.uleb128 0x12
 6202 0531 9D010000 		.4byte	.LASF56
 6203 0535 01       		.byte	0x1
 6204 0536 B20C     		.2byte	0xcb2
 6205 0538 21       		.byte	0x21
 6206 0539 A7000000 		.4byte	0xa7
 6207 053d 13       		.uleb128 0x13
 6208 053e 4E010000 		.4byte	.LASF72
 6209 0542 01       		.byte	0x1
 6210 0543 B40C     		.2byte	0xcb4
 6211 0545 0C       		.byte	0xc
 6212 0546 A7000000 		.4byte	0xa7
 6213 054a 13       		.uleb128 0x13
ARM GAS  C:\Users\USER\AppData\Local\Temp\ccNdlOSb.s 			page 110


 6214 054b C6050000 		.4byte	.LASF68
 6215 054f 01       		.byte	0x1
 6216 0550 B40C     		.2byte	0xcb4
 6217 0552 1A       		.byte	0x1a
 6218 0553 A7000000 		.4byte	0xa7
 6219 0557 14       		.uleb128 0x14
 6220 0558 746D7000 		.ascii	"tmp\000"
 6221 055c 01       		.byte	0x1
 6222 055d B40C     		.2byte	0xcb4
 6223 055f 27       		.byte	0x27
 6224 0560 A7000000 		.4byte	0xa7
 6225 0564 00       		.byte	0
 6226 0565 11       		.uleb128 0x11
 6227 0566 79090000 		.4byte	.LASF73
 6228 056a 01       		.byte	0x1
 6229 056b 880C     		.2byte	0xc88
 6230 056d 0D       		.byte	0xd
 6231 056e 01       		.byte	0x1
 6232 056f C2050000 		.4byte	0x5c2
 6233 0573 12       		.uleb128 0x12
 6234 0574 F1060000 		.4byte	.LASF66
 6235 0578 01       		.byte	0x1
 6236 0579 880C     		.2byte	0xc88
 6237 057b 25       		.byte	0x25
 6238 057c 8B040000 		.4byte	0x48b
 6239 0580 12       		.uleb128 0x12
 6240 0581 61090000 		.4byte	.LASF53
 6241 0585 01       		.byte	0x1
 6242 0586 880C     		.2byte	0xc88
 6243 0588 34       		.byte	0x34
 6244 0589 A7000000 		.4byte	0xa7
 6245 058d 12       		.uleb128 0x12
 6246 058e FA010000 		.4byte	.LASF54
 6247 0592 01       		.byte	0x1
 6248 0593 880C     		.2byte	0xc88
 6249 0595 4D       		.byte	0x4d
 6250 0596 A7000000 		.4byte	0xa7
 6251 059a 12       		.uleb128 0x12
 6252 059b 9D010000 		.4byte	.LASF56
 6253 059f 01       		.byte	0x1
 6254 05a0 890C     		.2byte	0xc89
 6255 05a2 21       		.byte	0x21
 6256 05a3 A7000000 		.4byte	0xa7
 6257 05a7 13       		.uleb128 0x13
 6258 05a8 4E010000 		.4byte	.LASF72
 6259 05ac 01       		.byte	0x1
 6260 05ad 8B0C     		.2byte	0xc8b
 6261 05af 0C       		.byte	0xc
 6262 05b0 A7000000 		.4byte	0xa7
 6263 05b4 13       		.uleb128 0x13
 6264 05b5 C6050000 		.4byte	.LASF68
 6265 05b9 01       		.byte	0x1
 6266 05ba 8B0C     		.2byte	0xc8b
 6267 05bc 1A       		.byte	0x1a
 6268 05bd A7000000 		.4byte	0xa7
 6269 05c1 00       		.byte	0
 6270 05c2 16       		.uleb128 0x16
ARM GAS  C:\Users\USER\AppData\Local\Temp\ccNdlOSb.s 			page 111


 6271 05c3 3C0D0000 		.4byte	.LASF75
 6272 05c7 01       		.byte	0x1
 6273 05c8 690C     		.2byte	0xc69
 6274 05ca 06       		.byte	0x6
 6275 05cb 00000000 		.4byte	.LFB199
 6276 05cf 04000000 		.4byte	.LFE199-.LFB199
 6277 05d3 01       		.uleb128 0x1
 6278 05d4 9C       		.byte	0x9c
 6279 05d5 F8050000 		.4byte	0x5f8
 6280 05d9 17       		.uleb128 0x17
 6281 05da F1060000 		.4byte	.LASF66
 6282 05de 01       		.byte	0x1
 6283 05df 690C     		.2byte	0xc69
 6284 05e1 23       		.byte	0x23
 6285 05e2 8B040000 		.4byte	0x48b
 6286 05e6 01       		.uleb128 0x1
 6287 05e7 50       		.byte	0x50
 6288 05e8 17       		.uleb128 0x17
 6289 05e9 CB080000 		.4byte	.LASF74
 6290 05ed 01       		.byte	0x1
 6291 05ee 690C     		.2byte	0xc69
 6292 05f0 32       		.byte	0x32
 6293 05f1 A7000000 		.4byte	0xa7
 6294 05f5 01       		.uleb128 0x1
 6295 05f6 51       		.byte	0x51
 6296 05f7 00       		.byte	0
 6297 05f8 16       		.uleb128 0x16
 6298 05f9 6E0D0000 		.4byte	.LASF76
 6299 05fd 01       		.byte	0x1
 6300 05fe 360C     		.2byte	0xc36
 6301 0600 06       		.byte	0x6
 6302 0601 00000000 		.4byte	.LFB198
 6303 0605 16000000 		.4byte	.LFE198-.LFB198
 6304 0609 01       		.uleb128 0x1
 6305 060a 9C       		.byte	0x9c
 6306 060b 2E060000 		.4byte	0x62e
 6307 060f 17       		.uleb128 0x17
 6308 0610 F1060000 		.4byte	.LASF66
 6309 0614 01       		.byte	0x1
 6310 0615 360C     		.2byte	0xc36
 6311 0617 28       		.byte	0x28
 6312 0618 8B040000 		.4byte	0x48b
 6313 061c 01       		.uleb128 0x1
 6314 061d 50       		.byte	0x50
 6315 061e 17       		.uleb128 0x17
 6316 061f 0B000000 		.4byte	.LASF77
 6317 0623 01       		.byte	0x1
 6318 0624 360C     		.2byte	0xc36
 6319 0626 3E       		.byte	0x3e
 6320 0627 78020000 		.4byte	0x278
 6321 062b 01       		.uleb128 0x1
 6322 062c 51       		.byte	0x51
 6323 062d 00       		.byte	0
 6324 062e 16       		.uleb128 0x16
 6325 062f 0F020000 		.4byte	.LASF78
 6326 0633 01       		.byte	0x1
 6327 0634 020C     		.2byte	0xc02
ARM GAS  C:\Users\USER\AppData\Local\Temp\ccNdlOSb.s 			page 112


 6328 0636 06       		.byte	0x6
 6329 0637 00000000 		.4byte	.LFB197
 6330 063b 3A000000 		.4byte	.LFE197-.LFB197
 6331 063f 01       		.uleb128 0x1
 6332 0640 9C       		.byte	0x9c
 6333 0641 CD060000 		.4byte	0x6cd
 6334 0645 17       		.uleb128 0x17
 6335 0646 F1060000 		.4byte	.LASF66
 6336 064a 01       		.byte	0x1
 6337 064b 020C     		.2byte	0xc02
 6338 064d 2E       		.byte	0x2e
 6339 064e 8B040000 		.4byte	0x48b
 6340 0652 01       		.uleb128 0x1
 6341 0653 50       		.byte	0x50
 6342 0654 18       		.uleb128 0x18
 6343 0655 F6060000 		.4byte	.LASF80
 6344 0659 01       		.byte	0x1
 6345 065a 020C     		.2byte	0xc02
 6346 065c 3D       		.byte	0x3d
 6347 065d A7000000 		.4byte	0xa7
 6348 0661 04000000 		.4byte	.LLST216
 6349 0665 00000000 		.4byte	.LVUS216
 6350 0669 17       		.uleb128 0x17
 6351 066a 51020000 		.4byte	.LASF79
 6352 066e 01       		.byte	0x1
 6353 066f 030C     		.2byte	0xc03
 6354 0671 2A       		.byte	0x2a
 6355 0672 A7000000 		.4byte	0xa7
 6356 0676 01       		.uleb128 0x1
 6357 0677 52       		.byte	0x52
 6358 0678 18       		.uleb128 0x18
 6359 0679 FC000000 		.4byte	.LASF81
 6360 067d 01       		.byte	0x1
 6361 067e 030C     		.2byte	0xc03
 6362 0680 44       		.byte	0x44
 6363 0681 A7000000 		.4byte	0xa7
 6364 0685 29000000 		.4byte	.LLST217
 6365 0689 25000000 		.4byte	.LVUS217
 6366 068d 19       		.uleb128 0x19
 6367 068e AD070000 		.4byte	.LASF82
 6368 0692 01       		.byte	0x1
 6369 0693 050C     		.2byte	0xc05
 6370 0695 0C       		.byte	0xc
 6371 0696 A7000000 		.4byte	0xa7
 6372 069a 54000000 		.4byte	.LLST218
 6373 069e 4A000000 		.4byte	.LVUS218
 6374 06a2 19       		.uleb128 0x19
 6375 06a3 4E010000 		.4byte	.LASF72
 6376 06a7 01       		.byte	0x1
 6377 06a8 060C     		.2byte	0xc06
 6378 06aa 0C       		.byte	0xc
 6379 06ab A7000000 		.4byte	0xa7
 6380 06af A7000000 		.4byte	.LLST219
 6381 06b3 9F000000 		.4byte	.LVUS219
 6382 06b7 19       		.uleb128 0x19
 6383 06b8 C6050000 		.4byte	.LASF68
 6384 06bc 01       		.byte	0x1
ARM GAS  C:\Users\USER\AppData\Local\Temp\ccNdlOSb.s 			page 113


 6385 06bd 070C     		.2byte	0xc07
 6386 06bf 0C       		.byte	0xc
 6387 06c0 A7000000 		.4byte	0xa7
 6388 06c4 EA000000 		.4byte	.LLST220
 6389 06c8 E2000000 		.4byte	.LVUS220
 6390 06cc 00       		.byte	0
 6391 06cd 1A       		.uleb128 0x1a
 6392 06ce E00D0000 		.4byte	.LASF92
 6393 06d2 01       		.byte	0x1
 6394 06d3 C80B     		.2byte	0xbc8
 6395 06d5 06       		.byte	0x6
 6396 06d6 01       		.byte	0x1
 6397 06d7 1D070000 		.4byte	0x71d
 6398 06db 12       		.uleb128 0x12
 6399 06dc F1060000 		.4byte	.LASF66
 6400 06e0 01       		.byte	0x1
 6401 06e1 C80B     		.2byte	0xbc8
 6402 06e3 21       		.byte	0x21
 6403 06e4 8B040000 		.4byte	0x48b
 6404 06e8 12       		.uleb128 0x12
 6405 06e9 F3070000 		.4byte	.LASF83
 6406 06ed 01       		.byte	0x1
 6407 06ee C80B     		.2byte	0xbc8
 6408 06f0 30       		.byte	0x30
 6409 06f1 A7000000 		.4byte	0xa7
 6410 06f5 12       		.uleb128 0x12
 6411 06f6 B5070000 		.4byte	.LASF84
 6412 06fa 01       		.byte	0x1
 6413 06fb C90B     		.2byte	0xbc9
 6414 06fd 1D       		.byte	0x1d
 6415 06fe A7000000 		.4byte	0xa7
 6416 0702 12       		.uleb128 0x12
 6417 0703 A60D0000 		.4byte	.LASF85
 6418 0707 01       		.byte	0x1
 6419 0708 C90B     		.2byte	0xbc9
 6420 070a 3A       		.byte	0x3a
 6421 070b A7000000 		.4byte	0xa7
 6422 070f 13       		.uleb128 0x13
 6423 0710 AD070000 		.4byte	.LASF82
 6424 0714 01       		.byte	0x1
 6425 0715 CB0B     		.2byte	0xbcb
 6426 0717 0C       		.byte	0xc
 6427 0718 A7000000 		.4byte	0xa7
 6428 071c 00       		.byte	0
 6429 071d 16       		.uleb128 0x16
 6430 071e 8D060000 		.4byte	.LASF86
 6431 0722 01       		.byte	0x1
 6432 0723 AA0B     		.2byte	0xbaa
 6433 0725 06       		.byte	0x6
 6434 0726 00000000 		.4byte	.LFB195
 6435 072a 12000000 		.4byte	.LFE195-.LFB195
 6436 072e 01       		.uleb128 0x1
 6437 072f 9C       		.byte	0x9c
 6438 0730 59070000 		.4byte	0x759
 6439 0734 17       		.uleb128 0x17
 6440 0735 F1060000 		.4byte	.LASF66
 6441 0739 01       		.byte	0x1
ARM GAS  C:\Users\USER\AppData\Local\Temp\ccNdlOSb.s 			page 114


 6442 073a AA0B     		.2byte	0xbaa
 6443 073c 2D       		.byte	0x2d
 6444 073d 8B040000 		.4byte	0x48b
 6445 0741 01       		.uleb128 0x1
 6446 0742 50       		.byte	0x50
 6447 0743 18       		.uleb128 0x18
 6448 0744 65060000 		.4byte	.LASF87
 6449 0748 01       		.byte	0x1
 6450 0749 AA0B     		.2byte	0xbaa
 6451 074b 3C       		.byte	0x3c
 6452 074c A7000000 		.4byte	0xa7
 6453 0750 38010000 		.4byte	.LLST212
 6454 0754 34010000 		.4byte	.LVUS212
 6455 0758 00       		.byte	0
 6456 0759 16       		.uleb128 0x16
 6457 075a 79060000 		.4byte	.LASF88
 6458 075e 01       		.byte	0x1
 6459 075f 930B     		.2byte	0xb93
 6460 0761 06       		.byte	0x6
 6461 0762 00000000 		.4byte	.LFB194
 6462 0766 12000000 		.4byte	.LFE194-.LFB194
 6463 076a 01       		.uleb128 0x1
 6464 076b 9C       		.byte	0x9c
 6465 076c 95070000 		.4byte	0x795
 6466 0770 17       		.uleb128 0x17
 6467 0771 F1060000 		.4byte	.LASF66
 6468 0775 01       		.byte	0x1
 6469 0776 930B     		.2byte	0xb93
 6470 0778 27       		.byte	0x27
 6471 0779 8B040000 		.4byte	0x48b
 6472 077d 01       		.uleb128 0x1
 6473 077e 50       		.byte	0x50
 6474 077f 18       		.uleb128 0x18
 6475 0780 600C0000 		.4byte	.LASF89
 6476 0784 01       		.byte	0x1
 6477 0785 930B     		.2byte	0xb93
 6478 0787 36       		.byte	0x36
 6479 0788 A7000000 		.4byte	0xa7
 6480 078c 5D010000 		.4byte	.LLST211
 6481 0790 59010000 		.4byte	.LVUS211
 6482 0794 00       		.byte	0
 6483 0795 16       		.uleb128 0x16
 6484 0796 30070000 		.4byte	.LASF90
 6485 079a 01       		.byte	0x1
 6486 079b 7B0B     		.2byte	0xb7b
 6487 079d 06       		.byte	0x6
 6488 079e 00000000 		.4byte	.LFB193
 6489 07a2 12000000 		.4byte	.LFE193-.LFB193
 6490 07a6 01       		.uleb128 0x1
 6491 07a7 9C       		.byte	0x9c
 6492 07a8 D1070000 		.4byte	0x7d1
 6493 07ac 17       		.uleb128 0x17
 6494 07ad F1060000 		.4byte	.LASF66
 6495 07b1 01       		.byte	0x1
 6496 07b2 7B0B     		.2byte	0xb7b
 6497 07b4 2B       		.byte	0x2b
 6498 07b5 8B040000 		.4byte	0x48b
ARM GAS  C:\Users\USER\AppData\Local\Temp\ccNdlOSb.s 			page 115


 6499 07b9 01       		.uleb128 0x1
 6500 07ba 50       		.byte	0x50
 6501 07bb 18       		.uleb128 0x18
 6502 07bc 77000000 		.4byte	.LASF91
 6503 07c0 01       		.byte	0x1
 6504 07c1 7B0B     		.2byte	0xb7b
 6505 07c3 3A       		.byte	0x3a
 6506 07c4 A7000000 		.4byte	0xa7
 6507 07c8 82010000 		.4byte	.LLST210
 6508 07cc 7E010000 		.4byte	.LVUS210
 6509 07d0 00       		.byte	0
 6510 07d1 1A       		.uleb128 0x1a
 6511 07d2 6F010000 		.4byte	.LASF93
 6512 07d6 01       		.byte	0x1
 6513 07d7 500B     		.2byte	0xb50
 6514 07d9 06       		.byte	0x6
 6515 07da 01       		.byte	0x1
 6516 07db 07080000 		.4byte	0x807
 6517 07df 12       		.uleb128 0x12
 6518 07e0 F1060000 		.4byte	.LASF66
 6519 07e4 01       		.byte	0x1
 6520 07e5 500B     		.2byte	0xb50
 6521 07e7 2A       		.byte	0x2a
 6522 07e8 8B040000 		.4byte	0x48b
 6523 07ec 12       		.uleb128 0x12
 6524 07ed 60000000 		.4byte	.LASF94
 6525 07f1 01       		.byte	0x1
 6526 07f2 500B     		.2byte	0xb50
 6527 07f4 39       		.byte	0x39
 6528 07f5 A7000000 		.4byte	0xa7
 6529 07f9 13       		.uleb128 0x13
 6530 07fa AD070000 		.4byte	.LASF82
 6531 07fe 01       		.byte	0x1
 6532 07ff 520B     		.2byte	0xb52
 6533 0801 0C       		.byte	0xc
 6534 0802 A7000000 		.4byte	0xa7
 6535 0806 00       		.byte	0
 6536 0807 16       		.uleb128 0x16
 6537 0808 490B0000 		.4byte	.LASF95
 6538 080c 01       		.byte	0x1
 6539 080d 090B     		.2byte	0xb09
 6540 080f 06       		.byte	0x6
 6541 0810 00000000 		.4byte	.LFB191
 6542 0814 20000000 		.4byte	.LFE191-.LFB191
 6543 0818 01       		.uleb128 0x1
 6544 0819 9C       		.byte	0x9c
 6545 081a C1080000 		.4byte	0x8c1
 6546 081e 17       		.uleb128 0x17
 6547 081f F1060000 		.4byte	.LASF66
 6548 0823 01       		.byte	0x1
 6549 0824 090B     		.2byte	0xb09
 6550 0826 2B       		.byte	0x2b
 6551 0827 8B040000 		.4byte	0x48b
 6552 082b 01       		.uleb128 0x1
 6553 082c 50       		.byte	0x50
 6554 082d 18       		.uleb128 0x18
 6555 082e F3070000 		.4byte	.LASF83
ARM GAS  C:\Users\USER\AppData\Local\Temp\ccNdlOSb.s 			page 116


 6556 0832 01       		.byte	0x1
 6557 0833 090B     		.2byte	0xb09
 6558 0835 3A       		.byte	0x3a
 6559 0836 A7000000 		.4byte	0xa7
 6560 083a A7010000 		.4byte	.LLST201
 6561 083e A3010000 		.4byte	.LVUS201
 6562 0842 17       		.uleb128 0x17
 6563 0843 B5070000 		.4byte	.LASF84
 6564 0847 01       		.byte	0x1
 6565 0848 0A0B     		.2byte	0xb0a
 6566 084a 27       		.byte	0x27
 6567 084b A7000000 		.4byte	0xa7
 6568 084f 01       		.uleb128 0x1
 6569 0850 52       		.byte	0x52
 6570 0851 18       		.uleb128 0x18
 6571 0852 A60D0000 		.4byte	.LASF85
 6572 0856 01       		.byte	0x1
 6573 0857 0A0B     		.2byte	0xb0a
 6574 0859 44       		.byte	0x44
 6575 085a A7000000 		.4byte	0xa7
 6576 085e CC010000 		.4byte	.LLST202
 6577 0862 C8010000 		.4byte	.LVUS202
 6578 0866 1B       		.uleb128 0x1b
 6579 0867 CD060000 		.4byte	0x6cd
 6580 086b 00000000 		.4byte	.LBI94
 6581 086f 06       		.byte	.LVU1655
 6582 0870 48000000 		.4byte	.Ldebug_ranges0+0x48
 6583 0874 01       		.byte	0x1
 6584 0875 130B     		.2byte	0xb13
 6585 0877 03       		.byte	0x3
 6586 0878 1C       		.uleb128 0x1c
 6587 0879 02070000 		.4byte	0x702
 6588 087d F1010000 		.4byte	.LLST203
 6589 0881 ED010000 		.4byte	.LVUS203
 6590 0885 1C       		.uleb128 0x1c
 6591 0886 F5060000 		.4byte	0x6f5
 6592 088a 14020000 		.4byte	.LLST204
 6593 088e 12020000 		.4byte	.LVUS204
 6594 0892 1C       		.uleb128 0x1c
 6595 0893 E8060000 		.4byte	0x6e8
 6596 0897 2B020000 		.4byte	.LLST205
 6597 089b 27020000 		.4byte	.LVUS205
 6598 089f 1C       		.uleb128 0x1c
 6599 08a0 DB060000 		.4byte	0x6db
 6600 08a4 4E020000 		.4byte	.LLST206
 6601 08a8 4C020000 		.4byte	.LVUS206
 6602 08ac 1D       		.uleb128 0x1d
 6603 08ad 48000000 		.4byte	.Ldebug_ranges0+0x48
 6604 08b1 1E       		.uleb128 0x1e
 6605 08b2 0F070000 		.4byte	0x70f
 6606 08b6 67020000 		.4byte	.LLST207
 6607 08ba 61020000 		.4byte	.LVUS207
 6608 08be 00       		.byte	0
 6609 08bf 00       		.byte	0
 6610 08c0 00       		.byte	0
 6611 08c1 16       		.uleb128 0x16
 6612 08c2 1C030000 		.4byte	.LASF96
ARM GAS  C:\Users\USER\AppData\Local\Temp\ccNdlOSb.s 			page 117


 6613 08c6 01       		.byte	0x1
 6614 08c7 DA0A     		.2byte	0xada
 6615 08c9 06       		.byte	0x6
 6616 08ca 00000000 		.4byte	.LFB190
 6617 08ce 26000000 		.4byte	.LFE190-.LFB190
 6618 08d2 01       		.uleb128 0x1
 6619 08d3 9C       		.byte	0x9c
 6620 08d4 90090000 		.4byte	0x990
 6621 08d8 17       		.uleb128 0x17
 6622 08d9 F1060000 		.4byte	.LASF66
 6623 08dd 01       		.byte	0x1
 6624 08de DA0A     		.2byte	0xada
 6625 08e0 2B       		.byte	0x2b
 6626 08e1 8B040000 		.4byte	0x48b
 6627 08e5 01       		.uleb128 0x1
 6628 08e6 50       		.byte	0x50
 6629 08e7 18       		.uleb128 0x18
 6630 08e8 F3070000 		.4byte	.LASF83
 6631 08ec 01       		.byte	0x1
 6632 08ed DA0A     		.2byte	0xada
 6633 08ef 3A       		.byte	0x3a
 6634 08f0 A7000000 		.4byte	0xa7
 6635 08f4 A4020000 		.4byte	.LLST193
 6636 08f8 A0020000 		.4byte	.LVUS193
 6637 08fc 17       		.uleb128 0x17
 6638 08fd B5070000 		.4byte	.LASF84
 6639 0901 01       		.byte	0x1
 6640 0902 DB0A     		.2byte	0xadb
 6641 0904 26       		.byte	0x26
 6642 0905 A7000000 		.4byte	0xa7
 6643 0909 01       		.uleb128 0x1
 6644 090a 52       		.byte	0x52
 6645 090b 18       		.uleb128 0x18
 6646 090c A60D0000 		.4byte	.LASF85
 6647 0910 01       		.byte	0x1
 6648 0911 DB0A     		.2byte	0xadb
 6649 0913 43       		.byte	0x43
 6650 0914 A7000000 		.4byte	0xa7
 6651 0918 C9020000 		.4byte	.LLST194
 6652 091c C5020000 		.4byte	.LVUS194
 6653 0920 19       		.uleb128 0x19
 6654 0921 AD070000 		.4byte	.LASF82
 6655 0925 01       		.byte	0x1
 6656 0926 DD0A     		.2byte	0xadd
 6657 0928 0C       		.byte	0xc
 6658 0929 A7000000 		.4byte	0xa7
 6659 092d F6020000 		.4byte	.LLST195
 6660 0931 EA020000 		.4byte	.LVUS195
 6661 0935 1B       		.uleb128 0x1b
 6662 0936 CD060000 		.4byte	0x6cd
 6663 093a 00000000 		.4byte	.LBI90
 6664 093e 07       		.byte	.LVU1619
 6665 093f 30000000 		.4byte	.Ldebug_ranges0+0x30
 6666 0943 01       		.byte	0x1
 6667 0944 E50A     		.2byte	0xae5
 6668 0946 03       		.byte	0x3
 6669 0947 1C       		.uleb128 0x1c
ARM GAS  C:\Users\USER\AppData\Local\Temp\ccNdlOSb.s 			page 118


 6670 0948 02070000 		.4byte	0x702
 6671 094c 57030000 		.4byte	.LLST196
 6672 0950 53030000 		.4byte	.LVUS196
 6673 0954 1C       		.uleb128 0x1c
 6674 0955 F5060000 		.4byte	0x6f5
 6675 0959 7A030000 		.4byte	.LLST197
 6676 095d 78030000 		.4byte	.LVUS197
 6677 0961 1C       		.uleb128 0x1c
 6678 0962 E8060000 		.4byte	0x6e8
 6679 0966 91030000 		.4byte	.LLST198
 6680 096a 8D030000 		.4byte	.LVUS198
 6681 096e 1C       		.uleb128 0x1c
 6682 096f DB060000 		.4byte	0x6db
 6683 0973 B4030000 		.4byte	.LLST199
 6684 0977 B2030000 		.4byte	.LVUS199
 6685 097b 1D       		.uleb128 0x1d
 6686 097c 30000000 		.4byte	.Ldebug_ranges0+0x30
 6687 0980 1E       		.uleb128 0x1e
 6688 0981 0F070000 		.4byte	0x70f
 6689 0985 CD030000 		.4byte	.LLST200
 6690 0989 C7030000 		.4byte	.LVUS200
 6691 098d 00       		.byte	0
 6692 098e 00       		.byte	0
 6693 098f 00       		.byte	0
 6694 0990 16       		.uleb128 0x16
 6695 0991 9E090000 		.4byte	.LASF97
 6696 0995 01       		.byte	0x1
 6697 0996 B20A     		.2byte	0xab2
 6698 0998 06       		.byte	0x6
 6699 0999 00000000 		.4byte	.LFB189
 6700 099d 7E000000 		.4byte	.LFE189-.LFB189
 6701 09a1 01       		.uleb128 0x1
 6702 09a2 9C       		.byte	0x9c
 6703 09a3 220B0000 		.4byte	0xb22
 6704 09a7 17       		.uleb128 0x17
 6705 09a8 F1060000 		.4byte	.LASF66
 6706 09ac 01       		.byte	0x1
 6707 09ad B20A     		.2byte	0xab2
 6708 09af 2E       		.byte	0x2e
 6709 09b0 8B040000 		.4byte	0x48b
 6710 09b4 01       		.uleb128 0x1
 6711 09b5 50       		.byte	0x50
 6712 09b6 18       		.uleb128 0x18
 6713 09b7 CC0A0000 		.4byte	.LASF98
 6714 09bb 01       		.byte	0x1
 6715 09bc B20A     		.2byte	0xab2
 6716 09be 3D       		.byte	0x3d
 6717 09bf A7000000 		.4byte	0xa7
 6718 09c3 0C040000 		.4byte	.LLST175
 6719 09c7 06040000 		.4byte	.LVUS175
 6720 09cb 18       		.uleb128 0x18
 6721 09cc 61090000 		.4byte	.LASF53
 6722 09d0 01       		.byte	0x1
 6723 09d1 B30A     		.2byte	0xab3
 6724 09d3 2A       		.byte	0x2a
 6725 09d4 A7000000 		.4byte	0xa7
 6726 09d8 40040000 		.4byte	.LLST176
ARM GAS  C:\Users\USER\AppData\Local\Temp\ccNdlOSb.s 			page 119


 6727 09dc 38040000 		.4byte	.LVUS176
 6728 09e0 18       		.uleb128 0x18
 6729 09e1 8D0D0000 		.4byte	.LASF99
 6730 09e5 01       		.byte	0x1
 6731 09e6 B30A     		.2byte	0xab3
 6732 09e8 43       		.byte	0x43
 6733 09e9 A7000000 		.4byte	0xa7
 6734 09ed 80040000 		.4byte	.LLST177
 6735 09f1 7A040000 		.4byte	.LVUS177
 6736 09f5 1F       		.uleb128 0x1f
 6737 09f6 FB040000 		.4byte	0x4fb
 6738 09fa 4C000000 		.4byte	.LBI82
 6739 09fe 01       		.byte	.LVU1584
 6740 09ff 18000000 		.4byte	.Ldebug_ranges0+0x18
 6741 0a03 01       		.byte	0x1
 6742 0a04 BD0A     		.2byte	0xabd
 6743 0a06 05       		.byte	0x5
 6744 0a07 660A0000 		.4byte	0xa66
 6745 0a0b 1C       		.uleb128 0x1c
 6746 0a0c 30050000 		.4byte	0x530
 6747 0a10 AE040000 		.4byte	.LLST178
 6748 0a14 AC040000 		.4byte	.LVUS178
 6749 0a18 20       		.uleb128 0x20
 6750 0a19 23050000 		.4byte	0x523
 6751 0a1d 01       		.byte	0x1
 6752 0a1e 1C       		.uleb128 0x1c
 6753 0a1f 16050000 		.4byte	0x516
 6754 0a23 C5040000 		.4byte	.LLST179
 6755 0a27 C1040000 		.4byte	.LVUS179
 6756 0a2b 1C       		.uleb128 0x1c
 6757 0a2c 09050000 		.4byte	0x509
 6758 0a30 E8040000 		.4byte	.LLST180
 6759 0a34 E6040000 		.4byte	.LVUS180
 6760 0a38 1D       		.uleb128 0x1d
 6761 0a39 18000000 		.4byte	.Ldebug_ranges0+0x18
 6762 0a3d 1E       		.uleb128 0x1e
 6763 0a3e 3D050000 		.4byte	0x53d
 6764 0a42 03050000 		.4byte	.LLST181
 6765 0a46 FB040000 		.4byte	.LVUS181
 6766 0a4a 1E       		.uleb128 0x1e
 6767 0a4b 4A050000 		.4byte	0x54a
 6768 0a4f 44050000 		.4byte	.LLST182
 6769 0a53 3E050000 		.4byte	.LVUS182
 6770 0a57 1E       		.uleb128 0x1e
 6771 0a58 57050000 		.4byte	0x557
 6772 0a5c 78050000 		.4byte	.LLST183
 6773 0a60 72050000 		.4byte	.LVUS183
 6774 0a64 00       		.byte	0
 6775 0a65 00       		.byte	0
 6776 0a66 21       		.uleb128 0x21
 6777 0a67 65050000 		.4byte	0x565
 6778 0a6b 08000000 		.4byte	.LBI85
 6779 0a6f 01       		.byte	.LVU1540
 6780 0a70 08000000 		.4byte	.LBB85
 6781 0a74 2C000000 		.4byte	.LBE85-.LBB85
 6782 0a78 01       		.byte	0x1
 6783 0a79 C10A     		.2byte	0xac1
ARM GAS  C:\Users\USER\AppData\Local\Temp\ccNdlOSb.s 			page 120


 6784 0a7b 05       		.byte	0x5
 6785 0a7c D90A0000 		.4byte	0xad9
 6786 0a80 1C       		.uleb128 0x1c
 6787 0a81 9A050000 		.4byte	0x59a
 6788 0a85 AD050000 		.4byte	.LLST184
 6789 0a89 AB050000 		.4byte	.LVUS184
 6790 0a8d 1C       		.uleb128 0x1c
 6791 0a8e 8D050000 		.4byte	0x58d
 6792 0a92 C2050000 		.4byte	.LLST185
 6793 0a96 C0050000 		.4byte	.LVUS185
 6794 0a9a 1C       		.uleb128 0x1c
 6795 0a9b 80050000 		.4byte	0x580
 6796 0a9f DA050000 		.4byte	.LLST186
 6797 0aa3 D6050000 		.4byte	.LVUS186
 6798 0aa7 1C       		.uleb128 0x1c
 6799 0aa8 73050000 		.4byte	0x573
 6800 0aac FD050000 		.4byte	.LLST187
 6801 0ab0 FB050000 		.4byte	.LVUS187
 6802 0ab4 22       		.uleb128 0x22
 6803 0ab5 08000000 		.4byte	.LBB86
 6804 0ab9 2C000000 		.4byte	.LBE86-.LBB86
 6805 0abd 1E       		.uleb128 0x1e
 6806 0abe A7050000 		.4byte	0x5a7
 6807 0ac2 16060000 		.4byte	.LLST188
 6808 0ac6 10060000 		.4byte	.LVUS188
 6809 0aca 1E       		.uleb128 0x1e
 6810 0acb B4050000 		.4byte	0x5b4
 6811 0acf 4A060000 		.4byte	.LLST189
 6812 0ad3 44060000 		.4byte	.LVUS189
 6813 0ad7 00       		.byte	0
 6814 0ad8 00       		.byte	0
 6815 0ad9 23       		.uleb128 0x23
 6816 0ada D1070000 		.4byte	0x7d1
 6817 0ade 34000000 		.4byte	.LBI87
 6818 0ae2 02       		.byte	.LVU1566
 6819 0ae3 34000000 		.4byte	.LBB87
 6820 0ae7 0C000000 		.4byte	.LBE87-.LBB87
 6821 0aeb 01       		.byte	0x1
 6822 0aec C40A     		.2byte	0xac4
 6823 0aee 03       		.byte	0x3
 6824 0aef 1C       		.uleb128 0x1c
 6825 0af0 EC070000 		.4byte	0x7ec
 6826 0af4 7C060000 		.4byte	.LLST190
 6827 0af8 78060000 		.4byte	.LVUS190
 6828 0afc 1C       		.uleb128 0x1c
 6829 0afd DF070000 		.4byte	0x7df
 6830 0b01 9F060000 		.4byte	.LLST191
 6831 0b05 9D060000 		.4byte	.LVUS191
 6832 0b09 22       		.uleb128 0x22
 6833 0b0a 34000000 		.4byte	.LBB88
 6834 0b0e 0C000000 		.4byte	.LBE88-.LBB88
 6835 0b12 1E       		.uleb128 0x1e
 6836 0b13 F9070000 		.4byte	0x7f9
 6837 0b17 BC060000 		.4byte	.LLST192
 6838 0b1b B2060000 		.4byte	.LVUS192
 6839 0b1f 00       		.byte	0
 6840 0b20 00       		.byte	0
ARM GAS  C:\Users\USER\AppData\Local\Temp\ccNdlOSb.s 			page 121


 6841 0b21 00       		.byte	0
 6842 0b22 16       		.uleb128 0x16
 6843 0b23 670A0000 		.4byte	.LASF100
 6844 0b27 01       		.byte	0x1
 6845 0b28 940A     		.2byte	0xa94
 6846 0b2a 06       		.byte	0x6
 6847 0b2b 00000000 		.4byte	.LFB188
 6848 0b2f 16000000 		.4byte	.LFE188-.LFB188
 6849 0b33 01       		.uleb128 0x1
 6850 0b34 9C       		.byte	0x9c
 6851 0b35 A60B0000 		.4byte	0xba6
 6852 0b39 17       		.uleb128 0x17
 6853 0b3a F1060000 		.4byte	.LASF66
 6854 0b3e 01       		.byte	0x1
 6855 0b3f 940A     		.2byte	0xa94
 6856 0b41 2F       		.byte	0x2f
 6857 0b42 8B040000 		.4byte	0x48b
 6858 0b46 01       		.uleb128 0x1
 6859 0b47 50       		.byte	0x50
 6860 0b48 18       		.uleb128 0x18
 6861 0b49 60000000 		.4byte	.LASF94
 6862 0b4d 01       		.byte	0x1
 6863 0b4e 940A     		.2byte	0xa94
 6864 0b50 3E       		.byte	0x3e
 6865 0b51 A7000000 		.4byte	0xa7
 6866 0b55 0B070000 		.4byte	.LLST171
 6867 0b59 07070000 		.4byte	.LVUS171
 6868 0b5d 23       		.uleb128 0x23
 6869 0b5e D1070000 		.4byte	0x7d1
 6870 0b62 00000000 		.4byte	.LBI80
 6871 0b66 04       		.byte	.LVU1514
 6872 0b67 00000000 		.4byte	.LBB80
 6873 0b6b 0C000000 		.4byte	.LBE80-.LBB80
 6874 0b6f 01       		.byte	0x1
 6875 0b70 9B0A     		.2byte	0xa9b
 6876 0b72 03       		.byte	0x3
 6877 0b73 1C       		.uleb128 0x1c
 6878 0b74 EC070000 		.4byte	0x7ec
 6879 0b78 30070000 		.4byte	.LLST172
 6880 0b7c 2C070000 		.4byte	.LVUS172
 6881 0b80 1C       		.uleb128 0x1c
 6882 0b81 DF070000 		.4byte	0x7df
 6883 0b85 53070000 		.4byte	.LLST173
 6884 0b89 51070000 		.4byte	.LVUS173
 6885 0b8d 22       		.uleb128 0x22
 6886 0b8e 00000000 		.4byte	.LBB81
 6887 0b92 0C000000 		.4byte	.LBE81-.LBB81
 6888 0b96 1E       		.uleb128 0x1e
 6889 0b97 F9070000 		.4byte	0x7f9
 6890 0b9b 70070000 		.4byte	.LLST174
 6891 0b9f 66070000 		.4byte	.LVUS174
 6892 0ba3 00       		.byte	0
 6893 0ba4 00       		.byte	0
 6894 0ba5 00       		.byte	0
 6895 0ba6 16       		.uleb128 0x16
 6896 0ba7 AA010000 		.4byte	.LASF101
 6897 0bab 01       		.byte	0x1
ARM GAS  C:\Users\USER\AppData\Local\Temp\ccNdlOSb.s 			page 122


 6898 0bac 7F0A     		.2byte	0xa7f
 6899 0bae 06       		.byte	0x6
 6900 0baf 00000000 		.4byte	.LFB187
 6901 0bb3 0C000000 		.4byte	.LFE187-.LFB187
 6902 0bb7 01       		.uleb128 0x1
 6903 0bb8 9C       		.byte	0x9c
 6904 0bb9 CD0B0000 		.4byte	0xbcd
 6905 0bbd 17       		.uleb128 0x17
 6906 0bbe F1060000 		.4byte	.LASF66
 6907 0bc2 01       		.byte	0x1
 6908 0bc3 7F0A     		.2byte	0xa7f
 6909 0bc5 2B       		.byte	0x2b
 6910 0bc6 8B040000 		.4byte	0x48b
 6911 0bca 01       		.uleb128 0x1
 6912 0bcb 50       		.byte	0x50
 6913 0bcc 00       		.byte	0
 6914 0bcd 16       		.uleb128 0x16
 6915 0bce 02040000 		.4byte	.LASF102
 6916 0bd2 01       		.byte	0x1
 6917 0bd3 580A     		.2byte	0xa58
 6918 0bd5 06       		.byte	0x6
 6919 0bd6 00000000 		.4byte	.LFB186
 6920 0bda 16000000 		.4byte	.LFE186-.LFB186
 6921 0bde 01       		.uleb128 0x1
 6922 0bdf 9C       		.byte	0x9c
 6923 0be0 030C0000 		.4byte	0xc03
 6924 0be4 17       		.uleb128 0x17
 6925 0be5 F1060000 		.4byte	.LASF66
 6926 0be9 01       		.byte	0x1
 6927 0bea 580A     		.2byte	0xa58
 6928 0bec 23       		.byte	0x23
 6929 0bed 8B040000 		.4byte	0x48b
 6930 0bf1 01       		.uleb128 0x1
 6931 0bf2 50       		.byte	0x50
 6932 0bf3 17       		.uleb128 0x17
 6933 0bf4 0B000000 		.4byte	.LASF77
 6934 0bf8 01       		.byte	0x1
 6935 0bf9 580A     		.2byte	0xa58
 6936 0bfb 39       		.byte	0x39
 6937 0bfc 78020000 		.4byte	0x278
 6938 0c00 01       		.uleb128 0x1
 6939 0c01 51       		.byte	0x51
 6940 0c02 00       		.byte	0
 6941 0c03 24       		.uleb128 0x24
 6942 0c04 3F000000 		.4byte	.LASF107
 6943 0c08 01       		.byte	0x1
 6944 0c09 3E0A     		.2byte	0xa3e
 6945 0c0b 06       		.byte	0x6
 6946 0c0c 380C0000 		.4byte	0xc38
 6947 0c10 12       		.uleb128 0x12
 6948 0c11 F1060000 		.4byte	.LASF66
 6949 0c15 01       		.byte	0x1
 6950 0c16 3E0A     		.2byte	0xa3e
 6951 0c18 1E       		.byte	0x1e
 6952 0c19 8B040000 		.4byte	0x48b
 6953 0c1d 12       		.uleb128 0x12
 6954 0c1e 76070000 		.4byte	.LASF103
ARM GAS  C:\Users\USER\AppData\Local\Temp\ccNdlOSb.s 			page 123


 6955 0c22 01       		.byte	0x1
 6956 0c23 3E0A     		.2byte	0xa3e
 6957 0c25 2D       		.byte	0x2d
 6958 0c26 A7000000 		.4byte	0xa7
 6959 0c2a 12       		.uleb128 0x12
 6960 0c2b 0B000000 		.4byte	.LASF77
 6961 0c2f 01       		.byte	0x1
 6962 0c30 3E0A     		.2byte	0xa3e
 6963 0c32 4C       		.byte	0x4c
 6964 0c33 78020000 		.4byte	0x278
 6965 0c37 00       		.byte	0
 6966 0c38 16       		.uleb128 0x16
 6967 0c39 A6020000 		.4byte	.LASF104
 6968 0c3d 01       		.byte	0x1
 6969 0c3e 230A     		.2byte	0xa23
 6970 0c40 06       		.byte	0x6
 6971 0c41 00000000 		.4byte	.LFB184
 6972 0c45 06000000 		.4byte	.LFE184-.LFB184
 6973 0c49 01       		.uleb128 0x1
 6974 0c4a 9C       		.byte	0x9c
 6975 0c4b 830C0000 		.4byte	0xc83
 6976 0c4f 17       		.uleb128 0x17
 6977 0c50 F1060000 		.4byte	.LASF66
 6978 0c54 01       		.byte	0x1
 6979 0c55 230A     		.2byte	0xa23
 6980 0c57 21       		.byte	0x21
 6981 0c58 8B040000 		.4byte	0x48b
 6982 0c5c 01       		.uleb128 0x1
 6983 0c5d 50       		.byte	0x50
 6984 0c5e 17       		.uleb128 0x17
 6985 0c5f 9B080000 		.4byte	.LASF105
 6986 0c63 01       		.byte	0x1
 6987 0c64 230A     		.2byte	0xa23
 6988 0c66 30       		.byte	0x30
 6989 0c67 A7000000 		.4byte	0xa7
 6990 0c6b 01       		.uleb128 0x1
 6991 0c6c 51       		.byte	0x51
 6992 0c6d 18       		.uleb128 0x18
 6993 0c6e 77050000 		.4byte	.LASF106
 6994 0c72 01       		.byte	0x1
 6995 0c73 230A     		.2byte	0xa23
 6996 0c75 46       		.byte	0x46
 6997 0c76 A7000000 		.4byte	0xa7
 6998 0c7a BF070000 		.4byte	.LLST170
 6999 0c7e BB070000 		.4byte	.LVUS170
 7000 0c82 00       		.byte	0
 7001 0c83 24       		.uleb128 0x24
 7002 0c84 B10B0000 		.4byte	.LASF108
 7003 0c88 01       		.byte	0x1
 7004 0c89 FE09     		.2byte	0x9fe
 7005 0c8b 06       		.byte	0x6
 7006 0c8c AB0C0000 		.4byte	0xcab
 7007 0c90 12       		.uleb128 0x12
 7008 0c91 F1060000 		.4byte	.LASF66
 7009 0c95 01       		.byte	0x1
 7010 0c96 FE09     		.2byte	0x9fe
 7011 0c98 29       		.byte	0x29
ARM GAS  C:\Users\USER\AppData\Local\Temp\ccNdlOSb.s 			page 124


 7012 0c99 8B040000 		.4byte	0x48b
 7013 0c9d 12       		.uleb128 0x12
 7014 0c9e 15030000 		.4byte	.LASF109
 7015 0ca2 01       		.byte	0x1
 7016 0ca3 FE09     		.2byte	0x9fe
 7017 0ca5 38       		.byte	0x38
 7018 0ca6 A7000000 		.4byte	0xa7
 7019 0caa 00       		.byte	0
 7020 0cab 25       		.uleb128 0x25
 7021 0cac D5080000 		.4byte	.LASF115
 7022 0cb0 01       		.byte	0x1
 7023 0cb1 D509     		.2byte	0x9d5
 7024 0cb3 0A       		.byte	0xa
 7025 0cb4 51020000 		.4byte	0x251
 7026 0cb8 00000000 		.4byte	.LFB182
 7027 0cbc 14000000 		.4byte	.LFE182-.LFB182
 7028 0cc0 01       		.uleb128 0x1
 7029 0cc1 9C       		.byte	0x9c
 7030 0cc2 2A0D0000 		.4byte	0xd2a
 7031 0cc6 18       		.uleb128 0x18
 7032 0cc7 F1060000 		.4byte	.LASF66
 7033 0ccb 01       		.byte	0x1
 7034 0ccc D509     		.2byte	0x9d5
 7035 0cce 27       		.byte	0x27
 7036 0ccf 8B040000 		.4byte	0x48b
 7037 0cd3 E4070000 		.4byte	.LLST166
 7038 0cd7 E0070000 		.4byte	.LVUS166
 7039 0cdb 17       		.uleb128 0x17
 7040 0cdc 15030000 		.4byte	.LASF109
 7041 0ce0 01       		.byte	0x1
 7042 0ce1 D509     		.2byte	0x9d5
 7043 0ce3 36       		.byte	0x36
 7044 0ce4 A7000000 		.4byte	0xa7
 7045 0ce8 01       		.uleb128 0x1
 7046 0ce9 51       		.byte	0x51
 7047 0cea 19       		.uleb128 0x19
 7048 0ceb 830D0000 		.4byte	.LASF110
 7049 0cef 01       		.byte	0x1
 7050 0cf0 D709     		.2byte	0x9d7
 7051 0cf2 0C       		.byte	0xc
 7052 0cf3 51020000 		.4byte	0x251
 7053 0cf7 09080000 		.4byte	.LLST167
 7054 0cfb 05080000 		.4byte	.LVUS167
 7055 0cff 19       		.uleb128 0x19
 7056 0d00 92080000 		.4byte	.LASF111
 7057 0d04 01       		.byte	0x1
 7058 0d05 D809     		.2byte	0x9d8
 7059 0d07 0C       		.byte	0xc
 7060 0d08 A7000000 		.4byte	0xa7
 7061 0d0c 2C080000 		.4byte	.LLST168
 7062 0d10 28080000 		.4byte	.LVUS168
 7063 0d14 19       		.uleb128 0x19
 7064 0d15 150D0000 		.4byte	.LASF112
 7065 0d19 01       		.byte	0x1
 7066 0d1a D809     		.2byte	0x9d8
 7067 0d1c 1C       		.byte	0x1c
 7068 0d1d A7000000 		.4byte	0xa7
ARM GAS  C:\Users\USER\AppData\Local\Temp\ccNdlOSb.s 			page 125


 7069 0d21 54080000 		.4byte	.LLST169
 7070 0d25 50080000 		.4byte	.LVUS169
 7071 0d29 00       		.byte	0
 7072 0d2a 1A       		.uleb128 0x1a
 7073 0d2b 8A050000 		.4byte	.LASF113
 7074 0d2f 01       		.byte	0x1
 7075 0d30 B909     		.2byte	0x9b9
 7076 0d32 06       		.byte	0x6
 7077 0d33 01       		.byte	0x1
 7078 0d34 530D0000 		.4byte	0xd53
 7079 0d38 12       		.uleb128 0x12
 7080 0d39 F1060000 		.4byte	.LASF66
 7081 0d3d 01       		.byte	0x1
 7082 0d3e B909     		.2byte	0x9b9
 7083 0d40 21       		.byte	0x21
 7084 0d41 8B040000 		.4byte	0x48b
 7085 0d45 12       		.uleb128 0x12
 7086 0d46 DA000000 		.4byte	.LASF114
 7087 0d4a 01       		.byte	0x1
 7088 0d4b B909     		.2byte	0x9b9
 7089 0d4d 30       		.byte	0x30
 7090 0d4e A7000000 		.4byte	0xa7
 7091 0d52 00       		.byte	0
 7092 0d53 25       		.uleb128 0x25
 7093 0d54 A7060000 		.4byte	.LASF116
 7094 0d58 01       		.byte	0x1
 7095 0d59 8F09     		.2byte	0x98f
 7096 0d5b 0C       		.byte	0xc
 7097 0d5c 45020000 		.4byte	0x245
 7098 0d60 00000000 		.4byte	.LFB180
 7099 0d64 0C000000 		.4byte	.LFE180-.LFB180
 7100 0d68 01       		.uleb128 0x1
 7101 0d69 9C       		.byte	0x9c
 7102 0d6a A80D0000 		.4byte	0xda8
 7103 0d6e 18       		.uleb128 0x18
 7104 0d6f F1060000 		.4byte	.LASF66
 7105 0d73 01       		.byte	0x1
 7106 0d74 8F09     		.2byte	0x98f
 7107 0d76 2B       		.byte	0x2b
 7108 0d77 8B040000 		.4byte	0x48b
 7109 0d7b 7C080000 		.4byte	.LLST163
 7110 0d7f 78080000 		.4byte	.LVUS163
 7111 0d83 17       		.uleb128 0x17
 7112 0d84 DA000000 		.4byte	.LASF114
 7113 0d88 01       		.byte	0x1
 7114 0d89 8F09     		.2byte	0x98f
 7115 0d8b 3A       		.byte	0x3a
 7116 0d8c A7000000 		.4byte	0xa7
 7117 0d90 01       		.uleb128 0x1
 7118 0d91 51       		.byte	0x51
 7119 0d92 19       		.uleb128 0x19
 7120 0d93 830D0000 		.4byte	.LASF110
 7121 0d97 01       		.byte	0x1
 7122 0d98 9109     		.2byte	0x991
 7123 0d9a 0C       		.byte	0xc
 7124 0d9b 51020000 		.4byte	0x251
 7125 0d9f A1080000 		.4byte	.LLST164
ARM GAS  C:\Users\USER\AppData\Local\Temp\ccNdlOSb.s 			page 126


 7126 0da3 9D080000 		.4byte	.LVUS164
 7127 0da7 00       		.byte	0
 7128 0da8 16       		.uleb128 0x16
 7129 0da9 3F020000 		.4byte	.LASF117
 7130 0dad 01       		.byte	0x1
 7131 0dae 6E09     		.2byte	0x96e
 7132 0db0 06       		.byte	0x6
 7133 0db1 00000000 		.4byte	.LFB179
 7134 0db5 04000000 		.4byte	.LFE179-.LFB179
 7135 0db9 01       		.uleb128 0x1
 7136 0dba 9C       		.byte	0x9c
 7137 0dbb DE0D0000 		.4byte	0xdde
 7138 0dbf 17       		.uleb128 0x17
 7139 0dc0 F1060000 		.4byte	.LASF66
 7140 0dc4 01       		.byte	0x1
 7141 0dc5 6E09     		.2byte	0x96e
 7142 0dc7 25       		.byte	0x25
 7143 0dc8 8B040000 		.4byte	0x48b
 7144 0dcc 01       		.uleb128 0x1
 7145 0dcd 50       		.byte	0x50
 7146 0dce 17       		.uleb128 0x17
 7147 0dcf 51090000 		.4byte	.LASF118
 7148 0dd3 01       		.byte	0x1
 7149 0dd4 6E09     		.2byte	0x96e
 7150 0dd6 34       		.byte	0x34
 7151 0dd7 A7000000 		.4byte	0xa7
 7152 0ddb 01       		.uleb128 0x1
 7153 0ddc 51       		.byte	0x51
 7154 0ddd 00       		.byte	0
 7155 0dde 16       		.uleb128 0x16
 7156 0ddf DD090000 		.4byte	.LASF119
 7157 0de3 01       		.byte	0x1
 7158 0de4 4809     		.2byte	0x948
 7159 0de6 06       		.byte	0x6
 7160 0de7 00000000 		.4byte	.LFB178
 7161 0deb 16000000 		.4byte	.LFE178-.LFB178
 7162 0def 01       		.uleb128 0x1
 7163 0df0 9C       		.byte	0x9c
 7164 0df1 290E0000 		.4byte	0xe29
 7165 0df5 17       		.uleb128 0x17
 7166 0df6 F1060000 		.4byte	.LASF66
 7167 0dfa 01       		.byte	0x1
 7168 0dfb 4809     		.2byte	0x948
 7169 0dfd 20       		.byte	0x20
 7170 0dfe 8B040000 		.4byte	0x48b
 7171 0e02 01       		.uleb128 0x1
 7172 0e03 50       		.byte	0x50
 7173 0e04 18       		.uleb128 0x18
 7174 0e05 15030000 		.4byte	.LASF109
 7175 0e09 01       		.byte	0x1
 7176 0e0a 4809     		.2byte	0x948
 7177 0e0c 2F       		.byte	0x2f
 7178 0e0d A7000000 		.4byte	0xa7
 7179 0e11 D3080000 		.4byte	.LLST162
 7180 0e15 CB080000 		.4byte	.LVUS162
 7181 0e19 17       		.uleb128 0x17
 7182 0e1a 0B000000 		.4byte	.LASF77
ARM GAS  C:\Users\USER\AppData\Local\Temp\ccNdlOSb.s 			page 127


 7183 0e1e 01       		.byte	0x1
 7184 0e1f 4809     		.2byte	0x948
 7185 0e21 47       		.byte	0x47
 7186 0e22 78020000 		.4byte	0x278
 7187 0e26 01       		.uleb128 0x1
 7188 0e27 52       		.byte	0x52
 7189 0e28 00       		.byte	0
 7190 0e29 16       		.uleb128 0x16
 7191 0e2a B20C0000 		.4byte	.LASF120
 7192 0e2e 01       		.byte	0x1
 7193 0e2f 0F09     		.2byte	0x90f
 7194 0e31 06       		.byte	0x6
 7195 0e32 00000000 		.4byte	.LFB177
 7196 0e36 16000000 		.4byte	.LFE177-.LFB177
 7197 0e3a 01       		.uleb128 0x1
 7198 0e3b 9C       		.byte	0x9c
 7199 0e3c 5F0E0000 		.4byte	0xe5f
 7200 0e40 17       		.uleb128 0x17
 7201 0e41 F1060000 		.4byte	.LASF66
 7202 0e45 01       		.byte	0x1
 7203 0e46 0F09     		.2byte	0x90f
 7204 0e48 28       		.byte	0x28
 7205 0e49 8B040000 		.4byte	0x48b
 7206 0e4d 01       		.uleb128 0x1
 7207 0e4e 50       		.byte	0x50
 7208 0e4f 17       		.uleb128 0x17
 7209 0e50 0B000000 		.4byte	.LASF77
 7210 0e54 01       		.byte	0x1
 7211 0e55 0F09     		.2byte	0x90f
 7212 0e57 3E       		.byte	0x3e
 7213 0e58 78020000 		.4byte	0x278
 7214 0e5c 01       		.uleb128 0x1
 7215 0e5d 51       		.byte	0x51
 7216 0e5e 00       		.byte	0
 7217 0e5f 16       		.uleb128 0x16
 7218 0e60 B8050000 		.4byte	.LASF121
 7219 0e64 01       		.byte	0x1
 7220 0e65 F608     		.2byte	0x8f6
 7221 0e67 06       		.byte	0x6
 7222 0e68 00000000 		.4byte	.LFB176
 7223 0e6c 16000000 		.4byte	.LFE176-.LFB176
 7224 0e70 01       		.uleb128 0x1
 7225 0e71 9C       		.byte	0x9c
 7226 0e72 950E0000 		.4byte	0xe95
 7227 0e76 17       		.uleb128 0x17
 7228 0e77 F1060000 		.4byte	.LASF66
 7229 0e7b 01       		.byte	0x1
 7230 0e7c F608     		.2byte	0x8f6
 7231 0e7e 21       		.byte	0x21
 7232 0e7f 8B040000 		.4byte	0x48b
 7233 0e83 01       		.uleb128 0x1
 7234 0e84 50       		.byte	0x50
 7235 0e85 17       		.uleb128 0x17
 7236 0e86 0B000000 		.4byte	.LASF77
 7237 0e8a 01       		.byte	0x1
 7238 0e8b F608     		.2byte	0x8f6
 7239 0e8d 37       		.byte	0x37
ARM GAS  C:\Users\USER\AppData\Local\Temp\ccNdlOSb.s 			page 128


 7240 0e8e 78020000 		.4byte	0x278
 7241 0e92 01       		.uleb128 0x1
 7242 0e93 51       		.byte	0x51
 7243 0e94 00       		.byte	0
 7244 0e95 16       		.uleb128 0x16
 7245 0e96 C30D0000 		.4byte	.LASF122
 7246 0e9a 01       		.byte	0x1
 7247 0e9b DD08     		.2byte	0x8dd
 7248 0e9d 06       		.byte	0x6
 7249 0e9e 00000000 		.4byte	.LFB175
 7250 0ea2 14000000 		.4byte	.LFE175-.LFB175
 7251 0ea6 01       		.uleb128 0x1
 7252 0ea7 9C       		.byte	0x9c
 7253 0ea8 CB0E0000 		.4byte	0xecb
 7254 0eac 17       		.uleb128 0x17
 7255 0ead F1060000 		.4byte	.LASF66
 7256 0eb1 01       		.byte	0x1
 7257 0eb2 DD08     		.2byte	0x8dd
 7258 0eb4 26       		.byte	0x26
 7259 0eb5 8B040000 		.4byte	0x48b
 7260 0eb9 01       		.uleb128 0x1
 7261 0eba 50       		.byte	0x50
 7262 0ebb 17       		.uleb128 0x17
 7263 0ebc 0B000000 		.4byte	.LASF77
 7264 0ec0 01       		.byte	0x1
 7265 0ec1 DD08     		.2byte	0x8dd
 7266 0ec3 3C       		.byte	0x3c
 7267 0ec4 78020000 		.4byte	0x278
 7268 0ec8 01       		.uleb128 0x1
 7269 0ec9 51       		.byte	0x51
 7270 0eca 00       		.byte	0
 7271 0ecb 16       		.uleb128 0x16
 7272 0ecc C8070000 		.4byte	.LASF123
 7273 0ed0 01       		.byte	0x1
 7274 0ed1 CA08     		.2byte	0x8ca
 7275 0ed3 06       		.byte	0x6
 7276 0ed4 00000000 		.4byte	.LFB174
 7277 0ed8 12000000 		.4byte	.LFE174-.LFB174
 7278 0edc 01       		.uleb128 0x1
 7279 0edd 9C       		.byte	0x9c
 7280 0ede F20E0000 		.4byte	0xef2
 7281 0ee2 17       		.uleb128 0x17
 7282 0ee3 E50A0000 		.4byte	.LASF124
 7283 0ee7 01       		.byte	0x1
 7284 0ee8 CA08     		.2byte	0x8ca
 7285 0eea 2E       		.byte	0x2e
 7286 0eeb F20E0000 		.4byte	0xef2
 7287 0eef 01       		.uleb128 0x1
 7288 0ef0 50       		.byte	0x50
 7289 0ef1 00       		.byte	0
 7290 0ef2 15       		.uleb128 0x15
 7291 0ef3 04       		.byte	0x4
 7292 0ef4 15040000 		.4byte	0x415
 7293 0ef8 16       		.uleb128 0x16
 7294 0ef9 210A0000 		.4byte	.LASF125
 7295 0efd 01       		.byte	0x1
 7296 0efe B108     		.2byte	0x8b1
ARM GAS  C:\Users\USER\AppData\Local\Temp\ccNdlOSb.s 			page 129


 7297 0f00 06       		.byte	0x6
 7298 0f01 00000000 		.4byte	.LFB173
 7299 0f05 22000000 		.4byte	.LFE173-.LFB173
 7300 0f09 01       		.uleb128 0x1
 7301 0f0a 9C       		.byte	0x9c
 7302 0f0b 2E0F0000 		.4byte	0xf2e
 7303 0f0f 17       		.uleb128 0x17
 7304 0f10 F1060000 		.4byte	.LASF66
 7305 0f14 01       		.byte	0x1
 7306 0f15 B108     		.2byte	0x8b1
 7307 0f17 22       		.byte	0x22
 7308 0f18 8B040000 		.4byte	0x48b
 7309 0f1c 01       		.uleb128 0x1
 7310 0f1d 50       		.byte	0x50
 7311 0f1e 17       		.uleb128 0x17
 7312 0f1f E50A0000 		.4byte	.LASF124
 7313 0f23 01       		.byte	0x1
 7314 0f24 B108     		.2byte	0x8b1
 7315 0f26 3D       		.byte	0x3d
 7316 0f27 F20E0000 		.4byte	0xef2
 7317 0f2b 01       		.uleb128 0x1
 7318 0f2c 51       		.byte	0x51
 7319 0f2d 00       		.byte	0
 7320 0f2e 1A       		.uleb128 0x1a
 7321 0f2f 200E0000 		.4byte	.LASF126
 7322 0f33 01       		.byte	0x1
 7323 0f34 7C08     		.2byte	0x87c
 7324 0f36 06       		.byte	0x6
 7325 0f37 01       		.byte	0x1
 7326 0f38 570F0000 		.4byte	0xf57
 7327 0f3c 12       		.uleb128 0x12
 7328 0f3d F1060000 		.4byte	.LASF66
 7329 0f41 01       		.byte	0x1
 7330 0f42 7C08     		.2byte	0x87c
 7331 0f44 27       		.byte	0x27
 7332 0f45 8B040000 		.4byte	0x48b
 7333 0f49 12       		.uleb128 0x12
 7334 0f4a D60D0000 		.4byte	.LASF127
 7335 0f4e 01       		.byte	0x1
 7336 0f4f 7C08     		.2byte	0x87c
 7337 0f51 36       		.byte	0x36
 7338 0f52 A7000000 		.4byte	0xa7
 7339 0f56 00       		.byte	0
 7340 0f57 1A       		.uleb128 0x1a
 7341 0f58 6E0B0000 		.4byte	.LASF128
 7342 0f5c 01       		.byte	0x1
 7343 0f5d 6408     		.2byte	0x864
 7344 0f5f 06       		.byte	0x6
 7345 0f60 01       		.byte	0x1
 7346 0f61 800F0000 		.4byte	0xf80
 7347 0f65 12       		.uleb128 0x12
 7348 0f66 F1060000 		.4byte	.LASF66
 7349 0f6a 01       		.byte	0x1
 7350 0f6b 6408     		.2byte	0x864
 7351 0f6d 27       		.byte	0x27
 7352 0f6e 8B040000 		.4byte	0x48b
 7353 0f72 12       		.uleb128 0x12
ARM GAS  C:\Users\USER\AppData\Local\Temp\ccNdlOSb.s 			page 130


 7354 0f73 D60D0000 		.4byte	.LASF127
 7355 0f77 01       		.byte	0x1
 7356 0f78 6408     		.2byte	0x864
 7357 0f7a 36       		.byte	0x36
 7358 0f7b A7000000 		.4byte	0xa7
 7359 0f7f 00       		.byte	0
 7360 0f80 1A       		.uleb128 0x1a
 7361 0f81 3F0A0000 		.4byte	.LASF129
 7362 0f85 01       		.byte	0x1
 7363 0f86 4C08     		.2byte	0x84c
 7364 0f88 06       		.byte	0x6
 7365 0f89 01       		.byte	0x1
 7366 0f8a A90F0000 		.4byte	0xfa9
 7367 0f8e 12       		.uleb128 0x12
 7368 0f8f F1060000 		.4byte	.LASF66
 7369 0f93 01       		.byte	0x1
 7370 0f94 4C08     		.2byte	0x84c
 7371 0f96 27       		.byte	0x27
 7372 0f97 8B040000 		.4byte	0x48b
 7373 0f9b 12       		.uleb128 0x12
 7374 0f9c D60D0000 		.4byte	.LASF127
 7375 0fa0 01       		.byte	0x1
 7376 0fa1 4C08     		.2byte	0x84c
 7377 0fa3 36       		.byte	0x36
 7378 0fa4 A7000000 		.4byte	0xa7
 7379 0fa8 00       		.byte	0
 7380 0fa9 1A       		.uleb128 0x1a
 7381 0faa 48070000 		.4byte	.LASF130
 7382 0fae 01       		.byte	0x1
 7383 0faf 3308     		.2byte	0x833
 7384 0fb1 06       		.byte	0x6
 7385 0fb2 01       		.byte	0x1
 7386 0fb3 D20F0000 		.4byte	0xfd2
 7387 0fb7 12       		.uleb128 0x12
 7388 0fb8 F1060000 		.4byte	.LASF66
 7389 0fbc 01       		.byte	0x1
 7390 0fbd 3308     		.2byte	0x833
 7391 0fbf 27       		.byte	0x27
 7392 0fc0 8B040000 		.4byte	0x48b
 7393 0fc4 12       		.uleb128 0x12
 7394 0fc5 D60D0000 		.4byte	.LASF127
 7395 0fc9 01       		.byte	0x1
 7396 0fca 3308     		.2byte	0x833
 7397 0fcc 36       		.byte	0x36
 7398 0fcd A7000000 		.4byte	0xa7
 7399 0fd1 00       		.byte	0
 7400 0fd2 25       		.uleb128 0x25
 7401 0fd3 C5030000 		.4byte	.LASF131
 7402 0fd7 01       		.byte	0x1
 7403 0fd8 1F08     		.2byte	0x81f
 7404 0fda 0A       		.byte	0xa
 7405 0fdb C4000000 		.4byte	0xc4
 7406 0fdf 00000000 		.4byte	.LFB168
 7407 0fe3 04000000 		.4byte	.LFE168-.LFB168
 7408 0fe7 01       		.uleb128 0x1
 7409 0fe8 9C       		.byte	0x9c
 7410 0fe9 03100000 		.4byte	0x1003
ARM GAS  C:\Users\USER\AppData\Local\Temp\ccNdlOSb.s 			page 131


 7411 0fed 18       		.uleb128 0x18
 7412 0fee F1060000 		.4byte	.LASF66
 7413 0ff2 01       		.byte	0x1
 7414 0ff3 1F08     		.2byte	0x81f
 7415 0ff5 27       		.byte	0x27
 7416 0ff6 8B040000 		.4byte	0x48b
 7417 0ffa 11090000 		.4byte	.LLST157
 7418 0ffe 0D090000 		.4byte	.LVUS157
 7419 1002 00       		.byte	0
 7420 1003 25       		.uleb128 0x25
 7421 1004 B5030000 		.4byte	.LASF132
 7422 1008 01       		.byte	0x1
 7423 1009 1108     		.2byte	0x811
 7424 100b 0A       		.byte	0xa
 7425 100c C4000000 		.4byte	0xc4
 7426 1010 00000000 		.4byte	.LFB167
 7427 1014 04000000 		.4byte	.LFE167-.LFB167
 7428 1018 01       		.uleb128 0x1
 7429 1019 9C       		.byte	0x9c
 7430 101a 34100000 		.4byte	0x1034
 7431 101e 18       		.uleb128 0x18
 7432 101f F1060000 		.4byte	.LASF66
 7433 1023 01       		.byte	0x1
 7434 1024 1108     		.2byte	0x811
 7435 1026 27       		.byte	0x27
 7436 1027 8B040000 		.4byte	0x48b
 7437 102b 36090000 		.4byte	.LLST156
 7438 102f 32090000 		.4byte	.LVUS156
 7439 1033 00       		.byte	0
 7440 1034 25       		.uleb128 0x25
 7441 1035 A5030000 		.4byte	.LASF133
 7442 1039 01       		.byte	0x1
 7443 103a 0308     		.2byte	0x803
 7444 103c 0A       		.byte	0xa
 7445 103d C4000000 		.4byte	0xc4
 7446 1041 00000000 		.4byte	.LFB166
 7447 1045 04000000 		.4byte	.LFE166-.LFB166
 7448 1049 01       		.uleb128 0x1
 7449 104a 9C       		.byte	0x9c
 7450 104b 65100000 		.4byte	0x1065
 7451 104f 18       		.uleb128 0x18
 7452 1050 F1060000 		.4byte	.LASF66
 7453 1054 01       		.byte	0x1
 7454 1055 0308     		.2byte	0x803
 7455 1057 27       		.byte	0x27
 7456 1058 8B040000 		.4byte	0x48b
 7457 105c 5B090000 		.4byte	.LLST155
 7458 1060 57090000 		.4byte	.LVUS155
 7459 1064 00       		.byte	0
 7460 1065 25       		.uleb128 0x25
 7461 1066 55060000 		.4byte	.LASF134
 7462 106a 01       		.byte	0x1
 7463 106b F407     		.2byte	0x7f4
 7464 106d 0A       		.byte	0xa
 7465 106e C4000000 		.4byte	0xc4
 7466 1072 00000000 		.4byte	.LFB165
 7467 1076 04000000 		.4byte	.LFE165-.LFB165
ARM GAS  C:\Users\USER\AppData\Local\Temp\ccNdlOSb.s 			page 132


 7468 107a 01       		.uleb128 0x1
 7469 107b 9C       		.byte	0x9c
 7470 107c 96100000 		.4byte	0x1096
 7471 1080 18       		.uleb128 0x18
 7472 1081 F1060000 		.4byte	.LASF66
 7473 1085 01       		.byte	0x1
 7474 1086 F407     		.2byte	0x7f4
 7475 1088 27       		.byte	0x27
 7476 1089 8B040000 		.4byte	0x48b
 7477 108d 80090000 		.4byte	.LLST154
 7478 1091 7C090000 		.4byte	.LVUS154
 7479 1095 00       		.byte	0
 7480 1096 16       		.uleb128 0x16
 7481 1097 5C070000 		.4byte	.LASF135
 7482 109b 01       		.byte	0x1
 7483 109c BB07     		.2byte	0x7bb
 7484 109e 06       		.byte	0x6
 7485 109f 00000000 		.4byte	.LFB164
 7486 10a3 42010000 		.4byte	.LFE164-.LFB164
 7487 10a7 01       		.uleb128 0x1
 7488 10a8 9C       		.byte	0x9c
 7489 10a9 B2130000 		.4byte	0x13b2
 7490 10ad 17       		.uleb128 0x17
 7491 10ae F1060000 		.4byte	.LASF66
 7492 10b2 01       		.byte	0x1
 7493 10b3 BB07     		.2byte	0x7bb
 7494 10b5 22       		.byte	0x22
 7495 10b6 8B040000 		.4byte	0x48b
 7496 10ba 01       		.uleb128 0x1
 7497 10bb 50       		.byte	0x50
 7498 10bc 18       		.uleb128 0x18
 7499 10bd DB070000 		.4byte	.LASF136
 7500 10c1 01       		.byte	0x1
 7501 10c2 BB07     		.2byte	0x7bb
 7502 10c4 3B       		.byte	0x3b
 7503 10c5 B2130000 		.4byte	0x13b2
 7504 10c9 A5090000 		.4byte	.LLST117
 7505 10cd A1090000 		.4byte	.LVUS117
 7506 10d1 19       		.uleb128 0x19
 7507 10d2 D5030000 		.4byte	.LASF137
 7508 10d6 01       		.byte	0x1
 7509 10d7 BD07     		.2byte	0x7bd
 7510 10d9 0C       		.byte	0xc
 7511 10da A7000000 		.4byte	0xa7
 7512 10de CC090000 		.4byte	.LLST118
 7513 10e2 C6090000 		.4byte	.LVUS118
 7514 10e6 19       		.uleb128 0x19
 7515 10e7 A7080000 		.4byte	.LASF138
 7516 10eb 01       		.byte	0x1
 7517 10ec BE07     		.2byte	0x7be
 7518 10ee 0C       		.byte	0xc
 7519 10ef A7000000 		.4byte	0xa7
 7520 10f3 FC090000 		.4byte	.LLST119
 7521 10f7 F6090000 		.4byte	.LVUS119
 7522 10fb 21       		.uleb128 0x21
 7523 10fc 65050000 		.4byte	0x565
 7524 1100 3A000000 		.4byte	.LBI64
ARM GAS  C:\Users\USER\AppData\Local\Temp\ccNdlOSb.s 			page 133


 7525 1104 01       		.byte	.LVU1165
 7526 1105 3A000000 		.4byte	.LBB64
 7527 1109 34000000 		.4byte	.LBE64-.LBB64
 7528 110d 01       		.byte	0x1
 7529 110e D807     		.2byte	0x7d8
 7530 1110 05       		.byte	0x5
 7531 1111 6E110000 		.4byte	0x116e
 7532 1115 1C       		.uleb128 0x1c
 7533 1116 9A050000 		.4byte	0x59a
 7534 111a 280A0000 		.4byte	.LLST120
 7535 111e 260A0000 		.4byte	.LVUS120
 7536 1122 1C       		.uleb128 0x1c
 7537 1123 8D050000 		.4byte	0x58d
 7538 1127 410A0000 		.4byte	.LLST121
 7539 112b 3F0A0000 		.4byte	.LVUS121
 7540 112f 1C       		.uleb128 0x1c
 7541 1130 80050000 		.4byte	0x580
 7542 1134 560A0000 		.4byte	.LLST122
 7543 1138 540A0000 		.4byte	.LVUS122
 7544 113c 1C       		.uleb128 0x1c
 7545 113d 73050000 		.4byte	0x573
 7546 1141 6B0A0000 		.4byte	.LLST123
 7547 1145 690A0000 		.4byte	.LVUS123
 7548 1149 22       		.uleb128 0x22
 7549 114a 3A000000 		.4byte	.LBB65
 7550 114e 34000000 		.4byte	.LBE65-.LBB65
 7551 1152 1E       		.uleb128 0x1e
 7552 1153 A7050000 		.4byte	0x5a7
 7553 1157 880A0000 		.4byte	.LLST124
 7554 115b 7E0A0000 		.4byte	.LVUS124
 7555 115f 1E       		.uleb128 0x1e
 7556 1160 B4050000 		.4byte	0x5b4
 7557 1164 EC0A0000 		.4byte	.LLST125
 7558 1168 E60A0000 		.4byte	.LVUS125
 7559 116c 00       		.byte	0
 7560 116d 00       		.byte	0
 7561 116e 21       		.uleb128 0x21
 7562 116f A90F0000 		.4byte	0xfa9
 7563 1173 6E000000 		.4byte	.LBI66
 7564 1177 02       		.byte	.LVU1191
 7565 1178 6E000000 		.4byte	.LBB66
 7566 117c 10000000 		.4byte	.LBE66-.LBB66
 7567 1180 01       		.byte	0x1
 7568 1181 DB07     		.2byte	0x7db
 7569 1183 05       		.byte	0x5
 7570 1184 A3110000 		.4byte	0x11a3
 7571 1188 1C       		.uleb128 0x1c
 7572 1189 C40F0000 		.4byte	0xfc4
 7573 118d 1C0B0000 		.4byte	.LLST126
 7574 1191 1A0B0000 		.4byte	.LVUS126
 7575 1195 1C       		.uleb128 0x1c
 7576 1196 B70F0000 		.4byte	0xfb7
 7577 119a 350B0000 		.4byte	.LLST127
 7578 119e 330B0000 		.4byte	.LVUS127
 7579 11a2 00       		.byte	0
 7580 11a3 21       		.uleb128 0x21
 7581 11a4 FB040000 		.4byte	0x4fb
ARM GAS  C:\Users\USER\AppData\Local\Temp\ccNdlOSb.s 			page 134


 7582 11a8 7E000000 		.4byte	.LBI68
 7583 11ac 02       		.byte	.LVU1200
 7584 11ad 7E000000 		.4byte	.LBB68
 7585 11b1 2C000000 		.4byte	.LBE68-.LBB68
 7586 11b5 01       		.byte	0x1
 7587 11b6 DD07     		.2byte	0x7dd
 7588 11b8 05       		.byte	0x5
 7589 11b9 23120000 		.4byte	0x1223
 7590 11bd 1C       		.uleb128 0x1c
 7591 11be 30050000 		.4byte	0x530
 7592 11c2 4A0B0000 		.4byte	.LLST128
 7593 11c6 480B0000 		.4byte	.LVUS128
 7594 11ca 1C       		.uleb128 0x1c
 7595 11cb 23050000 		.4byte	0x523
 7596 11cf 630B0000 		.4byte	.LLST129
 7597 11d3 610B0000 		.4byte	.LVUS129
 7598 11d7 1C       		.uleb128 0x1c
 7599 11d8 16050000 		.4byte	0x516
 7600 11dc 780B0000 		.4byte	.LLST130
 7601 11e0 760B0000 		.4byte	.LVUS130
 7602 11e4 1C       		.uleb128 0x1c
 7603 11e5 09050000 		.4byte	0x509
 7604 11e9 8D0B0000 		.4byte	.LLST131
 7605 11ed 8B0B0000 		.4byte	.LVUS131
 7606 11f1 22       		.uleb128 0x22
 7607 11f2 7E000000 		.4byte	.LBB69
 7608 11f6 2C000000 		.4byte	.LBE69-.LBB69
 7609 11fa 1E       		.uleb128 0x1e
 7610 11fb 3D050000 		.4byte	0x53d
 7611 11ff A80B0000 		.4byte	.LLST132
 7612 1203 A00B0000 		.4byte	.LVUS132
 7613 1207 1E       		.uleb128 0x1e
 7614 1208 4A050000 		.4byte	0x54a
 7615 120c EA0B0000 		.4byte	.LLST133
 7616 1210 E40B0000 		.4byte	.LVUS133
 7617 1214 1E       		.uleb128 0x1e
 7618 1215 57050000 		.4byte	0x557
 7619 1219 1C0C0000 		.4byte	.LLST134
 7620 121d 180C0000 		.4byte	.LVUS134
 7621 1221 00       		.byte	0
 7622 1222 00       		.byte	0
 7623 1223 21       		.uleb128 0x21
 7624 1224 800F0000 		.4byte	0xf80
 7625 1228 AA000000 		.4byte	.LBI70
 7626 122c 02       		.byte	.LVU1228
 7627 122d AA000000 		.4byte	.LBB70
 7628 1231 10000000 		.4byte	.LBE70-.LBB70
 7629 1235 01       		.byte	0x1
 7630 1236 DF07     		.2byte	0x7df
 7631 1238 05       		.byte	0x5
 7632 1239 58120000 		.4byte	0x1258
 7633 123d 1C       		.uleb128 0x1c
 7634 123e 9B0F0000 		.4byte	0xf9b
 7635 1242 410C0000 		.4byte	.LLST135
 7636 1246 3F0C0000 		.4byte	.LVUS135
 7637 124a 1C       		.uleb128 0x1c
 7638 124b 8E0F0000 		.4byte	0xf8e
ARM GAS  C:\Users\USER\AppData\Local\Temp\ccNdlOSb.s 			page 135


 7639 124f 5A0C0000 		.4byte	.LLST136
 7640 1253 580C0000 		.4byte	.LVUS136
 7641 1257 00       		.byte	0
 7642 1258 21       		.uleb128 0x21
 7643 1259 FB040000 		.4byte	0x4fb
 7644 125d BE000000 		.4byte	.LBI72
 7645 1261 01       		.byte	.LVU1237
 7646 1262 BE000000 		.4byte	.LBB72
 7647 1266 38000000 		.4byte	.LBE72-.LBB72
 7648 126a 01       		.byte	0x1
 7649 126b E407     		.2byte	0x7e4
 7650 126d 05       		.byte	0x5
 7651 126e D8120000 		.4byte	0x12d8
 7652 1272 1C       		.uleb128 0x1c
 7653 1273 30050000 		.4byte	0x530
 7654 1277 6F0C0000 		.4byte	.LLST137
 7655 127b 6D0C0000 		.4byte	.LVUS137
 7656 127f 1C       		.uleb128 0x1c
 7657 1280 23050000 		.4byte	0x523
 7658 1284 880C0000 		.4byte	.LLST138
 7659 1288 860C0000 		.4byte	.LVUS138
 7660 128c 1C       		.uleb128 0x1c
 7661 128d 16050000 		.4byte	0x516
 7662 1291 9D0C0000 		.4byte	.LLST139
 7663 1295 9B0C0000 		.4byte	.LVUS139
 7664 1299 1C       		.uleb128 0x1c
 7665 129a 09050000 		.4byte	0x509
 7666 129e B20C0000 		.4byte	.LLST140
 7667 12a2 B00C0000 		.4byte	.LVUS140
 7668 12a6 22       		.uleb128 0x22
 7669 12a7 BE000000 		.4byte	.LBB73
 7670 12ab 38000000 		.4byte	.LBE73-.LBB73
 7671 12af 1E       		.uleb128 0x1e
 7672 12b0 3D050000 		.4byte	0x53d
 7673 12b4 CF0C0000 		.4byte	.LLST141
 7674 12b8 C50C0000 		.4byte	.LVUS141
 7675 12bc 1E       		.uleb128 0x1e
 7676 12bd 4A050000 		.4byte	0x54a
 7677 12c1 310D0000 		.4byte	.LLST142
 7678 12c5 2B0D0000 		.4byte	.LVUS142
 7679 12c9 1E       		.uleb128 0x1e
 7680 12ca 57050000 		.4byte	0x557
 7681 12ce 630D0000 		.4byte	.LLST143
 7682 12d2 5F0D0000 		.4byte	.LVUS143
 7683 12d6 00       		.byte	0
 7684 12d7 00       		.byte	0
 7685 12d8 21       		.uleb128 0x21
 7686 12d9 800F0000 		.4byte	0xf80
 7687 12dd F6000000 		.4byte	.LBI74
 7688 12e1 02       		.byte	.LVU1267
 7689 12e2 F6000000 		.4byte	.LBB74
 7690 12e6 10000000 		.4byte	.LBE74-.LBB74
 7691 12ea 01       		.byte	0x1
 7692 12eb E707     		.2byte	0x7e7
 7693 12ed 05       		.byte	0x5
 7694 12ee 0D130000 		.4byte	0x130d
 7695 12f2 1C       		.uleb128 0x1c
ARM GAS  C:\Users\USER\AppData\Local\Temp\ccNdlOSb.s 			page 136


 7696 12f3 9B0F0000 		.4byte	0xf9b
 7697 12f7 880D0000 		.4byte	.LLST144
 7698 12fb 860D0000 		.4byte	.LVUS144
 7699 12ff 1C       		.uleb128 0x1c
 7700 1300 8E0F0000 		.4byte	0xf8e
 7701 1304 A10D0000 		.4byte	.LLST145
 7702 1308 9F0D0000 		.4byte	.LVUS145
 7703 130c 00       		.byte	0
 7704 130d 21       		.uleb128 0x21
 7705 130e 65050000 		.4byte	0x565
 7706 1312 06010000 		.4byte	.LBI76
 7707 1316 02       		.byte	.LVU1276
 7708 1317 06010000 		.4byte	.LBB76
 7709 131b 28000000 		.4byte	.LBE76-.LBB76
 7710 131f 01       		.byte	0x1
 7711 1320 E907     		.2byte	0x7e9
 7712 1322 05       		.byte	0x5
 7713 1323 80130000 		.4byte	0x1380
 7714 1327 1C       		.uleb128 0x1c
 7715 1328 9A050000 		.4byte	0x59a
 7716 132c B60D0000 		.4byte	.LLST146
 7717 1330 B40D0000 		.4byte	.LVUS146
 7718 1334 1C       		.uleb128 0x1c
 7719 1335 8D050000 		.4byte	0x58d
 7720 1339 CF0D0000 		.4byte	.LLST147
 7721 133d CD0D0000 		.4byte	.LVUS147
 7722 1341 1C       		.uleb128 0x1c
 7723 1342 80050000 		.4byte	0x580
 7724 1346 E40D0000 		.4byte	.LLST148
 7725 134a E20D0000 		.4byte	.LVUS148
 7726 134e 1C       		.uleb128 0x1c
 7727 134f 73050000 		.4byte	0x573
 7728 1353 F90D0000 		.4byte	.LLST149
 7729 1357 F70D0000 		.4byte	.LVUS149
 7730 135b 22       		.uleb128 0x22
 7731 135c 06010000 		.4byte	.LBB77
 7732 1360 28000000 		.4byte	.LBE77-.LBB77
 7733 1364 1E       		.uleb128 0x1e
 7734 1365 A7050000 		.4byte	0x5a7
 7735 1369 140E0000 		.4byte	.LLST150
 7736 136d 0C0E0000 		.4byte	.LVUS150
 7737 1371 1E       		.uleb128 0x1e
 7738 1372 B4050000 		.4byte	0x5b4
 7739 1376 5A0E0000 		.4byte	.LLST151
 7740 137a 540E0000 		.4byte	.LVUS151
 7741 137e 00       		.byte	0
 7742 137f 00       		.byte	0
 7743 1380 23       		.uleb128 0x23
 7744 1381 A90F0000 		.4byte	0xfa9
 7745 1385 2E010000 		.4byte	.LBI78
 7746 1389 02       		.byte	.LVU1302
 7747 138a 2E010000 		.4byte	.LBB78
 7748 138e 10000000 		.4byte	.LBE78-.LBB78
 7749 1392 01       		.byte	0x1
 7750 1393 EB07     		.2byte	0x7eb
 7751 1395 05       		.byte	0x5
 7752 1396 1C       		.uleb128 0x1c
ARM GAS  C:\Users\USER\AppData\Local\Temp\ccNdlOSb.s 			page 137


 7753 1397 C40F0000 		.4byte	0xfc4
 7754 139b 8A0E0000 		.4byte	.LLST152
 7755 139f 880E0000 		.4byte	.LVUS152
 7756 13a3 1C       		.uleb128 0x1c
 7757 13a4 B70F0000 		.4byte	0xfb7
 7758 13a8 A30E0000 		.4byte	.LLST153
 7759 13ac A10E0000 		.4byte	.LVUS153
 7760 13b0 00       		.byte	0
 7761 13b1 00       		.byte	0
 7762 13b2 15       		.uleb128 0x15
 7763 13b3 04       		.byte	0x4
 7764 13b4 A4030000 		.4byte	0x3a4
 7765 13b8 16       		.uleb128 0x16
 7766 13b9 94030000 		.4byte	.LASF139
 7767 13bd 01       		.byte	0x1
 7768 13be A807     		.2byte	0x7a8
 7769 13c0 06       		.byte	0x6
 7770 13c1 00000000 		.4byte	.LFB163
 7771 13c5 10000000 		.4byte	.LFE163-.LFB163
 7772 13c9 01       		.uleb128 0x1
 7773 13ca 9C       		.byte	0x9c
 7774 13cb DF130000 		.4byte	0x13df
 7775 13cf 17       		.uleb128 0x17
 7776 13d0 DB070000 		.4byte	.LASF136
 7777 13d4 01       		.byte	0x1
 7778 13d5 A807     		.2byte	0x7a8
 7779 13d7 2A       		.byte	0x2a
 7780 13d8 B2130000 		.4byte	0x13b2
 7781 13dc 01       		.uleb128 0x1
 7782 13dd 50       		.byte	0x50
 7783 13de 00       		.byte	0
 7784 13df 16       		.uleb128 0x16
 7785 13e0 EF0B0000 		.4byte	.LASF140
 7786 13e4 01       		.byte	0x1
 7787 13e5 7007     		.2byte	0x770
 7788 13e7 06       		.byte	0x6
 7789 13e8 00000000 		.4byte	.LFB162
 7790 13ec 2A010000 		.4byte	.LFE162-.LFB162
 7791 13f0 01       		.uleb128 0x1
 7792 13f1 9C       		.byte	0x9c
 7793 13f2 D6160000 		.4byte	0x16d6
 7794 13f6 17       		.uleb128 0x17
 7795 13f7 F1060000 		.4byte	.LASF66
 7796 13fb 01       		.byte	0x1
 7797 13fc 7007     		.2byte	0x770
 7798 13fe 1E       		.byte	0x1e
 7799 13ff 8B040000 		.4byte	0x48b
 7800 1403 01       		.uleb128 0x1
 7801 1404 50       		.byte	0x50
 7802 1405 18       		.uleb128 0x18
 7803 1406 DB070000 		.4byte	.LASF136
 7804 140a 01       		.byte	0x1
 7805 140b 7007     		.2byte	0x770
 7806 140d 37       		.byte	0x37
 7807 140e B2130000 		.4byte	0x13b2
 7808 1412 BA0E0000 		.4byte	.LLST81
 7809 1416 B60E0000 		.4byte	.LVUS81
ARM GAS  C:\Users\USER\AppData\Local\Temp\ccNdlOSb.s 			page 138


 7810 141a 1F       		.uleb128 0x1f
 7811 141b 65050000 		.4byte	0x565
 7812 141f 10000000 		.4byte	.LBI46
 7813 1423 01       		.byte	.LVU978
 7814 1424 00000000 		.4byte	.Ldebug_ranges0+0
 7815 1428 01       		.byte	0x1
 7816 1429 7C07     		.2byte	0x77c
 7817 142b 05       		.byte	0x5
 7818 142c 85140000 		.4byte	0x1485
 7819 1430 1C       		.uleb128 0x1c
 7820 1431 9A050000 		.4byte	0x59a
 7821 1435 DD0E0000 		.4byte	.LLST82
 7822 1439 DB0E0000 		.4byte	.LVUS82
 7823 143d 1C       		.uleb128 0x1c
 7824 143e 8D050000 		.4byte	0x58d
 7825 1442 F60E0000 		.4byte	.LLST83
 7826 1446 F40E0000 		.4byte	.LVUS83
 7827 144a 1C       		.uleb128 0x1c
 7828 144b 80050000 		.4byte	0x580
 7829 144f 0F0F0000 		.4byte	.LLST84
 7830 1453 0D0F0000 		.4byte	.LVUS84
 7831 1457 1C       		.uleb128 0x1c
 7832 1458 73050000 		.4byte	0x573
 7833 145c 280F0000 		.4byte	.LLST85
 7834 1460 260F0000 		.4byte	.LVUS85
 7835 1464 1D       		.uleb128 0x1d
 7836 1465 00000000 		.4byte	.Ldebug_ranges0+0
 7837 1469 1E       		.uleb128 0x1e
 7838 146a A7050000 		.4byte	0x5a7
 7839 146e 410F0000 		.4byte	.LLST86
 7840 1472 3B0F0000 		.4byte	.LVUS86
 7841 1476 1E       		.uleb128 0x1e
 7842 1477 B4050000 		.4byte	0x5b4
 7843 147b 760F0000 		.4byte	.LLST87
 7844 147f 700F0000 		.4byte	.LVUS87
 7845 1483 00       		.byte	0
 7846 1484 00       		.byte	0
 7847 1485 21       		.uleb128 0x21
 7848 1486 A90F0000 		.4byte	0xfa9
 7849 148a 3A000000 		.4byte	.LBI50
 7850 148e 02       		.byte	.LVU1003
 7851 148f 3A000000 		.4byte	.LBB50
 7852 1493 10000000 		.4byte	.LBE50-.LBB50
 7853 1497 01       		.byte	0x1
 7854 1498 8007     		.2byte	0x780
 7855 149a 05       		.byte	0x5
 7856 149b BA140000 		.4byte	0x14ba
 7857 149f 1C       		.uleb128 0x1c
 7858 14a0 C40F0000 		.4byte	0xfc4
 7859 14a4 A60F0000 		.4byte	.LLST88
 7860 14a8 A40F0000 		.4byte	.LVUS88
 7861 14ac 1C       		.uleb128 0x1c
 7862 14ad B70F0000 		.4byte	0xfb7
 7863 14b1 BF0F0000 		.4byte	.LLST89
 7864 14b5 BD0F0000 		.4byte	.LVUS89
 7865 14b9 00       		.byte	0
 7866 14ba 21       		.uleb128 0x21
ARM GAS  C:\Users\USER\AppData\Local\Temp\ccNdlOSb.s 			page 139


 7867 14bb 21040000 		.4byte	0x421
 7868 14bf 56000000 		.4byte	.LBI52
 7869 14c3 02       		.byte	.LVU1017
 7870 14c4 56000000 		.4byte	.LBB52
 7871 14c8 30000000 		.4byte	.LBE52-.LBB52
 7872 14cc 01       		.byte	0x1
 7873 14cd 9A07     		.2byte	0x79a
 7874 14cf 05       		.byte	0x5
 7875 14d0 3A150000 		.4byte	0x153a
 7876 14d4 1C       		.uleb128 0x1c
 7877 14d5 56040000 		.4byte	0x456
 7878 14d9 D40F0000 		.4byte	.LLST90
 7879 14dd D20F0000 		.4byte	.LVUS90
 7880 14e1 1C       		.uleb128 0x1c
 7881 14e2 49040000 		.4byte	0x449
 7882 14e6 ED0F0000 		.4byte	.LLST91
 7883 14ea EB0F0000 		.4byte	.LVUS91
 7884 14ee 1C       		.uleb128 0x1c
 7885 14ef 3C040000 		.4byte	0x43c
 7886 14f3 06100000 		.4byte	.LLST92
 7887 14f7 04100000 		.4byte	.LVUS92
 7888 14fb 1C       		.uleb128 0x1c
 7889 14fc 2F040000 		.4byte	0x42f
 7890 1500 1F100000 		.4byte	.LLST93
 7891 1504 1D100000 		.4byte	.LVUS93
 7892 1508 22       		.uleb128 0x22
 7893 1509 56000000 		.4byte	.LBB53
 7894 150d 30000000 		.4byte	.LBE53-.LBB53
 7895 1511 1E       		.uleb128 0x1e
 7896 1512 63040000 		.4byte	0x463
 7897 1516 38100000 		.4byte	.LLST94
 7898 151a 32100000 		.4byte	.LVUS94
 7899 151e 1E       		.uleb128 0x1e
 7900 151f 70040000 		.4byte	0x470
 7901 1523 6F100000 		.4byte	.LLST95
 7902 1527 69100000 		.4byte	.LVUS95
 7903 152b 1E       		.uleb128 0x1e
 7904 152c 7D040000 		.4byte	0x47d
 7905 1530 A3100000 		.4byte	.LLST96
 7906 1534 9F100000 		.4byte	.LVUS96
 7907 1538 00       		.byte	0
 7908 1539 00       		.byte	0
 7909 153a 21       		.uleb128 0x21
 7910 153b 2E0F0000 		.4byte	0xf2e
 7911 153f 86000000 		.4byte	.LBI54
 7912 1543 02       		.byte	.LVU1045
 7913 1544 86000000 		.4byte	.LBB54
 7914 1548 14000000 		.4byte	.LBE54-.LBB54
 7915 154c 01       		.byte	0x1
 7916 154d 9E07     		.2byte	0x79e
 7917 154f 05       		.byte	0x5
 7918 1550 6F150000 		.4byte	0x156f
 7919 1554 1C       		.uleb128 0x1c
 7920 1555 490F0000 		.4byte	0xf49
 7921 1559 C8100000 		.4byte	.LLST97
 7922 155d C6100000 		.4byte	.LVUS97
 7923 1561 1C       		.uleb128 0x1c
ARM GAS  C:\Users\USER\AppData\Local\Temp\ccNdlOSb.s 			page 140


 7924 1562 3C0F0000 		.4byte	0xf3c
 7925 1566 E1100000 		.4byte	.LLST98
 7926 156a DF100000 		.4byte	.LVUS98
 7927 156e 00       		.byte	0
 7928 156f 21       		.uleb128 0x21
 7929 1570 FB040000 		.4byte	0x4fb
 7930 1574 9E000000 		.4byte	.LBI56
 7931 1578 02       		.byte	.LVU1057
 7932 1579 9E000000 		.4byte	.LBB56
 7933 157d 32000000 		.4byte	.LBE56-.LBB56
 7934 1581 01       		.byte	0x1
 7935 1582 8607     		.2byte	0x786
 7936 1584 05       		.byte	0x5
 7937 1585 EF150000 		.4byte	0x15ef
 7938 1589 1C       		.uleb128 0x1c
 7939 158a 30050000 		.4byte	0x530
 7940 158e F6100000 		.4byte	.LLST99
 7941 1592 F4100000 		.4byte	.LVUS99
 7942 1596 1C       		.uleb128 0x1c
 7943 1597 23050000 		.4byte	0x523
 7944 159b 0F110000 		.4byte	.LLST100
 7945 159f 0D110000 		.4byte	.LVUS100
 7946 15a3 1C       		.uleb128 0x1c
 7947 15a4 16050000 		.4byte	0x516
 7948 15a8 28110000 		.4byte	.LLST101
 7949 15ac 26110000 		.4byte	.LVUS101
 7950 15b0 1C       		.uleb128 0x1c
 7951 15b1 09050000 		.4byte	0x509
 7952 15b5 41110000 		.4byte	.LLST102
 7953 15b9 3F110000 		.4byte	.LVUS102
 7954 15bd 22       		.uleb128 0x22
 7955 15be 9E000000 		.4byte	.LBB57
 7956 15c2 32000000 		.4byte	.LBE57-.LBB57
 7957 15c6 1E       		.uleb128 0x1e
 7958 15c7 3D050000 		.4byte	0x53d
 7959 15cb 5E110000 		.4byte	.LLST103
 7960 15cf 54110000 		.4byte	.LVUS103
 7961 15d3 1E       		.uleb128 0x1e
 7962 15d4 4A050000 		.4byte	0x54a
 7963 15d8 AB110000 		.4byte	.LLST104
 7964 15dc A5110000 		.4byte	.LVUS104
 7965 15e0 1E       		.uleb128 0x1e
 7966 15e1 57050000 		.4byte	0x557
 7967 15e5 DD110000 		.4byte	.LLST105
 7968 15e9 D9110000 		.4byte	.LVUS105
 7969 15ed 00       		.byte	0
 7970 15ee 00       		.byte	0
 7971 15ef 21       		.uleb128 0x21
 7972 15f0 800F0000 		.4byte	0xf80
 7973 15f4 D0000000 		.4byte	.LBI58
 7974 15f8 02       		.byte	.LVU1087
 7975 15f9 D0000000 		.4byte	.LBB58
 7976 15fd 14000000 		.4byte	.LBE58-.LBB58
 7977 1601 01       		.byte	0x1
 7978 1602 8A07     		.2byte	0x78a
 7979 1604 05       		.byte	0x5
 7980 1605 24160000 		.4byte	0x1624
ARM GAS  C:\Users\USER\AppData\Local\Temp\ccNdlOSb.s 			page 141


 7981 1609 1C       		.uleb128 0x1c
 7982 160a 9B0F0000 		.4byte	0xf9b
 7983 160e 02120000 		.4byte	.LLST106
 7984 1612 00120000 		.4byte	.LVUS106
 7985 1616 1C       		.uleb128 0x1c
 7986 1617 8E0F0000 		.4byte	0xf8e
 7987 161b 1B120000 		.4byte	.LLST107
 7988 161f 19120000 		.4byte	.LVUS107
 7989 1623 00       		.byte	0
 7990 1624 21       		.uleb128 0x21
 7991 1625 91040000 		.4byte	0x491
 7992 1629 E8000000 		.4byte	.LBI60
 7993 162d 02       		.byte	.LVU1099
 7994 162e E8000000 		.4byte	.LBB60
 7995 1632 2E000000 		.4byte	.LBE60-.LBB60
 7996 1636 01       		.byte	0x1
 7997 1637 9007     		.2byte	0x790
 7998 1639 05       		.byte	0x5
 7999 163a A4160000 		.4byte	0x16a4
 8000 163e 1C       		.uleb128 0x1c
 8001 163f C6040000 		.4byte	0x4c6
 8002 1643 30120000 		.4byte	.LLST108
 8003 1647 2E120000 		.4byte	.LVUS108
 8004 164b 1C       		.uleb128 0x1c
 8005 164c B9040000 		.4byte	0x4b9
 8006 1650 49120000 		.4byte	.LLST109
 8007 1654 47120000 		.4byte	.LVUS109
 8008 1658 1C       		.uleb128 0x1c
 8009 1659 AC040000 		.4byte	0x4ac
 8010 165d 62120000 		.4byte	.LLST110
 8011 1661 60120000 		.4byte	.LVUS110
 8012 1665 1C       		.uleb128 0x1c
 8013 1666 9F040000 		.4byte	0x49f
 8014 166a 7B120000 		.4byte	.LLST111
 8015 166e 79120000 		.4byte	.LVUS111
 8016 1672 22       		.uleb128 0x22
 8017 1673 E8000000 		.4byte	.LBB61
 8018 1677 2E000000 		.4byte	.LBE61-.LBB61
 8019 167b 1E       		.uleb128 0x1e
 8020 167c D3040000 		.4byte	0x4d3
 8021 1680 96120000 		.4byte	.LLST112
 8022 1684 8E120000 		.4byte	.LVUS112
 8023 1688 1E       		.uleb128 0x1e
 8024 1689 E0040000 		.4byte	0x4e0
 8025 168d DC120000 		.4byte	.LLST113
 8026 1691 D6120000 		.4byte	.LVUS113
 8027 1695 1E       		.uleb128 0x1e
 8028 1696 ED040000 		.4byte	0x4ed
 8029 169a 10130000 		.4byte	.LLST114
 8030 169e 0C130000 		.4byte	.LVUS114
 8031 16a2 00       		.byte	0
 8032 16a3 00       		.byte	0
 8033 16a4 23       		.uleb128 0x23
 8034 16a5 570F0000 		.4byte	0xf57
 8035 16a9 16010000 		.4byte	.LBI62
 8036 16ad 02       		.byte	.LVU1127
 8037 16ae 16010000 		.4byte	.LBB62
ARM GAS  C:\Users\USER\AppData\Local\Temp\ccNdlOSb.s 			page 142


 8038 16b2 10000000 		.4byte	.LBE62-.LBB62
 8039 16b6 01       		.byte	0x1
 8040 16b7 9407     		.2byte	0x794
 8041 16b9 05       		.byte	0x5
 8042 16ba 1C       		.uleb128 0x1c
 8043 16bb 720F0000 		.4byte	0xf72
 8044 16bf 35130000 		.4byte	.LLST115
 8045 16c3 33130000 		.4byte	.LVUS115
 8046 16c7 1C       		.uleb128 0x1c
 8047 16c8 650F0000 		.4byte	0xf65
 8048 16cc 4E130000 		.4byte	.LLST116
 8049 16d0 4C130000 		.4byte	.LVUS116
 8050 16d4 00       		.byte	0
 8051 16d5 00       		.byte	0
 8052 16d6 16       		.uleb128 0x16
 8053 16d7 6C080000 		.4byte	.LASF141
 8054 16db 01       		.byte	0x1
 8055 16dc 1C07     		.2byte	0x71c
 8056 16de 06       		.byte	0x6
 8057 16df 00000000 		.4byte	.LFB161
 8058 16e3 22000000 		.4byte	.LFE161-.LFB161
 8059 16e7 01       		.uleb128 0x1
 8060 16e8 9C       		.byte	0x9c
 8061 16e9 3C170000 		.4byte	0x173c
 8062 16ed 17       		.uleb128 0x17
 8063 16ee F1060000 		.4byte	.LASF66
 8064 16f2 01       		.byte	0x1
 8065 16f3 1C07     		.2byte	0x71c
 8066 16f5 1F       		.byte	0x1f
 8067 16f6 8B040000 		.4byte	0x48b
 8068 16fa 01       		.uleb128 0x1
 8069 16fb 50       		.byte	0x50
 8070 16fc 18       		.uleb128 0x18
 8071 16fd 6C020000 		.4byte	.LASF52
 8072 1701 01       		.byte	0x1
 8073 1702 1C07     		.2byte	0x71c
 8074 1704 2E       		.byte	0x2e
 8075 1705 A7000000 		.4byte	0xa7
 8076 1709 65130000 		.4byte	.LLST78
 8077 170d 61130000 		.4byte	.LVUS78
 8078 1711 18       		.uleb128 0x18
 8079 1712 F9030000 		.4byte	.LASF142
 8080 1716 01       		.byte	0x1
 8081 1717 1C07     		.2byte	0x71c
 8082 1719 44       		.byte	0x44
 8083 171a A7000000 		.4byte	0xa7
 8084 171e 8A130000 		.4byte	.LLST79
 8085 1722 86130000 		.4byte	.LVUS79
 8086 1726 26       		.uleb128 0x26
 8087 1727 746D7000 		.ascii	"tmp\000"
 8088 172b 01       		.byte	0x1
 8089 172c 1E07     		.2byte	0x71e
 8090 172e 0C       		.byte	0xc
 8091 172f A7000000 		.4byte	0xa7
 8092 1733 B1130000 		.4byte	.LLST80
 8093 1737 AB130000 		.4byte	.LVUS80
 8094 173b 00       		.byte	0
ARM GAS  C:\Users\USER\AppData\Local\Temp\ccNdlOSb.s 			page 143


 8095 173c 16       		.uleb128 0x16
 8096 173d F0020000 		.4byte	.LASF143
 8097 1741 01       		.byte	0x1
 8098 1742 FE06     		.2byte	0x6fe
 8099 1744 06       		.byte	0x6
 8100 1745 00000000 		.4byte	.LFB160
 8101 1749 22000000 		.4byte	.LFE160-.LFB160
 8102 174d 01       		.uleb128 0x1
 8103 174e 9C       		.byte	0x9c
 8104 174f A2170000 		.4byte	0x17a2
 8105 1753 17       		.uleb128 0x17
 8106 1754 F1060000 		.4byte	.LASF66
 8107 1758 01       		.byte	0x1
 8108 1759 FE06     		.2byte	0x6fe
 8109 175b 1E       		.byte	0x1e
 8110 175c 8B040000 		.4byte	0x48b
 8111 1760 01       		.uleb128 0x1
 8112 1761 50       		.byte	0x50
 8113 1762 18       		.uleb128 0x18
 8114 1763 6C020000 		.4byte	.LASF52
 8115 1767 01       		.byte	0x1
 8116 1768 FE06     		.2byte	0x6fe
 8117 176a 2D       		.byte	0x2d
 8118 176b A7000000 		.4byte	0xa7
 8119 176f E8130000 		.4byte	.LLST75
 8120 1773 E4130000 		.4byte	.LVUS75
 8121 1777 18       		.uleb128 0x18
 8122 1778 28090000 		.4byte	.LASF144
 8123 177c 01       		.byte	0x1
 8124 177d FE06     		.2byte	0x6fe
 8125 177f 43       		.byte	0x43
 8126 1780 A7000000 		.4byte	0xa7
 8127 1784 0D140000 		.4byte	.LLST76
 8128 1788 09140000 		.4byte	.LVUS76
 8129 178c 26       		.uleb128 0x26
 8130 178d 746D7000 		.ascii	"tmp\000"
 8131 1791 01       		.byte	0x1
 8132 1792 0007     		.2byte	0x700
 8133 1794 0C       		.byte	0xc
 8134 1795 A7000000 		.4byte	0xa7
 8135 1799 34140000 		.4byte	.LLST77
 8136 179d 2E140000 		.4byte	.LVUS77
 8137 17a1 00       		.byte	0
 8138 17a2 16       		.uleb128 0x16
 8139 17a3 06070000 		.4byte	.LASF145
 8140 17a7 01       		.byte	0x1
 8141 17a8 DF06     		.2byte	0x6df
 8142 17aa 06       		.byte	0x6
 8143 17ab 00000000 		.4byte	.LFB159
 8144 17af 12000000 		.4byte	.LFE159-.LFB159
 8145 17b3 01       		.uleb128 0x1
 8146 17b4 9C       		.byte	0x9c
 8147 17b5 F3170000 		.4byte	0x17f3
 8148 17b9 17       		.uleb128 0x17
 8149 17ba F1060000 		.4byte	.LASF66
 8150 17be 01       		.byte	0x1
 8151 17bf DF06     		.2byte	0x6df
ARM GAS  C:\Users\USER\AppData\Local\Temp\ccNdlOSb.s 			page 144


 8152 17c1 29       		.byte	0x29
 8153 17c2 8B040000 		.4byte	0x48b
 8154 17c6 01       		.uleb128 0x1
 8155 17c7 50       		.byte	0x50
 8156 17c8 18       		.uleb128 0x18
 8157 17c9 FD050000 		.4byte	.LASF47
 8158 17cd 01       		.byte	0x1
 8159 17ce DF06     		.2byte	0x6df
 8160 17d0 38       		.byte	0x38
 8161 17d1 A7000000 		.4byte	0xa7
 8162 17d5 6B140000 		.4byte	.LLST73
 8163 17d9 67140000 		.4byte	.LVUS73
 8164 17dd 19       		.uleb128 0x19
 8165 17de C6050000 		.4byte	.LASF68
 8166 17e2 01       		.byte	0x1
 8167 17e3 E106     		.2byte	0x6e1
 8168 17e5 0C       		.byte	0xc
 8169 17e6 A7000000 		.4byte	0xa7
 8170 17ea 96140000 		.4byte	.LLST74
 8171 17ee 8C140000 		.4byte	.LVUS74
 8172 17f2 00       		.byte	0
 8173 17f3 16       		.uleb128 0x16
 8174 17f4 830A0000 		.4byte	.LASF146
 8175 17f8 01       		.byte	0x1
 8176 17f9 C406     		.2byte	0x6c4
 8177 17fb 06       		.byte	0x6
 8178 17fc 00000000 		.4byte	.LFB158
 8179 1800 12000000 		.4byte	.LFE158-.LFB158
 8180 1804 01       		.uleb128 0x1
 8181 1805 9C       		.byte	0x9c
 8182 1806 44180000 		.4byte	0x1844
 8183 180a 17       		.uleb128 0x17
 8184 180b F1060000 		.4byte	.LASF66
 8185 180f 01       		.byte	0x1
 8186 1810 C406     		.2byte	0x6c4
 8187 1812 2A       		.byte	0x2a
 8188 1813 8B040000 		.4byte	0x48b
 8189 1817 01       		.uleb128 0x1
 8190 1818 50       		.byte	0x50
 8191 1819 18       		.uleb128 0x18
 8192 181a 390B0000 		.4byte	.LASF48
 8193 181e 01       		.byte	0x1
 8194 181f C406     		.2byte	0x6c4
 8195 1821 39       		.byte	0x39
 8196 1822 A7000000 		.4byte	0xa7
 8197 1826 E9140000 		.4byte	.LLST71
 8198 182a E5140000 		.4byte	.LVUS71
 8199 182e 19       		.uleb128 0x19
 8200 182f C6050000 		.4byte	.LASF68
 8201 1833 01       		.byte	0x1
 8202 1834 C606     		.2byte	0x6c6
 8203 1836 0C       		.byte	0xc
 8204 1837 A7000000 		.4byte	0xa7
 8205 183b 14150000 		.4byte	.LLST72
 8206 183f 0A150000 		.4byte	.LVUS72
 8207 1843 00       		.byte	0
 8208 1844 16       		.uleb128 0x16
ARM GAS  C:\Users\USER\AppData\Local\Temp\ccNdlOSb.s 			page 145


 8209 1845 260D0000 		.4byte	.LASF147
 8210 1849 01       		.byte	0x1
 8211 184a A906     		.2byte	0x6a9
 8212 184c 06       		.byte	0x6
 8213 184d 00000000 		.4byte	.LFB157
 8214 1851 12000000 		.4byte	.LFE157-.LFB157
 8215 1855 01       		.uleb128 0x1
 8216 1856 9C       		.byte	0x9c
 8217 1857 95180000 		.4byte	0x1895
 8218 185b 17       		.uleb128 0x17
 8219 185c F1060000 		.4byte	.LASF66
 8220 1860 01       		.byte	0x1
 8221 1861 A906     		.2byte	0x6a9
 8222 1863 29       		.byte	0x29
 8223 1864 8B040000 		.4byte	0x48b
 8224 1868 01       		.uleb128 0x1
 8225 1869 50       		.byte	0x50
 8226 186a 18       		.uleb128 0x18
 8227 186b FD050000 		.4byte	.LASF47
 8228 186f 01       		.byte	0x1
 8229 1870 A906     		.2byte	0x6a9
 8230 1872 38       		.byte	0x38
 8231 1873 A7000000 		.4byte	0xa7
 8232 1877 67150000 		.4byte	.LLST69
 8233 187b 63150000 		.4byte	.LVUS69
 8234 187f 19       		.uleb128 0x19
 8235 1880 C6050000 		.4byte	.LASF68
 8236 1884 01       		.byte	0x1
 8237 1885 AB06     		.2byte	0x6ab
 8238 1887 0C       		.byte	0xc
 8239 1888 A7000000 		.4byte	0xa7
 8240 188c 92150000 		.4byte	.LLST70
 8241 1890 88150000 		.4byte	.LVUS70
 8242 1894 00       		.byte	0
 8243 1895 16       		.uleb128 0x16
 8244 1896 CE050000 		.4byte	.LASF148
 8245 189a 01       		.byte	0x1
 8246 189b 8E06     		.2byte	0x68e
 8247 189d 06       		.byte	0x6
 8248 189e 00000000 		.4byte	.LFB156
 8249 18a2 12000000 		.4byte	.LFE156-.LFB156
 8250 18a6 01       		.uleb128 0x1
 8251 18a7 9C       		.byte	0x9c
 8252 18a8 E6180000 		.4byte	0x18e6
 8253 18ac 17       		.uleb128 0x17
 8254 18ad F1060000 		.4byte	.LASF66
 8255 18b1 01       		.byte	0x1
 8256 18b2 8E06     		.2byte	0x68e
 8257 18b4 2A       		.byte	0x2a
 8258 18b5 8B040000 		.4byte	0x48b
 8259 18b9 01       		.uleb128 0x1
 8260 18ba 50       		.byte	0x50
 8261 18bb 18       		.uleb128 0x18
 8262 18bc 390B0000 		.4byte	.LASF48
 8263 18c0 01       		.byte	0x1
 8264 18c1 8E06     		.2byte	0x68e
 8265 18c3 39       		.byte	0x39
ARM GAS  C:\Users\USER\AppData\Local\Temp\ccNdlOSb.s 			page 146


 8266 18c4 A7000000 		.4byte	0xa7
 8267 18c8 E5150000 		.4byte	.LLST67
 8268 18cc E1150000 		.4byte	.LVUS67
 8269 18d0 19       		.uleb128 0x19
 8270 18d1 C6050000 		.4byte	.LASF68
 8271 18d5 01       		.byte	0x1
 8272 18d6 9006     		.2byte	0x690
 8273 18d8 0C       		.byte	0xc
 8274 18d9 A7000000 		.4byte	0xa7
 8275 18dd 10160000 		.4byte	.LLST68
 8276 18e1 06160000 		.4byte	.LVUS68
 8277 18e5 00       		.byte	0
 8278 18e6 16       		.uleb128 0x16
 8279 18e7 C2010000 		.4byte	.LASF149
 8280 18eb 01       		.byte	0x1
 8281 18ec 7306     		.2byte	0x673
 8282 18ee 06       		.byte	0x6
 8283 18ef 00000000 		.4byte	.LFB155
 8284 18f3 12000000 		.4byte	.LFE155-.LFB155
 8285 18f7 01       		.uleb128 0x1
 8286 18f8 9C       		.byte	0x9c
 8287 18f9 37190000 		.4byte	0x1937
 8288 18fd 17       		.uleb128 0x17
 8289 18fe F1060000 		.4byte	.LASF66
 8290 1902 01       		.byte	0x1
 8291 1903 7306     		.2byte	0x673
 8292 1905 29       		.byte	0x29
 8293 1906 8B040000 		.4byte	0x48b
 8294 190a 01       		.uleb128 0x1
 8295 190b 50       		.byte	0x50
 8296 190c 18       		.uleb128 0x18
 8297 190d FD050000 		.4byte	.LASF47
 8298 1911 01       		.byte	0x1
 8299 1912 7306     		.2byte	0x673
 8300 1914 38       		.byte	0x38
 8301 1915 A7000000 		.4byte	0xa7
 8302 1919 63160000 		.4byte	.LLST65
 8303 191d 5F160000 		.4byte	.LVUS65
 8304 1921 19       		.uleb128 0x19
 8305 1922 C6050000 		.4byte	.LASF68
 8306 1926 01       		.byte	0x1
 8307 1927 7506     		.2byte	0x675
 8308 1929 0C       		.byte	0xc
 8309 192a A7000000 		.4byte	0xa7
 8310 192e 8E160000 		.4byte	.LLST66
 8311 1932 84160000 		.4byte	.LVUS66
 8312 1936 00       		.byte	0
 8313 1937 16       		.uleb128 0x16
 8314 1938 9B0C0000 		.4byte	.LASF150
 8315 193c 01       		.byte	0x1
 8316 193d 5806     		.2byte	0x658
 8317 193f 06       		.byte	0x6
 8318 1940 00000000 		.4byte	.LFB154
 8319 1944 0E000000 		.4byte	.LFE154-.LFB154
 8320 1948 01       		.uleb128 0x1
 8321 1949 9C       		.byte	0x9c
 8322 194a 88190000 		.4byte	0x1988
ARM GAS  C:\Users\USER\AppData\Local\Temp\ccNdlOSb.s 			page 147


 8323 194e 17       		.uleb128 0x17
 8324 194f F1060000 		.4byte	.LASF66
 8325 1953 01       		.byte	0x1
 8326 1954 5806     		.2byte	0x658
 8327 1956 2A       		.byte	0x2a
 8328 1957 8B040000 		.4byte	0x48b
 8329 195b 01       		.uleb128 0x1
 8330 195c 50       		.byte	0x50
 8331 195d 18       		.uleb128 0x18
 8332 195e 390B0000 		.4byte	.LASF48
 8333 1962 01       		.byte	0x1
 8334 1963 5806     		.2byte	0x658
 8335 1965 39       		.byte	0x39
 8336 1966 A7000000 		.4byte	0xa7
 8337 196a E1160000 		.4byte	.LLST63
 8338 196e DD160000 		.4byte	.LVUS63
 8339 1972 19       		.uleb128 0x19
 8340 1973 C6050000 		.4byte	.LASF68
 8341 1977 01       		.byte	0x1
 8342 1978 5A06     		.2byte	0x65a
 8343 197a 0C       		.byte	0xc
 8344 197b A7000000 		.4byte	0xa7
 8345 197f 0C170000 		.4byte	.LLST64
 8346 1983 02170000 		.4byte	.LVUS64
 8347 1987 00       		.byte	0
 8348 1988 16       		.uleb128 0x16
 8349 1989 1E080000 		.4byte	.LASF151
 8350 198d 01       		.byte	0x1
 8351 198e 3D06     		.2byte	0x63d
 8352 1990 06       		.byte	0x6
 8353 1991 00000000 		.4byte	.LFB153
 8354 1995 0E000000 		.4byte	.LFE153-.LFB153
 8355 1999 01       		.uleb128 0x1
 8356 199a 9C       		.byte	0x9c
 8357 199b D9190000 		.4byte	0x19d9
 8358 199f 17       		.uleb128 0x17
 8359 19a0 F1060000 		.4byte	.LASF66
 8360 19a4 01       		.byte	0x1
 8361 19a5 3D06     		.2byte	0x63d
 8362 19a7 29       		.byte	0x29
 8363 19a8 8B040000 		.4byte	0x48b
 8364 19ac 01       		.uleb128 0x1
 8365 19ad 50       		.byte	0x50
 8366 19ae 18       		.uleb128 0x18
 8367 19af FD050000 		.4byte	.LASF47
 8368 19b3 01       		.byte	0x1
 8369 19b4 3D06     		.2byte	0x63d
 8370 19b6 38       		.byte	0x38
 8371 19b7 A7000000 		.4byte	0xa7
 8372 19bb 5B170000 		.4byte	.LLST61
 8373 19bf 57170000 		.4byte	.LVUS61
 8374 19c3 19       		.uleb128 0x19
 8375 19c4 C6050000 		.4byte	.LASF68
 8376 19c8 01       		.byte	0x1
 8377 19c9 3F06     		.2byte	0x63f
 8378 19cb 0C       		.byte	0xc
 8379 19cc A7000000 		.4byte	0xa7
ARM GAS  C:\Users\USER\AppData\Local\Temp\ccNdlOSb.s 			page 148


 8380 19d0 86170000 		.4byte	.LLST62
 8381 19d4 7C170000 		.4byte	.LVUS62
 8382 19d8 00       		.byte	0
 8383 19d9 16       		.uleb128 0x16
 8384 19da 790C0000 		.4byte	.LASF152
 8385 19de 01       		.byte	0x1
 8386 19df 2006     		.2byte	0x620
 8387 19e1 06       		.byte	0x6
 8388 19e2 00000000 		.4byte	.LFB152
 8389 19e6 10000000 		.4byte	.LFE152-.LFB152
 8390 19ea 01       		.uleb128 0x1
 8391 19eb 9C       		.byte	0x9c
 8392 19ec 2A1A0000 		.4byte	0x1a2a
 8393 19f0 17       		.uleb128 0x17
 8394 19f1 F1060000 		.4byte	.LASF66
 8395 19f5 01       		.byte	0x1
 8396 19f6 2006     		.2byte	0x620
 8397 19f8 23       		.byte	0x23
 8398 19f9 8B040000 		.4byte	0x48b
 8399 19fd 01       		.uleb128 0x1
 8400 19fe 50       		.byte	0x50
 8401 19ff 18       		.uleb128 0x18
 8402 1a00 84090000 		.4byte	.LASF153
 8403 1a04 01       		.byte	0x1
 8404 1a05 2006     		.2byte	0x620
 8405 1a07 32       		.byte	0x32
 8406 1a08 A7000000 		.4byte	0xa7
 8407 1a0c D5170000 		.4byte	.LLST59
 8408 1a10 D1170000 		.4byte	.LVUS59
 8409 1a14 19       		.uleb128 0x19
 8410 1a15 57010000 		.4byte	.LASF67
 8411 1a19 01       		.byte	0x1
 8412 1a1a 2206     		.2byte	0x622
 8413 1a1c 0C       		.byte	0xc
 8414 1a1d A7000000 		.4byte	0xa7
 8415 1a21 FE170000 		.4byte	.LLST60
 8416 1a25 F6170000 		.4byte	.LVUS60
 8417 1a29 00       		.byte	0
 8418 1a2a 16       		.uleb128 0x16
 8419 1a2b 500C0000 		.4byte	.LASF154
 8420 1a2f 01       		.byte	0x1
 8421 1a30 0306     		.2byte	0x603
 8422 1a32 06       		.byte	0x6
 8423 1a33 00000000 		.4byte	.LFB151
 8424 1a37 0E000000 		.4byte	.LFE151-.LFB151
 8425 1a3b 01       		.uleb128 0x1
 8426 1a3c 9C       		.byte	0x9c
 8427 1a3d 7B1A0000 		.4byte	0x1a7b
 8428 1a41 17       		.uleb128 0x17
 8429 1a42 F1060000 		.4byte	.LASF66
 8430 1a46 01       		.byte	0x1
 8431 1a47 0306     		.2byte	0x603
 8432 1a49 23       		.byte	0x23
 8433 1a4a 8B040000 		.4byte	0x48b
 8434 1a4e 01       		.uleb128 0x1
 8435 1a4f 50       		.byte	0x50
 8436 1a50 18       		.uleb128 0x18
ARM GAS  C:\Users\USER\AppData\Local\Temp\ccNdlOSb.s 			page 149


 8437 1a51 84090000 		.4byte	.LASF153
 8438 1a55 01       		.byte	0x1
 8439 1a56 0306     		.2byte	0x603
 8440 1a58 32       		.byte	0x32
 8441 1a59 A7000000 		.4byte	0xa7
 8442 1a5d 46180000 		.4byte	.LLST57
 8443 1a61 42180000 		.4byte	.LVUS57
 8444 1a65 19       		.uleb128 0x19
 8445 1a66 57010000 		.4byte	.LASF67
 8446 1a6a 01       		.byte	0x1
 8447 1a6b 0506     		.2byte	0x605
 8448 1a6d 0C       		.byte	0xc
 8449 1a6e A7000000 		.4byte	0xa7
 8450 1a72 71180000 		.4byte	.LLST58
 8451 1a76 67180000 		.4byte	.LVUS58
 8452 1a7a 00       		.byte	0
 8453 1a7b 16       		.uleb128 0x16
 8454 1a7c 960D0000 		.4byte	.LASF155
 8455 1a80 01       		.byte	0x1
 8456 1a81 E605     		.2byte	0x5e6
 8457 1a83 06       		.byte	0x6
 8458 1a84 00000000 		.4byte	.LFB150
 8459 1a88 10000000 		.4byte	.LFE150-.LFB150
 8460 1a8c 01       		.uleb128 0x1
 8461 1a8d 9C       		.byte	0x9c
 8462 1a8e CC1A0000 		.4byte	0x1acc
 8463 1a92 17       		.uleb128 0x17
 8464 1a93 F1060000 		.4byte	.LASF66
 8465 1a97 01       		.byte	0x1
 8466 1a98 E605     		.2byte	0x5e6
 8467 1a9a 23       		.byte	0x23
 8468 1a9b 8B040000 		.4byte	0x48b
 8469 1a9f 01       		.uleb128 0x1
 8470 1aa0 50       		.byte	0x50
 8471 1aa1 18       		.uleb128 0x18
 8472 1aa2 84090000 		.4byte	.LASF153
 8473 1aa6 01       		.byte	0x1
 8474 1aa7 E605     		.2byte	0x5e6
 8475 1aa9 32       		.byte	0x32
 8476 1aaa A7000000 		.4byte	0xa7
 8477 1aae C0180000 		.4byte	.LLST55
 8478 1ab2 BC180000 		.4byte	.LVUS55
 8479 1ab6 19       		.uleb128 0x19
 8480 1ab7 4E010000 		.4byte	.LASF72
 8481 1abb 01       		.byte	0x1
 8482 1abc E805     		.2byte	0x5e8
 8483 1abe 0C       		.byte	0xc
 8484 1abf A7000000 		.4byte	0xa7
 8485 1ac3 E9180000 		.4byte	.LLST56
 8486 1ac7 E1180000 		.4byte	.LVUS56
 8487 1acb 00       		.byte	0
 8488 1acc 16       		.uleb128 0x16
 8489 1acd B5000000 		.4byte	.LASF156
 8490 1ad1 01       		.byte	0x1
 8491 1ad2 C805     		.2byte	0x5c8
 8492 1ad4 06       		.byte	0x6
 8493 1ad5 00000000 		.4byte	.LFB149
ARM GAS  C:\Users\USER\AppData\Local\Temp\ccNdlOSb.s 			page 150


 8494 1ad9 0E000000 		.4byte	.LFE149-.LFB149
 8495 1add 01       		.uleb128 0x1
 8496 1ade 9C       		.byte	0x9c
 8497 1adf 1D1B0000 		.4byte	0x1b1d
 8498 1ae3 17       		.uleb128 0x17
 8499 1ae4 F1060000 		.4byte	.LASF66
 8500 1ae8 01       		.byte	0x1
 8501 1ae9 C805     		.2byte	0x5c8
 8502 1aeb 23       		.byte	0x23
 8503 1aec 8B040000 		.4byte	0x48b
 8504 1af0 01       		.uleb128 0x1
 8505 1af1 50       		.byte	0x50
 8506 1af2 18       		.uleb128 0x18
 8507 1af3 84090000 		.4byte	.LASF153
 8508 1af7 01       		.byte	0x1
 8509 1af8 C805     		.2byte	0x5c8
 8510 1afa 32       		.byte	0x32
 8511 1afb A7000000 		.4byte	0xa7
 8512 1aff 31190000 		.4byte	.LLST53
 8513 1b03 2D190000 		.4byte	.LVUS53
 8514 1b07 19       		.uleb128 0x19
 8515 1b08 4E010000 		.4byte	.LASF72
 8516 1b0c 01       		.byte	0x1
 8517 1b0d CA05     		.2byte	0x5ca
 8518 1b0f 0C       		.byte	0xc
 8519 1b10 A7000000 		.4byte	0xa7
 8520 1b14 5C190000 		.4byte	.LLST54
 8521 1b18 52190000 		.4byte	.LVUS54
 8522 1b1c 00       		.byte	0
 8523 1b1d 16       		.uleb128 0x16
 8524 1b1e 150B0000 		.4byte	.LASF157
 8525 1b22 01       		.byte	0x1
 8526 1b23 AA05     		.2byte	0x5aa
 8527 1b25 06       		.byte	0x6
 8528 1b26 00000000 		.4byte	.LFB148
 8529 1b2a 12000000 		.4byte	.LFE148-.LFB148
 8530 1b2e 01       		.uleb128 0x1
 8531 1b2f 9C       		.byte	0x9c
 8532 1b30 6E1B0000 		.4byte	0x1b6e
 8533 1b34 17       		.uleb128 0x17
 8534 1b35 F1060000 		.4byte	.LASF66
 8535 1b39 01       		.byte	0x1
 8536 1b3a AA05     		.2byte	0x5aa
 8537 1b3c 25       		.byte	0x25
 8538 1b3d 8B040000 		.4byte	0x48b
 8539 1b41 01       		.uleb128 0x1
 8540 1b42 50       		.byte	0x50
 8541 1b43 18       		.uleb128 0x18
 8542 1b44 61020000 		.4byte	.LASF158
 8543 1b48 01       		.byte	0x1
 8544 1b49 AA05     		.2byte	0x5aa
 8545 1b4b 34       		.byte	0x34
 8546 1b4c A7000000 		.4byte	0xa7
 8547 1b50 AB190000 		.4byte	.LLST51
 8548 1b54 A7190000 		.4byte	.LVUS51
 8549 1b58 19       		.uleb128 0x19
 8550 1b59 57010000 		.4byte	.LASF67
ARM GAS  C:\Users\USER\AppData\Local\Temp\ccNdlOSb.s 			page 151


 8551 1b5d 01       		.byte	0x1
 8552 1b5e AC05     		.2byte	0x5ac
 8553 1b60 0C       		.byte	0xc
 8554 1b61 A7000000 		.4byte	0xa7
 8555 1b65 D6190000 		.4byte	.LLST52
 8556 1b69 CC190000 		.4byte	.LVUS52
 8557 1b6d 00       		.byte	0
 8558 1b6e 16       		.uleb128 0x16
 8559 1b6f F90D0000 		.4byte	.LASF159
 8560 1b73 01       		.byte	0x1
 8561 1b74 8C05     		.2byte	0x58c
 8562 1b76 06       		.byte	0x6
 8563 1b77 00000000 		.4byte	.LFB147
 8564 1b7b 0E000000 		.4byte	.LFE147-.LFB147
 8565 1b7f 01       		.uleb128 0x1
 8566 1b80 9C       		.byte	0x9c
 8567 1b81 BF1B0000 		.4byte	0x1bbf
 8568 1b85 17       		.uleb128 0x17
 8569 1b86 F1060000 		.4byte	.LASF66
 8570 1b8a 01       		.byte	0x1
 8571 1b8b 8C05     		.2byte	0x58c
 8572 1b8d 25       		.byte	0x25
 8573 1b8e 8B040000 		.4byte	0x48b
 8574 1b92 01       		.uleb128 0x1
 8575 1b93 50       		.byte	0x50
 8576 1b94 18       		.uleb128 0x18
 8577 1b95 61020000 		.4byte	.LASF158
 8578 1b99 01       		.byte	0x1
 8579 1b9a 8C05     		.2byte	0x58c
 8580 1b9c 34       		.byte	0x34
 8581 1b9d A7000000 		.4byte	0xa7
 8582 1ba1 291A0000 		.4byte	.LLST49
 8583 1ba5 251A0000 		.4byte	.LVUS49
 8584 1ba9 19       		.uleb128 0x19
 8585 1baa 57010000 		.4byte	.LASF67
 8586 1bae 01       		.byte	0x1
 8587 1baf 8E05     		.2byte	0x58e
 8588 1bb1 0C       		.byte	0xc
 8589 1bb2 A7000000 		.4byte	0xa7
 8590 1bb6 541A0000 		.4byte	.LLST50
 8591 1bba 4A1A0000 		.4byte	.LVUS50
 8592 1bbe 00       		.byte	0
 8593 1bbf 16       		.uleb128 0x16
 8594 1bc0 030B0000 		.4byte	.LASF160
 8595 1bc4 01       		.byte	0x1
 8596 1bc5 6E05     		.2byte	0x56e
 8597 1bc7 06       		.byte	0x6
 8598 1bc8 00000000 		.4byte	.LFB146
 8599 1bcc 12000000 		.4byte	.LFE146-.LFB146
 8600 1bd0 01       		.uleb128 0x1
 8601 1bd1 9C       		.byte	0x9c
 8602 1bd2 101C0000 		.4byte	0x1c10
 8603 1bd6 17       		.uleb128 0x17
 8604 1bd7 F1060000 		.4byte	.LASF66
 8605 1bdb 01       		.byte	0x1
 8606 1bdc 6E05     		.2byte	0x56e
 8607 1bde 25       		.byte	0x25
ARM GAS  C:\Users\USER\AppData\Local\Temp\ccNdlOSb.s 			page 152


 8608 1bdf 8B040000 		.4byte	0x48b
 8609 1be3 01       		.uleb128 0x1
 8610 1be4 50       		.byte	0x50
 8611 1be5 18       		.uleb128 0x18
 8612 1be6 61020000 		.4byte	.LASF158
 8613 1bea 01       		.byte	0x1
 8614 1beb 6E05     		.2byte	0x56e
 8615 1bed 34       		.byte	0x34
 8616 1bee A7000000 		.4byte	0xa7
 8617 1bf2 A31A0000 		.4byte	.LLST47
 8618 1bf6 9F1A0000 		.4byte	.LVUS47
 8619 1bfa 19       		.uleb128 0x19
 8620 1bfb 4E010000 		.4byte	.LASF72
 8621 1bff 01       		.byte	0x1
 8622 1c00 7005     		.2byte	0x570
 8623 1c02 0C       		.byte	0xc
 8624 1c03 A7000000 		.4byte	0xa7
 8625 1c07 CE1A0000 		.4byte	.LLST48
 8626 1c0b C41A0000 		.4byte	.LVUS48
 8627 1c0f 00       		.byte	0
 8628 1c10 16       		.uleb128 0x16
 8629 1c11 340E0000 		.4byte	.LASF161
 8630 1c15 01       		.byte	0x1
 8631 1c16 4F05     		.2byte	0x54f
 8632 1c18 06       		.byte	0x6
 8633 1c19 00000000 		.4byte	.LFB145
 8634 1c1d 0E000000 		.4byte	.LFE145-.LFB145
 8635 1c21 01       		.uleb128 0x1
 8636 1c22 9C       		.byte	0x9c
 8637 1c23 611C0000 		.4byte	0x1c61
 8638 1c27 17       		.uleb128 0x17
 8639 1c28 F1060000 		.4byte	.LASF66
 8640 1c2c 01       		.byte	0x1
 8641 1c2d 4F05     		.2byte	0x54f
 8642 1c2f 25       		.byte	0x25
 8643 1c30 8B040000 		.4byte	0x48b
 8644 1c34 01       		.uleb128 0x1
 8645 1c35 50       		.byte	0x50
 8646 1c36 18       		.uleb128 0x18
 8647 1c37 61020000 		.4byte	.LASF158
 8648 1c3b 01       		.byte	0x1
 8649 1c3c 4F05     		.2byte	0x54f
 8650 1c3e 34       		.byte	0x34
 8651 1c3f A7000000 		.4byte	0xa7
 8652 1c43 211B0000 		.4byte	.LLST45
 8653 1c47 1D1B0000 		.4byte	.LVUS45
 8654 1c4b 19       		.uleb128 0x19
 8655 1c4c 4E010000 		.4byte	.LASF72
 8656 1c50 01       		.byte	0x1
 8657 1c51 5105     		.2byte	0x551
 8658 1c53 0C       		.byte	0xc
 8659 1c54 A7000000 		.4byte	0xa7
 8660 1c58 4C1B0000 		.4byte	.LLST46
 8661 1c5c 421B0000 		.4byte	.LVUS46
 8662 1c60 00       		.byte	0
 8663 1c61 16       		.uleb128 0x16
 8664 1c62 3B0C0000 		.4byte	.LASF162
ARM GAS  C:\Users\USER\AppData\Local\Temp\ccNdlOSb.s 			page 153


 8665 1c66 01       		.byte	0x1
 8666 1c67 3205     		.2byte	0x532
 8667 1c69 06       		.byte	0x6
 8668 1c6a 00000000 		.4byte	.LFB144
 8669 1c6e 12000000 		.4byte	.LFE144-.LFB144
 8670 1c72 01       		.uleb128 0x1
 8671 1c73 9C       		.byte	0x9c
 8672 1c74 B21C0000 		.4byte	0x1cb2
 8673 1c78 17       		.uleb128 0x17
 8674 1c79 F1060000 		.4byte	.LASF66
 8675 1c7d 01       		.byte	0x1
 8676 1c7e 3205     		.2byte	0x532
 8677 1c80 28       		.byte	0x28
 8678 1c81 8B040000 		.4byte	0x48b
 8679 1c85 01       		.uleb128 0x1
 8680 1c86 50       		.byte	0x50
 8681 1c87 18       		.uleb128 0x18
 8682 1c88 FB020000 		.4byte	.LASF163
 8683 1c8c 01       		.byte	0x1
 8684 1c8d 3205     		.2byte	0x532
 8685 1c8f 37       		.byte	0x37
 8686 1c90 A7000000 		.4byte	0xa7
 8687 1c94 9B1B0000 		.4byte	.LLST43
 8688 1c98 971B0000 		.4byte	.LVUS43
 8689 1c9c 19       		.uleb128 0x19
 8690 1c9d 57010000 		.4byte	.LASF67
 8691 1ca1 01       		.byte	0x1
 8692 1ca2 3405     		.2byte	0x534
 8693 1ca4 0C       		.byte	0xc
 8694 1ca5 A7000000 		.4byte	0xa7
 8695 1ca9 C61B0000 		.4byte	.LLST44
 8696 1cad BC1B0000 		.4byte	.LVUS44
 8697 1cb1 00       		.byte	0
 8698 1cb2 16       		.uleb128 0x16
 8699 1cb3 0B0E0000 		.4byte	.LASF164
 8700 1cb7 01       		.byte	0x1
 8701 1cb8 1505     		.2byte	0x515
 8702 1cba 06       		.byte	0x6
 8703 1cbb 00000000 		.4byte	.LFB143
 8704 1cbf 0E000000 		.4byte	.LFE143-.LFB143
 8705 1cc3 01       		.uleb128 0x1
 8706 1cc4 9C       		.byte	0x9c
 8707 1cc5 031D0000 		.4byte	0x1d03
 8708 1cc9 17       		.uleb128 0x17
 8709 1cca F1060000 		.4byte	.LASF66
 8710 1cce 01       		.byte	0x1
 8711 1ccf 1505     		.2byte	0x515
 8712 1cd1 28       		.byte	0x28
 8713 1cd2 8B040000 		.4byte	0x48b
 8714 1cd6 01       		.uleb128 0x1
 8715 1cd7 50       		.byte	0x50
 8716 1cd8 18       		.uleb128 0x18
 8717 1cd9 FB020000 		.4byte	.LASF163
 8718 1cdd 01       		.byte	0x1
 8719 1cde 1505     		.2byte	0x515
 8720 1ce0 37       		.byte	0x37
 8721 1ce1 A7000000 		.4byte	0xa7
ARM GAS  C:\Users\USER\AppData\Local\Temp\ccNdlOSb.s 			page 154


 8722 1ce5 191C0000 		.4byte	.LLST41
 8723 1ce9 151C0000 		.4byte	.LVUS41
 8724 1ced 19       		.uleb128 0x19
 8725 1cee 57010000 		.4byte	.LASF67
 8726 1cf2 01       		.byte	0x1
 8727 1cf3 1705     		.2byte	0x517
 8728 1cf5 0C       		.byte	0xc
 8729 1cf6 A7000000 		.4byte	0xa7
 8730 1cfa 441C0000 		.4byte	.LLST42
 8731 1cfe 3A1C0000 		.4byte	.LVUS42
 8732 1d02 00       		.byte	0
 8733 1d03 16       		.uleb128 0x16
 8734 1d04 2A020000 		.4byte	.LASF165
 8735 1d08 01       		.byte	0x1
 8736 1d09 F804     		.2byte	0x4f8
 8737 1d0b 06       		.byte	0x6
 8738 1d0c 00000000 		.4byte	.LFB142
 8739 1d10 12000000 		.4byte	.LFE142-.LFB142
 8740 1d14 01       		.uleb128 0x1
 8741 1d15 9C       		.byte	0x9c
 8742 1d16 541D0000 		.4byte	0x1d54
 8743 1d1a 17       		.uleb128 0x17
 8744 1d1b F1060000 		.4byte	.LASF66
 8745 1d1f 01       		.byte	0x1
 8746 1d20 F804     		.2byte	0x4f8
 8747 1d22 28       		.byte	0x28
 8748 1d23 8B040000 		.4byte	0x48b
 8749 1d27 01       		.uleb128 0x1
 8750 1d28 50       		.byte	0x50
 8751 1d29 18       		.uleb128 0x18
 8752 1d2a FB020000 		.4byte	.LASF163
 8753 1d2e 01       		.byte	0x1
 8754 1d2f F804     		.2byte	0x4f8
 8755 1d31 37       		.byte	0x37
 8756 1d32 A7000000 		.4byte	0xa7
 8757 1d36 931C0000 		.4byte	.LLST39
 8758 1d3a 8F1C0000 		.4byte	.LVUS39
 8759 1d3e 19       		.uleb128 0x19
 8760 1d3f 4E010000 		.4byte	.LASF72
 8761 1d43 01       		.byte	0x1
 8762 1d44 FA04     		.2byte	0x4fa
 8763 1d46 0C       		.byte	0xc
 8764 1d47 A7000000 		.4byte	0xa7
 8765 1d4b BE1C0000 		.4byte	.LLST40
 8766 1d4f B41C0000 		.4byte	.LVUS40
 8767 1d53 00       		.byte	0
 8768 1d54 16       		.uleb128 0x16
 8769 1d55 34040000 		.4byte	.LASF166
 8770 1d59 01       		.byte	0x1
 8771 1d5a DA04     		.2byte	0x4da
 8772 1d5c 06       		.byte	0x6
 8773 1d5d 00000000 		.4byte	.LFB141
 8774 1d61 0E000000 		.4byte	.LFE141-.LFB141
 8775 1d65 01       		.uleb128 0x1
 8776 1d66 9C       		.byte	0x9c
 8777 1d67 A51D0000 		.4byte	0x1da5
 8778 1d6b 17       		.uleb128 0x17
ARM GAS  C:\Users\USER\AppData\Local\Temp\ccNdlOSb.s 			page 155


 8779 1d6c F1060000 		.4byte	.LASF66
 8780 1d70 01       		.byte	0x1
 8781 1d71 DA04     		.2byte	0x4da
 8782 1d73 28       		.byte	0x28
 8783 1d74 8B040000 		.4byte	0x48b
 8784 1d78 01       		.uleb128 0x1
 8785 1d79 50       		.byte	0x50
 8786 1d7a 18       		.uleb128 0x18
 8787 1d7b FB020000 		.4byte	.LASF163
 8788 1d7f 01       		.byte	0x1
 8789 1d80 DA04     		.2byte	0x4da
 8790 1d82 37       		.byte	0x37
 8791 1d83 A7000000 		.4byte	0xa7
 8792 1d87 111D0000 		.4byte	.LLST37
 8793 1d8b 0D1D0000 		.4byte	.LVUS37
 8794 1d8f 19       		.uleb128 0x19
 8795 1d90 4E010000 		.4byte	.LASF72
 8796 1d94 01       		.byte	0x1
 8797 1d95 DC04     		.2byte	0x4dc
 8798 1d97 0C       		.byte	0xc
 8799 1d98 A7000000 		.4byte	0xa7
 8800 1d9c 3C1D0000 		.4byte	.LLST38
 8801 1da0 321D0000 		.4byte	.LVUS38
 8802 1da4 00       		.byte	0
 8803 1da5 16       		.uleb128 0x16
 8804 1da6 A1000000 		.4byte	.LASF167
 8805 1daa 01       		.byte	0x1
 8806 1dab BE04     		.2byte	0x4be
 8807 1dad 06       		.byte	0x6
 8808 1dae 00000000 		.4byte	.LFB140
 8809 1db2 12000000 		.4byte	.LFE140-.LFB140
 8810 1db6 01       		.uleb128 0x1
 8811 1db7 9C       		.byte	0x9c
 8812 1db8 F61D0000 		.4byte	0x1df6
 8813 1dbc 17       		.uleb128 0x17
 8814 1dbd F1060000 		.4byte	.LASF66
 8815 1dc1 01       		.byte	0x1
 8816 1dc2 BE04     		.2byte	0x4be
 8817 1dc4 27       		.byte	0x27
 8818 1dc5 8B040000 		.4byte	0x48b
 8819 1dc9 01       		.uleb128 0x1
 8820 1dca 50       		.byte	0x50
 8821 1dcb 18       		.uleb128 0x18
 8822 1dcc 4F000000 		.4byte	.LASF168
 8823 1dd0 01       		.byte	0x1
 8824 1dd1 BE04     		.2byte	0x4be
 8825 1dd3 36       		.byte	0x36
 8826 1dd4 A7000000 		.4byte	0xa7
 8827 1dd8 8B1D0000 		.4byte	.LLST35
 8828 1ddc 871D0000 		.4byte	.LVUS35
 8829 1de0 19       		.uleb128 0x19
 8830 1de1 57010000 		.4byte	.LASF67
 8831 1de5 01       		.byte	0x1
 8832 1de6 C004     		.2byte	0x4c0
 8833 1de8 0C       		.byte	0xc
 8834 1de9 A7000000 		.4byte	0xa7
 8835 1ded B61D0000 		.4byte	.LLST36
ARM GAS  C:\Users\USER\AppData\Local\Temp\ccNdlOSb.s 			page 156


 8836 1df1 AC1D0000 		.4byte	.LVUS36
 8837 1df5 00       		.byte	0
 8838 1df6 16       		.uleb128 0x16
 8839 1df7 48080000 		.4byte	.LASF169
 8840 1dfb 01       		.byte	0x1
 8841 1dfc A104     		.2byte	0x4a1
 8842 1dfe 06       		.byte	0x6
 8843 1dff 00000000 		.4byte	.LFB139
 8844 1e03 0E000000 		.4byte	.LFE139-.LFB139
 8845 1e07 01       		.uleb128 0x1
 8846 1e08 9C       		.byte	0x9c
 8847 1e09 471E0000 		.4byte	0x1e47
 8848 1e0d 17       		.uleb128 0x17
 8849 1e0e F1060000 		.4byte	.LASF66
 8850 1e12 01       		.byte	0x1
 8851 1e13 A104     		.2byte	0x4a1
 8852 1e15 27       		.byte	0x27
 8853 1e16 8B040000 		.4byte	0x48b
 8854 1e1a 01       		.uleb128 0x1
 8855 1e1b 50       		.byte	0x50
 8856 1e1c 18       		.uleb128 0x18
 8857 1e1d 4F000000 		.4byte	.LASF168
 8858 1e21 01       		.byte	0x1
 8859 1e22 A104     		.2byte	0x4a1
 8860 1e24 36       		.byte	0x36
 8861 1e25 A7000000 		.4byte	0xa7
 8862 1e29 091E0000 		.4byte	.LLST33
 8863 1e2d 051E0000 		.4byte	.LVUS33
 8864 1e31 19       		.uleb128 0x19
 8865 1e32 57010000 		.4byte	.LASF67
 8866 1e36 01       		.byte	0x1
 8867 1e37 A304     		.2byte	0x4a3
 8868 1e39 0C       		.byte	0xc
 8869 1e3a A7000000 		.4byte	0xa7
 8870 1e3e 341E0000 		.4byte	.LLST34
 8871 1e42 2A1E0000 		.4byte	.LVUS34
 8872 1e46 00       		.byte	0
 8873 1e47 16       		.uleb128 0x16
 8874 1e48 14000000 		.4byte	.LASF170
 8875 1e4c 01       		.byte	0x1
 8876 1e4d 8504     		.2byte	0x485
 8877 1e4f 06       		.byte	0x6
 8878 1e50 00000000 		.4byte	.LFB138
 8879 1e54 12000000 		.4byte	.LFE138-.LFB138
 8880 1e58 01       		.uleb128 0x1
 8881 1e59 9C       		.byte	0x9c
 8882 1e5a 981E0000 		.4byte	0x1e98
 8883 1e5e 17       		.uleb128 0x17
 8884 1e5f F1060000 		.4byte	.LASF66
 8885 1e63 01       		.byte	0x1
 8886 1e64 8504     		.2byte	0x485
 8887 1e66 27       		.byte	0x27
 8888 1e67 8B040000 		.4byte	0x48b
 8889 1e6b 01       		.uleb128 0x1
 8890 1e6c 50       		.byte	0x50
 8891 1e6d 18       		.uleb128 0x18
 8892 1e6e 4F000000 		.4byte	.LASF168
ARM GAS  C:\Users\USER\AppData\Local\Temp\ccNdlOSb.s 			page 157


 8893 1e72 01       		.byte	0x1
 8894 1e73 8504     		.2byte	0x485
 8895 1e75 36       		.byte	0x36
 8896 1e76 A7000000 		.4byte	0xa7
 8897 1e7a 831E0000 		.4byte	.LLST31
 8898 1e7e 7F1E0000 		.4byte	.LVUS31
 8899 1e82 19       		.uleb128 0x19
 8900 1e83 4E010000 		.4byte	.LASF72
 8901 1e87 01       		.byte	0x1
 8902 1e88 8704     		.2byte	0x487
 8903 1e8a 0C       		.byte	0xc
 8904 1e8b A7000000 		.4byte	0xa7
 8905 1e8f AE1E0000 		.4byte	.LLST32
 8906 1e93 A41E0000 		.4byte	.LVUS32
 8907 1e97 00       		.byte	0
 8908 1e98 16       		.uleb128 0x16
 8909 1e99 34080000 		.4byte	.LASF171
 8910 1e9d 01       		.byte	0x1
 8911 1e9e 6804     		.2byte	0x468
 8912 1ea0 06       		.byte	0x6
 8913 1ea1 00000000 		.4byte	.LFB137
 8914 1ea5 0E000000 		.4byte	.LFE137-.LFB137
 8915 1ea9 01       		.uleb128 0x1
 8916 1eaa 9C       		.byte	0x9c
 8917 1eab E91E0000 		.4byte	0x1ee9
 8918 1eaf 17       		.uleb128 0x17
 8919 1eb0 F1060000 		.4byte	.LASF66
 8920 1eb4 01       		.byte	0x1
 8921 1eb5 6804     		.2byte	0x468
 8922 1eb7 27       		.byte	0x27
 8923 1eb8 8B040000 		.4byte	0x48b
 8924 1ebc 01       		.uleb128 0x1
 8925 1ebd 50       		.byte	0x50
 8926 1ebe 18       		.uleb128 0x18
 8927 1ebf 4F000000 		.4byte	.LASF168
 8928 1ec3 01       		.byte	0x1
 8929 1ec4 6804     		.2byte	0x468
 8930 1ec6 36       		.byte	0x36
 8931 1ec7 A7000000 		.4byte	0xa7
 8932 1ecb 011F0000 		.4byte	.LLST29
 8933 1ecf FD1E0000 		.4byte	.LVUS29
 8934 1ed3 19       		.uleb128 0x19
 8935 1ed4 4E010000 		.4byte	.LASF72
 8936 1ed8 01       		.byte	0x1
 8937 1ed9 6A04     		.2byte	0x46a
 8938 1edb 0C       		.byte	0xc
 8939 1edc A7000000 		.4byte	0xa7
 8940 1ee0 2C1F0000 		.4byte	.LLST30
 8941 1ee4 221F0000 		.4byte	.LVUS30
 8942 1ee8 00       		.byte	0
 8943 1ee9 16       		.uleb128 0x16
 8944 1eea FA0B0000 		.4byte	.LASF172
 8945 1eee 01       		.byte	0x1
 8946 1eef 5604     		.2byte	0x456
 8947 1ef1 06       		.byte	0x6
 8948 1ef2 00000000 		.4byte	.LFB136
 8949 1ef6 04000000 		.4byte	.LFE136-.LFB136
ARM GAS  C:\Users\USER\AppData\Local\Temp\ccNdlOSb.s 			page 158


 8950 1efa 01       		.uleb128 0x1
 8951 1efb 9C       		.byte	0x9c
 8952 1efc 1F1F0000 		.4byte	0x1f1f
 8953 1f00 17       		.uleb128 0x17
 8954 1f01 F1060000 		.4byte	.LASF66
 8955 1f05 01       		.byte	0x1
 8956 1f06 5604     		.2byte	0x456
 8957 1f08 23       		.byte	0x23
 8958 1f09 8B040000 		.4byte	0x48b
 8959 1f0d 01       		.uleb128 0x1
 8960 1f0e 50       		.byte	0x50
 8961 1f0f 17       		.uleb128 0x17
 8962 1f10 78080000 		.4byte	.LASF173
 8963 1f14 01       		.byte	0x1
 8964 1f15 5604     		.2byte	0x456
 8965 1f17 32       		.byte	0x32
 8966 1f18 C4000000 		.4byte	0xc4
 8967 1f1c 01       		.uleb128 0x1
 8968 1f1d 51       		.byte	0x51
 8969 1f1e 00       		.byte	0
 8970 1f1f 16       		.uleb128 0x16
 8971 1f20 A8050000 		.4byte	.LASF174
 8972 1f24 01       		.byte	0x1
 8973 1f25 4704     		.2byte	0x447
 8974 1f27 06       		.byte	0x6
 8975 1f28 00000000 		.4byte	.LFB135
 8976 1f2c 04000000 		.4byte	.LFE135-.LFB135
 8977 1f30 01       		.uleb128 0x1
 8978 1f31 9C       		.byte	0x9c
 8979 1f32 551F0000 		.4byte	0x1f55
 8980 1f36 17       		.uleb128 0x17
 8981 1f37 F1060000 		.4byte	.LASF66
 8982 1f3b 01       		.byte	0x1
 8983 1f3c 4704     		.2byte	0x447
 8984 1f3e 23       		.byte	0x23
 8985 1f3f 8B040000 		.4byte	0x48b
 8986 1f43 01       		.uleb128 0x1
 8987 1f44 50       		.byte	0x50
 8988 1f45 17       		.uleb128 0x17
 8989 1f46 24010000 		.4byte	.LASF175
 8990 1f4a 01       		.byte	0x1
 8991 1f4b 4704     		.2byte	0x447
 8992 1f4d 32       		.byte	0x32
 8993 1f4e C4000000 		.4byte	0xc4
 8994 1f52 01       		.uleb128 0x1
 8995 1f53 51       		.byte	0x51
 8996 1f54 00       		.byte	0
 8997 1f55 16       		.uleb128 0x16
 8998 1f56 98050000 		.4byte	.LASF176
 8999 1f5a 01       		.byte	0x1
 9000 1f5b 3804     		.2byte	0x438
 9001 1f5d 06       		.byte	0x6
 9002 1f5e 00000000 		.4byte	.LFB134
 9003 1f62 04000000 		.4byte	.LFE134-.LFB134
 9004 1f66 01       		.uleb128 0x1
 9005 1f67 9C       		.byte	0x9c
 9006 1f68 8B1F0000 		.4byte	0x1f8b
ARM GAS  C:\Users\USER\AppData\Local\Temp\ccNdlOSb.s 			page 159


 9007 1f6c 17       		.uleb128 0x17
 9008 1f6d F1060000 		.4byte	.LASF66
 9009 1f71 01       		.byte	0x1
 9010 1f72 3804     		.2byte	0x438
 9011 1f74 23       		.byte	0x23
 9012 1f75 8B040000 		.4byte	0x48b
 9013 1f79 01       		.uleb128 0x1
 9014 1f7a 50       		.byte	0x50
 9015 1f7b 17       		.uleb128 0x17
 9016 1f7c 38090000 		.4byte	.LASF177
 9017 1f80 01       		.byte	0x1
 9018 1f81 3804     		.2byte	0x438
 9019 1f83 32       		.byte	0x32
 9020 1f84 C4000000 		.4byte	0xc4
 9021 1f88 01       		.uleb128 0x1
 9022 1f89 51       		.byte	0x51
 9023 1f8a 00       		.byte	0
 9024 1f8b 16       		.uleb128 0x16
 9025 1f8c EC000000 		.4byte	.LASF178
 9026 1f90 01       		.byte	0x1
 9027 1f91 2804     		.2byte	0x428
 9028 1f93 06       		.byte	0x6
 9029 1f94 00000000 		.4byte	.LFB133
 9030 1f98 04000000 		.4byte	.LFE133-.LFB133
 9031 1f9c 01       		.uleb128 0x1
 9032 1f9d 9C       		.byte	0x9c
 9033 1f9e C11F0000 		.4byte	0x1fc1
 9034 1fa2 17       		.uleb128 0x17
 9035 1fa3 F1060000 		.4byte	.LASF66
 9036 1fa7 01       		.byte	0x1
 9037 1fa8 2804     		.2byte	0x428
 9038 1faa 23       		.byte	0x23
 9039 1fab 8B040000 		.4byte	0x48b
 9040 1faf 01       		.uleb128 0x1
 9041 1fb0 50       		.byte	0x50
 9042 1fb1 17       		.uleb128 0x17
 9043 1fb2 E3000000 		.4byte	.LASF179
 9044 1fb6 01       		.byte	0x1
 9045 1fb7 2804     		.2byte	0x428
 9046 1fb9 32       		.byte	0x32
 9047 1fba C4000000 		.4byte	0xc4
 9048 1fbe 01       		.uleb128 0x1
 9049 1fbf 51       		.byte	0x51
 9050 1fc0 00       		.byte	0
 9051 1fc1 16       		.uleb128 0x16
 9052 1fc2 0A0C0000 		.4byte	.LASF180
 9053 1fc6 01       		.byte	0x1
 9054 1fc7 FA03     		.2byte	0x3fa
 9055 1fc9 06       		.byte	0x6
 9056 1fca 00000000 		.4byte	.LFB132
 9057 1fce 50000000 		.4byte	.LFE132-.LFB132
 9058 1fd2 01       		.uleb128 0x1
 9059 1fd3 9C       		.byte	0x9c
 9060 1fd4 42200000 		.4byte	0x2042
 9061 1fd8 18       		.uleb128 0x18
 9062 1fd9 F1060000 		.4byte	.LASF66
 9063 1fdd 01       		.byte	0x1
ARM GAS  C:\Users\USER\AppData\Local\Temp\ccNdlOSb.s 			page 160


 9064 1fde FA03     		.2byte	0x3fa
 9065 1fe0 22       		.byte	0x22
 9066 1fe1 8B040000 		.4byte	0x48b
 9067 1fe5 7B1F0000 		.4byte	.LLST24
 9068 1fe9 771F0000 		.4byte	.LVUS24
 9069 1fed 18       		.uleb128 0x18
 9070 1fee 6C020000 		.4byte	.LASF52
 9071 1ff2 01       		.byte	0x1
 9072 1ff3 FA03     		.2byte	0x3fa
 9073 1ff5 31       		.byte	0x31
 9074 1ff6 A7000000 		.4byte	0xa7
 9075 1ffa A31F0000 		.4byte	.LLST25
 9076 1ffe 9B1F0000 		.4byte	.LVUS25
 9077 2002 18       		.uleb128 0x18
 9078 2003 6E0C0000 		.4byte	.LASF43
 9079 2007 01       		.byte	0x1
 9080 2008 FA03     		.2byte	0x3fa
 9081 200a 47       		.byte	0x47
 9082 200b A7000000 		.4byte	0xa7
 9083 200f E51F0000 		.4byte	.LLST26
 9084 2013 DD1F0000 		.4byte	.LVUS26
 9085 2017 26       		.uleb128 0x26
 9086 2018 746D7000 		.ascii	"tmp\000"
 9087 201c 01       		.byte	0x1
 9088 201d FC03     		.2byte	0x3fc
 9089 201f 0C       		.byte	0xc
 9090 2020 C4000000 		.4byte	0xc4
 9091 2024 2D200000 		.4byte	.LLST27
 9092 2028 1F200000 		.4byte	.LVUS27
 9093 202c 19       		.uleb128 0x19
 9094 202d 0A020000 		.4byte	.LASF181
 9095 2031 01       		.byte	0x1
 9096 2032 FD03     		.2byte	0x3fd
 9097 2034 0C       		.byte	0xc
 9098 2035 A7000000 		.4byte	0xa7
 9099 2039 BD200000 		.4byte	.LLST28
 9100 203d B3200000 		.4byte	.LVUS28
 9101 2041 00       		.byte	0
 9102 2042 16       		.uleb128 0x16
 9103 2043 84070000 		.4byte	.LASF182
 9104 2047 01       		.byte	0x1
 9105 2048 D603     		.2byte	0x3d6
 9106 204a 06       		.byte	0x6
 9107 204b 00000000 		.4byte	.LFB131
 9108 204f 0E000000 		.4byte	.LFE131-.LFB131
 9109 2053 01       		.uleb128 0x1
 9110 2054 9C       		.byte	0x9c
 9111 2055 69200000 		.4byte	0x2069
 9112 2059 17       		.uleb128 0x17
 9113 205a CD060000 		.4byte	.LASF183
 9114 205e 01       		.byte	0x1
 9115 205f D603     		.2byte	0x3d6
 9116 2061 2A       		.byte	0x2a
 9117 2062 69200000 		.4byte	0x2069
 9118 2066 01       		.uleb128 0x1
 9119 2067 50       		.byte	0x50
 9120 2068 00       		.byte	0
ARM GAS  C:\Users\USER\AppData\Local\Temp\ccNdlOSb.s 			page 161


 9121 2069 15       		.uleb128 0x15
 9122 206a 04       		.byte	0x4
 9123 206b 4D030000 		.4byte	0x34d
 9124 206f 16       		.uleb128 0x16
 9125 2070 E30B0000 		.4byte	.LASF184
 9126 2074 01       		.byte	0x1
 9127 2075 9703     		.2byte	0x397
 9128 2077 06       		.byte	0x6
 9129 2078 00000000 		.4byte	.LFB130
 9130 207c 68000000 		.4byte	.LFE130-.LFB130
 9131 2080 01       		.uleb128 0x1
 9132 2081 9C       		.byte	0x9c
 9133 2082 EA200000 		.4byte	0x20ea
 9134 2086 17       		.uleb128 0x17
 9135 2087 F1060000 		.4byte	.LASF66
 9136 208b 01       		.byte	0x1
 9137 208c 9703     		.2byte	0x397
 9138 208e 1F       		.byte	0x1f
 9139 208f 8B040000 		.4byte	0x48b
 9140 2093 01       		.uleb128 0x1
 9141 2094 50       		.byte	0x50
 9142 2095 18       		.uleb128 0x18
 9143 2096 CD060000 		.4byte	.LASF183
 9144 209a 01       		.byte	0x1
 9145 209b 9703     		.2byte	0x397
 9146 209d 38       		.byte	0x38
 9147 209e 69200000 		.4byte	0x2069
 9148 20a2 15210000 		.4byte	.LLST20
 9149 20a6 0F210000 		.4byte	.LVUS20
 9150 20aa 19       		.uleb128 0x19
 9151 20ab 55030000 		.4byte	.LASF185
 9152 20af 01       		.byte	0x1
 9153 20b0 9903     		.2byte	0x399
 9154 20b2 0C       		.byte	0xc
 9155 20b3 A7000000 		.4byte	0xa7
 9156 20b7 45210000 		.4byte	.LLST21
 9157 20bb 41210000 		.4byte	.LVUS21
 9158 20bf 19       		.uleb128 0x19
 9159 20c0 C6050000 		.4byte	.LASF68
 9160 20c4 01       		.byte	0x1
 9161 20c5 9903     		.2byte	0x399
 9162 20c7 1A       		.byte	0x1a
 9163 20c8 A7000000 		.4byte	0xa7
 9164 20cc 6E210000 		.4byte	.LLST22
 9165 20d0 64210000 		.4byte	.LVUS22
 9166 20d4 19       		.uleb128 0x19
 9167 20d5 EC070000 		.4byte	.LASF186
 9168 20d9 01       		.byte	0x1
 9169 20da 9903     		.2byte	0x399
 9170 20dc 27       		.byte	0x27
 9171 20dd A7000000 		.4byte	0xa7
 9172 20e1 C9210000 		.4byte	.LLST23
 9173 20e5 C1210000 		.4byte	.LVUS23
 9174 20e9 00       		.byte	0
 9175 20ea 16       		.uleb128 0x16
 9176 20eb 09030000 		.4byte	.LASF187
 9177 20ef 01       		.byte	0x1
ARM GAS  C:\Users\USER\AppData\Local\Temp\ccNdlOSb.s 			page 162


 9178 20f0 4703     		.2byte	0x347
 9179 20f2 06       		.byte	0x6
 9180 20f3 00000000 		.4byte	.LFB129
 9181 20f7 84000000 		.4byte	.LFE129-.LFB129
 9182 20fb 01       		.uleb128 0x1
 9183 20fc 9C       		.byte	0x9c
 9184 20fd 65210000 		.4byte	0x2165
 9185 2101 17       		.uleb128 0x17
 9186 2102 F1060000 		.4byte	.LASF66
 9187 2106 01       		.byte	0x1
 9188 2107 4703     		.2byte	0x347
 9189 2109 1F       		.byte	0x1f
 9190 210a 8B040000 		.4byte	0x48b
 9191 210e 01       		.uleb128 0x1
 9192 210f 50       		.byte	0x50
 9193 2110 18       		.uleb128 0x18
 9194 2111 CD060000 		.4byte	.LASF183
 9195 2115 01       		.byte	0x1
 9196 2116 4703     		.2byte	0x347
 9197 2118 38       		.byte	0x38
 9198 2119 69200000 		.4byte	0x2069
 9199 211d 04220000 		.4byte	.LLST16
 9200 2121 FE210000 		.4byte	.LVUS16
 9201 2125 19       		.uleb128 0x19
 9202 2126 55030000 		.4byte	.LASF185
 9203 212a 01       		.byte	0x1
 9204 212b 4903     		.2byte	0x349
 9205 212d 0C       		.byte	0xc
 9206 212e A7000000 		.4byte	0xa7
 9207 2132 38220000 		.4byte	.LLST17
 9208 2136 30220000 		.4byte	.LVUS17
 9209 213a 19       		.uleb128 0x19
 9210 213b C6050000 		.4byte	.LASF68
 9211 213f 01       		.byte	0x1
 9212 2140 4903     		.2byte	0x349
 9213 2142 1A       		.byte	0x1a
 9214 2143 A7000000 		.4byte	0xa7
 9215 2147 7C220000 		.4byte	.LLST18
 9216 214b 72220000 		.4byte	.LVUS18
 9217 214f 19       		.uleb128 0x19
 9218 2150 EC070000 		.4byte	.LASF186
 9219 2154 01       		.byte	0x1
 9220 2155 4903     		.2byte	0x349
 9221 2157 27       		.byte	0x27
 9222 2158 A7000000 		.4byte	0xa7
 9223 215c C8220000 		.4byte	.LLST19
 9224 2160 BC220000 		.4byte	.LVUS19
 9225 2164 00       		.byte	0
 9226 2165 16       		.uleb128 0x16
 9227 2166 820B0000 		.4byte	.LASF188
 9228 216a 01       		.byte	0x1
 9229 216b F602     		.2byte	0x2f6
 9230 216d 06       		.byte	0x6
 9231 216e 00000000 		.4byte	.LFB128
 9232 2172 84000000 		.4byte	.LFE128-.LFB128
 9233 2176 01       		.uleb128 0x1
 9234 2177 9C       		.byte	0x9c
ARM GAS  C:\Users\USER\AppData\Local\Temp\ccNdlOSb.s 			page 163


 9235 2178 E0210000 		.4byte	0x21e0
 9236 217c 17       		.uleb128 0x17
 9237 217d F1060000 		.4byte	.LASF66
 9238 2181 01       		.byte	0x1
 9239 2182 F602     		.2byte	0x2f6
 9240 2184 1F       		.byte	0x1f
 9241 2185 8B040000 		.4byte	0x48b
 9242 2189 01       		.uleb128 0x1
 9243 218a 50       		.byte	0x50
 9244 218b 18       		.uleb128 0x18
 9245 218c CD060000 		.4byte	.LASF183
 9246 2190 01       		.byte	0x1
 9247 2191 F602     		.2byte	0x2f6
 9248 2193 38       		.byte	0x38
 9249 2194 69200000 		.4byte	0x2069
 9250 2198 22230000 		.4byte	.LLST12
 9251 219c 1C230000 		.4byte	.LVUS12
 9252 21a0 19       		.uleb128 0x19
 9253 21a1 55030000 		.4byte	.LASF185
 9254 21a5 01       		.byte	0x1
 9255 21a6 F802     		.2byte	0x2f8
 9256 21a8 0C       		.byte	0xc
 9257 21a9 A7000000 		.4byte	0xa7
 9258 21ad 52230000 		.4byte	.LLST13
 9259 21b1 4E230000 		.4byte	.LVUS13
 9260 21b5 19       		.uleb128 0x19
 9261 21b6 C6050000 		.4byte	.LASF68
 9262 21ba 01       		.byte	0x1
 9263 21bb F802     		.2byte	0x2f8
 9264 21bd 1A       		.byte	0x1a
 9265 21be A7000000 		.4byte	0xa7
 9266 21c2 7F230000 		.4byte	.LLST14
 9267 21c6 71230000 		.4byte	.LVUS14
 9268 21ca 19       		.uleb128 0x19
 9269 21cb EC070000 		.4byte	.LASF186
 9270 21cf 01       		.byte	0x1
 9271 21d0 F802     		.2byte	0x2f8
 9272 21d2 27       		.byte	0x27
 9273 21d3 A7000000 		.4byte	0xa7
 9274 21d7 F0230000 		.4byte	.LLST15
 9275 21db E8230000 		.4byte	.LVUS15
 9276 21df 00       		.byte	0
 9277 21e0 16       		.uleb128 0x16
 9278 21e1 4C0D0000 		.4byte	.LASF189
 9279 21e5 01       		.byte	0x1
 9280 21e6 A502     		.2byte	0x2a5
 9281 21e8 06       		.byte	0x6
 9282 21e9 00000000 		.4byte	.LFB127
 9283 21ed 70000000 		.4byte	.LFE127-.LFB127
 9284 21f1 01       		.uleb128 0x1
 9285 21f2 9C       		.byte	0x9c
 9286 21f3 5B220000 		.4byte	0x225b
 9287 21f7 17       		.uleb128 0x17
 9288 21f8 F1060000 		.4byte	.LASF66
 9289 21fc 01       		.byte	0x1
 9290 21fd A502     		.2byte	0x2a5
 9291 21ff 1F       		.byte	0x1f
ARM GAS  C:\Users\USER\AppData\Local\Temp\ccNdlOSb.s 			page 164


 9292 2200 8B040000 		.4byte	0x48b
 9293 2204 01       		.uleb128 0x1
 9294 2205 50       		.byte	0x50
 9295 2206 18       		.uleb128 0x18
 9296 2207 CD060000 		.4byte	.LASF183
 9297 220b 01       		.byte	0x1
 9298 220c A502     		.2byte	0x2a5
 9299 220e 38       		.byte	0x38
 9300 220f 69200000 		.4byte	0x2069
 9301 2213 2B240000 		.4byte	.LLST8
 9302 2217 25240000 		.4byte	.LVUS8
 9303 221b 19       		.uleb128 0x19
 9304 221c 55030000 		.4byte	.LASF185
 9305 2220 01       		.byte	0x1
 9306 2221 A702     		.2byte	0x2a7
 9307 2223 0C       		.byte	0xc
 9308 2224 A7000000 		.4byte	0xa7
 9309 2228 5B240000 		.4byte	.LLST9
 9310 222c 57240000 		.4byte	.LVUS9
 9311 2230 19       		.uleb128 0x19
 9312 2231 C6050000 		.4byte	.LASF68
 9313 2235 01       		.byte	0x1
 9314 2236 A702     		.2byte	0x2a7
 9315 2238 1A       		.byte	0x1a
 9316 2239 A7000000 		.4byte	0xa7
 9317 223d 86240000 		.4byte	.LLST10
 9318 2241 7A240000 		.4byte	.LVUS10
 9319 2245 19       		.uleb128 0x19
 9320 2246 EC070000 		.4byte	.LASF186
 9321 224a 01       		.byte	0x1
 9322 224b A702     		.2byte	0x2a7
 9323 224d 27       		.byte	0x27
 9324 224e A7000000 		.4byte	0xa7
 9325 2252 EC240000 		.4byte	.LLST11
 9326 2256 E2240000 		.4byte	.LVUS11
 9327 225a 00       		.byte	0
 9328 225b 16       		.uleb128 0x16
 9329 225c 610B0000 		.4byte	.LASF190
 9330 2260 01       		.byte	0x1
 9331 2261 5402     		.2byte	0x254
 9332 2263 06       		.byte	0x6
 9333 2264 00000000 		.4byte	.LFB126
 9334 2268 16000000 		.4byte	.LFE126-.LFB126
 9335 226c 01       		.uleb128 0x1
 9336 226d 9C       		.byte	0x9c
 9337 226e 91220000 		.4byte	0x2291
 9338 2272 17       		.uleb128 0x17
 9339 2273 F1060000 		.4byte	.LASF66
 9340 2277 01       		.byte	0x1
 9341 2278 5402     		.2byte	0x254
 9342 227a 1B       		.byte	0x1b
 9343 227b 8B040000 		.4byte	0x48b
 9344 227f 01       		.uleb128 0x1
 9345 2280 50       		.byte	0x50
 9346 2281 17       		.uleb128 0x17
 9347 2282 0B000000 		.4byte	.LASF77
 9348 2286 01       		.byte	0x1
ARM GAS  C:\Users\USER\AppData\Local\Temp\ccNdlOSb.s 			page 165


 9349 2287 5402     		.2byte	0x254
 9350 2289 31       		.byte	0x31
 9351 228a 78020000 		.4byte	0x278
 9352 228e 01       		.uleb128 0x1
 9353 228f 51       		.byte	0x51
 9354 2290 00       		.byte	0
 9355 2291 16       		.uleb128 0x16
 9356 2292 13090000 		.4byte	.LASF191
 9357 2296 01       		.byte	0x1
 9358 2297 4002     		.2byte	0x240
 9359 2299 06       		.byte	0x6
 9360 229a 00000000 		.4byte	.LFB125
 9361 229e 12000000 		.4byte	.LFE125-.LFB125
 9362 22a2 01       		.uleb128 0x1
 9363 22a3 9C       		.byte	0x9c
 9364 22a4 CD220000 		.4byte	0x22cd
 9365 22a8 17       		.uleb128 0x17
 9366 22a9 F1060000 		.4byte	.LASF66
 9367 22ad 01       		.byte	0x1
 9368 22ae 4002     		.2byte	0x240
 9369 22b0 28       		.byte	0x28
 9370 22b1 8B040000 		.4byte	0x48b
 9371 22b5 01       		.uleb128 0x1
 9372 22b6 50       		.byte	0x50
 9373 22b7 18       		.uleb128 0x18
 9374 22b8 7A030000 		.4byte	.LASF192
 9375 22bc 01       		.byte	0x1
 9376 22bd 4002     		.2byte	0x240
 9377 22bf 37       		.byte	0x37
 9378 22c0 A7000000 		.4byte	0xa7
 9379 22c4 37250000 		.4byte	.LLST7
 9380 22c8 33250000 		.4byte	.LVUS7
 9381 22cc 00       		.byte	0
 9382 22cd 16       		.uleb128 0x16
 9383 22ce 28000000 		.4byte	.LASF193
 9384 22d2 01       		.byte	0x1
 9385 22d3 2902     		.2byte	0x229
 9386 22d5 06       		.byte	0x6
 9387 22d6 00000000 		.4byte	.LFB124
 9388 22da 12000000 		.4byte	.LFE124-.LFB124
 9389 22de 01       		.uleb128 0x1
 9390 22df 9C       		.byte	0x9c
 9391 22e0 09230000 		.4byte	0x2309
 9392 22e4 17       		.uleb128 0x17
 9393 22e5 F1060000 		.4byte	.LASF66
 9394 22e9 01       		.byte	0x1
 9395 22ea 2902     		.2byte	0x229
 9396 22ec 2A       		.byte	0x2a
 9397 22ed 8B040000 		.4byte	0x48b
 9398 22f1 01       		.uleb128 0x1
 9399 22f2 50       		.byte	0x50
 9400 22f3 18       		.uleb128 0x18
 9401 22f4 00000000 		.4byte	.LASF194
 9402 22f8 01       		.byte	0x1
 9403 22f9 2902     		.2byte	0x229
 9404 22fb 39       		.byte	0x39
 9405 22fc A7000000 		.4byte	0xa7
ARM GAS  C:\Users\USER\AppData\Local\Temp\ccNdlOSb.s 			page 166


 9406 2300 5C250000 		.4byte	.LLST6
 9407 2304 58250000 		.4byte	.LVUS6
 9408 2308 00       		.byte	0
 9409 2309 16       		.uleb128 0x16
 9410 230a D8010000 		.4byte	.LASF195
 9411 230e 01       		.byte	0x1
 9412 230f 0E02     		.2byte	0x20e
 9413 2311 06       		.byte	0x6
 9414 2312 00000000 		.4byte	.LFB123
 9415 2316 16000000 		.4byte	.LFE123-.LFB123
 9416 231a 01       		.uleb128 0x1
 9417 231b 9C       		.byte	0x9c
 9418 231c 3F230000 		.4byte	0x233f
 9419 2320 17       		.uleb128 0x17
 9420 2321 F1060000 		.4byte	.LASF66
 9421 2325 01       		.byte	0x1
 9422 2326 0E02     		.2byte	0x20e
 9423 2328 28       		.byte	0x28
 9424 2329 8B040000 		.4byte	0x48b
 9425 232d 01       		.uleb128 0x1
 9426 232e 50       		.byte	0x50
 9427 232f 17       		.uleb128 0x17
 9428 2330 0B000000 		.4byte	.LASF77
 9429 2334 01       		.byte	0x1
 9430 2335 0E02     		.2byte	0x20e
 9431 2337 3E       		.byte	0x3e
 9432 2338 78020000 		.4byte	0x278
 9433 233c 01       		.uleb128 0x1
 9434 233d 51       		.byte	0x51
 9435 233e 00       		.byte	0
 9436 233f 16       		.uleb128 0x16
 9437 2340 190C0000 		.4byte	.LASF196
 9438 2344 01       		.byte	0x1
 9439 2345 F501     		.2byte	0x1f5
 9440 2347 06       		.byte	0x6
 9441 2348 00000000 		.4byte	.LFB122
 9442 234c 16000000 		.4byte	.LFE122-.LFB122
 9443 2350 01       		.uleb128 0x1
 9444 2351 9C       		.byte	0x9c
 9445 2352 75230000 		.4byte	0x2375
 9446 2356 17       		.uleb128 0x17
 9447 2357 F1060000 		.4byte	.LASF66
 9448 235b 01       		.byte	0x1
 9449 235c F501     		.2byte	0x1f5
 9450 235e 2B       		.byte	0x2b
 9451 235f 8B040000 		.4byte	0x48b
 9452 2363 01       		.uleb128 0x1
 9453 2364 50       		.byte	0x50
 9454 2365 17       		.uleb128 0x17
 9455 2366 E8030000 		.4byte	.LASF197
 9456 236a 01       		.byte	0x1
 9457 236b F501     		.2byte	0x1f5
 9458 236d 3A       		.byte	0x3a
 9459 236e A7000000 		.4byte	0xa7
 9460 2372 01       		.uleb128 0x1
 9461 2373 51       		.byte	0x51
 9462 2374 00       		.byte	0
ARM GAS  C:\Users\USER\AppData\Local\Temp\ccNdlOSb.s 			page 167


 9463 2375 16       		.uleb128 0x16
 9464 2376 0C010000 		.4byte	.LASF198
 9465 237a 01       		.byte	0x1
 9466 237b D801     		.2byte	0x1d8
 9467 237d 06       		.byte	0x6
 9468 237e 00000000 		.4byte	.LFB121
 9469 2382 16000000 		.4byte	.LFE121-.LFB121
 9470 2386 01       		.uleb128 0x1
 9471 2387 9C       		.byte	0x9c
 9472 2388 AB230000 		.4byte	0x23ab
 9473 238c 17       		.uleb128 0x17
 9474 238d F1060000 		.4byte	.LASF66
 9475 2391 01       		.byte	0x1
 9476 2392 D801     		.2byte	0x1d8
 9477 2394 2B       		.byte	0x2b
 9478 2395 8B040000 		.4byte	0x48b
 9479 2399 01       		.uleb128 0x1
 9480 239a 50       		.byte	0x50
 9481 239b 17       		.uleb128 0x17
 9482 239c 0B000000 		.4byte	.LASF77
 9483 23a0 01       		.byte	0x1
 9484 23a1 D801     		.2byte	0x1d8
 9485 23a3 41       		.byte	0x41
 9486 23a4 78020000 		.4byte	0x278
 9487 23a8 01       		.uleb128 0x1
 9488 23a9 51       		.byte	0x51
 9489 23aa 00       		.byte	0
 9490 23ab 25       		.uleb128 0x25
 9491 23ac 1E060000 		.4byte	.LASF199
 9492 23b0 01       		.byte	0x1
 9493 23b1 C801     		.2byte	0x1c8
 9494 23b3 0A       		.byte	0xa
 9495 23b4 A7000000 		.4byte	0xa7
 9496 23b8 00000000 		.4byte	.LFB120
 9497 23bc 06000000 		.4byte	.LFE120-.LFB120
 9498 23c0 01       		.uleb128 0x1
 9499 23c1 9C       		.byte	0x9c
 9500 23c2 DC230000 		.4byte	0x23dc
 9501 23c6 18       		.uleb128 0x18
 9502 23c7 F1060000 		.4byte	.LASF66
 9503 23cb 01       		.byte	0x1
 9504 23cc C801     		.2byte	0x1c8
 9505 23ce 28       		.byte	0x28
 9506 23cf 8B040000 		.4byte	0x48b
 9507 23d3 81250000 		.4byte	.LLST5
 9508 23d7 7D250000 		.4byte	.LVUS5
 9509 23db 00       		.byte	0
 9510 23dc 25       		.uleb128 0x25
 9511 23dd 2F060000 		.4byte	.LASF200
 9512 23e1 01       		.byte	0x1
 9513 23e2 BA01     		.2byte	0x1ba
 9514 23e4 0A       		.byte	0xa
 9515 23e5 C4000000 		.4byte	0xc4
 9516 23e9 00000000 		.4byte	.LFB119
 9517 23ed 04000000 		.4byte	.LFE119-.LFB119
 9518 23f1 01       		.uleb128 0x1
 9519 23f2 9C       		.byte	0x9c
ARM GAS  C:\Users\USER\AppData\Local\Temp\ccNdlOSb.s 			page 168


 9520 23f3 0D240000 		.4byte	0x240d
 9521 23f7 18       		.uleb128 0x18
 9522 23f8 F1060000 		.4byte	.LASF66
 9523 23fc 01       		.byte	0x1
 9524 23fd BA01     		.2byte	0x1ba
 9525 23ff 26       		.byte	0x26
 9526 2400 8B040000 		.4byte	0x48b
 9527 2404 A6250000 		.4byte	.LLST4
 9528 2408 A2250000 		.4byte	.LVUS4
 9529 240c 00       		.byte	0
 9530 240d 16       		.uleb128 0x16
 9531 240e 82030000 		.4byte	.LASF201
 9532 2412 01       		.byte	0x1
 9533 2413 AC01     		.2byte	0x1ac
 9534 2415 06       		.byte	0x6
 9535 2416 00000000 		.4byte	.LFB118
 9536 241a 04000000 		.4byte	.LFE118-.LFB118
 9537 241e 01       		.uleb128 0x1
 9538 241f 9C       		.byte	0x9c
 9539 2420 43240000 		.4byte	0x2443
 9540 2424 17       		.uleb128 0x17
 9541 2425 F1060000 		.4byte	.LASF66
 9542 2429 01       		.byte	0x1
 9543 242a AC01     		.2byte	0x1ac
 9544 242c 25       		.byte	0x25
 9545 242d 8B040000 		.4byte	0x48b
 9546 2431 01       		.uleb128 0x1
 9547 2432 50       		.byte	0x50
 9548 2433 17       		.uleb128 0x17
 9549 2434 96000000 		.4byte	.LASF202
 9550 2438 01       		.byte	0x1
 9551 2439 AC01     		.2byte	0x1ac
 9552 243b 34       		.byte	0x34
 9553 243c C4000000 		.4byte	0xc4
 9554 2440 01       		.uleb128 0x1
 9555 2441 51       		.byte	0x51
 9556 2442 00       		.byte	0
 9557 2443 16       		.uleb128 0x16
 9558 2444 060D0000 		.4byte	.LASF203
 9559 2448 01       		.byte	0x1
 9560 2449 9D01     		.2byte	0x19d
 9561 244b 06       		.byte	0x6
 9562 244c 00000000 		.4byte	.LFB117
 9563 2450 04000000 		.4byte	.LFE117-.LFB117
 9564 2454 01       		.uleb128 0x1
 9565 2455 9C       		.byte	0x9c
 9566 2456 79240000 		.4byte	0x2479
 9567 245a 17       		.uleb128 0x17
 9568 245b F1060000 		.4byte	.LASF66
 9569 245f 01       		.byte	0x1
 9570 2460 9D01     		.2byte	0x19d
 9571 2462 22       		.byte	0x22
 9572 2463 8B040000 		.4byte	0x48b
 9573 2467 01       		.uleb128 0x1
 9574 2468 50       		.byte	0x50
 9575 2469 17       		.uleb128 0x17
 9576 246a 30090000 		.4byte	.LASF204
ARM GAS  C:\Users\USER\AppData\Local\Temp\ccNdlOSb.s 			page 169


 9577 246e 01       		.byte	0x1
 9578 246f 9D01     		.2byte	0x19d
 9579 2471 31       		.byte	0x31
 9580 2472 C4000000 		.4byte	0xc4
 9581 2476 01       		.uleb128 0x1
 9582 2477 51       		.byte	0x51
 9583 2478 00       		.byte	0
 9584 2479 16       		.uleb128 0x16
 9585 247a 84020000 		.4byte	.LASF205
 9586 247e 01       		.byte	0x1
 9587 247f 8301     		.2byte	0x183
 9588 2481 06       		.byte	0x6
 9589 2482 00000000 		.4byte	.LFB116
 9590 2486 0E000000 		.4byte	.LFE116-.LFB116
 9591 248a 01       		.uleb128 0x1
 9592 248b 9C       		.byte	0x9c
 9593 248c CA240000 		.4byte	0x24ca
 9594 2490 17       		.uleb128 0x17
 9595 2491 F1060000 		.4byte	.LASF66
 9596 2495 01       		.byte	0x1
 9597 2496 8301     		.2byte	0x183
 9598 2498 29       		.byte	0x29
 9599 2499 8B040000 		.4byte	0x48b
 9600 249d 01       		.uleb128 0x1
 9601 249e 50       		.byte	0x50
 9602 249f 18       		.uleb128 0x18
 9603 24a0 86000000 		.4byte	.LASF38
 9604 24a4 01       		.byte	0x1
 9605 24a5 8301     		.2byte	0x183
 9606 24a7 38       		.byte	0x38
 9607 24a8 A7000000 		.4byte	0xa7
 9608 24ac CB250000 		.4byte	.LLST2
 9609 24b0 C7250000 		.4byte	.LVUS2
 9610 24b4 19       		.uleb128 0x19
 9611 24b5 60010000 		.4byte	.LASF206
 9612 24b9 01       		.byte	0x1
 9613 24ba 8501     		.2byte	0x185
 9614 24bc 0C       		.byte	0xc
 9615 24bd A7000000 		.4byte	0xa7
 9616 24c1 F6250000 		.4byte	.LLST3
 9617 24c5 EC250000 		.4byte	.LVUS3
 9618 24c9 00       		.byte	0
 9619 24ca 16       		.uleb128 0x16
 9620 24cb 530A0000 		.4byte	.LASF207
 9621 24cf 01       		.byte	0x1
 9622 24d0 6C01     		.2byte	0x16c
 9623 24d2 06       		.byte	0x6
 9624 24d3 00000000 		.4byte	.LFB115
 9625 24d7 06000000 		.4byte	.LFE115-.LFB115
 9626 24db 01       		.uleb128 0x1
 9627 24dc 9C       		.byte	0x9c
 9628 24dd 0F250000 		.4byte	0x250f
 9629 24e1 17       		.uleb128 0x17
 9630 24e2 F1060000 		.4byte	.LASF66
 9631 24e6 01       		.byte	0x1
 9632 24e7 6C01     		.2byte	0x16c
 9633 24e9 27       		.byte	0x27
ARM GAS  C:\Users\USER\AppData\Local\Temp\ccNdlOSb.s 			page 170


 9634 24ea 8B040000 		.4byte	0x48b
 9635 24ee 01       		.uleb128 0x1
 9636 24ef 50       		.byte	0x50
 9637 24f0 17       		.uleb128 0x17
 9638 24f1 310C0000 		.4byte	.LASF208
 9639 24f5 01       		.byte	0x1
 9640 24f6 6C01     		.2byte	0x16c
 9641 24f8 36       		.byte	0x36
 9642 24f9 A7000000 		.4byte	0xa7
 9643 24fd 01       		.uleb128 0x1
 9644 24fe 51       		.byte	0x51
 9645 24ff 17       		.uleb128 0x17
 9646 2500 95070000 		.4byte	.LASF209
 9647 2504 01       		.byte	0x1
 9648 2505 6C01     		.2byte	0x16c
 9649 2507 4A       		.byte	0x4a
 9650 2508 A7000000 		.4byte	0xa7
 9651 250c 01       		.uleb128 0x1
 9652 250d 52       		.byte	0x52
 9653 250e 00       		.byte	0
 9654 250f 16       		.uleb128 0x16
 9655 2510 3E060000 		.4byte	.LASF210
 9656 2514 01       		.byte	0x1
 9657 2515 5801     		.2byte	0x158
 9658 2517 06       		.byte	0x6
 9659 2518 00000000 		.4byte	.LFB114
 9660 251c 10000000 		.4byte	.LFE114-.LFB114
 9661 2520 01       		.uleb128 0x1
 9662 2521 9C       		.byte	0x9c
 9663 2522 36250000 		.4byte	0x2536
 9664 2526 17       		.uleb128 0x17
 9665 2527 E5080000 		.4byte	.LASF211
 9666 252b 01       		.byte	0x1
 9667 252c 5801     		.2byte	0x158
 9668 252e 36       		.byte	0x36
 9669 252f 36250000 		.4byte	0x2536
 9670 2533 01       		.uleb128 0x1
 9671 2534 50       		.byte	0x50
 9672 2535 00       		.byte	0
 9673 2536 15       		.uleb128 0x15
 9674 2537 04       		.byte	0x4
 9675 2538 CF020000 		.4byte	0x2cf
 9676 253c 16       		.uleb128 0x16
 9677 253d BB0A0000 		.4byte	.LASF212
 9678 2541 01       		.byte	0x1
 9679 2542 2401     		.2byte	0x124
 9680 2544 06       		.byte	0x6
 9681 2545 00000000 		.4byte	.LFB113
 9682 2549 94000000 		.4byte	.LFE113-.LFB113
 9683 254d 01       		.uleb128 0x1
 9684 254e 9C       		.byte	0x9c
 9685 254f 87250000 		.4byte	0x2587
 9686 2553 17       		.uleb128 0x17
 9687 2554 F1060000 		.4byte	.LASF66
 9688 2558 01       		.byte	0x1
 9689 2559 2401     		.2byte	0x124
 9690 255b 24       		.byte	0x24
ARM GAS  C:\Users\USER\AppData\Local\Temp\ccNdlOSb.s 			page 171


 9691 255c 8B040000 		.4byte	0x48b
 9692 2560 01       		.uleb128 0x1
 9693 2561 50       		.byte	0x50
 9694 2562 17       		.uleb128 0x17
 9695 2563 E5080000 		.4byte	.LASF211
 9696 2567 01       		.byte	0x1
 9697 2568 2401     		.2byte	0x124
 9698 256a 43       		.byte	0x43
 9699 256b 36250000 		.4byte	0x2536
 9700 256f 01       		.uleb128 0x1
 9701 2570 51       		.byte	0x51
 9702 2571 19       		.uleb128 0x19
 9703 2572 60010000 		.4byte	.LASF206
 9704 2576 01       		.byte	0x1
 9705 2577 2601     		.2byte	0x126
 9706 2579 0C       		.byte	0xc
 9707 257a A7000000 		.4byte	0xa7
 9708 257e 4B260000 		.4byte	.LLST1
 9709 2582 41260000 		.4byte	.LVUS1
 9710 2586 00       		.byte	0
 9711 2587 27       		.uleb128 0x27
 9712 2588 EE0D0000 		.4byte	.LASF213
 9713 258c 01       		.byte	0x1
 9714 258d CC       		.byte	0xcc
 9715 258e 06       		.byte	0x6
 9716 258f 00000000 		.4byte	.LFB112
 9717 2593 B8010000 		.4byte	.LFE112-.LFB112
 9718 2597 01       		.uleb128 0x1
 9719 2598 9C       		.byte	0x9c
 9720 2599 64280000 		.4byte	0x2864
 9721 259d 28       		.uleb128 0x28
 9722 259e F1060000 		.4byte	.LASF66
 9723 25a2 01       		.byte	0x1
 9724 25a3 CC       		.byte	0xcc
 9725 25a4 1E       		.byte	0x1e
 9726 25a5 8B040000 		.4byte	0x48b
 9727 25a9 CA260000 		.4byte	.LLST0
 9728 25ad 92260000 		.4byte	.LVUS0
 9729 25b1 29       		.uleb128 0x29
 9730 25b2 64000000 		.4byte	.LVL2
 9731 25b6 AA290000 		.4byte	0x29aa
 9732 25ba C9250000 		.4byte	0x25c9
 9733 25be 2A       		.uleb128 0x2a
 9734 25bf 01       		.uleb128 0x1
 9735 25c0 50       		.byte	0x50
 9736 25c1 01       		.uleb128 0x1
 9737 25c2 34       		.byte	0x34
 9738 25c3 2A       		.uleb128 0x2a
 9739 25c4 01       		.uleb128 0x1
 9740 25c5 51       		.byte	0x51
 9741 25c6 01       		.uleb128 0x1
 9742 25c7 31       		.byte	0x31
 9743 25c8 00       		.byte	0
 9744 25c9 2B       		.uleb128 0x2b
 9745 25ca 70000000 		.4byte	.LVL3
 9746 25ce AA290000 		.4byte	0x29aa
 9747 25d2 E1250000 		.4byte	0x25e1
ARM GAS  C:\Users\USER\AppData\Local\Temp\ccNdlOSb.s 			page 172


 9748 25d6 2A       		.uleb128 0x2a
 9749 25d7 01       		.uleb128 0x1
 9750 25d8 50       		.byte	0x50
 9751 25d9 01       		.uleb128 0x1
 9752 25da 34       		.byte	0x34
 9753 25db 2A       		.uleb128 0x2a
 9754 25dc 01       		.uleb128 0x1
 9755 25dd 51       		.byte	0x51
 9756 25de 01       		.uleb128 0x1
 9757 25df 30       		.byte	0x30
 9758 25e0 00       		.byte	0
 9759 25e1 29       		.uleb128 0x29
 9760 25e2 78000000 		.4byte	.LVL5
 9761 25e6 B7290000 		.4byte	0x29b7
 9762 25ea F9250000 		.4byte	0x25f9
 9763 25ee 2A       		.uleb128 0x2a
 9764 25ef 01       		.uleb128 0x1
 9765 25f0 50       		.byte	0x50
 9766 25f1 01       		.uleb128 0x1
 9767 25f2 31       		.byte	0x31
 9768 25f3 2A       		.uleb128 0x2a
 9769 25f4 01       		.uleb128 0x1
 9770 25f5 51       		.byte	0x51
 9771 25f6 01       		.uleb128 0x1
 9772 25f7 31       		.byte	0x31
 9773 25f8 00       		.byte	0
 9774 25f9 2B       		.uleb128 0x2b
 9775 25fa 84000000 		.4byte	.LVL6
 9776 25fe B7290000 		.4byte	0x29b7
 9777 2602 11260000 		.4byte	0x2611
 9778 2606 2A       		.uleb128 0x2a
 9779 2607 01       		.uleb128 0x1
 9780 2608 50       		.byte	0x50
 9781 2609 01       		.uleb128 0x1
 9782 260a 31       		.byte	0x31
 9783 260b 2A       		.uleb128 0x2a
 9784 260c 01       		.uleb128 0x1
 9785 260d 51       		.byte	0x51
 9786 260e 01       		.uleb128 0x1
 9787 260f 30       		.byte	0x30
 9788 2610 00       		.byte	0
 9789 2611 29       		.uleb128 0x29
 9790 2612 8C000000 		.4byte	.LVL8
 9791 2616 AA290000 		.4byte	0x29aa
 9792 261a 29260000 		.4byte	0x2629
 9793 261e 2A       		.uleb128 0x2a
 9794 261f 01       		.uleb128 0x1
 9795 2620 50       		.byte	0x50
 9796 2621 01       		.uleb128 0x1
 9797 2622 31       		.byte	0x31
 9798 2623 2A       		.uleb128 0x2a
 9799 2624 01       		.uleb128 0x1
 9800 2625 51       		.byte	0x51
 9801 2626 01       		.uleb128 0x1
 9802 2627 31       		.byte	0x31
 9803 2628 00       		.byte	0
 9804 2629 2B       		.uleb128 0x2b
ARM GAS  C:\Users\USER\AppData\Local\Temp\ccNdlOSb.s 			page 173


 9805 262a 98000000 		.4byte	.LVL9
 9806 262e AA290000 		.4byte	0x29aa
 9807 2632 41260000 		.4byte	0x2641
 9808 2636 2A       		.uleb128 0x2a
 9809 2637 01       		.uleb128 0x1
 9810 2638 50       		.byte	0x50
 9811 2639 01       		.uleb128 0x1
 9812 263a 31       		.byte	0x31
 9813 263b 2A       		.uleb128 0x2a
 9814 263c 01       		.uleb128 0x1
 9815 263d 51       		.byte	0x51
 9816 263e 01       		.uleb128 0x1
 9817 263f 30       		.byte	0x30
 9818 2640 00       		.byte	0
 9819 2641 29       		.uleb128 0x29
 9820 2642 A0000000 		.4byte	.LVL11
 9821 2646 AA290000 		.4byte	0x29aa
 9822 264a 59260000 		.4byte	0x2659
 9823 264e 2A       		.uleb128 0x2a
 9824 264f 01       		.uleb128 0x1
 9825 2650 50       		.byte	0x50
 9826 2651 01       		.uleb128 0x1
 9827 2652 32       		.byte	0x32
 9828 2653 2A       		.uleb128 0x2a
 9829 2654 01       		.uleb128 0x1
 9830 2655 51       		.byte	0x51
 9831 2656 01       		.uleb128 0x1
 9832 2657 31       		.byte	0x31
 9833 2658 00       		.byte	0
 9834 2659 2B       		.uleb128 0x2b
 9835 265a AC000000 		.4byte	.LVL12
 9836 265e AA290000 		.4byte	0x29aa
 9837 2662 71260000 		.4byte	0x2671
 9838 2666 2A       		.uleb128 0x2a
 9839 2667 01       		.uleb128 0x1
 9840 2668 50       		.byte	0x50
 9841 2669 01       		.uleb128 0x1
 9842 266a 32       		.byte	0x32
 9843 266b 2A       		.uleb128 0x2a
 9844 266c 01       		.uleb128 0x1
 9845 266d 51       		.byte	0x51
 9846 266e 01       		.uleb128 0x1
 9847 266f 30       		.byte	0x30
 9848 2670 00       		.byte	0
 9849 2671 29       		.uleb128 0x29
 9850 2672 B4000000 		.4byte	.LVL14
 9851 2676 AA290000 		.4byte	0x29aa
 9852 267a 89260000 		.4byte	0x2689
 9853 267e 2A       		.uleb128 0x2a
 9854 267f 01       		.uleb128 0x1
 9855 2680 50       		.byte	0x50
 9856 2681 01       		.uleb128 0x1
 9857 2682 38       		.byte	0x38
 9858 2683 2A       		.uleb128 0x2a
 9859 2684 01       		.uleb128 0x1
 9860 2685 51       		.byte	0x51
 9861 2686 01       		.uleb128 0x1
ARM GAS  C:\Users\USER\AppData\Local\Temp\ccNdlOSb.s 			page 174


 9862 2687 31       		.byte	0x31
 9863 2688 00       		.byte	0
 9864 2689 2B       		.uleb128 0x2b
 9865 268a C0000000 		.4byte	.LVL15
 9866 268e AA290000 		.4byte	0x29aa
 9867 2692 A1260000 		.4byte	0x26a1
 9868 2696 2A       		.uleb128 0x2a
 9869 2697 01       		.uleb128 0x1
 9870 2698 50       		.byte	0x50
 9871 2699 01       		.uleb128 0x1
 9872 269a 38       		.byte	0x38
 9873 269b 2A       		.uleb128 0x2a
 9874 269c 01       		.uleb128 0x1
 9875 269d 51       		.byte	0x51
 9876 269e 01       		.uleb128 0x1
 9877 269f 30       		.byte	0x30
 9878 26a0 00       		.byte	0
 9879 26a1 29       		.uleb128 0x29
 9880 26a2 C8000000 		.4byte	.LVL17
 9881 26a6 AA290000 		.4byte	0x29aa
 9882 26aa B9260000 		.4byte	0x26b9
 9883 26ae 2A       		.uleb128 0x2a
 9884 26af 01       		.uleb128 0x1
 9885 26b0 50       		.byte	0x50
 9886 26b1 01       		.uleb128 0x1
 9887 26b2 40       		.byte	0x40
 9888 26b3 2A       		.uleb128 0x2a
 9889 26b4 01       		.uleb128 0x1
 9890 26b5 51       		.byte	0x51
 9891 26b6 01       		.uleb128 0x1
 9892 26b7 31       		.byte	0x31
 9893 26b8 00       		.byte	0
 9894 26b9 2B       		.uleb128 0x2b
 9895 26ba D4000000 		.4byte	.LVL18
 9896 26be AA290000 		.4byte	0x29aa
 9897 26c2 D1260000 		.4byte	0x26d1
 9898 26c6 2A       		.uleb128 0x2a
 9899 26c7 01       		.uleb128 0x1
 9900 26c8 50       		.byte	0x50
 9901 26c9 01       		.uleb128 0x1
 9902 26ca 40       		.byte	0x40
 9903 26cb 2A       		.uleb128 0x2a
 9904 26cc 01       		.uleb128 0x1
 9905 26cd 51       		.byte	0x51
 9906 26ce 01       		.uleb128 0x1
 9907 26cf 30       		.byte	0x30
 9908 26d0 00       		.byte	0
 9909 26d1 29       		.uleb128 0x29
 9910 26d2 DC000000 		.4byte	.LVL20
 9911 26d6 AA290000 		.4byte	0x29aa
 9912 26da EA260000 		.4byte	0x26ea
 9913 26de 2A       		.uleb128 0x2a
 9914 26df 01       		.uleb128 0x1
 9915 26e0 50       		.byte	0x50
 9916 26e1 02       		.uleb128 0x2
 9917 26e2 08       		.byte	0x8
 9918 26e3 20       		.byte	0x20
ARM GAS  C:\Users\USER\AppData\Local\Temp\ccNdlOSb.s 			page 175


 9919 26e4 2A       		.uleb128 0x2a
 9920 26e5 01       		.uleb128 0x1
 9921 26e6 51       		.byte	0x51
 9922 26e7 01       		.uleb128 0x1
 9923 26e8 31       		.byte	0x31
 9924 26e9 00       		.byte	0
 9925 26ea 2B       		.uleb128 0x2b
 9926 26eb E8000000 		.4byte	.LVL21
 9927 26ef AA290000 		.4byte	0x29aa
 9928 26f3 03270000 		.4byte	0x2703
 9929 26f7 2A       		.uleb128 0x2a
 9930 26f8 01       		.uleb128 0x1
 9931 26f9 50       		.byte	0x50
 9932 26fa 02       		.uleb128 0x2
 9933 26fb 08       		.byte	0x8
 9934 26fc 20       		.byte	0x20
 9935 26fd 2A       		.uleb128 0x2a
 9936 26fe 01       		.uleb128 0x1
 9937 26ff 51       		.byte	0x51
 9938 2700 01       		.uleb128 0x1
 9939 2701 30       		.byte	0x30
 9940 2702 00       		.byte	0
 9941 2703 29       		.uleb128 0x29
 9942 2704 F2000000 		.4byte	.LVL23
 9943 2708 B7290000 		.4byte	0x29b7
 9944 270c 1D270000 		.4byte	0x271d
 9945 2710 2A       		.uleb128 0x2a
 9946 2711 01       		.uleb128 0x1
 9947 2712 50       		.byte	0x50
 9948 2713 03       		.uleb128 0x3
 9949 2714 40       		.byte	0x40
 9950 2715 3C       		.byte	0x3c
 9951 2716 24       		.byte	0x24
 9952 2717 2A       		.uleb128 0x2a
 9953 2718 01       		.uleb128 0x1
 9954 2719 51       		.byte	0x51
 9955 271a 01       		.uleb128 0x1
 9956 271b 31       		.byte	0x31
 9957 271c 00       		.byte	0
 9958 271d 2B       		.uleb128 0x2b
 9959 271e 00010000 		.4byte	.LVL24
 9960 2722 B7290000 		.4byte	0x29b7
 9961 2726 37270000 		.4byte	0x2737
 9962 272a 2A       		.uleb128 0x2a
 9963 272b 01       		.uleb128 0x1
 9964 272c 50       		.byte	0x50
 9965 272d 03       		.uleb128 0x3
 9966 272e 40       		.byte	0x40
 9967 272f 3C       		.byte	0x3c
 9968 2730 24       		.byte	0x24
 9969 2731 2A       		.uleb128 0x2a
 9970 2732 01       		.uleb128 0x1
 9971 2733 51       		.byte	0x51
 9972 2734 01       		.uleb128 0x1
 9973 2735 30       		.byte	0x30
 9974 2736 00       		.byte	0
 9975 2737 29       		.uleb128 0x29
ARM GAS  C:\Users\USER\AppData\Local\Temp\ccNdlOSb.s 			page 176


 9976 2738 08010000 		.4byte	.LVL26
 9977 273c B7290000 		.4byte	0x29b7
 9978 2740 4F270000 		.4byte	0x274f
 9979 2744 2A       		.uleb128 0x2a
 9980 2745 01       		.uleb128 0x1
 9981 2746 50       		.byte	0x50
 9982 2747 01       		.uleb128 0x1
 9983 2748 32       		.byte	0x32
 9984 2749 2A       		.uleb128 0x2a
 9985 274a 01       		.uleb128 0x1
 9986 274b 51       		.byte	0x51
 9987 274c 01       		.uleb128 0x1
 9988 274d 31       		.byte	0x31
 9989 274e 00       		.byte	0
 9990 274f 2B       		.uleb128 0x2b
 9991 2750 14010000 		.4byte	.LVL27
 9992 2754 B7290000 		.4byte	0x29b7
 9993 2758 67270000 		.4byte	0x2767
 9994 275c 2A       		.uleb128 0x2a
 9995 275d 01       		.uleb128 0x1
 9996 275e 50       		.byte	0x50
 9997 275f 01       		.uleb128 0x1
 9998 2760 32       		.byte	0x32
 9999 2761 2A       		.uleb128 0x2a
 10000 2762 01       		.uleb128 0x1
 10001 2763 51       		.byte	0x51
 10002 2764 01       		.uleb128 0x1
 10003 2765 30       		.byte	0x30
 10004 2766 00       		.byte	0
 10005 2767 29       		.uleb128 0x29
 10006 2768 1E010000 		.4byte	.LVL29
 10007 276c B7290000 		.4byte	0x29b7
 10008 2770 81270000 		.4byte	0x2781
 10009 2774 2A       		.uleb128 0x2a
 10010 2775 01       		.uleb128 0x1
 10011 2776 50       		.byte	0x50
 10012 2777 03       		.uleb128 0x3
 10013 2778 40       		.byte	0x40
 10014 2779 3D       		.byte	0x3d
 10015 277a 24       		.byte	0x24
 10016 277b 2A       		.uleb128 0x2a
 10017 277c 01       		.uleb128 0x1
 10018 277d 51       		.byte	0x51
 10019 277e 01       		.uleb128 0x1
 10020 277f 31       		.byte	0x31
 10021 2780 00       		.byte	0
 10022 2781 2B       		.uleb128 0x2b
 10023 2782 2C010000 		.4byte	.LVL30
 10024 2786 B7290000 		.4byte	0x29b7
 10025 278a 9B270000 		.4byte	0x279b
 10026 278e 2A       		.uleb128 0x2a
 10027 278f 01       		.uleb128 0x1
 10028 2790 50       		.byte	0x50
 10029 2791 03       		.uleb128 0x3
 10030 2792 40       		.byte	0x40
 10031 2793 3D       		.byte	0x3d
 10032 2794 24       		.byte	0x24
ARM GAS  C:\Users\USER\AppData\Local\Temp\ccNdlOSb.s 			page 177


 10033 2795 2A       		.uleb128 0x2a
 10034 2796 01       		.uleb128 0x1
 10035 2797 51       		.byte	0x51
 10036 2798 01       		.uleb128 0x1
 10037 2799 30       		.byte	0x30
 10038 279a 00       		.byte	0
 10039 279b 29       		.uleb128 0x29
 10040 279c 36010000 		.4byte	.LVL32
 10041 27a0 B7290000 		.4byte	0x29b7
 10042 27a4 B5270000 		.4byte	0x27b5
 10043 27a8 2A       		.uleb128 0x2a
 10044 27a9 01       		.uleb128 0x1
 10045 27aa 50       		.byte	0x50
 10046 27ab 03       		.uleb128 0x3
 10047 27ac 40       		.byte	0x40
 10048 27ad 3E       		.byte	0x3e
 10049 27ae 24       		.byte	0x24
 10050 27af 2A       		.uleb128 0x2a
 10051 27b0 01       		.uleb128 0x1
 10052 27b1 51       		.byte	0x51
 10053 27b2 01       		.uleb128 0x1
 10054 27b3 31       		.byte	0x31
 10055 27b4 00       		.byte	0
 10056 27b5 2B       		.uleb128 0x2b
 10057 27b6 44010000 		.4byte	.LVL33
 10058 27ba B7290000 		.4byte	0x29b7
 10059 27be CF270000 		.4byte	0x27cf
 10060 27c2 2A       		.uleb128 0x2a
 10061 27c3 01       		.uleb128 0x1
 10062 27c4 50       		.byte	0x50
 10063 27c5 03       		.uleb128 0x3
 10064 27c6 40       		.byte	0x40
 10065 27c7 3E       		.byte	0x3e
 10066 27c8 24       		.byte	0x24
 10067 27c9 2A       		.uleb128 0x2a
 10068 27ca 01       		.uleb128 0x1
 10069 27cb 51       		.byte	0x51
 10070 27cc 01       		.uleb128 0x1
 10071 27cd 30       		.byte	0x30
 10072 27ce 00       		.byte	0
 10073 27cf 29       		.uleb128 0x29
 10074 27d0 4C010000 		.4byte	.LVL35
 10075 27d4 AA290000 		.4byte	0x29aa
 10076 27d8 E8270000 		.4byte	0x27e8
 10077 27dc 2A       		.uleb128 0x2a
 10078 27dd 01       		.uleb128 0x1
 10079 27de 50       		.byte	0x50
 10080 27df 02       		.uleb128 0x2
 10081 27e0 08       		.byte	0x8
 10082 27e1 40       		.byte	0x40
 10083 27e2 2A       		.uleb128 0x2a
 10084 27e3 01       		.uleb128 0x1
 10085 27e4 51       		.byte	0x51
 10086 27e5 01       		.uleb128 0x1
 10087 27e6 31       		.byte	0x31
 10088 27e7 00       		.byte	0
 10089 27e8 2B       		.uleb128 0x2b
ARM GAS  C:\Users\USER\AppData\Local\Temp\ccNdlOSb.s 			page 178


 10090 27e9 58010000 		.4byte	.LVL36
 10091 27ed AA290000 		.4byte	0x29aa
 10092 27f1 01280000 		.4byte	0x2801
 10093 27f5 2A       		.uleb128 0x2a
 10094 27f6 01       		.uleb128 0x1
 10095 27f7 50       		.byte	0x50
 10096 27f8 02       		.uleb128 0x2
 10097 27f9 08       		.byte	0x8
 10098 27fa 40       		.byte	0x40
 10099 27fb 2A       		.uleb128 0x2a
 10100 27fc 01       		.uleb128 0x1
 10101 27fd 51       		.byte	0x51
 10102 27fe 01       		.uleb128 0x1
 10103 27ff 30       		.byte	0x30
 10104 2800 00       		.byte	0
 10105 2801 29       		.uleb128 0x29
 10106 2802 60010000 		.4byte	.LVL38
 10107 2806 AA290000 		.4byte	0x29aa
 10108 280a 1A280000 		.4byte	0x281a
 10109 280e 2A       		.uleb128 0x2a
 10110 280f 01       		.uleb128 0x1
 10111 2810 50       		.byte	0x50
 10112 2811 02       		.uleb128 0x2
 10113 2812 08       		.byte	0x8
 10114 2813 80       		.byte	0x80
 10115 2814 2A       		.uleb128 0x2a
 10116 2815 01       		.uleb128 0x1
 10117 2816 51       		.byte	0x51
 10118 2817 01       		.uleb128 0x1
 10119 2818 31       		.byte	0x31
 10120 2819 00       		.byte	0
 10121 281a 2B       		.uleb128 0x2b
 10122 281b 6C010000 		.4byte	.LVL39
 10123 281f AA290000 		.4byte	0x29aa
 10124 2823 33280000 		.4byte	0x2833
 10125 2827 2A       		.uleb128 0x2a
 10126 2828 01       		.uleb128 0x1
 10127 2829 50       		.byte	0x50
 10128 282a 02       		.uleb128 0x2
 10129 282b 08       		.byte	0x8
 10130 282c 80       		.byte	0x80
 10131 282d 2A       		.uleb128 0x2a
 10132 282e 01       		.uleb128 0x1
 10133 282f 51       		.byte	0x51
 10134 2830 01       		.uleb128 0x1
 10135 2831 30       		.byte	0x30
 10136 2832 00       		.byte	0
 10137 2833 29       		.uleb128 0x29
 10138 2834 76010000 		.4byte	.LVL41
 10139 2838 AA290000 		.4byte	0x29aa
 10140 283c 4D280000 		.4byte	0x284d
 10141 2840 2A       		.uleb128 0x2a
 10142 2841 01       		.uleb128 0x1
 10143 2842 50       		.byte	0x50
 10144 2843 03       		.uleb128 0x3
 10145 2844 0A       		.byte	0xa
 10146 2845 0001     		.2byte	0x100
ARM GAS  C:\Users\USER\AppData\Local\Temp\ccNdlOSb.s 			page 179


 10147 2847 2A       		.uleb128 0x2a
 10148 2848 01       		.uleb128 0x1
 10149 2849 51       		.byte	0x51
 10150 284a 01       		.uleb128 0x1
 10151 284b 31       		.byte	0x31
 10152 284c 00       		.byte	0
 10153 284d 2C       		.uleb128 0x2c
 10154 284e 84010000 		.4byte	.LVL42
 10155 2852 AA290000 		.4byte	0x29aa
 10156 2856 2A       		.uleb128 0x2a
 10157 2857 01       		.uleb128 0x1
 10158 2858 50       		.byte	0x50
 10159 2859 03       		.uleb128 0x3
 10160 285a 0A       		.byte	0xa
 10161 285b 0001     		.2byte	0x100
 10162 285d 2A       		.uleb128 0x2a
 10163 285e 01       		.uleb128 0x1
 10164 285f 51       		.byte	0x51
 10165 2860 01       		.uleb128 0x1
 10166 2861 30       		.byte	0x30
 10167 2862 00       		.byte	0
 10168 2863 00       		.byte	0
 10169 2864 2D       		.uleb128 0x2d
 10170 2865 A90F0000 		.4byte	0xfa9
 10171 2869 00000000 		.4byte	.LFB169
 10172 286d 12000000 		.4byte	.LFE169-.LFB169
 10173 2871 01       		.uleb128 0x1
 10174 2872 9C       		.byte	0x9c
 10175 2873 8C280000 		.4byte	0x288c
 10176 2877 2E       		.uleb128 0x2e
 10177 2878 B70F0000 		.4byte	0xfb7
 10178 287c 01       		.uleb128 0x1
 10179 287d 50       		.byte	0x50
 10180 287e 1C       		.uleb128 0x1c
 10181 287f C40F0000 		.4byte	0xfc4
 10182 2883 34280000 		.4byte	.LLST158
 10183 2887 30280000 		.4byte	.LVUS158
 10184 288b 00       		.byte	0
 10185 288c 2D       		.uleb128 0x2d
 10186 288d 800F0000 		.4byte	0xf80
 10187 2891 00000000 		.4byte	.LFB170
 10188 2895 16000000 		.4byte	.LFE170-.LFB170
 10189 2899 01       		.uleb128 0x1
 10190 289a 9C       		.byte	0x9c
 10191 289b B4280000 		.4byte	0x28b4
 10192 289f 2E       		.uleb128 0x2e
 10193 28a0 8E0F0000 		.4byte	0xf8e
 10194 28a4 01       		.uleb128 0x1
 10195 28a5 50       		.byte	0x50
 10196 28a6 1C       		.uleb128 0x1c
 10197 28a7 9B0F0000 		.4byte	0xf9b
 10198 28ab 59280000 		.4byte	.LLST159
 10199 28af 55280000 		.4byte	.LVUS159
 10200 28b3 00       		.byte	0
 10201 28b4 2D       		.uleb128 0x2d
 10202 28b5 570F0000 		.4byte	0xf57
 10203 28b9 00000000 		.4byte	.LFB171
ARM GAS  C:\Users\USER\AppData\Local\Temp\ccNdlOSb.s 			page 180


 10204 28bd 12000000 		.4byte	.LFE171-.LFB171
 10205 28c1 01       		.uleb128 0x1
 10206 28c2 9C       		.byte	0x9c
 10207 28c3 DC280000 		.4byte	0x28dc
 10208 28c7 2E       		.uleb128 0x2e
 10209 28c8 650F0000 		.4byte	0xf65
 10210 28cc 01       		.uleb128 0x1
 10211 28cd 50       		.byte	0x50
 10212 28ce 1C       		.uleb128 0x1c
 10213 28cf 720F0000 		.4byte	0xf72
 10214 28d3 7E280000 		.4byte	.LLST160
 10215 28d7 7A280000 		.4byte	.LVUS160
 10216 28db 00       		.byte	0
 10217 28dc 2D       		.uleb128 0x2d
 10218 28dd 2E0F0000 		.4byte	0xf2e
 10219 28e1 00000000 		.4byte	.LFB172
 10220 28e5 16000000 		.4byte	.LFE172-.LFB172
 10221 28e9 01       		.uleb128 0x1
 10222 28ea 9C       		.byte	0x9c
 10223 28eb 04290000 		.4byte	0x2904
 10224 28ef 2E       		.uleb128 0x2e
 10225 28f0 3C0F0000 		.4byte	0xf3c
 10226 28f4 01       		.uleb128 0x1
 10227 28f5 50       		.byte	0x50
 10228 28f6 1C       		.uleb128 0x1c
 10229 28f7 490F0000 		.4byte	0xf49
 10230 28fb A3280000 		.4byte	.LLST161
 10231 28ff 9F280000 		.4byte	.LVUS161
 10232 2903 00       		.byte	0
 10233 2904 2D       		.uleb128 0x2d
 10234 2905 2A0D0000 		.4byte	0xd2a
 10235 2909 00000000 		.4byte	.LFB181
 10236 290d 08000000 		.4byte	.LFE181-.LFB181
 10237 2911 01       		.uleb128 0x1
 10238 2912 9C       		.byte	0x9c
 10239 2913 2C290000 		.4byte	0x292c
 10240 2917 2E       		.uleb128 0x2e
 10241 2918 380D0000 		.4byte	0xd38
 10242 291c 01       		.uleb128 0x1
 10243 291d 50       		.byte	0x50
 10244 291e 1C       		.uleb128 0x1c
 10245 291f 450D0000 		.4byte	0xd45
 10246 2923 C8280000 		.4byte	.LLST165
 10247 2927 C4280000 		.4byte	.LVUS165
 10248 292b 00       		.byte	0
 10249 292c 2D       		.uleb128 0x2d
 10250 292d D1070000 		.4byte	0x7d1
 10251 2931 00000000 		.4byte	.LFB192
 10252 2935 0E000000 		.4byte	.LFE192-.LFB192
 10253 2939 01       		.uleb128 0x1
 10254 293a 9C       		.byte	0x9c
 10255 293b 61290000 		.4byte	0x2961
 10256 293f 2E       		.uleb128 0x2e
 10257 2940 DF070000 		.4byte	0x7df
 10258 2944 01       		.uleb128 0x1
 10259 2945 50       		.byte	0x50
 10260 2946 1C       		.uleb128 0x1c
ARM GAS  C:\Users\USER\AppData\Local\Temp\ccNdlOSb.s 			page 181


 10261 2947 EC070000 		.4byte	0x7ec
 10262 294b ED280000 		.4byte	.LLST208
 10263 294f E9280000 		.4byte	.LVUS208
 10264 2953 1E       		.uleb128 0x1e
 10265 2954 F9070000 		.4byte	0x7f9
 10266 2958 18290000 		.4byte	.LLST209
 10267 295c 0E290000 		.4byte	.LVUS209
 10268 2960 00       		.byte	0
 10269 2961 2D       		.uleb128 0x2d
 10270 2962 CD060000 		.4byte	0x6cd
 10271 2966 00000000 		.4byte	.LFB196
 10272 296a 18000000 		.4byte	.LFE196-.LFB196
 10273 296e 01       		.uleb128 0x1
 10274 296f 9C       		.byte	0x9c
 10275 2970 AA290000 		.4byte	0x29aa
 10276 2974 2E       		.uleb128 0x2e
 10277 2975 DB060000 		.4byte	0x6db
 10278 2979 01       		.uleb128 0x1
 10279 297a 50       		.byte	0x50
 10280 297b 2E       		.uleb128 0x2e
 10281 297c E8060000 		.4byte	0x6e8
 10282 2980 01       		.uleb128 0x1
 10283 2981 51       		.byte	0x51
 10284 2982 1C       		.uleb128 0x1c
 10285 2983 F5060000 		.4byte	0x6f5
 10286 2987 67290000 		.4byte	.LLST213
 10287 298b 63290000 		.4byte	.LVUS213
 10288 298f 1C       		.uleb128 0x1c
 10289 2990 02070000 		.4byte	0x702
 10290 2994 8C290000 		.4byte	.LLST214
 10291 2998 88290000 		.4byte	.LVUS214
 10292 299c 1E       		.uleb128 0x1e
 10293 299d 0F070000 		.4byte	0x70f
 10294 29a1 B3290000 		.4byte	.LLST215
 10295 29a5 AD290000 		.4byte	.LVUS215
 10296 29a9 00       		.byte	0
 10297 29aa 2F       		.uleb128 0x2f
 10298 29ab 37010000 		.4byte	.LASF214
 10299 29af 37010000 		.4byte	.LASF214
 10300 29b3 09       		.byte	0x9
 10301 29b4 6103     		.2byte	0x361
 10302 29b6 0D       		.byte	0xd
 10303 29b7 2F       		.uleb128 0x2f
 10304 29b8 FC080000 		.4byte	.LASF215
 10305 29bc FC080000 		.4byte	.LASF215
 10306 29c0 09       		.byte	0x9
 10307 29c1 6203     		.2byte	0x362
 10308 29c3 0D       		.byte	0xd
 10309 29c4 00       		.byte	0
 10310              		.section	.debug_abbrev,"",%progbits
 10311              	.Ldebug_abbrev0:
 10312 0000 01       		.uleb128 0x1
 10313 0001 11       		.uleb128 0x11
 10314 0002 01       		.byte	0x1
 10315 0003 25       		.uleb128 0x25
 10316 0004 0E       		.uleb128 0xe
 10317 0005 13       		.uleb128 0x13
ARM GAS  C:\Users\USER\AppData\Local\Temp\ccNdlOSb.s 			page 182


 10318 0006 0B       		.uleb128 0xb
 10319 0007 03       		.uleb128 0x3
 10320 0008 0E       		.uleb128 0xe
 10321 0009 1B       		.uleb128 0x1b
 10322 000a 0E       		.uleb128 0xe
 10323 000b 55       		.uleb128 0x55
 10324 000c 17       		.uleb128 0x17
 10325 000d 11       		.uleb128 0x11
 10326 000e 01       		.uleb128 0x1
 10327 000f 10       		.uleb128 0x10
 10328 0010 17       		.uleb128 0x17
 10329 0011 00       		.byte	0
 10330 0012 00       		.byte	0
 10331 0013 02       		.uleb128 0x2
 10332 0014 24       		.uleb128 0x24
 10333 0015 00       		.byte	0
 10334 0016 0B       		.uleb128 0xb
 10335 0017 0B       		.uleb128 0xb
 10336 0018 3E       		.uleb128 0x3e
 10337 0019 0B       		.uleb128 0xb
 10338 001a 03       		.uleb128 0x3
 10339 001b 0E       		.uleb128 0xe
 10340 001c 00       		.byte	0
 10341 001d 00       		.byte	0
 10342 001e 03       		.uleb128 0x3
 10343 001f 16       		.uleb128 0x16
 10344 0020 00       		.byte	0
 10345 0021 03       		.uleb128 0x3
 10346 0022 0E       		.uleb128 0xe
 10347 0023 3A       		.uleb128 0x3a
 10348 0024 0B       		.uleb128 0xb
 10349 0025 3B       		.uleb128 0x3b
 10350 0026 0B       		.uleb128 0xb
 10351 0027 39       		.uleb128 0x39
 10352 0028 0B       		.uleb128 0xb
 10353 0029 49       		.uleb128 0x49
 10354 002a 13       		.uleb128 0x13
 10355 002b 00       		.byte	0
 10356 002c 00       		.byte	0
 10357 002d 04       		.uleb128 0x4
 10358 002e 24       		.uleb128 0x24
 10359 002f 00       		.byte	0
 10360 0030 0B       		.uleb128 0xb
 10361 0031 0B       		.uleb128 0xb
 10362 0032 3E       		.uleb128 0x3e
 10363 0033 0B       		.uleb128 0xb
 10364 0034 03       		.uleb128 0x3
 10365 0035 08       		.uleb128 0x8
 10366 0036 00       		.byte	0
 10367 0037 00       		.byte	0
 10368 0038 05       		.uleb128 0x5
 10369 0039 35       		.uleb128 0x35
 10370 003a 00       		.byte	0
 10371 003b 49       		.uleb128 0x49
 10372 003c 13       		.uleb128 0x13
 10373 003d 00       		.byte	0
 10374 003e 00       		.byte	0
ARM GAS  C:\Users\USER\AppData\Local\Temp\ccNdlOSb.s 			page 183


 10375 003f 06       		.uleb128 0x6
 10376 0040 34       		.uleb128 0x34
 10377 0041 00       		.byte	0
 10378 0042 03       		.uleb128 0x3
 10379 0043 0E       		.uleb128 0xe
 10380 0044 3A       		.uleb128 0x3a
 10381 0045 0B       		.uleb128 0xb
 10382 0046 3B       		.uleb128 0x3b
 10383 0047 05       		.uleb128 0x5
 10384 0048 39       		.uleb128 0x39
 10385 0049 0B       		.uleb128 0xb
 10386 004a 49       		.uleb128 0x49
 10387 004b 13       		.uleb128 0x13
 10388 004c 3F       		.uleb128 0x3f
 10389 004d 19       		.uleb128 0x19
 10390 004e 3C       		.uleb128 0x3c
 10391 004f 19       		.uleb128 0x19
 10392 0050 00       		.byte	0
 10393 0051 00       		.byte	0
 10394 0052 07       		.uleb128 0x7
 10395 0053 34       		.uleb128 0x34
 10396 0054 00       		.byte	0
 10397 0055 03       		.uleb128 0x3
 10398 0056 0E       		.uleb128 0xe
 10399 0057 3A       		.uleb128 0x3a
 10400 0058 0B       		.uleb128 0xb
 10401 0059 3B       		.uleb128 0x3b
 10402 005a 0B       		.uleb128 0xb
 10403 005b 39       		.uleb128 0x39
 10404 005c 0B       		.uleb128 0xb
 10405 005d 49       		.uleb128 0x49
 10406 005e 13       		.uleb128 0x13
 10407 005f 3F       		.uleb128 0x3f
 10408 0060 19       		.uleb128 0x19
 10409 0061 3C       		.uleb128 0x3c
 10410 0062 19       		.uleb128 0x19
 10411 0063 00       		.byte	0
 10412 0064 00       		.byte	0
 10413 0065 08       		.uleb128 0x8
 10414 0066 13       		.uleb128 0x13
 10415 0067 01       		.byte	0x1
 10416 0068 0B       		.uleb128 0xb
 10417 0069 0B       		.uleb128 0xb
 10418 006a 3A       		.uleb128 0x3a
 10419 006b 0B       		.uleb128 0xb
 10420 006c 3B       		.uleb128 0x3b
 10421 006d 05       		.uleb128 0x5
 10422 006e 39       		.uleb128 0x39
 10423 006f 0B       		.uleb128 0xb
 10424 0070 01       		.uleb128 0x1
 10425 0071 13       		.uleb128 0x13
 10426 0072 00       		.byte	0
 10427 0073 00       		.byte	0
 10428 0074 09       		.uleb128 0x9
 10429 0075 0D       		.uleb128 0xd
 10430 0076 00       		.byte	0
 10431 0077 03       		.uleb128 0x3
ARM GAS  C:\Users\USER\AppData\Local\Temp\ccNdlOSb.s 			page 184


 10432 0078 08       		.uleb128 0x8
 10433 0079 3A       		.uleb128 0x3a
 10434 007a 0B       		.uleb128 0xb
 10435 007b 3B       		.uleb128 0x3b
 10436 007c 05       		.uleb128 0x5
 10437 007d 39       		.uleb128 0x39
 10438 007e 0B       		.uleb128 0xb
 10439 007f 49       		.uleb128 0x49
 10440 0080 13       		.uleb128 0x13
 10441 0081 38       		.uleb128 0x38
 10442 0082 0B       		.uleb128 0xb
 10443 0083 00       		.byte	0
 10444 0084 00       		.byte	0
 10445 0085 0A       		.uleb128 0xa
 10446 0086 0D       		.uleb128 0xd
 10447 0087 00       		.byte	0
 10448 0088 03       		.uleb128 0x3
 10449 0089 0E       		.uleb128 0xe
 10450 008a 3A       		.uleb128 0x3a
 10451 008b 0B       		.uleb128 0xb
 10452 008c 3B       		.uleb128 0x3b
 10453 008d 05       		.uleb128 0x5
 10454 008e 39       		.uleb128 0x39
 10455 008f 0B       		.uleb128 0xb
 10456 0090 49       		.uleb128 0x49
 10457 0091 13       		.uleb128 0x13
 10458 0092 38       		.uleb128 0x38
 10459 0093 0B       		.uleb128 0xb
 10460 0094 00       		.byte	0
 10461 0095 00       		.byte	0
 10462 0096 0B       		.uleb128 0xb
 10463 0097 16       		.uleb128 0x16
 10464 0098 00       		.byte	0
 10465 0099 03       		.uleb128 0x3
 10466 009a 0E       		.uleb128 0xe
 10467 009b 3A       		.uleb128 0x3a
 10468 009c 0B       		.uleb128 0xb
 10469 009d 3B       		.uleb128 0x3b
 10470 009e 05       		.uleb128 0x5
 10471 009f 39       		.uleb128 0x39
 10472 00a0 0B       		.uleb128 0xb
 10473 00a1 49       		.uleb128 0x49
 10474 00a2 13       		.uleb128 0x13
 10475 00a3 00       		.byte	0
 10476 00a4 00       		.byte	0
 10477 00a5 0C       		.uleb128 0xc
 10478 00a6 04       		.uleb128 0x4
 10479 00a7 01       		.byte	0x1
 10480 00a8 3E       		.uleb128 0x3e
 10481 00a9 0B       		.uleb128 0xb
 10482 00aa 0B       		.uleb128 0xb
 10483 00ab 0B       		.uleb128 0xb
 10484 00ac 49       		.uleb128 0x49
 10485 00ad 13       		.uleb128 0x13
 10486 00ae 3A       		.uleb128 0x3a
 10487 00af 0B       		.uleb128 0xb
 10488 00b0 3B       		.uleb128 0x3b
ARM GAS  C:\Users\USER\AppData\Local\Temp\ccNdlOSb.s 			page 185


 10489 00b1 0B       		.uleb128 0xb
 10490 00b2 39       		.uleb128 0x39
 10491 00b3 0B       		.uleb128 0xb
 10492 00b4 01       		.uleb128 0x1
 10493 00b5 13       		.uleb128 0x13
 10494 00b6 00       		.byte	0
 10495 00b7 00       		.byte	0
 10496 00b8 0D       		.uleb128 0xd
 10497 00b9 28       		.uleb128 0x28
 10498 00ba 00       		.byte	0
 10499 00bb 03       		.uleb128 0x3
 10500 00bc 0E       		.uleb128 0xe
 10501 00bd 1C       		.uleb128 0x1c
 10502 00be 0B       		.uleb128 0xb
 10503 00bf 00       		.byte	0
 10504 00c0 00       		.byte	0
 10505 00c1 0E       		.uleb128 0xe
 10506 00c2 28       		.uleb128 0x28
 10507 00c3 00       		.byte	0
 10508 00c4 03       		.uleb128 0x3
 10509 00c5 08       		.uleb128 0x8
 10510 00c6 1C       		.uleb128 0x1c
 10511 00c7 0B       		.uleb128 0xb
 10512 00c8 00       		.byte	0
 10513 00c9 00       		.byte	0
 10514 00ca 0F       		.uleb128 0xf
 10515 00cb 13       		.uleb128 0x13
 10516 00cc 01       		.byte	0x1
 10517 00cd 0B       		.uleb128 0xb
 10518 00ce 0B       		.uleb128 0xb
 10519 00cf 3A       		.uleb128 0x3a
 10520 00d0 0B       		.uleb128 0xb
 10521 00d1 3B       		.uleb128 0x3b
 10522 00d2 0B       		.uleb128 0xb
 10523 00d3 39       		.uleb128 0x39
 10524 00d4 0B       		.uleb128 0xb
 10525 00d5 01       		.uleb128 0x1
 10526 00d6 13       		.uleb128 0x13
 10527 00d7 00       		.byte	0
 10528 00d8 00       		.byte	0
 10529 00d9 10       		.uleb128 0x10
 10530 00da 0D       		.uleb128 0xd
 10531 00db 00       		.byte	0
 10532 00dc 03       		.uleb128 0x3
 10533 00dd 0E       		.uleb128 0xe
 10534 00de 3A       		.uleb128 0x3a
 10535 00df 0B       		.uleb128 0xb
 10536 00e0 3B       		.uleb128 0x3b
 10537 00e1 0B       		.uleb128 0xb
 10538 00e2 39       		.uleb128 0x39
 10539 00e3 0B       		.uleb128 0xb
 10540 00e4 49       		.uleb128 0x49
 10541 00e5 13       		.uleb128 0x13
 10542 00e6 38       		.uleb128 0x38
 10543 00e7 0B       		.uleb128 0xb
 10544 00e8 00       		.byte	0
 10545 00e9 00       		.byte	0
ARM GAS  C:\Users\USER\AppData\Local\Temp\ccNdlOSb.s 			page 186


 10546 00ea 11       		.uleb128 0x11
 10547 00eb 2E       		.uleb128 0x2e
 10548 00ec 01       		.byte	0x1
 10549 00ed 03       		.uleb128 0x3
 10550 00ee 0E       		.uleb128 0xe
 10551 00ef 3A       		.uleb128 0x3a
 10552 00f0 0B       		.uleb128 0xb
 10553 00f1 3B       		.uleb128 0x3b
 10554 00f2 05       		.uleb128 0x5
 10555 00f3 39       		.uleb128 0x39
 10556 00f4 0B       		.uleb128 0xb
 10557 00f5 27       		.uleb128 0x27
 10558 00f6 19       		.uleb128 0x19
 10559 00f7 20       		.uleb128 0x20
 10560 00f8 0B       		.uleb128 0xb
 10561 00f9 01       		.uleb128 0x1
 10562 00fa 13       		.uleb128 0x13
 10563 00fb 00       		.byte	0
 10564 00fc 00       		.byte	0
 10565 00fd 12       		.uleb128 0x12
 10566 00fe 05       		.uleb128 0x5
 10567 00ff 00       		.byte	0
 10568 0100 03       		.uleb128 0x3
 10569 0101 0E       		.uleb128 0xe
 10570 0102 3A       		.uleb128 0x3a
 10571 0103 0B       		.uleb128 0xb
 10572 0104 3B       		.uleb128 0x3b
 10573 0105 05       		.uleb128 0x5
 10574 0106 39       		.uleb128 0x39
 10575 0107 0B       		.uleb128 0xb
 10576 0108 49       		.uleb128 0x49
 10577 0109 13       		.uleb128 0x13
 10578 010a 00       		.byte	0
 10579 010b 00       		.byte	0
 10580 010c 13       		.uleb128 0x13
 10581 010d 34       		.uleb128 0x34
 10582 010e 00       		.byte	0
 10583 010f 03       		.uleb128 0x3
 10584 0110 0E       		.uleb128 0xe
 10585 0111 3A       		.uleb128 0x3a
 10586 0112 0B       		.uleb128 0xb
 10587 0113 3B       		.uleb128 0x3b
 10588 0114 05       		.uleb128 0x5
 10589 0115 39       		.uleb128 0x39
 10590 0116 0B       		.uleb128 0xb
 10591 0117 49       		.uleb128 0x49
 10592 0118 13       		.uleb128 0x13
 10593 0119 00       		.byte	0
 10594 011a 00       		.byte	0
 10595 011b 14       		.uleb128 0x14
 10596 011c 34       		.uleb128 0x34
 10597 011d 00       		.byte	0
 10598 011e 03       		.uleb128 0x3
 10599 011f 08       		.uleb128 0x8
 10600 0120 3A       		.uleb128 0x3a
 10601 0121 0B       		.uleb128 0xb
 10602 0122 3B       		.uleb128 0x3b
ARM GAS  C:\Users\USER\AppData\Local\Temp\ccNdlOSb.s 			page 187


 10603 0123 05       		.uleb128 0x5
 10604 0124 39       		.uleb128 0x39
 10605 0125 0B       		.uleb128 0xb
 10606 0126 49       		.uleb128 0x49
 10607 0127 13       		.uleb128 0x13
 10608 0128 00       		.byte	0
 10609 0129 00       		.byte	0
 10610 012a 15       		.uleb128 0x15
 10611 012b 0F       		.uleb128 0xf
 10612 012c 00       		.byte	0
 10613 012d 0B       		.uleb128 0xb
 10614 012e 0B       		.uleb128 0xb
 10615 012f 49       		.uleb128 0x49
 10616 0130 13       		.uleb128 0x13
 10617 0131 00       		.byte	0
 10618 0132 00       		.byte	0
 10619 0133 16       		.uleb128 0x16
 10620 0134 2E       		.uleb128 0x2e
 10621 0135 01       		.byte	0x1
 10622 0136 3F       		.uleb128 0x3f
 10623 0137 19       		.uleb128 0x19
 10624 0138 03       		.uleb128 0x3
 10625 0139 0E       		.uleb128 0xe
 10626 013a 3A       		.uleb128 0x3a
 10627 013b 0B       		.uleb128 0xb
 10628 013c 3B       		.uleb128 0x3b
 10629 013d 05       		.uleb128 0x5
 10630 013e 39       		.uleb128 0x39
 10631 013f 0B       		.uleb128 0xb
 10632 0140 27       		.uleb128 0x27
 10633 0141 19       		.uleb128 0x19
 10634 0142 11       		.uleb128 0x11
 10635 0143 01       		.uleb128 0x1
 10636 0144 12       		.uleb128 0x12
 10637 0145 06       		.uleb128 0x6
 10638 0146 40       		.uleb128 0x40
 10639 0147 18       		.uleb128 0x18
 10640 0148 9742     		.uleb128 0x2117
 10641 014a 19       		.uleb128 0x19
 10642 014b 01       		.uleb128 0x1
 10643 014c 13       		.uleb128 0x13
 10644 014d 00       		.byte	0
 10645 014e 00       		.byte	0
 10646 014f 17       		.uleb128 0x17
 10647 0150 05       		.uleb128 0x5
 10648 0151 00       		.byte	0
 10649 0152 03       		.uleb128 0x3
 10650 0153 0E       		.uleb128 0xe
 10651 0154 3A       		.uleb128 0x3a
 10652 0155 0B       		.uleb128 0xb
 10653 0156 3B       		.uleb128 0x3b
 10654 0157 05       		.uleb128 0x5
 10655 0158 39       		.uleb128 0x39
 10656 0159 0B       		.uleb128 0xb
 10657 015a 49       		.uleb128 0x49
 10658 015b 13       		.uleb128 0x13
 10659 015c 02       		.uleb128 0x2
ARM GAS  C:\Users\USER\AppData\Local\Temp\ccNdlOSb.s 			page 188


 10660 015d 18       		.uleb128 0x18
 10661 015e 00       		.byte	0
 10662 015f 00       		.byte	0
 10663 0160 18       		.uleb128 0x18
 10664 0161 05       		.uleb128 0x5
 10665 0162 00       		.byte	0
 10666 0163 03       		.uleb128 0x3
 10667 0164 0E       		.uleb128 0xe
 10668 0165 3A       		.uleb128 0x3a
 10669 0166 0B       		.uleb128 0xb
 10670 0167 3B       		.uleb128 0x3b
 10671 0168 05       		.uleb128 0x5
 10672 0169 39       		.uleb128 0x39
 10673 016a 0B       		.uleb128 0xb
 10674 016b 49       		.uleb128 0x49
 10675 016c 13       		.uleb128 0x13
 10676 016d 02       		.uleb128 0x2
 10677 016e 17       		.uleb128 0x17
 10678 016f B742     		.uleb128 0x2137
 10679 0171 17       		.uleb128 0x17
 10680 0172 00       		.byte	0
 10681 0173 00       		.byte	0
 10682 0174 19       		.uleb128 0x19
 10683 0175 34       		.uleb128 0x34
 10684 0176 00       		.byte	0
 10685 0177 03       		.uleb128 0x3
 10686 0178 0E       		.uleb128 0xe
 10687 0179 3A       		.uleb128 0x3a
 10688 017a 0B       		.uleb128 0xb
 10689 017b 3B       		.uleb128 0x3b
 10690 017c 05       		.uleb128 0x5
 10691 017d 39       		.uleb128 0x39
 10692 017e 0B       		.uleb128 0xb
 10693 017f 49       		.uleb128 0x49
 10694 0180 13       		.uleb128 0x13
 10695 0181 02       		.uleb128 0x2
 10696 0182 17       		.uleb128 0x17
 10697 0183 B742     		.uleb128 0x2137
 10698 0185 17       		.uleb128 0x17
 10699 0186 00       		.byte	0
 10700 0187 00       		.byte	0
 10701 0188 1A       		.uleb128 0x1a
 10702 0189 2E       		.uleb128 0x2e
 10703 018a 01       		.byte	0x1
 10704 018b 3F       		.uleb128 0x3f
 10705 018c 19       		.uleb128 0x19
 10706 018d 03       		.uleb128 0x3
 10707 018e 0E       		.uleb128 0xe
 10708 018f 3A       		.uleb128 0x3a
 10709 0190 0B       		.uleb128 0xb
 10710 0191 3B       		.uleb128 0x3b
 10711 0192 05       		.uleb128 0x5
 10712 0193 39       		.uleb128 0x39
 10713 0194 0B       		.uleb128 0xb
 10714 0195 27       		.uleb128 0x27
 10715 0196 19       		.uleb128 0x19
 10716 0197 20       		.uleb128 0x20
ARM GAS  C:\Users\USER\AppData\Local\Temp\ccNdlOSb.s 			page 189


 10717 0198 0B       		.uleb128 0xb
 10718 0199 01       		.uleb128 0x1
 10719 019a 13       		.uleb128 0x13
 10720 019b 00       		.byte	0
 10721 019c 00       		.byte	0
 10722 019d 1B       		.uleb128 0x1b
 10723 019e 1D       		.uleb128 0x1d
 10724 019f 01       		.byte	0x1
 10725 01a0 31       		.uleb128 0x31
 10726 01a1 13       		.uleb128 0x13
 10727 01a2 52       		.uleb128 0x52
 10728 01a3 01       		.uleb128 0x1
 10729 01a4 B842     		.uleb128 0x2138
 10730 01a6 0B       		.uleb128 0xb
 10731 01a7 55       		.uleb128 0x55
 10732 01a8 17       		.uleb128 0x17
 10733 01a9 58       		.uleb128 0x58
 10734 01aa 0B       		.uleb128 0xb
 10735 01ab 59       		.uleb128 0x59
 10736 01ac 05       		.uleb128 0x5
 10737 01ad 57       		.uleb128 0x57
 10738 01ae 0B       		.uleb128 0xb
 10739 01af 00       		.byte	0
 10740 01b0 00       		.byte	0
 10741 01b1 1C       		.uleb128 0x1c
 10742 01b2 05       		.uleb128 0x5
 10743 01b3 00       		.byte	0
 10744 01b4 31       		.uleb128 0x31
 10745 01b5 13       		.uleb128 0x13
 10746 01b6 02       		.uleb128 0x2
 10747 01b7 17       		.uleb128 0x17
 10748 01b8 B742     		.uleb128 0x2137
 10749 01ba 17       		.uleb128 0x17
 10750 01bb 00       		.byte	0
 10751 01bc 00       		.byte	0
 10752 01bd 1D       		.uleb128 0x1d
 10753 01be 0B       		.uleb128 0xb
 10754 01bf 01       		.byte	0x1
 10755 01c0 55       		.uleb128 0x55
 10756 01c1 17       		.uleb128 0x17
 10757 01c2 00       		.byte	0
 10758 01c3 00       		.byte	0
 10759 01c4 1E       		.uleb128 0x1e
 10760 01c5 34       		.uleb128 0x34
 10761 01c6 00       		.byte	0
 10762 01c7 31       		.uleb128 0x31
 10763 01c8 13       		.uleb128 0x13
 10764 01c9 02       		.uleb128 0x2
 10765 01ca 17       		.uleb128 0x17
 10766 01cb B742     		.uleb128 0x2137
 10767 01cd 17       		.uleb128 0x17
 10768 01ce 00       		.byte	0
 10769 01cf 00       		.byte	0
 10770 01d0 1F       		.uleb128 0x1f
 10771 01d1 1D       		.uleb128 0x1d
 10772 01d2 01       		.byte	0x1
 10773 01d3 31       		.uleb128 0x31
ARM GAS  C:\Users\USER\AppData\Local\Temp\ccNdlOSb.s 			page 190


 10774 01d4 13       		.uleb128 0x13
 10775 01d5 52       		.uleb128 0x52
 10776 01d6 01       		.uleb128 0x1
 10777 01d7 B842     		.uleb128 0x2138
 10778 01d9 0B       		.uleb128 0xb
 10779 01da 55       		.uleb128 0x55
 10780 01db 17       		.uleb128 0x17
 10781 01dc 58       		.uleb128 0x58
 10782 01dd 0B       		.uleb128 0xb
 10783 01de 59       		.uleb128 0x59
 10784 01df 05       		.uleb128 0x5
 10785 01e0 57       		.uleb128 0x57
 10786 01e1 0B       		.uleb128 0xb
 10787 01e2 01       		.uleb128 0x1
 10788 01e3 13       		.uleb128 0x13
 10789 01e4 00       		.byte	0
 10790 01e5 00       		.byte	0
 10791 01e6 20       		.uleb128 0x20
 10792 01e7 05       		.uleb128 0x5
 10793 01e8 00       		.byte	0
 10794 01e9 31       		.uleb128 0x31
 10795 01ea 13       		.uleb128 0x13
 10796 01eb 1C       		.uleb128 0x1c
 10797 01ec 0B       		.uleb128 0xb
 10798 01ed 00       		.byte	0
 10799 01ee 00       		.byte	0
 10800 01ef 21       		.uleb128 0x21
 10801 01f0 1D       		.uleb128 0x1d
 10802 01f1 01       		.byte	0x1
 10803 01f2 31       		.uleb128 0x31
 10804 01f3 13       		.uleb128 0x13
 10805 01f4 52       		.uleb128 0x52
 10806 01f5 01       		.uleb128 0x1
 10807 01f6 B842     		.uleb128 0x2138
 10808 01f8 0B       		.uleb128 0xb
 10809 01f9 11       		.uleb128 0x11
 10810 01fa 01       		.uleb128 0x1
 10811 01fb 12       		.uleb128 0x12
 10812 01fc 06       		.uleb128 0x6
 10813 01fd 58       		.uleb128 0x58
 10814 01fe 0B       		.uleb128 0xb
 10815 01ff 59       		.uleb128 0x59
 10816 0200 05       		.uleb128 0x5
 10817 0201 57       		.uleb128 0x57
 10818 0202 0B       		.uleb128 0xb
 10819 0203 01       		.uleb128 0x1
 10820 0204 13       		.uleb128 0x13
 10821 0205 00       		.byte	0
 10822 0206 00       		.byte	0
 10823 0207 22       		.uleb128 0x22
 10824 0208 0B       		.uleb128 0xb
 10825 0209 01       		.byte	0x1
 10826 020a 11       		.uleb128 0x11
 10827 020b 01       		.uleb128 0x1
 10828 020c 12       		.uleb128 0x12
 10829 020d 06       		.uleb128 0x6
 10830 020e 00       		.byte	0
ARM GAS  C:\Users\USER\AppData\Local\Temp\ccNdlOSb.s 			page 191


 10831 020f 00       		.byte	0
 10832 0210 23       		.uleb128 0x23
 10833 0211 1D       		.uleb128 0x1d
 10834 0212 01       		.byte	0x1
 10835 0213 31       		.uleb128 0x31
 10836 0214 13       		.uleb128 0x13
 10837 0215 52       		.uleb128 0x52
 10838 0216 01       		.uleb128 0x1
 10839 0217 B842     		.uleb128 0x2138
 10840 0219 0B       		.uleb128 0xb
 10841 021a 11       		.uleb128 0x11
 10842 021b 01       		.uleb128 0x1
 10843 021c 12       		.uleb128 0x12
 10844 021d 06       		.uleb128 0x6
 10845 021e 58       		.uleb128 0x58
 10846 021f 0B       		.uleb128 0xb
 10847 0220 59       		.uleb128 0x59
 10848 0221 05       		.uleb128 0x5
 10849 0222 57       		.uleb128 0x57
 10850 0223 0B       		.uleb128 0xb
 10851 0224 00       		.byte	0
 10852 0225 00       		.byte	0
 10853 0226 24       		.uleb128 0x24
 10854 0227 2E       		.uleb128 0x2e
 10855 0228 01       		.byte	0x1
 10856 0229 3F       		.uleb128 0x3f
 10857 022a 19       		.uleb128 0x19
 10858 022b 03       		.uleb128 0x3
 10859 022c 0E       		.uleb128 0xe
 10860 022d 3A       		.uleb128 0x3a
 10861 022e 0B       		.uleb128 0xb
 10862 022f 3B       		.uleb128 0x3b
 10863 0230 05       		.uleb128 0x5
 10864 0231 39       		.uleb128 0x39
 10865 0232 0B       		.uleb128 0xb
 10866 0233 27       		.uleb128 0x27
 10867 0234 19       		.uleb128 0x19
 10868 0235 01       		.uleb128 0x1
 10869 0236 13       		.uleb128 0x13
 10870 0237 00       		.byte	0
 10871 0238 00       		.byte	0
 10872 0239 25       		.uleb128 0x25
 10873 023a 2E       		.uleb128 0x2e
 10874 023b 01       		.byte	0x1
 10875 023c 3F       		.uleb128 0x3f
 10876 023d 19       		.uleb128 0x19
 10877 023e 03       		.uleb128 0x3
 10878 023f 0E       		.uleb128 0xe
 10879 0240 3A       		.uleb128 0x3a
 10880 0241 0B       		.uleb128 0xb
 10881 0242 3B       		.uleb128 0x3b
 10882 0243 05       		.uleb128 0x5
 10883 0244 39       		.uleb128 0x39
 10884 0245 0B       		.uleb128 0xb
 10885 0246 27       		.uleb128 0x27
 10886 0247 19       		.uleb128 0x19
 10887 0248 49       		.uleb128 0x49
ARM GAS  C:\Users\USER\AppData\Local\Temp\ccNdlOSb.s 			page 192


 10888 0249 13       		.uleb128 0x13
 10889 024a 11       		.uleb128 0x11
 10890 024b 01       		.uleb128 0x1
 10891 024c 12       		.uleb128 0x12
 10892 024d 06       		.uleb128 0x6
 10893 024e 40       		.uleb128 0x40
 10894 024f 18       		.uleb128 0x18
 10895 0250 9742     		.uleb128 0x2117
 10896 0252 19       		.uleb128 0x19
 10897 0253 01       		.uleb128 0x1
 10898 0254 13       		.uleb128 0x13
 10899 0255 00       		.byte	0
 10900 0256 00       		.byte	0
 10901 0257 26       		.uleb128 0x26
 10902 0258 34       		.uleb128 0x34
 10903 0259 00       		.byte	0
 10904 025a 03       		.uleb128 0x3
 10905 025b 08       		.uleb128 0x8
 10906 025c 3A       		.uleb128 0x3a
 10907 025d 0B       		.uleb128 0xb
 10908 025e 3B       		.uleb128 0x3b
 10909 025f 05       		.uleb128 0x5
 10910 0260 39       		.uleb128 0x39
 10911 0261 0B       		.uleb128 0xb
 10912 0262 49       		.uleb128 0x49
 10913 0263 13       		.uleb128 0x13
 10914 0264 02       		.uleb128 0x2
 10915 0265 17       		.uleb128 0x17
 10916 0266 B742     		.uleb128 0x2137
 10917 0268 17       		.uleb128 0x17
 10918 0269 00       		.byte	0
 10919 026a 00       		.byte	0
 10920 026b 27       		.uleb128 0x27
 10921 026c 2E       		.uleb128 0x2e
 10922 026d 01       		.byte	0x1
 10923 026e 3F       		.uleb128 0x3f
 10924 026f 19       		.uleb128 0x19
 10925 0270 03       		.uleb128 0x3
 10926 0271 0E       		.uleb128 0xe
 10927 0272 3A       		.uleb128 0x3a
 10928 0273 0B       		.uleb128 0xb
 10929 0274 3B       		.uleb128 0x3b
 10930 0275 0B       		.uleb128 0xb
 10931 0276 39       		.uleb128 0x39
 10932 0277 0B       		.uleb128 0xb
 10933 0278 27       		.uleb128 0x27
 10934 0279 19       		.uleb128 0x19
 10935 027a 11       		.uleb128 0x11
 10936 027b 01       		.uleb128 0x1
 10937 027c 12       		.uleb128 0x12
 10938 027d 06       		.uleb128 0x6
 10939 027e 40       		.uleb128 0x40
 10940 027f 18       		.uleb128 0x18
 10941 0280 9742     		.uleb128 0x2117
 10942 0282 19       		.uleb128 0x19
 10943 0283 01       		.uleb128 0x1
 10944 0284 13       		.uleb128 0x13
ARM GAS  C:\Users\USER\AppData\Local\Temp\ccNdlOSb.s 			page 193


 10945 0285 00       		.byte	0
 10946 0286 00       		.byte	0
 10947 0287 28       		.uleb128 0x28
 10948 0288 05       		.uleb128 0x5
 10949 0289 00       		.byte	0
 10950 028a 03       		.uleb128 0x3
 10951 028b 0E       		.uleb128 0xe
 10952 028c 3A       		.uleb128 0x3a
 10953 028d 0B       		.uleb128 0xb
 10954 028e 3B       		.uleb128 0x3b
 10955 028f 0B       		.uleb128 0xb
 10956 0290 39       		.uleb128 0x39
 10957 0291 0B       		.uleb128 0xb
 10958 0292 49       		.uleb128 0x49
 10959 0293 13       		.uleb128 0x13
 10960 0294 02       		.uleb128 0x2
 10961 0295 17       		.uleb128 0x17
 10962 0296 B742     		.uleb128 0x2137
 10963 0298 17       		.uleb128 0x17
 10964 0299 00       		.byte	0
 10965 029a 00       		.byte	0
 10966 029b 29       		.uleb128 0x29
 10967 029c 898201   		.uleb128 0x4109
 10968 029f 01       		.byte	0x1
 10969 02a0 11       		.uleb128 0x11
 10970 02a1 01       		.uleb128 0x1
 10971 02a2 31       		.uleb128 0x31
 10972 02a3 13       		.uleb128 0x13
 10973 02a4 01       		.uleb128 0x1
 10974 02a5 13       		.uleb128 0x13
 10975 02a6 00       		.byte	0
 10976 02a7 00       		.byte	0
 10977 02a8 2A       		.uleb128 0x2a
 10978 02a9 8A8201   		.uleb128 0x410a
 10979 02ac 00       		.byte	0
 10980 02ad 02       		.uleb128 0x2
 10981 02ae 18       		.uleb128 0x18
 10982 02af 9142     		.uleb128 0x2111
 10983 02b1 18       		.uleb128 0x18
 10984 02b2 00       		.byte	0
 10985 02b3 00       		.byte	0
 10986 02b4 2B       		.uleb128 0x2b
 10987 02b5 898201   		.uleb128 0x4109
 10988 02b8 01       		.byte	0x1
 10989 02b9 11       		.uleb128 0x11
 10990 02ba 01       		.uleb128 0x1
 10991 02bb 9542     		.uleb128 0x2115
 10992 02bd 19       		.uleb128 0x19
 10993 02be 31       		.uleb128 0x31
 10994 02bf 13       		.uleb128 0x13
 10995 02c0 01       		.uleb128 0x1
 10996 02c1 13       		.uleb128 0x13
 10997 02c2 00       		.byte	0
 10998 02c3 00       		.byte	0
 10999 02c4 2C       		.uleb128 0x2c
 11000 02c5 898201   		.uleb128 0x4109
 11001 02c8 01       		.byte	0x1
ARM GAS  C:\Users\USER\AppData\Local\Temp\ccNdlOSb.s 			page 194


 11002 02c9 11       		.uleb128 0x11
 11003 02ca 01       		.uleb128 0x1
 11004 02cb 9542     		.uleb128 0x2115
 11005 02cd 19       		.uleb128 0x19
 11006 02ce 31       		.uleb128 0x31
 11007 02cf 13       		.uleb128 0x13
 11008 02d0 00       		.byte	0
 11009 02d1 00       		.byte	0
 11010 02d2 2D       		.uleb128 0x2d
 11011 02d3 2E       		.uleb128 0x2e
 11012 02d4 01       		.byte	0x1
 11013 02d5 31       		.uleb128 0x31
 11014 02d6 13       		.uleb128 0x13
 11015 02d7 11       		.uleb128 0x11
 11016 02d8 01       		.uleb128 0x1
 11017 02d9 12       		.uleb128 0x12
 11018 02da 06       		.uleb128 0x6
 11019 02db 40       		.uleb128 0x40
 11020 02dc 18       		.uleb128 0x18
 11021 02dd 9742     		.uleb128 0x2117
 11022 02df 19       		.uleb128 0x19
 11023 02e0 01       		.uleb128 0x1
 11024 02e1 13       		.uleb128 0x13
 11025 02e2 00       		.byte	0
 11026 02e3 00       		.byte	0
 11027 02e4 2E       		.uleb128 0x2e
 11028 02e5 05       		.uleb128 0x5
 11029 02e6 00       		.byte	0
 11030 02e7 31       		.uleb128 0x31
 11031 02e8 13       		.uleb128 0x13
 11032 02e9 02       		.uleb128 0x2
 11033 02ea 18       		.uleb128 0x18
 11034 02eb 00       		.byte	0
 11035 02ec 00       		.byte	0
 11036 02ed 2F       		.uleb128 0x2f
 11037 02ee 2E       		.uleb128 0x2e
 11038 02ef 00       		.byte	0
 11039 02f0 3F       		.uleb128 0x3f
 11040 02f1 19       		.uleb128 0x19
 11041 02f2 3C       		.uleb128 0x3c
 11042 02f3 19       		.uleb128 0x19
 11043 02f4 6E       		.uleb128 0x6e
 11044 02f5 0E       		.uleb128 0xe
 11045 02f6 03       		.uleb128 0x3
 11046 02f7 0E       		.uleb128 0xe
 11047 02f8 3A       		.uleb128 0x3a
 11048 02f9 0B       		.uleb128 0xb
 11049 02fa 3B       		.uleb128 0x3b
 11050 02fb 05       		.uleb128 0x5
 11051 02fc 39       		.uleb128 0x39
 11052 02fd 0B       		.uleb128 0xb
 11053 02fe 00       		.byte	0
 11054 02ff 00       		.byte	0
 11055 0300 00       		.byte	0
 11056              		.section	.debug_loc,"",%progbits
 11057              	.Ldebug_loc0:
 11058              	.LVUS216:
ARM GAS  C:\Users\USER\AppData\Local\Temp\ccNdlOSb.s 			page 195


 11059 0000 00       		.uleb128 0
 11060 0001 00       		.uleb128 .LVU1769
 11061 0002 00       		.uleb128 .LVU1769
 11062 0003 00       		.uleb128 0
 11063              	.LLST216:
 11064 0004 00000000 		.4byte	.LVL428
 11065 0008 30000000 		.4byte	.LVL436
 11066 000c 0100     		.2byte	0x1
 11067 000e 51       		.byte	0x51
 11068 000f 30000000 		.4byte	.LVL436
 11069 0013 3A000000 		.4byte	.LFE197
 11070 0017 0400     		.2byte	0x4
 11071 0019 F3       		.byte	0xf3
 11072 001a 01       		.uleb128 0x1
 11073 001b 51       		.byte	0x51
 11074 001c 9F       		.byte	0x9f
 11075 001d 00000000 		.4byte	0
 11076 0021 00000000 		.4byte	0
 11077              	.LVUS217:
 11078 0025 00       		.uleb128 0
 11079 0026 00       		.uleb128 .LVU1755
 11080 0027 00       		.uleb128 .LVU1755
 11081 0028 00       		.uleb128 0
 11082              	.LLST217:
 11083 0029 00000000 		.4byte	.LVL428
 11084 002d 18000000 		.4byte	.LVL432
 11085 0031 0100     		.2byte	0x1
 11086 0033 53       		.byte	0x53
 11087 0034 18000000 		.4byte	.LVL432
 11088 0038 3A000000 		.4byte	.LFE197
 11089 003c 0400     		.2byte	0x4
 11090 003e F3       		.byte	0xf3
 11091 003f 01       		.uleb128 0x1
 11092 0040 53       		.byte	0x53
 11093 0041 9F       		.byte	0x9f
 11094 0042 00000000 		.4byte	0
 11095 0046 00000000 		.4byte	0
 11096              	.LVUS218:
 11097 004a 02       		.uleb128 .LVU1738
 11098 004b 00       		.uleb128 .LVU1747
 11099 004c 00       		.uleb128 .LVU1747
 11100 004d 00       		.uleb128 .LVU1759
 11101 004e 00       		.uleb128 .LVU1759
 11102 004f 01       		.uleb128 .LVU1760
 11103 0050 01       		.uleb128 .LVU1760
 11104 0051 00       		.uleb128 .LVU1769
 11105 0052 00       		.uleb128 .LVU1769
 11106 0053 00       		.uleb128 .LVU1775
 11107              	.LLST218:
 11108 0054 00000000 		.4byte	.LVL428
 11109 0058 04000000 		.4byte	.LVL429
 11110 005c 0200     		.2byte	0x2
 11111 005e 30       		.byte	0x30
 11112 005f 9F       		.byte	0x9f
 11113 0060 04000000 		.4byte	.LVL429
 11114 0064 24000000 		.4byte	.LVL434
 11115 0068 0100     		.2byte	0x1
ARM GAS  C:\Users\USER\AppData\Local\Temp\ccNdlOSb.s 			page 196


 11116 006a 57       		.byte	0x57
 11117 006b 24000000 		.4byte	.LVL434
 11118 006f 24000000 		.4byte	.LVL434
 11119 0073 0100     		.2byte	0x1
 11120 0075 56       		.byte	0x56
 11121 0076 24000000 		.4byte	.LVL434
 11122 007a 30000000 		.4byte	.LVL436
 11123 007e 0600     		.2byte	0x6
 11124 0080 71       		.byte	0x71
 11125 0081 00       		.sleb128 0
 11126 0082 76       		.byte	0x76
 11127 0083 00       		.sleb128 0
 11128 0084 21       		.byte	0x21
 11129 0085 9F       		.byte	0x9f
 11130 0086 30000000 		.4byte	.LVL436
 11131 008a 38000000 		.4byte	.LVL437
 11132 008e 0700     		.2byte	0x7
 11133 0090 F3       		.byte	0xf3
 11134 0091 01       		.uleb128 0x1
 11135 0092 51       		.byte	0x51
 11136 0093 76       		.byte	0x76
 11137 0094 00       		.sleb128 0
 11138 0095 21       		.byte	0x21
 11139 0096 9F       		.byte	0x9f
 11140 0097 00000000 		.4byte	0
 11141 009b 00000000 		.4byte	0
 11142              	.LVUS219:
 11143 009f 03       		.uleb128 .LVU1739
 11144 00a0 00       		.uleb128 .LVU1749
 11145 00a1 00       		.uleb128 .LVU1749
 11146 00a2 00       		.uleb128 .LVU1757
 11147 00a3 02       		.uleb128 .LVU1761
 11148 00a4 03       		.uleb128 .LVU1762
 11149 00a5 03       		.uleb128 .LVU1762
 11150 00a6 00       		.uleb128 .LVU1766
 11151              	.LLST219:
 11152 00a7 00000000 		.4byte	.LVL428
 11153 00ab 06000000 		.4byte	.LVL430
 11154 00af 0200     		.2byte	0x2
 11155 00b1 30       		.byte	0x30
 11156 00b2 9F       		.byte	0x9f
 11157 00b3 06000000 		.4byte	.LVL430
 11158 00b7 20000000 		.4byte	.LVL433
 11159 00bb 0100     		.2byte	0x1
 11160 00bd 56       		.byte	0x56
 11161 00be 24000000 		.4byte	.LVL434
 11162 00c2 24000000 		.4byte	.LVL434
 11163 00c6 0100     		.2byte	0x1
 11164 00c8 55       		.byte	0x55
 11165 00c9 24000000 		.4byte	.LVL434
 11166 00cd 28000000 		.4byte	.LVL435
 11167 00d1 0700     		.2byte	0x7
 11168 00d3 75       		.byte	0x75
 11169 00d4 00       		.sleb128 0
 11170 00d5 0A       		.byte	0xa
 11171 00d6 0101     		.2byte	0x101
 11172 00d8 21       		.byte	0x21
ARM GAS  C:\Users\USER\AppData\Local\Temp\ccNdlOSb.s 			page 197


 11173 00d9 9F       		.byte	0x9f
 11174 00da 00000000 		.4byte	0
 11175 00de 00000000 		.4byte	0
 11176              	.LVUS220:
 11177 00e2 04       		.uleb128 .LVU1740
 11178 00e3 00       		.uleb128 .LVU1751
 11179 00e4 00       		.uleb128 .LVU1751
 11180 00e5 04       		.uleb128 .LVU1763
 11181 00e6 04       		.uleb128 .LVU1763
 11182 00e7 05       		.uleb128 .LVU1764
 11183 00e8 05       		.uleb128 .LVU1764
 11184 00e9 00       		.uleb128 0
 11185              	.LLST220:
 11186 00ea 00000000 		.4byte	.LVL428
 11187 00ee 0A000000 		.4byte	.LVL431
 11188 00f2 0200     		.2byte	0x2
 11189 00f4 30       		.byte	0x30
 11190 00f5 9F       		.byte	0x9f
 11191 00f6 0A000000 		.4byte	.LVL431
 11192 00fa 24000000 		.4byte	.LVL434
 11193 00fe 0100     		.2byte	0x1
 11194 0100 5C       		.byte	0x5c
 11195 0101 24000000 		.4byte	.LVL434
 11196 0105 24000000 		.4byte	.LVL434
 11197 0109 0700     		.2byte	0x7
 11198 010b 7C       		.byte	0x7c
 11199 010c 00       		.sleb128 0
 11200 010d 0A       		.byte	0xa
 11201 010e DDFF     		.2byte	0xffdd
 11202 0110 1A       		.byte	0x1a
 11203 0111 9F       		.byte	0x9f
 11204 0112 24000000 		.4byte	.LVL434
 11205 0116 3A000000 		.4byte	.LFE197
 11206 011a 1000     		.2byte	0x10
 11207 011c F3       		.byte	0xf3
 11208 011d 01       		.uleb128 0x1
 11209 011e 53       		.byte	0x53
 11210 011f 34       		.byte	0x34
 11211 0120 24       		.byte	0x24
 11212 0121 7C       		.byte	0x7c
 11213 0122 00       		.sleb128 0
 11214 0123 0A       		.byte	0xa
 11215 0124 DDFF     		.2byte	0xffdd
 11216 0126 1A       		.byte	0x1a
 11217 0127 21       		.byte	0x21
 11218 0128 72       		.byte	0x72
 11219 0129 00       		.sleb128 0
 11220 012a 21       		.byte	0x21
 11221 012b 9F       		.byte	0x9f
 11222 012c 00000000 		.4byte	0
 11223 0130 00000000 		.4byte	0
 11224              	.LVUS212:
 11225 0134 00       		.uleb128 0
 11226 0135 00       		.uleb128 .LVU1716
 11227 0136 00       		.uleb128 .LVU1716
 11228 0137 00       		.uleb128 0
 11229              	.LLST212:
ARM GAS  C:\Users\USER\AppData\Local\Temp\ccNdlOSb.s 			page 198


 11230 0138 00000000 		.4byte	.LVL420
 11231 013c 0E000000 		.4byte	.LVL421
 11232 0140 0100     		.2byte	0x1
 11233 0142 51       		.byte	0x51
 11234 0143 0E000000 		.4byte	.LVL421
 11235 0147 12000000 		.4byte	.LFE195
 11236 014b 0400     		.2byte	0x4
 11237 014d F3       		.byte	0xf3
 11238 014e 01       		.uleb128 0x1
 11239 014f 51       		.byte	0x51
 11240 0150 9F       		.byte	0x9f
 11241 0151 00000000 		.4byte	0
 11242 0155 00000000 		.4byte	0
 11243              	.LVUS211:
 11244 0159 00       		.uleb128 0
 11245 015a 00       		.uleb128 .LVU1707
 11246 015b 00       		.uleb128 .LVU1707
 11247 015c 00       		.uleb128 0
 11248              	.LLST211:
 11249 015d 00000000 		.4byte	.LVL418
 11250 0161 0E000000 		.4byte	.LVL419
 11251 0165 0100     		.2byte	0x1
 11252 0167 51       		.byte	0x51
 11253 0168 0E000000 		.4byte	.LVL419
 11254 016c 12000000 		.4byte	.LFE194
 11255 0170 0400     		.2byte	0x4
 11256 0172 F3       		.byte	0xf3
 11257 0173 01       		.uleb128 0x1
 11258 0174 51       		.byte	0x51
 11259 0175 9F       		.byte	0x9f
 11260 0176 00000000 		.4byte	0
 11261 017a 00000000 		.4byte	0
 11262              	.LVUS210:
 11263 017e 00       		.uleb128 0
 11264 017f 00       		.uleb128 .LVU1698
 11265 0180 00       		.uleb128 .LVU1698
 11266 0181 00       		.uleb128 0
 11267              	.LLST210:
 11268 0182 00000000 		.4byte	.LVL416
 11269 0186 0E000000 		.4byte	.LVL417
 11270 018a 0100     		.2byte	0x1
 11271 018c 51       		.byte	0x51
 11272 018d 0E000000 		.4byte	.LVL417
 11273 0191 12000000 		.4byte	.LFE193
 11274 0195 0400     		.2byte	0x4
 11275 0197 F3       		.byte	0xf3
 11276 0198 01       		.uleb128 0x1
 11277 0199 51       		.byte	0x51
 11278 019a 9F       		.byte	0x9f
 11279 019b 00000000 		.4byte	0
 11280 019f 00000000 		.4byte	0
 11281              	.LVUS201:
 11282 01a3 00       		.uleb128 0
 11283 01a4 00       		.uleb128 .LVU1667
 11284 01a5 00       		.uleb128 .LVU1667
 11285 01a6 00       		.uleb128 0
 11286              	.LLST201:
ARM GAS  C:\Users\USER\AppData\Local\Temp\ccNdlOSb.s 			page 199


 11287 01a7 00000000 		.4byte	.LVL405
 11288 01ab 0A000000 		.4byte	.LVL408
 11289 01af 0100     		.2byte	0x1
 11290 01b1 51       		.byte	0x51
 11291 01b2 0A000000 		.4byte	.LVL408
 11292 01b6 20000000 		.4byte	.LFE191
 11293 01ba 0400     		.2byte	0x4
 11294 01bc F3       		.byte	0xf3
 11295 01bd 01       		.uleb128 0x1
 11296 01be 51       		.byte	0x51
 11297 01bf 9F       		.byte	0x9f
 11298 01c0 00000000 		.4byte	0
 11299 01c4 00000000 		.4byte	0
 11300              	.LVUS202:
 11301 01c8 00       		.uleb128 0
 11302 01c9 00       		.uleb128 .LVU1666
 11303 01ca 00       		.uleb128 .LVU1666
 11304 01cb 00       		.uleb128 0
 11305              	.LLST202:
 11306 01cc 00000000 		.4byte	.LVL405
 11307 01d0 08000000 		.4byte	.LVL407
 11308 01d4 0100     		.2byte	0x1
 11309 01d6 53       		.byte	0x53
 11310 01d7 08000000 		.4byte	.LVL407
 11311 01db 20000000 		.4byte	.LFE191
 11312 01df 0400     		.2byte	0x4
 11313 01e1 F3       		.byte	0xf3
 11314 01e2 01       		.uleb128 0x1
 11315 01e3 53       		.byte	0x53
 11316 01e4 9F       		.byte	0x9f
 11317 01e5 00000000 		.4byte	0
 11318 01e9 00000000 		.4byte	0
 11319              	.LVUS203:
 11320 01ed 06       		.uleb128 .LVU1655
 11321 01ee 00       		.uleb128 .LVU1666
 11322 01ef 00       		.uleb128 .LVU1666
 11323 01f0 00       		.uleb128 .LVU1672
 11324              	.LLST203:
 11325 01f1 00000000 		.4byte	.LVL405
 11326 01f5 08000000 		.4byte	.LVL407
 11327 01f9 0100     		.2byte	0x1
 11328 01fb 53       		.byte	0x53
 11329 01fc 08000000 		.4byte	.LVL407
 11330 0200 12000000 		.4byte	.LVL411
 11331 0204 0400     		.2byte	0x4
 11332 0206 F3       		.byte	0xf3
 11333 0207 01       		.uleb128 0x1
 11334 0208 53       		.byte	0x53
 11335 0209 9F       		.byte	0x9f
 11336 020a 00000000 		.4byte	0
 11337 020e 00000000 		.4byte	0
 11338              	.LVUS204:
 11339 0212 06       		.uleb128 .LVU1655
 11340 0213 00       		.uleb128 .LVU1672
 11341              	.LLST204:
 11342 0214 00000000 		.4byte	.LVL405
 11343 0218 12000000 		.4byte	.LVL411
ARM GAS  C:\Users\USER\AppData\Local\Temp\ccNdlOSb.s 			page 200


 11344 021c 0100     		.2byte	0x1
 11345 021e 52       		.byte	0x52
 11346 021f 00000000 		.4byte	0
 11347 0223 00000000 		.4byte	0
 11348              	.LVUS205:
 11349 0227 06       		.uleb128 .LVU1655
 11350 0228 00       		.uleb128 .LVU1667
 11351 0229 00       		.uleb128 .LVU1667
 11352 022a 00       		.uleb128 .LVU1672
 11353              	.LLST205:
 11354 022b 00000000 		.4byte	.LVL405
 11355 022f 0A000000 		.4byte	.LVL408
 11356 0233 0100     		.2byte	0x1
 11357 0235 51       		.byte	0x51
 11358 0236 0A000000 		.4byte	.LVL408
 11359 023a 12000000 		.4byte	.LVL411
 11360 023e 0400     		.2byte	0x4
 11361 0240 F3       		.byte	0xf3
 11362 0241 01       		.uleb128 0x1
 11363 0242 51       		.byte	0x51
 11364 0243 9F       		.byte	0x9f
 11365 0244 00000000 		.4byte	0
 11366 0248 00000000 		.4byte	0
 11367              	.LVUS206:
 11368 024c 06       		.uleb128 .LVU1655
 11369 024d 00       		.uleb128 .LVU1672
 11370              	.LLST206:
 11371 024e 00000000 		.4byte	.LVL405
 11372 0252 12000000 		.4byte	.LVL411
 11373 0256 0100     		.2byte	0x1
 11374 0258 50       		.byte	0x50
 11375 0259 00000000 		.4byte	0
 11376 025d 00000000 		.4byte	0
 11377              	.LVUS207:
 11378 0261 08       		.uleb128 .LVU1657
 11379 0262 00       		.uleb128 .LVU1664
 11380 0263 00       		.uleb128 .LVU1664
 11381 0264 01       		.uleb128 .LVU1669
 11382 0265 01       		.uleb128 .LVU1669
 11383 0266 00       		.uleb128 .LVU1671
 11384              	.LLST207:
 11385 0267 00000000 		.4byte	.LVL405
 11386 026b 04000000 		.4byte	.LVL406
 11387 026f 0200     		.2byte	0x2
 11388 0271 30       		.byte	0x30
 11389 0272 9F       		.byte	0x9f
 11390 0273 04000000 		.4byte	.LVL406
 11391 0277 0C000000 		.4byte	.LVL409
 11392 027b 0100     		.2byte	0x1
 11393 027d 54       		.byte	0x54
 11394 027e 0C000000 		.4byte	.LVL409
 11395 0282 0E000000 		.4byte	.LVL410
 11396 0286 1000     		.2byte	0x10
 11397 0288 F3       		.byte	0xf3
 11398 0289 01       		.uleb128 0x1
 11399 028a 53       		.byte	0x53
 11400 028b 38       		.byte	0x38
ARM GAS  C:\Users\USER\AppData\Local\Temp\ccNdlOSb.s 			page 201


 11401 028c 24       		.byte	0x24
 11402 028d 72       		.byte	0x72
 11403 028e 00       		.sleb128 0
 11404 028f 21       		.byte	0x21
 11405 0290 F3       		.byte	0xf3
 11406 0291 01       		.uleb128 0x1
 11407 0292 51       		.byte	0x51
 11408 0293 21       		.byte	0x21
 11409 0294 74       		.byte	0x74
 11410 0295 00       		.sleb128 0
 11411 0296 21       		.byte	0x21
 11412 0297 9F       		.byte	0x9f
 11413 0298 00000000 		.4byte	0
 11414 029c 00000000 		.4byte	0
 11415              	.LVUS193:
 11416 02a0 00       		.uleb128 0
 11417 02a1 00       		.uleb128 .LVU1631
 11418 02a2 00       		.uleb128 .LVU1631
 11419 02a3 00       		.uleb128 0
 11420              	.LLST193:
 11421 02a4 00000000 		.4byte	.LVL394
 11422 02a8 0A000000 		.4byte	.LVL397
 11423 02ac 0100     		.2byte	0x1
 11424 02ae 51       		.byte	0x51
 11425 02af 0A000000 		.4byte	.LVL397
 11426 02b3 26000000 		.4byte	.LFE190
 11427 02b7 0400     		.2byte	0x4
 11428 02b9 F3       		.byte	0xf3
 11429 02ba 01       		.uleb128 0x1
 11430 02bb 51       		.byte	0x51
 11431 02bc 9F       		.byte	0x9f
 11432 02bd 00000000 		.4byte	0
 11433 02c1 00000000 		.4byte	0
 11434              	.LVUS194:
 11435 02c5 00       		.uleb128 0
 11436 02c6 00       		.uleb128 .LVU1630
 11437 02c7 00       		.uleb128 .LVU1630
 11438 02c8 00       		.uleb128 0
 11439              	.LLST194:
 11440 02c9 00000000 		.4byte	.LVL394
 11441 02cd 08000000 		.4byte	.LVL396
 11442 02d1 0100     		.2byte	0x1
 11443 02d3 53       		.byte	0x53
 11444 02d4 08000000 		.4byte	.LVL396
 11445 02d8 26000000 		.4byte	.LFE190
 11446 02dc 0400     		.2byte	0x4
 11447 02de F3       		.byte	0xf3
 11448 02df 01       		.uleb128 0x1
 11449 02e0 53       		.byte	0x53
 11450 02e1 9F       		.byte	0x9f
 11451 02e2 00000000 		.4byte	0
 11452 02e6 00000000 		.4byte	0
 11453              	.LVUS195:
 11454 02ea 02       		.uleb128 .LVU1614
 11455 02eb 00       		.uleb128 .LVU1639
 11456 02ec 00       		.uleb128 .LVU1639
 11457 02ed 01       		.uleb128 .LVU1640
ARM GAS  C:\Users\USER\AppData\Local\Temp\ccNdlOSb.s 			page 202


 11458 02ee 01       		.uleb128 .LVU1640
 11459 02ef 02       		.uleb128 .LVU1641
 11460 02f0 02       		.uleb128 .LVU1641
 11461 02f1 00       		.uleb128 .LVU1643
 11462 02f2 00       		.uleb128 .LVU1644
 11463 02f3 01       		.uleb128 .LVU1645
 11464 02f4 01       		.uleb128 .LVU1645
 11465 02f5 00       		.uleb128 .LVU1647
 11466              	.LLST195:
 11467 02f6 00000000 		.4byte	.LVL394
 11468 02fa 14000000 		.4byte	.LVL401
 11469 02fe 0200     		.2byte	0x2
 11470 0300 30       		.byte	0x30
 11471 0301 9F       		.byte	0x9f
 11472 0302 14000000 		.4byte	.LVL401
 11473 0306 14000000 		.4byte	.LVL401
 11474 030a 0100     		.2byte	0x1
 11475 030c 53       		.byte	0x53
 11476 030d 14000000 		.4byte	.LVL401
 11477 0311 14000000 		.4byte	.LVL401
 11478 0315 0600     		.2byte	0x6
 11479 0317 73       		.byte	0x73
 11480 0318 00       		.sleb128 0
 11481 0319 09       		.byte	0x9
 11482 031a F8       		.byte	0xf8
 11483 031b 1A       		.byte	0x1a
 11484 031c 9F       		.byte	0x9f
 11485 031d 14000000 		.4byte	.LVL401
 11486 0321 1C000000 		.4byte	.LVL402
 11487 0325 0500     		.2byte	0x5
 11488 0327 73       		.byte	0x73
 11489 0328 00       		.sleb128 0
 11490 0329 37       		.byte	0x37
 11491 032a 21       		.byte	0x21
 11492 032b 9F       		.byte	0x9f
 11493 032c 1E000000 		.4byte	.LVL403
 11494 0330 1E000000 		.4byte	.LVL403
 11495 0334 0500     		.2byte	0x5
 11496 0336 73       		.byte	0x73
 11497 0337 00       		.sleb128 0
 11498 0338 37       		.byte	0x37
 11499 0339 21       		.byte	0x21
 11500 033a 9F       		.byte	0x9f
 11501 033b 1E000000 		.4byte	.LVL403
 11502 033f 22000000 		.4byte	.LVL404
 11503 0343 0600     		.2byte	0x6
 11504 0345 73       		.byte	0x73
 11505 0346 00       		.sleb128 0
 11506 0347 08       		.byte	0x8
 11507 0348 77       		.byte	0x77
 11508 0349 21       		.byte	0x21
 11509 034a 9F       		.byte	0x9f
 11510 034b 00000000 		.4byte	0
 11511 034f 00000000 		.4byte	0
 11512              	.LVUS196:
 11513 0353 07       		.uleb128 .LVU1619
 11514 0354 00       		.uleb128 .LVU1630
ARM GAS  C:\Users\USER\AppData\Local\Temp\ccNdlOSb.s 			page 203


 11515 0355 00       		.uleb128 .LVU1630
 11516 0356 00       		.uleb128 .LVU1636
 11517              	.LLST196:
 11518 0357 00000000 		.4byte	.LVL394
 11519 035b 08000000 		.4byte	.LVL396
 11520 035f 0100     		.2byte	0x1
 11521 0361 53       		.byte	0x53
 11522 0362 08000000 		.4byte	.LVL396
 11523 0366 12000000 		.4byte	.LVL400
 11524 036a 0400     		.2byte	0x4
 11525 036c F3       		.byte	0xf3
 11526 036d 01       		.uleb128 0x1
 11527 036e 53       		.byte	0x53
 11528 036f 9F       		.byte	0x9f
 11529 0370 00000000 		.4byte	0
 11530 0374 00000000 		.4byte	0
 11531              	.LVUS197:
 11532 0378 07       		.uleb128 .LVU1619
 11533 0379 00       		.uleb128 .LVU1636
 11534              	.LLST197:
 11535 037a 00000000 		.4byte	.LVL394
 11536 037e 12000000 		.4byte	.LVL400
 11537 0382 0100     		.2byte	0x1
 11538 0384 52       		.byte	0x52
 11539 0385 00000000 		.4byte	0
 11540 0389 00000000 		.4byte	0
 11541              	.LVUS198:
 11542 038d 07       		.uleb128 .LVU1619
 11543 038e 00       		.uleb128 .LVU1631
 11544 038f 00       		.uleb128 .LVU1631
 11545 0390 00       		.uleb128 .LVU1636
 11546              	.LLST198:
 11547 0391 00000000 		.4byte	.LVL394
 11548 0395 0A000000 		.4byte	.LVL397
 11549 0399 0100     		.2byte	0x1
 11550 039b 51       		.byte	0x51
 11551 039c 0A000000 		.4byte	.LVL397
 11552 03a0 12000000 		.4byte	.LVL400
 11553 03a4 0400     		.2byte	0x4
 11554 03a6 F3       		.byte	0xf3
 11555 03a7 01       		.uleb128 0x1
 11556 03a8 51       		.byte	0x51
 11557 03a9 9F       		.byte	0x9f
 11558 03aa 00000000 		.4byte	0
 11559 03ae 00000000 		.4byte	0
 11560              	.LVUS199:
 11561 03b2 07       		.uleb128 .LVU1619
 11562 03b3 00       		.uleb128 .LVU1636
 11563              	.LLST199:
 11564 03b4 00000000 		.4byte	.LVL394
 11565 03b8 12000000 		.4byte	.LVL400
 11566 03bc 0100     		.2byte	0x1
 11567 03be 50       		.byte	0x50
 11568 03bf 00000000 		.4byte	0
 11569 03c3 00000000 		.4byte	0
 11570              	.LVUS200:
 11571 03c7 09       		.uleb128 .LVU1621
ARM GAS  C:\Users\USER\AppData\Local\Temp\ccNdlOSb.s 			page 204


 11572 03c8 00       		.uleb128 .LVU1628
 11573 03c9 00       		.uleb128 .LVU1628
 11574 03ca 01       		.uleb128 .LVU1633
 11575 03cb 01       		.uleb128 .LVU1633
 11576 03cc 00       		.uleb128 .LVU1635
 11577              	.LLST200:
 11578 03cd 00000000 		.4byte	.LVL394
 11579 03d1 04000000 		.4byte	.LVL395
 11580 03d5 0200     		.2byte	0x2
 11581 03d7 30       		.byte	0x30
 11582 03d8 9F       		.byte	0x9f
 11583 03d9 04000000 		.4byte	.LVL395
 11584 03dd 0C000000 		.4byte	.LVL398
 11585 03e1 0100     		.2byte	0x1
 11586 03e3 54       		.byte	0x54
 11587 03e4 0C000000 		.4byte	.LVL398
 11588 03e8 0E000000 		.4byte	.LVL399
 11589 03ec 1000     		.2byte	0x10
 11590 03ee F3       		.byte	0xf3
 11591 03ef 01       		.uleb128 0x1
 11592 03f0 53       		.byte	0x53
 11593 03f1 38       		.byte	0x38
 11594 03f2 24       		.byte	0x24
 11595 03f3 72       		.byte	0x72
 11596 03f4 00       		.sleb128 0
 11597 03f5 21       		.byte	0x21
 11598 03f6 F3       		.byte	0xf3
 11599 03f7 01       		.uleb128 0x1
 11600 03f8 51       		.byte	0x51
 11601 03f9 21       		.byte	0x21
 11602 03fa 74       		.byte	0x74
 11603 03fb 00       		.sleb128 0
 11604 03fc 21       		.byte	0x21
 11605 03fd 9F       		.byte	0x9f
 11606 03fe 00000000 		.4byte	0
 11607 0402 00000000 		.4byte	0
 11608              	.LVUS175:
 11609 0406 00       		.uleb128 0
 11610 0407 00       		.uleb128 .LVU1578
 11611 0408 00       		.uleb128 .LVU1578
 11612 0409 00       		.uleb128 .LVU1583
 11613 040a 00       		.uleb128 .LVU1583
 11614 040b 00       		.uleb128 0
 11615              	.LLST175:
 11616 040c 00000000 		.4byte	.LVL367
 11617 0410 3E000000 		.4byte	.LVL381
 11618 0414 0100     		.2byte	0x1
 11619 0416 51       		.byte	0x51
 11620 0417 3E000000 		.4byte	.LVL381
 11621 041b 4C000000 		.4byte	.LVL383
 11622 041f 0400     		.2byte	0x4
 11623 0421 F3       		.byte	0xf3
 11624 0422 01       		.uleb128 0x1
 11625 0423 51       		.byte	0x51
 11626 0424 9F       		.byte	0x9f
 11627 0425 4C000000 		.4byte	.LVL383
 11628 0429 7E000000 		.4byte	.LFE189
ARM GAS  C:\Users\USER\AppData\Local\Temp\ccNdlOSb.s 			page 205


 11629 042d 0100     		.2byte	0x1
 11630 042f 51       		.byte	0x51
 11631 0430 00000000 		.4byte	0
 11632 0434 00000000 		.4byte	0
 11633              	.LVUS176:
 11634 0438 00       		.uleb128 0
 11635 0439 00       		.uleb128 .LVU1558
 11636 043a 00       		.uleb128 .LVU1558
 11637 043b 00       		.uleb128 .LVU1583
 11638 043c 00       		.uleb128 .LVU1583
 11639 043d 00       		.uleb128 .LVU1601
 11640 043e 00       		.uleb128 .LVU1601
 11641 043f 00       		.uleb128 0
 11642              	.LLST176:
 11643 0440 00000000 		.4byte	.LVL367
 11644 0444 28000000 		.4byte	.LVL374
 11645 0448 0100     		.2byte	0x1
 11646 044a 52       		.byte	0x52
 11647 044b 28000000 		.4byte	.LVL374
 11648 044f 4C000000 		.4byte	.LVL383
 11649 0453 0400     		.2byte	0x4
 11650 0455 F3       		.byte	0xf3
 11651 0456 01       		.uleb128 0x1
 11652 0457 52       		.byte	0x52
 11653 0458 9F       		.byte	0x9f
 11654 0459 4C000000 		.4byte	.LVL383
 11655 045d 6C000000 		.4byte	.LVL389
 11656 0461 0100     		.2byte	0x1
 11657 0463 52       		.byte	0x52
 11658 0464 6C000000 		.4byte	.LVL389
 11659 0468 7E000000 		.4byte	.LFE189
 11660 046c 0400     		.2byte	0x4
 11661 046e F3       		.byte	0xf3
 11662 046f 01       		.uleb128 0x1
 11663 0470 52       		.byte	0x52
 11664 0471 9F       		.byte	0x9f
 11665 0472 00000000 		.4byte	0
 11666 0476 00000000 		.4byte	0
 11667              	.LVUS177:
 11668 047a 00       		.uleb128 0
 11669 047b 00       		.uleb128 .LVU1574
 11670 047c 00       		.uleb128 .LVU1574
 11671 047d 00       		.uleb128 .LVU1583
 11672 047e 00       		.uleb128 .LVU1583
 11673 047f 00       		.uleb128 0
 11674              	.LLST177:
 11675 0480 00000000 		.4byte	.LVL367
 11676 0484 3A000000 		.4byte	.LVL379
 11677 0488 0100     		.2byte	0x1
 11678 048a 53       		.byte	0x53
 11679 048b 3A000000 		.4byte	.LVL379
 11680 048f 4C000000 		.4byte	.LVL383
 11681 0493 0400     		.2byte	0x4
 11682 0495 F3       		.byte	0xf3
 11683 0496 01       		.uleb128 0x1
 11684 0497 53       		.byte	0x53
 11685 0498 9F       		.byte	0x9f
ARM GAS  C:\Users\USER\AppData\Local\Temp\ccNdlOSb.s 			page 206


 11686 0499 4C000000 		.4byte	.LVL383
 11687 049d 7E000000 		.4byte	.LFE189
 11688 04a1 0100     		.2byte	0x1
 11689 04a3 53       		.byte	0x53
 11690 04a4 00000000 		.4byte	0
 11691 04a8 00000000 		.4byte	0
 11692              	.LVUS178:
 11693 04ac 01       		.uleb128 .LVU1584
 11694 04ad 00       		.uleb128 0
 11695              	.LLST178:
 11696 04ae 4C000000 		.4byte	.LVL383
 11697 04b2 7E000000 		.4byte	.LFE189
 11698 04b6 0100     		.2byte	0x1
 11699 04b8 53       		.byte	0x53
 11700 04b9 00000000 		.4byte	0
 11701 04bd 00000000 		.4byte	0
 11702              	.LVUS179:
 11703 04c1 01       		.uleb128 .LVU1584
 11704 04c2 00       		.uleb128 .LVU1601
 11705 04c3 00       		.uleb128 .LVU1601
 11706 04c4 00       		.uleb128 0
 11707              	.LLST179:
 11708 04c5 4C000000 		.4byte	.LVL383
 11709 04c9 6C000000 		.4byte	.LVL389
 11710 04cd 0100     		.2byte	0x1
 11711 04cf 52       		.byte	0x52
 11712 04d0 6C000000 		.4byte	.LVL389
 11713 04d4 7E000000 		.4byte	.LFE189
 11714 04d8 0400     		.2byte	0x4
 11715 04da F3       		.byte	0xf3
 11716 04db 01       		.uleb128 0x1
 11717 04dc 52       		.byte	0x52
 11718 04dd 9F       		.byte	0x9f
 11719 04de 00000000 		.4byte	0
 11720 04e2 00000000 		.4byte	0
 11721              	.LVUS180:
 11722 04e6 01       		.uleb128 .LVU1584
 11723 04e7 00       		.uleb128 0
 11724              	.LLST180:
 11725 04e8 4C000000 		.4byte	.LVL383
 11726 04ec 7E000000 		.4byte	.LFE189
 11727 04f0 0100     		.2byte	0x1
 11728 04f2 50       		.byte	0x50
 11729 04f3 00000000 		.4byte	0
 11730 04f7 00000000 		.4byte	0
 11731              	.LVUS181:
 11732 04fb 03       		.uleb128 .LVU1586
 11733 04fc 00       		.uleb128 .LVU1590
 11734 04fd 00       		.uleb128 .LVU1590
 11735 04fe 00       		.uleb128 .LVU1600
 11736 04ff 00       		.uleb128 .LVU1602
 11737 0500 01       		.uleb128 .LVU1603
 11738 0501 01       		.uleb128 .LVU1603
 11739 0502 00       		.uleb128 .LVU1608
 11740              	.LLST181:
 11741 0503 4C000000 		.4byte	.LVL383
 11742 0507 56000000 		.4byte	.LVL384
ARM GAS  C:\Users\USER\AppData\Local\Temp\ccNdlOSb.s 			page 207


 11743 050b 0200     		.2byte	0x2
 11744 050d 30       		.byte	0x30
 11745 050e 9F       		.byte	0x9f
 11746 050f 56000000 		.4byte	.LVL384
 11747 0513 68000000 		.4byte	.LVL388
 11748 0517 0100     		.2byte	0x1
 11749 0519 56       		.byte	0x56
 11750 051a 6E000000 		.4byte	.LVL390
 11751 051e 6E000000 		.4byte	.LVL390
 11752 0522 0100     		.2byte	0x1
 11753 0524 56       		.byte	0x56
 11754 0525 6E000000 		.4byte	.LVL390
 11755 0529 74000000 		.4byte	.LVL392
 11756 052d 0700     		.2byte	0x7
 11757 052f 76       		.byte	0x76
 11758 0530 00       		.sleb128 0
 11759 0531 0A       		.byte	0xa
 11760 0532 0001     		.2byte	0x100
 11761 0534 21       		.byte	0x21
 11762 0535 9F       		.byte	0x9f
 11763 0536 00000000 		.4byte	0
 11764 053a 00000000 		.4byte	0
 11765              	.LVUS182:
 11766 053e 03       		.uleb128 .LVU1586
 11767 053f 00       		.uleb128 .LVU1594
 11768 0540 00       		.uleb128 .LVU1594
 11769 0541 00       		.uleb128 .LVU1599
 11770 0542 00       		.uleb128 .LVU1606
 11771 0543 00       		.uleb128 .LVU1609
 11772              	.LLST182:
 11773 0544 4C000000 		.4byte	.LVL383
 11774 0548 5E000000 		.4byte	.LVL385
 11775 054c 0200     		.2byte	0x2
 11776 054e 30       		.byte	0x30
 11777 054f 9F       		.byte	0x9f
 11778 0550 5E000000 		.4byte	.LVL385
 11779 0554 64000000 		.4byte	.LVL387
 11780 0558 0100     		.2byte	0x1
 11781 055a 55       		.byte	0x55
 11782 055b 70000000 		.4byte	.LVL391
 11783 055f 78000000 		.4byte	.LVL393
 11784 0563 0500     		.2byte	0x5
 11785 0565 72       		.byte	0x72
 11786 0566 00       		.sleb128 0
 11787 0567 40       		.byte	0x40
 11788 0568 21       		.byte	0x21
 11789 0569 9F       		.byte	0x9f
 11790 056a 00000000 		.4byte	0
 11791 056e 00000000 		.4byte	0
 11792              	.LVUS183:
 11793 0572 03       		.uleb128 .LVU1586
 11794 0573 01       		.uleb128 .LVU1595
 11795 0574 01       		.uleb128 .LVU1595
 11796 0575 00       		.uleb128 .LVU1601
 11797 0576 00       		.uleb128 .LVU1601
 11798 0577 00       		.uleb128 0
 11799              	.LLST183:
ARM GAS  C:\Users\USER\AppData\Local\Temp\ccNdlOSb.s 			page 208


 11800 0578 4C000000 		.4byte	.LVL383
 11801 057c 5E000000 		.4byte	.LVL385
 11802 0580 0200     		.2byte	0x2
 11803 0582 30       		.byte	0x30
 11804 0583 9F       		.byte	0x9f
 11805 0584 5E000000 		.4byte	.LVL385
 11806 0588 6C000000 		.4byte	.LVL389
 11807 058c 0500     		.2byte	0x5
 11808 058e 72       		.byte	0x72
 11809 058f 00       		.sleb128 0
 11810 0590 34       		.byte	0x34
 11811 0591 24       		.byte	0x24
 11812 0592 9F       		.byte	0x9f
 11813 0593 6C000000 		.4byte	.LVL389
 11814 0597 7E000000 		.4byte	.LFE189
 11815 059b 0600     		.2byte	0x6
 11816 059d F3       		.byte	0xf3
 11817 059e 01       		.uleb128 0x1
 11818 059f 52       		.byte	0x52
 11819 05a0 34       		.byte	0x34
 11820 05a1 24       		.byte	0x24
 11821 05a2 9F       		.byte	0x9f
 11822 05a3 00000000 		.4byte	0
 11823 05a7 00000000 		.4byte	0
 11824              	.LVUS184:
 11825 05ab 01       		.uleb128 .LVU1540
 11826 05ac 00       		.uleb128 .LVU1564
 11827              	.LLST184:
 11828 05ad 08000000 		.4byte	.LVL368
 11829 05b1 34000000 		.4byte	.LVL377
 11830 05b5 0100     		.2byte	0x1
 11831 05b7 53       		.byte	0x53
 11832 05b8 00000000 		.4byte	0
 11833 05bc 00000000 		.4byte	0
 11834              	.LVUS185:
 11835 05c0 01       		.uleb128 .LVU1540
 11836 05c1 00       		.uleb128 .LVU1564
 11837              	.LLST185:
 11838 05c2 08000000 		.4byte	.LVL368
 11839 05c6 34000000 		.4byte	.LVL377
 11840 05ca 0200     		.2byte	0x2
 11841 05cc 31       		.byte	0x31
 11842 05cd 9F       		.byte	0x9f
 11843 05ce 00000000 		.4byte	0
 11844 05d2 00000000 		.4byte	0
 11845              	.LVUS186:
 11846 05d6 01       		.uleb128 .LVU1540
 11847 05d7 00       		.uleb128 .LVU1558
 11848 05d8 00       		.uleb128 .LVU1558
 11849 05d9 00       		.uleb128 .LVU1564
 11850              	.LLST186:
 11851 05da 08000000 		.4byte	.LVL368
 11852 05de 28000000 		.4byte	.LVL374
 11853 05e2 0100     		.2byte	0x1
 11854 05e4 52       		.byte	0x52
 11855 05e5 28000000 		.4byte	.LVL374
 11856 05e9 34000000 		.4byte	.LVL377
ARM GAS  C:\Users\USER\AppData\Local\Temp\ccNdlOSb.s 			page 209


 11857 05ed 0400     		.2byte	0x4
 11858 05ef F3       		.byte	0xf3
 11859 05f0 01       		.uleb128 0x1
 11860 05f1 52       		.byte	0x52
 11861 05f2 9F       		.byte	0x9f
 11862 05f3 00000000 		.4byte	0
 11863 05f7 00000000 		.4byte	0
 11864              	.LVUS187:
 11865 05fb 01       		.uleb128 .LVU1540
 11866 05fc 00       		.uleb128 .LVU1564
 11867              	.LLST187:
 11868 05fd 08000000 		.4byte	.LVL368
 11869 0601 34000000 		.4byte	.LVL377
 11870 0605 0100     		.2byte	0x1
 11871 0607 50       		.byte	0x50
 11872 0608 00000000 		.4byte	0
 11873 060c 00000000 		.4byte	0
 11874              	.LVUS188:
 11875 0610 03       		.uleb128 .LVU1542
 11876 0611 00       		.uleb128 .LVU1548
 11877 0612 00       		.uleb128 .LVU1548
 11878 0613 00       		.uleb128 .LVU1550
 11879 0614 00       		.uleb128 .LVU1555
 11880 0615 00       		.uleb128 .LVU1560
 11881              	.LLST188:
 11882 0616 08000000 		.4byte	.LVL368
 11883 061a 16000000 		.4byte	.LVL369
 11884 061e 0200     		.2byte	0x2
 11885 0620 30       		.byte	0x30
 11886 0621 9F       		.byte	0x9f
 11887 0622 16000000 		.4byte	.LVL369
 11888 0626 1A000000 		.4byte	.LVL370
 11889 062a 0100     		.2byte	0x1
 11890 062c 54       		.byte	0x54
 11891 062d 26000000 		.4byte	.LVL373
 11892 0631 2C000000 		.4byte	.LVL375
 11893 0635 0500     		.2byte	0x5
 11894 0637 74       		.byte	0x74
 11895 0638 00       		.sleb128 0
 11896 0639 31       		.byte	0x31
 11897 063a 21       		.byte	0x21
 11898 063b 9F       		.byte	0x9f
 11899 063c 00000000 		.4byte	0
 11900 0640 00000000 		.4byte	0
 11901              	.LVUS189:
 11902 0644 03       		.uleb128 .LVU1542
 11903 0645 00       		.uleb128 .LVU1551
 11904 0646 00       		.uleb128 .LVU1551
 11905 0647 00       		.uleb128 .LVU1554
 11906 0648 00       		.uleb128 .LVU1558
 11907 0649 00       		.uleb128 .LVU1561
 11908              	.LLST189:
 11909 064a 08000000 		.4byte	.LVL368
 11910 064e 1C000000 		.4byte	.LVL371
 11911 0652 0200     		.2byte	0x2
 11912 0654 30       		.byte	0x30
 11913 0655 9F       		.byte	0x9f
ARM GAS  C:\Users\USER\AppData\Local\Temp\ccNdlOSb.s 			page 210


 11914 0656 1C000000 		.4byte	.LVL371
 11915 065a 24000000 		.4byte	.LVL372
 11916 065e 0100     		.2byte	0x1
 11917 0660 55       		.byte	0x55
 11918 0661 28000000 		.4byte	.LVL374
 11919 0665 30000000 		.4byte	.LVL376
 11920 0669 0500     		.2byte	0x5
 11921 066b 72       		.byte	0x72
 11922 066c 00       		.sleb128 0
 11923 066d 31       		.byte	0x31
 11924 066e 21       		.byte	0x21
 11925 066f 9F       		.byte	0x9f
 11926 0670 00000000 		.4byte	0
 11927 0674 00000000 		.4byte	0
 11928              	.LVUS190:
 11929 0678 02       		.uleb128 .LVU1566
 11930 0679 00       		.uleb128 .LVU1578
 11931 067a 00       		.uleb128 .LVU1578
 11932 067b 00       		.uleb128 .LVU1579
 11933              	.LLST190:
 11934 067c 34000000 		.4byte	.LVL377
 11935 0680 3E000000 		.4byte	.LVL381
 11936 0684 0100     		.2byte	0x1
 11937 0686 51       		.byte	0x51
 11938 0687 3E000000 		.4byte	.LVL381
 11939 068b 40000000 		.4byte	.LVL382
 11940 068f 0400     		.2byte	0x4
 11941 0691 F3       		.byte	0xf3
 11942 0692 01       		.uleb128 0x1
 11943 0693 51       		.byte	0x51
 11944 0694 9F       		.byte	0x9f
 11945 0695 00000000 		.4byte	0
 11946 0699 00000000 		.4byte	0
 11947              	.LVUS191:
 11948 069d 02       		.uleb128 .LVU1566
 11949 069e 00       		.uleb128 .LVU1579
 11950              	.LLST191:
 11951 069f 34000000 		.4byte	.LVL377
 11952 06a3 40000000 		.4byte	.LVL382
 11953 06a7 0100     		.2byte	0x1
 11954 06a9 50       		.byte	0x50
 11955 06aa 00000000 		.4byte	0
 11956 06ae 00000000 		.4byte	0
 11957              	.LVUS192:
 11958 06b2 04       		.uleb128 .LVU1568
 11959 06b3 00       		.uleb128 .LVU1572
 11960 06b4 00       		.uleb128 .LVU1572
 11961 06b5 00       		.uleb128 .LVU1575
 11962 06b6 00       		.uleb128 .LVU1575
 11963 06b7 01       		.uleb128 .LVU1576
 11964 06b8 01       		.uleb128 .LVU1576
 11965 06b9 00       		.uleb128 .LVU1578
 11966 06ba 00       		.uleb128 .LVU1578
 11967 06bb 00       		.uleb128 .LVU1579
 11968              	.LLST192:
 11969 06bc 34000000 		.4byte	.LVL377
 11970 06c0 36000000 		.4byte	.LVL378
ARM GAS  C:\Users\USER\AppData\Local\Temp\ccNdlOSb.s 			page 211


 11971 06c4 0200     		.2byte	0x2
 11972 06c6 30       		.byte	0x30
 11973 06c7 9F       		.byte	0x9f
 11974 06c8 36000000 		.4byte	.LVL378
 11975 06cc 3C000000 		.4byte	.LVL380
 11976 06d0 0100     		.2byte	0x1
 11977 06d2 52       		.byte	0x52
 11978 06d3 3C000000 		.4byte	.LVL380
 11979 06d7 3C000000 		.4byte	.LVL380
 11980 06db 0100     		.2byte	0x1
 11981 06dd 53       		.byte	0x53
 11982 06de 3C000000 		.4byte	.LVL380
 11983 06e2 3E000000 		.4byte	.LVL381
 11984 06e6 0600     		.2byte	0x6
 11985 06e8 71       		.byte	0x71
 11986 06e9 00       		.sleb128 0
 11987 06ea 73       		.byte	0x73
 11988 06eb 00       		.sleb128 0
 11989 06ec 21       		.byte	0x21
 11990 06ed 9F       		.byte	0x9f
 11991 06ee 3E000000 		.4byte	.LVL381
 11992 06f2 40000000 		.4byte	.LVL382
 11993 06f6 0700     		.2byte	0x7
 11994 06f8 F3       		.byte	0xf3
 11995 06f9 01       		.uleb128 0x1
 11996 06fa 51       		.byte	0x51
 11997 06fb 73       		.byte	0x73
 11998 06fc 00       		.sleb128 0
 11999 06fd 21       		.byte	0x21
 12000 06fe 9F       		.byte	0x9f
 12001 06ff 00000000 		.4byte	0
 12002 0703 00000000 		.4byte	0
 12003              	.LVUS171:
 12004 0707 00       		.uleb128 0
 12005 0708 00       		.uleb128 .LVU1525
 12006 0709 00       		.uleb128 .LVU1525
 12007 070a 00       		.uleb128 0
 12008              	.LLST171:
 12009 070b 00000000 		.4byte	.LVL362
 12010 070f 0A000000 		.4byte	.LVL365
 12011 0713 0100     		.2byte	0x1
 12012 0715 51       		.byte	0x51
 12013 0716 0A000000 		.4byte	.LVL365
 12014 071a 16000000 		.4byte	.LFE188
 12015 071e 0400     		.2byte	0x4
 12016 0720 F3       		.byte	0xf3
 12017 0721 01       		.uleb128 0x1
 12018 0722 51       		.byte	0x51
 12019 0723 9F       		.byte	0x9f
 12020 0724 00000000 		.4byte	0
 12021 0728 00000000 		.4byte	0
 12022              	.LVUS172:
 12023 072c 04       		.uleb128 .LVU1514
 12024 072d 00       		.uleb128 .LVU1525
 12025 072e 00       		.uleb128 .LVU1525
 12026 072f 00       		.uleb128 .LVU1526
 12027              	.LLST172:
ARM GAS  C:\Users\USER\AppData\Local\Temp\ccNdlOSb.s 			page 212


 12028 0730 00000000 		.4byte	.LVL362
 12029 0734 0A000000 		.4byte	.LVL365
 12030 0738 0100     		.2byte	0x1
 12031 073a 51       		.byte	0x51
 12032 073b 0A000000 		.4byte	.LVL365
 12033 073f 0C000000 		.4byte	.LVL366
 12034 0743 0400     		.2byte	0x4
 12035 0745 F3       		.byte	0xf3
 12036 0746 01       		.uleb128 0x1
 12037 0747 51       		.byte	0x51
 12038 0748 9F       		.byte	0x9f
 12039 0749 00000000 		.4byte	0
 12040 074d 00000000 		.4byte	0
 12041              	.LVUS173:
 12042 0751 04       		.uleb128 .LVU1514
 12043 0752 00       		.uleb128 .LVU1526
 12044              	.LLST173:
 12045 0753 00000000 		.4byte	.LVL362
 12046 0757 0C000000 		.4byte	.LVL366
 12047 075b 0100     		.2byte	0x1
 12048 075d 50       		.byte	0x50
 12049 075e 00000000 		.4byte	0
 12050 0762 00000000 		.4byte	0
 12051              	.LVUS174:
 12052 0766 06       		.uleb128 .LVU1516
 12053 0767 00       		.uleb128 .LVU1520
 12054 0768 00       		.uleb128 .LVU1520
 12055 0769 00       		.uleb128 .LVU1522
 12056 076a 00       		.uleb128 .LVU1522
 12057 076b 01       		.uleb128 .LVU1523
 12058 076c 01       		.uleb128 .LVU1523
 12059 076d 00       		.uleb128 .LVU1525
 12060 076e 00       		.uleb128 .LVU1525
 12061 076f 00       		.uleb128 .LVU1526
 12062              	.LLST174:
 12063 0770 00000000 		.4byte	.LVL362
 12064 0774 02000000 		.4byte	.LVL363
 12065 0778 0200     		.2byte	0x2
 12066 077a 30       		.byte	0x30
 12067 077b 9F       		.byte	0x9f
 12068 077c 02000000 		.4byte	.LVL363
 12069 0780 08000000 		.4byte	.LVL364
 12070 0784 0100     		.2byte	0x1
 12071 0786 52       		.byte	0x52
 12072 0787 08000000 		.4byte	.LVL364
 12073 078b 08000000 		.4byte	.LVL364
 12074 078f 0100     		.2byte	0x1
 12075 0791 53       		.byte	0x53
 12076 0792 08000000 		.4byte	.LVL364
 12077 0796 0A000000 		.4byte	.LVL365
 12078 079a 0600     		.2byte	0x6
 12079 079c 71       		.byte	0x71
 12080 079d 00       		.sleb128 0
 12081 079e 73       		.byte	0x73
 12082 079f 00       		.sleb128 0
 12083 07a0 21       		.byte	0x21
 12084 07a1 9F       		.byte	0x9f
ARM GAS  C:\Users\USER\AppData\Local\Temp\ccNdlOSb.s 			page 213


 12085 07a2 0A000000 		.4byte	.LVL365
 12086 07a6 0C000000 		.4byte	.LVL366
 12087 07aa 0700     		.2byte	0x7
 12088 07ac F3       		.byte	0xf3
 12089 07ad 01       		.uleb128 0x1
 12090 07ae 51       		.byte	0x51
 12091 07af 73       		.byte	0x73
 12092 07b0 00       		.sleb128 0
 12093 07b1 21       		.byte	0x21
 12094 07b2 9F       		.byte	0x9f
 12095 07b3 00000000 		.4byte	0
 12096 07b7 00000000 		.4byte	0
 12097              	.LVUS170:
 12098 07bb 00       		.uleb128 0
 12099 07bc 00       		.uleb128 .LVU1492
 12100 07bd 00       		.uleb128 .LVU1492
 12101 07be 00       		.uleb128 0
 12102              	.LLST170:
 12103 07bf 00000000 		.4byte	.LVL358
 12104 07c3 02000000 		.4byte	.LVL359
 12105 07c7 0100     		.2byte	0x1
 12106 07c9 52       		.byte	0x52
 12107 07ca 02000000 		.4byte	.LVL359
 12108 07ce 06000000 		.4byte	.LFE184
 12109 07d2 0400     		.2byte	0x4
 12110 07d4 F3       		.byte	0xf3
 12111 07d5 01       		.uleb128 0x1
 12112 07d6 52       		.byte	0x52
 12113 07d7 9F       		.byte	0x9f
 12114 07d8 00000000 		.4byte	0
 12115 07dc 00000000 		.4byte	0
 12116              	.LVUS166:
 12117 07e0 00       		.uleb128 0
 12118 07e1 00       		.uleb128 .LVU1481
 12119 07e2 00       		.uleb128 .LVU1481
 12120 07e3 00       		.uleb128 0
 12121              	.LLST166:
 12122 07e4 00000000 		.4byte	.LVL353
 12123 07e8 08000000 		.4byte	.LVL356
 12124 07ec 0100     		.2byte	0x1
 12125 07ee 50       		.byte	0x50
 12126 07ef 08000000 		.4byte	.LVL356
 12127 07f3 14000000 		.4byte	.LFE182
 12128 07f7 0400     		.2byte	0x4
 12129 07f9 F3       		.byte	0xf3
 12130 07fa 01       		.uleb128 0x1
 12131 07fb 50       		.byte	0x50
 12132 07fc 9F       		.byte	0x9f
 12133 07fd 00000000 		.4byte	0
 12134 0801 00000000 		.4byte	0
 12135              	.LVUS167:
 12136 0805 02       		.uleb128 .LVU1472
 12137 0806 00       		.uleb128 .LVU1484
 12138 0807 00       		.uleb128 .LVU1484
 12139 0808 00       		.uleb128 0
 12140              	.LLST167:
 12141 0809 00000000 		.4byte	.LVL353
ARM GAS  C:\Users\USER\AppData\Local\Temp\ccNdlOSb.s 			page 214


 12142 080d 12000000 		.4byte	.LVL357
 12143 0811 0200     		.2byte	0x2
 12144 0813 30       		.byte	0x30
 12145 0814 9F       		.byte	0x9f
 12146 0815 12000000 		.4byte	.LVL357
 12147 0819 14000000 		.4byte	.LFE182
 12148 081d 0100     		.2byte	0x1
 12149 081f 50       		.byte	0x50
 12150 0820 00000000 		.4byte	0
 12151 0824 00000000 		.4byte	0
 12152              	.LVUS168:
 12153 0828 03       		.uleb128 .LVU1473
 12154 0829 00       		.uleb128 .LVU1477
 12155 082a 00       		.uleb128 .LVU1477
 12156 082b 00       		.uleb128 0
 12157              	.LLST168:
 12158 082c 00000000 		.4byte	.LVL353
 12159 0830 02000000 		.4byte	.LVL354
 12160 0834 0200     		.2byte	0x2
 12161 0836 30       		.byte	0x30
 12162 0837 9F       		.byte	0x9f
 12163 0838 02000000 		.4byte	.LVL354
 12164 083c 14000000 		.4byte	.LFE182
 12165 0840 0600     		.2byte	0x6
 12166 0842 73       		.byte	0x73
 12167 0843 00       		.sleb128 0
 12168 0844 71       		.byte	0x71
 12169 0845 00       		.sleb128 0
 12170 0846 1A       		.byte	0x1a
 12171 0847 9F       		.byte	0x9f
 12172 0848 00000000 		.4byte	0
 12173 084c 00000000 		.4byte	0
 12174              	.LVUS169:
 12175 0850 03       		.uleb128 .LVU1473
 12176 0851 00       		.uleb128 .LVU1479
 12177 0852 00       		.uleb128 .LVU1479
 12178 0853 00       		.uleb128 0
 12179              	.LLST169:
 12180 0854 00000000 		.4byte	.LVL353
 12181 0858 04000000 		.4byte	.LVL355
 12182 085c 0200     		.2byte	0x2
 12183 085e 30       		.byte	0x30
 12184 085f 9F       		.byte	0x9f
 12185 0860 04000000 		.4byte	.LVL355
 12186 0864 14000000 		.4byte	.LFE182
 12187 0868 0600     		.2byte	0x6
 12188 086a 72       		.byte	0x72
 12189 086b 00       		.sleb128 0
 12190 086c 71       		.byte	0x71
 12191 086d 00       		.sleb128 0
 12192 086e 1A       		.byte	0x1a
 12193 086f 9F       		.byte	0x9f
 12194 0870 00000000 		.4byte	0
 12195 0874 00000000 		.4byte	0
 12196              	.LVUS163:
 12197 0878 00       		.uleb128 0
 12198 0879 00       		.uleb128 .LVU1462
ARM GAS  C:\Users\USER\AppData\Local\Temp\ccNdlOSb.s 			page 215


 12199 087a 00       		.uleb128 .LVU1462
 12200 087b 00       		.uleb128 0
 12201              	.LLST163:
 12202 087c 00000000 		.4byte	.LVL348
 12203 0880 08000000 		.4byte	.LVL350
 12204 0884 0100     		.2byte	0x1
 12205 0886 50       		.byte	0x50
 12206 0887 08000000 		.4byte	.LVL350
 12207 088b 0C000000 		.4byte	.LFE180
 12208 088f 0400     		.2byte	0x4
 12209 0891 F3       		.byte	0xf3
 12210 0892 01       		.uleb128 0x1
 12211 0893 50       		.byte	0x50
 12212 0894 9F       		.byte	0x9f
 12213 0895 00000000 		.4byte	0
 12214 0899 00000000 		.4byte	0
 12215              	.LVUS164:
 12216 089d 02       		.uleb128 .LVU1455
 12217 089e 00       		.uleb128 .LVU1459
 12218 089f 00       		.uleb128 .LVU1459
 12219 08a0 00       		.uleb128 0
 12220              	.LLST164:
 12221 08a1 00000000 		.4byte	.LVL348
 12222 08a5 02000000 		.4byte	.LVL349
 12223 08a9 0200     		.2byte	0x2
 12224 08ab 30       		.byte	0x30
 12225 08ac 9F       		.byte	0x9f
 12226 08ad 02000000 		.4byte	.LVL349
 12227 08b1 0C000000 		.4byte	.LFE180
 12228 08b5 0C00     		.2byte	0xc
 12229 08b7 71       		.byte	0x71
 12230 08b8 00       		.sleb128 0
 12231 08b9 0A       		.byte	0xa
 12232 08ba FFFF     		.2byte	0xffff
 12233 08bc 1A       		.byte	0x1a
 12234 08bd 73       		.byte	0x73
 12235 08be 00       		.sleb128 0
 12236 08bf 1A       		.byte	0x1a
 12237 08c0 30       		.byte	0x30
 12238 08c1 2E       		.byte	0x2e
 12239 08c2 9F       		.byte	0x9f
 12240 08c3 00000000 		.4byte	0
 12241 08c7 00000000 		.4byte	0
 12242              	.LVUS162:
 12243 08cb 00       		.uleb128 0
 12244 08cc 00       		.uleb128 .LVU1440
 12245 08cd 00       		.uleb128 .LVU1440
 12246 08ce 00       		.uleb128 .LVU1441
 12247 08cf 00       		.uleb128 .LVU1441
 12248 08d0 00       		.uleb128 .LVU1444
 12249 08d1 00       		.uleb128 .LVU1444
 12250 08d2 00       		.uleb128 0
 12251              	.LLST162:
 12252 08d3 00000000 		.4byte	.LVL343
 12253 08d7 06000000 		.4byte	.LVL344
 12254 08db 0100     		.2byte	0x1
 12255 08dd 51       		.byte	0x51
ARM GAS  C:\Users\USER\AppData\Local\Temp\ccNdlOSb.s 			page 216


 12256 08de 06000000 		.4byte	.LVL344
 12257 08e2 0A000000 		.4byte	.LVL345
 12258 08e6 0400     		.2byte	0x4
 12259 08e8 F3       		.byte	0xf3
 12260 08e9 01       		.uleb128 0x1
 12261 08ea 51       		.byte	0x51
 12262 08eb 9F       		.byte	0x9f
 12263 08ec 0A000000 		.4byte	.LVL345
 12264 08f0 0E000000 		.4byte	.LVL346
 12265 08f4 0100     		.2byte	0x1
 12266 08f6 51       		.byte	0x51
 12267 08f7 0E000000 		.4byte	.LVL346
 12268 08fb 16000000 		.4byte	.LFE178
 12269 08ff 0400     		.2byte	0x4
 12270 0901 F3       		.byte	0xf3
 12271 0902 01       		.uleb128 0x1
 12272 0903 51       		.byte	0x51
 12273 0904 9F       		.byte	0x9f
 12274 0905 00000000 		.4byte	0
 12275 0909 00000000 		.4byte	0
 12276              	.LVUS157:
 12277 090d 00       		.uleb128 0
 12278 090e 00       		.uleb128 .LVU1329
 12279 090f 00       		.uleb128 .LVU1329
 12280 0910 00       		.uleb128 0
 12281              	.LLST157:
 12282 0911 00000000 		.4byte	.LVL328
 12283 0915 02000000 		.4byte	.LVL329
 12284 0919 0100     		.2byte	0x1
 12285 091b 50       		.byte	0x50
 12286 091c 02000000 		.4byte	.LVL329
 12287 0920 04000000 		.4byte	.LFE168
 12288 0924 0400     		.2byte	0x4
 12289 0926 F3       		.byte	0xf3
 12290 0927 01       		.uleb128 0x1
 12291 0928 50       		.byte	0x50
 12292 0929 9F       		.byte	0x9f
 12293 092a 00000000 		.4byte	0
 12294 092e 00000000 		.4byte	0
 12295              	.LVUS156:
 12296 0932 00       		.uleb128 0
 12297 0933 00       		.uleb128 .LVU1324
 12298 0934 00       		.uleb128 .LVU1324
 12299 0935 00       		.uleb128 0
 12300              	.LLST156:
 12301 0936 00000000 		.4byte	.LVL326
 12302 093a 02000000 		.4byte	.LVL327
 12303 093e 0100     		.2byte	0x1
 12304 0940 50       		.byte	0x50
 12305 0941 02000000 		.4byte	.LVL327
 12306 0945 04000000 		.4byte	.LFE167
 12307 0949 0400     		.2byte	0x4
 12308 094b F3       		.byte	0xf3
 12309 094c 01       		.uleb128 0x1
 12310 094d 50       		.byte	0x50
 12311 094e 9F       		.byte	0x9f
 12312 094f 00000000 		.4byte	0
ARM GAS  C:\Users\USER\AppData\Local\Temp\ccNdlOSb.s 			page 217


 12313 0953 00000000 		.4byte	0
 12314              	.LVUS155:
 12315 0957 00       		.uleb128 0
 12316 0958 00       		.uleb128 .LVU1319
 12317 0959 00       		.uleb128 .LVU1319
 12318 095a 00       		.uleb128 0
 12319              	.LLST155:
 12320 095b 00000000 		.4byte	.LVL324
 12321 095f 02000000 		.4byte	.LVL325
 12322 0963 0100     		.2byte	0x1
 12323 0965 50       		.byte	0x50
 12324 0966 02000000 		.4byte	.LVL325
 12325 096a 04000000 		.4byte	.LFE166
 12326 096e 0400     		.2byte	0x4
 12327 0970 F3       		.byte	0xf3
 12328 0971 01       		.uleb128 0x1
 12329 0972 50       		.byte	0x50
 12330 0973 9F       		.byte	0x9f
 12331 0974 00000000 		.4byte	0
 12332 0978 00000000 		.4byte	0
 12333              	.LVUS154:
 12334 097c 00       		.uleb128 0
 12335 097d 00       		.uleb128 .LVU1314
 12336 097e 00       		.uleb128 .LVU1314
 12337 097f 00       		.uleb128 0
 12338              	.LLST154:
 12339 0980 00000000 		.4byte	.LVL322
 12340 0984 02000000 		.4byte	.LVL323
 12341 0988 0100     		.2byte	0x1
 12342 098a 50       		.byte	0x50
 12343 098b 02000000 		.4byte	.LVL323
 12344 098f 04000000 		.4byte	.LFE165
 12345 0993 0400     		.2byte	0x4
 12346 0995 F3       		.byte	0xf3
 12347 0996 01       		.uleb128 0x1
 12348 0997 50       		.byte	0x50
 12349 0998 9F       		.byte	0x9f
 12350 0999 00000000 		.4byte	0
 12351 099d 00000000 		.4byte	0
 12352              	.LVUS117:
 12353 09a1 00       		.uleb128 0
 12354 09a2 00       		.uleb128 .LVU1158
 12355 09a3 00       		.uleb128 .LVU1158
 12356 09a4 00       		.uleb128 0
 12357              	.LLST117:
 12358 09a5 00000000 		.4byte	.LVL278
 12359 09a9 1A000000 		.4byte	.LVL279
 12360 09ad 0100     		.2byte	0x1
 12361 09af 51       		.byte	0x51
 12362 09b0 1A000000 		.4byte	.LVL279
 12363 09b4 42010000 		.4byte	.LFE164
 12364 09b8 0400     		.2byte	0x4
 12365 09ba F3       		.byte	0xf3
 12366 09bb 01       		.uleb128 0x1
 12367 09bc 51       		.byte	0x51
 12368 09bd 9F       		.byte	0x9f
 12369 09be 00000000 		.4byte	0
ARM GAS  C:\Users\USER\AppData\Local\Temp\ccNdlOSb.s 			page 218


 12370 09c2 00000000 		.4byte	0
 12371              	.LVUS118:
 12372 09c6 02       		.uleb128 .LVU1150
 12373 09c7 00       		.uleb128 .LVU1159
 12374 09c8 00       		.uleb128 .LVU1159
 12375 09c9 00       		.uleb128 .LVU1220
 12376 09ca 00       		.uleb128 .LVU1236
 12377 09cb 00       		.uleb128 .LVU1294
 12378              	.LLST118:
 12379 09cc 00000000 		.4byte	.LVL278
 12380 09d0 20000000 		.4byte	.LVL280
 12381 09d4 0200     		.2byte	0x2
 12382 09d6 30       		.byte	0x30
 12383 09d7 9F       		.byte	0x9f
 12384 09d8 20000000 		.4byte	.LVL280
 12385 09dc 9E000000 		.4byte	.LVL298
 12386 09e0 0100     		.2byte	0x1
 12387 09e2 54       		.byte	0x54
 12388 09e3 BE000000 		.4byte	.LVL302
 12389 09e7 24010000 		.4byte	.LVL318
 12390 09eb 0100     		.2byte	0x1
 12391 09ed 54       		.byte	0x54
 12392 09ee 00000000 		.4byte	0
 12393 09f2 00000000 		.4byte	0
 12394              	.LVUS119:
 12395 09f6 03       		.uleb128 .LVU1151
 12396 09f7 00       		.uleb128 .LVU1162
 12397 09f8 00       		.uleb128 .LVU1162
 12398 09f9 00       		.uleb128 .LVU1222
 12399 09fa 00       		.uleb128 .LVU1236
 12400 09fb 00       		.uleb128 .LVU1296
 12401              	.LLST119:
 12402 09fc 00000000 		.4byte	.LVL278
 12403 0a00 30000000 		.4byte	.LVL281
 12404 0a04 0200     		.2byte	0x2
 12405 0a06 31       		.byte	0x31
 12406 0a07 9F       		.byte	0x9f
 12407 0a08 30000000 		.4byte	.LVL281
 12408 0a0c A2000000 		.4byte	.LVL299
 12409 0a10 0100     		.2byte	0x1
 12410 0a12 57       		.byte	0x57
 12411 0a13 BE000000 		.4byte	.LVL302
 12412 0a17 26010000 		.4byte	.LVL319
 12413 0a1b 0100     		.2byte	0x1
 12414 0a1d 57       		.byte	0x57
 12415 0a1e 00000000 		.4byte	0
 12416 0a22 00000000 		.4byte	0
 12417              	.LVUS120:
 12418 0a26 01       		.uleb128 .LVU1165
 12419 0a27 00       		.uleb128 .LVU1189
 12420              	.LLST120:
 12421 0a28 3A000000 		.4byte	.LVL282
 12422 0a2c 6E000000 		.4byte	.LVL291
 12423 0a30 0500     		.2byte	0x5
 12424 0a32 F3       		.byte	0xf3
 12425 0a33 01       		.uleb128 0x1
 12426 0a34 51       		.byte	0x51
ARM GAS  C:\Users\USER\AppData\Local\Temp\ccNdlOSb.s 			page 219


 12427 0a35 23       		.byte	0x23
 12428 0a36 08       		.uleb128 0x8
 12429 0a37 00000000 		.4byte	0
 12430 0a3b 00000000 		.4byte	0
 12431              	.LVUS121:
 12432 0a3f 01       		.uleb128 .LVU1165
 12433 0a40 00       		.uleb128 .LVU1189
 12434              	.LLST121:
 12435 0a41 3A000000 		.4byte	.LVL282
 12436 0a45 6E000000 		.4byte	.LVL291
 12437 0a49 0100     		.2byte	0x1
 12438 0a4b 5C       		.byte	0x5c
 12439 0a4c 00000000 		.4byte	0
 12440 0a50 00000000 		.4byte	0
 12441              	.LVUS122:
 12442 0a54 01       		.uleb128 .LVU1165
 12443 0a55 00       		.uleb128 .LVU1189
 12444              	.LLST122:
 12445 0a56 3A000000 		.4byte	.LVL282
 12446 0a5a 6E000000 		.4byte	.LVL291
 12447 0a5e 0100     		.2byte	0x1
 12448 0a60 5E       		.byte	0x5e
 12449 0a61 00000000 		.4byte	0
 12450 0a65 00000000 		.4byte	0
 12451              	.LVUS123:
 12452 0a69 01       		.uleb128 .LVU1165
 12453 0a6a 00       		.uleb128 .LVU1189
 12454              	.LLST123:
 12455 0a6b 3A000000 		.4byte	.LVL282
 12456 0a6f 6E000000 		.4byte	.LVL291
 12457 0a73 0100     		.2byte	0x1
 12458 0a75 50       		.byte	0x50
 12459 0a76 00000000 		.4byte	0
 12460 0a7a 00000000 		.4byte	0
 12461              	.LVUS124:
 12462 0a7e 03       		.uleb128 .LVU1167
 12463 0a7f 00       		.uleb128 .LVU1173
 12464 0a80 00       		.uleb128 .LVU1173
 12465 0a81 01       		.uleb128 .LVU1176
 12466 0a82 01       		.uleb128 .LVU1176
 12467 0a83 00       		.uleb128 .LVU1178
 12468 0a84 00       		.uleb128 .LVU1180
 12469 0a85 00       		.uleb128 .LVU1185
 12470 0a86 00       		.uleb128 .LVU1185
 12471 0a87 00       		.uleb128 .LVU1189
 12472              	.LLST124:
 12473 0a88 3A000000 		.4byte	.LVL282
 12474 0a8c 50000000 		.4byte	.LVL283
 12475 0a90 0200     		.2byte	0x2
 12476 0a92 30       		.byte	0x30
 12477 0a93 9F       		.byte	0x9f
 12478 0a94 50000000 		.4byte	.LVL283
 12479 0a98 52000000 		.4byte	.LVL284
 12480 0a9c 0100     		.2byte	0x1
 12481 0a9e 58       		.byte	0x58
 12482 0a9f 52000000 		.4byte	.LVL284
 12483 0aa3 56000000 		.4byte	.LVL285
ARM GAS  C:\Users\USER\AppData\Local\Temp\ccNdlOSb.s 			page 220


 12484 0aa7 0700     		.2byte	0x7
 12485 0aa9 78       		.byte	0x78
 12486 0aaa 00       		.sleb128 0
 12487 0aab 0B       		.byte	0xb
 12488 0aac 0CFF     		.2byte	0xff0c
 12489 0aae 1A       		.byte	0x1a
 12490 0aaf 9F       		.byte	0x9f
 12491 0ab0 5E000000 		.4byte	.LVL287
 12492 0ab4 66000000 		.4byte	.LVL289
 12493 0ab8 0600     		.2byte	0x6
 12494 0aba 7C       		.byte	0x7c
 12495 0abb 00       		.sleb128 0
 12496 0abc 71       		.byte	0x71
 12497 0abd 00       		.sleb128 0
 12498 0abe 21       		.byte	0x21
 12499 0abf 9F       		.byte	0x9f
 12500 0ac0 66000000 		.4byte	.LVL289
 12501 0ac4 6E000000 		.4byte	.LVL291
 12502 0ac8 1400     		.2byte	0x14
 12503 0aca F3       		.byte	0xf3
 12504 0acb 01       		.uleb128 0x1
 12505 0acc 51       		.byte	0x51
 12506 0acd 23       		.byte	0x23
 12507 0ace 08       		.uleb128 0x8
 12508 0acf 94       		.byte	0x94
 12509 0ad0 02       		.byte	0x2
 12510 0ad1 34       		.byte	0x34
 12511 0ad2 24       		.byte	0x24
 12512 0ad3 0A       		.byte	0xa
 12513 0ad4 FFFF     		.2byte	0xffff
 12514 0ad6 1A       		.byte	0x1a
 12515 0ad7 78       		.byte	0x78
 12516 0ad8 00       		.sleb128 0
 12517 0ad9 21       		.byte	0x21
 12518 0ada 7C       		.byte	0x7c
 12519 0adb 00       		.sleb128 0
 12520 0adc 21       		.byte	0x21
 12521 0add 9F       		.byte	0x9f
 12522 0ade 00000000 		.4byte	0
 12523 0ae2 00000000 		.4byte	0
 12524              	.LVUS125:
 12525 0ae6 03       		.uleb128 .LVU1167
 12526 0ae7 00       		.uleb128 .LVU1175
 12527 0ae8 00       		.uleb128 .LVU1175
 12528 0ae9 00       		.uleb128 .LVU1179
 12529 0aea 00       		.uleb128 .LVU1183
 12530 0aeb 00       		.uleb128 .LVU1186
 12531              	.LLST125:
 12532 0aec 3A000000 		.4byte	.LVL282
 12533 0af0 52000000 		.4byte	.LVL284
 12534 0af4 0200     		.2byte	0x2
 12535 0af6 30       		.byte	0x30
 12536 0af7 9F       		.byte	0x9f
 12537 0af8 52000000 		.4byte	.LVL284
 12538 0afc 5A000000 		.4byte	.LVL286
 12539 0b00 0100     		.2byte	0x1
 12540 0b02 52       		.byte	0x52
ARM GAS  C:\Users\USER\AppData\Local\Temp\ccNdlOSb.s 			page 221


 12541 0b03 62000000 		.4byte	.LVL288
 12542 0b07 6A000000 		.4byte	.LVL290
 12543 0b0b 0500     		.2byte	0x5
 12544 0b0d 72       		.byte	0x72
 12545 0b0e 00       		.sleb128 0
 12546 0b0f 31       		.byte	0x31
 12547 0b10 21       		.byte	0x21
 12548 0b11 9F       		.byte	0x9f
 12549 0b12 00000000 		.4byte	0
 12550 0b16 00000000 		.4byte	0
 12551              	.LVUS126:
 12552 0b1a 02       		.uleb128 .LVU1191
 12553 0b1b 00       		.uleb128 .LVU1198
 12554              	.LLST126:
 12555 0b1c 6E000000 		.4byte	.LVL291
 12556 0b20 7E000000 		.4byte	.LVL292
 12557 0b24 0500     		.2byte	0x5
 12558 0b26 F3       		.byte	0xf3
 12559 0b27 01       		.uleb128 0x1
 12560 0b28 51       		.byte	0x51
 12561 0b29 23       		.byte	0x23
 12562 0b2a 06       		.uleb128 0x6
 12563 0b2b 00000000 		.4byte	0
 12564 0b2f 00000000 		.4byte	0
 12565              	.LVUS127:
 12566 0b33 02       		.uleb128 .LVU1191
 12567 0b34 00       		.uleb128 .LVU1198
 12568              	.LLST127:
 12569 0b35 6E000000 		.4byte	.LVL291
 12570 0b39 7E000000 		.4byte	.LVL292
 12571 0b3d 0100     		.2byte	0x1
 12572 0b3f 50       		.byte	0x50
 12573 0b40 00000000 		.4byte	0
 12574 0b44 00000000 		.4byte	0
 12575              	.LVUS128:
 12576 0b48 02       		.uleb128 .LVU1200
 12577 0b49 00       		.uleb128 .LVU1226
 12578              	.LLST128:
 12579 0b4a 7E000000 		.4byte	.LVL292
 12580 0b4e AA000000 		.4byte	.LVL301
 12581 0b52 0500     		.2byte	0x5
 12582 0b54 F3       		.byte	0xf3
 12583 0b55 01       		.uleb128 0x1
 12584 0b56 51       		.byte	0x51
 12585 0b57 23       		.byte	0x23
 12586 0b58 08       		.uleb128 0x8
 12587 0b59 00000000 		.4byte	0
 12588 0b5d 00000000 		.4byte	0
 12589              	.LVUS129:
 12590 0b61 02       		.uleb128 .LVU1200
 12591 0b62 00       		.uleb128 .LVU1222
 12592              	.LLST129:
 12593 0b63 7E000000 		.4byte	.LVL292
 12594 0b67 A2000000 		.4byte	.LVL299
 12595 0b6b 0100     		.2byte	0x1
 12596 0b6d 57       		.byte	0x57
 12597 0b6e 00000000 		.4byte	0
ARM GAS  C:\Users\USER\AppData\Local\Temp\ccNdlOSb.s 			page 222


 12598 0b72 00000000 		.4byte	0
 12599              	.LVUS130:
 12600 0b76 02       		.uleb128 .LVU1200
 12601 0b77 00       		.uleb128 .LVU1220
 12602              	.LLST130:
 12603 0b78 7E000000 		.4byte	.LVL292
 12604 0b7c 9E000000 		.4byte	.LVL298
 12605 0b80 0100     		.2byte	0x1
 12606 0b82 54       		.byte	0x54
 12607 0b83 00000000 		.4byte	0
 12608 0b87 00000000 		.4byte	0
 12609              	.LVUS131:
 12610 0b8b 02       		.uleb128 .LVU1200
 12611 0b8c 00       		.uleb128 .LVU1226
 12612              	.LLST131:
 12613 0b8d 7E000000 		.4byte	.LVL292
 12614 0b91 AA000000 		.4byte	.LVL301
 12615 0b95 0100     		.2byte	0x1
 12616 0b97 50       		.byte	0x50
 12617 0b98 00000000 		.4byte	0
 12618 0b9c 00000000 		.4byte	0
 12619              	.LVUS132:
 12620 0ba0 04       		.uleb128 .LVU1202
 12621 0ba1 00       		.uleb128 .LVU1206
 12622 0ba2 00       		.uleb128 .LVU1206
 12623 0ba3 00       		.uleb128 .LVU1216
 12624 0ba4 00       		.uleb128 .LVU1216
 12625 0ba5 01       		.uleb128 .LVU1217
 12626 0ba6 01       		.uleb128 .LVU1217
 12627 0ba7 00       		.uleb128 .LVU1222
 12628              	.LLST132:
 12629 0ba8 7E000000 		.4byte	.LVL292
 12630 0bac 8A000000 		.4byte	.LVL293
 12631 0bb0 0200     		.2byte	0x2
 12632 0bb2 30       		.byte	0x30
 12633 0bb3 9F       		.byte	0x9f
 12634 0bb4 8A000000 		.4byte	.LVL293
 12635 0bb8 9A000000 		.4byte	.LVL297
 12636 0bbc 0100     		.2byte	0x1
 12637 0bbe 51       		.byte	0x51
 12638 0bbf 9A000000 		.4byte	.LVL297
 12639 0bc3 9A000000 		.4byte	.LVL297
 12640 0bc7 0100     		.2byte	0x1
 12641 0bc9 53       		.byte	0x53
 12642 0bca 9A000000 		.4byte	.LVL297
 12643 0bce A2000000 		.4byte	.LVL299
 12644 0bd2 0800     		.2byte	0x8
 12645 0bd4 77       		.byte	0x77
 12646 0bd5 00       		.sleb128 0
 12647 0bd6 38       		.byte	0x38
 12648 0bd7 24       		.byte	0x24
 12649 0bd8 73       		.byte	0x73
 12650 0bd9 00       		.sleb128 0
 12651 0bda 21       		.byte	0x21
 12652 0bdb 9F       		.byte	0x9f
 12653 0bdc 00000000 		.4byte	0
 12654 0be0 00000000 		.4byte	0
ARM GAS  C:\Users\USER\AppData\Local\Temp\ccNdlOSb.s 			page 223


 12655              	.LVUS133:
 12656 0be4 04       		.uleb128 .LVU1202
 12657 0be5 00       		.uleb128 .LVU1210
 12658 0be6 00       		.uleb128 .LVU1210
 12659 0be7 00       		.uleb128 .LVU1213
 12660 0be8 00       		.uleb128 .LVU1220
 12661 0be9 00       		.uleb128 .LVU1223
 12662              	.LLST133:
 12663 0bea 7E000000 		.4byte	.LVL292
 12664 0bee 92000000 		.4byte	.LVL294
 12665 0bf2 0200     		.2byte	0x2
 12666 0bf4 30       		.byte	0x30
 12667 0bf5 9F       		.byte	0x9f
 12668 0bf6 92000000 		.4byte	.LVL294
 12669 0bfa 96000000 		.4byte	.LVL295
 12670 0bfe 0100     		.2byte	0x1
 12671 0c00 52       		.byte	0x52
 12672 0c01 9E000000 		.4byte	.LVL298
 12673 0c05 A6000000 		.4byte	.LVL300
 12674 0c09 0500     		.2byte	0x5
 12675 0c0b 74       		.byte	0x74
 12676 0c0c 00       		.sleb128 0
 12677 0c0d 40       		.byte	0x40
 12678 0c0e 21       		.byte	0x21
 12679 0c0f 9F       		.byte	0x9f
 12680 0c10 00000000 		.4byte	0
 12681 0c14 00000000 		.4byte	0
 12682              	.LVUS134:
 12683 0c18 04       		.uleb128 .LVU1202
 12684 0c19 01       		.uleb128 .LVU1211
 12685 0c1a 01       		.uleb128 .LVU1211
 12686 0c1b 00       		.uleb128 .LVU1220
 12687              	.LLST134:
 12688 0c1c 7E000000 		.4byte	.LVL292
 12689 0c20 92000000 		.4byte	.LVL294
 12690 0c24 0200     		.2byte	0x2
 12691 0c26 30       		.byte	0x30
 12692 0c27 9F       		.byte	0x9f
 12693 0c28 92000000 		.4byte	.LVL294
 12694 0c2c 9E000000 		.4byte	.LVL298
 12695 0c30 0500     		.2byte	0x5
 12696 0c32 74       		.byte	0x74
 12697 0c33 00       		.sleb128 0
 12698 0c34 34       		.byte	0x34
 12699 0c35 24       		.byte	0x24
 12700 0c36 9F       		.byte	0x9f
 12701 0c37 00000000 		.4byte	0
 12702 0c3b 00000000 		.4byte	0
 12703              	.LVUS135:
 12704 0c3f 02       		.uleb128 .LVU1228
 12705 0c40 00       		.uleb128 .LVU1236
 12706              	.LLST135:
 12707 0c41 AA000000 		.4byte	.LVL301
 12708 0c45 BE000000 		.4byte	.LVL302
 12709 0c49 0500     		.2byte	0x5
 12710 0c4b F3       		.byte	0xf3
 12711 0c4c 01       		.uleb128 0x1
ARM GAS  C:\Users\USER\AppData\Local\Temp\ccNdlOSb.s 			page 224


 12712 0c4d 51       		.byte	0x51
 12713 0c4e 23       		.byte	0x23
 12714 0c4f 06       		.uleb128 0x6
 12715 0c50 00000000 		.4byte	0
 12716 0c54 00000000 		.4byte	0
 12717              	.LVUS136:
 12718 0c58 02       		.uleb128 .LVU1228
 12719 0c59 00       		.uleb128 .LVU1236
 12720              	.LLST136:
 12721 0c5a AA000000 		.4byte	.LVL301
 12722 0c5e BE000000 		.4byte	.LVL302
 12723 0c62 0100     		.2byte	0x1
 12724 0c64 50       		.byte	0x50
 12725 0c65 00000000 		.4byte	0
 12726 0c69 00000000 		.4byte	0
 12727              	.LVUS137:
 12728 0c6d 01       		.uleb128 .LVU1237
 12729 0c6e 00       		.uleb128 .LVU1265
 12730              	.LLST137:
 12731 0c6f BE000000 		.4byte	.LVL302
 12732 0c73 F6000000 		.4byte	.LVL311
 12733 0c77 0500     		.2byte	0x5
 12734 0c79 F3       		.byte	0xf3
 12735 0c7a 01       		.uleb128 0x1
 12736 0c7b 51       		.byte	0x51
 12737 0c7c 23       		.byte	0x23
 12738 0c7d 08       		.uleb128 0x8
 12739 0c7e 00000000 		.4byte	0
 12740 0c82 00000000 		.4byte	0
 12741              	.LVUS138:
 12742 0c86 01       		.uleb128 .LVU1237
 12743 0c87 00       		.uleb128 .LVU1265
 12744              	.LLST138:
 12745 0c88 BE000000 		.4byte	.LVL302
 12746 0c8c F6000000 		.4byte	.LVL311
 12747 0c90 0100     		.2byte	0x1
 12748 0c92 5C       		.byte	0x5c
 12749 0c93 00000000 		.4byte	0
 12750 0c97 00000000 		.4byte	0
 12751              	.LVUS139:
 12752 0c9b 01       		.uleb128 .LVU1237
 12753 0c9c 00       		.uleb128 .LVU1265
 12754              	.LLST139:
 12755 0c9d BE000000 		.4byte	.LVL302
 12756 0ca1 F6000000 		.4byte	.LVL311
 12757 0ca5 0100     		.2byte	0x1
 12758 0ca7 5E       		.byte	0x5e
 12759 0ca8 00000000 		.4byte	0
 12760 0cac 00000000 		.4byte	0
 12761              	.LVUS140:
 12762 0cb0 01       		.uleb128 .LVU1237
 12763 0cb1 00       		.uleb128 .LVU1265
 12764              	.LLST140:
 12765 0cb2 BE000000 		.4byte	.LVL302
 12766 0cb6 F6000000 		.4byte	.LVL311
 12767 0cba 0100     		.2byte	0x1
 12768 0cbc 50       		.byte	0x50
ARM GAS  C:\Users\USER\AppData\Local\Temp\ccNdlOSb.s 			page 225


 12769 0cbd 00000000 		.4byte	0
 12770 0cc1 00000000 		.4byte	0
 12771              	.LVUS141:
 12772 0cc5 03       		.uleb128 .LVU1239
 12773 0cc6 00       		.uleb128 .LVU1243
 12774 0cc7 00       		.uleb128 .LVU1243
 12775 0cc8 00       		.uleb128 .LVU1253
 12776 0cc9 00       		.uleb128 .LVU1253
 12777 0cca 01       		.uleb128 .LVU1254
 12778 0ccb 01       		.uleb128 .LVU1254
 12779 0ccc 00       		.uleb128 .LVU1258
 12780 0ccd 00       		.uleb128 .LVU1258
 12781 0cce 00       		.uleb128 .LVU1265
 12782              	.LLST141:
 12783 0ccf BE000000 		.4byte	.LVL302
 12784 0cd3 CE000000 		.4byte	.LVL303
 12785 0cd7 0200     		.2byte	0x2
 12786 0cd9 30       		.byte	0x30
 12787 0cda 9F       		.byte	0x9f
 12788 0cdb CE000000 		.4byte	.LVL303
 12789 0cdf E2000000 		.4byte	.LVL307
 12790 0ce3 0100     		.2byte	0x1
 12791 0ce5 58       		.byte	0x58
 12792 0ce6 E2000000 		.4byte	.LVL307
 12793 0cea E2000000 		.4byte	.LVL307
 12794 0cee 0100     		.2byte	0x1
 12795 0cf0 53       		.byte	0x53
 12796 0cf1 E2000000 		.4byte	.LVL307
 12797 0cf5 EA000000 		.4byte	.LVL308
 12798 0cf9 0800     		.2byte	0x8
 12799 0cfb 7C       		.byte	0x7c
 12800 0cfc 00       		.sleb128 0
 12801 0cfd 38       		.byte	0x38
 12802 0cfe 24       		.byte	0x24
 12803 0cff 73       		.byte	0x73
 12804 0d00 00       		.sleb128 0
 12805 0d01 21       		.byte	0x21
 12806 0d02 9F       		.byte	0x9f
 12807 0d03 EA000000 		.4byte	.LVL308
 12808 0d07 F6000000 		.4byte	.LVL311
 12809 0d0b 1600     		.2byte	0x16
 12810 0d0d 7C       		.byte	0x7c
 12811 0d0e 00       		.sleb128 0
 12812 0d0f 38       		.byte	0x38
 12813 0d10 24       		.byte	0x24
 12814 0d11 F3       		.byte	0xf3
 12815 0d12 01       		.uleb128 0x1
 12816 0d13 51       		.byte	0x51
 12817 0d14 23       		.byte	0x23
 12818 0d15 08       		.uleb128 0x8
 12819 0d16 94       		.byte	0x94
 12820 0d17 02       		.byte	0x2
 12821 0d18 3C       		.byte	0x3c
 12822 0d19 24       		.byte	0x24
 12823 0d1a 0A       		.byte	0xa
 12824 0d1b FFFF     		.2byte	0xffff
 12825 0d1d 1A       		.byte	0x1a
ARM GAS  C:\Users\USER\AppData\Local\Temp\ccNdlOSb.s 			page 226


 12826 0d1e 78       		.byte	0x78
 12827 0d1f 00       		.sleb128 0
 12828 0d20 21       		.byte	0x21
 12829 0d21 21       		.byte	0x21
 12830 0d22 9F       		.byte	0x9f
 12831 0d23 00000000 		.4byte	0
 12832 0d27 00000000 		.4byte	0
 12833              	.LVUS142:
 12834 0d2b 03       		.uleb128 .LVU1239
 12835 0d2c 00       		.uleb128 .LVU1247
 12836 0d2d 00       		.uleb128 .LVU1247
 12837 0d2e 00       		.uleb128 .LVU1252
 12838 0d2f 00       		.uleb128 .LVU1259
 12839 0d30 00       		.uleb128 .LVU1262
 12840              	.LLST142:
 12841 0d31 BE000000 		.4byte	.LVL302
 12842 0d35 D6000000 		.4byte	.LVL304
 12843 0d39 0200     		.2byte	0x2
 12844 0d3b 30       		.byte	0x30
 12845 0d3c 9F       		.byte	0x9f
 12846 0d3d D6000000 		.4byte	.LVL304
 12847 0d41 DE000000 		.4byte	.LVL306
 12848 0d45 0100     		.2byte	0x1
 12849 0d47 52       		.byte	0x52
 12850 0d48 EC000000 		.4byte	.LVL309
 12851 0d4c F2000000 		.4byte	.LVL310
 12852 0d50 0500     		.2byte	0x5
 12853 0d52 72       		.byte	0x72
 12854 0d53 00       		.sleb128 0
 12855 0d54 40       		.byte	0x40
 12856 0d55 21       		.byte	0x21
 12857 0d56 9F       		.byte	0x9f
 12858 0d57 00000000 		.4byte	0
 12859 0d5b 00000000 		.4byte	0
 12860              	.LVUS143:
 12861 0d5f 03       		.uleb128 .LVU1239
 12862 0d60 01       		.uleb128 .LVU1248
 12863 0d61 01       		.uleb128 .LVU1248
 12864 0d62 00       		.uleb128 .LVU1265
 12865              	.LLST143:
 12866 0d63 BE000000 		.4byte	.LVL302
 12867 0d67 D6000000 		.4byte	.LVL304
 12868 0d6b 0200     		.2byte	0x2
 12869 0d6d 30       		.byte	0x30
 12870 0d6e 9F       		.byte	0x9f
 12871 0d6f D6000000 		.4byte	.LVL304
 12872 0d73 F6000000 		.4byte	.LVL311
 12873 0d77 0500     		.2byte	0x5
 12874 0d79 7E       		.byte	0x7e
 12875 0d7a 00       		.sleb128 0
 12876 0d7b 34       		.byte	0x34
 12877 0d7c 24       		.byte	0x24
 12878 0d7d 9F       		.byte	0x9f
 12879 0d7e 00000000 		.4byte	0
 12880 0d82 00000000 		.4byte	0
 12881              	.LVUS144:
 12882 0d86 02       		.uleb128 .LVU1267
ARM GAS  C:\Users\USER\AppData\Local\Temp\ccNdlOSb.s 			page 227


 12883 0d87 00       		.uleb128 .LVU1274
 12884              	.LLST144:
 12885 0d88 F6000000 		.4byte	.LVL311
 12886 0d8c 06010000 		.4byte	.LVL312
 12887 0d90 0500     		.2byte	0x5
 12888 0d92 F3       		.byte	0xf3
 12889 0d93 01       		.uleb128 0x1
 12890 0d94 51       		.byte	0x51
 12891 0d95 23       		.byte	0x23
 12892 0d96 06       		.uleb128 0x6
 12893 0d97 00000000 		.4byte	0
 12894 0d9b 00000000 		.4byte	0
 12895              	.LVUS145:
 12896 0d9f 02       		.uleb128 .LVU1267
 12897 0da0 00       		.uleb128 .LVU1274
 12898              	.LLST145:
 12899 0da1 F6000000 		.4byte	.LVL311
 12900 0da5 06010000 		.4byte	.LVL312
 12901 0da9 0100     		.2byte	0x1
 12902 0dab 50       		.byte	0x50
 12903 0dac 00000000 		.4byte	0
 12904 0db0 00000000 		.4byte	0
 12905              	.LVUS146:
 12906 0db4 02       		.uleb128 .LVU1276
 12907 0db5 00       		.uleb128 .LVU1300
 12908              	.LLST146:
 12909 0db6 06010000 		.4byte	.LVL312
 12910 0dba 2E010000 		.4byte	.LVL321
 12911 0dbe 0500     		.2byte	0x5
 12912 0dc0 F3       		.byte	0xf3
 12913 0dc1 01       		.uleb128 0x1
 12914 0dc2 51       		.byte	0x51
 12915 0dc3 23       		.byte	0x23
 12916 0dc4 08       		.uleb128 0x8
 12917 0dc5 00000000 		.4byte	0
 12918 0dc9 00000000 		.4byte	0
 12919              	.LVUS147:
 12920 0dcd 02       		.uleb128 .LVU1276
 12921 0dce 00       		.uleb128 .LVU1296
 12922              	.LLST147:
 12923 0dcf 06010000 		.4byte	.LVL312
 12924 0dd3 26010000 		.4byte	.LVL319
 12925 0dd7 0100     		.2byte	0x1
 12926 0dd9 57       		.byte	0x57
 12927 0dda 00000000 		.4byte	0
 12928 0dde 00000000 		.4byte	0
 12929              	.LVUS148:
 12930 0de2 02       		.uleb128 .LVU1276
 12931 0de3 00       		.uleb128 .LVU1294
 12932              	.LLST148:
 12933 0de4 06010000 		.4byte	.LVL312
 12934 0de8 24010000 		.4byte	.LVL318
 12935 0dec 0100     		.2byte	0x1
 12936 0dee 54       		.byte	0x54
 12937 0def 00000000 		.4byte	0
 12938 0df3 00000000 		.4byte	0
 12939              	.LVUS149:
ARM GAS  C:\Users\USER\AppData\Local\Temp\ccNdlOSb.s 			page 228


 12940 0df7 02       		.uleb128 .LVU1276
 12941 0df8 00       		.uleb128 .LVU1300
 12942              	.LLST149:
 12943 0df9 06010000 		.4byte	.LVL312
 12944 0dfd 2E010000 		.4byte	.LVL321
 12945 0e01 0100     		.2byte	0x1
 12946 0e03 50       		.byte	0x50
 12947 0e04 00000000 		.4byte	0
 12948 0e08 00000000 		.4byte	0
 12949              	.LVUS150:
 12950 0e0c 04       		.uleb128 .LVU1278
 12951 0e0d 00       		.uleb128 .LVU1284
 12952 0e0e 00       		.uleb128 .LVU1284
 12953 0e0f 01       		.uleb128 .LVU1287
 12954 0e10 01       		.uleb128 .LVU1287
 12955 0e11 00       		.uleb128 .LVU1289
 12956 0e12 00       		.uleb128 .LVU1291
 12957 0e13 00       		.uleb128 .LVU1296
 12958              	.LLST150:
 12959 0e14 06010000 		.4byte	.LVL312
 12960 0e18 16010000 		.4byte	.LVL313
 12961 0e1c 0200     		.2byte	0x2
 12962 0e1e 30       		.byte	0x30
 12963 0e1f 9F       		.byte	0x9f
 12964 0e20 16010000 		.4byte	.LVL313
 12965 0e24 18010000 		.4byte	.LVL314
 12966 0e28 0100     		.2byte	0x1
 12967 0e2a 52       		.byte	0x52
 12968 0e2b 18010000 		.4byte	.LVL314
 12969 0e2f 1C010000 		.4byte	.LVL315
 12970 0e33 0700     		.2byte	0x7
 12971 0e35 72       		.byte	0x72
 12972 0e36 00       		.sleb128 0
 12973 0e37 0B       		.byte	0xb
 12974 0e38 0CFF     		.2byte	0xff0c
 12975 0e3a 1A       		.byte	0x1a
 12976 0e3b 9F       		.byte	0x9f
 12977 0e3c 22010000 		.4byte	.LVL317
 12978 0e40 26010000 		.4byte	.LVL319
 12979 0e44 0600     		.2byte	0x6
 12980 0e46 77       		.byte	0x77
 12981 0e47 00       		.sleb128 0
 12982 0e48 71       		.byte	0x71
 12983 0e49 00       		.sleb128 0
 12984 0e4a 21       		.byte	0x21
 12985 0e4b 9F       		.byte	0x9f
 12986 0e4c 00000000 		.4byte	0
 12987 0e50 00000000 		.4byte	0
 12988              	.LVUS151:
 12989 0e54 04       		.uleb128 .LVU1278
 12990 0e55 00       		.uleb128 .LVU1286
 12991 0e56 00       		.uleb128 .LVU1286
 12992 0e57 00       		.uleb128 .LVU1290
 12993 0e58 00       		.uleb128 .LVU1294
 12994 0e59 00       		.uleb128 .LVU1297
 12995              	.LLST151:
 12996 0e5a 06010000 		.4byte	.LVL312
ARM GAS  C:\Users\USER\AppData\Local\Temp\ccNdlOSb.s 			page 229


 12997 0e5e 18010000 		.4byte	.LVL314
 12998 0e62 0200     		.2byte	0x2
 12999 0e64 30       		.byte	0x30
 13000 0e65 9F       		.byte	0x9f
 13001 0e66 18010000 		.4byte	.LVL314
 13002 0e6a 20010000 		.4byte	.LVL316
 13003 0e6e 0100     		.2byte	0x1
 13004 0e70 53       		.byte	0x53
 13005 0e71 24010000 		.4byte	.LVL318
 13006 0e75 2A010000 		.4byte	.LVL320
 13007 0e79 0500     		.2byte	0x5
 13008 0e7b 74       		.byte	0x74
 13009 0e7c 00       		.sleb128 0
 13010 0e7d 31       		.byte	0x31
 13011 0e7e 21       		.byte	0x21
 13012 0e7f 9F       		.byte	0x9f
 13013 0e80 00000000 		.4byte	0
 13014 0e84 00000000 		.4byte	0
 13015              	.LVUS152:
 13016 0e88 02       		.uleb128 .LVU1302
 13017 0e89 00       		.uleb128 0
 13018              	.LLST152:
 13019 0e8a 2E010000 		.4byte	.LVL321
 13020 0e8e 42010000 		.4byte	.LFE164
 13021 0e92 0500     		.2byte	0x5
 13022 0e94 F3       		.byte	0xf3
 13023 0e95 01       		.uleb128 0x1
 13024 0e96 51       		.byte	0x51
 13025 0e97 23       		.byte	0x23
 13026 0e98 06       		.uleb128 0x6
 13027 0e99 00000000 		.4byte	0
 13028 0e9d 00000000 		.4byte	0
 13029              	.LVUS153:
 13030 0ea1 02       		.uleb128 .LVU1302
 13031 0ea2 00       		.uleb128 0
 13032              	.LLST153:
 13033 0ea3 2E010000 		.4byte	.LVL321
 13034 0ea7 42010000 		.4byte	.LFE164
 13035 0eab 0100     		.2byte	0x1
 13036 0ead 50       		.byte	0x50
 13037 0eae 00000000 		.4byte	0
 13038 0eb2 00000000 		.4byte	0
 13039              	.LVUS81:
 13040 0eb6 00       		.uleb128 0
 13041 0eb7 00       		.uleb128 .LVU975
 13042 0eb8 00       		.uleb128 .LVU975
 13043 0eb9 00       		.uleb128 0
 13044              	.LLST81:
 13045 0eba 00000000 		.4byte	.LVL234
 13046 0ebe 0E000000 		.4byte	.LVL235
 13047 0ec2 0100     		.2byte	0x1
 13048 0ec4 51       		.byte	0x51
 13049 0ec5 0E000000 		.4byte	.LVL235
 13050 0ec9 2A010000 		.4byte	.LFE162
 13051 0ecd 0400     		.2byte	0x4
 13052 0ecf F3       		.byte	0xf3
 13053 0ed0 01       		.uleb128 0x1
ARM GAS  C:\Users\USER\AppData\Local\Temp\ccNdlOSb.s 			page 230


 13054 0ed1 51       		.byte	0x51
 13055 0ed2 9F       		.byte	0x9f
 13056 0ed3 00000000 		.4byte	0
 13057 0ed7 00000000 		.4byte	0
 13058              	.LVUS82:
 13059 0edb 01       		.uleb128 .LVU978
 13060 0edc 00       		.uleb128 .LVU1001
 13061              	.LLST82:
 13062 0edd 10000000 		.4byte	.LVL236
 13063 0ee1 3A000000 		.4byte	.LVL244
 13064 0ee5 0500     		.2byte	0x5
 13065 0ee7 F3       		.byte	0xf3
 13066 0ee8 01       		.uleb128 0x1
 13067 0ee9 51       		.byte	0x51
 13068 0eea 23       		.byte	0x23
 13069 0eeb 08       		.uleb128 0x8
 13070 0eec 00000000 		.4byte	0
 13071 0ef0 00000000 		.4byte	0
 13072              	.LVUS83:
 13073 0ef4 01       		.uleb128 .LVU978
 13074 0ef5 00       		.uleb128 .LVU1001
 13075              	.LLST83:
 13076 0ef6 10000000 		.4byte	.LVL236
 13077 0efa 3A000000 		.4byte	.LVL244
 13078 0efe 0500     		.2byte	0x5
 13079 0f00 F3       		.byte	0xf3
 13080 0f01 01       		.uleb128 0x1
 13081 0f02 51       		.byte	0x51
 13082 0f03 23       		.byte	0x23
 13083 0f04 04       		.uleb128 0x4
 13084 0f05 00000000 		.4byte	0
 13085 0f09 00000000 		.4byte	0
 13086              	.LVUS84:
 13087 0f0d 01       		.uleb128 .LVU978
 13088 0f0e 00       		.uleb128 .LVU1001
 13089              	.LLST84:
 13090 0f0f 10000000 		.4byte	.LVL236
 13091 0f13 3A000000 		.4byte	.LVL244
 13092 0f17 0500     		.2byte	0x5
 13093 0f19 F3       		.byte	0xf3
 13094 0f1a 01       		.uleb128 0x1
 13095 0f1b 51       		.byte	0x51
 13096 0f1c 23       		.byte	0x23
 13097 0f1d 02       		.uleb128 0x2
 13098 0f1e 00000000 		.4byte	0
 13099 0f22 00000000 		.4byte	0
 13100              	.LVUS85:
 13101 0f26 01       		.uleb128 .LVU978
 13102 0f27 00       		.uleb128 .LVU1001
 13103              	.LLST85:
 13104 0f28 10000000 		.4byte	.LVL236
 13105 0f2c 3A000000 		.4byte	.LVL244
 13106 0f30 0100     		.2byte	0x1
 13107 0f32 50       		.byte	0x50
 13108 0f33 00000000 		.4byte	0
 13109 0f37 00000000 		.4byte	0
 13110              	.LVUS86:
ARM GAS  C:\Users\USER\AppData\Local\Temp\ccNdlOSb.s 			page 231


 13111 0f3b 03       		.uleb128 .LVU980
 13112 0f3c 00       		.uleb128 .LVU986
 13113 0f3d 00       		.uleb128 .LVU986
 13114 0f3e 00       		.uleb128 .LVU988
 13115 0f3f 00       		.uleb128 .LVU993
 13116 0f40 00       		.uleb128 .LVU997
 13117              	.LLST86:
 13118 0f41 10000000 		.4byte	.LVL236
 13119 0f45 1E000000 		.4byte	.LVL237
 13120 0f49 0200     		.2byte	0x2
 13121 0f4b 30       		.byte	0x30
 13122 0f4c 9F       		.byte	0x9f
 13123 0f4d 1E000000 		.4byte	.LVL237
 13124 0f51 22000000 		.4byte	.LVL238
 13125 0f55 0100     		.2byte	0x1
 13126 0f57 53       		.byte	0x53
 13127 0f58 30000000 		.4byte	.LVL241
 13128 0f5c 32000000 		.4byte	.LVL242
 13129 0f60 0600     		.2byte	0x6
 13130 0f62 75       		.byte	0x75
 13131 0f63 00       		.sleb128 0
 13132 0f64 73       		.byte	0x73
 13133 0f65 00       		.sleb128 0
 13134 0f66 21       		.byte	0x21
 13135 0f67 9F       		.byte	0x9f
 13136 0f68 00000000 		.4byte	0
 13137 0f6c 00000000 		.4byte	0
 13138              	.LVUS87:
 13139 0f70 03       		.uleb128 .LVU980
 13140 0f71 00       		.uleb128 .LVU989
 13141 0f72 00       		.uleb128 .LVU989
 13142 0f73 00       		.uleb128 .LVU992
 13143 0f74 02       		.uleb128 .LVU995
 13144 0f75 00       		.uleb128 .LVU998
 13145              	.LLST87:
 13146 0f76 10000000 		.4byte	.LVL236
 13147 0f7a 24000000 		.4byte	.LVL239
 13148 0f7e 0200     		.2byte	0x2
 13149 0f80 30       		.byte	0x30
 13150 0f81 9F       		.byte	0x9f
 13151 0f82 24000000 		.4byte	.LVL239
 13152 0f86 2C000000 		.4byte	.LVL240
 13153 0f8a 0100     		.2byte	0x1
 13154 0f8c 52       		.byte	0x52
 13155 0f8d 30000000 		.4byte	.LVL241
 13156 0f91 36000000 		.4byte	.LVL243
 13157 0f95 0500     		.2byte	0x5
 13158 0f97 72       		.byte	0x72
 13159 0f98 00       		.sleb128 0
 13160 0f99 31       		.byte	0x31
 13161 0f9a 21       		.byte	0x21
 13162 0f9b 9F       		.byte	0x9f
 13163 0f9c 00000000 		.4byte	0
 13164 0fa0 00000000 		.4byte	0
 13165              	.LVUS88:
 13166 0fa4 02       		.uleb128 .LVU1003
 13167 0fa5 00       		.uleb128 .LVU1011
ARM GAS  C:\Users\USER\AppData\Local\Temp\ccNdlOSb.s 			page 232


 13168              	.LLST88:
 13169 0fa6 3A000000 		.4byte	.LVL244
 13170 0faa 4E000000 		.4byte	.LVL245
 13171 0fae 0500     		.2byte	0x5
 13172 0fb0 F3       		.byte	0xf3
 13173 0fb1 01       		.uleb128 0x1
 13174 0fb2 51       		.byte	0x51
 13175 0fb3 23       		.byte	0x23
 13176 0fb4 06       		.uleb128 0x6
 13177 0fb5 00000000 		.4byte	0
 13178 0fb9 00000000 		.4byte	0
 13179              	.LVUS89:
 13180 0fbd 02       		.uleb128 .LVU1003
 13181 0fbe 00       		.uleb128 .LVU1011
 13182              	.LLST89:
 13183 0fbf 3A000000 		.4byte	.LVL244
 13184 0fc3 4E000000 		.4byte	.LVL245
 13185 0fc7 0100     		.2byte	0x1
 13186 0fc9 50       		.byte	0x50
 13187 0fca 00000000 		.4byte	0
 13188 0fce 00000000 		.4byte	0
 13189              	.LVUS90:
 13190 0fd2 02       		.uleb128 .LVU1017
 13191 0fd3 00       		.uleb128 .LVU1043
 13192              	.LLST90:
 13193 0fd4 56000000 		.4byte	.LVL246
 13194 0fd8 86000000 		.4byte	.LVL255
 13195 0fdc 0500     		.2byte	0x5
 13196 0fde F3       		.byte	0xf3
 13197 0fdf 01       		.uleb128 0x1
 13198 0fe0 51       		.byte	0x51
 13199 0fe1 23       		.byte	0x23
 13200 0fe2 08       		.uleb128 0x8
 13201 0fe3 00000000 		.4byte	0
 13202 0fe7 00000000 		.4byte	0
 13203              	.LVUS91:
 13204 0feb 02       		.uleb128 .LVU1017
 13205 0fec 00       		.uleb128 .LVU1043
 13206              	.LLST91:
 13207 0fed 56000000 		.4byte	.LVL246
 13208 0ff1 86000000 		.4byte	.LVL255
 13209 0ff5 0500     		.2byte	0x5
 13210 0ff7 F3       		.byte	0xf3
 13211 0ff8 01       		.uleb128 0x1
 13212 0ff9 51       		.byte	0x51
 13213 0ffa 23       		.byte	0x23
 13214 0ffb 04       		.uleb128 0x4
 13215 0ffc 00000000 		.4byte	0
 13216 1000 00000000 		.4byte	0
 13217              	.LVUS92:
 13218 1004 02       		.uleb128 .LVU1017
 13219 1005 00       		.uleb128 .LVU1043
 13220              	.LLST92:
 13221 1006 56000000 		.4byte	.LVL246
 13222 100a 86000000 		.4byte	.LVL255
 13223 100e 0500     		.2byte	0x5
 13224 1010 F3       		.byte	0xf3
ARM GAS  C:\Users\USER\AppData\Local\Temp\ccNdlOSb.s 			page 233


 13225 1011 01       		.uleb128 0x1
 13226 1012 51       		.byte	0x51
 13227 1013 23       		.byte	0x23
 13228 1014 02       		.uleb128 0x2
 13229 1015 00000000 		.4byte	0
 13230 1019 00000000 		.4byte	0
 13231              	.LVUS93:
 13232 101d 02       		.uleb128 .LVU1017
 13233 101e 00       		.uleb128 .LVU1043
 13234              	.LLST93:
 13235 101f 56000000 		.4byte	.LVL246
 13236 1023 86000000 		.4byte	.LVL255
 13237 1027 0100     		.2byte	0x1
 13238 1029 50       		.byte	0x50
 13239 102a 00000000 		.4byte	0
 13240 102e 00000000 		.4byte	0
 13241              	.LVUS94:
 13242 1032 04       		.uleb128 .LVU1019
 13243 1033 00       		.uleb128 .LVU1023
 13244 1034 00       		.uleb128 .LVU1023
 13245 1035 01       		.uleb128 .LVU1032
 13246 1036 01       		.uleb128 .LVU1032
 13247 1037 00       		.uleb128 .LVU1036
 13248              	.LLST94:
 13249 1038 56000000 		.4byte	.LVL246
 13250 103c 60000000 		.4byte	.LVL247
 13251 1040 0200     		.2byte	0x2
 13252 1042 30       		.byte	0x30
 13253 1043 9F       		.byte	0x9f
 13254 1044 60000000 		.4byte	.LVL247
 13255 1048 72000000 		.4byte	.LVL251
 13256 104c 0100     		.2byte	0x1
 13257 104e 53       		.byte	0x53
 13258 104f 72000000 		.4byte	.LVL251
 13259 1053 7A000000 		.4byte	.LVL252
 13260 1057 0800     		.2byte	0x8
 13261 1059 77       		.byte	0x77
 13262 105a 00       		.sleb128 0
 13263 105b 3C       		.byte	0x3c
 13264 105c 24       		.byte	0x24
 13265 105d 73       		.byte	0x73
 13266 105e 00       		.sleb128 0
 13267 105f 21       		.byte	0x21
 13268 1060 9F       		.byte	0x9f
 13269 1061 00000000 		.4byte	0
 13270 1065 00000000 		.4byte	0
 13271              	.LVUS95:
 13272 1069 04       		.uleb128 .LVU1019
 13273 106a 00       		.uleb128 .LVU1025
 13274 106b 00       		.uleb128 .LVU1025
 13275 106c 00       		.uleb128 .LVU1030
 13276 106d 00       		.uleb128 .LVU1037
 13277 106e 00       		.uleb128 .LVU1040
 13278              	.LLST95:
 13279 106f 56000000 		.4byte	.LVL246
 13280 1073 62000000 		.4byte	.LVL248
 13281 1077 0200     		.2byte	0x2
ARM GAS  C:\Users\USER\AppData\Local\Temp\ccNdlOSb.s 			page 234


 13282 1079 30       		.byte	0x30
 13283 107a 9F       		.byte	0x9f
 13284 107b 62000000 		.4byte	.LVL248
 13285 107f 6E000000 		.4byte	.LVL250
 13286 1083 0100     		.2byte	0x1
 13287 1085 52       		.byte	0x52
 13288 1086 7C000000 		.4byte	.LVL253
 13289 108a 82000000 		.4byte	.LVL254
 13290 108e 0700     		.2byte	0x7
 13291 1090 72       		.byte	0x72
 13292 1091 00       		.sleb128 0
 13293 1092 0A       		.byte	0xa
 13294 1093 0010     		.2byte	0x1000
 13295 1095 21       		.byte	0x21
 13296 1096 9F       		.byte	0x9f
 13297 1097 00000000 		.4byte	0
 13298 109b 00000000 		.4byte	0
 13299              	.LVUS96:
 13300 109f 04       		.uleb128 .LVU1019
 13301 10a0 01       		.uleb128 .LVU1026
 13302 10a1 01       		.uleb128 .LVU1026
 13303 10a2 00       		.uleb128 .LVU1043
 13304              	.LLST96:
 13305 10a3 56000000 		.4byte	.LVL246
 13306 10a7 62000000 		.4byte	.LVL248
 13307 10ab 0200     		.2byte	0x2
 13308 10ad 30       		.byte	0x30
 13309 10ae 9F       		.byte	0x9f
 13310 10af 62000000 		.4byte	.LVL248
 13311 10b3 86000000 		.4byte	.LVL255
 13312 10b7 0500     		.2byte	0x5
 13313 10b9 76       		.byte	0x76
 13314 10ba 00       		.sleb128 0
 13315 10bb 3C       		.byte	0x3c
 13316 10bc 24       		.byte	0x24
 13317 10bd 9F       		.byte	0x9f
 13318 10be 00000000 		.4byte	0
 13319 10c2 00000000 		.4byte	0
 13320              	.LVUS97:
 13321 10c6 02       		.uleb128 .LVU1045
 13322 10c7 00       		.uleb128 .LVU1055
 13323              	.LLST97:
 13324 10c8 86000000 		.4byte	.LVL255
 13325 10cc 9E000000 		.4byte	.LVL256
 13326 10d0 0500     		.2byte	0x5
 13327 10d2 F3       		.byte	0xf3
 13328 10d3 01       		.uleb128 0x1
 13329 10d4 51       		.byte	0x51
 13330 10d5 23       		.byte	0x23
 13331 10d6 06       		.uleb128 0x6
 13332 10d7 00000000 		.4byte	0
 13333 10db 00000000 		.4byte	0
 13334              	.LVUS98:
 13335 10df 02       		.uleb128 .LVU1045
 13336 10e0 00       		.uleb128 .LVU1055
 13337              	.LLST98:
 13338 10e1 86000000 		.4byte	.LVL255
ARM GAS  C:\Users\USER\AppData\Local\Temp\ccNdlOSb.s 			page 235


 13339 10e5 9E000000 		.4byte	.LVL256
 13340 10e9 0100     		.2byte	0x1
 13341 10eb 50       		.byte	0x50
 13342 10ec 00000000 		.4byte	0
 13343 10f0 00000000 		.4byte	0
 13344              	.LVUS99:
 13345 10f4 02       		.uleb128 .LVU1057
 13346 10f5 00       		.uleb128 .LVU1085
 13347              	.LLST99:
 13348 10f6 9E000000 		.4byte	.LVL256
 13349 10fa D0000000 		.4byte	.LVL266
 13350 10fe 0500     		.2byte	0x5
 13351 1100 F3       		.byte	0xf3
 13352 1101 01       		.uleb128 0x1
 13353 1102 51       		.byte	0x51
 13354 1103 23       		.byte	0x23
 13355 1104 08       		.uleb128 0x8
 13356 1105 00000000 		.4byte	0
 13357 1109 00000000 		.4byte	0
 13358              	.LVUS100:
 13359 110d 02       		.uleb128 .LVU1057
 13360 110e 00       		.uleb128 .LVU1085
 13361              	.LLST100:
 13362 110f 9E000000 		.4byte	.LVL256
 13363 1113 D0000000 		.4byte	.LVL266
 13364 1117 0500     		.2byte	0x5
 13365 1119 F3       		.byte	0xf3
 13366 111a 01       		.uleb128 0x1
 13367 111b 51       		.byte	0x51
 13368 111c 23       		.byte	0x23
 13369 111d 04       		.uleb128 0x4
 13370 111e 00000000 		.4byte	0
 13371 1122 00000000 		.4byte	0
 13372              	.LVUS101:
 13373 1126 02       		.uleb128 .LVU1057
 13374 1127 00       		.uleb128 .LVU1085
 13375              	.LLST101:
 13376 1128 9E000000 		.4byte	.LVL256
 13377 112c D0000000 		.4byte	.LVL266
 13378 1130 0500     		.2byte	0x5
 13379 1132 F3       		.byte	0xf3
 13380 1133 01       		.uleb128 0x1
 13381 1134 51       		.byte	0x51
 13382 1135 23       		.byte	0x23
 13383 1136 02       		.uleb128 0x2
 13384 1137 00000000 		.4byte	0
 13385 113b 00000000 		.4byte	0
 13386              	.LVUS102:
 13387 113f 02       		.uleb128 .LVU1057
 13388 1140 00       		.uleb128 .LVU1085
 13389              	.LLST102:
 13390 1141 9E000000 		.4byte	.LVL256
 13391 1145 D0000000 		.4byte	.LVL266
 13392 1149 0100     		.2byte	0x1
 13393 114b 50       		.byte	0x50
 13394 114c 00000000 		.4byte	0
 13395 1150 00000000 		.4byte	0
ARM GAS  C:\Users\USER\AppData\Local\Temp\ccNdlOSb.s 			page 236


 13396              	.LVUS103:
 13397 1154 04       		.uleb128 .LVU1059
 13398 1155 00       		.uleb128 .LVU1063
 13399 1156 00       		.uleb128 .LVU1063
 13400 1157 00       		.uleb128 .LVU1066
 13401 1158 02       		.uleb128 .LVU1069
 13402 1159 00       		.uleb128 .LVU1071
 13403 115a 00       		.uleb128 .LVU1074
 13404 115b 01       		.uleb128 .LVU1075
 13405 115c 01       		.uleb128 .LVU1075
 13406 115d 00       		.uleb128 .LVU1078
 13407              	.LLST103:
 13408 115e 9E000000 		.4byte	.LVL256
 13409 1162 A8000000 		.4byte	.LVL257
 13410 1166 0200     		.2byte	0x2
 13411 1168 30       		.byte	0x30
 13412 1169 9F       		.byte	0x9f
 13413 116a A8000000 		.4byte	.LVL257
 13414 116e B0000000 		.4byte	.LVL258
 13415 1172 0100     		.2byte	0x1
 13416 1174 53       		.byte	0x53
 13417 1175 B2000000 		.4byte	.LVL259
 13418 1179 B6000000 		.4byte	.LVL260
 13419 117d 0100     		.2byte	0x1
 13420 117f 53       		.byte	0x53
 13421 1180 C0000000 		.4byte	.LVL262
 13422 1184 C0000000 		.4byte	.LVL262
 13423 1188 0100     		.2byte	0x1
 13424 118a 53       		.byte	0x53
 13425 118b C0000000 		.4byte	.LVL262
 13426 118f C4000000 		.4byte	.LVL263
 13427 1193 0800     		.2byte	0x8
 13428 1195 75       		.byte	0x75
 13429 1196 00       		.sleb128 0
 13430 1197 38       		.byte	0x38
 13431 1198 24       		.byte	0x24
 13432 1199 73       		.byte	0x73
 13433 119a 00       		.sleb128 0
 13434 119b 21       		.byte	0x21
 13435 119c 9F       		.byte	0x9f
 13436 119d 00000000 		.4byte	0
 13437 11a1 00000000 		.4byte	0
 13438              	.LVUS104:
 13439 11a5 04       		.uleb128 .LVU1059
 13440 11a6 00       		.uleb128 .LVU1067
 13441 11a7 00       		.uleb128 .LVU1067
 13442 11a8 00       		.uleb128 .LVU1072
 13443 11a9 00       		.uleb128 .LVU1079
 13444 11aa 00       		.uleb128 .LVU1082
 13445              	.LLST104:
 13446 11ab 9E000000 		.4byte	.LVL256
 13447 11af B2000000 		.4byte	.LVL259
 13448 11b3 0200     		.2byte	0x2
 13449 11b5 30       		.byte	0x30
 13450 11b6 9F       		.byte	0x9f
 13451 11b7 B2000000 		.4byte	.LVL259
 13452 11bb BA000000 		.4byte	.LVL261
ARM GAS  C:\Users\USER\AppData\Local\Temp\ccNdlOSb.s 			page 237


 13453 11bf 0100     		.2byte	0x1
 13454 11c1 52       		.byte	0x52
 13455 11c2 C6000000 		.4byte	.LVL264
 13456 11c6 CC000000 		.4byte	.LVL265
 13457 11ca 0500     		.2byte	0x5
 13458 11cc 72       		.byte	0x72
 13459 11cd 00       		.sleb128 0
 13460 11ce 40       		.byte	0x40
 13461 11cf 21       		.byte	0x21
 13462 11d0 9F       		.byte	0x9f
 13463 11d1 00000000 		.4byte	0
 13464 11d5 00000000 		.4byte	0
 13465              	.LVUS105:
 13466 11d9 04       		.uleb128 .LVU1059
 13467 11da 01       		.uleb128 .LVU1068
 13468 11db 01       		.uleb128 .LVU1068
 13469 11dc 00       		.uleb128 .LVU1085
 13470              	.LLST105:
 13471 11dd 9E000000 		.4byte	.LVL256
 13472 11e1 B2000000 		.4byte	.LVL259
 13473 11e5 0200     		.2byte	0x2
 13474 11e7 30       		.byte	0x30
 13475 11e8 9F       		.byte	0x9f
 13476 11e9 B2000000 		.4byte	.LVL259
 13477 11ed D0000000 		.4byte	.LVL266
 13478 11f1 0500     		.2byte	0x5
 13479 11f3 76       		.byte	0x76
 13480 11f4 00       		.sleb128 0
 13481 11f5 34       		.byte	0x34
 13482 11f6 24       		.byte	0x24
 13483 11f7 9F       		.byte	0x9f
 13484 11f8 00000000 		.4byte	0
 13485 11fc 00000000 		.4byte	0
 13486              	.LVUS106:
 13487 1200 02       		.uleb128 .LVU1087
 13488 1201 00       		.uleb128 .LVU1097
 13489              	.LLST106:
 13490 1202 D0000000 		.4byte	.LVL266
 13491 1206 E8000000 		.4byte	.LVL267
 13492 120a 0500     		.2byte	0x5
 13493 120c F3       		.byte	0xf3
 13494 120d 01       		.uleb128 0x1
 13495 120e 51       		.byte	0x51
 13496 120f 23       		.byte	0x23
 13497 1210 06       		.uleb128 0x6
 13498 1211 00000000 		.4byte	0
 13499 1215 00000000 		.4byte	0
 13500              	.LVUS107:
 13501 1219 02       		.uleb128 .LVU1087
 13502 121a 00       		.uleb128 .LVU1097
 13503              	.LLST107:
 13504 121b D0000000 		.4byte	.LVL266
 13505 121f E8000000 		.4byte	.LVL267
 13506 1223 0100     		.2byte	0x1
 13507 1225 50       		.byte	0x50
 13508 1226 00000000 		.4byte	0
 13509 122a 00000000 		.4byte	0
ARM GAS  C:\Users\USER\AppData\Local\Temp\ccNdlOSb.s 			page 238


 13510              	.LVUS108:
 13511 122e 02       		.uleb128 .LVU1099
 13512 122f 00       		.uleb128 .LVU1125
 13513              	.LLST108:
 13514 1230 E8000000 		.4byte	.LVL267
 13515 1234 16010000 		.4byte	.LVL276
 13516 1238 0500     		.2byte	0x5
 13517 123a F3       		.byte	0xf3
 13518 123b 01       		.uleb128 0x1
 13519 123c 51       		.byte	0x51
 13520 123d 23       		.byte	0x23
 13521 123e 08       		.uleb128 0x8
 13522 123f 00000000 		.4byte	0
 13523 1243 00000000 		.4byte	0
 13524              	.LVUS109:
 13525 1247 02       		.uleb128 .LVU1099
 13526 1248 00       		.uleb128 .LVU1125
 13527              	.LLST109:
 13528 1249 E8000000 		.4byte	.LVL267
 13529 124d 16010000 		.4byte	.LVL276
 13530 1251 0500     		.2byte	0x5
 13531 1253 F3       		.byte	0xf3
 13532 1254 01       		.uleb128 0x1
 13533 1255 51       		.byte	0x51
 13534 1256 23       		.byte	0x23
 13535 1257 04       		.uleb128 0x4
 13536 1258 00000000 		.4byte	0
 13537 125c 00000000 		.4byte	0
 13538              	.LVUS110:
 13539 1260 02       		.uleb128 .LVU1099
 13540 1261 00       		.uleb128 .LVU1125
 13541              	.LLST110:
 13542 1262 E8000000 		.4byte	.LVL267
 13543 1266 16010000 		.4byte	.LVL276
 13544 126a 0500     		.2byte	0x5
 13545 126c F3       		.byte	0xf3
 13546 126d 01       		.uleb128 0x1
 13547 126e 51       		.byte	0x51
 13548 126f 23       		.byte	0x23
 13549 1270 02       		.uleb128 0x2
 13550 1271 00000000 		.4byte	0
 13551 1275 00000000 		.4byte	0
 13552              	.LVUS111:
 13553 1279 02       		.uleb128 .LVU1099
 13554 127a 00       		.uleb128 .LVU1125
 13555              	.LLST111:
 13556 127b E8000000 		.4byte	.LVL267
 13557 127f 16010000 		.4byte	.LVL276
 13558 1283 0100     		.2byte	0x1
 13559 1285 50       		.byte	0x50
 13560 1286 00000000 		.4byte	0
 13561 128a 00000000 		.4byte	0
 13562              	.LVUS112:
 13563 128e 04       		.uleb128 .LVU1101
 13564 128f 00       		.uleb128 .LVU1107
 13565 1290 00       		.uleb128 .LVU1107
 13566 1291 02       		.uleb128 .LVU1111
ARM GAS  C:\Users\USER\AppData\Local\Temp\ccNdlOSb.s 			page 239


 13567 1292 02       		.uleb128 .LVU1111
 13568 1293 00       		.uleb128 .LVU1113
 13569 1294 00       		.uleb128 .LVU1116
 13570 1295 00       		.uleb128 .LVU1121
 13571              	.LLST112:
 13572 1296 E8000000 		.4byte	.LVL267
 13573 129a F6000000 		.4byte	.LVL268
 13574 129e 0200     		.2byte	0x2
 13575 12a0 30       		.byte	0x30
 13576 12a1 9F       		.byte	0x9f
 13577 12a2 F6000000 		.4byte	.LVL268
 13578 12a6 F8000000 		.4byte	.LVL269
 13579 12aa 0100     		.2byte	0x1
 13580 12ac 53       		.byte	0x53
 13581 12ad F8000000 		.4byte	.LVL269
 13582 12b1 FC000000 		.4byte	.LVL270
 13583 12b5 0700     		.2byte	0x7
 13584 12b7 73       		.byte	0x73
 13585 12b8 00       		.sleb128 0
 13586 12b9 0B       		.byte	0xb
 13587 12ba 0CFF     		.2byte	0xff0c
 13588 12bc 1A       		.byte	0x1a
 13589 12bd 9F       		.byte	0x9f
 13590 12be 0A010000 		.4byte	.LVL272
 13591 12c2 0E010000 		.4byte	.LVL274
 13592 12c6 0600     		.2byte	0x6
 13593 12c8 75       		.byte	0x75
 13594 12c9 00       		.sleb128 0
 13595 12ca 73       		.byte	0x73
 13596 12cb 00       		.sleb128 0
 13597 12cc 21       		.byte	0x21
 13598 12cd 9F       		.byte	0x9f
 13599 12ce 00000000 		.4byte	0
 13600 12d2 00000000 		.4byte	0
 13601              	.LVUS113:
 13602 12d6 04       		.uleb128 .LVU1101
 13603 12d7 00       		.uleb128 .LVU1109
 13604 12d8 00       		.uleb128 .LVU1109
 13605 12d9 00       		.uleb128 .LVU1114
 13606 12da 00       		.uleb128 .LVU1119
 13607 12db 00       		.uleb128 .LVU1122
 13608              	.LLST113:
 13609 12dc E8000000 		.4byte	.LVL267
 13610 12e0 F8000000 		.4byte	.LVL269
 13611 12e4 0200     		.2byte	0x2
 13612 12e6 30       		.byte	0x30
 13613 12e7 9F       		.byte	0x9f
 13614 12e8 F8000000 		.4byte	.LVL269
 13615 12ec 00010000 		.4byte	.LVL271
 13616 12f0 0100     		.2byte	0x1
 13617 12f2 52       		.byte	0x52
 13618 12f3 0C010000 		.4byte	.LVL273
 13619 12f7 12010000 		.4byte	.LVL275
 13620 12fb 0700     		.2byte	0x7
 13621 12fd 72       		.byte	0x72
 13622 12fe 00       		.sleb128 0
 13623 12ff 0A       		.byte	0xa
ARM GAS  C:\Users\USER\AppData\Local\Temp\ccNdlOSb.s 			page 240


 13624 1300 0001     		.2byte	0x100
 13625 1302 21       		.byte	0x21
 13626 1303 9F       		.byte	0x9f
 13627 1304 00000000 		.4byte	0
 13628 1308 00000000 		.4byte	0
 13629              	.LVUS114:
 13630 130c 04       		.uleb128 .LVU1101
 13631 130d 01       		.uleb128 .LVU1110
 13632 130e 01       		.uleb128 .LVU1110
 13633 130f 00       		.uleb128 .LVU1125
 13634              	.LLST114:
 13635 1310 E8000000 		.4byte	.LVL267
 13636 1314 F8000000 		.4byte	.LVL269
 13637 1318 0200     		.2byte	0x2
 13638 131a 30       		.byte	0x30
 13639 131b 9F       		.byte	0x9f
 13640 131c F8000000 		.4byte	.LVL269
 13641 1320 16010000 		.4byte	.LVL276
 13642 1324 0500     		.2byte	0x5
 13643 1326 76       		.byte	0x76
 13644 1327 00       		.sleb128 0
 13645 1328 38       		.byte	0x38
 13646 1329 24       		.byte	0x24
 13647 132a 9F       		.byte	0x9f
 13648 132b 00000000 		.4byte	0
 13649 132f 00000000 		.4byte	0
 13650              	.LVUS115:
 13651 1333 02       		.uleb128 .LVU1127
 13652 1334 00       		.uleb128 0
 13653              	.LLST115:
 13654 1335 16010000 		.4byte	.LVL276
 13655 1339 2A010000 		.4byte	.LFE162
 13656 133d 0500     		.2byte	0x5
 13657 133f F3       		.byte	0xf3
 13658 1340 01       		.uleb128 0x1
 13659 1341 51       		.byte	0x51
 13660 1342 23       		.byte	0x23
 13661 1343 06       		.uleb128 0x6
 13662 1344 00000000 		.4byte	0
 13663 1348 00000000 		.4byte	0
 13664              	.LVUS116:
 13665 134c 02       		.uleb128 .LVU1127
 13666 134d 00       		.uleb128 0
 13667              	.LLST116:
 13668 134e 16010000 		.4byte	.LVL276
 13669 1352 2A010000 		.4byte	.LFE162
 13670 1356 0100     		.2byte	0x1
 13671 1358 50       		.byte	0x50
 13672 1359 00000000 		.4byte	0
 13673 135d 00000000 		.4byte	0
 13674              	.LVUS78:
 13675 1361 00       		.uleb128 0
 13676 1362 00       		.uleb128 .LVU960
 13677 1363 00       		.uleb128 .LVU960
 13678 1364 00       		.uleb128 0
 13679              	.LLST78:
 13680 1365 00000000 		.4byte	.LVL231
ARM GAS  C:\Users\USER\AppData\Local\Temp\ccNdlOSb.s 			page 241


 13681 1369 14000000 		.4byte	.LVL232
 13682 136d 0100     		.2byte	0x1
 13683 136f 51       		.byte	0x51
 13684 1370 14000000 		.4byte	.LVL232
 13685 1374 22000000 		.4byte	.LFE161
 13686 1378 0400     		.2byte	0x4
 13687 137a F3       		.byte	0xf3
 13688 137b 01       		.uleb128 0x1
 13689 137c 51       		.byte	0x51
 13690 137d 9F       		.byte	0x9f
 13691 137e 00000000 		.4byte	0
 13692 1382 00000000 		.4byte	0
 13693              	.LVUS79:
 13694 1386 00       		.uleb128 0
 13695 1387 00       		.uleb128 .LVU961
 13696 1388 00       		.uleb128 .LVU961
 13697 1389 00       		.uleb128 0
 13698              	.LLST79:
 13699 138a 00000000 		.4byte	.LVL231
 13700 138e 16000000 		.4byte	.LVL233
 13701 1392 0100     		.2byte	0x1
 13702 1394 52       		.byte	0x52
 13703 1395 16000000 		.4byte	.LVL233
 13704 1399 22000000 		.4byte	.LFE161
 13705 139d 0400     		.2byte	0x4
 13706 139f F3       		.byte	0xf3
 13707 13a0 01       		.uleb128 0x1
 13708 13a1 52       		.byte	0x52
 13709 13a2 9F       		.byte	0x9f
 13710 13a3 00000000 		.4byte	0
 13711 13a7 00000000 		.4byte	0
 13712              	.LVUS80:
 13713 13ab 02       		.uleb128 .LVU947
 13714 13ac 06       		.uleb128 .LVU951
 13715 13ad 06       		.uleb128 .LVU951
 13716 13ae 00       		.uleb128 .LVU960
 13717 13af 00       		.uleb128 .LVU960
 13718 13b0 00       		.uleb128 0
 13719              	.LLST80:
 13720 13b1 00000000 		.4byte	.LVL231
 13721 13b5 00000000 		.4byte	.LVL231
 13722 13b9 0200     		.2byte	0x2
 13723 13bb 30       		.byte	0x30
 13724 13bc 9F       		.byte	0x9f
 13725 13bd 00000000 		.4byte	.LVL231
 13726 13c1 14000000 		.4byte	.LVL232
 13727 13c5 0500     		.2byte	0x5
 13728 13c7 34       		.byte	0x34
 13729 13c8 71       		.byte	0x71
 13730 13c9 00       		.sleb128 0
 13731 13ca 24       		.byte	0x24
 13732 13cb 9F       		.byte	0x9f
 13733 13cc 14000000 		.4byte	.LVL232
 13734 13d0 22000000 		.4byte	.LFE161
 13735 13d4 0600     		.2byte	0x6
 13736 13d6 34       		.byte	0x34
 13737 13d7 F3       		.byte	0xf3
ARM GAS  C:\Users\USER\AppData\Local\Temp\ccNdlOSb.s 			page 242


 13738 13d8 01       		.uleb128 0x1
 13739 13d9 51       		.byte	0x51
 13740 13da 24       		.byte	0x24
 13741 13db 9F       		.byte	0x9f
 13742 13dc 00000000 		.4byte	0
 13743 13e0 00000000 		.4byte	0
 13744              	.LVUS75:
 13745 13e4 00       		.uleb128 0
 13746 13e5 00       		.uleb128 .LVU940
 13747 13e6 00       		.uleb128 .LVU940
 13748 13e7 00       		.uleb128 0
 13749              	.LLST75:
 13750 13e8 00000000 		.4byte	.LVL228
 13751 13ec 14000000 		.4byte	.LVL229
 13752 13f0 0100     		.2byte	0x1
 13753 13f2 51       		.byte	0x51
 13754 13f3 14000000 		.4byte	.LVL229
 13755 13f7 22000000 		.4byte	.LFE160
 13756 13fb 0400     		.2byte	0x4
 13757 13fd F3       		.byte	0xf3
 13758 13fe 01       		.uleb128 0x1
 13759 13ff 51       		.byte	0x51
 13760 1400 9F       		.byte	0x9f
 13761 1401 00000000 		.4byte	0
 13762 1405 00000000 		.4byte	0
 13763              	.LVUS76:
 13764 1409 00       		.uleb128 0
 13765 140a 00       		.uleb128 .LVU941
 13766 140b 00       		.uleb128 .LVU941
 13767 140c 00       		.uleb128 0
 13768              	.LLST76:
 13769 140d 00000000 		.4byte	.LVL228
 13770 1411 16000000 		.4byte	.LVL230
 13771 1415 0100     		.2byte	0x1
 13772 1417 52       		.byte	0x52
 13773 1418 16000000 		.4byte	.LVL230
 13774 141c 22000000 		.4byte	.LFE160
 13775 1420 0400     		.2byte	0x4
 13776 1422 F3       		.byte	0xf3
 13777 1423 01       		.uleb128 0x1
 13778 1424 52       		.byte	0x52
 13779 1425 9F       		.byte	0x9f
 13780 1426 00000000 		.4byte	0
 13781 142a 00000000 		.4byte	0
 13782              	.LVUS77:
 13783 142e 02       		.uleb128 .LVU927
 13784 142f 06       		.uleb128 .LVU931
 13785 1430 06       		.uleb128 .LVU931
 13786 1431 00       		.uleb128 .LVU940
 13787 1432 00       		.uleb128 .LVU940
 13788 1433 00       		.uleb128 0
 13789              	.LLST77:
 13790 1434 00000000 		.4byte	.LVL228
 13791 1438 00000000 		.4byte	.LVL228
 13792 143c 0200     		.2byte	0x2
 13793 143e 30       		.byte	0x30
 13794 143f 9F       		.byte	0x9f
ARM GAS  C:\Users\USER\AppData\Local\Temp\ccNdlOSb.s 			page 243


 13795 1440 00000000 		.4byte	.LVL228
 13796 1444 14000000 		.4byte	.LVL229
 13797 1448 0500     		.2byte	0x5
 13798 144a 31       		.byte	0x31
 13799 144b 71       		.byte	0x71
 13800 144c 00       		.sleb128 0
 13801 144d 24       		.byte	0x24
 13802 144e 9F       		.byte	0x9f
 13803 144f 14000000 		.4byte	.LVL229
 13804 1453 22000000 		.4byte	.LFE160
 13805 1457 0600     		.2byte	0x6
 13806 1459 31       		.byte	0x31
 13807 145a F3       		.byte	0xf3
 13808 145b 01       		.uleb128 0x1
 13809 145c 51       		.byte	0x51
 13810 145d 24       		.byte	0x24
 13811 145e 9F       		.byte	0x9f
 13812 145f 00000000 		.4byte	0
 13813 1463 00000000 		.4byte	0
 13814              	.LVUS73:
 13815 1467 00       		.uleb128 0
 13816 1468 00       		.uleb128 .LVU923
 13817 1469 00       		.uleb128 .LVU923
 13818 146a 00       		.uleb128 0
 13819              	.LLST73:
 13820 146b 00000000 		.4byte	.LVL224
 13821 146f 0C000000 		.4byte	.LVL227
 13822 1473 0100     		.2byte	0x1
 13823 1475 51       		.byte	0x51
 13824 1476 0C000000 		.4byte	.LVL227
 13825 147a 12000000 		.4byte	.LFE159
 13826 147e 0400     		.2byte	0x4
 13827 1480 F3       		.byte	0xf3
 13828 1481 01       		.uleb128 0x1
 13829 1482 51       		.byte	0x51
 13830 1483 9F       		.byte	0x9f
 13831 1484 00000000 		.4byte	0
 13832 1488 00000000 		.4byte	0
 13833              	.LVUS74:
 13834 148c 02       		.uleb128 .LVU914
 13835 148d 00       		.uleb128 .LVU918
 13836 148e 00       		.uleb128 .LVU918
 13837 148f 00       		.uleb128 .LVU920
 13838 1490 00       		.uleb128 .LVU920
 13839 1491 01       		.uleb128 .LVU921
 13840 1492 01       		.uleb128 .LVU921
 13841 1493 00       		.uleb128 .LVU923
 13842 1494 00       		.uleb128 .LVU923
 13843 1495 00       		.uleb128 0
 13844              	.LLST74:
 13845 1496 00000000 		.4byte	.LVL224
 13846 149a 02000000 		.4byte	.LVL225
 13847 149e 0200     		.2byte	0x2
 13848 14a0 30       		.byte	0x30
 13849 14a1 9F       		.byte	0x9f
 13850 14a2 02000000 		.4byte	.LVL225
 13851 14a6 08000000 		.4byte	.LVL226
ARM GAS  C:\Users\USER\AppData\Local\Temp\ccNdlOSb.s 			page 244


 13852 14aa 0100     		.2byte	0x1
 13853 14ac 52       		.byte	0x52
 13854 14ad 08000000 		.4byte	.LVL226
 13855 14b1 08000000 		.4byte	.LVL226
 13856 14b5 0100     		.2byte	0x1
 13857 14b7 53       		.byte	0x53
 13858 14b8 08000000 		.4byte	.LVL226
 13859 14bc 0C000000 		.4byte	.LVL227
 13860 14c0 0800     		.2byte	0x8
 13861 14c2 71       		.byte	0x71
 13862 14c3 00       		.sleb128 0
 13863 14c4 3C       		.byte	0x3c
 13864 14c5 24       		.byte	0x24
 13865 14c6 73       		.byte	0x73
 13866 14c7 00       		.sleb128 0
 13867 14c8 21       		.byte	0x21
 13868 14c9 9F       		.byte	0x9f
 13869 14ca 0C000000 		.4byte	.LVL227
 13870 14ce 12000000 		.4byte	.LFE159
 13871 14d2 0900     		.2byte	0x9
 13872 14d4 F3       		.byte	0xf3
 13873 14d5 01       		.uleb128 0x1
 13874 14d6 51       		.byte	0x51
 13875 14d7 3C       		.byte	0x3c
 13876 14d8 24       		.byte	0x24
 13877 14d9 73       		.byte	0x73
 13878 14da 00       		.sleb128 0
 13879 14db 21       		.byte	0x21
 13880 14dc 9F       		.byte	0x9f
 13881 14dd 00000000 		.4byte	0
 13882 14e1 00000000 		.4byte	0
 13883              	.LVUS71:
 13884 14e5 00       		.uleb128 0
 13885 14e6 00       		.uleb128 .LVU910
 13886 14e7 00       		.uleb128 .LVU910
 13887 14e8 00       		.uleb128 0
 13888              	.LLST71:
 13889 14e9 00000000 		.4byte	.LVL220
 13890 14ed 0C000000 		.4byte	.LVL223
 13891 14f1 0100     		.2byte	0x1
 13892 14f3 51       		.byte	0x51
 13893 14f4 0C000000 		.4byte	.LVL223
 13894 14f8 12000000 		.4byte	.LFE158
 13895 14fc 0400     		.2byte	0x4
 13896 14fe F3       		.byte	0xf3
 13897 14ff 01       		.uleb128 0x1
 13898 1500 51       		.byte	0x51
 13899 1501 9F       		.byte	0x9f
 13900 1502 00000000 		.4byte	0
 13901 1506 00000000 		.4byte	0
 13902              	.LVUS72:
 13903 150a 02       		.uleb128 .LVU901
 13904 150b 00       		.uleb128 .LVU905
 13905 150c 00       		.uleb128 .LVU905
 13906 150d 00       		.uleb128 .LVU907
 13907 150e 00       		.uleb128 .LVU907
 13908 150f 01       		.uleb128 .LVU908
ARM GAS  C:\Users\USER\AppData\Local\Temp\ccNdlOSb.s 			page 245


 13909 1510 01       		.uleb128 .LVU908
 13910 1511 00       		.uleb128 .LVU910
 13911 1512 00       		.uleb128 .LVU910
 13912 1513 00       		.uleb128 0
 13913              	.LLST72:
 13914 1514 00000000 		.4byte	.LVL220
 13915 1518 02000000 		.4byte	.LVL221
 13916 151c 0200     		.2byte	0x2
 13917 151e 30       		.byte	0x30
 13918 151f 9F       		.byte	0x9f
 13919 1520 02000000 		.4byte	.LVL221
 13920 1524 08000000 		.4byte	.LVL222
 13921 1528 0100     		.2byte	0x1
 13922 152a 52       		.byte	0x52
 13923 152b 08000000 		.4byte	.LVL222
 13924 152f 08000000 		.4byte	.LVL222
 13925 1533 0100     		.2byte	0x1
 13926 1535 53       		.byte	0x53
 13927 1536 08000000 		.4byte	.LVL222
 13928 153a 0C000000 		.4byte	.LVL223
 13929 153e 0800     		.2byte	0x8
 13930 1540 71       		.byte	0x71
 13931 1541 00       		.sleb128 0
 13932 1542 38       		.byte	0x38
 13933 1543 24       		.byte	0x24
 13934 1544 73       		.byte	0x73
 13935 1545 00       		.sleb128 0
 13936 1546 21       		.byte	0x21
 13937 1547 9F       		.byte	0x9f
 13938 1548 0C000000 		.4byte	.LVL223
 13939 154c 12000000 		.4byte	.LFE158
 13940 1550 0900     		.2byte	0x9
 13941 1552 F3       		.byte	0xf3
 13942 1553 01       		.uleb128 0x1
 13943 1554 51       		.byte	0x51
 13944 1555 38       		.byte	0x38
 13945 1556 24       		.byte	0x24
 13946 1557 73       		.byte	0x73
 13947 1558 00       		.sleb128 0
 13948 1559 21       		.byte	0x21
 13949 155a 9F       		.byte	0x9f
 13950 155b 00000000 		.4byte	0
 13951 155f 00000000 		.4byte	0
 13952              	.LVUS69:
 13953 1563 00       		.uleb128 0
 13954 1564 00       		.uleb128 .LVU897
 13955 1565 00       		.uleb128 .LVU897
 13956 1566 00       		.uleb128 0
 13957              	.LLST69:
 13958 1567 00000000 		.4byte	.LVL216
 13959 156b 0C000000 		.4byte	.LVL219
 13960 156f 0100     		.2byte	0x1
 13961 1571 51       		.byte	0x51
 13962 1572 0C000000 		.4byte	.LVL219
 13963 1576 12000000 		.4byte	.LFE157
 13964 157a 0400     		.2byte	0x4
 13965 157c F3       		.byte	0xf3
ARM GAS  C:\Users\USER\AppData\Local\Temp\ccNdlOSb.s 			page 246


 13966 157d 01       		.uleb128 0x1
 13967 157e 51       		.byte	0x51
 13968 157f 9F       		.byte	0x9f
 13969 1580 00000000 		.4byte	0
 13970 1584 00000000 		.4byte	0
 13971              	.LVUS70:
 13972 1588 02       		.uleb128 .LVU888
 13973 1589 00       		.uleb128 .LVU892
 13974 158a 00       		.uleb128 .LVU892
 13975 158b 00       		.uleb128 .LVU894
 13976 158c 00       		.uleb128 .LVU894
 13977 158d 01       		.uleb128 .LVU895
 13978 158e 01       		.uleb128 .LVU895
 13979 158f 00       		.uleb128 .LVU897
 13980 1590 00       		.uleb128 .LVU897
 13981 1591 00       		.uleb128 0
 13982              	.LLST70:
 13983 1592 00000000 		.4byte	.LVL216
 13984 1596 02000000 		.4byte	.LVL217
 13985 159a 0200     		.2byte	0x2
 13986 159c 30       		.byte	0x30
 13987 159d 9F       		.byte	0x9f
 13988 159e 02000000 		.4byte	.LVL217
 13989 15a2 08000000 		.4byte	.LVL218
 13990 15a6 0100     		.2byte	0x1
 13991 15a8 52       		.byte	0x52
 13992 15a9 08000000 		.4byte	.LVL218
 13993 15ad 08000000 		.4byte	.LVL218
 13994 15b1 0100     		.2byte	0x1
 13995 15b3 53       		.byte	0x53
 13996 15b4 08000000 		.4byte	.LVL218
 13997 15b8 0C000000 		.4byte	.LVL219
 13998 15bc 0800     		.2byte	0x8
 13999 15be 71       		.byte	0x71
 14000 15bf 00       		.sleb128 0
 14001 15c0 38       		.byte	0x38
 14002 15c1 24       		.byte	0x24
 14003 15c2 73       		.byte	0x73
 14004 15c3 00       		.sleb128 0
 14005 15c4 21       		.byte	0x21
 14006 15c5 9F       		.byte	0x9f
 14007 15c6 0C000000 		.4byte	.LVL219
 14008 15ca 12000000 		.4byte	.LFE157
 14009 15ce 0900     		.2byte	0x9
 14010 15d0 F3       		.byte	0xf3
 14011 15d1 01       		.uleb128 0x1
 14012 15d2 51       		.byte	0x51
 14013 15d3 38       		.byte	0x38
 14014 15d4 24       		.byte	0x24
 14015 15d5 73       		.byte	0x73
 14016 15d6 00       		.sleb128 0
 14017 15d7 21       		.byte	0x21
 14018 15d8 9F       		.byte	0x9f
 14019 15d9 00000000 		.4byte	0
 14020 15dd 00000000 		.4byte	0
 14021              	.LVUS67:
 14022 15e1 00       		.uleb128 0
ARM GAS  C:\Users\USER\AppData\Local\Temp\ccNdlOSb.s 			page 247


 14023 15e2 00       		.uleb128 .LVU884
 14024 15e3 00       		.uleb128 .LVU884
 14025 15e4 00       		.uleb128 0
 14026              	.LLST67:
 14027 15e5 00000000 		.4byte	.LVL212
 14028 15e9 0C000000 		.4byte	.LVL215
 14029 15ed 0100     		.2byte	0x1
 14030 15ef 51       		.byte	0x51
 14031 15f0 0C000000 		.4byte	.LVL215
 14032 15f4 12000000 		.4byte	.LFE156
 14033 15f8 0400     		.2byte	0x4
 14034 15fa F3       		.byte	0xf3
 14035 15fb 01       		.uleb128 0x1
 14036 15fc 51       		.byte	0x51
 14037 15fd 9F       		.byte	0x9f
 14038 15fe 00000000 		.4byte	0
 14039 1602 00000000 		.4byte	0
 14040              	.LVUS68:
 14041 1606 02       		.uleb128 .LVU875
 14042 1607 00       		.uleb128 .LVU879
 14043 1608 00       		.uleb128 .LVU879
 14044 1609 00       		.uleb128 .LVU881
 14045 160a 00       		.uleb128 .LVU881
 14046 160b 01       		.uleb128 .LVU882
 14047 160c 01       		.uleb128 .LVU882
 14048 160d 00       		.uleb128 .LVU884
 14049 160e 00       		.uleb128 .LVU884
 14050 160f 00       		.uleb128 0
 14051              	.LLST68:
 14052 1610 00000000 		.4byte	.LVL212
 14053 1614 02000000 		.4byte	.LVL213
 14054 1618 0200     		.2byte	0x2
 14055 161a 30       		.byte	0x30
 14056 161b 9F       		.byte	0x9f
 14057 161c 02000000 		.4byte	.LVL213
 14058 1620 08000000 		.4byte	.LVL214
 14059 1624 0100     		.2byte	0x1
 14060 1626 52       		.byte	0x52
 14061 1627 08000000 		.4byte	.LVL214
 14062 162b 08000000 		.4byte	.LVL214
 14063 162f 0100     		.2byte	0x1
 14064 1631 53       		.byte	0x53
 14065 1632 08000000 		.4byte	.LVL214
 14066 1636 0C000000 		.4byte	.LVL215
 14067 163a 0800     		.2byte	0x8
 14068 163c 71       		.byte	0x71
 14069 163d 00       		.sleb128 0
 14070 163e 34       		.byte	0x34
 14071 163f 24       		.byte	0x24
 14072 1640 73       		.byte	0x73
 14073 1641 00       		.sleb128 0
 14074 1642 21       		.byte	0x21
 14075 1643 9F       		.byte	0x9f
 14076 1644 0C000000 		.4byte	.LVL215
 14077 1648 12000000 		.4byte	.LFE156
 14078 164c 0900     		.2byte	0x9
 14079 164e F3       		.byte	0xf3
ARM GAS  C:\Users\USER\AppData\Local\Temp\ccNdlOSb.s 			page 248


 14080 164f 01       		.uleb128 0x1
 14081 1650 51       		.byte	0x51
 14082 1651 34       		.byte	0x34
 14083 1652 24       		.byte	0x24
 14084 1653 73       		.byte	0x73
 14085 1654 00       		.sleb128 0
 14086 1655 21       		.byte	0x21
 14087 1656 9F       		.byte	0x9f
 14088 1657 00000000 		.4byte	0
 14089 165b 00000000 		.4byte	0
 14090              	.LVUS65:
 14091 165f 00       		.uleb128 0
 14092 1660 00       		.uleb128 .LVU871
 14093 1661 00       		.uleb128 .LVU871
 14094 1662 00       		.uleb128 0
 14095              	.LLST65:
 14096 1663 00000000 		.4byte	.LVL208
 14097 1667 0C000000 		.4byte	.LVL211
 14098 166b 0100     		.2byte	0x1
 14099 166d 51       		.byte	0x51
 14100 166e 0C000000 		.4byte	.LVL211
 14101 1672 12000000 		.4byte	.LFE155
 14102 1676 0400     		.2byte	0x4
 14103 1678 F3       		.byte	0xf3
 14104 1679 01       		.uleb128 0x1
 14105 167a 51       		.byte	0x51
 14106 167b 9F       		.byte	0x9f
 14107 167c 00000000 		.4byte	0
 14108 1680 00000000 		.4byte	0
 14109              	.LVUS66:
 14110 1684 02       		.uleb128 .LVU862
 14111 1685 00       		.uleb128 .LVU866
 14112 1686 00       		.uleb128 .LVU866
 14113 1687 00       		.uleb128 .LVU868
 14114 1688 00       		.uleb128 .LVU868
 14115 1689 01       		.uleb128 .LVU869
 14116 168a 01       		.uleb128 .LVU869
 14117 168b 00       		.uleb128 .LVU871
 14118 168c 00       		.uleb128 .LVU871
 14119 168d 00       		.uleb128 0
 14120              	.LLST66:
 14121 168e 00000000 		.4byte	.LVL208
 14122 1692 02000000 		.4byte	.LVL209
 14123 1696 0200     		.2byte	0x2
 14124 1698 30       		.byte	0x30
 14125 1699 9F       		.byte	0x9f
 14126 169a 02000000 		.4byte	.LVL209
 14127 169e 08000000 		.4byte	.LVL210
 14128 16a2 0100     		.2byte	0x1
 14129 16a4 52       		.byte	0x52
 14130 16a5 08000000 		.4byte	.LVL210
 14131 16a9 08000000 		.4byte	.LVL210
 14132 16ad 0100     		.2byte	0x1
 14133 16af 53       		.byte	0x53
 14134 16b0 08000000 		.4byte	.LVL210
 14135 16b4 0C000000 		.4byte	.LVL211
 14136 16b8 0800     		.2byte	0x8
ARM GAS  C:\Users\USER\AppData\Local\Temp\ccNdlOSb.s 			page 249


 14137 16ba 71       		.byte	0x71
 14138 16bb 00       		.sleb128 0
 14139 16bc 34       		.byte	0x34
 14140 16bd 24       		.byte	0x24
 14141 16be 73       		.byte	0x73
 14142 16bf 00       		.sleb128 0
 14143 16c0 21       		.byte	0x21
 14144 16c1 9F       		.byte	0x9f
 14145 16c2 0C000000 		.4byte	.LVL211
 14146 16c6 12000000 		.4byte	.LFE155
 14147 16ca 0900     		.2byte	0x9
 14148 16cc F3       		.byte	0xf3
 14149 16cd 01       		.uleb128 0x1
 14150 16ce 51       		.byte	0x51
 14151 16cf 34       		.byte	0x34
 14152 16d0 24       		.byte	0x24
 14153 16d1 73       		.byte	0x73
 14154 16d2 00       		.sleb128 0
 14155 16d3 21       		.byte	0x21
 14156 16d4 9F       		.byte	0x9f
 14157 16d5 00000000 		.4byte	0
 14158 16d9 00000000 		.4byte	0
 14159              	.LVUS63:
 14160 16dd 00       		.uleb128 0
 14161 16de 00       		.uleb128 .LVU858
 14162 16df 00       		.uleb128 .LVU858
 14163 16e0 00       		.uleb128 0
 14164              	.LLST63:
 14165 16e1 00000000 		.4byte	.LVL204
 14166 16e5 0A000000 		.4byte	.LVL207
 14167 16e9 0100     		.2byte	0x1
 14168 16eb 51       		.byte	0x51
 14169 16ec 0A000000 		.4byte	.LVL207
 14170 16f0 0E000000 		.4byte	.LFE154
 14171 16f4 0400     		.2byte	0x4
 14172 16f6 F3       		.byte	0xf3
 14173 16f7 01       		.uleb128 0x1
 14174 16f8 51       		.byte	0x51
 14175 16f9 9F       		.byte	0x9f
 14176 16fa 00000000 		.4byte	0
 14177 16fe 00000000 		.4byte	0
 14178              	.LVUS64:
 14179 1702 02       		.uleb128 .LVU849
 14180 1703 00       		.uleb128 .LVU853
 14181 1704 00       		.uleb128 .LVU853
 14182 1705 00       		.uleb128 .LVU855
 14183 1706 00       		.uleb128 .LVU855
 14184 1707 01       		.uleb128 .LVU856
 14185 1708 01       		.uleb128 .LVU856
 14186 1709 00       		.uleb128 .LVU858
 14187 170a 00       		.uleb128 .LVU858
 14188 170b 00       		.uleb128 0
 14189              	.LLST64:
 14190 170c 00000000 		.4byte	.LVL204
 14191 1710 02000000 		.4byte	.LVL205
 14192 1714 0200     		.2byte	0x2
 14193 1716 30       		.byte	0x30
ARM GAS  C:\Users\USER\AppData\Local\Temp\ccNdlOSb.s 			page 250


 14194 1717 9F       		.byte	0x9f
 14195 1718 02000000 		.4byte	.LVL205
 14196 171c 08000000 		.4byte	.LVL206
 14197 1720 0100     		.2byte	0x1
 14198 1722 52       		.byte	0x52
 14199 1723 08000000 		.4byte	.LVL206
 14200 1727 08000000 		.4byte	.LVL206
 14201 172b 0100     		.2byte	0x1
 14202 172d 53       		.byte	0x53
 14203 172e 08000000 		.4byte	.LVL206
 14204 1732 0A000000 		.4byte	.LVL207
 14205 1736 0600     		.2byte	0x6
 14206 1738 71       		.byte	0x71
 14207 1739 00       		.sleb128 0
 14208 173a 73       		.byte	0x73
 14209 173b 00       		.sleb128 0
 14210 173c 21       		.byte	0x21
 14211 173d 9F       		.byte	0x9f
 14212 173e 0A000000 		.4byte	.LVL207
 14213 1742 0E000000 		.4byte	.LFE154
 14214 1746 0700     		.2byte	0x7
 14215 1748 F3       		.byte	0xf3
 14216 1749 01       		.uleb128 0x1
 14217 174a 51       		.byte	0x51
 14218 174b 73       		.byte	0x73
 14219 174c 00       		.sleb128 0
 14220 174d 21       		.byte	0x21
 14221 174e 9F       		.byte	0x9f
 14222 174f 00000000 		.4byte	0
 14223 1753 00000000 		.4byte	0
 14224              	.LVUS61:
 14225 1757 00       		.uleb128 0
 14226 1758 00       		.uleb128 .LVU845
 14227 1759 00       		.uleb128 .LVU845
 14228 175a 00       		.uleb128 0
 14229              	.LLST61:
 14230 175b 00000000 		.4byte	.LVL200
 14231 175f 0A000000 		.4byte	.LVL203
 14232 1763 0100     		.2byte	0x1
 14233 1765 51       		.byte	0x51
 14234 1766 0A000000 		.4byte	.LVL203
 14235 176a 0E000000 		.4byte	.LFE153
 14236 176e 0400     		.2byte	0x4
 14237 1770 F3       		.byte	0xf3
 14238 1771 01       		.uleb128 0x1
 14239 1772 51       		.byte	0x51
 14240 1773 9F       		.byte	0x9f
 14241 1774 00000000 		.4byte	0
 14242 1778 00000000 		.4byte	0
 14243              	.LVUS62:
 14244 177c 02       		.uleb128 .LVU836
 14245 177d 00       		.uleb128 .LVU840
 14246 177e 00       		.uleb128 .LVU840
 14247 177f 00       		.uleb128 .LVU842
 14248 1780 00       		.uleb128 .LVU842
 14249 1781 01       		.uleb128 .LVU843
 14250 1782 01       		.uleb128 .LVU843
ARM GAS  C:\Users\USER\AppData\Local\Temp\ccNdlOSb.s 			page 251


 14251 1783 00       		.uleb128 .LVU845
 14252 1784 00       		.uleb128 .LVU845
 14253 1785 00       		.uleb128 0
 14254              	.LLST62:
 14255 1786 00000000 		.4byte	.LVL200
 14256 178a 02000000 		.4byte	.LVL201
 14257 178e 0200     		.2byte	0x2
 14258 1790 30       		.byte	0x30
 14259 1791 9F       		.byte	0x9f
 14260 1792 02000000 		.4byte	.LVL201
 14261 1796 08000000 		.4byte	.LVL202
 14262 179a 0100     		.2byte	0x1
 14263 179c 52       		.byte	0x52
 14264 179d 08000000 		.4byte	.LVL202
 14265 17a1 08000000 		.4byte	.LVL202
 14266 17a5 0100     		.2byte	0x1
 14267 17a7 53       		.byte	0x53
 14268 17a8 08000000 		.4byte	.LVL202
 14269 17ac 0A000000 		.4byte	.LVL203
 14270 17b0 0600     		.2byte	0x6
 14271 17b2 71       		.byte	0x71
 14272 17b3 00       		.sleb128 0
 14273 17b4 73       		.byte	0x73
 14274 17b5 00       		.sleb128 0
 14275 17b6 21       		.byte	0x21
 14276 17b7 9F       		.byte	0x9f
 14277 17b8 0A000000 		.4byte	.LVL203
 14278 17bc 0E000000 		.4byte	.LFE153
 14279 17c0 0700     		.2byte	0x7
 14280 17c2 F3       		.byte	0xf3
 14281 17c3 01       		.uleb128 0x1
 14282 17c4 51       		.byte	0x51
 14283 17c5 73       		.byte	0x73
 14284 17c6 00       		.sleb128 0
 14285 17c7 21       		.byte	0x21
 14286 17c8 9F       		.byte	0x9f
 14287 17c9 00000000 		.4byte	0
 14288 17cd 00000000 		.4byte	0
 14289              	.LVUS59:
 14290 17d1 00       		.uleb128 0
 14291 17d2 00       		.uleb128 .LVU832
 14292 17d3 00       		.uleb128 .LVU832
 14293 17d4 00       		.uleb128 0
 14294              	.LLST59:
 14295 17d5 00000000 		.4byte	.LVL196
 14296 17d9 0A000000 		.4byte	.LVL199
 14297 17dd 0100     		.2byte	0x1
 14298 17df 51       		.byte	0x51
 14299 17e0 0A000000 		.4byte	.LVL199
 14300 17e4 10000000 		.4byte	.LFE152
 14301 17e8 0400     		.2byte	0x4
 14302 17ea F3       		.byte	0xf3
 14303 17eb 01       		.uleb128 0x1
 14304 17ec 51       		.byte	0x51
 14305 17ed 9F       		.byte	0x9f
 14306 17ee 00000000 		.4byte	0
 14307 17f2 00000000 		.4byte	0
ARM GAS  C:\Users\USER\AppData\Local\Temp\ccNdlOSb.s 			page 252


 14308              	.LVUS60:
 14309 17f6 02       		.uleb128 .LVU823
 14310 17f7 00       		.uleb128 .LVU827
 14311 17f8 00       		.uleb128 .LVU827
 14312 17f9 01       		.uleb128 .LVU830
 14313 17fa 01       		.uleb128 .LVU830
 14314 17fb 00       		.uleb128 .LVU832
 14315 17fc 00       		.uleb128 .LVU832
 14316 17fd 00       		.uleb128 0
 14317              	.LLST60:
 14318 17fe 00000000 		.4byte	.LVL196
 14319 1802 02000000 		.4byte	.LVL197
 14320 1806 0200     		.2byte	0x2
 14321 1808 30       		.byte	0x30
 14322 1809 9F       		.byte	0x9f
 14323 180a 02000000 		.4byte	.LVL197
 14324 180e 06000000 		.4byte	.LVL198
 14325 1812 0100     		.2byte	0x1
 14326 1814 53       		.byte	0x53
 14327 1815 06000000 		.4byte	.LVL198
 14328 1819 0A000000 		.4byte	.LVL199
 14329 181d 0800     		.2byte	0x8
 14330 181f 71       		.byte	0x71
 14331 1820 00       		.sleb128 0
 14332 1821 38       		.byte	0x38
 14333 1822 24       		.byte	0x24
 14334 1823 73       		.byte	0x73
 14335 1824 00       		.sleb128 0
 14336 1825 21       		.byte	0x21
 14337 1826 9F       		.byte	0x9f
 14338 1827 0A000000 		.4byte	.LVL199
 14339 182b 10000000 		.4byte	.LFE152
 14340 182f 0900     		.2byte	0x9
 14341 1831 F3       		.byte	0xf3
 14342 1832 01       		.uleb128 0x1
 14343 1833 51       		.byte	0x51
 14344 1834 38       		.byte	0x38
 14345 1835 24       		.byte	0x24
 14346 1836 73       		.byte	0x73
 14347 1837 00       		.sleb128 0
 14348 1838 21       		.byte	0x21
 14349 1839 9F       		.byte	0x9f
 14350 183a 00000000 		.4byte	0
 14351 183e 00000000 		.4byte	0
 14352              	.LVUS57:
 14353 1842 00       		.uleb128 0
 14354 1843 00       		.uleb128 .LVU819
 14355 1844 00       		.uleb128 .LVU819
 14356 1845 00       		.uleb128 0
 14357              	.LLST57:
 14358 1846 00000000 		.4byte	.LVL192
 14359 184a 0A000000 		.4byte	.LVL195
 14360 184e 0100     		.2byte	0x1
 14361 1850 51       		.byte	0x51
 14362 1851 0A000000 		.4byte	.LVL195
 14363 1855 0E000000 		.4byte	.LFE151
 14364 1859 0400     		.2byte	0x4
ARM GAS  C:\Users\USER\AppData\Local\Temp\ccNdlOSb.s 			page 253


 14365 185b F3       		.byte	0xf3
 14366 185c 01       		.uleb128 0x1
 14367 185d 51       		.byte	0x51
 14368 185e 9F       		.byte	0x9f
 14369 185f 00000000 		.4byte	0
 14370 1863 00000000 		.4byte	0
 14371              	.LVUS58:
 14372 1867 02       		.uleb128 .LVU810
 14373 1868 00       		.uleb128 .LVU814
 14374 1869 00       		.uleb128 .LVU814
 14375 186a 00       		.uleb128 .LVU816
 14376 186b 00       		.uleb128 .LVU816
 14377 186c 01       		.uleb128 .LVU817
 14378 186d 01       		.uleb128 .LVU817
 14379 186e 00       		.uleb128 .LVU819
 14380 186f 00       		.uleb128 .LVU819
 14381 1870 00       		.uleb128 0
 14382              	.LLST58:
 14383 1871 00000000 		.4byte	.LVL192
 14384 1875 02000000 		.4byte	.LVL193
 14385 1879 0200     		.2byte	0x2
 14386 187b 30       		.byte	0x30
 14387 187c 9F       		.byte	0x9f
 14388 187d 02000000 		.4byte	.LVL193
 14389 1881 08000000 		.4byte	.LVL194
 14390 1885 0100     		.2byte	0x1
 14391 1887 52       		.byte	0x52
 14392 1888 08000000 		.4byte	.LVL194
 14393 188c 08000000 		.4byte	.LVL194
 14394 1890 0100     		.2byte	0x1
 14395 1892 53       		.byte	0x53
 14396 1893 08000000 		.4byte	.LVL194
 14397 1897 0A000000 		.4byte	.LVL195
 14398 189b 0600     		.2byte	0x6
 14399 189d 71       		.byte	0x71
 14400 189e 00       		.sleb128 0
 14401 189f 73       		.byte	0x73
 14402 18a0 00       		.sleb128 0
 14403 18a1 21       		.byte	0x21
 14404 18a2 9F       		.byte	0x9f
 14405 18a3 0A000000 		.4byte	.LVL195
 14406 18a7 0E000000 		.4byte	.LFE151
 14407 18ab 0700     		.2byte	0x7
 14408 18ad F3       		.byte	0xf3
 14409 18ae 01       		.uleb128 0x1
 14410 18af 51       		.byte	0x51
 14411 18b0 73       		.byte	0x73
 14412 18b1 00       		.sleb128 0
 14413 18b2 21       		.byte	0x21
 14414 18b3 9F       		.byte	0x9f
 14415 18b4 00000000 		.4byte	0
 14416 18b8 00000000 		.4byte	0
 14417              	.LVUS55:
 14418 18bc 00       		.uleb128 0
 14419 18bd 00       		.uleb128 .LVU806
 14420 18be 00       		.uleb128 .LVU806
 14421 18bf 00       		.uleb128 0
ARM GAS  C:\Users\USER\AppData\Local\Temp\ccNdlOSb.s 			page 254


 14422              	.LLST55:
 14423 18c0 00000000 		.4byte	.LVL188
 14424 18c4 0A000000 		.4byte	.LVL191
 14425 18c8 0100     		.2byte	0x1
 14426 18ca 51       		.byte	0x51
 14427 18cb 0A000000 		.4byte	.LVL191
 14428 18cf 10000000 		.4byte	.LFE150
 14429 18d3 0400     		.2byte	0x4
 14430 18d5 F3       		.byte	0xf3
 14431 18d6 01       		.uleb128 0x1
 14432 18d7 51       		.byte	0x51
 14433 18d8 9F       		.byte	0x9f
 14434 18d9 00000000 		.4byte	0
 14435 18dd 00000000 		.4byte	0
 14436              	.LVUS56:
 14437 18e1 02       		.uleb128 .LVU797
 14438 18e2 00       		.uleb128 .LVU801
 14439 18e3 00       		.uleb128 .LVU801
 14440 18e4 01       		.uleb128 .LVU804
 14441 18e5 01       		.uleb128 .LVU804
 14442 18e6 00       		.uleb128 .LVU806
 14443 18e7 00       		.uleb128 .LVU806
 14444 18e8 00       		.uleb128 0
 14445              	.LLST56:
 14446 18e9 00000000 		.4byte	.LVL188
 14447 18ed 02000000 		.4byte	.LVL189
 14448 18f1 0200     		.2byte	0x2
 14449 18f3 30       		.byte	0x30
 14450 18f4 9F       		.byte	0x9f
 14451 18f5 02000000 		.4byte	.LVL189
 14452 18f9 06000000 		.4byte	.LVL190
 14453 18fd 0100     		.2byte	0x1
 14454 18ff 53       		.byte	0x53
 14455 1900 06000000 		.4byte	.LVL190
 14456 1904 0A000000 		.4byte	.LVL191
 14457 1908 0800     		.2byte	0x8
 14458 190a 71       		.byte	0x71
 14459 190b 00       		.sleb128 0
 14460 190c 38       		.byte	0x38
 14461 190d 24       		.byte	0x24
 14462 190e 73       		.byte	0x73
 14463 190f 00       		.sleb128 0
 14464 1910 21       		.byte	0x21
 14465 1911 9F       		.byte	0x9f
 14466 1912 0A000000 		.4byte	.LVL191
 14467 1916 10000000 		.4byte	.LFE150
 14468 191a 0900     		.2byte	0x9
 14469 191c F3       		.byte	0xf3
 14470 191d 01       		.uleb128 0x1
 14471 191e 51       		.byte	0x51
 14472 191f 38       		.byte	0x38
 14473 1920 24       		.byte	0x24
 14474 1921 73       		.byte	0x73
 14475 1922 00       		.sleb128 0
 14476 1923 21       		.byte	0x21
 14477 1924 9F       		.byte	0x9f
 14478 1925 00000000 		.4byte	0
ARM GAS  C:\Users\USER\AppData\Local\Temp\ccNdlOSb.s 			page 255


 14479 1929 00000000 		.4byte	0
 14480              	.LVUS53:
 14481 192d 00       		.uleb128 0
 14482 192e 00       		.uleb128 .LVU793
 14483 192f 00       		.uleb128 .LVU793
 14484 1930 00       		.uleb128 0
 14485              	.LLST53:
 14486 1931 00000000 		.4byte	.LVL184
 14487 1935 0A000000 		.4byte	.LVL187
 14488 1939 0100     		.2byte	0x1
 14489 193b 51       		.byte	0x51
 14490 193c 0A000000 		.4byte	.LVL187
 14491 1940 0E000000 		.4byte	.LFE149
 14492 1944 0400     		.2byte	0x4
 14493 1946 F3       		.byte	0xf3
 14494 1947 01       		.uleb128 0x1
 14495 1948 51       		.byte	0x51
 14496 1949 9F       		.byte	0x9f
 14497 194a 00000000 		.4byte	0
 14498 194e 00000000 		.4byte	0
 14499              	.LVUS54:
 14500 1952 02       		.uleb128 .LVU784
 14501 1953 00       		.uleb128 .LVU788
 14502 1954 00       		.uleb128 .LVU788
 14503 1955 00       		.uleb128 .LVU790
 14504 1956 00       		.uleb128 .LVU790
 14505 1957 01       		.uleb128 .LVU791
 14506 1958 01       		.uleb128 .LVU791
 14507 1959 00       		.uleb128 .LVU793
 14508 195a 00       		.uleb128 .LVU793
 14509 195b 00       		.uleb128 0
 14510              	.LLST54:
 14511 195c 00000000 		.4byte	.LVL184
 14512 1960 02000000 		.4byte	.LVL185
 14513 1964 0200     		.2byte	0x2
 14514 1966 30       		.byte	0x30
 14515 1967 9F       		.byte	0x9f
 14516 1968 02000000 		.4byte	.LVL185
 14517 196c 08000000 		.4byte	.LVL186
 14518 1970 0100     		.2byte	0x1
 14519 1972 52       		.byte	0x52
 14520 1973 08000000 		.4byte	.LVL186
 14521 1977 08000000 		.4byte	.LVL186
 14522 197b 0100     		.2byte	0x1
 14523 197d 53       		.byte	0x53
 14524 197e 08000000 		.4byte	.LVL186
 14525 1982 0A000000 		.4byte	.LVL187
 14526 1986 0600     		.2byte	0x6
 14527 1988 71       		.byte	0x71
 14528 1989 00       		.sleb128 0
 14529 198a 73       		.byte	0x73
 14530 198b 00       		.sleb128 0
 14531 198c 21       		.byte	0x21
 14532 198d 9F       		.byte	0x9f
 14533 198e 0A000000 		.4byte	.LVL187
 14534 1992 0E000000 		.4byte	.LFE149
 14535 1996 0700     		.2byte	0x7
ARM GAS  C:\Users\USER\AppData\Local\Temp\ccNdlOSb.s 			page 256


 14536 1998 F3       		.byte	0xf3
 14537 1999 01       		.uleb128 0x1
 14538 199a 51       		.byte	0x51
 14539 199b 73       		.byte	0x73
 14540 199c 00       		.sleb128 0
 14541 199d 21       		.byte	0x21
 14542 199e 9F       		.byte	0x9f
 14543 199f 00000000 		.4byte	0
 14544 19a3 00000000 		.4byte	0
 14545              	.LVUS51:
 14546 19a7 00       		.uleb128 0
 14547 19a8 00       		.uleb128 .LVU780
 14548 19a9 00       		.uleb128 .LVU780
 14549 19aa 00       		.uleb128 0
 14550              	.LLST51:
 14551 19ab 00000000 		.4byte	.LVL180
 14552 19af 0C000000 		.4byte	.LVL183
 14553 19b3 0100     		.2byte	0x1
 14554 19b5 51       		.byte	0x51
 14555 19b6 0C000000 		.4byte	.LVL183
 14556 19ba 12000000 		.4byte	.LFE148
 14557 19be 0400     		.2byte	0x4
 14558 19c0 F3       		.byte	0xf3
 14559 19c1 01       		.uleb128 0x1
 14560 19c2 51       		.byte	0x51
 14561 19c3 9F       		.byte	0x9f
 14562 19c4 00000000 		.4byte	0
 14563 19c8 00000000 		.4byte	0
 14564              	.LVUS52:
 14565 19cc 02       		.uleb128 .LVU771
 14566 19cd 00       		.uleb128 .LVU775
 14567 19ce 00       		.uleb128 .LVU775
 14568 19cf 00       		.uleb128 .LVU777
 14569 19d0 00       		.uleb128 .LVU777
 14570 19d1 01       		.uleb128 .LVU778
 14571 19d2 01       		.uleb128 .LVU778
 14572 19d3 00       		.uleb128 .LVU780
 14573 19d4 00       		.uleb128 .LVU780
 14574 19d5 00       		.uleb128 0
 14575              	.LLST52:
 14576 19d6 00000000 		.4byte	.LVL180
 14577 19da 02000000 		.4byte	.LVL181
 14578 19de 0200     		.2byte	0x2
 14579 19e0 30       		.byte	0x30
 14580 19e1 9F       		.byte	0x9f
 14581 19e2 02000000 		.4byte	.LVL181
 14582 19e6 08000000 		.4byte	.LVL182
 14583 19ea 0100     		.2byte	0x1
 14584 19ec 52       		.byte	0x52
 14585 19ed 08000000 		.4byte	.LVL182
 14586 19f1 08000000 		.4byte	.LVL182
 14587 19f5 0100     		.2byte	0x1
 14588 19f7 53       		.byte	0x53
 14589 19f8 08000000 		.4byte	.LVL182
 14590 19fc 0C000000 		.4byte	.LVL183
 14591 1a00 0800     		.2byte	0x8
 14592 1a02 71       		.byte	0x71
ARM GAS  C:\Users\USER\AppData\Local\Temp\ccNdlOSb.s 			page 257


 14593 1a03 00       		.sleb128 0
 14594 1a04 38       		.byte	0x38
 14595 1a05 24       		.byte	0x24
 14596 1a06 73       		.byte	0x73
 14597 1a07 00       		.sleb128 0
 14598 1a08 21       		.byte	0x21
 14599 1a09 9F       		.byte	0x9f
 14600 1a0a 0C000000 		.4byte	.LVL183
 14601 1a0e 12000000 		.4byte	.LFE148
 14602 1a12 0900     		.2byte	0x9
 14603 1a14 F3       		.byte	0xf3
 14604 1a15 01       		.uleb128 0x1
 14605 1a16 51       		.byte	0x51
 14606 1a17 38       		.byte	0x38
 14607 1a18 24       		.byte	0x24
 14608 1a19 73       		.byte	0x73
 14609 1a1a 00       		.sleb128 0
 14610 1a1b 21       		.byte	0x21
 14611 1a1c 9F       		.byte	0x9f
 14612 1a1d 00000000 		.4byte	0
 14613 1a21 00000000 		.4byte	0
 14614              	.LVUS49:
 14615 1a25 00       		.uleb128 0
 14616 1a26 00       		.uleb128 .LVU767
 14617 1a27 00       		.uleb128 .LVU767
 14618 1a28 00       		.uleb128 0
 14619              	.LLST49:
 14620 1a29 00000000 		.4byte	.LVL176
 14621 1a2d 0A000000 		.4byte	.LVL179
 14622 1a31 0100     		.2byte	0x1
 14623 1a33 51       		.byte	0x51
 14624 1a34 0A000000 		.4byte	.LVL179
 14625 1a38 0E000000 		.4byte	.LFE147
 14626 1a3c 0400     		.2byte	0x4
 14627 1a3e F3       		.byte	0xf3
 14628 1a3f 01       		.uleb128 0x1
 14629 1a40 51       		.byte	0x51
 14630 1a41 9F       		.byte	0x9f
 14631 1a42 00000000 		.4byte	0
 14632 1a46 00000000 		.4byte	0
 14633              	.LVUS50:
 14634 1a4a 02       		.uleb128 .LVU758
 14635 1a4b 00       		.uleb128 .LVU762
 14636 1a4c 00       		.uleb128 .LVU762
 14637 1a4d 00       		.uleb128 .LVU764
 14638 1a4e 00       		.uleb128 .LVU764
 14639 1a4f 01       		.uleb128 .LVU765
 14640 1a50 01       		.uleb128 .LVU765
 14641 1a51 00       		.uleb128 .LVU767
 14642 1a52 00       		.uleb128 .LVU767
 14643 1a53 00       		.uleb128 0
 14644              	.LLST50:
 14645 1a54 00000000 		.4byte	.LVL176
 14646 1a58 02000000 		.4byte	.LVL177
 14647 1a5c 0200     		.2byte	0x2
 14648 1a5e 30       		.byte	0x30
 14649 1a5f 9F       		.byte	0x9f
ARM GAS  C:\Users\USER\AppData\Local\Temp\ccNdlOSb.s 			page 258


 14650 1a60 02000000 		.4byte	.LVL177
 14651 1a64 08000000 		.4byte	.LVL178
 14652 1a68 0100     		.2byte	0x1
 14653 1a6a 52       		.byte	0x52
 14654 1a6b 08000000 		.4byte	.LVL178
 14655 1a6f 08000000 		.4byte	.LVL178
 14656 1a73 0100     		.2byte	0x1
 14657 1a75 53       		.byte	0x53
 14658 1a76 08000000 		.4byte	.LVL178
 14659 1a7a 0A000000 		.4byte	.LVL179
 14660 1a7e 0600     		.2byte	0x6
 14661 1a80 71       		.byte	0x71
 14662 1a81 00       		.sleb128 0
 14663 1a82 73       		.byte	0x73
 14664 1a83 00       		.sleb128 0
 14665 1a84 21       		.byte	0x21
 14666 1a85 9F       		.byte	0x9f
 14667 1a86 0A000000 		.4byte	.LVL179
 14668 1a8a 0E000000 		.4byte	.LFE147
 14669 1a8e 0700     		.2byte	0x7
 14670 1a90 F3       		.byte	0xf3
 14671 1a91 01       		.uleb128 0x1
 14672 1a92 51       		.byte	0x51
 14673 1a93 73       		.byte	0x73
 14674 1a94 00       		.sleb128 0
 14675 1a95 21       		.byte	0x21
 14676 1a96 9F       		.byte	0x9f
 14677 1a97 00000000 		.4byte	0
 14678 1a9b 00000000 		.4byte	0
 14679              	.LVUS47:
 14680 1a9f 00       		.uleb128 0
 14681 1aa0 00       		.uleb128 .LVU754
 14682 1aa1 00       		.uleb128 .LVU754
 14683 1aa2 00       		.uleb128 0
 14684              	.LLST47:
 14685 1aa3 00000000 		.4byte	.LVL172
 14686 1aa7 0C000000 		.4byte	.LVL175
 14687 1aab 0100     		.2byte	0x1
 14688 1aad 51       		.byte	0x51
 14689 1aae 0C000000 		.4byte	.LVL175
 14690 1ab2 12000000 		.4byte	.LFE146
 14691 1ab6 0400     		.2byte	0x4
 14692 1ab8 F3       		.byte	0xf3
 14693 1ab9 01       		.uleb128 0x1
 14694 1aba 51       		.byte	0x51
 14695 1abb 9F       		.byte	0x9f
 14696 1abc 00000000 		.4byte	0
 14697 1ac0 00000000 		.4byte	0
 14698              	.LVUS48:
 14699 1ac4 02       		.uleb128 .LVU745
 14700 1ac5 00       		.uleb128 .LVU749
 14701 1ac6 00       		.uleb128 .LVU749
 14702 1ac7 00       		.uleb128 .LVU751
 14703 1ac8 00       		.uleb128 .LVU751
 14704 1ac9 01       		.uleb128 .LVU752
 14705 1aca 01       		.uleb128 .LVU752
 14706 1acb 00       		.uleb128 .LVU754
ARM GAS  C:\Users\USER\AppData\Local\Temp\ccNdlOSb.s 			page 259


 14707 1acc 00       		.uleb128 .LVU754
 14708 1acd 00       		.uleb128 0
 14709              	.LLST48:
 14710 1ace 00000000 		.4byte	.LVL172
 14711 1ad2 02000000 		.4byte	.LVL173
 14712 1ad6 0200     		.2byte	0x2
 14713 1ad8 30       		.byte	0x30
 14714 1ad9 9F       		.byte	0x9f
 14715 1ada 02000000 		.4byte	.LVL173
 14716 1ade 08000000 		.4byte	.LVL174
 14717 1ae2 0100     		.2byte	0x1
 14718 1ae4 52       		.byte	0x52
 14719 1ae5 08000000 		.4byte	.LVL174
 14720 1ae9 08000000 		.4byte	.LVL174
 14721 1aed 0100     		.2byte	0x1
 14722 1aef 53       		.byte	0x53
 14723 1af0 08000000 		.4byte	.LVL174
 14724 1af4 0C000000 		.4byte	.LVL175
 14725 1af8 0800     		.2byte	0x8
 14726 1afa 71       		.byte	0x71
 14727 1afb 00       		.sleb128 0
 14728 1afc 38       		.byte	0x38
 14729 1afd 24       		.byte	0x24
 14730 1afe 73       		.byte	0x73
 14731 1aff 00       		.sleb128 0
 14732 1b00 21       		.byte	0x21
 14733 1b01 9F       		.byte	0x9f
 14734 1b02 0C000000 		.4byte	.LVL175
 14735 1b06 12000000 		.4byte	.LFE146
 14736 1b0a 0900     		.2byte	0x9
 14737 1b0c F3       		.byte	0xf3
 14738 1b0d 01       		.uleb128 0x1
 14739 1b0e 51       		.byte	0x51
 14740 1b0f 38       		.byte	0x38
 14741 1b10 24       		.byte	0x24
 14742 1b11 73       		.byte	0x73
 14743 1b12 00       		.sleb128 0
 14744 1b13 21       		.byte	0x21
 14745 1b14 9F       		.byte	0x9f
 14746 1b15 00000000 		.4byte	0
 14747 1b19 00000000 		.4byte	0
 14748              	.LVUS45:
 14749 1b1d 00       		.uleb128 0
 14750 1b1e 00       		.uleb128 .LVU741
 14751 1b1f 00       		.uleb128 .LVU741
 14752 1b20 00       		.uleb128 0
 14753              	.LLST45:
 14754 1b21 00000000 		.4byte	.LVL168
 14755 1b25 0A000000 		.4byte	.LVL171
 14756 1b29 0100     		.2byte	0x1
 14757 1b2b 51       		.byte	0x51
 14758 1b2c 0A000000 		.4byte	.LVL171
 14759 1b30 0E000000 		.4byte	.LFE145
 14760 1b34 0400     		.2byte	0x4
 14761 1b36 F3       		.byte	0xf3
 14762 1b37 01       		.uleb128 0x1
 14763 1b38 51       		.byte	0x51
ARM GAS  C:\Users\USER\AppData\Local\Temp\ccNdlOSb.s 			page 260


 14764 1b39 9F       		.byte	0x9f
 14765 1b3a 00000000 		.4byte	0
 14766 1b3e 00000000 		.4byte	0
 14767              	.LVUS46:
 14768 1b42 02       		.uleb128 .LVU732
 14769 1b43 00       		.uleb128 .LVU736
 14770 1b44 00       		.uleb128 .LVU736
 14771 1b45 00       		.uleb128 .LVU738
 14772 1b46 00       		.uleb128 .LVU738
 14773 1b47 01       		.uleb128 .LVU739
 14774 1b48 01       		.uleb128 .LVU739
 14775 1b49 00       		.uleb128 .LVU741
 14776 1b4a 00       		.uleb128 .LVU741
 14777 1b4b 00       		.uleb128 0
 14778              	.LLST46:
 14779 1b4c 00000000 		.4byte	.LVL168
 14780 1b50 02000000 		.4byte	.LVL169
 14781 1b54 0200     		.2byte	0x2
 14782 1b56 30       		.byte	0x30
 14783 1b57 9F       		.byte	0x9f
 14784 1b58 02000000 		.4byte	.LVL169
 14785 1b5c 08000000 		.4byte	.LVL170
 14786 1b60 0100     		.2byte	0x1
 14787 1b62 52       		.byte	0x52
 14788 1b63 08000000 		.4byte	.LVL170
 14789 1b67 08000000 		.4byte	.LVL170
 14790 1b6b 0100     		.2byte	0x1
 14791 1b6d 53       		.byte	0x53
 14792 1b6e 08000000 		.4byte	.LVL170
 14793 1b72 0A000000 		.4byte	.LVL171
 14794 1b76 0600     		.2byte	0x6
 14795 1b78 71       		.byte	0x71
 14796 1b79 00       		.sleb128 0
 14797 1b7a 73       		.byte	0x73
 14798 1b7b 00       		.sleb128 0
 14799 1b7c 21       		.byte	0x21
 14800 1b7d 9F       		.byte	0x9f
 14801 1b7e 0A000000 		.4byte	.LVL171
 14802 1b82 0E000000 		.4byte	.LFE145
 14803 1b86 0700     		.2byte	0x7
 14804 1b88 F3       		.byte	0xf3
 14805 1b89 01       		.uleb128 0x1
 14806 1b8a 51       		.byte	0x51
 14807 1b8b 73       		.byte	0x73
 14808 1b8c 00       		.sleb128 0
 14809 1b8d 21       		.byte	0x21
 14810 1b8e 9F       		.byte	0x9f
 14811 1b8f 00000000 		.4byte	0
 14812 1b93 00000000 		.4byte	0
 14813              	.LVUS43:
 14814 1b97 00       		.uleb128 0
 14815 1b98 00       		.uleb128 .LVU728
 14816 1b99 00       		.uleb128 .LVU728
 14817 1b9a 00       		.uleb128 0
 14818              	.LLST43:
 14819 1b9b 00000000 		.4byte	.LVL164
 14820 1b9f 0C000000 		.4byte	.LVL167
ARM GAS  C:\Users\USER\AppData\Local\Temp\ccNdlOSb.s 			page 261


 14821 1ba3 0100     		.2byte	0x1
 14822 1ba5 51       		.byte	0x51
 14823 1ba6 0C000000 		.4byte	.LVL167
 14824 1baa 12000000 		.4byte	.LFE144
 14825 1bae 0400     		.2byte	0x4
 14826 1bb0 F3       		.byte	0xf3
 14827 1bb1 01       		.uleb128 0x1
 14828 1bb2 51       		.byte	0x51
 14829 1bb3 9F       		.byte	0x9f
 14830 1bb4 00000000 		.4byte	0
 14831 1bb8 00000000 		.4byte	0
 14832              	.LVUS44:
 14833 1bbc 02       		.uleb128 .LVU719
 14834 1bbd 00       		.uleb128 .LVU723
 14835 1bbe 00       		.uleb128 .LVU723
 14836 1bbf 00       		.uleb128 .LVU725
 14837 1bc0 00       		.uleb128 .LVU725
 14838 1bc1 01       		.uleb128 .LVU726
 14839 1bc2 01       		.uleb128 .LVU726
 14840 1bc3 00       		.uleb128 .LVU728
 14841 1bc4 00       		.uleb128 .LVU728
 14842 1bc5 00       		.uleb128 0
 14843              	.LLST44:
 14844 1bc6 00000000 		.4byte	.LVL164
 14845 1bca 02000000 		.4byte	.LVL165
 14846 1bce 0200     		.2byte	0x2
 14847 1bd0 30       		.byte	0x30
 14848 1bd1 9F       		.byte	0x9f
 14849 1bd2 02000000 		.4byte	.LVL165
 14850 1bd6 08000000 		.4byte	.LVL166
 14851 1bda 0100     		.2byte	0x1
 14852 1bdc 52       		.byte	0x52
 14853 1bdd 08000000 		.4byte	.LVL166
 14854 1be1 08000000 		.4byte	.LVL166
 14855 1be5 0100     		.2byte	0x1
 14856 1be7 53       		.byte	0x53
 14857 1be8 08000000 		.4byte	.LVL166
 14858 1bec 0C000000 		.4byte	.LVL167
 14859 1bf0 0800     		.2byte	0x8
 14860 1bf2 71       		.byte	0x71
 14861 1bf3 00       		.sleb128 0
 14862 1bf4 38       		.byte	0x38
 14863 1bf5 24       		.byte	0x24
 14864 1bf6 73       		.byte	0x73
 14865 1bf7 00       		.sleb128 0
 14866 1bf8 21       		.byte	0x21
 14867 1bf9 9F       		.byte	0x9f
 14868 1bfa 0C000000 		.4byte	.LVL167
 14869 1bfe 12000000 		.4byte	.LFE144
 14870 1c02 0900     		.2byte	0x9
 14871 1c04 F3       		.byte	0xf3
 14872 1c05 01       		.uleb128 0x1
 14873 1c06 51       		.byte	0x51
 14874 1c07 38       		.byte	0x38
 14875 1c08 24       		.byte	0x24
 14876 1c09 73       		.byte	0x73
 14877 1c0a 00       		.sleb128 0
ARM GAS  C:\Users\USER\AppData\Local\Temp\ccNdlOSb.s 			page 262


 14878 1c0b 21       		.byte	0x21
 14879 1c0c 9F       		.byte	0x9f
 14880 1c0d 00000000 		.4byte	0
 14881 1c11 00000000 		.4byte	0
 14882              	.LVUS41:
 14883 1c15 00       		.uleb128 0
 14884 1c16 00       		.uleb128 .LVU715
 14885 1c17 00       		.uleb128 .LVU715
 14886 1c18 00       		.uleb128 0
 14887              	.LLST41:
 14888 1c19 00000000 		.4byte	.LVL160
 14889 1c1d 0A000000 		.4byte	.LVL163
 14890 1c21 0100     		.2byte	0x1
 14891 1c23 51       		.byte	0x51
 14892 1c24 0A000000 		.4byte	.LVL163
 14893 1c28 0E000000 		.4byte	.LFE143
 14894 1c2c 0400     		.2byte	0x4
 14895 1c2e F3       		.byte	0xf3
 14896 1c2f 01       		.uleb128 0x1
 14897 1c30 51       		.byte	0x51
 14898 1c31 9F       		.byte	0x9f
 14899 1c32 00000000 		.4byte	0
 14900 1c36 00000000 		.4byte	0
 14901              	.LVUS42:
 14902 1c3a 02       		.uleb128 .LVU706
 14903 1c3b 00       		.uleb128 .LVU710
 14904 1c3c 00       		.uleb128 .LVU710
 14905 1c3d 00       		.uleb128 .LVU712
 14906 1c3e 00       		.uleb128 .LVU712
 14907 1c3f 01       		.uleb128 .LVU713
 14908 1c40 01       		.uleb128 .LVU713
 14909 1c41 00       		.uleb128 .LVU715
 14910 1c42 00       		.uleb128 .LVU715
 14911 1c43 00       		.uleb128 0
 14912              	.LLST42:
 14913 1c44 00000000 		.4byte	.LVL160
 14914 1c48 02000000 		.4byte	.LVL161
 14915 1c4c 0200     		.2byte	0x2
 14916 1c4e 30       		.byte	0x30
 14917 1c4f 9F       		.byte	0x9f
 14918 1c50 02000000 		.4byte	.LVL161
 14919 1c54 08000000 		.4byte	.LVL162
 14920 1c58 0100     		.2byte	0x1
 14921 1c5a 52       		.byte	0x52
 14922 1c5b 08000000 		.4byte	.LVL162
 14923 1c5f 08000000 		.4byte	.LVL162
 14924 1c63 0100     		.2byte	0x1
 14925 1c65 53       		.byte	0x53
 14926 1c66 08000000 		.4byte	.LVL162
 14927 1c6a 0A000000 		.4byte	.LVL163
 14928 1c6e 0600     		.2byte	0x6
 14929 1c70 71       		.byte	0x71
 14930 1c71 00       		.sleb128 0
 14931 1c72 73       		.byte	0x73
 14932 1c73 00       		.sleb128 0
 14933 1c74 21       		.byte	0x21
 14934 1c75 9F       		.byte	0x9f
ARM GAS  C:\Users\USER\AppData\Local\Temp\ccNdlOSb.s 			page 263


 14935 1c76 0A000000 		.4byte	.LVL163
 14936 1c7a 0E000000 		.4byte	.LFE143
 14937 1c7e 0700     		.2byte	0x7
 14938 1c80 F3       		.byte	0xf3
 14939 1c81 01       		.uleb128 0x1
 14940 1c82 51       		.byte	0x51
 14941 1c83 73       		.byte	0x73
 14942 1c84 00       		.sleb128 0
 14943 1c85 21       		.byte	0x21
 14944 1c86 9F       		.byte	0x9f
 14945 1c87 00000000 		.4byte	0
 14946 1c8b 00000000 		.4byte	0
 14947              	.LVUS39:
 14948 1c8f 00       		.uleb128 0
 14949 1c90 00       		.uleb128 .LVU702
 14950 1c91 00       		.uleb128 .LVU702
 14951 1c92 00       		.uleb128 0
 14952              	.LLST39:
 14953 1c93 00000000 		.4byte	.LVL156
 14954 1c97 0C000000 		.4byte	.LVL159
 14955 1c9b 0100     		.2byte	0x1
 14956 1c9d 51       		.byte	0x51
 14957 1c9e 0C000000 		.4byte	.LVL159
 14958 1ca2 12000000 		.4byte	.LFE142
 14959 1ca6 0400     		.2byte	0x4
 14960 1ca8 F3       		.byte	0xf3
 14961 1ca9 01       		.uleb128 0x1
 14962 1caa 51       		.byte	0x51
 14963 1cab 9F       		.byte	0x9f
 14964 1cac 00000000 		.4byte	0
 14965 1cb0 00000000 		.4byte	0
 14966              	.LVUS40:
 14967 1cb4 02       		.uleb128 .LVU693
 14968 1cb5 00       		.uleb128 .LVU697
 14969 1cb6 00       		.uleb128 .LVU697
 14970 1cb7 00       		.uleb128 .LVU699
 14971 1cb8 00       		.uleb128 .LVU699
 14972 1cb9 01       		.uleb128 .LVU700
 14973 1cba 01       		.uleb128 .LVU700
 14974 1cbb 00       		.uleb128 .LVU702
 14975 1cbc 00       		.uleb128 .LVU702
 14976 1cbd 00       		.uleb128 0
 14977              	.LLST40:
 14978 1cbe 00000000 		.4byte	.LVL156
 14979 1cc2 02000000 		.4byte	.LVL157
 14980 1cc6 0200     		.2byte	0x2
 14981 1cc8 30       		.byte	0x30
 14982 1cc9 9F       		.byte	0x9f
 14983 1cca 02000000 		.4byte	.LVL157
 14984 1cce 08000000 		.4byte	.LVL158
 14985 1cd2 0100     		.2byte	0x1
 14986 1cd4 52       		.byte	0x52
 14987 1cd5 08000000 		.4byte	.LVL158
 14988 1cd9 08000000 		.4byte	.LVL158
 14989 1cdd 0100     		.2byte	0x1
 14990 1cdf 53       		.byte	0x53
 14991 1ce0 08000000 		.4byte	.LVL158
ARM GAS  C:\Users\USER\AppData\Local\Temp\ccNdlOSb.s 			page 264


 14992 1ce4 0C000000 		.4byte	.LVL159
 14993 1ce8 0800     		.2byte	0x8
 14994 1cea 71       		.byte	0x71
 14995 1ceb 00       		.sleb128 0
 14996 1cec 38       		.byte	0x38
 14997 1ced 24       		.byte	0x24
 14998 1cee 73       		.byte	0x73
 14999 1cef 00       		.sleb128 0
 15000 1cf0 21       		.byte	0x21
 15001 1cf1 9F       		.byte	0x9f
 15002 1cf2 0C000000 		.4byte	.LVL159
 15003 1cf6 12000000 		.4byte	.LFE142
 15004 1cfa 0900     		.2byte	0x9
 15005 1cfc F3       		.byte	0xf3
 15006 1cfd 01       		.uleb128 0x1
 15007 1cfe 51       		.byte	0x51
 15008 1cff 38       		.byte	0x38
 15009 1d00 24       		.byte	0x24
 15010 1d01 73       		.byte	0x73
 15011 1d02 00       		.sleb128 0
 15012 1d03 21       		.byte	0x21
 15013 1d04 9F       		.byte	0x9f
 15014 1d05 00000000 		.4byte	0
 15015 1d09 00000000 		.4byte	0
 15016              	.LVUS37:
 15017 1d0d 00       		.uleb128 0
 15018 1d0e 00       		.uleb128 .LVU689
 15019 1d0f 00       		.uleb128 .LVU689
 15020 1d10 00       		.uleb128 0
 15021              	.LLST37:
 15022 1d11 00000000 		.4byte	.LVL152
 15023 1d15 0A000000 		.4byte	.LVL155
 15024 1d19 0100     		.2byte	0x1
 15025 1d1b 51       		.byte	0x51
 15026 1d1c 0A000000 		.4byte	.LVL155
 15027 1d20 0E000000 		.4byte	.LFE141
 15028 1d24 0400     		.2byte	0x4
 15029 1d26 F3       		.byte	0xf3
 15030 1d27 01       		.uleb128 0x1
 15031 1d28 51       		.byte	0x51
 15032 1d29 9F       		.byte	0x9f
 15033 1d2a 00000000 		.4byte	0
 15034 1d2e 00000000 		.4byte	0
 15035              	.LVUS38:
 15036 1d32 02       		.uleb128 .LVU680
 15037 1d33 00       		.uleb128 .LVU684
 15038 1d34 00       		.uleb128 .LVU684
 15039 1d35 00       		.uleb128 .LVU686
 15040 1d36 00       		.uleb128 .LVU686
 15041 1d37 01       		.uleb128 .LVU687
 15042 1d38 01       		.uleb128 .LVU687
 15043 1d39 00       		.uleb128 .LVU689
 15044 1d3a 00       		.uleb128 .LVU689
 15045 1d3b 00       		.uleb128 0
 15046              	.LLST38:
 15047 1d3c 00000000 		.4byte	.LVL152
 15048 1d40 02000000 		.4byte	.LVL153
ARM GAS  C:\Users\USER\AppData\Local\Temp\ccNdlOSb.s 			page 265


 15049 1d44 0200     		.2byte	0x2
 15050 1d46 30       		.byte	0x30
 15051 1d47 9F       		.byte	0x9f
 15052 1d48 02000000 		.4byte	.LVL153
 15053 1d4c 08000000 		.4byte	.LVL154
 15054 1d50 0100     		.2byte	0x1
 15055 1d52 52       		.byte	0x52
 15056 1d53 08000000 		.4byte	.LVL154
 15057 1d57 08000000 		.4byte	.LVL154
 15058 1d5b 0100     		.2byte	0x1
 15059 1d5d 53       		.byte	0x53
 15060 1d5e 08000000 		.4byte	.LVL154
 15061 1d62 0A000000 		.4byte	.LVL155
 15062 1d66 0600     		.2byte	0x6
 15063 1d68 71       		.byte	0x71
 15064 1d69 00       		.sleb128 0
 15065 1d6a 73       		.byte	0x73
 15066 1d6b 00       		.sleb128 0
 15067 1d6c 21       		.byte	0x21
 15068 1d6d 9F       		.byte	0x9f
 15069 1d6e 0A000000 		.4byte	.LVL155
 15070 1d72 0E000000 		.4byte	.LFE141
 15071 1d76 0700     		.2byte	0x7
 15072 1d78 F3       		.byte	0xf3
 15073 1d79 01       		.uleb128 0x1
 15074 1d7a 51       		.byte	0x51
 15075 1d7b 73       		.byte	0x73
 15076 1d7c 00       		.sleb128 0
 15077 1d7d 21       		.byte	0x21
 15078 1d7e 9F       		.byte	0x9f
 15079 1d7f 00000000 		.4byte	0
 15080 1d83 00000000 		.4byte	0
 15081              	.LVUS35:
 15082 1d87 00       		.uleb128 0
 15083 1d88 00       		.uleb128 .LVU676
 15084 1d89 00       		.uleb128 .LVU676
 15085 1d8a 00       		.uleb128 0
 15086              	.LLST35:
 15087 1d8b 00000000 		.4byte	.LVL148
 15088 1d8f 0C000000 		.4byte	.LVL151
 15089 1d93 0100     		.2byte	0x1
 15090 1d95 51       		.byte	0x51
 15091 1d96 0C000000 		.4byte	.LVL151
 15092 1d9a 12000000 		.4byte	.LFE140
 15093 1d9e 0400     		.2byte	0x4
 15094 1da0 F3       		.byte	0xf3
 15095 1da1 01       		.uleb128 0x1
 15096 1da2 51       		.byte	0x51
 15097 1da3 9F       		.byte	0x9f
 15098 1da4 00000000 		.4byte	0
 15099 1da8 00000000 		.4byte	0
 15100              	.LVUS36:
 15101 1dac 02       		.uleb128 .LVU667
 15102 1dad 00       		.uleb128 .LVU671
 15103 1dae 00       		.uleb128 .LVU671
 15104 1daf 00       		.uleb128 .LVU673
 15105 1db0 00       		.uleb128 .LVU673
ARM GAS  C:\Users\USER\AppData\Local\Temp\ccNdlOSb.s 			page 266


 15106 1db1 01       		.uleb128 .LVU674
 15107 1db2 01       		.uleb128 .LVU674
 15108 1db3 00       		.uleb128 .LVU676
 15109 1db4 00       		.uleb128 .LVU676
 15110 1db5 00       		.uleb128 0
 15111              	.LLST36:
 15112 1db6 00000000 		.4byte	.LVL148
 15113 1dba 02000000 		.4byte	.LVL149
 15114 1dbe 0200     		.2byte	0x2
 15115 1dc0 30       		.byte	0x30
 15116 1dc1 9F       		.byte	0x9f
 15117 1dc2 02000000 		.4byte	.LVL149
 15118 1dc6 08000000 		.4byte	.LVL150
 15119 1dca 0100     		.2byte	0x1
 15120 1dcc 52       		.byte	0x52
 15121 1dcd 08000000 		.4byte	.LVL150
 15122 1dd1 08000000 		.4byte	.LVL150
 15123 1dd5 0100     		.2byte	0x1
 15124 1dd7 53       		.byte	0x53
 15125 1dd8 08000000 		.4byte	.LVL150
 15126 1ddc 0C000000 		.4byte	.LVL151
 15127 1de0 0800     		.2byte	0x8
 15128 1de2 71       		.byte	0x71
 15129 1de3 00       		.sleb128 0
 15130 1de4 38       		.byte	0x38
 15131 1de5 24       		.byte	0x24
 15132 1de6 73       		.byte	0x73
 15133 1de7 00       		.sleb128 0
 15134 1de8 21       		.byte	0x21
 15135 1de9 9F       		.byte	0x9f
 15136 1dea 0C000000 		.4byte	.LVL151
 15137 1dee 12000000 		.4byte	.LFE140
 15138 1df2 0900     		.2byte	0x9
 15139 1df4 F3       		.byte	0xf3
 15140 1df5 01       		.uleb128 0x1
 15141 1df6 51       		.byte	0x51
 15142 1df7 38       		.byte	0x38
 15143 1df8 24       		.byte	0x24
 15144 1df9 73       		.byte	0x73
 15145 1dfa 00       		.sleb128 0
 15146 1dfb 21       		.byte	0x21
 15147 1dfc 9F       		.byte	0x9f
 15148 1dfd 00000000 		.4byte	0
 15149 1e01 00000000 		.4byte	0
 15150              	.LVUS33:
 15151 1e05 00       		.uleb128 0
 15152 1e06 00       		.uleb128 .LVU663
 15153 1e07 00       		.uleb128 .LVU663
 15154 1e08 00       		.uleb128 0
 15155              	.LLST33:
 15156 1e09 00000000 		.4byte	.LVL144
 15157 1e0d 0A000000 		.4byte	.LVL147
 15158 1e11 0100     		.2byte	0x1
 15159 1e13 51       		.byte	0x51
 15160 1e14 0A000000 		.4byte	.LVL147
 15161 1e18 0E000000 		.4byte	.LFE139
 15162 1e1c 0400     		.2byte	0x4
ARM GAS  C:\Users\USER\AppData\Local\Temp\ccNdlOSb.s 			page 267


 15163 1e1e F3       		.byte	0xf3
 15164 1e1f 01       		.uleb128 0x1
 15165 1e20 51       		.byte	0x51
 15166 1e21 9F       		.byte	0x9f
 15167 1e22 00000000 		.4byte	0
 15168 1e26 00000000 		.4byte	0
 15169              	.LVUS34:
 15170 1e2a 02       		.uleb128 .LVU654
 15171 1e2b 00       		.uleb128 .LVU658
 15172 1e2c 00       		.uleb128 .LVU658
 15173 1e2d 00       		.uleb128 .LVU660
 15174 1e2e 00       		.uleb128 .LVU660
 15175 1e2f 01       		.uleb128 .LVU661
 15176 1e30 01       		.uleb128 .LVU661
 15177 1e31 00       		.uleb128 .LVU663
 15178 1e32 00       		.uleb128 .LVU663
 15179 1e33 00       		.uleb128 0
 15180              	.LLST34:
 15181 1e34 00000000 		.4byte	.LVL144
 15182 1e38 02000000 		.4byte	.LVL145
 15183 1e3c 0200     		.2byte	0x2
 15184 1e3e 30       		.byte	0x30
 15185 1e3f 9F       		.byte	0x9f
 15186 1e40 02000000 		.4byte	.LVL145
 15187 1e44 08000000 		.4byte	.LVL146
 15188 1e48 0100     		.2byte	0x1
 15189 1e4a 52       		.byte	0x52
 15190 1e4b 08000000 		.4byte	.LVL146
 15191 1e4f 08000000 		.4byte	.LVL146
 15192 1e53 0100     		.2byte	0x1
 15193 1e55 53       		.byte	0x53
 15194 1e56 08000000 		.4byte	.LVL146
 15195 1e5a 0A000000 		.4byte	.LVL147
 15196 1e5e 0600     		.2byte	0x6
 15197 1e60 71       		.byte	0x71
 15198 1e61 00       		.sleb128 0
 15199 1e62 73       		.byte	0x73
 15200 1e63 00       		.sleb128 0
 15201 1e64 21       		.byte	0x21
 15202 1e65 9F       		.byte	0x9f
 15203 1e66 0A000000 		.4byte	.LVL147
 15204 1e6a 0E000000 		.4byte	.LFE139
 15205 1e6e 0700     		.2byte	0x7
 15206 1e70 F3       		.byte	0xf3
 15207 1e71 01       		.uleb128 0x1
 15208 1e72 51       		.byte	0x51
 15209 1e73 73       		.byte	0x73
 15210 1e74 00       		.sleb128 0
 15211 1e75 21       		.byte	0x21
 15212 1e76 9F       		.byte	0x9f
 15213 1e77 00000000 		.4byte	0
 15214 1e7b 00000000 		.4byte	0
 15215              	.LVUS31:
 15216 1e7f 00       		.uleb128 0
 15217 1e80 00       		.uleb128 .LVU650
 15218 1e81 00       		.uleb128 .LVU650
 15219 1e82 00       		.uleb128 0
ARM GAS  C:\Users\USER\AppData\Local\Temp\ccNdlOSb.s 			page 268


 15220              	.LLST31:
 15221 1e83 00000000 		.4byte	.LVL140
 15222 1e87 0C000000 		.4byte	.LVL143
 15223 1e8b 0100     		.2byte	0x1
 15224 1e8d 51       		.byte	0x51
 15225 1e8e 0C000000 		.4byte	.LVL143
 15226 1e92 12000000 		.4byte	.LFE138
 15227 1e96 0400     		.2byte	0x4
 15228 1e98 F3       		.byte	0xf3
 15229 1e99 01       		.uleb128 0x1
 15230 1e9a 51       		.byte	0x51
 15231 1e9b 9F       		.byte	0x9f
 15232 1e9c 00000000 		.4byte	0
 15233 1ea0 00000000 		.4byte	0
 15234              	.LVUS32:
 15235 1ea4 02       		.uleb128 .LVU641
 15236 1ea5 00       		.uleb128 .LVU645
 15237 1ea6 00       		.uleb128 .LVU645
 15238 1ea7 00       		.uleb128 .LVU647
 15239 1ea8 00       		.uleb128 .LVU647
 15240 1ea9 01       		.uleb128 .LVU648
 15241 1eaa 01       		.uleb128 .LVU648
 15242 1eab 00       		.uleb128 .LVU650
 15243 1eac 00       		.uleb128 .LVU650
 15244 1ead 00       		.uleb128 0
 15245              	.LLST32:
 15246 1eae 00000000 		.4byte	.LVL140
 15247 1eb2 02000000 		.4byte	.LVL141
 15248 1eb6 0200     		.2byte	0x2
 15249 1eb8 30       		.byte	0x30
 15250 1eb9 9F       		.byte	0x9f
 15251 1eba 02000000 		.4byte	.LVL141
 15252 1ebe 08000000 		.4byte	.LVL142
 15253 1ec2 0100     		.2byte	0x1
 15254 1ec4 52       		.byte	0x52
 15255 1ec5 08000000 		.4byte	.LVL142
 15256 1ec9 08000000 		.4byte	.LVL142
 15257 1ecd 0100     		.2byte	0x1
 15258 1ecf 53       		.byte	0x53
 15259 1ed0 08000000 		.4byte	.LVL142
 15260 1ed4 0C000000 		.4byte	.LVL143
 15261 1ed8 0800     		.2byte	0x8
 15262 1eda 71       		.byte	0x71
 15263 1edb 00       		.sleb128 0
 15264 1edc 38       		.byte	0x38
 15265 1edd 24       		.byte	0x24
 15266 1ede 73       		.byte	0x73
 15267 1edf 00       		.sleb128 0
 15268 1ee0 21       		.byte	0x21
 15269 1ee1 9F       		.byte	0x9f
 15270 1ee2 0C000000 		.4byte	.LVL143
 15271 1ee6 12000000 		.4byte	.LFE138
 15272 1eea 0900     		.2byte	0x9
 15273 1eec F3       		.byte	0xf3
 15274 1eed 01       		.uleb128 0x1
 15275 1eee 51       		.byte	0x51
 15276 1eef 38       		.byte	0x38
ARM GAS  C:\Users\USER\AppData\Local\Temp\ccNdlOSb.s 			page 269


 15277 1ef0 24       		.byte	0x24
 15278 1ef1 73       		.byte	0x73
 15279 1ef2 00       		.sleb128 0
 15280 1ef3 21       		.byte	0x21
 15281 1ef4 9F       		.byte	0x9f
 15282 1ef5 00000000 		.4byte	0
 15283 1ef9 00000000 		.4byte	0
 15284              	.LVUS29:
 15285 1efd 00       		.uleb128 0
 15286 1efe 00       		.uleb128 .LVU637
 15287 1eff 00       		.uleb128 .LVU637
 15288 1f00 00       		.uleb128 0
 15289              	.LLST29:
 15290 1f01 00000000 		.4byte	.LVL136
 15291 1f05 0A000000 		.4byte	.LVL139
 15292 1f09 0100     		.2byte	0x1
 15293 1f0b 51       		.byte	0x51
 15294 1f0c 0A000000 		.4byte	.LVL139
 15295 1f10 0E000000 		.4byte	.LFE137
 15296 1f14 0400     		.2byte	0x4
 15297 1f16 F3       		.byte	0xf3
 15298 1f17 01       		.uleb128 0x1
 15299 1f18 51       		.byte	0x51
 15300 1f19 9F       		.byte	0x9f
 15301 1f1a 00000000 		.4byte	0
 15302 1f1e 00000000 		.4byte	0
 15303              	.LVUS30:
 15304 1f22 02       		.uleb128 .LVU628
 15305 1f23 00       		.uleb128 .LVU632
 15306 1f24 00       		.uleb128 .LVU632
 15307 1f25 00       		.uleb128 .LVU634
 15308 1f26 00       		.uleb128 .LVU634
 15309 1f27 01       		.uleb128 .LVU635
 15310 1f28 01       		.uleb128 .LVU635
 15311 1f29 00       		.uleb128 .LVU637
 15312 1f2a 00       		.uleb128 .LVU637
 15313 1f2b 00       		.uleb128 0
 15314              	.LLST30:
 15315 1f2c 00000000 		.4byte	.LVL136
 15316 1f30 02000000 		.4byte	.LVL137
 15317 1f34 0200     		.2byte	0x2
 15318 1f36 30       		.byte	0x30
 15319 1f37 9F       		.byte	0x9f
 15320 1f38 02000000 		.4byte	.LVL137
 15321 1f3c 08000000 		.4byte	.LVL138
 15322 1f40 0100     		.2byte	0x1
 15323 1f42 52       		.byte	0x52
 15324 1f43 08000000 		.4byte	.LVL138
 15325 1f47 08000000 		.4byte	.LVL138
 15326 1f4b 0100     		.2byte	0x1
 15327 1f4d 53       		.byte	0x53
 15328 1f4e 08000000 		.4byte	.LVL138
 15329 1f52 0A000000 		.4byte	.LVL139
 15330 1f56 0600     		.2byte	0x6
 15331 1f58 71       		.byte	0x71
 15332 1f59 00       		.sleb128 0
 15333 1f5a 73       		.byte	0x73
ARM GAS  C:\Users\USER\AppData\Local\Temp\ccNdlOSb.s 			page 270


 15334 1f5b 00       		.sleb128 0
 15335 1f5c 21       		.byte	0x21
 15336 1f5d 9F       		.byte	0x9f
 15337 1f5e 0A000000 		.4byte	.LVL139
 15338 1f62 0E000000 		.4byte	.LFE137
 15339 1f66 0700     		.2byte	0x7
 15340 1f68 F3       		.byte	0xf3
 15341 1f69 01       		.uleb128 0x1
 15342 1f6a 51       		.byte	0x51
 15343 1f6b 73       		.byte	0x73
 15344 1f6c 00       		.sleb128 0
 15345 1f6d 21       		.byte	0x21
 15346 1f6e 9F       		.byte	0x9f
 15347 1f6f 00000000 		.4byte	0
 15348 1f73 00000000 		.4byte	0
 15349              	.LVUS24:
 15350 1f77 00       		.uleb128 0
 15351 1f78 00       		.uleb128 .LVU580
 15352 1f79 00       		.uleb128 .LVU580
 15353 1f7a 00       		.uleb128 0
 15354              	.LLST24:
 15355 1f7b 00000000 		.4byte	.LVL124
 15356 1f7f 16000000 		.4byte	.LVL125
 15357 1f83 0100     		.2byte	0x1
 15358 1f85 50       		.byte	0x50
 15359 1f86 16000000 		.4byte	.LVL125
 15360 1f8a 50000000 		.4byte	.LFE132
 15361 1f8e 0300     		.2byte	0x3
 15362 1f90 70       		.byte	0x70
 15363 1f91 68       		.sleb128 -24
 15364 1f92 9F       		.byte	0x9f
 15365 1f93 00000000 		.4byte	0
 15366 1f97 00000000 		.4byte	0
 15367              	.LVUS25:
 15368 1f9b 00       		.uleb128 0
 15369 1f9c 00       		.uleb128 .LVU587
 15370 1f9d 00       		.uleb128 .LVU587
 15371 1f9e 00       		.uleb128 .LVU596
 15372 1f9f 00       		.uleb128 .LVU596
 15373 1fa0 00       		.uleb128 .LVU599
 15374 1fa1 00       		.uleb128 .LVU599
 15375 1fa2 00       		.uleb128 0
 15376              	.LLST25:
 15377 1fa3 00000000 		.4byte	.LVL124
 15378 1fa7 1A000000 		.4byte	.LVL127
 15379 1fab 0100     		.2byte	0x1
 15380 1fad 51       		.byte	0x51
 15381 1fae 1A000000 		.4byte	.LVL127
 15382 1fb2 38000000 		.4byte	.LVL129
 15383 1fb6 0400     		.2byte	0x4
 15384 1fb8 F3       		.byte	0xf3
 15385 1fb9 01       		.uleb128 0x1
 15386 1fba 51       		.byte	0x51
 15387 1fbb 9F       		.byte	0x9f
 15388 1fbc 38000000 		.4byte	.LVL129
 15389 1fc0 3A000000 		.4byte	.LVL130
 15390 1fc4 0100     		.2byte	0x1
ARM GAS  C:\Users\USER\AppData\Local\Temp\ccNdlOSb.s 			page 271


 15391 1fc6 51       		.byte	0x51
 15392 1fc7 3A000000 		.4byte	.LVL130
 15393 1fcb 50000000 		.4byte	.LFE132
 15394 1fcf 0400     		.2byte	0x4
 15395 1fd1 F3       		.byte	0xf3
 15396 1fd2 01       		.uleb128 0x1
 15397 1fd3 51       		.byte	0x51
 15398 1fd4 9F       		.byte	0x9f
 15399 1fd5 00000000 		.4byte	0
 15400 1fd9 00000000 		.4byte	0
 15401              	.LVUS26:
 15402 1fdd 00       		.uleb128 0
 15403 1fde 00       		.uleb128 .LVU591
 15404 1fdf 00       		.uleb128 .LVU591
 15405 1fe0 00       		.uleb128 .LVU596
 15406 1fe1 00       		.uleb128 .LVU596
 15407 1fe2 00       		.uleb128 .LVU604
 15408 1fe3 00       		.uleb128 .LVU604
 15409 1fe4 00       		.uleb128 0
 15410              	.LLST26:
 15411 1fe5 00000000 		.4byte	.LVL124
 15412 1fe9 2A000000 		.4byte	.LVL128
 15413 1fed 0100     		.2byte	0x1
 15414 1fef 52       		.byte	0x52
 15415 1ff0 2A000000 		.4byte	.LVL128
 15416 1ff4 38000000 		.4byte	.LVL129
 15417 1ff8 0400     		.2byte	0x4
 15418 1ffa F3       		.byte	0xf3
 15419 1ffb 01       		.uleb128 0x1
 15420 1ffc 52       		.byte	0x52
 15421 1ffd 9F       		.byte	0x9f
 15422 1ffe 38000000 		.4byte	.LVL129
 15423 2002 4C000000 		.4byte	.LVL131
 15424 2006 0100     		.2byte	0x1
 15425 2008 52       		.byte	0x52
 15426 2009 4C000000 		.4byte	.LVL131
 15427 200d 50000000 		.4byte	.LFE132
 15428 2011 0400     		.2byte	0x4
 15429 2013 F3       		.byte	0xf3
 15430 2014 01       		.uleb128 0x1
 15431 2015 52       		.byte	0x52
 15432 2016 9F       		.byte	0x9f
 15433 2017 00000000 		.4byte	0
 15434 201b 00000000 		.4byte	0
 15435              	.LVUS27:
 15436 201f 02       		.uleb128 .LVU565
 15437 2020 07       		.uleb128 .LVU570
 15438 2021 07       		.uleb128 .LVU570
 15439 2022 01       		.uleb128 .LVU585
 15440 2023 01       		.uleb128 .LVU585
 15441 2024 00       		.uleb128 .LVU587
 15442 2025 00       		.uleb128 .LVU587
 15443 2026 00       		.uleb128 .LVU596
 15444 2027 00       		.uleb128 .LVU596
 15445 2028 01       		.uleb128 .LVU597
 15446 2029 01       		.uleb128 .LVU597
 15447 202a 00       		.uleb128 .LVU599
ARM GAS  C:\Users\USER\AppData\Local\Temp\ccNdlOSb.s 			page 272


 15448 202b 00       		.uleb128 .LVU599
 15449 202c 00       		.uleb128 0
 15450              	.LLST27:
 15451 202d 00000000 		.4byte	.LVL124
 15452 2031 00000000 		.4byte	.LVL124
 15453 2035 0200     		.2byte	0x2
 15454 2037 30       		.byte	0x30
 15455 2038 9F       		.byte	0x9f
 15456 2039 00000000 		.4byte	.LVL124
 15457 203d 18000000 		.4byte	.LVL126
 15458 2041 0100     		.2byte	0x1
 15459 2043 50       		.byte	0x50
 15460 2044 18000000 		.4byte	.LVL126
 15461 2048 1A000000 		.4byte	.LVL127
 15462 204c 0C00     		.2byte	0xc
 15463 204e 71       		.byte	0x71
 15464 204f 7C       		.sleb128 -4
 15465 2050 31       		.byte	0x31
 15466 2051 25       		.byte	0x25
 15467 2052 0A       		.byte	0xa
 15468 2053 FFFF     		.2byte	0xffff
 15469 2055 1A       		.byte	0x1a
 15470 2056 70       		.byte	0x70
 15471 2057 00       		.sleb128 0
 15472 2058 22       		.byte	0x22
 15473 2059 9F       		.byte	0x9f
 15474 205a 1A000000 		.4byte	.LVL127
 15475 205e 38000000 		.4byte	.LVL129
 15476 2062 0F00     		.2byte	0xf
 15477 2064 F3       		.byte	0xf3
 15478 2065 01       		.uleb128 0x1
 15479 2066 51       		.byte	0x51
 15480 2067 34       		.byte	0x34
 15481 2068 1C       		.byte	0x1c
 15482 2069 31       		.byte	0x31
 15483 206a 25       		.byte	0x25
 15484 206b 0A       		.byte	0xa
 15485 206c FFFF     		.2byte	0xffff
 15486 206e 1A       		.byte	0x1a
 15487 206f 70       		.byte	0x70
 15488 2070 00       		.sleb128 0
 15489 2071 22       		.byte	0x22
 15490 2072 9F       		.byte	0x9f
 15491 2073 38000000 		.4byte	.LVL129
 15492 2077 38000000 		.4byte	.LVL129
 15493 207b 0100     		.2byte	0x1
 15494 207d 50       		.byte	0x50
 15495 207e 38000000 		.4byte	.LVL129
 15496 2082 3A000000 		.4byte	.LVL130
 15497 2086 0C00     		.2byte	0xc
 15498 2088 71       		.byte	0x71
 15499 2089 00       		.sleb128 0
 15500 208a 31       		.byte	0x31
 15501 208b 25       		.byte	0x25
 15502 208c 0A       		.byte	0xa
 15503 208d FFFF     		.2byte	0xffff
 15504 208f 1A       		.byte	0x1a
ARM GAS  C:\Users\USER\AppData\Local\Temp\ccNdlOSb.s 			page 273


 15505 2090 70       		.byte	0x70
 15506 2091 00       		.sleb128 0
 15507 2092 22       		.byte	0x22
 15508 2093 9F       		.byte	0x9f
 15509 2094 3A000000 		.4byte	.LVL130
 15510 2098 50000000 		.4byte	.LFE132
 15511 209c 0D00     		.2byte	0xd
 15512 209e F3       		.byte	0xf3
 15513 209f 01       		.uleb128 0x1
 15514 20a0 51       		.byte	0x51
 15515 20a1 31       		.byte	0x31
 15516 20a2 25       		.byte	0x25
 15517 20a3 0A       		.byte	0xa
 15518 20a4 FFFF     		.2byte	0xffff
 15519 20a6 1A       		.byte	0x1a
 15520 20a7 70       		.byte	0x70
 15521 20a8 00       		.sleb128 0
 15522 20a9 22       		.byte	0x22
 15523 20aa 9F       		.byte	0x9f
 15524 20ab 00000000 		.4byte	0
 15525 20af 00000000 		.4byte	0
 15526              	.LVUS28:
 15527 20b3 03       		.uleb128 .LVU566
 15528 20b4 01       		.uleb128 .LVU581
 15529 20b5 01       		.uleb128 .LVU581
 15530 20b6 00       		.uleb128 .LVU587
 15531 20b7 00       		.uleb128 .LVU587
 15532 20b8 00       		.uleb128 .LVU596
 15533 20b9 00       		.uleb128 .LVU596
 15534 20ba 00       		.uleb128 .LVU599
 15535 20bb 00       		.uleb128 .LVU599
 15536 20bc 00       		.uleb128 0
 15537              	.LLST28:
 15538 20bd 00000000 		.4byte	.LVL124
 15539 20c1 16000000 		.4byte	.LVL125
 15540 20c5 0200     		.2byte	0x2
 15541 20c7 30       		.byte	0x30
 15542 20c8 9F       		.byte	0x9f
 15543 20c9 16000000 		.4byte	.LVL125
 15544 20cd 1A000000 		.4byte	.LVL127
 15545 20d1 0500     		.2byte	0x5
 15546 20d3 31       		.byte	0x31
 15547 20d4 71       		.byte	0x71
 15548 20d5 00       		.sleb128 0
 15549 20d6 24       		.byte	0x24
 15550 20d7 9F       		.byte	0x9f
 15551 20d8 1A000000 		.4byte	.LVL127
 15552 20dc 38000000 		.4byte	.LVL129
 15553 20e0 0600     		.2byte	0x6
 15554 20e2 31       		.byte	0x31
 15555 20e3 F3       		.byte	0xf3
 15556 20e4 01       		.uleb128 0x1
 15557 20e5 51       		.byte	0x51
 15558 20e6 24       		.byte	0x24
 15559 20e7 9F       		.byte	0x9f
 15560 20e8 38000000 		.4byte	.LVL129
 15561 20ec 3A000000 		.4byte	.LVL130
ARM GAS  C:\Users\USER\AppData\Local\Temp\ccNdlOSb.s 			page 274


 15562 20f0 0500     		.2byte	0x5
 15563 20f2 31       		.byte	0x31
 15564 20f3 71       		.byte	0x71
 15565 20f4 00       		.sleb128 0
 15566 20f5 24       		.byte	0x24
 15567 20f6 9F       		.byte	0x9f
 15568 20f7 3A000000 		.4byte	.LVL130
 15569 20fb 50000000 		.4byte	.LFE132
 15570 20ff 0600     		.2byte	0x6
 15571 2101 31       		.byte	0x31
 15572 2102 F3       		.byte	0xf3
 15573 2103 01       		.uleb128 0x1
 15574 2104 51       		.byte	0x51
 15575 2105 24       		.byte	0x24
 15576 2106 9F       		.byte	0x9f
 15577 2107 00000000 		.4byte	0
 15578 210b 00000000 		.4byte	0
 15579              	.LVUS20:
 15580 210f 00       		.uleb128 0
 15581 2110 00       		.uleb128 .LVU532
 15582 2111 00       		.uleb128 .LVU532
 15583 2112 00       		.uleb128 .LVU541
 15584 2113 00       		.uleb128 .LVU541
 15585 2114 00       		.uleb128 0
 15586              	.LLST20:
 15587 2115 00000000 		.4byte	.LVL113
 15588 2119 48000000 		.4byte	.LVL117
 15589 211d 0100     		.2byte	0x1
 15590 211f 51       		.byte	0x51
 15591 2120 48000000 		.4byte	.LVL117
 15592 2124 54000000 		.4byte	.LVL119
 15593 2128 0400     		.2byte	0x4
 15594 212a F3       		.byte	0xf3
 15595 212b 01       		.uleb128 0x1
 15596 212c 51       		.byte	0x51
 15597 212d 9F       		.byte	0x9f
 15598 212e 54000000 		.4byte	.LVL119
 15599 2132 68000000 		.4byte	.LFE130
 15600 2136 0100     		.2byte	0x1
 15601 2138 51       		.byte	0x51
 15602 2139 00000000 		.4byte	0
 15603 213d 00000000 		.4byte	0
 15604              	.LVUS21:
 15605 2141 02       		.uleb128 .LVU494
 15606 2142 01       		.uleb128 .LVU520
 15607 2143 00       		.uleb128 .LVU524
 15608 2144 00       		.uleb128 0
 15609              	.LLST21:
 15610 2145 00000000 		.4byte	.LVL113
 15611 2149 3A000000 		.4byte	.LVL115
 15612 214d 0200     		.2byte	0x2
 15613 214f 30       		.byte	0x30
 15614 2150 9F       		.byte	0x9f
 15615 2151 3C000000 		.4byte	.LVL116
 15616 2155 68000000 		.4byte	.LFE130
 15617 2159 0100     		.2byte	0x1
 15618 215b 52       		.byte	0x52
ARM GAS  C:\Users\USER\AppData\Local\Temp\ccNdlOSb.s 			page 275


 15619 215c 00000000 		.4byte	0
 15620 2160 00000000 		.4byte	0
 15621              	.LVUS22:
 15622 2164 02       		.uleb128 .LVU494
 15623 2165 00       		.uleb128 .LVU503
 15624 2166 00       		.uleb128 .LVU503
 15625 2167 01       		.uleb128 .LVU525
 15626 2168 01       		.uleb128 .LVU525
 15627 2169 02       		.uleb128 .LVU526
 15628 216a 02       		.uleb128 .LVU526
 15629 216b 03       		.uleb128 .LVU527
 15630 216c 03       		.uleb128 .LVU527
 15631 216d 00       		.uleb128 0
 15632              	.LLST22:
 15633 216e 00000000 		.4byte	.LVL113
 15634 2172 10000000 		.4byte	.LVL114
 15635 2176 0200     		.2byte	0x2
 15636 2178 30       		.byte	0x30
 15637 2179 9F       		.byte	0x9f
 15638 217a 10000000 		.4byte	.LVL114
 15639 217e 3C000000 		.4byte	.LVL116
 15640 2182 0100     		.2byte	0x1
 15641 2184 5C       		.byte	0x5c
 15642 2185 3C000000 		.4byte	.LVL116
 15643 2189 3C000000 		.4byte	.LVL116
 15644 218d 0700     		.2byte	0x7
 15645 218f 7C       		.byte	0x7c
 15646 2190 00       		.sleb128 0
 15647 2191 0A       		.byte	0xa
 15648 2192 FFDF     		.2byte	0xdfff
 15649 2194 1A       		.byte	0x1a
 15650 2195 9F       		.byte	0x9f
 15651 2196 3C000000 		.4byte	.LVL116
 15652 219a 3C000000 		.4byte	.LVL116
 15653 219e 0E00     		.2byte	0xe
 15654 21a0 71       		.byte	0x71
 15655 21a1 0C       		.sleb128 12
 15656 21a2 94       		.byte	0x94
 15657 21a3 02       		.byte	0x2
 15658 21a4 3C       		.byte	0x3c
 15659 21a5 24       		.byte	0x24
 15660 21a6 7C       		.byte	0x7c
 15661 21a7 00       		.sleb128 0
 15662 21a8 0A       		.byte	0xa
 15663 21a9 FFDF     		.2byte	0xdfff
 15664 21ab 1A       		.byte	0x1a
 15665 21ac 21       		.byte	0x21
 15666 21ad 9F       		.byte	0x9f
 15667 21ae 3C000000 		.4byte	.LVL116
 15668 21b2 68000000 		.4byte	.LFE130
 15669 21b6 0100     		.2byte	0x1
 15670 21b8 53       		.byte	0x53
 15671 21b9 00000000 		.4byte	0
 15672 21bd 00000000 		.4byte	0
 15673              	.LVUS23:
 15674 21c1 02       		.uleb128 .LVU494
 15675 21c2 00       		.uleb128 .LVU519
ARM GAS  C:\Users\USER\AppData\Local\Temp\ccNdlOSb.s 			page 276


 15676 21c3 00       		.uleb128 .LVU519
 15677 21c4 00       		.uleb128 .LVU537
 15678 21c5 00       		.uleb128 .LVU541
 15679 21c6 00       		.uleb128 .LVU547
 15680 21c7 00       		.uleb128 .LVU548
 15681 21c8 00       		.uleb128 0
 15682              	.LLST23:
 15683 21c9 00000000 		.4byte	.LVL113
 15684 21cd 3A000000 		.4byte	.LVL115
 15685 21d1 0200     		.2byte	0x2
 15686 21d3 30       		.byte	0x30
 15687 21d4 9F       		.byte	0x9f
 15688 21d5 3A000000 		.4byte	.LVL115
 15689 21d9 4E000000 		.4byte	.LVL118
 15690 21dd 0100     		.2byte	0x1
 15691 21df 54       		.byte	0x54
 15692 21e0 54000000 		.4byte	.LVL119
 15693 21e4 5E000000 		.4byte	.LVL121
 15694 21e8 0100     		.2byte	0x1
 15695 21ea 54       		.byte	0x54
 15696 21eb 60000000 		.4byte	.LVL122
 15697 21ef 68000000 		.4byte	.LFE130
 15698 21f3 0100     		.2byte	0x1
 15699 21f5 54       		.byte	0x54
 15700 21f6 00000000 		.4byte	0
 15701 21fa 00000000 		.4byte	0
 15702              	.LVUS16:
 15703 21fe 00       		.uleb128 0
 15704 21ff 00       		.uleb128 .LVU457
 15705 2200 00       		.uleb128 .LVU457
 15706 2201 00       		.uleb128 .LVU466
 15707 2202 00       		.uleb128 .LVU466
 15708 2203 00       		.uleb128 0
 15709              	.LLST16:
 15710 2204 00000000 		.4byte	.LVL98
 15711 2208 44000000 		.4byte	.LVL103
 15712 220c 0100     		.2byte	0x1
 15713 220e 51       		.byte	0x51
 15714 220f 44000000 		.4byte	.LVL103
 15715 2213 50000000 		.4byte	.LVL105
 15716 2217 0400     		.2byte	0x4
 15717 2219 F3       		.byte	0xf3
 15718 221a 01       		.uleb128 0x1
 15719 221b 51       		.byte	0x51
 15720 221c 9F       		.byte	0x9f
 15721 221d 50000000 		.4byte	.LVL105
 15722 2221 84000000 		.4byte	.LFE129
 15723 2225 0100     		.2byte	0x1
 15724 2227 51       		.byte	0x51
 15725 2228 00000000 		.4byte	0
 15726 222c 00000000 		.4byte	0
 15727              	.LVUS17:
 15728 2230 02       		.uleb128 .LVU420
 15729 2231 01       		.uleb128 .LVU445
 15730 2232 01       		.uleb128 .LVU445
 15731 2233 02       		.uleb128 .LVU446
 15732 2234 02       		.uleb128 .LVU446
ARM GAS  C:\Users\USER\AppData\Local\Temp\ccNdlOSb.s 			page 277


 15733 2235 03       		.uleb128 .LVU447
 15734 2236 03       		.uleb128 .LVU447
 15735 2237 00       		.uleb128 0
 15736              	.LLST17:
 15737 2238 00000000 		.4byte	.LVL98
 15738 223c 36000000 		.4byte	.LVL101
 15739 2240 0200     		.2byte	0x2
 15740 2242 30       		.byte	0x30
 15741 2243 9F       		.byte	0x9f
 15742 2244 36000000 		.4byte	.LVL101
 15743 2248 36000000 		.4byte	.LVL101
 15744 224c 0100     		.2byte	0x1
 15745 224e 5C       		.byte	0x5c
 15746 224f 36000000 		.4byte	.LVL101
 15747 2253 36000000 		.4byte	.LVL101
 15748 2257 0600     		.2byte	0x6
 15749 2259 7C       		.byte	0x7c
 15750 225a 00       		.sleb128 0
 15751 225b 09       		.byte	0x9
 15752 225c 8F       		.byte	0x8f
 15753 225d 1A       		.byte	0x1a
 15754 225e 9F       		.byte	0x9f
 15755 225f 36000000 		.4byte	.LVL101
 15756 2263 84000000 		.4byte	.LFE129
 15757 2267 0100     		.2byte	0x1
 15758 2269 52       		.byte	0x52
 15759 226a 00000000 		.4byte	0
 15760 226e 00000000 		.4byte	0
 15761              	.LVUS18:
 15762 2272 02       		.uleb128 .LVU420
 15763 2273 00       		.uleb128 .LVU430
 15764 2274 00       		.uleb128 .LVU430
 15765 2275 00       		.uleb128 .LVU438
 15766 2276 03       		.uleb128 .LVU452
 15767 2277 00       		.uleb128 .LVU479
 15768 2278 00       		.uleb128 .LVU479
 15769 2279 00       		.uleb128 .LVU485
 15770 227a 00       		.uleb128 .LVU486
 15771 227b 00       		.uleb128 0
 15772              	.LLST18:
 15773 227c 00000000 		.4byte	.LVL98
 15774 2280 10000000 		.4byte	.LVL99
 15775 2284 0200     		.2byte	0x2
 15776 2286 30       		.byte	0x30
 15777 2287 9F       		.byte	0x9f
 15778 2288 10000000 		.4byte	.LVL99
 15779 228c 24000000 		.4byte	.LVL100
 15780 2290 0100     		.2byte	0x1
 15781 2292 57       		.byte	0x57
 15782 2293 3A000000 		.4byte	.LVL102
 15783 2297 64000000 		.4byte	.LVL108
 15784 229b 0100     		.2byte	0x1
 15785 229d 53       		.byte	0x53
 15786 229e 64000000 		.4byte	.LVL108
 15787 22a2 74000000 		.4byte	.LVL110
 15788 22a6 0100     		.2byte	0x1
 15789 22a8 54       		.byte	0x54
ARM GAS  C:\Users\USER\AppData\Local\Temp\ccNdlOSb.s 			page 278


 15790 22a9 76000000 		.4byte	.LVL111
 15791 22ad 84000000 		.4byte	.LFE129
 15792 22b1 0100     		.2byte	0x1
 15793 22b3 53       		.byte	0x53
 15794 22b4 00000000 		.4byte	0
 15795 22b8 00000000 		.4byte	0
 15796              	.LVUS19:
 15797 22bc 02       		.uleb128 .LVU420
 15798 22bd 00       		.uleb128 .LVU444
 15799 22be 00       		.uleb128 .LVU444
 15800 22bf 00       		.uleb128 .LVU462
 15801 22c0 00       		.uleb128 .LVU466
 15802 22c1 00       		.uleb128 .LVU482
 15803 22c2 02       		.uleb128 .LVU488
 15804 22c3 03       		.uleb128 .LVU489
 15805 22c4 03       		.uleb128 .LVU489
 15806 22c5 00       		.uleb128 .LVU491
 15807 22c6 00       		.uleb128 .LVU491
 15808 22c7 00       		.uleb128 0
 15809              	.LLST19:
 15810 22c8 00000000 		.4byte	.LVL98
 15811 22cc 36000000 		.4byte	.LVL101
 15812 22d0 0200     		.2byte	0x2
 15813 22d2 30       		.byte	0x30
 15814 22d3 9F       		.byte	0x9f
 15815 22d4 36000000 		.4byte	.LVL101
 15816 22d8 4A000000 		.4byte	.LVL104
 15817 22dc 0100     		.2byte	0x1
 15818 22de 55       		.byte	0x55
 15819 22df 50000000 		.4byte	.LVL105
 15820 22e3 6A000000 		.4byte	.LVL109
 15821 22e7 0100     		.2byte	0x1
 15822 22e9 55       		.byte	0x55
 15823 22ea 76000000 		.4byte	.LVL111
 15824 22ee 76000000 		.4byte	.LVL111
 15825 22f2 0100     		.2byte	0x1
 15826 22f4 55       		.byte	0x55
 15827 22f5 76000000 		.4byte	.LVL111
 15828 22f9 78000000 		.4byte	.LVL112
 15829 22fd 0A00     		.2byte	0xa
 15830 22ff 71       		.byte	0x71
 15831 2300 10       		.sleb128 16
 15832 2301 94       		.byte	0x94
 15833 2302 02       		.byte	0x2
 15834 2303 34       		.byte	0x34
 15835 2304 24       		.byte	0x24
 15836 2305 75       		.byte	0x75
 15837 2306 00       		.sleb128 0
 15838 2307 21       		.byte	0x21
 15839 2308 9F       		.byte	0x9f
 15840 2309 78000000 		.4byte	.LVL112
 15841 230d 84000000 		.4byte	.LFE129
 15842 2311 0100     		.2byte	0x1
 15843 2313 55       		.byte	0x55
 15844 2314 00000000 		.4byte	0
 15845 2318 00000000 		.4byte	0
 15846              	.LVUS12:
ARM GAS  C:\Users\USER\AppData\Local\Temp\ccNdlOSb.s 			page 279


 15847 231c 00       		.uleb128 0
 15848 231d 00       		.uleb128 .LVU383
 15849 231e 00       		.uleb128 .LVU383
 15850 231f 00       		.uleb128 .LVU392
 15851 2320 00       		.uleb128 .LVU392
 15852 2321 00       		.uleb128 0
 15853              	.LLST12:
 15854 2322 00000000 		.4byte	.LVL85
 15855 2326 48000000 		.4byte	.LVL89
 15856 232a 0100     		.2byte	0x1
 15857 232c 51       		.byte	0x51
 15858 232d 48000000 		.4byte	.LVL89
 15859 2331 54000000 		.4byte	.LVL91
 15860 2335 0400     		.2byte	0x4
 15861 2337 F3       		.byte	0xf3
 15862 2338 01       		.uleb128 0x1
 15863 2339 51       		.byte	0x51
 15864 233a 9F       		.byte	0x9f
 15865 233b 54000000 		.4byte	.LVL91
 15866 233f 84000000 		.4byte	.LFE128
 15867 2343 0100     		.2byte	0x1
 15868 2345 51       		.byte	0x51
 15869 2346 00000000 		.4byte	0
 15870 234a 00000000 		.4byte	0
 15871              	.LVUS13:
 15872 234e 02       		.uleb128 .LVU345
 15873 234f 01       		.uleb128 .LVU371
 15874 2350 00       		.uleb128 .LVU375
 15875 2351 00       		.uleb128 0
 15876              	.LLST13:
 15877 2352 00000000 		.4byte	.LVL85
 15878 2356 3A000000 		.4byte	.LVL87
 15879 235a 0200     		.2byte	0x2
 15880 235c 30       		.byte	0x30
 15881 235d 9F       		.byte	0x9f
 15882 235e 3C000000 		.4byte	.LVL88
 15883 2362 84000000 		.4byte	.LFE128
 15884 2366 0100     		.2byte	0x1
 15885 2368 52       		.byte	0x52
 15886 2369 00000000 		.4byte	0
 15887 236d 00000000 		.4byte	0
 15888              	.LVUS14:
 15889 2371 02       		.uleb128 .LVU345
 15890 2372 00       		.uleb128 .LVU354
 15891 2373 00       		.uleb128 .LVU354
 15892 2374 01       		.uleb128 .LVU376
 15893 2375 01       		.uleb128 .LVU376
 15894 2376 02       		.uleb128 .LVU377
 15895 2377 02       		.uleb128 .LVU377
 15896 2378 03       		.uleb128 .LVU378
 15897 2379 03       		.uleb128 .LVU378
 15898 237a 00       		.uleb128 .LVU405
 15899 237b 00       		.uleb128 .LVU405
 15900 237c 00       		.uleb128 .LVU412
 15901 237d 00       		.uleb128 .LVU412
 15902 237e 00       		.uleb128 0
 15903              	.LLST14:
ARM GAS  C:\Users\USER\AppData\Local\Temp\ccNdlOSb.s 			page 280


 15904 237f 00000000 		.4byte	.LVL85
 15905 2383 10000000 		.4byte	.LVL86
 15906 2387 0200     		.2byte	0x2
 15907 2389 30       		.byte	0x30
 15908 238a 9F       		.byte	0x9f
 15909 238b 10000000 		.4byte	.LVL86
 15910 238f 3C000000 		.4byte	.LVL88
 15911 2393 0100     		.2byte	0x1
 15912 2395 5C       		.byte	0x5c
 15913 2396 3C000000 		.4byte	.LVL88
 15914 239a 3C000000 		.4byte	.LVL88
 15915 239e 0700     		.2byte	0x7
 15916 23a0 7C       		.byte	0x7c
 15917 23a1 00       		.sleb128 0
 15918 23a2 0A       		.byte	0xa
 15919 23a3 DFFF     		.2byte	0xffdf
 15920 23a5 1A       		.byte	0x1a
 15921 23a6 9F       		.byte	0x9f
 15922 23a7 3C000000 		.4byte	.LVL88
 15923 23ab 3C000000 		.4byte	.LVL88
 15924 23af 0E00     		.2byte	0xe
 15925 23b1 71       		.byte	0x71
 15926 23b2 0C       		.sleb128 12
 15927 23b3 94       		.byte	0x94
 15928 23b4 02       		.byte	0x2
 15929 23b5 34       		.byte	0x34
 15930 23b6 24       		.byte	0x24
 15931 23b7 7C       		.byte	0x7c
 15932 23b8 00       		.sleb128 0
 15933 23b9 0A       		.byte	0xa
 15934 23ba DFFF     		.2byte	0xffdf
 15935 23bc 1A       		.byte	0x1a
 15936 23bd 21       		.byte	0x21
 15937 23be 9F       		.byte	0x9f
 15938 23bf 3C000000 		.4byte	.LVL88
 15939 23c3 68000000 		.4byte	.LVL94
 15940 23c7 0100     		.2byte	0x1
 15941 23c9 53       		.byte	0x53
 15942 23ca 68000000 		.4byte	.LVL94
 15943 23ce 7A000000 		.4byte	.LVL96
 15944 23d2 0100     		.2byte	0x1
 15945 23d4 55       		.byte	0x55
 15946 23d5 7A000000 		.4byte	.LVL96
 15947 23d9 84000000 		.4byte	.LFE128
 15948 23dd 0100     		.2byte	0x1
 15949 23df 53       		.byte	0x53
 15950 23e0 00000000 		.4byte	0
 15951 23e4 00000000 		.4byte	0
 15952              	.LVUS15:
 15953 23e8 02       		.uleb128 .LVU345
 15954 23e9 00       		.uleb128 .LVU370
 15955 23ea 00       		.uleb128 .LVU370
 15956 23eb 00       		.uleb128 .LVU388
 15957 23ec 00       		.uleb128 .LVU392
 15958 23ed 00       		.uleb128 .LVU408
 15959 23ee 00       		.uleb128 .LVU417
 15960 23ef 00       		.uleb128 0
ARM GAS  C:\Users\USER\AppData\Local\Temp\ccNdlOSb.s 			page 281


 15961              	.LLST15:
 15962 23f0 00000000 		.4byte	.LVL85
 15963 23f4 3A000000 		.4byte	.LVL87
 15964 23f8 0200     		.2byte	0x2
 15965 23fa 30       		.byte	0x30
 15966 23fb 9F       		.byte	0x9f
 15967 23fc 3A000000 		.4byte	.LVL87
 15968 2400 4E000000 		.4byte	.LVL90
 15969 2404 0100     		.2byte	0x1
 15970 2406 54       		.byte	0x54
 15971 2407 54000000 		.4byte	.LVL91
 15972 240b 6E000000 		.4byte	.LVL95
 15973 240f 0100     		.2byte	0x1
 15974 2411 54       		.byte	0x54
 15975 2412 7C000000 		.4byte	.LVL97
 15976 2416 84000000 		.4byte	.LFE128
 15977 241a 0100     		.2byte	0x1
 15978 241c 54       		.byte	0x54
 15979 241d 00000000 		.4byte	0
 15980 2421 00000000 		.4byte	0
 15981              	.LVUS8:
 15982 2425 00       		.uleb128 0
 15983 2426 00       		.uleb128 .LVU311
 15984 2427 00       		.uleb128 .LVU311
 15985 2428 00       		.uleb128 .LVU320
 15986 2429 00       		.uleb128 .LVU320
 15987 242a 00       		.uleb128 0
 15988              	.LLST8:
 15989 242b 00000000 		.4byte	.LVL72
 15990 242f 42000000 		.4byte	.LVL76
 15991 2433 0100     		.2byte	0x1
 15992 2435 51       		.byte	0x51
 15993 2436 42000000 		.4byte	.LVL76
 15994 243a 4E000000 		.4byte	.LVL78
 15995 243e 0400     		.2byte	0x4
 15996 2440 F3       		.byte	0xf3
 15997 2441 01       		.uleb128 0x1
 15998 2442 51       		.byte	0x51
 15999 2443 9F       		.byte	0x9f
 16000 2444 4E000000 		.4byte	.LVL78
 16001 2448 70000000 		.4byte	.LFE127
 16002 244c 0100     		.2byte	0x1
 16003 244e 51       		.byte	0x51
 16004 244f 00000000 		.4byte	0
 16005 2453 00000000 		.4byte	0
 16006              	.LVUS9:
 16007 2457 02       		.uleb128 .LVU276
 16008 2458 01       		.uleb128 .LVU299
 16009 2459 03       		.uleb128 .LVU301
 16010 245a 00       		.uleb128 0
 16011              	.LLST9:
 16012 245b 00000000 		.4byte	.LVL72
 16013 245f 32000000 		.4byte	.LVL74
 16014 2463 0200     		.2byte	0x2
 16015 2465 30       		.byte	0x30
 16016 2466 9F       		.byte	0x9f
 16017 2467 32000000 		.4byte	.LVL74
ARM GAS  C:\Users\USER\AppData\Local\Temp\ccNdlOSb.s 			page 282


 16018 246b 70000000 		.4byte	.LFE127
 16019 246f 0100     		.2byte	0x1
 16020 2471 52       		.byte	0x52
 16021 2472 00000000 		.4byte	0
 16022 2476 00000000 		.4byte	0
 16023              	.LVUS10:
 16024 247a 02       		.uleb128 .LVU276
 16025 247b 00       		.uleb128 .LVU285
 16026 247c 00       		.uleb128 .LVU285
 16027 247d 01       		.uleb128 .LVU304
 16028 247e 01       		.uleb128 .LVU304
 16029 247f 02       		.uleb128 .LVU305
 16030 2480 02       		.uleb128 .LVU305
 16031 2481 03       		.uleb128 .LVU306
 16032 2482 03       		.uleb128 .LVU306
 16033 2483 00       		.uleb128 .LVU319
 16034 2484 00       		.uleb128 .LVU320
 16035 2485 00       		.uleb128 0
 16036              	.LLST10:
 16037 2486 00000000 		.4byte	.LVL72
 16038 248a 10000000 		.4byte	.LVL73
 16039 248e 0200     		.2byte	0x2
 16040 2490 30       		.byte	0x30
 16041 2491 9F       		.byte	0x9f
 16042 2492 10000000 		.4byte	.LVL73
 16043 2496 36000000 		.4byte	.LVL75
 16044 249a 0100     		.2byte	0x1
 16045 249c 5C       		.byte	0x5c
 16046 249d 36000000 		.4byte	.LVL75
 16047 24a1 36000000 		.4byte	.LVL75
 16048 24a5 0700     		.2byte	0x7
 16049 24a7 7C       		.byte	0x7c
 16050 24a8 00       		.sleb128 0
 16051 24a9 0A       		.byte	0xa
 16052 24aa FDFF     		.2byte	0xfffd
 16053 24ac 1A       		.byte	0x1a
 16054 24ad 9F       		.byte	0x9f
 16055 24ae 36000000 		.4byte	.LVL75
 16056 24b2 36000000 		.4byte	.LVL75
 16057 24b6 0C00     		.2byte	0xc
 16058 24b8 7C       		.byte	0x7c
 16059 24b9 00       		.sleb128 0
 16060 24ba 0A       		.byte	0xa
 16061 24bb FDFF     		.2byte	0xfffd
 16062 24bd 1A       		.byte	0x1a
 16063 24be 71       		.byte	0x71
 16064 24bf 0C       		.sleb128 12
 16065 24c0 94       		.byte	0x94
 16066 24c1 02       		.byte	0x2
 16067 24c2 21       		.byte	0x21
 16068 24c3 9F       		.byte	0x9f
 16069 24c4 36000000 		.4byte	.LVL75
 16070 24c8 4C000000 		.4byte	.LVL77
 16071 24cc 0100     		.2byte	0x1
 16072 24ce 54       		.byte	0x54
 16073 24cf 4E000000 		.4byte	.LVL78
 16074 24d3 70000000 		.4byte	.LFE127
ARM GAS  C:\Users\USER\AppData\Local\Temp\ccNdlOSb.s 			page 283


 16075 24d7 0100     		.2byte	0x1
 16076 24d9 54       		.byte	0x54
 16077 24da 00000000 		.4byte	0
 16078 24de 00000000 		.4byte	0
 16079              	.LVUS11:
 16080 24e2 02       		.uleb128 .LVU276
 16081 24e3 00       		.uleb128 .LVU298
 16082 24e4 00       		.uleb128 .LVU298
 16083 24e5 00       		.uleb128 .LVU333
 16084 24e6 02       		.uleb128 .LVU339
 16085 24e7 03       		.uleb128 .LVU340
 16086 24e8 03       		.uleb128 .LVU340
 16087 24e9 00       		.uleb128 .LVU342
 16088 24ea 00       		.uleb128 .LVU342
 16089 24eb 00       		.uleb128 0
 16090              	.LLST11:
 16091 24ec 00000000 		.4byte	.LVL72
 16092 24f0 32000000 		.4byte	.LVL74
 16093 24f4 0200     		.2byte	0x2
 16094 24f6 30       		.byte	0x30
 16095 24f7 9F       		.byte	0x9f
 16096 24f8 32000000 		.4byte	.LVL74
 16097 24fc 60000000 		.4byte	.LVL81
 16098 2500 0100     		.2byte	0x1
 16099 2502 53       		.byte	0x53
 16100 2503 68000000 		.4byte	.LVL83
 16101 2507 68000000 		.4byte	.LVL83
 16102 250b 0100     		.2byte	0x1
 16103 250d 53       		.byte	0x53
 16104 250e 68000000 		.4byte	.LVL83
 16105 2512 6A000000 		.4byte	.LVL84
 16106 2516 0800     		.2byte	0x8
 16107 2518 71       		.byte	0x71
 16108 2519 10       		.sleb128 16
 16109 251a 94       		.byte	0x94
 16110 251b 02       		.byte	0x2
 16111 251c 73       		.byte	0x73
 16112 251d 00       		.sleb128 0
 16113 251e 21       		.byte	0x21
 16114 251f 9F       		.byte	0x9f
 16115 2520 6A000000 		.4byte	.LVL84
 16116 2524 70000000 		.4byte	.LFE127
 16117 2528 0100     		.2byte	0x1
 16118 252a 53       		.byte	0x53
 16119 252b 00000000 		.4byte	0
 16120 252f 00000000 		.4byte	0
 16121              	.LVUS7:
 16122 2533 00       		.uleb128 0
 16123 2534 00       		.uleb128 .LVU261
 16124 2535 00       		.uleb128 .LVU261
 16125 2536 00       		.uleb128 0
 16126              	.LLST7:
 16127 2537 00000000 		.4byte	.LVL69
 16128 253b 0E000000 		.4byte	.LVL70
 16129 253f 0100     		.2byte	0x1
 16130 2541 51       		.byte	0x51
 16131 2542 0E000000 		.4byte	.LVL70
ARM GAS  C:\Users\USER\AppData\Local\Temp\ccNdlOSb.s 			page 284


 16132 2546 12000000 		.4byte	.LFE125
 16133 254a 0400     		.2byte	0x4
 16134 254c F3       		.byte	0xf3
 16135 254d 01       		.uleb128 0x1
 16136 254e 51       		.byte	0x51
 16137 254f 9F       		.byte	0x9f
 16138 2550 00000000 		.4byte	0
 16139 2554 00000000 		.4byte	0
 16140              	.LVUS6:
 16141 2558 00       		.uleb128 0
 16142 2559 00       		.uleb128 .LVU252
 16143 255a 00       		.uleb128 .LVU252
 16144 255b 00       		.uleb128 0
 16145              	.LLST6:
 16146 255c 00000000 		.4byte	.LVL67
 16147 2560 0E000000 		.4byte	.LVL68
 16148 2564 0100     		.2byte	0x1
 16149 2566 51       		.byte	0x51
 16150 2567 0E000000 		.4byte	.LVL68
 16151 256b 12000000 		.4byte	.LFE124
 16152 256f 0400     		.2byte	0x4
 16153 2571 F3       		.byte	0xf3
 16154 2572 01       		.uleb128 0x1
 16155 2573 51       		.byte	0x51
 16156 2574 9F       		.byte	0x9f
 16157 2575 00000000 		.4byte	0
 16158 2579 00000000 		.4byte	0
 16159              	.LVUS5:
 16160 257d 00       		.uleb128 0
 16161 257e 00       		.uleb128 .LVU211
 16162 257f 00       		.uleb128 .LVU211
 16163 2580 00       		.uleb128 0
 16164              	.LLST5:
 16165 2581 00000000 		.4byte	.LVL62
 16166 2585 02000000 		.4byte	.LVL63
 16167 2589 0100     		.2byte	0x1
 16168 258b 50       		.byte	0x50
 16169 258c 02000000 		.4byte	.LVL63
 16170 2590 06000000 		.4byte	.LFE120
 16171 2594 0400     		.2byte	0x4
 16172 2596 F3       		.byte	0xf3
 16173 2597 01       		.uleb128 0x1
 16174 2598 50       		.byte	0x50
 16175 2599 9F       		.byte	0x9f
 16176 259a 00000000 		.4byte	0
 16177 259e 00000000 		.4byte	0
 16178              	.LVUS4:
 16179 25a2 00       		.uleb128 0
 16180 25a3 00       		.uleb128 .LVU206
 16181 25a4 00       		.uleb128 .LVU206
 16182 25a5 00       		.uleb128 0
 16183              	.LLST4:
 16184 25a6 00000000 		.4byte	.LVL60
 16185 25aa 02000000 		.4byte	.LVL61
 16186 25ae 0100     		.2byte	0x1
 16187 25b0 50       		.byte	0x50
 16188 25b1 02000000 		.4byte	.LVL61
ARM GAS  C:\Users\USER\AppData\Local\Temp\ccNdlOSb.s 			page 285


 16189 25b5 04000000 		.4byte	.LFE119
 16190 25b9 0400     		.2byte	0x4
 16191 25bb F3       		.byte	0xf3
 16192 25bc 01       		.uleb128 0x1
 16193 25bd 50       		.byte	0x50
 16194 25be 9F       		.byte	0x9f
 16195 25bf 00000000 		.4byte	0
 16196 25c3 00000000 		.4byte	0
 16197              	.LVUS2:
 16198 25c7 00       		.uleb128 0
 16199 25c8 00       		.uleb128 .LVU190
 16200 25c9 00       		.uleb128 .LVU190
 16201 25ca 00       		.uleb128 0
 16202              	.LLST2:
 16203 25cb 00000000 		.4byte	.LVL54
 16204 25cf 0A000000 		.4byte	.LVL57
 16205 25d3 0100     		.2byte	0x1
 16206 25d5 51       		.byte	0x51
 16207 25d6 0A000000 		.4byte	.LVL57
 16208 25da 0E000000 		.4byte	.LFE116
 16209 25de 0400     		.2byte	0x4
 16210 25e0 F3       		.byte	0xf3
 16211 25e1 01       		.uleb128 0x1
 16212 25e2 51       		.byte	0x51
 16213 25e3 9F       		.byte	0x9f
 16214 25e4 00000000 		.4byte	0
 16215 25e8 00000000 		.4byte	0
 16216              	.LVUS3:
 16217 25ec 02       		.uleb128 .LVU181
 16218 25ed 00       		.uleb128 .LVU185
 16219 25ee 00       		.uleb128 .LVU185
 16220 25ef 00       		.uleb128 .LVU187
 16221 25f0 00       		.uleb128 .LVU187
 16222 25f1 01       		.uleb128 .LVU188
 16223 25f2 01       		.uleb128 .LVU188
 16224 25f3 00       		.uleb128 .LVU190
 16225 25f4 00       		.uleb128 .LVU190
 16226 25f5 00       		.uleb128 0
 16227              	.LLST3:
 16228 25f6 00000000 		.4byte	.LVL54
 16229 25fa 02000000 		.4byte	.LVL55
 16230 25fe 0200     		.2byte	0x2
 16231 2600 30       		.byte	0x30
 16232 2601 9F       		.byte	0x9f
 16233 2602 02000000 		.4byte	.LVL55
 16234 2606 08000000 		.4byte	.LVL56
 16235 260a 0100     		.2byte	0x1
 16236 260c 52       		.byte	0x52
 16237 260d 08000000 		.4byte	.LVL56
 16238 2611 08000000 		.4byte	.LVL56
 16239 2615 0100     		.2byte	0x1
 16240 2617 53       		.byte	0x53
 16241 2618 08000000 		.4byte	.LVL56
 16242 261c 0A000000 		.4byte	.LVL57
 16243 2620 0600     		.2byte	0x6
 16244 2622 71       		.byte	0x71
 16245 2623 00       		.sleb128 0
ARM GAS  C:\Users\USER\AppData\Local\Temp\ccNdlOSb.s 			page 286


 16246 2624 73       		.byte	0x73
 16247 2625 00       		.sleb128 0
 16248 2626 21       		.byte	0x21
 16249 2627 9F       		.byte	0x9f
 16250 2628 0A000000 		.4byte	.LVL57
 16251 262c 0E000000 		.4byte	.LFE116
 16252 2630 0700     		.2byte	0x7
 16253 2632 F3       		.byte	0xf3
 16254 2633 01       		.uleb128 0x1
 16255 2634 51       		.byte	0x51
 16256 2635 73       		.byte	0x73
 16257 2636 00       		.sleb128 0
 16258 2637 21       		.byte	0x21
 16259 2638 9F       		.byte	0x9f
 16260 2639 00000000 		.4byte	0
 16261 263d 00000000 		.4byte	0
 16262              	.LVUS1:
 16263 2641 02       		.uleb128 .LVU104
 16264 2642 00       		.uleb128 .LVU113
 16265 2643 00       		.uleb128 .LVU113
 16266 2644 00       		.uleb128 .LVU131
 16267 2645 00       		.uleb128 .LVU133
 16268 2646 01       		.uleb128 .LVU134
 16269 2647 01       		.uleb128 .LVU134
 16270 2648 00       		.uleb128 .LVU136
 16271 2649 00       		.uleb128 .LVU150
 16272 264a 01       		.uleb128 .LVU157
 16273              	.LLST1:
 16274 264b 00000000 		.4byte	.LVL43
 16275 264f 0A000000 		.4byte	.LVL44
 16276 2653 0200     		.2byte	0x2
 16277 2655 30       		.byte	0x30
 16278 2656 9F       		.byte	0x9f
 16279 2657 0A000000 		.4byte	.LVL44
 16280 265b 52000000 		.4byte	.LVL47
 16281 265f 0100     		.2byte	0x1
 16282 2661 53       		.byte	0x53
 16283 2662 58000000 		.4byte	.LVL48
 16284 2666 58000000 		.4byte	.LVL48
 16285 266a 0100     		.2byte	0x1
 16286 266c 53       		.byte	0x53
 16287 266d 58000000 		.4byte	.LVL48
 16288 2671 5A000000 		.4byte	.LVL49
 16289 2675 0800     		.2byte	0x8
 16290 2677 71       		.byte	0x71
 16291 2678 08       		.sleb128 8
 16292 2679 94       		.byte	0x94
 16293 267a 02       		.byte	0x2
 16294 267b 73       		.byte	0x73
 16295 267c 00       		.sleb128 0
 16296 267d 21       		.byte	0x21
 16297 267e 9F       		.byte	0x9f
 16298 267f 70000000 		.4byte	.LVL50
 16299 2683 76000000 		.4byte	.LVL51
 16300 2687 0100     		.2byte	0x1
 16301 2689 53       		.byte	0x53
 16302 268a 00000000 		.4byte	0
ARM GAS  C:\Users\USER\AppData\Local\Temp\ccNdlOSb.s 			page 287


 16303 268e 00000000 		.4byte	0
 16304              	.LVUS0:
 16305 2692 00       		.uleb128 0
 16306 2693 00       		.uleb128 .LVU33
 16307 2694 00       		.uleb128 .LVU33
 16308 2695 00       		.uleb128 .LVU37
 16309 2696 00       		.uleb128 .LVU37
 16310 2697 00       		.uleb128 .LVU38
 16311 2698 00       		.uleb128 .LVU38
 16312 2699 00       		.uleb128 .LVU42
 16313 269a 00       		.uleb128 .LVU42
 16314 269b 00       		.uleb128 .LVU43
 16315 269c 00       		.uleb128 .LVU43
 16316 269d 00       		.uleb128 .LVU47
 16317 269e 00       		.uleb128 .LVU47
 16318 269f 00       		.uleb128 .LVU48
 16319 26a0 00       		.uleb128 .LVU48
 16320 26a1 00       		.uleb128 .LVU52
 16321 26a2 00       		.uleb128 .LVU52
 16322 26a3 00       		.uleb128 .LVU53
 16323 26a4 00       		.uleb128 .LVU53
 16324 26a5 00       		.uleb128 .LVU57
 16325 26a6 00       		.uleb128 .LVU57
 16326 26a7 00       		.uleb128 .LVU58
 16327 26a8 00       		.uleb128 .LVU58
 16328 26a9 00       		.uleb128 .LVU62
 16329 26aa 00       		.uleb128 .LVU62
 16330 26ab 00       		.uleb128 .LVU63
 16331 26ac 00       		.uleb128 .LVU63
 16332 26ad 00       		.uleb128 .LVU67
 16333 26ae 00       		.uleb128 .LVU67
 16334 26af 00       		.uleb128 .LVU68
 16335 26b0 00       		.uleb128 .LVU68
 16336 26b1 00       		.uleb128 .LVU72
 16337 26b2 00       		.uleb128 .LVU72
 16338 26b3 00       		.uleb128 .LVU73
 16339 26b4 00       		.uleb128 .LVU73
 16340 26b5 00       		.uleb128 .LVU77
 16341 26b6 00       		.uleb128 .LVU77
 16342 26b7 00       		.uleb128 .LVU78
 16343 26b8 00       		.uleb128 .LVU78
 16344 26b9 00       		.uleb128 .LVU82
 16345 26ba 00       		.uleb128 .LVU82
 16346 26bb 00       		.uleb128 .LVU83
 16347 26bc 00       		.uleb128 .LVU83
 16348 26bd 00       		.uleb128 .LVU87
 16349 26be 00       		.uleb128 .LVU87
 16350 26bf 00       		.uleb128 .LVU88
 16351 26c0 00       		.uleb128 .LVU88
 16352 26c1 00       		.uleb128 .LVU92
 16353 26c2 00       		.uleb128 .LVU92
 16354 26c3 00       		.uleb128 .LVU93
 16355 26c4 00       		.uleb128 .LVU93
 16356 26c5 00       		.uleb128 .LVU97
 16357 26c6 00       		.uleb128 .LVU97
 16358 26c7 00       		.uleb128 .LVU98
 16359 26c8 00       		.uleb128 .LVU98
ARM GAS  C:\Users\USER\AppData\Local\Temp\ccNdlOSb.s 			page 288


 16360 26c9 00       		.uleb128 0
 16361              	.LLST0:
 16362 26ca 00000000 		.4byte	.LVL0
 16363 26ce 60000000 		.4byte	.LVL1
 16364 26d2 0100     		.2byte	0x1
 16365 26d4 50       		.byte	0x50
 16366 26d5 60000000 		.4byte	.LVL1
 16367 26d9 70000000 		.4byte	.LVL3
 16368 26dd 0400     		.2byte	0x4
 16369 26df F3       		.byte	0xf3
 16370 26e0 01       		.uleb128 0x1
 16371 26e1 50       		.byte	0x50
 16372 26e2 9F       		.byte	0x9f
 16373 26e3 70000000 		.4byte	.LVL3
 16374 26e7 74000000 		.4byte	.LVL4
 16375 26eb 0100     		.2byte	0x1
 16376 26ed 50       		.byte	0x50
 16377 26ee 74000000 		.4byte	.LVL4
 16378 26f2 84000000 		.4byte	.LVL6
 16379 26f6 0400     		.2byte	0x4
 16380 26f8 F3       		.byte	0xf3
 16381 26f9 01       		.uleb128 0x1
 16382 26fa 50       		.byte	0x50
 16383 26fb 9F       		.byte	0x9f
 16384 26fc 84000000 		.4byte	.LVL6
 16385 2700 88000000 		.4byte	.LVL7
 16386 2704 0100     		.2byte	0x1
 16387 2706 50       		.byte	0x50
 16388 2707 88000000 		.4byte	.LVL7
 16389 270b 98000000 		.4byte	.LVL9
 16390 270f 0400     		.2byte	0x4
 16391 2711 F3       		.byte	0xf3
 16392 2712 01       		.uleb128 0x1
 16393 2713 50       		.byte	0x50
 16394 2714 9F       		.byte	0x9f
 16395 2715 98000000 		.4byte	.LVL9
 16396 2719 9C000000 		.4byte	.LVL10
 16397 271d 0100     		.2byte	0x1
 16398 271f 50       		.byte	0x50
 16399 2720 9C000000 		.4byte	.LVL10
 16400 2724 AC000000 		.4byte	.LVL12
 16401 2728 0400     		.2byte	0x4
 16402 272a F3       		.byte	0xf3
 16403 272b 01       		.uleb128 0x1
 16404 272c 50       		.byte	0x50
 16405 272d 9F       		.byte	0x9f
 16406 272e AC000000 		.4byte	.LVL12
 16407 2732 B0000000 		.4byte	.LVL13
 16408 2736 0100     		.2byte	0x1
 16409 2738 50       		.byte	0x50
 16410 2739 B0000000 		.4byte	.LVL13
 16411 273d C0000000 		.4byte	.LVL15
 16412 2741 0400     		.2byte	0x4
 16413 2743 F3       		.byte	0xf3
 16414 2744 01       		.uleb128 0x1
 16415 2745 50       		.byte	0x50
 16416 2746 9F       		.byte	0x9f
ARM GAS  C:\Users\USER\AppData\Local\Temp\ccNdlOSb.s 			page 289


 16417 2747 C0000000 		.4byte	.LVL15
 16418 274b C4000000 		.4byte	.LVL16
 16419 274f 0100     		.2byte	0x1
 16420 2751 50       		.byte	0x50
 16421 2752 C4000000 		.4byte	.LVL16
 16422 2756 D4000000 		.4byte	.LVL18
 16423 275a 0400     		.2byte	0x4
 16424 275c F3       		.byte	0xf3
 16425 275d 01       		.uleb128 0x1
 16426 275e 50       		.byte	0x50
 16427 275f 9F       		.byte	0x9f
 16428 2760 D4000000 		.4byte	.LVL18
 16429 2764 D8000000 		.4byte	.LVL19
 16430 2768 0100     		.2byte	0x1
 16431 276a 50       		.byte	0x50
 16432 276b D8000000 		.4byte	.LVL19
 16433 276f E8000000 		.4byte	.LVL21
 16434 2773 0400     		.2byte	0x4
 16435 2775 F3       		.byte	0xf3
 16436 2776 01       		.uleb128 0x1
 16437 2777 50       		.byte	0x50
 16438 2778 9F       		.byte	0x9f
 16439 2779 E8000000 		.4byte	.LVL21
 16440 277d EE000000 		.4byte	.LVL22
 16441 2781 0100     		.2byte	0x1
 16442 2783 50       		.byte	0x50
 16443 2784 EE000000 		.4byte	.LVL22
 16444 2788 00010000 		.4byte	.LVL24
 16445 278c 0400     		.2byte	0x4
 16446 278e F3       		.byte	0xf3
 16447 278f 01       		.uleb128 0x1
 16448 2790 50       		.byte	0x50
 16449 2791 9F       		.byte	0x9f
 16450 2792 00010000 		.4byte	.LVL24
 16451 2796 04010000 		.4byte	.LVL25
 16452 279a 0100     		.2byte	0x1
 16453 279c 50       		.byte	0x50
 16454 279d 04010000 		.4byte	.LVL25
 16455 27a1 14010000 		.4byte	.LVL27
 16456 27a5 0400     		.2byte	0x4
 16457 27a7 F3       		.byte	0xf3
 16458 27a8 01       		.uleb128 0x1
 16459 27a9 50       		.byte	0x50
 16460 27aa 9F       		.byte	0x9f
 16461 27ab 14010000 		.4byte	.LVL27
 16462 27af 1A010000 		.4byte	.LVL28
 16463 27b3 0100     		.2byte	0x1
 16464 27b5 50       		.byte	0x50
 16465 27b6 1A010000 		.4byte	.LVL28
 16466 27ba 2C010000 		.4byte	.LVL30
 16467 27be 0400     		.2byte	0x4
 16468 27c0 F3       		.byte	0xf3
 16469 27c1 01       		.uleb128 0x1
 16470 27c2 50       		.byte	0x50
 16471 27c3 9F       		.byte	0x9f
 16472 27c4 2C010000 		.4byte	.LVL30
 16473 27c8 32010000 		.4byte	.LVL31
ARM GAS  C:\Users\USER\AppData\Local\Temp\ccNdlOSb.s 			page 290


 16474 27cc 0100     		.2byte	0x1
 16475 27ce 50       		.byte	0x50
 16476 27cf 32010000 		.4byte	.LVL31
 16477 27d3 44010000 		.4byte	.LVL33
 16478 27d7 0400     		.2byte	0x4
 16479 27d9 F3       		.byte	0xf3
 16480 27da 01       		.uleb128 0x1
 16481 27db 50       		.byte	0x50
 16482 27dc 9F       		.byte	0x9f
 16483 27dd 44010000 		.4byte	.LVL33
 16484 27e1 48010000 		.4byte	.LVL34
 16485 27e5 0100     		.2byte	0x1
 16486 27e7 50       		.byte	0x50
 16487 27e8 48010000 		.4byte	.LVL34
 16488 27ec 58010000 		.4byte	.LVL36
 16489 27f0 0400     		.2byte	0x4
 16490 27f2 F3       		.byte	0xf3
 16491 27f3 01       		.uleb128 0x1
 16492 27f4 50       		.byte	0x50
 16493 27f5 9F       		.byte	0x9f
 16494 27f6 58010000 		.4byte	.LVL36
 16495 27fa 5C010000 		.4byte	.LVL37
 16496 27fe 0100     		.2byte	0x1
 16497 2800 50       		.byte	0x50
 16498 2801 5C010000 		.4byte	.LVL37
 16499 2805 6C010000 		.4byte	.LVL39
 16500 2809 0400     		.2byte	0x4
 16501 280b F3       		.byte	0xf3
 16502 280c 01       		.uleb128 0x1
 16503 280d 50       		.byte	0x50
 16504 280e 9F       		.byte	0x9f
 16505 280f 6C010000 		.4byte	.LVL39
 16506 2813 72010000 		.4byte	.LVL40
 16507 2817 0100     		.2byte	0x1
 16508 2819 50       		.byte	0x50
 16509 281a 72010000 		.4byte	.LVL40
 16510 281e B8010000 		.4byte	.LFE112
 16511 2822 0400     		.2byte	0x4
 16512 2824 F3       		.byte	0xf3
 16513 2825 01       		.uleb128 0x1
 16514 2826 50       		.byte	0x50
 16515 2827 9F       		.byte	0x9f
 16516 2828 00000000 		.4byte	0
 16517 282c 00000000 		.4byte	0
 16518              	.LVUS158:
 16519 2830 00       		.uleb128 0
 16520 2831 00       		.uleb128 .LVU1337
 16521 2832 00       		.uleb128 .LVU1337
 16522 2833 00       		.uleb128 0
 16523              	.LLST158:
 16524 2834 00000000 		.4byte	.LVL330
 16525 2838 0E000000 		.4byte	.LVL331
 16526 283c 0100     		.2byte	0x1
 16527 283e 51       		.byte	0x51
 16528 283f 0E000000 		.4byte	.LVL331
 16529 2843 12000000 		.4byte	.LFE169
 16530 2847 0400     		.2byte	0x4
ARM GAS  C:\Users\USER\AppData\Local\Temp\ccNdlOSb.s 			page 291


 16531 2849 F3       		.byte	0xf3
 16532 284a 01       		.uleb128 0x1
 16533 284b 51       		.byte	0x51
 16534 284c 9F       		.byte	0x9f
 16535 284d 00000000 		.4byte	0
 16536 2851 00000000 		.4byte	0
 16537              	.LVUS159:
 16538 2855 00       		.uleb128 0
 16539 2856 00       		.uleb128 .LVU1347
 16540 2857 00       		.uleb128 .LVU1347
 16541 2858 00       		.uleb128 0
 16542              	.LLST159:
 16543 2859 00000000 		.4byte	.LVL332
 16544 285d 0E000000 		.4byte	.LVL333
 16545 2861 0100     		.2byte	0x1
 16546 2863 51       		.byte	0x51
 16547 2864 0E000000 		.4byte	.LVL333
 16548 2868 16000000 		.4byte	.LFE170
 16549 286c 0400     		.2byte	0x4
 16550 286e F3       		.byte	0xf3
 16551 286f 01       		.uleb128 0x1
 16552 2870 51       		.byte	0x51
 16553 2871 9F       		.byte	0x9f
 16554 2872 00000000 		.4byte	0
 16555 2876 00000000 		.4byte	0
 16556              	.LVUS160:
 16557 287a 00       		.uleb128 0
 16558 287b 00       		.uleb128 .LVU1357
 16559 287c 00       		.uleb128 .LVU1357
 16560 287d 00       		.uleb128 0
 16561              	.LLST160:
 16562 287e 00000000 		.4byte	.LVL334
 16563 2882 0E000000 		.4byte	.LVL335
 16564 2886 0100     		.2byte	0x1
 16565 2888 51       		.byte	0x51
 16566 2889 0E000000 		.4byte	.LVL335
 16567 288d 12000000 		.4byte	.LFE171
 16568 2891 0400     		.2byte	0x4
 16569 2893 F3       		.byte	0xf3
 16570 2894 01       		.uleb128 0x1
 16571 2895 51       		.byte	0x51
 16572 2896 9F       		.byte	0x9f
 16573 2897 00000000 		.4byte	0
 16574 289b 00000000 		.4byte	0
 16575              	.LVUS161:
 16576 289f 00       		.uleb128 0
 16577 28a0 00       		.uleb128 .LVU1367
 16578 28a1 00       		.uleb128 .LVU1367
 16579 28a2 00       		.uleb128 0
 16580              	.LLST161:
 16581 28a3 00000000 		.4byte	.LVL336
 16582 28a7 0E000000 		.4byte	.LVL337
 16583 28ab 0100     		.2byte	0x1
 16584 28ad 51       		.byte	0x51
 16585 28ae 0E000000 		.4byte	.LVL337
 16586 28b2 16000000 		.4byte	.LFE172
 16587 28b6 0400     		.2byte	0x4
ARM GAS  C:\Users\USER\AppData\Local\Temp\ccNdlOSb.s 			page 292


 16588 28b8 F3       		.byte	0xf3
 16589 28b9 01       		.uleb128 0x1
 16590 28ba 51       		.byte	0x51
 16591 28bb 9F       		.byte	0x9f
 16592 28bc 00000000 		.4byte	0
 16593 28c0 00000000 		.4byte	0
 16594              	.LVUS165:
 16595 28c4 00       		.uleb128 0
 16596 28c5 00       		.uleb128 .LVU1467
 16597 28c6 00       		.uleb128 .LVU1467
 16598 28c7 00       		.uleb128 0
 16599              	.LLST165:
 16600 28c8 00000000 		.4byte	.LVL351
 16601 28cc 02000000 		.4byte	.LVL352
 16602 28d0 0100     		.2byte	0x1
 16603 28d2 51       		.byte	0x51
 16604 28d3 02000000 		.4byte	.LVL352
 16605 28d7 08000000 		.4byte	.LFE181
 16606 28db 0400     		.2byte	0x4
 16607 28dd F3       		.byte	0xf3
 16608 28de 01       		.uleb128 0x1
 16609 28df 51       		.byte	0x51
 16610 28e0 9F       		.byte	0x9f
 16611 28e1 00000000 		.4byte	0
 16612 28e5 00000000 		.4byte	0
 16613              	.LVUS208:
 16614 28e9 00       		.uleb128 0
 16615 28ea 00       		.uleb128 .LVU1689
 16616 28eb 00       		.uleb128 .LVU1689
 16617 28ec 00       		.uleb128 0
 16618              	.LLST208:
 16619 28ed 00000000 		.4byte	.LVL412
 16620 28f1 0A000000 		.4byte	.LVL415
 16621 28f5 0100     		.2byte	0x1
 16622 28f7 51       		.byte	0x51
 16623 28f8 0A000000 		.4byte	.LVL415
 16624 28fc 0E000000 		.4byte	.LFE192
 16625 2900 0400     		.2byte	0x4
 16626 2902 F3       		.byte	0xf3
 16627 2903 01       		.uleb128 0x1
 16628 2904 51       		.byte	0x51
 16629 2905 9F       		.byte	0x9f
 16630 2906 00000000 		.4byte	0
 16631 290a 00000000 		.4byte	0
 16632              	.LVUS209:
 16633 290e 02       		.uleb128 .LVU1680
 16634 290f 00       		.uleb128 .LVU1684
 16635 2910 00       		.uleb128 .LVU1684
 16636 2911 00       		.uleb128 .LVU1686
 16637 2912 00       		.uleb128 .LVU1686
 16638 2913 01       		.uleb128 .LVU1687
 16639 2914 01       		.uleb128 .LVU1687
 16640 2915 00       		.uleb128 .LVU1689
 16641 2916 00       		.uleb128 .LVU1689
 16642 2917 00       		.uleb128 0
 16643              	.LLST209:
 16644 2918 00000000 		.4byte	.LVL412
ARM GAS  C:\Users\USER\AppData\Local\Temp\ccNdlOSb.s 			page 293


 16645 291c 02000000 		.4byte	.LVL413
 16646 2920 0200     		.2byte	0x2
 16647 2922 30       		.byte	0x30
 16648 2923 9F       		.byte	0x9f
 16649 2924 02000000 		.4byte	.LVL413
 16650 2928 08000000 		.4byte	.LVL414
 16651 292c 0100     		.2byte	0x1
 16652 292e 52       		.byte	0x52
 16653 292f 08000000 		.4byte	.LVL414
 16654 2933 08000000 		.4byte	.LVL414
 16655 2937 0100     		.2byte	0x1
 16656 2939 53       		.byte	0x53
 16657 293a 08000000 		.4byte	.LVL414
 16658 293e 0A000000 		.4byte	.LVL415
 16659 2942 0600     		.2byte	0x6
 16660 2944 71       		.byte	0x71
 16661 2945 00       		.sleb128 0
 16662 2946 73       		.byte	0x73
 16663 2947 00       		.sleb128 0
 16664 2948 21       		.byte	0x21
 16665 2949 9F       		.byte	0x9f
 16666 294a 0A000000 		.4byte	.LVL415
 16667 294e 0E000000 		.4byte	.LFE192
 16668 2952 0700     		.2byte	0x7
 16669 2954 F3       		.byte	0xf3
 16670 2955 01       		.uleb128 0x1
 16671 2956 51       		.byte	0x51
 16672 2957 73       		.byte	0x73
 16673 2958 00       		.sleb128 0
 16674 2959 21       		.byte	0x21
 16675 295a 9F       		.byte	0x9f
 16676 295b 00000000 		.4byte	0
 16677 295f 00000000 		.4byte	0
 16678              	.LVUS213:
 16679 2963 00       		.uleb128 0
 16680 2964 00       		.uleb128 .LVU1729
 16681 2965 00       		.uleb128 .LVU1729
 16682 2966 00       		.uleb128 0
 16683              	.LLST213:
 16684 2967 00000000 		.4byte	.LVL422
 16685 296b 06000000 		.4byte	.LVL424
 16686 296f 0100     		.2byte	0x1
 16687 2971 52       		.byte	0x52
 16688 2972 06000000 		.4byte	.LVL424
 16689 2976 18000000 		.4byte	.LFE196
 16690 297a 0400     		.2byte	0x4
 16691 297c F3       		.byte	0xf3
 16692 297d 01       		.uleb128 0x1
 16693 297e 52       		.byte	0x52
 16694 297f 9F       		.byte	0x9f
 16695 2980 00000000 		.4byte	0
 16696 2984 00000000 		.4byte	0
 16697              	.LVUS214:
 16698 2988 00       		.uleb128 0
 16699 2989 00       		.uleb128 .LVU1730
 16700 298a 00       		.uleb128 .LVU1730
 16701 298b 00       		.uleb128 0
ARM GAS  C:\Users\USER\AppData\Local\Temp\ccNdlOSb.s 			page 294


 16702              	.LLST214:
 16703 298c 00000000 		.4byte	.LVL422
 16704 2990 0A000000 		.4byte	.LVL425
 16705 2994 0100     		.2byte	0x1
 16706 2996 53       		.byte	0x53
 16707 2997 0A000000 		.4byte	.LVL425
 16708 299b 18000000 		.4byte	.LFE196
 16709 299f 0400     		.2byte	0x4
 16710 29a1 F3       		.byte	0xf3
 16711 29a2 01       		.uleb128 0x1
 16712 29a3 53       		.byte	0x53
 16713 29a4 9F       		.byte	0x9f
 16714 29a5 00000000 		.4byte	0
 16715 29a9 00000000 		.4byte	0
 16716              	.LVUS215:
 16717 29ad 02       		.uleb128 .LVU1720
 16718 29ae 00       		.uleb128 .LVU1727
 16719 29af 00       		.uleb128 .LVU1727
 16720 29b0 01       		.uleb128 .LVU1732
 16721 29b1 01       		.uleb128 .LVU1732
 16722 29b2 00       		.uleb128 .LVU1734
 16723              	.LLST215:
 16724 29b3 00000000 		.4byte	.LVL422
 16725 29b7 04000000 		.4byte	.LVL423
 16726 29bb 0200     		.2byte	0x2
 16727 29bd 30       		.byte	0x30
 16728 29be 9F       		.byte	0x9f
 16729 29bf 04000000 		.4byte	.LVL423
 16730 29c3 0C000000 		.4byte	.LVL426
 16731 29c7 0100     		.2byte	0x1
 16732 29c9 54       		.byte	0x54
 16733 29ca 0C000000 		.4byte	.LVL426
 16734 29ce 0E000000 		.4byte	.LVL427
 16735 29d2 1000     		.2byte	0x10
 16736 29d4 F3       		.byte	0xf3
 16737 29d5 01       		.uleb128 0x1
 16738 29d6 53       		.byte	0x53
 16739 29d7 38       		.byte	0x38
 16740 29d8 24       		.byte	0x24
 16741 29d9 71       		.byte	0x71
 16742 29da 00       		.sleb128 0
 16743 29db 21       		.byte	0x21
 16744 29dc F3       		.byte	0xf3
 16745 29dd 01       		.uleb128 0x1
 16746 29de 52       		.byte	0x52
 16747 29df 21       		.byte	0x21
 16748 29e0 74       		.byte	0x74
 16749 29e1 00       		.sleb128 0
 16750 29e2 21       		.byte	0x21
 16751 29e3 9F       		.byte	0x9f
 16752 29e4 00000000 		.4byte	0
 16753 29e8 00000000 		.4byte	0
 16754              		.section	.debug_aranges,"",%progbits
 16755 0000 C4020000 		.4byte	0x2c4
 16756 0004 0200     		.2byte	0x2
 16757 0006 00000000 		.4byte	.Ldebug_info0
 16758 000a 04       		.byte	0x4
ARM GAS  C:\Users\USER\AppData\Local\Temp\ccNdlOSb.s 			page 295


 16759 000b 00       		.byte	0
 16760 000c 0000     		.2byte	0
 16761 000e 0000     		.2byte	0
 16762 0010 00000000 		.4byte	.LFB112
 16763 0014 B8010000 		.4byte	.LFE112-.LFB112
 16764 0018 00000000 		.4byte	.LFB113
 16765 001c 94000000 		.4byte	.LFE113-.LFB113
 16766 0020 00000000 		.4byte	.LFB114
 16767 0024 10000000 		.4byte	.LFE114-.LFB114
 16768 0028 00000000 		.4byte	.LFB115
 16769 002c 06000000 		.4byte	.LFE115-.LFB115
 16770 0030 00000000 		.4byte	.LFB116
 16771 0034 0E000000 		.4byte	.LFE116-.LFB116
 16772 0038 00000000 		.4byte	.LFB117
 16773 003c 04000000 		.4byte	.LFE117-.LFB117
 16774 0040 00000000 		.4byte	.LFB118
 16775 0044 04000000 		.4byte	.LFE118-.LFB118
 16776 0048 00000000 		.4byte	.LFB119
 16777 004c 04000000 		.4byte	.LFE119-.LFB119
 16778 0050 00000000 		.4byte	.LFB120
 16779 0054 06000000 		.4byte	.LFE120-.LFB120
 16780 0058 00000000 		.4byte	.LFB121
 16781 005c 16000000 		.4byte	.LFE121-.LFB121
 16782 0060 00000000 		.4byte	.LFB122
 16783 0064 16000000 		.4byte	.LFE122-.LFB122
 16784 0068 00000000 		.4byte	.LFB123
 16785 006c 16000000 		.4byte	.LFE123-.LFB123
 16786 0070 00000000 		.4byte	.LFB124
 16787 0074 12000000 		.4byte	.LFE124-.LFB124
 16788 0078 00000000 		.4byte	.LFB125
 16789 007c 12000000 		.4byte	.LFE125-.LFB125
 16790 0080 00000000 		.4byte	.LFB126
 16791 0084 16000000 		.4byte	.LFE126-.LFB126
 16792 0088 00000000 		.4byte	.LFB127
 16793 008c 70000000 		.4byte	.LFE127-.LFB127
 16794 0090 00000000 		.4byte	.LFB128
 16795 0094 84000000 		.4byte	.LFE128-.LFB128
 16796 0098 00000000 		.4byte	.LFB129
 16797 009c 84000000 		.4byte	.LFE129-.LFB129
 16798 00a0 00000000 		.4byte	.LFB130
 16799 00a4 68000000 		.4byte	.LFE130-.LFB130
 16800 00a8 00000000 		.4byte	.LFB131
 16801 00ac 0E000000 		.4byte	.LFE131-.LFB131
 16802 00b0 00000000 		.4byte	.LFB132
 16803 00b4 50000000 		.4byte	.LFE132-.LFB132
 16804 00b8 00000000 		.4byte	.LFB133
 16805 00bc 04000000 		.4byte	.LFE133-.LFB133
 16806 00c0 00000000 		.4byte	.LFB134
 16807 00c4 04000000 		.4byte	.LFE134-.LFB134
 16808 00c8 00000000 		.4byte	.LFB135
 16809 00cc 04000000 		.4byte	.LFE135-.LFB135
 16810 00d0 00000000 		.4byte	.LFB136
 16811 00d4 04000000 		.4byte	.LFE136-.LFB136
 16812 00d8 00000000 		.4byte	.LFB137
 16813 00dc 0E000000 		.4byte	.LFE137-.LFB137
 16814 00e0 00000000 		.4byte	.LFB138
 16815 00e4 12000000 		.4byte	.LFE138-.LFB138
ARM GAS  C:\Users\USER\AppData\Local\Temp\ccNdlOSb.s 			page 296


 16816 00e8 00000000 		.4byte	.LFB139
 16817 00ec 0E000000 		.4byte	.LFE139-.LFB139
 16818 00f0 00000000 		.4byte	.LFB140
 16819 00f4 12000000 		.4byte	.LFE140-.LFB140
 16820 00f8 00000000 		.4byte	.LFB141
 16821 00fc 0E000000 		.4byte	.LFE141-.LFB141
 16822 0100 00000000 		.4byte	.LFB142
 16823 0104 12000000 		.4byte	.LFE142-.LFB142
 16824 0108 00000000 		.4byte	.LFB143
 16825 010c 0E000000 		.4byte	.LFE143-.LFB143
 16826 0110 00000000 		.4byte	.LFB144
 16827 0114 12000000 		.4byte	.LFE144-.LFB144
 16828 0118 00000000 		.4byte	.LFB145
 16829 011c 0E000000 		.4byte	.LFE145-.LFB145
 16830 0120 00000000 		.4byte	.LFB146
 16831 0124 12000000 		.4byte	.LFE146-.LFB146
 16832 0128 00000000 		.4byte	.LFB147
 16833 012c 0E000000 		.4byte	.LFE147-.LFB147
 16834 0130 00000000 		.4byte	.LFB148
 16835 0134 12000000 		.4byte	.LFE148-.LFB148
 16836 0138 00000000 		.4byte	.LFB149
 16837 013c 0E000000 		.4byte	.LFE149-.LFB149
 16838 0140 00000000 		.4byte	.LFB150
 16839 0144 10000000 		.4byte	.LFE150-.LFB150
 16840 0148 00000000 		.4byte	.LFB151
 16841 014c 0E000000 		.4byte	.LFE151-.LFB151
 16842 0150 00000000 		.4byte	.LFB152
 16843 0154 10000000 		.4byte	.LFE152-.LFB152
 16844 0158 00000000 		.4byte	.LFB153
 16845 015c 0E000000 		.4byte	.LFE153-.LFB153
 16846 0160 00000000 		.4byte	.LFB154
 16847 0164 0E000000 		.4byte	.LFE154-.LFB154
 16848 0168 00000000 		.4byte	.LFB155
 16849 016c 12000000 		.4byte	.LFE155-.LFB155
 16850 0170 00000000 		.4byte	.LFB156
 16851 0174 12000000 		.4byte	.LFE156-.LFB156
 16852 0178 00000000 		.4byte	.LFB157
 16853 017c 12000000 		.4byte	.LFE157-.LFB157
 16854 0180 00000000 		.4byte	.LFB158
 16855 0184 12000000 		.4byte	.LFE158-.LFB158
 16856 0188 00000000 		.4byte	.LFB159
 16857 018c 12000000 		.4byte	.LFE159-.LFB159
 16858 0190 00000000 		.4byte	.LFB160
 16859 0194 22000000 		.4byte	.LFE160-.LFB160
 16860 0198 00000000 		.4byte	.LFB161
 16861 019c 22000000 		.4byte	.LFE161-.LFB161
 16862 01a0 00000000 		.4byte	.LFB162
 16863 01a4 2A010000 		.4byte	.LFE162-.LFB162
 16864 01a8 00000000 		.4byte	.LFB163
 16865 01ac 10000000 		.4byte	.LFE163-.LFB163
 16866 01b0 00000000 		.4byte	.LFB164
 16867 01b4 42010000 		.4byte	.LFE164-.LFB164
 16868 01b8 00000000 		.4byte	.LFB165
 16869 01bc 04000000 		.4byte	.LFE165-.LFB165
 16870 01c0 00000000 		.4byte	.LFB166
 16871 01c4 04000000 		.4byte	.LFE166-.LFB166
 16872 01c8 00000000 		.4byte	.LFB167
ARM GAS  C:\Users\USER\AppData\Local\Temp\ccNdlOSb.s 			page 297


 16873 01cc 04000000 		.4byte	.LFE167-.LFB167
 16874 01d0 00000000 		.4byte	.LFB168
 16875 01d4 04000000 		.4byte	.LFE168-.LFB168
 16876 01d8 00000000 		.4byte	.LFB169
 16877 01dc 12000000 		.4byte	.LFE169-.LFB169
 16878 01e0 00000000 		.4byte	.LFB170
 16879 01e4 16000000 		.4byte	.LFE170-.LFB170
 16880 01e8 00000000 		.4byte	.LFB171
 16881 01ec 12000000 		.4byte	.LFE171-.LFB171
 16882 01f0 00000000 		.4byte	.LFB172
 16883 01f4 16000000 		.4byte	.LFE172-.LFB172
 16884 01f8 00000000 		.4byte	.LFB173
 16885 01fc 22000000 		.4byte	.LFE173-.LFB173
 16886 0200 00000000 		.4byte	.LFB174
 16887 0204 12000000 		.4byte	.LFE174-.LFB174
 16888 0208 00000000 		.4byte	.LFB175
 16889 020c 14000000 		.4byte	.LFE175-.LFB175
 16890 0210 00000000 		.4byte	.LFB176
 16891 0214 16000000 		.4byte	.LFE176-.LFB176
 16892 0218 00000000 		.4byte	.LFB177
 16893 021c 16000000 		.4byte	.LFE177-.LFB177
 16894 0220 00000000 		.4byte	.LFB178
 16895 0224 16000000 		.4byte	.LFE178-.LFB178
 16896 0228 00000000 		.4byte	.LFB179
 16897 022c 04000000 		.4byte	.LFE179-.LFB179
 16898 0230 00000000 		.4byte	.LFB180
 16899 0234 0C000000 		.4byte	.LFE180-.LFB180
 16900 0238 00000000 		.4byte	.LFB181
 16901 023c 08000000 		.4byte	.LFE181-.LFB181
 16902 0240 00000000 		.4byte	.LFB182
 16903 0244 14000000 		.4byte	.LFE182-.LFB182
 16904 0248 00000000 		.4byte	.LFB184
 16905 024c 06000000 		.4byte	.LFE184-.LFB184
 16906 0250 00000000 		.4byte	.LFB186
 16907 0254 16000000 		.4byte	.LFE186-.LFB186
 16908 0258 00000000 		.4byte	.LFB187
 16909 025c 0C000000 		.4byte	.LFE187-.LFB187
 16910 0260 00000000 		.4byte	.LFB188
 16911 0264 16000000 		.4byte	.LFE188-.LFB188
 16912 0268 00000000 		.4byte	.LFB189
 16913 026c 7E000000 		.4byte	.LFE189-.LFB189
 16914 0270 00000000 		.4byte	.LFB190
 16915 0274 26000000 		.4byte	.LFE190-.LFB190
 16916 0278 00000000 		.4byte	.LFB191
 16917 027c 20000000 		.4byte	.LFE191-.LFB191
 16918 0280 00000000 		.4byte	.LFB192
 16919 0284 0E000000 		.4byte	.LFE192-.LFB192
 16920 0288 00000000 		.4byte	.LFB193
 16921 028c 12000000 		.4byte	.LFE193-.LFB193
 16922 0290 00000000 		.4byte	.LFB194
 16923 0294 12000000 		.4byte	.LFE194-.LFB194
 16924 0298 00000000 		.4byte	.LFB195
 16925 029c 12000000 		.4byte	.LFE195-.LFB195
 16926 02a0 00000000 		.4byte	.LFB196
 16927 02a4 18000000 		.4byte	.LFE196-.LFB196
 16928 02a8 00000000 		.4byte	.LFB197
 16929 02ac 3A000000 		.4byte	.LFE197-.LFB197
ARM GAS  C:\Users\USER\AppData\Local\Temp\ccNdlOSb.s 			page 298


 16930 02b0 00000000 		.4byte	.LFB198
 16931 02b4 16000000 		.4byte	.LFE198-.LFB198
 16932 02b8 00000000 		.4byte	.LFB199
 16933 02bc 04000000 		.4byte	.LFE199-.LFB199
 16934 02c0 00000000 		.4byte	0
 16935 02c4 00000000 		.4byte	0
 16936              		.section	.debug_ranges,"",%progbits
 16937              	.Ldebug_ranges0:
 16938 0000 0A000000 		.4byte	.LBB46
 16939 0004 0E000000 		.4byte	.LBE46
 16940 0008 10000000 		.4byte	.LBB49
 16941 000c 3A000000 		.4byte	.LBE49
 16942 0010 00000000 		.4byte	0
 16943 0014 00000000 		.4byte	0
 16944 0018 04000000 		.4byte	.LBB82
 16945 001c 06000000 		.4byte	.LBE82
 16946 0020 4C000000 		.4byte	.LBB89
 16947 0024 7E000000 		.4byte	.LBE89
 16948 0028 00000000 		.4byte	0
 16949 002c 00000000 		.4byte	0
 16950 0030 00000000 		.4byte	.LBB90
 16951 0034 00000000 		.4byte	.LBE90
 16952 0038 02000000 		.4byte	.LBB93
 16953 003c 12000000 		.4byte	.LBE93
 16954 0040 00000000 		.4byte	0
 16955 0044 00000000 		.4byte	0
 16956 0048 00000000 		.4byte	.LBB94
 16957 004c 00000000 		.4byte	.LBE94
 16958 0050 02000000 		.4byte	.LBB97
 16959 0054 12000000 		.4byte	.LBE97
 16960 0058 00000000 		.4byte	0
 16961 005c 00000000 		.4byte	0
 16962 0060 00000000 		.4byte	.LFB112
 16963 0064 B8010000 		.4byte	.LFE112
 16964 0068 00000000 		.4byte	.LFB113
 16965 006c 94000000 		.4byte	.LFE113
 16966 0070 00000000 		.4byte	.LFB114
 16967 0074 10000000 		.4byte	.LFE114
 16968 0078 00000000 		.4byte	.LFB115
 16969 007c 06000000 		.4byte	.LFE115
 16970 0080 00000000 		.4byte	.LFB116
 16971 0084 0E000000 		.4byte	.LFE116
 16972 0088 00000000 		.4byte	.LFB117
 16973 008c 04000000 		.4byte	.LFE117
 16974 0090 00000000 		.4byte	.LFB118
 16975 0094 04000000 		.4byte	.LFE118
 16976 0098 00000000 		.4byte	.LFB119
 16977 009c 04000000 		.4byte	.LFE119
 16978 00a0 00000000 		.4byte	.LFB120
 16979 00a4 06000000 		.4byte	.LFE120
 16980 00a8 00000000 		.4byte	.LFB121
 16981 00ac 16000000 		.4byte	.LFE121
 16982 00b0 00000000 		.4byte	.LFB122
 16983 00b4 16000000 		.4byte	.LFE122
 16984 00b8 00000000 		.4byte	.LFB123
 16985 00bc 16000000 		.4byte	.LFE123
 16986 00c0 00000000 		.4byte	.LFB124
ARM GAS  C:\Users\USER\AppData\Local\Temp\ccNdlOSb.s 			page 299


 16987 00c4 12000000 		.4byte	.LFE124
 16988 00c8 00000000 		.4byte	.LFB125
 16989 00cc 12000000 		.4byte	.LFE125
 16990 00d0 00000000 		.4byte	.LFB126
 16991 00d4 16000000 		.4byte	.LFE126
 16992 00d8 00000000 		.4byte	.LFB127
 16993 00dc 70000000 		.4byte	.LFE127
 16994 00e0 00000000 		.4byte	.LFB128
 16995 00e4 84000000 		.4byte	.LFE128
 16996 00e8 00000000 		.4byte	.LFB129
 16997 00ec 84000000 		.4byte	.LFE129
 16998 00f0 00000000 		.4byte	.LFB130
 16999 00f4 68000000 		.4byte	.LFE130
 17000 00f8 00000000 		.4byte	.LFB131
 17001 00fc 0E000000 		.4byte	.LFE131
 17002 0100 00000000 		.4byte	.LFB132
 17003 0104 50000000 		.4byte	.LFE132
 17004 0108 00000000 		.4byte	.LFB133
 17005 010c 04000000 		.4byte	.LFE133
 17006 0110 00000000 		.4byte	.LFB134
 17007 0114 04000000 		.4byte	.LFE134
 17008 0118 00000000 		.4byte	.LFB135
 17009 011c 04000000 		.4byte	.LFE135
 17010 0120 00000000 		.4byte	.LFB136
 17011 0124 04000000 		.4byte	.LFE136
 17012 0128 00000000 		.4byte	.LFB137
 17013 012c 0E000000 		.4byte	.LFE137
 17014 0130 00000000 		.4byte	.LFB138
 17015 0134 12000000 		.4byte	.LFE138
 17016 0138 00000000 		.4byte	.LFB139
 17017 013c 0E000000 		.4byte	.LFE139
 17018 0140 00000000 		.4byte	.LFB140
 17019 0144 12000000 		.4byte	.LFE140
 17020 0148 00000000 		.4byte	.LFB141
 17021 014c 0E000000 		.4byte	.LFE141
 17022 0150 00000000 		.4byte	.LFB142
 17023 0154 12000000 		.4byte	.LFE142
 17024 0158 00000000 		.4byte	.LFB143
 17025 015c 0E000000 		.4byte	.LFE143
 17026 0160 00000000 		.4byte	.LFB144
 17027 0164 12000000 		.4byte	.LFE144
 17028 0168 00000000 		.4byte	.LFB145
 17029 016c 0E000000 		.4byte	.LFE145
 17030 0170 00000000 		.4byte	.LFB146
 17031 0174 12000000 		.4byte	.LFE146
 17032 0178 00000000 		.4byte	.LFB147
 17033 017c 0E000000 		.4byte	.LFE147
 17034 0180 00000000 		.4byte	.LFB148
 17035 0184 12000000 		.4byte	.LFE148
 17036 0188 00000000 		.4byte	.LFB149
 17037 018c 0E000000 		.4byte	.LFE149
 17038 0190 00000000 		.4byte	.LFB150
 17039 0194 10000000 		.4byte	.LFE150
 17040 0198 00000000 		.4byte	.LFB151
 17041 019c 0E000000 		.4byte	.LFE151
 17042 01a0 00000000 		.4byte	.LFB152
 17043 01a4 10000000 		.4byte	.LFE152
ARM GAS  C:\Users\USER\AppData\Local\Temp\ccNdlOSb.s 			page 300


 17044 01a8 00000000 		.4byte	.LFB153
 17045 01ac 0E000000 		.4byte	.LFE153
 17046 01b0 00000000 		.4byte	.LFB154
 17047 01b4 0E000000 		.4byte	.LFE154
 17048 01b8 00000000 		.4byte	.LFB155
 17049 01bc 12000000 		.4byte	.LFE155
 17050 01c0 00000000 		.4byte	.LFB156
 17051 01c4 12000000 		.4byte	.LFE156
 17052 01c8 00000000 		.4byte	.LFB157
 17053 01cc 12000000 		.4byte	.LFE157
 17054 01d0 00000000 		.4byte	.LFB158
 17055 01d4 12000000 		.4byte	.LFE158
 17056 01d8 00000000 		.4byte	.LFB159
 17057 01dc 12000000 		.4byte	.LFE159
 17058 01e0 00000000 		.4byte	.LFB160
 17059 01e4 22000000 		.4byte	.LFE160
 17060 01e8 00000000 		.4byte	.LFB161
 17061 01ec 22000000 		.4byte	.LFE161
 17062 01f0 00000000 		.4byte	.LFB162
 17063 01f4 2A010000 		.4byte	.LFE162
 17064 01f8 00000000 		.4byte	.LFB163
 17065 01fc 10000000 		.4byte	.LFE163
 17066 0200 00000000 		.4byte	.LFB164
 17067 0204 42010000 		.4byte	.LFE164
 17068 0208 00000000 		.4byte	.LFB165
 17069 020c 04000000 		.4byte	.LFE165
 17070 0210 00000000 		.4byte	.LFB166
 17071 0214 04000000 		.4byte	.LFE166
 17072 0218 00000000 		.4byte	.LFB167
 17073 021c 04000000 		.4byte	.LFE167
 17074 0220 00000000 		.4byte	.LFB168
 17075 0224 04000000 		.4byte	.LFE168
 17076 0228 00000000 		.4byte	.LFB169
 17077 022c 12000000 		.4byte	.LFE169
 17078 0230 00000000 		.4byte	.LFB170
 17079 0234 16000000 		.4byte	.LFE170
 17080 0238 00000000 		.4byte	.LFB171
 17081 023c 12000000 		.4byte	.LFE171
 17082 0240 00000000 		.4byte	.LFB172
 17083 0244 16000000 		.4byte	.LFE172
 17084 0248 00000000 		.4byte	.LFB173
 17085 024c 22000000 		.4byte	.LFE173
 17086 0250 00000000 		.4byte	.LFB174
 17087 0254 12000000 		.4byte	.LFE174
 17088 0258 00000000 		.4byte	.LFB175
 17089 025c 14000000 		.4byte	.LFE175
 17090 0260 00000000 		.4byte	.LFB176
 17091 0264 16000000 		.4byte	.LFE176
 17092 0268 00000000 		.4byte	.LFB177
 17093 026c 16000000 		.4byte	.LFE177
 17094 0270 00000000 		.4byte	.LFB178
 17095 0274 16000000 		.4byte	.LFE178
 17096 0278 00000000 		.4byte	.LFB179
 17097 027c 04000000 		.4byte	.LFE179
 17098 0280 00000000 		.4byte	.LFB180
 17099 0284 0C000000 		.4byte	.LFE180
 17100 0288 00000000 		.4byte	.LFB181
ARM GAS  C:\Users\USER\AppData\Local\Temp\ccNdlOSb.s 			page 301


 17101 028c 08000000 		.4byte	.LFE181
 17102 0290 00000000 		.4byte	.LFB182
 17103 0294 14000000 		.4byte	.LFE182
 17104 0298 00000000 		.4byte	.LFB184
 17105 029c 06000000 		.4byte	.LFE184
 17106 02a0 00000000 		.4byte	.LFB186
 17107 02a4 16000000 		.4byte	.LFE186
 17108 02a8 00000000 		.4byte	.LFB187
 17109 02ac 0C000000 		.4byte	.LFE187
 17110 02b0 00000000 		.4byte	.LFB188
 17111 02b4 16000000 		.4byte	.LFE188
 17112 02b8 00000000 		.4byte	.LFB189
 17113 02bc 7E000000 		.4byte	.LFE189
 17114 02c0 00000000 		.4byte	.LFB190
 17115 02c4 26000000 		.4byte	.LFE190
 17116 02c8 00000000 		.4byte	.LFB191
 17117 02cc 20000000 		.4byte	.LFE191
 17118 02d0 00000000 		.4byte	.LFB192
 17119 02d4 0E000000 		.4byte	.LFE192
 17120 02d8 00000000 		.4byte	.LFB193
 17121 02dc 12000000 		.4byte	.LFE193
 17122 02e0 00000000 		.4byte	.LFB194
 17123 02e4 12000000 		.4byte	.LFE194
 17124 02e8 00000000 		.4byte	.LFB195
 17125 02ec 12000000 		.4byte	.LFE195
 17126 02f0 00000000 		.4byte	.LFB196
 17127 02f4 18000000 		.4byte	.LFE196
 17128 02f8 00000000 		.4byte	.LFB197
 17129 02fc 3A000000 		.4byte	.LFE197
 17130 0300 00000000 		.4byte	.LFB198
 17131 0304 16000000 		.4byte	.LFE198
 17132 0308 00000000 		.4byte	.LFB199
 17133 030c 04000000 		.4byte	.LFE199
 17134 0310 00000000 		.4byte	0
 17135 0314 00000000 		.4byte	0
 17136              		.section	.debug_line,"",%progbits
 17137              	.Ldebug_line0:
 17138 0000 B01C0000 		.section	.debug_str,"MS",%progbits,1
 17138      03000602 
 17138      00000201 
 17138      FB0E0D00 
 17138      01010101 
 17139              	.LASF194:
 17140 0000 54494D5F 		.ascii	"TIM_OPMode\000"
 17140      4F504D6F 
 17140      646500
 17141              	.LASF77:
 17142 000b 4E657753 		.ascii	"NewState\000"
 17142      74617465 
 17142      00
 17143              	.LASF170:
 17144 0014 54494D5F 		.ascii	"TIM_ForcedOC2Config\000"
 17144      466F7263 
 17144      65644F43 
 17144      32436F6E 
 17144      66696700 
 17145              	.LASF193:
ARM GAS  C:\Users\USER\AppData\Local\Temp\ccNdlOSb.s 			page 302


 17146 0028 54494D5F 		.ascii	"TIM_SelectOnePulseMode\000"
 17146      53656C65 
 17146      63744F6E 
 17146      6550756C 
 17146      73654D6F 
 17147              	.LASF107:
 17148 003f 54494D5F 		.ascii	"TIM_DMACmd\000"
 17148      444D4143 
 17148      6D6400
 17149              	.LASF20:
 17150 004a 44494552 		.ascii	"DIER\000"
 17150      00
 17151              	.LASF168:
 17152 004f 54494D5F 		.ascii	"TIM_ForcedAction\000"
 17152      466F7263 
 17152      65644163 
 17152      74696F6E 
 17152      00
 17153              	.LASF94:
 17154 0060 54494D5F 		.ascii	"TIM_InputTriggerSource\000"
 17154      496E7075 
 17154      74547269 
 17154      67676572 
 17154      536F7572 
 17155              	.LASF91:
 17156 0077 54494D5F 		.ascii	"TIM_TRGOSource\000"
 17156      5452474F 
 17156      536F7572 
 17156      636500
 17157              	.LASF38:
 17158 0086 54494D5F 		.ascii	"TIM_CounterMode\000"
 17158      436F756E 
 17158      7465724D 
 17158      6F646500 
 17159              	.LASF202:
 17160 0096 4175746F 		.ascii	"Autoreload\000"
 17160      72656C6F 
 17160      616400
 17161              	.LASF167:
 17162 00a1 54494D5F 		.ascii	"TIM_ForcedOC4Config\000"
 17162      466F7263 
 17162      65644F43 
 17162      34436F6E 
 17162      66696700 
 17163              	.LASF156:
 17164 00b5 54494D5F 		.ascii	"TIM_ClearOC1Ref\000"
 17164      436C6561 
 17164      724F4331 
 17164      52656600 
 17165              	.LASF32:
 17166 00c5 466C6167 		.ascii	"FlagStatus\000"
 17166      53746174 
 17166      757300
 17167              	.LASF3:
 17168 00d0 5F5F7569 		.ascii	"__uint8_t\000"
 17168      6E74385F 
 17168      7400
ARM GAS  C:\Users\USER\AppData\Local\Temp\ccNdlOSb.s 			page 303


 17169              	.LASF114:
 17170 00da 54494D5F 		.ascii	"TIM_FLAG\000"
 17170      464C4147 
 17170      00
 17171              	.LASF179:
 17172 00e3 436F6D70 		.ascii	"Compare1\000"
 17172      61726531 
 17172      00
 17173              	.LASF178:
 17174 00ec 54494D5F 		.ascii	"TIM_SetCompare1\000"
 17174      53657443 
 17174      6F6D7061 
 17174      72653100 
 17175              	.LASF81:
 17176 00fc 54494D5F 		.ascii	"TIM_IC2Polarity\000"
 17176      49433250 
 17176      6F6C6172 
 17176      69747900 
 17177              	.LASF198:
 17178 010c 54494D5F 		.ascii	"TIM_UpdateDisableConfig\000"
 17178      55706461 
 17178      74654469 
 17178      7361626C 
 17178      65436F6E 
 17179              	.LASF175:
 17180 0124 436F6D70 		.ascii	"Compare3\000"
 17180      61726533 
 17180      00
 17181              	.LASF46:
 17182 012d 54494D5F 		.ascii	"TIM_Pulse\000"
 17182      50756C73 
 17182      6500
 17183              	.LASF214:
 17184 0137 5243435F 		.ascii	"RCC_APB1PeriphResetCmd\000"
 17184      41504231 
 17184      50657269 
 17184      70685265 
 17184      73657443 
 17185              	.LASF72:
 17186 014e 746D7063 		.ascii	"tmpccmr1\000"
 17186      636D7231 
 17186      00
 17187              	.LASF67:
 17188 0157 746D7063 		.ascii	"tmpccmr2\000"
 17188      636D7232 
 17188      00
 17189              	.LASF206:
 17190 0160 746D7063 		.ascii	"tmpcr1\000"
 17190      723100
 17191              	.LASF34:
 17192 0167 44495341 		.ascii	"DISABLE\000"
 17192      424C4500 
 17193              	.LASF93:
 17194 016f 54494D5F 		.ascii	"TIM_SelectInputTrigger\000"
 17194      53656C65 
 17194      6374496E 
 17194      70757454 
ARM GAS  C:\Users\USER\AppData\Local\Temp\ccNdlOSb.s 			page 304


 17194      72696767 
 17195              	.LASF11:
 17196 0186 6C6F6E67 		.ascii	"long long unsigned int\000"
 17196      206C6F6E 
 17196      6720756E 
 17196      7369676E 
 17196      65642069 
 17197              	.LASF56:
 17198 019d 54494D5F 		.ascii	"TIM_ICFilter\000"
 17198      49434669 
 17198      6C746572 
 17198      00
 17199              	.LASF101:
 17200 01aa 54494D5F 		.ascii	"TIM_InternalClockConfig\000"
 17200      496E7465 
 17200      726E616C 
 17200      436C6F63 
 17200      6B436F6E 
 17201              	.LASF149:
 17202 01c2 54494D5F 		.ascii	"TIM_OC2PolarityConfig\000"
 17202      4F433250 
 17202      6F6C6172 
 17202      69747943 
 17202      6F6E6669 
 17203              	.LASF195:
 17204 01d8 54494D5F 		.ascii	"TIM_ARRPreloadConfig\000"
 17204      41525250 
 17204      72656C6F 
 17204      6164436F 
 17204      6E666967 
 17205              	.LASF17:
 17206 01ed 49544D5F 		.ascii	"ITM_RxBuffer\000"
 17206      52784275 
 17206      66666572 
 17206      00
 17207              	.LASF54:
 17208 01fa 54494D5F 		.ascii	"TIM_ICSelection\000"
 17208      49435365 
 17208      6C656374 
 17208      696F6E00 
 17209              	.LASF181:
 17210 020a 746D7031 		.ascii	"tmp1\000"
 17210      00
 17211              	.LASF78:
 17212 020f 54494D5F 		.ascii	"TIM_EncoderInterfaceConfig\000"
 17212      456E636F 
 17212      64657249 
 17212      6E746572 
 17212      66616365 
 17213              	.LASF165:
 17214 022a 54494D5F 		.ascii	"TIM_OC2PreloadConfig\000"
 17214      4F433250 
 17214      72656C6F 
 17214      6164436F 
 17214      6E666967 
 17215              	.LASF117:
 17216 023f 54494D5F 		.ascii	"TIM_GenerateEvent\000"
ARM GAS  C:\Users\USER\AppData\Local\Temp\ccNdlOSb.s 			page 305


 17216      47656E65 
 17216      72617465 
 17216      4576656E 
 17216      7400
 17217              	.LASF79:
 17218 0251 54494D5F 		.ascii	"TIM_IC1Polarity\000"
 17218      49433150 
 17218      6F6C6172 
 17218      69747900 
 17219              	.LASF158:
 17220 0261 54494D5F 		.ascii	"TIM_OCFast\000"
 17220      4F434661 
 17220      737400
 17221              	.LASF52:
 17222 026c 54494D5F 		.ascii	"TIM_Channel\000"
 17222      4368616E 
 17222      6E656C00 
 17223              	.LASF21:
 17224 0278 43434D52 		.ascii	"CCMR1\000"
 17224      3100
 17225              	.LASF22:
 17226 027e 43434D52 		.ascii	"CCMR2\000"
 17226      3200
 17227              	.LASF205:
 17228 0284 54494D5F 		.ascii	"TIM_CounterModeConfig\000"
 17228      436F756E 
 17228      7465724D 
 17228      6F646543 
 17228      6F6E6669 
 17229              	.LASF0:
 17230 029a 7369676E 		.ascii	"signed char\000"
 17230      65642063 
 17230      68617200 
 17231              	.LASF104:
 17232 02a6 54494D5F 		.ascii	"TIM_DMAConfig\000"
 17232      444D4143 
 17232      6F6E6669 
 17232      6700
 17233              	.LASF217:
 17234 02b4 7372632F 		.ascii	"src/ChibiOS_3.0.2/ext/stdperiph_stm32f4/src/stm32f4"
 17234      43686962 
 17234      694F535F 
 17234      332E302E 
 17234      322F6578 
 17235 02e7 78785F74 		.ascii	"xx_tim.c\000"
 17235      696D2E63 
 17235      00
 17236              	.LASF143:
 17237 02f0 54494D5F 		.ascii	"TIM_CCxCmd\000"
 17237      43437843 
 17237      6D6400
 17238              	.LASF163:
 17239 02fb 54494D5F 		.ascii	"TIM_OCPreload\000"
 17239      4F435072 
 17239      656C6F61 
 17239      6400
 17240              	.LASF187:
ARM GAS  C:\Users\USER\AppData\Local\Temp\ccNdlOSb.s 			page 306


 17241 0309 54494D5F 		.ascii	"TIM_OC3Init\000"
 17241      4F433349 
 17241      6E697400 
 17242              	.LASF109:
 17243 0315 54494D5F 		.ascii	"TIM_IT\000"
 17243      495400
 17244              	.LASF96:
 17245 031c 54494D5F 		.ascii	"TIM_ETRClockMode1Config\000"
 17245      45545243 
 17245      6C6F636B 
 17245      4D6F6465 
 17245      31436F6E 
 17246              	.LASF7:
 17247 0334 6C6F6E67 		.ascii	"long int\000"
 17247      20696E74 
 17247      00
 17248              	.LASF45:
 17249 033d 54494D5F 		.ascii	"TIM_OutputNState\000"
 17249      4F757470 
 17249      75744E53 
 17249      74617465 
 17249      00
 17250              	.LASF35:
 17251 034e 454E4142 		.ascii	"ENABLE\000"
 17251      4C4500
 17252              	.LASF185:
 17253 0355 746D7063 		.ascii	"tmpccmrx\000"
 17253      636D7278 
 17253      00
 17254              	.LASF23:
 17255 035e 43434552 		.ascii	"CCER\000"
 17255      00
 17256              	.LASF10:
 17257 0363 6C6F6E67 		.ascii	"long long int\000"
 17257      206C6F6E 
 17257      6720696E 
 17257      7400
 17258              	.LASF14:
 17259 0371 75696E74 		.ascii	"uint16_t\000"
 17259      31365F74 
 17259      00
 17260              	.LASF192:
 17261 037a 54494D5F 		.ascii	"TIM_CKD\000"
 17261      434B4400 
 17262              	.LASF201:
 17263 0382 54494D5F 		.ascii	"TIM_SetAutoreload\000"
 17263      53657441 
 17263      75746F72 
 17263      656C6F61 
 17263      6400
 17264              	.LASF139:
 17265 0394 54494D5F 		.ascii	"TIM_ICStructInit\000"
 17265      49435374 
 17265      72756374 
 17265      496E6974 
 17265      00
 17266              	.LASF133:
ARM GAS  C:\Users\USER\AppData\Local\Temp\ccNdlOSb.s 			page 307


 17267 03a5 54494D5F 		.ascii	"TIM_GetCapture2\000"
 17267      47657443 
 17267      61707475 
 17267      72653200 
 17268              	.LASF132:
 17269 03b5 54494D5F 		.ascii	"TIM_GetCapture3\000"
 17269      47657443 
 17269      61707475 
 17269      72653300 
 17270              	.LASF131:
 17271 03c5 54494D5F 		.ascii	"TIM_GetCapture4\000"
 17271      47657443 
 17271      61707475 
 17271      72653400 
 17272              	.LASF137:
 17273 03d5 69636F70 		.ascii	"icoppositepolarity\000"
 17273      706F7369 
 17273      7465706F 
 17273      6C617269 
 17273      747900
 17274              	.LASF197:
 17275 03e8 54494D5F 		.ascii	"TIM_UpdateSource\000"
 17275      55706461 
 17275      7465536F 
 17275      75726365 
 17275      00
 17276              	.LASF142:
 17277 03f9 54494D5F 		.ascii	"TIM_CCxN\000"
 17277      4343784E 
 17277      00
 17278              	.LASF102:
 17279 0402 54494D5F 		.ascii	"TIM_SelectCCDMA\000"
 17279      53656C65 
 17279      63744343 
 17279      444D4100 
 17280              	.LASF4:
 17281 0412 5F5F7569 		.ascii	"__uint16_t\000"
 17281      6E743136 
 17281      5F7400
 17282              	.LASF30:
 17283 041d 54494D5F 		.ascii	"TIM_TypeDef\000"
 17283      54797065 
 17283      44656600 
 17284              	.LASF8:
 17285 0429 5F5F7569 		.ascii	"__uint32_t\000"
 17285      6E743332 
 17285      5F7400
 17286              	.LASF166:
 17287 0434 54494D5F 		.ascii	"TIM_OC1PreloadConfig\000"
 17287      4F433150 
 17287      72656C6F 
 17287      6164436F 
 17287      6E666967 
 17288              	.LASF216:
 17289 0449 474E5520 		.ascii	"GNU C99 8.2.1 20181213 (release) [gcc-8-branch revi"
 17289      43393920 
 17289      382E322E 
ARM GAS  C:\Users\USER\AppData\Local\Temp\ccNdlOSb.s 			page 308


 17289      31203230 
 17289      31383132 
 17290 047c 73696F6E 		.ascii	"sion 267074] -mcpu=cortex-m4 -mfloat-abi=hard -mfpu"
 17290      20323637 
 17290      3037345D 
 17290      202D6D63 
 17290      70753D63 
 17291 04af 3D667076 		.ascii	"=fpv4-sp-d16 -mno-thumb-interwork -mthumb -march=ar"
 17291      342D7370 
 17291      2D643136 
 17291      202D6D6E 
 17291      6F2D7468 
 17292 04e2 6D763765 		.ascii	"mv7e-m+fp -ggdb -O2 -std=gnu99 -fomit-frame-pointer"
 17292      2D6D2B66 
 17292      70202D67 
 17292      67646220 
 17292      2D4F3220 
 17293 0515 202D6661 		.ascii	" -falign-functions=16 -ffunction-sections -fdata-se"
 17293      6C69676E 
 17293      2D66756E 
 17293      6374696F 
 17293      6E733D31 
 17294 0548 6374696F 		.ascii	"ctions -fno-common -fsingle-precision-constant\000"
 17294      6E73202D 
 17294      666E6F2D 
 17294      636F6D6D 
 17294      6F6E202D 
 17295              	.LASF106:
 17296 0577 54494D5F 		.ascii	"TIM_DMABurstLength\000"
 17296      444D4142 
 17296      75727374 
 17296      4C656E67 
 17296      746800
 17297              	.LASF113:
 17298 058a 54494D5F 		.ascii	"TIM_ClearFlag\000"
 17298      436C6561 
 17298      72466C61 
 17298      6700
 17299              	.LASF176:
 17300 0598 54494D5F 		.ascii	"TIM_SetCompare2\000"
 17300      53657443 
 17300      6F6D7061 
 17300      72653200 
 17301              	.LASF174:
 17302 05a8 54494D5F 		.ascii	"TIM_SetCompare3\000"
 17302      53657443 
 17302      6F6D7061 
 17302      72653300 
 17303              	.LASF121:
 17304 05b8 54494D5F 		.ascii	"TIM_SelectCOM\000"
 17304      53656C65 
 17304      6374434F 
 17304      4D00
 17305              	.LASF68:
 17306 05c6 746D7063 		.ascii	"tmpccer\000"
 17306      63657200 
 17307              	.LASF148:
ARM GAS  C:\Users\USER\AppData\Local\Temp\ccNdlOSb.s 			page 309


 17308 05ce 54494D5F 		.ascii	"TIM_OC2NPolarityConfig\000"
 17308      4F43324E 
 17308      506F6C61 
 17308      72697479 
 17308      436F6E66 
 17309              	.LASF12:
 17310 05e5 756E7369 		.ascii	"unsigned int\000"
 17310      676E6564 
 17310      20696E74 
 17310      00
 17311              	.LASF69:
 17312 05f2 5449345F 		.ascii	"TI4_Config\000"
 17312      436F6E66 
 17312      696700
 17313              	.LASF47:
 17314 05fd 54494D5F 		.ascii	"TIM_OCPolarity\000"
 17314      4F43506F 
 17314      6C617269 
 17314      747900
 17315              	.LASF40:
 17316 060c 54494D5F 		.ascii	"TIM_ClockDivision\000"
 17316      436C6F63 
 17316      6B446976 
 17316      6973696F 
 17316      6E00
 17317              	.LASF199:
 17318 061e 54494D5F 		.ascii	"TIM_GetPrescaler\000"
 17318      47657450 
 17318      72657363 
 17318      616C6572 
 17318      00
 17319              	.LASF200:
 17320 062f 54494D5F 		.ascii	"TIM_GetCounter\000"
 17320      47657443 
 17320      6F756E74 
 17320      657200
 17321              	.LASF210:
 17322 063e 54494D5F 		.ascii	"TIM_TimeBaseStructInit\000"
 17322      54696D65 
 17322      42617365 
 17322      53747275 
 17322      6374496E 
 17323              	.LASF134:
 17324 0655 54494D5F 		.ascii	"TIM_GetCapture1\000"
 17324      47657443 
 17324      61707475 
 17324      72653100 
 17325              	.LASF87:
 17326 0665 54494D5F 		.ascii	"TIM_MasterSlaveMode\000"
 17326      4D617374 
 17326      6572536C 
 17326      6176654D 
 17326      6F646500 
 17327              	.LASF88:
 17328 0679 54494D5F 		.ascii	"TIM_SelectSlaveMode\000"
 17328      53656C65 
 17328      6374536C 
ARM GAS  C:\Users\USER\AppData\Local\Temp\ccNdlOSb.s 			page 310


 17328      6176654D 
 17328      6F646500 
 17329              	.LASF86:
 17330 068d 54494D5F 		.ascii	"TIM_SelectMasterSlaveMode\000"
 17330      53656C65 
 17330      63744D61 
 17330      73746572 
 17330      536C6176 
 17331              	.LASF116:
 17332 06a7 54494D5F 		.ascii	"TIM_GetFlagStatus\000"
 17332      47657446 
 17332      6C616753 
 17332      74617475 
 17332      7300
 17333              	.LASF65:
 17334 06b9 54494D5F 		.ascii	"TIM_BDTRInitTypeDef\000"
 17334      42445452 
 17334      496E6974 
 17334      54797065 
 17334      44656600 
 17335              	.LASF183:
 17336 06cd 54494D5F 		.ascii	"TIM_OCInitStruct\000"
 17336      4F43496E 
 17336      69745374 
 17336      72756374 
 17336      00
 17337              	.LASF19:
 17338 06de 534D4352 		.ascii	"SMCR\000"
 17338      00
 17339              	.LASF58:
 17340 06e3 54494D5F 		.ascii	"TIM_OSSRState\000"
 17340      4F535352 
 17340      53746174 
 17340      6500
 17341              	.LASF66:
 17342 06f1 54494D78 		.ascii	"TIMx\000"
 17342      00
 17343              	.LASF80:
 17344 06f6 54494D5F 		.ascii	"TIM_EncoderMode\000"
 17344      456E636F 
 17344      6465724D 
 17344      6F646500 
 17345              	.LASF145:
 17346 0706 54494D5F 		.ascii	"TIM_OC4PolarityConfig\000"
 17346      4F433450 
 17346      6F6C6172 
 17346      69747943 
 17346      6F6E6669 
 17347              	.LASF64:
 17348 071c 54494D5F 		.ascii	"TIM_AutomaticOutput\000"
 17348      4175746F 
 17348      6D617469 
 17348      634F7574 
 17348      70757400 
 17349              	.LASF90:
 17350 0730 54494D5F 		.ascii	"TIM_SelectOutputTrigger\000"
 17350      53656C65 
ARM GAS  C:\Users\USER\AppData\Local\Temp\ccNdlOSb.s 			page 311


 17350      63744F75 
 17350      74707574 
 17350      54726967 
 17351              	.LASF130:
 17352 0748 54494D5F 		.ascii	"TIM_SetIC1Prescaler\000"
 17352      53657449 
 17352      43315072 
 17352      65736361 
 17352      6C657200 
 17353              	.LASF135:
 17354 075c 54494D5F 		.ascii	"TIM_PWMIConfig\000"
 17354      50574D49 
 17354      436F6E66 
 17354      696700
 17355              	.LASF70:
 17356 076b 5449335F 		.ascii	"TI3_Config\000"
 17356      436F6E66 
 17356      696700
 17357              	.LASF103:
 17358 0776 54494D5F 		.ascii	"TIM_DMASource\000"
 17358      444D4153 
 17358      6F757263 
 17358      6500
 17359              	.LASF182:
 17360 0784 54494D5F 		.ascii	"TIM_OCStructInit\000"
 17360      4F435374 
 17360      72756374 
 17360      496E6974 
 17360      00
 17361              	.LASF209:
 17362 0795 54494D5F 		.ascii	"TIM_PSCReloadMode\000"
 17362      50534352 
 17362      656C6F61 
 17362      644D6F64 
 17362      6500
 17363              	.LASF31:
 17364 07a7 52455345 		.ascii	"RESET\000"
 17364      5400
 17365              	.LASF82:
 17366 07ad 746D7073 		.ascii	"tmpsmcr\000"
 17366      6D637200 
 17367              	.LASF84:
 17368 07b5 54494D5F 		.ascii	"TIM_ExtTRGPolarity\000"
 17368      45787454 
 17368      5247506F 
 17368      6C617269 
 17368      747900
 17369              	.LASF123:
 17370 07c8 54494D5F 		.ascii	"TIM_BDTRStructInit\000"
 17370      42445452 
 17370      53747275 
 17370      6374496E 
 17370      697400
 17371              	.LASF136:
 17372 07db 54494D5F 		.ascii	"TIM_ICInitStruct\000"
 17372      4943496E 
 17372      69745374 
ARM GAS  C:\Users\USER\AppData\Local\Temp\ccNdlOSb.s 			page 312


 17372      72756374 
 17372      00
 17373              	.LASF186:
 17374 07ec 746D7063 		.ascii	"tmpcr2\000"
 17374      723200
 17375              	.LASF83:
 17376 07f3 54494D5F 		.ascii	"TIM_ExtTRGPrescaler\000"
 17376      45787454 
 17376      52475072 
 17376      65736361 
 17376      6C657200 
 17377              	.LASF62:
 17378 0807 54494D5F 		.ascii	"TIM_Break\000"
 17378      42726561 
 17378      6B00
 17379              	.LASF61:
 17380 0811 54494D5F 		.ascii	"TIM_DeadTime\000"
 17380      44656164 
 17380      54696D65 
 17380      00
 17381              	.LASF151:
 17382 081e 54494D5F 		.ascii	"TIM_OC1PolarityConfig\000"
 17382      4F433150 
 17382      6F6C6172 
 17382      69747943 
 17382      6F6E6669 
 17383              	.LASF171:
 17384 0834 54494D5F 		.ascii	"TIM_ForcedOC1Config\000"
 17384      466F7263 
 17384      65644F43 
 17384      31436F6E 
 17384      66696700 
 17385              	.LASF169:
 17386 0848 54494D5F 		.ascii	"TIM_ForcedOC3Config\000"
 17386      466F7263 
 17386      65644F43 
 17386      33436F6E 
 17386      66696700 
 17387              	.LASF55:
 17388 085c 54494D5F 		.ascii	"TIM_ICPrescaler\000"
 17388      49435072 
 17388      65736361 
 17388      6C657200 
 17389              	.LASF141:
 17390 086c 54494D5F 		.ascii	"TIM_CCxNCmd\000"
 17390      4343784E 
 17390      436D6400 
 17391              	.LASF173:
 17392 0878 436F6D70 		.ascii	"Compare4\000"
 17392      61726534 
 17392      00
 17393              	.LASF50:
 17394 0881 54494D5F 		.ascii	"TIM_OCNIdleState\000"
 17394      4F434E49 
 17394      646C6553 
 17394      74617465 
 17394      00
ARM GAS  C:\Users\USER\AppData\Local\Temp\ccNdlOSb.s 			page 313


 17395              	.LASF111:
 17396 0892 69747374 		.ascii	"itstatus\000"
 17396      61747573 
 17396      00
 17397              	.LASF105:
 17398 089b 54494D5F 		.ascii	"TIM_DMABase\000"
 17398      444D4142 
 17398      61736500 
 17399              	.LASF138:
 17400 08a7 69636F70 		.ascii	"icoppositeselection\000"
 17400      706F7369 
 17400      74657365 
 17400      6C656374 
 17400      696F6E00 
 17401              	.LASF36:
 17402 08bb 46756E63 		.ascii	"FunctionalState\000"
 17402      74696F6E 
 17402      616C5374 
 17402      61746500 
 17403              	.LASF74:
 17404 08cb 54494D5F 		.ascii	"TIM_Remap\000"
 17404      52656D61 
 17404      7000
 17405              	.LASF115:
 17406 08d5 54494D5F 		.ascii	"TIM_GetITStatus\000"
 17406      47657449 
 17406      54537461 
 17406      74757300 
 17407              	.LASF211:
 17408 08e5 54494D5F 		.ascii	"TIM_TimeBaseInitStruct\000"
 17408      54696D65 
 17408      42617365 
 17408      496E6974 
 17408      53747275 
 17409              	.LASF215:
 17410 08fc 5243435F 		.ascii	"RCC_APB2PeriphResetCmd\000"
 17410      41504232 
 17410      50657269 
 17410      70685265 
 17410      73657443 
 17411              	.LASF191:
 17412 0913 54494D5F 		.ascii	"TIM_SetClockDivision\000"
 17412      53657443 
 17412      6C6F636B 
 17412      44697669 
 17412      73696F6E 
 17413              	.LASF144:
 17414 0928 54494D5F 		.ascii	"TIM_CCx\000"
 17414      43437800 
 17415              	.LASF204:
 17416 0930 436F756E 		.ascii	"Counter\000"
 17416      74657200 
 17417              	.LASF177:
 17418 0938 436F6D70 		.ascii	"Compare2\000"
 17418      61726532 
 17418      00
 17419              	.LASF44:
ARM GAS  C:\Users\USER\AppData\Local\Temp\ccNdlOSb.s 			page 314


 17420 0941 54494D5F 		.ascii	"TIM_OutputState\000"
 17420      4F757470 
 17420      75745374 
 17420      61746500 
 17421              	.LASF118:
 17422 0951 54494D5F 		.ascii	"TIM_EventSource\000"
 17422      4576656E 
 17422      74536F75 
 17422      72636500 
 17423              	.LASF53:
 17424 0961 54494D5F 		.ascii	"TIM_ICPolarity\000"
 17424      4943506F 
 17424      6C617269 
 17424      747900
 17425              	.LASF33:
 17426 0970 49545374 		.ascii	"ITStatus\000"
 17426      61747573 
 17426      00
 17427              	.LASF73:
 17428 0979 5449315F 		.ascii	"TI1_Config\000"
 17428      436F6E66 
 17428      696700
 17429              	.LASF153:
 17430 0984 54494D5F 		.ascii	"TIM_OCClear\000"
 17430      4F43436C 
 17430      65617200 
 17431              	.LASF37:
 17432 0990 54494D5F 		.ascii	"TIM_Prescaler\000"
 17432      50726573 
 17432      63616C65 
 17432      7200
 17433              	.LASF97:
 17434 099e 54494D5F 		.ascii	"TIM_TIxExternalClockConfig\000"
 17434      54497845 
 17434      78746572 
 17434      6E616C43 
 17434      6C6F636B 
 17435              	.LASF15:
 17436 09b9 696E7433 		.ascii	"int32_t\000"
 17436      325F7400 
 17437              	.LASF1:
 17438 09c1 756E7369 		.ascii	"unsigned char\000"
 17438      676E6564 
 17438      20636861 
 17438      7200
 17439              	.LASF60:
 17440 09cf 54494D5F 		.ascii	"TIM_LOCKLevel\000"
 17440      4C4F434B 
 17440      4C657665 
 17440      6C00
 17441              	.LASF119:
 17442 09dd 54494D5F 		.ascii	"TIM_ITConfig\000"
 17442      4954436F 
 17442      6E666967 
 17442      00
 17443              	.LASF218:
 17444 09ea 443A5C67 		.ascii	"D:\\git\\oroca_bldc_dev\\oroca_bldc_FW\\oroca_bldc_"
ARM GAS  C:\Users\USER\AppData\Local\Temp\ccNdlOSb.s 			page 315


 17444      69745C6F 
 17444      726F6361 
 17444      5F626C64 
 17444      635F6465 
 17445 0a19 63686962 		.ascii	"chibios\000"
 17445      696F7300 
 17446              	.LASF125:
 17447 0a21 54494D5F 		.ascii	"TIM_BDTRConfig\000"
 17447      42445452 
 17447      436F6E66 
 17447      696700
 17448              	.LASF2:
 17449 0a30 73686F72 		.ascii	"short int\000"
 17449      7420696E 
 17449      7400
 17450              	.LASF28:
 17451 0a3a 42445452 		.ascii	"BDTR\000"
 17451      00
 17452              	.LASF129:
 17453 0a3f 54494D5F 		.ascii	"TIM_SetIC2Prescaler\000"
 17453      53657449 
 17453      43325072 
 17453      65736361 
 17453      6C657200 
 17454              	.LASF207:
 17455 0a53 54494D5F 		.ascii	"TIM_PrescalerConfig\000"
 17455      50726573 
 17455      63616C65 
 17455      72436F6E 
 17455      66696700 
 17456              	.LASF100:
 17457 0a67 54494D5F 		.ascii	"TIM_ITRxExternalClockConfig\000"
 17457      49545278 
 17457      45787465 
 17457      726E616C 
 17457      436C6F63 
 17458              	.LASF146:
 17459 0a83 54494D5F 		.ascii	"TIM_OC3NPolarityConfig\000"
 17459      4F43334E 
 17459      506F6C61 
 17459      72697479 
 17459      436F6E66 
 17460              	.LASF59:
 17461 0a9a 54494D5F 		.ascii	"TIM_OSSIState\000"
 17461      4F535349 
 17461      53746174 
 17461      6500
 17462              	.LASF5:
 17463 0aa8 73686F72 		.ascii	"short unsigned int\000"
 17463      7420756E 
 17463      7369676E 
 17463      65642069 
 17463      6E7400
 17464              	.LASF212:
 17465 0abb 54494D5F 		.ascii	"TIM_TimeBaseInit\000"
 17465      54696D65 
 17465      42617365 
ARM GAS  C:\Users\USER\AppData\Local\Temp\ccNdlOSb.s 			page 316


 17465      496E6974 
 17465      00
 17466              	.LASF98:
 17467 0acc 54494D5F 		.ascii	"TIM_TIxExternalCLKSource\000"
 17467      54497845 
 17467      78746572 
 17467      6E616C43 
 17467      4C4B536F 
 17468              	.LASF124:
 17469 0ae5 54494D5F 		.ascii	"TIM_BDTRInitStruct\000"
 17469      42445452 
 17469      496E6974 
 17469      53747275 
 17469      637400
 17470              	.LASF71:
 17471 0af8 5449325F 		.ascii	"TI2_Config\000"
 17471      436F6E66 
 17471      696700
 17472              	.LASF160:
 17473 0b03 54494D5F 		.ascii	"TIM_OC2FastConfig\000"
 17473      4F433246 
 17473      61737443 
 17473      6F6E6669 
 17473      6700
 17474              	.LASF157:
 17475 0b15 54494D5F 		.ascii	"TIM_OC4FastConfig\000"
 17475      4F433446 
 17475      61737443 
 17475      6F6E6669 
 17475      6700
 17476              	.LASF9:
 17477 0b27 6C6F6E67 		.ascii	"long unsigned int\000"
 17477      20756E73 
 17477      69676E65 
 17477      6420696E 
 17477      7400
 17478              	.LASF48:
 17479 0b39 54494D5F 		.ascii	"TIM_OCNPolarity\000"
 17479      4F434E50 
 17479      6F6C6172 
 17479      69747900 
 17480              	.LASF95:
 17481 0b49 54494D5F 		.ascii	"TIM_ETRClockMode2Config\000"
 17481      45545243 
 17481      6C6F636B 
 17481      4D6F6465 
 17481      32436F6E 
 17482              	.LASF190:
 17483 0b61 54494D5F 		.ascii	"TIM_Cmd\000"
 17483      436D6400 
 17484              	.LASF29:
 17485 0b69 444D4152 		.ascii	"DMAR\000"
 17485      00
 17486              	.LASF128:
 17487 0b6e 54494D5F 		.ascii	"TIM_SetIC3Prescaler\000"
 17487      53657449 
 17487      43335072 
ARM GAS  C:\Users\USER\AppData\Local\Temp\ccNdlOSb.s 			page 317


 17487      65736361 
 17487      6C657200 
 17488              	.LASF188:
 17489 0b82 54494D5F 		.ascii	"TIM_OC2Init\000"
 17489      4F433249 
 17489      6E697400 
 17490              	.LASF39:
 17491 0b8e 54494D5F 		.ascii	"TIM_Period\000"
 17491      50657269 
 17491      6F6400
 17492              	.LASF42:
 17493 0b99 54494D5F 		.ascii	"TIM_TimeBaseInitTypeDef\000"
 17493      54696D65 
 17493      42617365 
 17493      496E6974 
 17493      54797065 
 17494              	.LASF108:
 17495 0bb1 54494D5F 		.ascii	"TIM_ClearITPendingBit\000"
 17495      436C6561 
 17495      72495450 
 17495      656E6469 
 17495      6E674269 
 17496              	.LASF6:
 17497 0bc7 5F5F696E 		.ascii	"__int32_t\000"
 17497      7433325F 
 17497      7400
 17498              	.LASF57:
 17499 0bd1 54494D5F 		.ascii	"TIM_ICInitTypeDef\000"
 17499      4943496E 
 17499      69745479 
 17499      70654465 
 17499      6600
 17500              	.LASF184:
 17501 0be3 54494D5F 		.ascii	"TIM_OC4Init\000"
 17501      4F433449 
 17501      6E697400 
 17502              	.LASF140:
 17503 0bef 54494D5F 		.ascii	"TIM_ICInit\000"
 17503      4943496E 
 17503      697400
 17504              	.LASF172:
 17505 0bfa 54494D5F 		.ascii	"TIM_SetCompare4\000"
 17505      53657443 
 17505      6F6D7061 
 17505      72653400 
 17506              	.LASF180:
 17507 0c0a 54494D5F 		.ascii	"TIM_SelectOCxM\000"
 17507      53656C65 
 17507      63744F43 
 17507      784D00
 17508              	.LASF196:
 17509 0c19 54494D5F 		.ascii	"TIM_UpdateRequestConfig\000"
 17509      55706461 
 17509      74655265 
 17509      71756573 
 17509      74436F6E 
 17510              	.LASF208:
ARM GAS  C:\Users\USER\AppData\Local\Temp\ccNdlOSb.s 			page 318


 17511 0c31 50726573 		.ascii	"Prescaler\000"
 17511      63616C65 
 17511      7200
 17512              	.LASF162:
 17513 0c3b 54494D5F 		.ascii	"TIM_OC4PreloadConfig\000"
 17513      4F433450 
 17513      72656C6F 
 17513      6164436F 
 17513      6E666967 
 17514              	.LASF154:
 17515 0c50 54494D5F 		.ascii	"TIM_ClearOC3Ref\000"
 17515      436C6561 
 17515      724F4333 
 17515      52656600 
 17516              	.LASF89:
 17517 0c60 54494D5F 		.ascii	"TIM_SlaveMode\000"
 17517      536C6176 
 17517      654D6F64 
 17517      6500
 17518              	.LASF43:
 17519 0c6e 54494D5F 		.ascii	"TIM_OCMode\000"
 17519      4F434D6F 
 17519      646500
 17520              	.LASF152:
 17521 0c79 54494D5F 		.ascii	"TIM_ClearOC4Ref\000"
 17521      436C6561 
 17521      724F4334 
 17521      52656600 
 17522              	.LASF63:
 17523 0c89 54494D5F 		.ascii	"TIM_BreakPolarity\000"
 17523      42726561 
 17523      6B506F6C 
 17523      61726974 
 17523      7900
 17524              	.LASF150:
 17525 0c9b 54494D5F 		.ascii	"TIM_OC1NPolarityConfig\000"
 17525      4F43314E 
 17525      506F6C61 
 17525      72697479 
 17525      436F6E66 
 17526              	.LASF120:
 17527 0cb2 54494D5F 		.ascii	"TIM_CCPreloadControl\000"
 17527      43435072 
 17527      656C6F61 
 17527      64436F6E 
 17527      74726F6C 
 17528              	.LASF18:
 17529 0cc7 53797374 		.ascii	"SystemCoreClock\000"
 17529      656D436F 
 17529      7265436C 
 17529      6F636B00 
 17530              	.LASF16:
 17531 0cd7 75696E74 		.ascii	"uint32_t\000"
 17531      33325F74 
 17531      00
 17532              	.LASF24:
 17533 0ce0 43435231 		.ascii	"CCR1\000"
ARM GAS  C:\Users\USER\AppData\Local\Temp\ccNdlOSb.s 			page 319


 17533      00
 17534              	.LASF25:
 17535 0ce5 43435232 		.ascii	"CCR2\000"
 17535      00
 17536              	.LASF26:
 17537 0cea 43435233 		.ascii	"CCR3\000"
 17537      00
 17538              	.LASF27:
 17539 0cef 43435234 		.ascii	"CCR4\000"
 17539      00
 17540              	.LASF51:
 17541 0cf4 54494D5F 		.ascii	"TIM_OCInitTypeDef\000"
 17541      4F43496E 
 17541      69745479 
 17541      70654465 
 17541      6600
 17542              	.LASF203:
 17543 0d06 54494D5F 		.ascii	"TIM_SetCounter\000"
 17543      53657443 
 17543      6F756E74 
 17543      657200
 17544              	.LASF112:
 17545 0d15 6974656E 		.ascii	"itenable\000"
 17545      61626C65 
 17545      00
 17546              	.LASF13:
 17547 0d1e 75696E74 		.ascii	"uint8_t\000"
 17547      385F7400 
 17548              	.LASF147:
 17549 0d26 54494D5F 		.ascii	"TIM_OC3PolarityConfig\000"
 17549      4F433350 
 17549      6F6C6172 
 17549      69747943 
 17549      6F6E6669 
 17550              	.LASF75:
 17551 0d3c 54494D5F 		.ascii	"TIM_RemapConfig\000"
 17551      52656D61 
 17551      70436F6E 
 17551      66696700 
 17552              	.LASF189:
 17553 0d4c 54494D5F 		.ascii	"TIM_OC1Init\000"
 17553      4F433149 
 17553      6E697400 
 17554              	.LASF41:
 17555 0d58 54494D5F 		.ascii	"TIM_RepetitionCounter\000"
 17555      52657065 
 17555      74697469 
 17555      6F6E436F 
 17555      756E7465 
 17556              	.LASF76:
 17557 0d6e 54494D5F 		.ascii	"TIM_SelectHallSensor\000"
 17557      53656C65 
 17557      63744861 
 17557      6C6C5365 
 17557      6E736F72 
 17558              	.LASF110:
 17559 0d83 62697473 		.ascii	"bitstatus\000"
ARM GAS  C:\Users\USER\AppData\Local\Temp\ccNdlOSb.s 			page 320


 17559      74617475 
 17559      7300
 17560              	.LASF99:
 17561 0d8d 49434669 		.ascii	"ICFilter\000"
 17561      6C746572 
 17561      00
 17562              	.LASF155:
 17563 0d96 54494D5F 		.ascii	"TIM_ClearOC2Ref\000"
 17563      436C6561 
 17563      724F4332 
 17563      52656600 
 17564              	.LASF85:
 17565 0da6 45787454 		.ascii	"ExtTRGFilter\000"
 17565      52474669 
 17565      6C746572 
 17565      00
 17566              	.LASF49:
 17567 0db3 54494D5F 		.ascii	"TIM_OCIdleState\000"
 17567      4F434964 
 17567      6C655374 
 17567      61746500 
 17568              	.LASF122:
 17569 0dc3 54494D5F 		.ascii	"TIM_CtrlPWMOutputs\000"
 17569      4374726C 
 17569      50574D4F 
 17569      75747075 
 17569      747300
 17570              	.LASF127:
 17571 0dd6 54494D5F 		.ascii	"TIM_ICPSC\000"
 17571      49435053 
 17571      4300
 17572              	.LASF92:
 17573 0de0 54494D5F 		.ascii	"TIM_ETRConfig\000"
 17573      45545243 
 17573      6F6E6669 
 17573      6700
 17574              	.LASF213:
 17575 0dee 54494D5F 		.ascii	"TIM_DeInit\000"
 17575      4465496E 
 17575      697400
 17576              	.LASF159:
 17577 0df9 54494D5F 		.ascii	"TIM_OC3FastConfig\000"
 17577      4F433346 
 17577      61737443 
 17577      6F6E6669 
 17577      6700
 17578              	.LASF164:
 17579 0e0b 54494D5F 		.ascii	"TIM_OC3PreloadConfig\000"
 17579      4F433350 
 17579      72656C6F 
 17579      6164436F 
 17579      6E666967 
 17580              	.LASF126:
 17581 0e20 54494D5F 		.ascii	"TIM_SetIC4Prescaler\000"
 17581      53657449 
 17581      43345072 
 17581      65736361 
ARM GAS  C:\Users\USER\AppData\Local\Temp\ccNdlOSb.s 			page 321


 17581      6C657200 
 17582              	.LASF161:
 17583 0e34 54494D5F 		.ascii	"TIM_OC1FastConfig\000"
 17583      4F433146 
 17583      61737443 
 17583      6F6E6669 
 17583      6700
 17584              		.ident	"GCC: (GNU Tools for Arm Embedded Processors 8-2018-q4-major) 8.2.1 20181213 (release) [gcc
ARM GAS  C:\Users\USER\AppData\Local\Temp\ccNdlOSb.s 			page 322


DEFINED SYMBOLS
                            *ABS*:00000000 stm32f4xx_tim.c
C:\Users\USER\AppData\Local\Temp\ccNdlOSb.s:18     .text.TIM_DeInit:00000000 $t
C:\Users\USER\AppData\Local\Temp\ccNdlOSb.s:27     .text.TIM_DeInit:00000000 TIM_DeInit
C:\Users\USER\AppData\Local\Temp\ccNdlOSb.s:407    .text.TIM_DeInit:00000184 $d
C:\Users\USER\AppData\Local\Temp\ccNdlOSb.s:424    .text.TIM_TimeBaseInit:00000000 $t
C:\Users\USER\AppData\Local\Temp\ccNdlOSb.s:432    .text.TIM_TimeBaseInit:00000000 TIM_TimeBaseInit
C:\Users\USER\AppData\Local\Temp\ccNdlOSb.s:589    .text.TIM_TimeBaseInit:00000088 $d
C:\Users\USER\AppData\Local\Temp\ccNdlOSb.s:596    .text.TIM_TimeBaseStructInit:00000000 $t
C:\Users\USER\AppData\Local\Temp\ccNdlOSb.s:604    .text.TIM_TimeBaseStructInit:00000000 TIM_TimeBaseStructInit
C:\Users\USER\AppData\Local\Temp\ccNdlOSb.s:631    .text.TIM_PrescalerConfig:00000000 $t
C:\Users\USER\AppData\Local\Temp\ccNdlOSb.s:639    .text.TIM_PrescalerConfig:00000000 TIM_PrescalerConfig
C:\Users\USER\AppData\Local\Temp\ccNdlOSb.s:661    .text.TIM_CounterModeConfig:00000000 $t
C:\Users\USER\AppData\Local\Temp\ccNdlOSb.s:669    .text.TIM_CounterModeConfig:00000000 TIM_CounterModeConfig
C:\Users\USER\AppData\Local\Temp\ccNdlOSb.s:702    .text.TIM_SetCounter:00000000 $t
C:\Users\USER\AppData\Local\Temp\ccNdlOSb.s:710    .text.TIM_SetCounter:00000000 TIM_SetCounter
C:\Users\USER\AppData\Local\Temp\ccNdlOSb.s:728    .text.TIM_SetAutoreload:00000000 $t
C:\Users\USER\AppData\Local\Temp\ccNdlOSb.s:736    .text.TIM_SetAutoreload:00000000 TIM_SetAutoreload
C:\Users\USER\AppData\Local\Temp\ccNdlOSb.s:754    .text.TIM_GetCounter:00000000 $t
C:\Users\USER\AppData\Local\Temp\ccNdlOSb.s:762    .text.TIM_GetCounter:00000000 TIM_GetCounter
C:\Users\USER\AppData\Local\Temp\ccNdlOSb.s:781    .text.TIM_GetPrescaler:00000000 $t
C:\Users\USER\AppData\Local\Temp\ccNdlOSb.s:789    .text.TIM_GetPrescaler:00000000 TIM_GetPrescaler
C:\Users\USER\AppData\Local\Temp\ccNdlOSb.s:809    .text.TIM_UpdateDisableConfig:00000000 $t
C:\Users\USER\AppData\Local\Temp\ccNdlOSb.s:817    .text.TIM_UpdateDisableConfig:00000000 TIM_UpdateDisableConfig
C:\Users\USER\AppData\Local\Temp\ccNdlOSb.s:849    .text.TIM_UpdateRequestConfig:00000000 $t
C:\Users\USER\AppData\Local\Temp\ccNdlOSb.s:857    .text.TIM_UpdateRequestConfig:00000000 TIM_UpdateRequestConfig
C:\Users\USER\AppData\Local\Temp\ccNdlOSb.s:889    .text.TIM_ARRPreloadConfig:00000000 $t
C:\Users\USER\AppData\Local\Temp\ccNdlOSb.s:897    .text.TIM_ARRPreloadConfig:00000000 TIM_ARRPreloadConfig
C:\Users\USER\AppData\Local\Temp\ccNdlOSb.s:929    .text.TIM_SelectOnePulseMode:00000000 $t
C:\Users\USER\AppData\Local\Temp\ccNdlOSb.s:937    .text.TIM_SelectOnePulseMode:00000000 TIM_SelectOnePulseMode
C:\Users\USER\AppData\Local\Temp\ccNdlOSb.s:966    .text.TIM_SetClockDivision:00000000 $t
C:\Users\USER\AppData\Local\Temp\ccNdlOSb.s:974    .text.TIM_SetClockDivision:00000000 TIM_SetClockDivision
C:\Users\USER\AppData\Local\Temp\ccNdlOSb.s:1003   .text.TIM_Cmd:00000000 $t
C:\Users\USER\AppData\Local\Temp\ccNdlOSb.s:1011   .text.TIM_Cmd:00000000 TIM_Cmd
C:\Users\USER\AppData\Local\Temp\ccNdlOSb.s:1043   .text.TIM_OC1Init:00000000 $t
C:\Users\USER\AppData\Local\Temp\ccNdlOSb.s:1051   .text.TIM_OC1Init:00000000 TIM_OC1Init
C:\Users\USER\AppData\Local\Temp\ccNdlOSb.s:1200   .text.TIM_OC1Init:0000006c $d
C:\Users\USER\AppData\Local\Temp\ccNdlOSb.s:1205   .text.TIM_OC2Init:00000000 $t
C:\Users\USER\AppData\Local\Temp\ccNdlOSb.s:1213   .text.TIM_OC2Init:00000000 TIM_OC2Init
C:\Users\USER\AppData\Local\Temp\ccNdlOSb.s:1373   .text.TIM_OC2Init:00000080 $d
C:\Users\USER\AppData\Local\Temp\ccNdlOSb.s:1378   .text.TIM_OC3Init:00000000 $t
C:\Users\USER\AppData\Local\Temp\ccNdlOSb.s:1386   .text.TIM_OC3Init:00000000 TIM_OC3Init
C:\Users\USER\AppData\Local\Temp\ccNdlOSb.s:1546   .text.TIM_OC3Init:0000007c $d
C:\Users\USER\AppData\Local\Temp\ccNdlOSb.s:1552   .text.TIM_OC4Init:00000000 $t
C:\Users\USER\AppData\Local\Temp\ccNdlOSb.s:1560   .text.TIM_OC4Init:00000000 TIM_OC4Init
C:\Users\USER\AppData\Local\Temp\ccNdlOSb.s:1689   .text.TIM_OC4Init:00000064 $d
C:\Users\USER\AppData\Local\Temp\ccNdlOSb.s:1694   .text.TIM_OCStructInit:00000000 $t
C:\Users\USER\AppData\Local\Temp\ccNdlOSb.s:1702   .text.TIM_OCStructInit:00000000 TIM_OCStructInit
C:\Users\USER\AppData\Local\Temp\ccNdlOSb.s:1733   .text.TIM_SelectOCxM:00000000 $t
C:\Users\USER\AppData\Local\Temp\ccNdlOSb.s:1741   .text.TIM_SelectOCxM:00000000 TIM_SelectOCxM
C:\Users\USER\AppData\Local\Temp\ccNdlOSb.s:1845   .text.TIM_SetCompare1:00000000 $t
C:\Users\USER\AppData\Local\Temp\ccNdlOSb.s:1853   .text.TIM_SetCompare1:00000000 TIM_SetCompare1
C:\Users\USER\AppData\Local\Temp\ccNdlOSb.s:1871   .text.TIM_SetCompare2:00000000 $t
C:\Users\USER\AppData\Local\Temp\ccNdlOSb.s:1879   .text.TIM_SetCompare2:00000000 TIM_SetCompare2
C:\Users\USER\AppData\Local\Temp\ccNdlOSb.s:1897   .text.TIM_SetCompare3:00000000 $t
C:\Users\USER\AppData\Local\Temp\ccNdlOSb.s:1905   .text.TIM_SetCompare3:00000000 TIM_SetCompare3
C:\Users\USER\AppData\Local\Temp\ccNdlOSb.s:1923   .text.TIM_SetCompare4:00000000 $t
ARM GAS  C:\Users\USER\AppData\Local\Temp\ccNdlOSb.s 			page 323


C:\Users\USER\AppData\Local\Temp\ccNdlOSb.s:1931   .text.TIM_SetCompare4:00000000 TIM_SetCompare4
C:\Users\USER\AppData\Local\Temp\ccNdlOSb.s:1949   .text.TIM_ForcedOC1Config:00000000 $t
C:\Users\USER\AppData\Local\Temp\ccNdlOSb.s:1957   .text.TIM_ForcedOC1Config:00000000 TIM_ForcedOC1Config
C:\Users\USER\AppData\Local\Temp\ccNdlOSb.s:1990   .text.TIM_ForcedOC2Config:00000000 $t
C:\Users\USER\AppData\Local\Temp\ccNdlOSb.s:1998   .text.TIM_ForcedOC2Config:00000000 TIM_ForcedOC2Config
C:\Users\USER\AppData\Local\Temp\ccNdlOSb.s:2032   .text.TIM_ForcedOC3Config:00000000 $t
C:\Users\USER\AppData\Local\Temp\ccNdlOSb.s:2040   .text.TIM_ForcedOC3Config:00000000 TIM_ForcedOC3Config
C:\Users\USER\AppData\Local\Temp\ccNdlOSb.s:2073   .text.TIM_ForcedOC4Config:00000000 $t
C:\Users\USER\AppData\Local\Temp\ccNdlOSb.s:2081   .text.TIM_ForcedOC4Config:00000000 TIM_ForcedOC4Config
C:\Users\USER\AppData\Local\Temp\ccNdlOSb.s:2115   .text.TIM_OC1PreloadConfig:00000000 $t
C:\Users\USER\AppData\Local\Temp\ccNdlOSb.s:2123   .text.TIM_OC1PreloadConfig:00000000 TIM_OC1PreloadConfig
C:\Users\USER\AppData\Local\Temp\ccNdlOSb.s:2156   .text.TIM_OC2PreloadConfig:00000000 $t
C:\Users\USER\AppData\Local\Temp\ccNdlOSb.s:2164   .text.TIM_OC2PreloadConfig:00000000 TIM_OC2PreloadConfig
C:\Users\USER\AppData\Local\Temp\ccNdlOSb.s:2198   .text.TIM_OC3PreloadConfig:00000000 $t
C:\Users\USER\AppData\Local\Temp\ccNdlOSb.s:2206   .text.TIM_OC3PreloadConfig:00000000 TIM_OC3PreloadConfig
C:\Users\USER\AppData\Local\Temp\ccNdlOSb.s:2239   .text.TIM_OC4PreloadConfig:00000000 $t
C:\Users\USER\AppData\Local\Temp\ccNdlOSb.s:2247   .text.TIM_OC4PreloadConfig:00000000 TIM_OC4PreloadConfig
C:\Users\USER\AppData\Local\Temp\ccNdlOSb.s:2281   .text.TIM_OC1FastConfig:00000000 $t
C:\Users\USER\AppData\Local\Temp\ccNdlOSb.s:2289   .text.TIM_OC1FastConfig:00000000 TIM_OC1FastConfig
C:\Users\USER\AppData\Local\Temp\ccNdlOSb.s:2322   .text.TIM_OC2FastConfig:00000000 $t
C:\Users\USER\AppData\Local\Temp\ccNdlOSb.s:2330   .text.TIM_OC2FastConfig:00000000 TIM_OC2FastConfig
C:\Users\USER\AppData\Local\Temp\ccNdlOSb.s:2364   .text.TIM_OC3FastConfig:00000000 $t
C:\Users\USER\AppData\Local\Temp\ccNdlOSb.s:2372   .text.TIM_OC3FastConfig:00000000 TIM_OC3FastConfig
C:\Users\USER\AppData\Local\Temp\ccNdlOSb.s:2405   .text.TIM_OC4FastConfig:00000000 $t
C:\Users\USER\AppData\Local\Temp\ccNdlOSb.s:2413   .text.TIM_OC4FastConfig:00000000 TIM_OC4FastConfig
C:\Users\USER\AppData\Local\Temp\ccNdlOSb.s:2447   .text.TIM_ClearOC1Ref:00000000 $t
C:\Users\USER\AppData\Local\Temp\ccNdlOSb.s:2455   .text.TIM_ClearOC1Ref:00000000 TIM_ClearOC1Ref
C:\Users\USER\AppData\Local\Temp\ccNdlOSb.s:2488   .text.TIM_ClearOC2Ref:00000000 $t
C:\Users\USER\AppData\Local\Temp\ccNdlOSb.s:2496   .text.TIM_ClearOC2Ref:00000000 TIM_ClearOC2Ref
C:\Users\USER\AppData\Local\Temp\ccNdlOSb.s:2529   .text.TIM_ClearOC3Ref:00000000 $t
C:\Users\USER\AppData\Local\Temp\ccNdlOSb.s:2537   .text.TIM_ClearOC3Ref:00000000 TIM_ClearOC3Ref
C:\Users\USER\AppData\Local\Temp\ccNdlOSb.s:2570   .text.TIM_ClearOC4Ref:00000000 $t
C:\Users\USER\AppData\Local\Temp\ccNdlOSb.s:2578   .text.TIM_ClearOC4Ref:00000000 TIM_ClearOC4Ref
C:\Users\USER\AppData\Local\Temp\ccNdlOSb.s:2611   .text.TIM_OC1PolarityConfig:00000000 $t
C:\Users\USER\AppData\Local\Temp\ccNdlOSb.s:2619   .text.TIM_OC1PolarityConfig:00000000 TIM_OC1PolarityConfig
C:\Users\USER\AppData\Local\Temp\ccNdlOSb.s:2652   .text.TIM_OC1NPolarityConfig:00000000 $t
C:\Users\USER\AppData\Local\Temp\ccNdlOSb.s:2660   .text.TIM_OC1NPolarityConfig:00000000 TIM_OC1NPolarityConfig
C:\Users\USER\AppData\Local\Temp\ccNdlOSb.s:2693   .text.TIM_OC2PolarityConfig:00000000 $t
C:\Users\USER\AppData\Local\Temp\ccNdlOSb.s:2701   .text.TIM_OC2PolarityConfig:00000000 TIM_OC2PolarityConfig
C:\Users\USER\AppData\Local\Temp\ccNdlOSb.s:2735   .text.TIM_OC2NPolarityConfig:00000000 $t
C:\Users\USER\AppData\Local\Temp\ccNdlOSb.s:2743   .text.TIM_OC2NPolarityConfig:00000000 TIM_OC2NPolarityConfig
C:\Users\USER\AppData\Local\Temp\ccNdlOSb.s:2777   .text.TIM_OC3PolarityConfig:00000000 $t
C:\Users\USER\AppData\Local\Temp\ccNdlOSb.s:2785   .text.TIM_OC3PolarityConfig:00000000 TIM_OC3PolarityConfig
C:\Users\USER\AppData\Local\Temp\ccNdlOSb.s:2819   .text.TIM_OC3NPolarityConfig:00000000 $t
C:\Users\USER\AppData\Local\Temp\ccNdlOSb.s:2827   .text.TIM_OC3NPolarityConfig:00000000 TIM_OC3NPolarityConfig
C:\Users\USER\AppData\Local\Temp\ccNdlOSb.s:2861   .text.TIM_OC4PolarityConfig:00000000 $t
C:\Users\USER\AppData\Local\Temp\ccNdlOSb.s:2869   .text.TIM_OC4PolarityConfig:00000000 TIM_OC4PolarityConfig
C:\Users\USER\AppData\Local\Temp\ccNdlOSb.s:2903   .text.TIM_CCxCmd:00000000 $t
C:\Users\USER\AppData\Local\Temp\ccNdlOSb.s:2911   .text.TIM_CCxCmd:00000000 TIM_CCxCmd
C:\Users\USER\AppData\Local\Temp\ccNdlOSb.s:2963   .text.TIM_CCxNCmd:00000000 $t
C:\Users\USER\AppData\Local\Temp\ccNdlOSb.s:2971   .text.TIM_CCxNCmd:00000000 TIM_CCxNCmd
C:\Users\USER\AppData\Local\Temp\ccNdlOSb.s:3023   .text.TIM_ICInit:00000000 $t
C:\Users\USER\AppData\Local\Temp\ccNdlOSb.s:3031   .text.TIM_ICInit:00000000 TIM_ICInit
C:\Users\USER\AppData\Local\Temp\ccNdlOSb.s:3452   .text.TIM_ICStructInit:00000000 $t
C:\Users\USER\AppData\Local\Temp\ccNdlOSb.s:3460   .text.TIM_ICStructInit:00000000 TIM_ICStructInit
C:\Users\USER\AppData\Local\Temp\ccNdlOSb.s:3492   .text.TIM_PWMIConfig:00000000 $t
C:\Users\USER\AppData\Local\Temp\ccNdlOSb.s:3500   .text.TIM_PWMIConfig:00000000 TIM_PWMIConfig
ARM GAS  C:\Users\USER\AppData\Local\Temp\ccNdlOSb.s 			page 324


C:\Users\USER\AppData\Local\Temp\ccNdlOSb.s:3882   .text.TIM_GetCapture1:00000000 $t
C:\Users\USER\AppData\Local\Temp\ccNdlOSb.s:3890   .text.TIM_GetCapture1:00000000 TIM_GetCapture1
C:\Users\USER\AppData\Local\Temp\ccNdlOSb.s:3909   .text.TIM_GetCapture2:00000000 $t
C:\Users\USER\AppData\Local\Temp\ccNdlOSb.s:3917   .text.TIM_GetCapture2:00000000 TIM_GetCapture2
C:\Users\USER\AppData\Local\Temp\ccNdlOSb.s:3936   .text.TIM_GetCapture3:00000000 $t
C:\Users\USER\AppData\Local\Temp\ccNdlOSb.s:3944   .text.TIM_GetCapture3:00000000 TIM_GetCapture3
C:\Users\USER\AppData\Local\Temp\ccNdlOSb.s:3963   .text.TIM_GetCapture4:00000000 $t
C:\Users\USER\AppData\Local\Temp\ccNdlOSb.s:3971   .text.TIM_GetCapture4:00000000 TIM_GetCapture4
C:\Users\USER\AppData\Local\Temp\ccNdlOSb.s:3990   .text.TIM_SetIC1Prescaler:00000000 $t
C:\Users\USER\AppData\Local\Temp\ccNdlOSb.s:3998   .text.TIM_SetIC1Prescaler:00000000 TIM_SetIC1Prescaler
C:\Users\USER\AppData\Local\Temp\ccNdlOSb.s:4027   .text.TIM_SetIC2Prescaler:00000000 $t
C:\Users\USER\AppData\Local\Temp\ccNdlOSb.s:4035   .text.TIM_SetIC2Prescaler:00000000 TIM_SetIC2Prescaler
C:\Users\USER\AppData\Local\Temp\ccNdlOSb.s:4068   .text.TIM_SetIC3Prescaler:00000000 $t
C:\Users\USER\AppData\Local\Temp\ccNdlOSb.s:4076   .text.TIM_SetIC3Prescaler:00000000 TIM_SetIC3Prescaler
C:\Users\USER\AppData\Local\Temp\ccNdlOSb.s:4105   .text.TIM_SetIC4Prescaler:00000000 $t
C:\Users\USER\AppData\Local\Temp\ccNdlOSb.s:4113   .text.TIM_SetIC4Prescaler:00000000 TIM_SetIC4Prescaler
C:\Users\USER\AppData\Local\Temp\ccNdlOSb.s:4146   .text.TIM_BDTRConfig:00000000 $t
C:\Users\USER\AppData\Local\Temp\ccNdlOSb.s:4154   .text.TIM_BDTRConfig:00000000 TIM_BDTRConfig
C:\Users\USER\AppData\Local\Temp\ccNdlOSb.s:4203   .text.TIM_BDTRStructInit:00000000 $t
C:\Users\USER\AppData\Local\Temp\ccNdlOSb.s:4211   .text.TIM_BDTRStructInit:00000000 TIM_BDTRStructInit
C:\Users\USER\AppData\Local\Temp\ccNdlOSb.s:4247   .text.TIM_CtrlPWMOutputs:00000000 $t
C:\Users\USER\AppData\Local\Temp\ccNdlOSb.s:4255   .text.TIM_CtrlPWMOutputs:00000000 TIM_CtrlPWMOutputs
C:\Users\USER\AppData\Local\Temp\ccNdlOSb.s:4286   .text.TIM_SelectCOM:00000000 $t
C:\Users\USER\AppData\Local\Temp\ccNdlOSb.s:4294   .text.TIM_SelectCOM:00000000 TIM_SelectCOM
C:\Users\USER\AppData\Local\Temp\ccNdlOSb.s:4326   .text.TIM_CCPreloadControl:00000000 $t
C:\Users\USER\AppData\Local\Temp\ccNdlOSb.s:4334   .text.TIM_CCPreloadControl:00000000 TIM_CCPreloadControl
C:\Users\USER\AppData\Local\Temp\ccNdlOSb.s:4366   .text.TIM_ITConfig:00000000 $t
C:\Users\USER\AppData\Local\Temp\ccNdlOSb.s:4374   .text.TIM_ITConfig:00000000 TIM_ITConfig
C:\Users\USER\AppData\Local\Temp\ccNdlOSb.s:4415   .text.TIM_GenerateEvent:00000000 $t
C:\Users\USER\AppData\Local\Temp\ccNdlOSb.s:4423   .text.TIM_GenerateEvent:00000000 TIM_GenerateEvent
C:\Users\USER\AppData\Local\Temp\ccNdlOSb.s:4442   .text.TIM_GetFlagStatus:00000000 $t
C:\Users\USER\AppData\Local\Temp\ccNdlOSb.s:4450   .text.TIM_GetFlagStatus:00000000 TIM_GetFlagStatus
C:\Users\USER\AppData\Local\Temp\ccNdlOSb.s:4479   .text.TIM_ClearFlag:00000000 $t
C:\Users\USER\AppData\Local\Temp\ccNdlOSb.s:4487   .text.TIM_ClearFlag:00000000 TIM_ClearFlag
C:\Users\USER\AppData\Local\Temp\ccNdlOSb.s:4510   .text.TIM_GetITStatus:00000000 $t
C:\Users\USER\AppData\Local\Temp\ccNdlOSb.s:4518   .text.TIM_GetITStatus:00000000 TIM_GetITStatus
C:\Users\USER\AppData\Local\Temp\ccNdlOSb.s:4559   .text.TIM_ClearITPendingBit:00000000 $t
C:\Users\USER\AppData\Local\Temp\ccNdlOSb.s:4567   .text.TIM_ClearITPendingBit:00000000 TIM_ClearITPendingBit
C:\Users\USER\AppData\Local\Temp\ccNdlOSb.s:4581   .text.TIM_DMAConfig:00000000 $t
C:\Users\USER\AppData\Local\Temp\ccNdlOSb.s:4589   .text.TIM_DMAConfig:00000000 TIM_DMAConfig
C:\Users\USER\AppData\Local\Temp\ccNdlOSb.s:4612   .text.TIM_DMACmd:00000000 $t
C:\Users\USER\AppData\Local\Temp\ccNdlOSb.s:4620   .text.TIM_DMACmd:00000000 TIM_DMACmd
C:\Users\USER\AppData\Local\Temp\ccNdlOSb.s:4631   .text.TIM_SelectCCDMA:00000000 $t
C:\Users\USER\AppData\Local\Temp\ccNdlOSb.s:4639   .text.TIM_SelectCCDMA:00000000 TIM_SelectCCDMA
C:\Users\USER\AppData\Local\Temp\ccNdlOSb.s:4671   .text.TIM_InternalClockConfig:00000000 $t
C:\Users\USER\AppData\Local\Temp\ccNdlOSb.s:4679   .text.TIM_InternalClockConfig:00000000 TIM_InternalClockConfig
C:\Users\USER\AppData\Local\Temp\ccNdlOSb.s:4700   .text.TIM_ITRxExternalClockConfig:00000000 $t
C:\Users\USER\AppData\Local\Temp\ccNdlOSb.s:4708   .text.TIM_ITRxExternalClockConfig:00000000 TIM_ITRxExternalClockConfig
C:\Users\USER\AppData\Local\Temp\ccNdlOSb.s:4757   .text.TIM_TIxExternalClockConfig:00000000 $t
C:\Users\USER\AppData\Local\Temp\ccNdlOSb.s:4765   .text.TIM_TIxExternalClockConfig:00000000 TIM_TIxExternalClockConfig
C:\Users\USER\AppData\Local\Temp\ccNdlOSb.s:4963   .text.TIM_ETRClockMode1Config:00000000 $t
C:\Users\USER\AppData\Local\Temp\ccNdlOSb.s:4971   .text.TIM_ETRClockMode1Config:00000000 TIM_ETRClockMode1Config
C:\Users\USER\AppData\Local\Temp\ccNdlOSb.s:5057   .text.TIM_ETRClockMode2Config:00000000 $t
C:\Users\USER\AppData\Local\Temp\ccNdlOSb.s:5065   .text.TIM_ETRClockMode2Config:00000000 TIM_ETRClockMode2Config
C:\Users\USER\AppData\Local\Temp\ccNdlOSb.s:5137   .text.TIM_SelectInputTrigger:00000000 $t
C:\Users\USER\AppData\Local\Temp\ccNdlOSb.s:5145   .text.TIM_SelectInputTrigger:00000000 TIM_SelectInputTrigger
C:\Users\USER\AppData\Local\Temp\ccNdlOSb.s:5178   .text.TIM_SelectOutputTrigger:00000000 $t
ARM GAS  C:\Users\USER\AppData\Local\Temp\ccNdlOSb.s 			page 325


C:\Users\USER\AppData\Local\Temp\ccNdlOSb.s:5186   .text.TIM_SelectOutputTrigger:00000000 TIM_SelectOutputTrigger
C:\Users\USER\AppData\Local\Temp\ccNdlOSb.s:5215   .text.TIM_SelectSlaveMode:00000000 $t
C:\Users\USER\AppData\Local\Temp\ccNdlOSb.s:5223   .text.TIM_SelectSlaveMode:00000000 TIM_SelectSlaveMode
C:\Users\USER\AppData\Local\Temp\ccNdlOSb.s:5252   .text.TIM_SelectMasterSlaveMode:00000000 $t
C:\Users\USER\AppData\Local\Temp\ccNdlOSb.s:5260   .text.TIM_SelectMasterSlaveMode:00000000 TIM_SelectMasterSlaveMode
C:\Users\USER\AppData\Local\Temp\ccNdlOSb.s:5289   .text.TIM_ETRConfig:00000000 $t
C:\Users\USER\AppData\Local\Temp\ccNdlOSb.s:5297   .text.TIM_ETRConfig:00000000 TIM_ETRConfig
C:\Users\USER\AppData\Local\Temp\ccNdlOSb.s:5345   .text.TIM_EncoderInterfaceConfig:00000000 $t
C:\Users\USER\AppData\Local\Temp\ccNdlOSb.s:5353   .text.TIM_EncoderInterfaceConfig:00000000 TIM_EncoderInterfaceConfig
C:\Users\USER\AppData\Local\Temp\ccNdlOSb.s:5444   .text.TIM_SelectHallSensor:00000000 $t
C:\Users\USER\AppData\Local\Temp\ccNdlOSb.s:5452   .text.TIM_SelectHallSensor:00000000 TIM_SelectHallSensor
C:\Users\USER\AppData\Local\Temp\ccNdlOSb.s:5484   .text.TIM_RemapConfig:00000000 $t
C:\Users\USER\AppData\Local\Temp\ccNdlOSb.s:5492   .text.TIM_RemapConfig:00000000 TIM_RemapConfig

UNDEFINED SYMBOLS
RCC_APB1PeriphResetCmd
RCC_APB2PeriphResetCmd
