ARM GAS  C:\Users\USER\AppData\Local\Temp\cclOE3lb.s 			page 1


   1              		.cpu cortex-m4
   2              		.eabi_attribute 27, 1
   3              		.eabi_attribute 28, 1
   4              		.eabi_attribute 20, 1
   5              		.eabi_attribute 21, 1
   6              		.eabi_attribute 23, 3
   7              		.eabi_attribute 24, 1
   8              		.eabi_attribute 25, 1
   9              		.eabi_attribute 26, 1
  10              		.eabi_attribute 30, 2
  11              		.eabi_attribute 34, 1
  12              		.eabi_attribute 18, 4
  13              		.file	"stm32f4xx_flash.c"
  14              		.text
  15              	.Ltext0:
  16              		.cfi_sections	.debug_frame
  17              		.section	.text.FLASH_SetLatency,"ax",%progbits
  18              		.align	1
  19              		.p2align 4,,15
  20              		.global	FLASH_SetLatency
  21              		.arch armv7e-m
  22              		.syntax unified
  23              		.thumb
  24              		.thumb_func
  25              		.fpu fpv4-sp-d16
  26              		.type	FLASH_SetLatency, %function
  27              	FLASH_SetLatency:
  28              	.LVL0:
  29              	.LFB112:
  30              		.file 1 "src/ChibiOS_3.0.2/ext/stdperiph_stm32f4/src/stm32f4xx_flash.c"
  31              		.loc 1 296 1 view -0
  32              		.cfi_startproc
  33              		@ args = 0, pretend = 0, frame = 0
  34              		@ frame_needed = 0, uses_anonymous_args = 0
  35              		@ link register save eliminated.
  36              		.loc 1 298 3 view .LVU1
  37              		.loc 1 301 3 view .LVU2
  38              		.loc 1 301 38 is_stmt 0 view .LVU3
  39 0000 014B     		ldr	r3, .L3
  40              		.loc 1 301 40 view .LVU4
  41 0002 C0B2     		uxtb	r0, r0
  42              	.LVL1:
  43              		.loc 1 301 38 view .LVU5
  44 0004 1870     		strb	r0, [r3]
  45              		.loc 1 302 1 view .LVU6
  46 0006 7047     		bx	lr
  47              	.L4:
  48              		.align	2
  49              	.L3:
  50 0008 003C0240 		.word	1073888256
  51              		.cfi_endproc
  52              	.LFE112:
  53              		.size	FLASH_SetLatency, .-FLASH_SetLatency
  54              		.section	.text.FLASH_PrefetchBufferCmd,"ax",%progbits
  55              		.align	1
  56              		.p2align 4,,15
  57              		.global	FLASH_PrefetchBufferCmd
ARM GAS  C:\Users\USER\AppData\Local\Temp\cclOE3lb.s 			page 2


  58              		.syntax unified
  59              		.thumb
  60              		.thumb_func
  61              		.fpu fpv4-sp-d16
  62              		.type	FLASH_PrefetchBufferCmd, %function
  63              	FLASH_PrefetchBufferCmd:
  64              	.LVL2:
  65              	.LFB113:
  66              		.loc 1 311 1 is_stmt 1 view -0
  67              		.cfi_startproc
  68              		@ args = 0, pretend = 0, frame = 0
  69              		@ frame_needed = 0, uses_anonymous_args = 0
  70              		@ link register save eliminated.
  71              		.loc 1 313 3 view .LVU8
  72              		.loc 1 316 3 view .LVU9
  73              		.loc 1 318 16 is_stmt 0 view .LVU10
  74 0000 054A     		ldr	r2, .L8
  75 0002 1368     		ldr	r3, [r2]
  76              		.loc 1 316 5 view .LVU11
  77 0004 18B1     		cbz	r0, .L6
  78              		.loc 1 318 5 is_stmt 1 view .LVU12
  79              		.loc 1 318 16 is_stmt 0 view .LVU13
  80 0006 43F48073 		orr	r3, r3, #256
  81 000a 1360     		str	r3, [r2]
  82 000c 7047     		bx	lr
  83              	.L6:
  84              		.loc 1 322 5 is_stmt 1 view .LVU14
  85              		.loc 1 322 16 is_stmt 0 view .LVU15
  86 000e 23F48073 		bic	r3, r3, #256
  87 0012 1360     		str	r3, [r2]
  88              		.loc 1 324 1 view .LVU16
  89 0014 7047     		bx	lr
  90              	.L9:
  91 0016 00BF     		.align	2
  92              	.L8:
  93 0018 003C0240 		.word	1073888256
  94              		.cfi_endproc
  95              	.LFE113:
  96              		.size	FLASH_PrefetchBufferCmd, .-FLASH_PrefetchBufferCmd
  97              		.section	.text.FLASH_InstructionCacheCmd,"ax",%progbits
  98              		.align	1
  99              		.p2align 4,,15
 100              		.global	FLASH_InstructionCacheCmd
 101              		.syntax unified
 102              		.thumb
 103              		.thumb_func
 104              		.fpu fpv4-sp-d16
 105              		.type	FLASH_InstructionCacheCmd, %function
 106              	FLASH_InstructionCacheCmd:
 107              	.LVL3:
 108              	.LFB114:
 109              		.loc 1 333 1 is_stmt 1 view -0
 110              		.cfi_startproc
 111              		@ args = 0, pretend = 0, frame = 0
 112              		@ frame_needed = 0, uses_anonymous_args = 0
 113              		@ link register save eliminated.
 114              		.loc 1 335 3 view .LVU18
ARM GAS  C:\Users\USER\AppData\Local\Temp\cclOE3lb.s 			page 3


 115              		.loc 1 337 3 view .LVU19
 116              		.loc 1 339 16 is_stmt 0 view .LVU20
 117 0000 054A     		ldr	r2, .L13
 118 0002 1368     		ldr	r3, [r2]
 119              		.loc 1 337 5 view .LVU21
 120 0004 18B1     		cbz	r0, .L11
 121              		.loc 1 339 5 is_stmt 1 view .LVU22
 122              		.loc 1 339 16 is_stmt 0 view .LVU23
 123 0006 43F40073 		orr	r3, r3, #512
 124 000a 1360     		str	r3, [r2]
 125 000c 7047     		bx	lr
 126              	.L11:
 127              		.loc 1 343 5 is_stmt 1 view .LVU24
 128              		.loc 1 343 16 is_stmt 0 view .LVU25
 129 000e 23F40073 		bic	r3, r3, #512
 130 0012 1360     		str	r3, [r2]
 131              		.loc 1 345 1 view .LVU26
 132 0014 7047     		bx	lr
 133              	.L14:
 134 0016 00BF     		.align	2
 135              	.L13:
 136 0018 003C0240 		.word	1073888256
 137              		.cfi_endproc
 138              	.LFE114:
 139              		.size	FLASH_InstructionCacheCmd, .-FLASH_InstructionCacheCmd
 140              		.section	.text.FLASH_DataCacheCmd,"ax",%progbits
 141              		.align	1
 142              		.p2align 4,,15
 143              		.global	FLASH_DataCacheCmd
 144              		.syntax unified
 145              		.thumb
 146              		.thumb_func
 147              		.fpu fpv4-sp-d16
 148              		.type	FLASH_DataCacheCmd, %function
 149              	FLASH_DataCacheCmd:
 150              	.LVL4:
 151              	.LFB115:
 152              		.loc 1 354 1 is_stmt 1 view -0
 153              		.cfi_startproc
 154              		@ args = 0, pretend = 0, frame = 0
 155              		@ frame_needed = 0, uses_anonymous_args = 0
 156              		@ link register save eliminated.
 157              		.loc 1 356 3 view .LVU28
 158              		.loc 1 358 3 view .LVU29
 159              		.loc 1 360 16 is_stmt 0 view .LVU30
 160 0000 054A     		ldr	r2, .L18
 161 0002 1368     		ldr	r3, [r2]
 162              		.loc 1 358 5 view .LVU31
 163 0004 18B1     		cbz	r0, .L16
 164              		.loc 1 360 5 is_stmt 1 view .LVU32
 165              		.loc 1 360 16 is_stmt 0 view .LVU33
 166 0006 43F48063 		orr	r3, r3, #1024
 167 000a 1360     		str	r3, [r2]
 168 000c 7047     		bx	lr
 169              	.L16:
 170              		.loc 1 364 5 is_stmt 1 view .LVU34
 171              		.loc 1 364 16 is_stmt 0 view .LVU35
ARM GAS  C:\Users\USER\AppData\Local\Temp\cclOE3lb.s 			page 4


 172 000e 23F48063 		bic	r3, r3, #1024
 173 0012 1360     		str	r3, [r2]
 174              		.loc 1 366 1 view .LVU36
 175 0014 7047     		bx	lr
 176              	.L19:
 177 0016 00BF     		.align	2
 178              	.L18:
 179 0018 003C0240 		.word	1073888256
 180              		.cfi_endproc
 181              	.LFE115:
 182              		.size	FLASH_DataCacheCmd, .-FLASH_DataCacheCmd
 183              		.section	.text.FLASH_InstructionCacheReset,"ax",%progbits
 184              		.align	1
 185              		.p2align 4,,15
 186              		.global	FLASH_InstructionCacheReset
 187              		.syntax unified
 188              		.thumb
 189              		.thumb_func
 190              		.fpu fpv4-sp-d16
 191              		.type	FLASH_InstructionCacheReset, %function
 192              	FLASH_InstructionCacheReset:
 193              	.LFB116:
 194              		.loc 1 375 1 is_stmt 1 view -0
 195              		.cfi_startproc
 196              		@ args = 0, pretend = 0, frame = 0
 197              		@ frame_needed = 0, uses_anonymous_args = 0
 198              		@ link register save eliminated.
 199              		.loc 1 376 3 view .LVU38
 200              		.loc 1 376 14 is_stmt 0 view .LVU39
 201 0000 024A     		ldr	r2, .L21
 202 0002 1368     		ldr	r3, [r2]
 203 0004 43F40063 		orr	r3, r3, #2048
 204 0008 1360     		str	r3, [r2]
 205              		.loc 1 377 1 view .LVU40
 206 000a 7047     		bx	lr
 207              	.L22:
 208              		.align	2
 209              	.L21:
 210 000c 003C0240 		.word	1073888256
 211              		.cfi_endproc
 212              	.LFE116:
 213              		.size	FLASH_InstructionCacheReset, .-FLASH_InstructionCacheReset
 214              		.section	.text.FLASH_DataCacheReset,"ax",%progbits
 215              		.align	1
 216              		.p2align 4,,15
 217              		.global	FLASH_DataCacheReset
 218              		.syntax unified
 219              		.thumb
 220              		.thumb_func
 221              		.fpu fpv4-sp-d16
 222              		.type	FLASH_DataCacheReset, %function
 223              	FLASH_DataCacheReset:
 224              	.LFB117:
 225              		.loc 1 386 1 is_stmt 1 view -0
 226              		.cfi_startproc
 227              		@ args = 0, pretend = 0, frame = 0
 228              		@ frame_needed = 0, uses_anonymous_args = 0
ARM GAS  C:\Users\USER\AppData\Local\Temp\cclOE3lb.s 			page 5


 229              		@ link register save eliminated.
 230              		.loc 1 387 3 view .LVU42
 231              		.loc 1 387 14 is_stmt 0 view .LVU43
 232 0000 024A     		ldr	r2, .L24
 233 0002 1368     		ldr	r3, [r2]
 234 0004 43F48053 		orr	r3, r3, #4096
 235 0008 1360     		str	r3, [r2]
 236              		.loc 1 388 1 view .LVU44
 237 000a 7047     		bx	lr
 238              	.L25:
 239              		.align	2
 240              	.L24:
 241 000c 003C0240 		.word	1073888256
 242              		.cfi_endproc
 243              	.LFE117:
 244              		.size	FLASH_DataCacheReset, .-FLASH_DataCacheReset
 245              		.section	.text.FLASH_Unlock,"ax",%progbits
 246              		.align	1
 247              		.p2align 4,,15
 248              		.global	FLASH_Unlock
 249              		.syntax unified
 250              		.thumb
 251              		.thumb_func
 252              		.fpu fpv4-sp-d16
 253              		.type	FLASH_Unlock, %function
 254              	FLASH_Unlock:
 255              	.LFB118:
 256              		.loc 1 433 1 is_stmt 1 view -0
 257              		.cfi_startproc
 258              		@ args = 0, pretend = 0, frame = 0
 259              		@ frame_needed = 0, uses_anonymous_args = 0
 260              		@ link register save eliminated.
 261              		.loc 1 434 3 view .LVU46
 262              		.loc 1 434 12 is_stmt 0 view .LVU47
 263 0000 044B     		ldr	r3, .L28
 264 0002 1A69     		ldr	r2, [r3, #16]
 265              		.loc 1 434 5 view .LVU48
 266 0004 002A     		cmp	r2, #0
 267 0006 03DA     		bge	.L26
 268              		.loc 1 437 5 is_stmt 1 view .LVU49
 269              		.loc 1 437 17 is_stmt 0 view .LVU50
 270 0008 0349     		ldr	r1, .L28+4
 271              		.loc 1 438 17 view .LVU51
 272 000a 044A     		ldr	r2, .L28+8
 273              		.loc 1 437 17 view .LVU52
 274 000c 5960     		str	r1, [r3, #4]
 275              		.loc 1 438 5 is_stmt 1 view .LVU53
 276              		.loc 1 438 17 is_stmt 0 view .LVU54
 277 000e 5A60     		str	r2, [r3, #4]
 278              	.L26:
 279              		.loc 1 440 1 view .LVU55
 280 0010 7047     		bx	lr
 281              	.L29:
 282 0012 00BF     		.align	2
 283              	.L28:
 284 0014 003C0240 		.word	1073888256
 285 0018 23016745 		.word	1164378403
ARM GAS  C:\Users\USER\AppData\Local\Temp\cclOE3lb.s 			page 6


 286 001c AB89EFCD 		.word	-839939669
 287              		.cfi_endproc
 288              	.LFE118:
 289              		.size	FLASH_Unlock, .-FLASH_Unlock
 290              		.section	.text.FLASH_Lock,"ax",%progbits
 291              		.align	1
 292              		.p2align 4,,15
 293              		.global	FLASH_Lock
 294              		.syntax unified
 295              		.thumb
 296              		.thumb_func
 297              		.fpu fpv4-sp-d16
 298              		.type	FLASH_Lock, %function
 299              	FLASH_Lock:
 300              	.LFB119:
 301              		.loc 1 448 1 is_stmt 1 view -0
 302              		.cfi_startproc
 303              		@ args = 0, pretend = 0, frame = 0
 304              		@ frame_needed = 0, uses_anonymous_args = 0
 305              		@ link register save eliminated.
 306              		.loc 1 450 3 view .LVU57
 307              		.loc 1 450 13 is_stmt 0 view .LVU58
 308 0000 024A     		ldr	r2, .L31
 309 0002 1369     		ldr	r3, [r2, #16]
 310 0004 43F00043 		orr	r3, r3, #-2147483648
 311 0008 1361     		str	r3, [r2, #16]
 312              		.loc 1 451 1 view .LVU59
 313 000a 7047     		bx	lr
 314              	.L32:
 315              		.align	2
 316              	.L31:
 317 000c 003C0240 		.word	1073888256
 318              		.cfi_endproc
 319              	.LFE119:
 320              		.size	FLASH_Lock, .-FLASH_Lock
 321              		.section	.text.FLASH_OB_Unlock,"ax",%progbits
 322              		.align	1
 323              		.p2align 4,,15
 324              		.global	FLASH_OB_Unlock
 325              		.syntax unified
 326              		.thumb
 327              		.thumb_func
 328              		.fpu fpv4-sp-d16
 329              		.type	FLASH_OB_Unlock, %function
 330              	FLASH_OB_Unlock:
 331              	.LFB128:
 332              		.loc 1 990 1 is_stmt 1 view -0
 333              		.cfi_startproc
 334              		@ args = 0, pretend = 0, frame = 0
 335              		@ frame_needed = 0, uses_anonymous_args = 0
 336              		@ link register save eliminated.
 337              		.loc 1 991 3 view .LVU61
 338              		.loc 1 991 12 is_stmt 0 view .LVU62
 339 0000 044B     		ldr	r3, .L38
 340 0002 5A69     		ldr	r2, [r3, #20]
 341              		.loc 1 991 5 view .LVU63
 342 0004 D207     		lsls	r2, r2, #31
ARM GAS  C:\Users\USER\AppData\Local\Temp\cclOE3lb.s 			page 7


 343 0006 03D5     		bpl	.L33
 344              		.loc 1 994 5 is_stmt 1 view .LVU64
 345              		.loc 1 994 20 is_stmt 0 view .LVU65
 346 0008 0349     		ldr	r1, .L38+4
 347              		.loc 1 995 20 view .LVU66
 348 000a 044A     		ldr	r2, .L38+8
 349              		.loc 1 994 20 view .LVU67
 350 000c 9960     		str	r1, [r3, #8]
 351              		.loc 1 995 5 is_stmt 1 view .LVU68
 352              		.loc 1 995 20 is_stmt 0 view .LVU69
 353 000e 9A60     		str	r2, [r3, #8]
 354              	.L33:
 355              		.loc 1 997 1 view .LVU70
 356 0010 7047     		bx	lr
 357              	.L39:
 358 0012 00BF     		.align	2
 359              	.L38:
 360 0014 003C0240 		.word	1073888256
 361 0018 3B2A1908 		.word	135866939
 362 001c 7F6E5D4C 		.word	1281191551
 363              		.cfi_endproc
 364              	.LFE128:
 365              		.size	FLASH_OB_Unlock, .-FLASH_OB_Unlock
 366              		.section	.text.FLASH_OB_Lock,"ax",%progbits
 367              		.align	1
 368              		.p2align 4,,15
 369              		.global	FLASH_OB_Lock
 370              		.syntax unified
 371              		.thumb
 372              		.thumb_func
 373              		.fpu fpv4-sp-d16
 374              		.type	FLASH_OB_Lock, %function
 375              	FLASH_OB_Lock:
 376              	.LFB129:
 377              		.loc 1 1005 1 is_stmt 1 view -0
 378              		.cfi_startproc
 379              		@ args = 0, pretend = 0, frame = 0
 380              		@ frame_needed = 0, uses_anonymous_args = 0
 381              		@ link register save eliminated.
 382              		.loc 1 1007 3 view .LVU72
 383              		.loc 1 1007 16 is_stmt 0 view .LVU73
 384 0000 024A     		ldr	r2, .L41
 385 0002 5369     		ldr	r3, [r2, #20]
 386 0004 43F00103 		orr	r3, r3, #1
 387 0008 5361     		str	r3, [r2, #20]
 388              		.loc 1 1008 1 view .LVU74
 389 000a 7047     		bx	lr
 390              	.L42:
 391              		.align	2
 392              	.L41:
 393 000c 003C0240 		.word	1073888256
 394              		.cfi_endproc
 395              	.LFE129:
 396              		.size	FLASH_OB_Lock, .-FLASH_OB_Lock
 397              		.section	.text.FLASH_OB_PCROPSelectionConfig,"ax",%progbits
 398              		.align	1
 399              		.p2align 4,,15
ARM GAS  C:\Users\USER\AppData\Local\Temp\cclOE3lb.s 			page 8


 400              		.global	FLASH_OB_PCROPSelectionConfig
 401              		.syntax unified
 402              		.thumb
 403              		.thumb_func
 404              		.fpu fpv4-sp-d16
 405              		.type	FLASH_OB_PCROPSelectionConfig, %function
 406              	FLASH_OB_PCROPSelectionConfig:
 407              	.LVL5:
 408              	.LFB132:
 409              		.loc 1 1120 1 is_stmt 1 view -0
 410              		.cfi_startproc
 411              		@ args = 0, pretend = 0, frame = 0
 412              		@ frame_needed = 0, uses_anonymous_args = 0
 413              		@ link register save eliminated.
 414              		.loc 1 1121 3 view .LVU76
 415              		.loc 1 1124 3 view .LVU77
 416              		.loc 1 1127 3 view .LVU78
 417              		.loc 1 1127 65 is_stmt 0 view .LVU79
 418 0000 034A     		ldr	r2, .L44
 419 0002 1378     		ldrb	r3, [r2]	@ zero_extendqisi2
 420              	.LVL6:
 421              		.loc 1 1129 3 is_stmt 1 view .LVU80
 422              		.loc 1 1127 13 is_stmt 0 view .LVU81
 423 0004 03F07F03 		and	r3, r3, #127
 424              	.LVL7:
 425              		.loc 1 1129 42 view .LVU82
 426 0008 1843     		orrs	r0, r0, r3
 427              	.LVL8:
 428              		.loc 1 1129 40 view .LVU83
 429 000a 1070     		strb	r0, [r2]
 430              		.loc 1 1131 1 view .LVU84
 431 000c 7047     		bx	lr
 432              	.L45:
 433 000e 00BF     		.align	2
 434              	.L44:
 435 0010 173C0240 		.word	1073888279
 436              		.cfi_endproc
 437              	.LFE132:
 438              		.size	FLASH_OB_PCROPSelectionConfig, .-FLASH_OB_PCROPSelectionConfig
 439              		.section	.text.FLASH_OB_BootConfig,"ax",%progbits
 440              		.align	1
 441              		.p2align 4,,15
 442              		.global	FLASH_OB_BootConfig
 443              		.syntax unified
 444              		.thumb
 445              		.thumb_func
 446              		.fpu fpv4-sp-d16
 447              		.type	FLASH_OB_BootConfig, %function
 448              	FLASH_OB_BootConfig:
 449              	.LVL9:
 450              	.LFB137:
 451              		.loc 1 1296 1 is_stmt 1 view -0
 452              		.cfi_startproc
 453              		@ args = 0, pretend = 0, frame = 0
 454              		@ frame_needed = 0, uses_anonymous_args = 0
 455              		@ link register save eliminated.
 456              		.loc 1 1298 3 view .LVU86
ARM GAS  C:\Users\USER\AppData\Local\Temp\cclOE3lb.s 			page 9


 457              		.loc 1 1301 3 view .LVU87
 458              		.loc 1 1301 40 is_stmt 0 view .LVU88
 459 0000 044B     		ldr	r3, .L47
 460 0002 1A78     		ldrb	r2, [r3]	@ zero_extendqisi2
 461 0004 02F0EF02 		and	r2, r2, #239
 462 0008 1A70     		strb	r2, [r3]
 463              		.loc 1 1302 3 is_stmt 1 view .LVU89
 464              		.loc 1 1302 40 is_stmt 0 view .LVU90
 465 000a 1A78     		ldrb	r2, [r3]	@ zero_extendqisi2
 466 000c 1043     		orrs	r0, r0, r2
 467              	.LVL10:
 468              		.loc 1 1302 40 view .LVU91
 469 000e 1870     		strb	r0, [r3]
 470              		.loc 1 1304 1 view .LVU92
 471 0010 7047     		bx	lr
 472              	.L48:
 473 0012 00BF     		.align	2
 474              	.L47:
 475 0014 143C0240 		.word	1073888276
 476              		.cfi_endproc
 477              	.LFE137:
 478              		.size	FLASH_OB_BootConfig, .-FLASH_OB_BootConfig
 479              		.section	.text.FLASH_OB_BORConfig,"ax",%progbits
 480              		.align	1
 481              		.p2align 4,,15
 482              		.global	FLASH_OB_BORConfig
 483              		.syntax unified
 484              		.thumb
 485              		.thumb_func
 486              		.fpu fpv4-sp-d16
 487              		.type	FLASH_OB_BORConfig, %function
 488              	FLASH_OB_BORConfig:
 489              	.LVL11:
 490              	.LFB138:
 491              		.loc 1 1317 1 is_stmt 1 view -0
 492              		.cfi_startproc
 493              		@ args = 0, pretend = 0, frame = 0
 494              		@ frame_needed = 0, uses_anonymous_args = 0
 495              		@ link register save eliminated.
 496              		.loc 1 1319 3 view .LVU94
 497              		.loc 1 1322 3 view .LVU95
 498              		.loc 1 1322 40 is_stmt 0 view .LVU96
 499 0000 044B     		ldr	r3, .L50
 500 0002 1A78     		ldrb	r2, [r3]	@ zero_extendqisi2
 501 0004 02F0F302 		and	r2, r2, #243
 502 0008 1A70     		strb	r2, [r3]
 503              		.loc 1 1323 3 is_stmt 1 view .LVU97
 504              		.loc 1 1323 40 is_stmt 0 view .LVU98
 505 000a 1A78     		ldrb	r2, [r3]	@ zero_extendqisi2
 506 000c 1043     		orrs	r0, r0, r2
 507              	.LVL12:
 508              		.loc 1 1323 40 view .LVU99
 509 000e 1870     		strb	r0, [r3]
 510              		.loc 1 1325 1 view .LVU100
 511 0010 7047     		bx	lr
 512              	.L51:
 513 0012 00BF     		.align	2
ARM GAS  C:\Users\USER\AppData\Local\Temp\cclOE3lb.s 			page 10


 514              	.L50:
 515 0014 143C0240 		.word	1073888276
 516              		.cfi_endproc
 517              	.LFE138:
 518              		.size	FLASH_OB_BORConfig, .-FLASH_OB_BORConfig
 519              		.section	.text.FLASH_OB_GetUser,"ax",%progbits
 520              		.align	1
 521              		.p2align 4,,15
 522              		.global	FLASH_OB_GetUser
 523              		.syntax unified
 524              		.thumb
 525              		.thumb_func
 526              		.fpu fpv4-sp-d16
 527              		.type	FLASH_OB_GetUser, %function
 528              	FLASH_OB_GetUser:
 529              	.LFB140:
 530              		.loc 1 1353 1 is_stmt 1 view -0
 531              		.cfi_startproc
 532              		@ args = 0, pretend = 0, frame = 0
 533              		@ frame_needed = 0, uses_anonymous_args = 0
 534              		@ link register save eliminated.
 535              		.loc 1 1355 3 view .LVU102
 536              		.loc 1 1355 25 is_stmt 0 view .LVU103
 537 0000 024B     		ldr	r3, .L53
 538 0002 5869     		ldr	r0, [r3, #20]
 539              		.loc 1 1356 1 view .LVU104
 540 0004 C0F34710 		ubfx	r0, r0, #5, #8
 541 0008 7047     		bx	lr
 542              	.L54:
 543 000a 00BF     		.align	2
 544              	.L53:
 545 000c 003C0240 		.word	1073888256
 546              		.cfi_endproc
 547              	.LFE140:
 548              		.size	FLASH_OB_GetUser, .-FLASH_OB_GetUser
 549              		.section	.text.FLASH_OB_GetWRP,"ax",%progbits
 550              		.align	1
 551              		.p2align 4,,15
 552              		.global	FLASH_OB_GetWRP
 553              		.syntax unified
 554              		.thumb
 555              		.thumb_func
 556              		.fpu fpv4-sp-d16
 557              		.type	FLASH_OB_GetWRP, %function
 558              	FLASH_OB_GetWRP:
 559              	.LFB141:
 560              		.loc 1 1364 1 is_stmt 1 view -0
 561              		.cfi_startproc
 562              		@ args = 0, pretend = 0, frame = 0
 563              		@ frame_needed = 0, uses_anonymous_args = 0
 564              		@ link register save eliminated.
 565              		.loc 1 1366 3 view .LVU106
 566              		.loc 1 1366 11 is_stmt 0 view .LVU107
 567 0000 014B     		ldr	r3, .L56
 568 0002 1888     		ldrh	r0, [r3]
 569              		.loc 1 1367 1 view .LVU108
 570 0004 7047     		bx	lr
ARM GAS  C:\Users\USER\AppData\Local\Temp\cclOE3lb.s 			page 11


 571              	.L57:
 572 0006 00BF     		.align	2
 573              	.L56:
 574 0008 163C0240 		.word	1073888278
 575              		.cfi_endproc
 576              	.LFE141:
 577              		.size	FLASH_OB_GetWRP, .-FLASH_OB_GetWRP
 578              		.section	.text.FLASH_OB_GetWRP1,"ax",%progbits
 579              		.align	1
 580              		.p2align 4,,15
 581              		.global	FLASH_OB_GetWRP1
 582              		.syntax unified
 583              		.thumb
 584              		.thumb_func
 585              		.fpu fpv4-sp-d16
 586              		.type	FLASH_OB_GetWRP1, %function
 587              	FLASH_OB_GetWRP1:
 588              	.LFB142:
 589              		.loc 1 1378 1 is_stmt 1 view -0
 590              		.cfi_startproc
 591              		@ args = 0, pretend = 0, frame = 0
 592              		@ frame_needed = 0, uses_anonymous_args = 0
 593              		@ link register save eliminated.
 594              		.loc 1 1380 3 view .LVU110
 595              		.loc 1 1380 11 is_stmt 0 view .LVU111
 596 0000 014B     		ldr	r3, .L59
 597 0002 1888     		ldrh	r0, [r3]
 598              		.loc 1 1381 1 view .LVU112
 599 0004 7047     		bx	lr
 600              	.L60:
 601 0006 00BF     		.align	2
 602              	.L59:
 603 0008 1A3C0240 		.word	1073888282
 604              		.cfi_endproc
 605              	.LFE142:
 606              		.size	FLASH_OB_GetWRP1, .-FLASH_OB_GetWRP1
 607              		.section	.text.FLASH_OB_GetPCROP,"ax",%progbits
 608              		.align	1
 609              		.p2align 4,,15
 610              		.global	FLASH_OB_GetPCROP
 611              		.syntax unified
 612              		.thumb
 613              		.thumb_func
 614              		.fpu fpv4-sp-d16
 615              		.type	FLASH_OB_GetPCROP, %function
 616              	FLASH_OB_GetPCROP:
 617              	.LFB156:
 618              		.cfi_startproc
 619              		@ args = 0, pretend = 0, frame = 0
 620              		@ frame_needed = 0, uses_anonymous_args = 0
 621              		@ link register save eliminated.
 622 0000 014B     		ldr	r3, .L62
 623 0002 1888     		ldrh	r0, [r3]
 624 0004 7047     		bx	lr
 625              	.L63:
 626 0006 00BF     		.align	2
 627              	.L62:
ARM GAS  C:\Users\USER\AppData\Local\Temp\cclOE3lb.s 			page 12


 628 0008 163C0240 		.word	1073888278
 629              		.cfi_endproc
 630              	.LFE156:
 631              		.size	FLASH_OB_GetPCROP, .-FLASH_OB_GetPCROP
 632              		.section	.text.FLASH_OB_GetPCROP1,"ax",%progbits
 633              		.align	1
 634              		.p2align 4,,15
 635              		.global	FLASH_OB_GetPCROP1
 636              		.syntax unified
 637              		.thumb
 638              		.thumb_func
 639              		.fpu fpv4-sp-d16
 640              		.type	FLASH_OB_GetPCROP1, %function
 641              	FLASH_OB_GetPCROP1:
 642              	.LFB158:
 643              		.cfi_startproc
 644              		@ args = 0, pretend = 0, frame = 0
 645              		@ frame_needed = 0, uses_anonymous_args = 0
 646              		@ link register save eliminated.
 647 0000 014B     		ldr	r3, .L65
 648 0002 1888     		ldrh	r0, [r3]
 649 0004 7047     		bx	lr
 650              	.L66:
 651 0006 00BF     		.align	2
 652              	.L65:
 653 0008 1A3C0240 		.word	1073888282
 654              		.cfi_endproc
 655              	.LFE158:
 656              		.size	FLASH_OB_GetPCROP1, .-FLASH_OB_GetPCROP1
 657              		.section	.text.FLASH_OB_GetRDP,"ax",%progbits
 658              		.align	1
 659              		.p2align 4,,15
 660              		.global	FLASH_OB_GetRDP
 661              		.syntax unified
 662              		.thumb
 663              		.thumb_func
 664              		.fpu fpv4-sp-d16
 665              		.type	FLASH_OB_GetRDP, %function
 666              	FLASH_OB_GetRDP:
 667              	.LFB145:
 668              		.loc 1 1419 1 is_stmt 1 view -0
 669              		.cfi_startproc
 670              		@ args = 0, pretend = 0, frame = 0
 671              		@ frame_needed = 0, uses_anonymous_args = 0
 672              		@ link register save eliminated.
 673              		.loc 1 1420 3 view .LVU114
 674              	.LVL13:
 675              		.loc 1 1422 3 view .LVU115
 676              		.loc 1 1422 8 is_stmt 0 view .LVU116
 677 0000 024B     		ldr	r3, .L68
 678 0002 1878     		ldrb	r0, [r3]	@ zero_extendqisi2
 679              	.LVL14:
 680              		.loc 1 1430 3 is_stmt 1 view .LVU117
 681              		.loc 1 1431 1 is_stmt 0 view .LVU118
 682 0004 AA38     		subs	r0, r0, #170
 683              	.LVL15:
 684              		.loc 1 1431 1 view .LVU119
ARM GAS  C:\Users\USER\AppData\Local\Temp\cclOE3lb.s 			page 13


 685 0006 18BF     		it	ne
 686 0008 0120     		movne	r0, #1
 687 000a 7047     		bx	lr
 688              	.L69:
 689              		.align	2
 690              	.L68:
 691 000c 153C0240 		.word	1073888277
 692              		.cfi_endproc
 693              	.LFE145:
 694              		.size	FLASH_OB_GetRDP, .-FLASH_OB_GetRDP
 695              		.section	.text.FLASH_OB_GetBOR,"ax",%progbits
 696              		.align	1
 697              		.p2align 4,,15
 698              		.global	FLASH_OB_GetBOR
 699              		.syntax unified
 700              		.thumb
 701              		.thumb_func
 702              		.fpu fpv4-sp-d16
 703              		.type	FLASH_OB_GetBOR, %function
 704              	FLASH_OB_GetBOR:
 705              	.LFB146:
 706              		.loc 1 1443 1 is_stmt 1 view -0
 707              		.cfi_startproc
 708              		@ args = 0, pretend = 0, frame = 0
 709              		@ frame_needed = 0, uses_anonymous_args = 0
 710              		@ link register save eliminated.
 711              		.loc 1 1445 3 view .LVU121
 712              		.loc 1 1445 10 is_stmt 0 view .LVU122
 713 0000 024B     		ldr	r3, .L71
 714 0002 1878     		ldrb	r0, [r3]	@ zero_extendqisi2
 715              		.loc 1 1446 1 view .LVU123
 716 0004 00F00C00 		and	r0, r0, #12
 717 0008 7047     		bx	lr
 718              	.L72:
 719 000a 00BF     		.align	2
 720              	.L71:
 721 000c 143C0240 		.word	1073888276
 722              		.cfi_endproc
 723              	.LFE146:
 724              		.size	FLASH_OB_GetBOR, .-FLASH_OB_GetBOR
 725              		.section	.text.FLASH_ITConfig,"ax",%progbits
 726              		.align	1
 727              		.p2align 4,,15
 728              		.global	FLASH_ITConfig
 729              		.syntax unified
 730              		.thumb
 731              		.thumb_func
 732              		.fpu fpv4-sp-d16
 733              		.type	FLASH_ITConfig, %function
 734              	FLASH_ITConfig:
 735              	.LVL16:
 736              	.LFB147:
 737              		.loc 1 1472 1 is_stmt 1 view -0
 738              		.cfi_startproc
 739              		@ args = 0, pretend = 0, frame = 0
 740              		@ frame_needed = 0, uses_anonymous_args = 0
 741              		@ link register save eliminated.
ARM GAS  C:\Users\USER\AppData\Local\Temp\cclOE3lb.s 			page 14


 742              		.loc 1 1474 3 view .LVU125
 743              		.loc 1 1475 3 view .LVU126
 744              		.loc 1 1477 3 view .LVU127
 745              		.loc 1 1480 15 is_stmt 0 view .LVU128
 746 0000 044A     		ldr	r2, .L76
 747 0002 1369     		ldr	r3, [r2, #16]
 748              		.loc 1 1477 5 view .LVU129
 749 0004 11B1     		cbz	r1, .L74
 750              		.loc 1 1480 5 is_stmt 1 view .LVU130
 751              		.loc 1 1480 15 is_stmt 0 view .LVU131
 752 0006 0343     		orrs	r3, r3, r0
 753 0008 1361     		str	r3, [r2, #16]
 754 000a 7047     		bx	lr
 755              	.L74:
 756              		.loc 1 1485 5 is_stmt 1 view .LVU132
 757              		.loc 1 1485 15 is_stmt 0 view .LVU133
 758 000c 23EA0003 		bic	r3, r3, r0
 759 0010 1361     		str	r3, [r2, #16]
 760              		.loc 1 1487 1 view .LVU134
 761 0012 7047     		bx	lr
 762              	.L77:
 763              		.align	2
 764              	.L76:
 765 0014 003C0240 		.word	1073888256
 766              		.cfi_endproc
 767              	.LFE147:
 768              		.size	FLASH_ITConfig, .-FLASH_ITConfig
 769              		.section	.text.FLASH_GetFlagStatus,"ax",%progbits
 770              		.align	1
 771              		.p2align 4,,15
 772              		.global	FLASH_GetFlagStatus
 773              		.syntax unified
 774              		.thumb
 775              		.thumb_func
 776              		.fpu fpv4-sp-d16
 777              		.type	FLASH_GetFlagStatus, %function
 778              	FLASH_GetFlagStatus:
 779              	.LVL17:
 780              	.LFB148:
 781              		.loc 1 1504 1 is_stmt 1 view -0
 782              		.cfi_startproc
 783              		@ args = 0, pretend = 0, frame = 0
 784              		@ frame_needed = 0, uses_anonymous_args = 0
 785              		@ link register save eliminated.
 786              		.loc 1 1505 3 view .LVU136
 787              		.loc 1 1507 3 view .LVU137
 788              		.loc 1 1509 3 view .LVU138
 789              		.loc 1 1509 12 is_stmt 0 view .LVU139
 790 0000 034B     		ldr	r3, .L79
 791 0002 DB68     		ldr	r3, [r3, #12]
 792              	.LVL18:
 793              		.loc 1 1518 3 is_stmt 1 view .LVU140
 794              		.loc 1 1509 5 is_stmt 0 view .LVU141
 795 0004 0342     		tst	r3, r0
 796              		.loc 1 1519 1 view .LVU142
 797 0006 14BF     		ite	ne
 798 0008 0120     		movne	r0, #1
ARM GAS  C:\Users\USER\AppData\Local\Temp\cclOE3lb.s 			page 15


 799              	.LVL19:
 800              		.loc 1 1519 1 view .LVU143
 801 000a 0020     		moveq	r0, #0
 802 000c 7047     		bx	lr
 803              	.L80:
 804 000e 00BF     		.align	2
 805              	.L79:
 806 0010 003C0240 		.word	1073888256
 807              		.cfi_endproc
 808              	.LFE148:
 809              		.size	FLASH_GetFlagStatus, .-FLASH_GetFlagStatus
 810              		.section	.text.FLASH_ClearFlag,"ax",%progbits
 811              		.align	1
 812              		.p2align 4,,15
 813              		.global	FLASH_ClearFlag
 814              		.syntax unified
 815              		.thumb
 816              		.thumb_func
 817              		.fpu fpv4-sp-d16
 818              		.type	FLASH_ClearFlag, %function
 819              	FLASH_ClearFlag:
 820              	.LVL20:
 821              	.LFB149:
 822              		.loc 1 1535 1 is_stmt 1 view -0
 823              		.cfi_startproc
 824              		@ args = 0, pretend = 0, frame = 0
 825              		@ frame_needed = 0, uses_anonymous_args = 0
 826              		@ link register save eliminated.
 827              		.loc 1 1537 3 view .LVU145
 828              		.loc 1 1540 3 view .LVU146
 829              		.loc 1 1540 13 is_stmt 0 view .LVU147
 830 0000 014B     		ldr	r3, .L82
 831 0002 D860     		str	r0, [r3, #12]
 832              		.loc 1 1541 1 view .LVU148
 833 0004 7047     		bx	lr
 834              	.L83:
 835 0006 00BF     		.align	2
 836              	.L82:
 837 0008 003C0240 		.word	1073888256
 838              		.cfi_endproc
 839              	.LFE149:
 840              		.size	FLASH_ClearFlag, .-FLASH_ClearFlag
 841              		.section	.text.FLASH_GetStatus,"ax",%progbits
 842              		.align	1
 843              		.p2align 4,,15
 844              		.global	FLASH_GetStatus
 845              		.syntax unified
 846              		.thumb
 847              		.thumb_func
 848              		.fpu fpv4-sp-d16
 849              		.type	FLASH_GetStatus, %function
 850              	FLASH_GetStatus:
 851              	.LFB150:
 852              		.loc 1 1550 1 is_stmt 1 view -0
 853              		.cfi_startproc
 854              		@ args = 0, pretend = 0, frame = 0
 855              		@ frame_needed = 0, uses_anonymous_args = 0
ARM GAS  C:\Users\USER\AppData\Local\Temp\cclOE3lb.s 			page 16


 856              		@ link register save eliminated.
 857              		.loc 1 1551 3 view .LVU150
 858              	.LVL21:
 859              		.loc 1 1553 3 view .LVU151
 860              		.loc 1 1553 12 is_stmt 0 view .LVU152
 861 0000 0E4B     		ldr	r3, .L91
 862 0002 DA68     		ldr	r2, [r3, #12]
 863              		.loc 1 1553 5 view .LVU153
 864 0004 D203     		lsls	r2, r2, #15
 865 0006 10D4     		bmi	.L86
 866              		.loc 1 1559 5 is_stmt 1 view .LVU154
 867              		.loc 1 1559 14 is_stmt 0 view .LVU155
 868 0008 DA68     		ldr	r2, [r3, #12]
 869              		.loc 1 1559 7 view .LVU156
 870 000a D106     		lsls	r1, r2, #27
 871 000c 0FD4     		bmi	.L87
 872              		.loc 1 1565 7 is_stmt 1 view .LVU157
 873              		.loc 1 1565 16 is_stmt 0 view .LVU158
 874 000e DA68     		ldr	r2, [r3, #12]
 875              		.loc 1 1565 9 view .LVU159
 876 0010 D205     		lsls	r2, r2, #23
 877 0012 10D4     		bmi	.L88
 878              		.loc 1 1571 9 is_stmt 1 view .LVU160
 879              		.loc 1 1571 18 is_stmt 0 view .LVU161
 880 0014 DA68     		ldr	r2, [r3, #12]
 881              		.loc 1 1571 11 view .LVU162
 882 0016 12F0E00F 		tst	r2, #224
 883 001a 0AD1     		bne	.L89
 884              	.LBB4:
 885              	.LBI4:
 886              		.loc 1 1549 14 is_stmt 1 view .LVU163
 887              	.LBB5:
 888              		.loc 1 1577 11 view .LVU164
 889              		.loc 1 1577 20 is_stmt 0 view .LVU165
 890 001c DB68     		ldr	r3, [r3, #12]
 891              		.loc 1 1577 13 view .LVU166
 892 001e 13F0020F 		tst	r3, #2
 893              		.loc 1 1583 25 view .LVU167
 894 0022 14BF     		ite	ne
 895 0024 0820     		movne	r0, #8
 896 0026 0920     		moveq	r0, #9
 897 0028 7047     		bx	lr
 898              	.L86:
 899              	.LBE5:
 900              	.LBE4:
 901              		.loc 1 1555 17 view .LVU168
 902 002a 0120     		movs	r0, #1
 903 002c 7047     		bx	lr
 904              	.L87:
 905              		.loc 1 1561 19 view .LVU169
 906 002e 0620     		movs	r0, #6
 907 0030 7047     		bx	lr
 908              	.L89:
 909              		.loc 1 1573 23 view .LVU170
 910 0032 0720     		movs	r0, #7
 911              	.LVL22:
 912              		.loc 1 1590 3 is_stmt 1 view .LVU171
ARM GAS  C:\Users\USER\AppData\Local\Temp\cclOE3lb.s 			page 17


 913              		.loc 1 1591 1 is_stmt 0 view .LVU172
 914 0034 7047     		bx	lr
 915              	.LVL23:
 916              	.L88:
 917              		.loc 1 1567 21 view .LVU173
 918 0036 0220     		movs	r0, #2
 919 0038 7047     		bx	lr
 920              	.L92:
 921 003a 00BF     		.align	2
 922              	.L91:
 923 003c 003C0240 		.word	1073888256
 924              		.cfi_endproc
 925              	.LFE150:
 926              		.size	FLASH_GetStatus, .-FLASH_GetStatus
 927              		.section	.text.FLASH_WaitForLastOperation,"ax",%progbits
 928              		.align	1
 929              		.p2align 4,,15
 930              		.global	FLASH_WaitForLastOperation
 931              		.syntax unified
 932              		.thumb
 933              		.thumb_func
 934              		.fpu fpv4-sp-d16
 935              		.type	FLASH_WaitForLastOperation, %function
 936              	FLASH_WaitForLastOperation:
 937              	.LFB151:
 938              		.loc 1 1600 1 is_stmt 1 view -0
 939              		.cfi_startproc
 940              		@ args = 0, pretend = 0, frame = 8
 941              		@ frame_needed = 0, uses_anonymous_args = 0
 942              		.loc 1 1601 3 view .LVU175
 943              		.loc 1 1600 1 is_stmt 0 view .LVU176
 944 0000 00B5     		push	{lr}
 945              		.cfi_def_cfa_offset 4
 946              		.cfi_offset 14, -4
 947 0002 83B0     		sub	sp, sp, #12
 948              		.cfi_def_cfa_offset 16
 949              		.loc 1 1601 21 view .LVU177
 950 0004 0923     		movs	r3, #9
 951 0006 8DF80730 		strb	r3, [sp, #7]
 952              	.L99:
 953              		.loc 1 1604 3 is_stmt 1 view .LVU178
 954              		.loc 1 1604 12 is_stmt 0 view .LVU179
 955 000a FFF7FEFF 		bl	FLASH_GetStatus
 956              	.LVL24:
 957              		.loc 1 1604 10 view .LVU180
 958 000e 8DF80700 		strb	r0, [sp, #7]
 959              		.loc 1 1609 3 is_stmt 1 view .LVU181
 960              		.loc 1 1609 16 is_stmt 0 view .LVU182
 961 0012 9DF80730 		ldrb	r3, [sp, #7]	@ zero_extendqisi2
 962              		.loc 1 1609 8 view .LVU183
 963 0016 012B     		cmp	r3, #1
 964 0018 F7D0     		beq	.L99
 965              		.loc 1 1614 3 is_stmt 1 view .LVU184
 966              		.loc 1 1614 10 is_stmt 0 view .LVU185
 967 001a 9DF80700 		ldrb	r0, [sp, #7]	@ zero_extendqisi2
 968              		.loc 1 1615 1 view .LVU186
 969 001e 03B0     		add	sp, sp, #12
ARM GAS  C:\Users\USER\AppData\Local\Temp\cclOE3lb.s 			page 18


 970              		.cfi_def_cfa_offset 4
 971              		@ sp needed
 972 0020 5DF804FB 		ldr	pc, [sp], #4
 973              		.cfi_endproc
 974              	.LFE151:
 975              		.size	FLASH_WaitForLastOperation, .-FLASH_WaitForLastOperation
 976              		.section	.text.FLASH_EraseSector,"ax",%progbits
 977              		.align	1
 978              		.p2align 4,,15
 979              		.global	FLASH_EraseSector
 980              		.syntax unified
 981              		.thumb
 982              		.thumb_func
 983              		.fpu fpv4-sp-d16
 984              		.type	FLASH_EraseSector, %function
 985              	FLASH_EraseSector:
 986              	.LVL25:
 987              	.LFB120:
 988              		.loc 1 491 1 is_stmt 1 view -0
 989              		.cfi_startproc
 990              		@ args = 0, pretend = 0, frame = 0
 991              		@ frame_needed = 0, uses_anonymous_args = 0
 992              		.loc 1 492 3 view .LVU188
 993              		.loc 1 493 3 view .LVU189
 994              		.loc 1 496 3 view .LVU190
 995              		.loc 1 497 3 view .LVU191
 996              		.loc 1 499 3 view .LVU192
 997              		.loc 1 491 1 is_stmt 0 view .LVU193
 998 0000 70B5     		push	{r4, r5, r6, lr}
 999              		.cfi_def_cfa_offset 16
 1000              		.cfi_offset 4, -16
 1001              		.cfi_offset 5, -12
 1002              		.cfi_offset 6, -8
 1003              		.cfi_offset 14, -4
 1004              		.loc 1 491 1 view .LVU194
 1005 0002 0646     		mov	r6, r0
 1006              		.loc 1 499 5 view .LVU195
 1007 0004 61B1     		cbz	r1, .L103
 1008              		.loc 1 503 8 is_stmt 1 view .LVU196
 1009              		.loc 1 503 10 is_stmt 0 view .LVU197
 1010 0006 0129     		cmp	r1, #1
 1011 0008 2FD0     		beq	.L104
 1012              		.loc 1 507 8 is_stmt 1 view .LVU198
 1013              		.loc 1 507 10 is_stmt 0 view .LVU199
 1014 000a 0229     		cmp	r1, #2
 1015              		.loc 1 513 15 view .LVU200
 1016 000c 0CBF     		ite	eq
 1017 000e 4FF40074 		moveq	r4, #512
 1018 0012 4FF44074 		movne	r4, #768
 1019              	.LVL26:
 1020              		.loc 1 516 3 is_stmt 1 view .LVU201
 1021              		.loc 1 516 12 is_stmt 0 view .LVU202
 1022 0016 FFF7FEFF 		bl	FLASH_WaitForLastOperation
 1023              	.LVL27:
 1024              		.loc 1 518 3 is_stmt 1 view .LVU203
 1025              		.loc 1 518 5 is_stmt 0 view .LVU204
 1026 001a 0928     		cmp	r0, #9
ARM GAS  C:\Users\USER\AppData\Local\Temp\cclOE3lb.s 			page 19


 1027 001c 05D0     		beq	.L107
 1028              	.L102:
 1029              		.loc 1 535 3 is_stmt 1 view .LVU205
 1030              		.loc 1 536 1 is_stmt 0 view .LVU206
 1031 001e 70BD     		pop	{r4, r5, r6, pc}
 1032              	.LVL28:
 1033              	.L103:
 1034              		.loc 1 501 16 view .LVU207
 1035 0020 0C46     		mov	r4, r1
 1036              	.L101:
 1037              	.LVL29:
 1038              		.loc 1 516 3 is_stmt 1 view .LVU208
 1039              		.loc 1 516 12 is_stmt 0 view .LVU209
 1040 0022 FFF7FEFF 		bl	FLASH_WaitForLastOperation
 1041              	.LVL30:
 1042              		.loc 1 518 3 is_stmt 1 view .LVU210
 1043              		.loc 1 518 5 is_stmt 0 view .LVU211
 1044 0026 0928     		cmp	r0, #9
 1045 0028 F9D1     		bne	.L102
 1046              	.L107:
 1047              		.loc 1 521 5 is_stmt 1 view .LVU212
 1048              		.loc 1 521 15 is_stmt 0 view .LVU213
 1049 002a 114D     		ldr	r5, .L108
 1050 002c 2B69     		ldr	r3, [r5, #16]
 1051 002e 23F44073 		bic	r3, r3, #768
 1052 0032 2B61     		str	r3, [r5, #16]
 1053              		.loc 1 522 5 is_stmt 1 view .LVU214
 1054              		.loc 1 522 15 is_stmt 0 view .LVU215
 1055 0034 2969     		ldr	r1, [r5, #16]
 1056 0036 2143     		orrs	r1, r1, r4
 1057 0038 2961     		str	r1, [r5, #16]
 1058              		.loc 1 523 5 is_stmt 1 view .LVU216
 1059              		.loc 1 523 15 is_stmt 0 view .LVU217
 1060 003a 2B69     		ldr	r3, [r5, #16]
 1061 003c 23F0F803 		bic	r3, r3, #248
 1062 0040 2B61     		str	r3, [r5, #16]
 1063              		.loc 1 524 5 is_stmt 1 view .LVU218
 1064              		.loc 1 524 15 is_stmt 0 view .LVU219
 1065 0042 2869     		ldr	r0, [r5, #16]
 1066              	.LVL31:
 1067              		.loc 1 524 15 view .LVU220
 1068 0044 3043     		orrs	r0, r0, r6
 1069 0046 40F00200 		orr	r0, r0, #2
 1070 004a 2861     		str	r0, [r5, #16]
 1071              		.loc 1 525 5 is_stmt 1 view .LVU221
 1072              		.loc 1 525 15 is_stmt 0 view .LVU222
 1073 004c 2B69     		ldr	r3, [r5, #16]
 1074 004e 43F48033 		orr	r3, r3, #65536
 1075 0052 2B61     		str	r3, [r5, #16]
 1076              		.loc 1 528 5 is_stmt 1 view .LVU223
 1077              		.loc 1 528 14 is_stmt 0 view .LVU224
 1078 0054 FFF7FEFF 		bl	FLASH_WaitForLastOperation
 1079              	.LVL32:
 1080              		.loc 1 531 5 is_stmt 1 view .LVU225
 1081              		.loc 1 531 15 is_stmt 0 view .LVU226
 1082 0058 2B69     		ldr	r3, [r5, #16]
 1083 005a 23F00203 		bic	r3, r3, #2
ARM GAS  C:\Users\USER\AppData\Local\Temp\cclOE3lb.s 			page 20


 1084 005e 2B61     		str	r3, [r5, #16]
 1085              		.loc 1 532 5 is_stmt 1 view .LVU227
 1086              		.loc 1 532 15 is_stmt 0 view .LVU228
 1087 0060 2B69     		ldr	r3, [r5, #16]
 1088 0062 23F0F803 		bic	r3, r3, #248
 1089 0066 2B61     		str	r3, [r5, #16]
 1090              		.loc 1 535 3 is_stmt 1 view .LVU229
 1091              		.loc 1 536 1 is_stmt 0 view .LVU230
 1092 0068 70BD     		pop	{r4, r5, r6, pc}
 1093              	.LVL33:
 1094              	.L104:
 1095              		.loc 1 505 15 view .LVU231
 1096 006a 4FF48074 		mov	r4, #256
 1097 006e D8E7     		b	.L101
 1098              	.L109:
 1099              		.align	2
 1100              	.L108:
 1101 0070 003C0240 		.word	1073888256
 1102              		.cfi_endproc
 1103              	.LFE120:
 1104              		.size	FLASH_EraseSector, .-FLASH_EraseSector
 1105              		.section	.text.FLASH_EraseAllSectors,"ax",%progbits
 1106              		.align	1
 1107              		.p2align 4,,15
 1108              		.global	FLASH_EraseAllSectors
 1109              		.syntax unified
 1110              		.thumb
 1111              		.thumb_func
 1112              		.fpu fpv4-sp-d16
 1113              		.type	FLASH_EraseAllSectors, %function
 1114              	FLASH_EraseAllSectors:
 1115              	.LVL34:
 1116              	.LFB121:
 1117              		.loc 1 559 1 is_stmt 1 view -0
 1118              		.cfi_startproc
 1119              		@ args = 0, pretend = 0, frame = 0
 1120              		@ frame_needed = 0, uses_anonymous_args = 0
 1121              		.loc 1 560 3 view .LVU233
 1122              		.loc 1 561 3 view .LVU234
 1123              		.loc 1 564 3 view .LVU235
 1124              		.loc 1 559 1 is_stmt 0 view .LVU236
 1125 0000 38B5     		push	{r3, r4, r5, lr}
 1126              		.cfi_def_cfa_offset 16
 1127              		.cfi_offset 3, -16
 1128              		.cfi_offset 4, -12
 1129              		.cfi_offset 5, -8
 1130              		.cfi_offset 14, -4
 1131              		.loc 1 559 1 view .LVU237
 1132 0002 0446     		mov	r4, r0
 1133              		.loc 1 564 12 view .LVU238
 1134 0004 FFF7FEFF 		bl	FLASH_WaitForLastOperation
 1135              	.LVL35:
 1136              		.loc 1 565 3 is_stmt 1 view .LVU239
 1137              		.loc 1 567 3 view .LVU240
 1138              		.loc 1 567 5 is_stmt 0 view .LVU241
 1139 0008 3CB1     		cbz	r4, .L111
 1140              		.loc 1 571 8 is_stmt 1 view .LVU242
ARM GAS  C:\Users\USER\AppData\Local\Temp\cclOE3lb.s 			page 21


 1141              		.loc 1 571 10 is_stmt 0 view .LVU243
 1142 000a 012C     		cmp	r4, #1
 1143 000c 1FD0     		beq	.L114
 1144              		.loc 1 575 8 is_stmt 1 view .LVU244
 1145              		.loc 1 575 10 is_stmt 0 view .LVU245
 1146 000e 022C     		cmp	r4, #2
 1147              		.loc 1 581 15 view .LVU246
 1148 0010 0CBF     		ite	eq
 1149 0012 4FF40074 		moveq	r4, #512
 1150 0016 4FF44074 		movne	r4, #768
 1151              	.L111:
 1152              	.LVL36:
 1153              		.loc 1 583 3 is_stmt 1 view .LVU247
 1154              		.loc 1 583 5 is_stmt 0 view .LVU248
 1155 001a 0928     		cmp	r0, #9
 1156 001c 00D0     		beq	.L117
 1157              	.L112:
 1158              		.loc 1 614 3 is_stmt 1 view .LVU249
 1159              		.loc 1 615 1 is_stmt 0 view .LVU250
 1160 001e 38BD     		pop	{r3, r4, r5, pc}
 1161              	.LVL37:
 1162              	.L117:
 1163              		.loc 1 600 5 is_stmt 1 view .LVU251
 1164              		.loc 1 600 15 is_stmt 0 view .LVU252
 1165 0020 0D4D     		ldr	r5, .L118
 1166 0022 2B69     		ldr	r3, [r5, #16]
 1167 0024 23F44073 		bic	r3, r3, #768
 1168 0028 2B61     		str	r3, [r5, #16]
 1169              		.loc 1 601 5 is_stmt 1 view .LVU253
 1170              		.loc 1 601 15 is_stmt 0 view .LVU254
 1171 002a 2B69     		ldr	r3, [r5, #16]
 1172 002c 1C43     		orrs	r4, r4, r3
 1173              	.LVL38:
 1174              		.loc 1 601 15 view .LVU255
 1175 002e 2C61     		str	r4, [r5, #16]
 1176              		.loc 1 602 5 is_stmt 1 view .LVU256
 1177              		.loc 1 602 15 is_stmt 0 view .LVU257
 1178 0030 2B69     		ldr	r3, [r5, #16]
 1179 0032 43F00403 		orr	r3, r3, #4
 1180 0036 2B61     		str	r3, [r5, #16]
 1181              		.loc 1 603 5 is_stmt 1 view .LVU258
 1182              		.loc 1 603 15 is_stmt 0 view .LVU259
 1183 0038 2B69     		ldr	r3, [r5, #16]
 1184 003a 43F48033 		orr	r3, r3, #65536
 1185 003e 2B61     		str	r3, [r5, #16]
 1186              		.loc 1 606 5 is_stmt 1 view .LVU260
 1187              		.loc 1 606 14 is_stmt 0 view .LVU261
 1188 0040 FFF7FEFF 		bl	FLASH_WaitForLastOperation
 1189              	.LVL39:
 1190              		.loc 1 609 5 is_stmt 1 view .LVU262
 1191              		.loc 1 609 15 is_stmt 0 view .LVU263
 1192 0044 2B69     		ldr	r3, [r5, #16]
 1193 0046 23F00403 		bic	r3, r3, #4
 1194 004a 2B61     		str	r3, [r5, #16]
 1195              		.loc 1 614 3 is_stmt 1 view .LVU264
 1196              		.loc 1 615 1 is_stmt 0 view .LVU265
 1197 004c 38BD     		pop	{r3, r4, r5, pc}
ARM GAS  C:\Users\USER\AppData\Local\Temp\cclOE3lb.s 			page 22


 1198              	.LVL40:
 1199              	.L114:
 1200              		.loc 1 583 5 view .LVU266
 1201 004e 0928     		cmp	r0, #9
 1202              		.loc 1 573 15 view .LVU267
 1203 0050 4FF48074 		mov	r4, #256
 1204              	.LVL41:
 1205              		.loc 1 583 3 is_stmt 1 view .LVU268
 1206              		.loc 1 583 5 is_stmt 0 view .LVU269
 1207 0054 E3D1     		bne	.L112
 1208 0056 E3E7     		b	.L117
 1209              	.L119:
 1210              		.align	2
 1211              	.L118:
 1212 0058 003C0240 		.word	1073888256
 1213              		.cfi_endproc
 1214              	.LFE121:
 1215              		.size	FLASH_EraseAllSectors, .-FLASH_EraseAllSectors
 1216              		.section	.text.FLASH_EraseAllBank1Sectors,"ax",%progbits
 1217              		.align	1
 1218              		.p2align 4,,15
 1219              		.global	FLASH_EraseAllBank1Sectors
 1220              		.syntax unified
 1221              		.thumb
 1222              		.thumb_func
 1223              		.fpu fpv4-sp-d16
 1224              		.type	FLASH_EraseAllBank1Sectors, %function
 1225              	FLASH_EraseAllBank1Sectors:
 1226              	.LFB154:
 1227              		.cfi_startproc
 1228              		@ args = 0, pretend = 0, frame = 0
 1229              		@ frame_needed = 0, uses_anonymous_args = 0
 1230              		@ link register save eliminated.
 1231 0000 FFF7FEBF 		b	FLASH_EraseAllSectors
 1232              		.cfi_endproc
 1233              	.LFE154:
 1234              		.size	FLASH_EraseAllBank1Sectors, .-FLASH_EraseAllBank1Sectors
 1235              		.section	.text.FLASH_EraseAllBank2Sectors,"ax",%progbits
 1236              		.align	1
 1237              		.p2align 4,,15
 1238              		.global	FLASH_EraseAllBank2Sectors
 1239              		.syntax unified
 1240              		.thumb
 1241              		.thumb_func
 1242              		.fpu fpv4-sp-d16
 1243              		.type	FLASH_EraseAllBank2Sectors, %function
 1244              	FLASH_EraseAllBank2Sectors:
 1245              	.LVL42:
 1246              	.LFB123:
 1247              		.loc 1 707 1 is_stmt 1 view -0
 1248              		.cfi_startproc
 1249              		@ args = 0, pretend = 0, frame = 0
 1250              		@ frame_needed = 0, uses_anonymous_args = 0
 1251              		.loc 1 708 3 view .LVU271
 1252              		.loc 1 709 3 view .LVU272
 1253              		.loc 1 712 3 view .LVU273
 1254              		.loc 1 707 1 is_stmt 0 view .LVU274
ARM GAS  C:\Users\USER\AppData\Local\Temp\cclOE3lb.s 			page 23


 1255 0000 38B5     		push	{r3, r4, r5, lr}
 1256              		.cfi_def_cfa_offset 16
 1257              		.cfi_offset 3, -16
 1258              		.cfi_offset 4, -12
 1259              		.cfi_offset 5, -8
 1260              		.cfi_offset 14, -4
 1261              		.loc 1 707 1 view .LVU275
 1262 0002 0446     		mov	r4, r0
 1263              		.loc 1 712 12 view .LVU276
 1264 0004 FFF7FEFF 		bl	FLASH_WaitForLastOperation
 1265              	.LVL43:
 1266              		.loc 1 713 3 is_stmt 1 view .LVU277
 1267              		.loc 1 715 3 view .LVU278
 1268              		.loc 1 715 5 is_stmt 0 view .LVU279
 1269 0008 3CB1     		cbz	r4, .L122
 1270              		.loc 1 719 8 is_stmt 1 view .LVU280
 1271              		.loc 1 719 10 is_stmt 0 view .LVU281
 1272 000a 012C     		cmp	r4, #1
 1273 000c 1FD0     		beq	.L125
 1274              		.loc 1 723 8 is_stmt 1 view .LVU282
 1275              		.loc 1 723 10 is_stmt 0 view .LVU283
 1276 000e 022C     		cmp	r4, #2
 1277              		.loc 1 729 15 view .LVU284
 1278 0010 0CBF     		ite	eq
 1279 0012 4FF40074 		moveq	r4, #512
 1280 0016 4FF44074 		movne	r4, #768
 1281              	.L122:
 1282              	.LVL44:
 1283              		.loc 1 731 3 is_stmt 1 view .LVU285
 1284              		.loc 1 731 5 is_stmt 0 view .LVU286
 1285 001a 0928     		cmp	r0, #9
 1286 001c 00D0     		beq	.L128
 1287              	.L123:
 1288              		.loc 1 747 3 is_stmt 1 view .LVU287
 1289              		.loc 1 748 1 is_stmt 0 view .LVU288
 1290 001e 38BD     		pop	{r3, r4, r5, pc}
 1291              	.LVL45:
 1292              	.L128:
 1293              		.loc 1 734 6 is_stmt 1 view .LVU289
 1294              		.loc 1 734 16 is_stmt 0 view .LVU290
 1295 0020 0D4D     		ldr	r5, .L129
 1296 0022 2B69     		ldr	r3, [r5, #16]
 1297 0024 23F44073 		bic	r3, r3, #768
 1298 0028 2B61     		str	r3, [r5, #16]
 1299              		.loc 1 735 6 is_stmt 1 view .LVU291
 1300              		.loc 1 735 16 is_stmt 0 view .LVU292
 1301 002a 2B69     		ldr	r3, [r5, #16]
 1302 002c 1C43     		orrs	r4, r4, r3
 1303              	.LVL46:
 1304              		.loc 1 735 16 view .LVU293
 1305 002e 2C61     		str	r4, [r5, #16]
 1306              		.loc 1 736 6 is_stmt 1 view .LVU294
 1307              		.loc 1 736 16 is_stmt 0 view .LVU295
 1308 0030 2B69     		ldr	r3, [r5, #16]
 1309 0032 43F40043 		orr	r3, r3, #32768
 1310 0036 2B61     		str	r3, [r5, #16]
 1311              		.loc 1 737 6 is_stmt 1 view .LVU296
ARM GAS  C:\Users\USER\AppData\Local\Temp\cclOE3lb.s 			page 24


 1312              		.loc 1 737 16 is_stmt 0 view .LVU297
 1313 0038 2B69     		ldr	r3, [r5, #16]
 1314 003a 43F48033 		orr	r3, r3, #65536
 1315 003e 2B61     		str	r3, [r5, #16]
 1316              		.loc 1 740 5 is_stmt 1 view .LVU298
 1317              		.loc 1 740 14 is_stmt 0 view .LVU299
 1318 0040 FFF7FEFF 		bl	FLASH_WaitForLastOperation
 1319              	.LVL47:
 1320              		.loc 1 743 5 is_stmt 1 view .LVU300
 1321              		.loc 1 743 15 is_stmt 0 view .LVU301
 1322 0044 2B69     		ldr	r3, [r5, #16]
 1323 0046 23F40043 		bic	r3, r3, #32768
 1324 004a 2B61     		str	r3, [r5, #16]
 1325              		.loc 1 747 3 is_stmt 1 view .LVU302
 1326              		.loc 1 748 1 is_stmt 0 view .LVU303
 1327 004c 38BD     		pop	{r3, r4, r5, pc}
 1328              	.LVL48:
 1329              	.L125:
 1330              		.loc 1 731 5 view .LVU304
 1331 004e 0928     		cmp	r0, #9
 1332              		.loc 1 721 15 view .LVU305
 1333 0050 4FF48074 		mov	r4, #256
 1334              	.LVL49:
 1335              		.loc 1 731 3 is_stmt 1 view .LVU306
 1336              		.loc 1 731 5 is_stmt 0 view .LVU307
 1337 0054 E3D1     		bne	.L123
 1338 0056 E3E7     		b	.L128
 1339              	.L130:
 1340              		.align	2
 1341              	.L129:
 1342 0058 003C0240 		.word	1073888256
 1343              		.cfi_endproc
 1344              	.LFE123:
 1345              		.size	FLASH_EraseAllBank2Sectors, .-FLASH_EraseAllBank2Sectors
 1346              		.section	.text.FLASH_ProgramDoubleWord,"ax",%progbits
 1347              		.align	1
 1348              		.p2align 4,,15
 1349              		.global	FLASH_ProgramDoubleWord
 1350              		.syntax unified
 1351              		.thumb
 1352              		.thumb_func
 1353              		.fpu fpv4-sp-d16
 1354              		.type	FLASH_ProgramDoubleWord, %function
 1355              	FLASH_ProgramDoubleWord:
 1356              	.LVL50:
 1357              	.LFB124:
 1358              		.loc 1 764 1 is_stmt 1 view -0
 1359              		.cfi_startproc
 1360              		@ args = 0, pretend = 0, frame = 0
 1361              		@ frame_needed = 0, uses_anonymous_args = 0
 1362              		.loc 1 765 3 view .LVU309
 1363              		.loc 1 768 3 view .LVU310
 1364              		.loc 1 771 3 view .LVU311
 1365              		.loc 1 764 1 is_stmt 0 view .LVU312
 1366 0000 F8B5     		push	{r3, r4, r5, r6, r7, lr}
 1367              		.cfi_def_cfa_offset 24
 1368              		.cfi_offset 3, -24
ARM GAS  C:\Users\USER\AppData\Local\Temp\cclOE3lb.s 			page 25


 1369              		.cfi_offset 4, -20
 1370              		.cfi_offset 5, -16
 1371              		.cfi_offset 6, -12
 1372              		.cfi_offset 7, -8
 1373              		.cfi_offset 14, -4
 1374              		.loc 1 764 1 view .LVU313
 1375 0002 0546     		mov	r5, r0
 1376 0004 1646     		mov	r6, r2
 1377 0006 1F46     		mov	r7, r3
 1378              		.loc 1 771 12 view .LVU314
 1379 0008 FFF7FEFF 		bl	FLASH_WaitForLastOperation
 1380              	.LVL51:
 1381              		.loc 1 773 3 is_stmt 1 view .LVU315
 1382              		.loc 1 773 5 is_stmt 0 view .LVU316
 1383 000c 0928     		cmp	r0, #9
 1384 000e 00D0     		beq	.L134
 1385              		.loc 1 789 3 is_stmt 1 view .LVU317
 1386              		.loc 1 790 1 is_stmt 0 view .LVU318
 1387 0010 F8BD     		pop	{r3, r4, r5, r6, r7, pc}
 1388              	.LVL52:
 1389              	.L134:
 1390              		.loc 1 776 5 is_stmt 1 view .LVU319
 1391              		.loc 1 776 15 is_stmt 0 view .LVU320
 1392 0012 0B4C     		ldr	r4, .L135
 1393 0014 2369     		ldr	r3, [r4, #16]
 1394 0016 23F44073 		bic	r3, r3, #768
 1395 001a 2361     		str	r3, [r4, #16]
 1396              		.loc 1 777 5 is_stmt 1 view .LVU321
 1397              		.loc 1 777 15 is_stmt 0 view .LVU322
 1398 001c 2369     		ldr	r3, [r4, #16]
 1399 001e 43F44073 		orr	r3, r3, #768
 1400 0022 2361     		str	r3, [r4, #16]
 1401              		.loc 1 778 5 is_stmt 1 view .LVU323
 1402              		.loc 1 778 15 is_stmt 0 view .LVU324
 1403 0024 2369     		ldr	r3, [r4, #16]
 1404 0026 43F00103 		orr	r3, r3, #1
 1405 002a 2361     		str	r3, [r4, #16]
 1406              		.loc 1 780 5 is_stmt 1 view .LVU325
 1407              		.loc 1 780 30 is_stmt 0 view .LVU326
 1408 002c C5E90067 		strd	r6, [r5]
 1409              		.loc 1 783 5 is_stmt 1 view .LVU327
 1410              		.loc 1 783 14 is_stmt 0 view .LVU328
 1411 0030 FFF7FEFF 		bl	FLASH_WaitForLastOperation
 1412              	.LVL53:
 1413              		.loc 1 786 5 is_stmt 1 view .LVU329
 1414              		.loc 1 786 15 is_stmt 0 view .LVU330
 1415 0034 2369     		ldr	r3, [r4, #16]
 1416 0036 23F00103 		bic	r3, r3, #1
 1417 003a 2361     		str	r3, [r4, #16]
 1418              		.loc 1 789 3 is_stmt 1 view .LVU331
 1419              		.loc 1 790 1 is_stmt 0 view .LVU332
 1420 003c F8BD     		pop	{r3, r4, r5, r6, r7, pc}
 1421              	.LVL54:
 1422              	.L136:
 1423              		.loc 1 790 1 view .LVU333
 1424 003e 00BF     		.align	2
 1425              	.L135:
ARM GAS  C:\Users\USER\AppData\Local\Temp\cclOE3lb.s 			page 26


 1426 0040 003C0240 		.word	1073888256
 1427              		.cfi_endproc
 1428              	.LFE124:
 1429              		.size	FLASH_ProgramDoubleWord, .-FLASH_ProgramDoubleWord
 1430              		.section	.text.FLASH_ProgramWord,"ax",%progbits
 1431              		.align	1
 1432              		.p2align 4,,15
 1433              		.global	FLASH_ProgramWord
 1434              		.syntax unified
 1435              		.thumb
 1436              		.thumb_func
 1437              		.fpu fpv4-sp-d16
 1438              		.type	FLASH_ProgramWord, %function
 1439              	FLASH_ProgramWord:
 1440              	.LVL55:
 1441              	.LFB125:
 1442              		.loc 1 807 1 is_stmt 1 view -0
 1443              		.cfi_startproc
 1444              		@ args = 0, pretend = 0, frame = 0
 1445              		@ frame_needed = 0, uses_anonymous_args = 0
 1446              		.loc 1 808 3 view .LVU335
 1447              		.loc 1 811 3 view .LVU336
 1448              		.loc 1 814 3 view .LVU337
 1449              		.loc 1 807 1 is_stmt 0 view .LVU338
 1450 0000 70B5     		push	{r4, r5, r6, lr}
 1451              		.cfi_def_cfa_offset 16
 1452              		.cfi_offset 4, -16
 1453              		.cfi_offset 5, -12
 1454              		.cfi_offset 6, -8
 1455              		.cfi_offset 14, -4
 1456              		.loc 1 807 1 view .LVU339
 1457 0002 0546     		mov	r5, r0
 1458 0004 0E46     		mov	r6, r1
 1459              		.loc 1 814 12 view .LVU340
 1460 0006 FFF7FEFF 		bl	FLASH_WaitForLastOperation
 1461              	.LVL56:
 1462              		.loc 1 816 3 is_stmt 1 view .LVU341
 1463              		.loc 1 816 5 is_stmt 0 view .LVU342
 1464 000a 0928     		cmp	r0, #9
 1465 000c 00D0     		beq	.L140
 1466              		.loc 1 832 3 is_stmt 1 view .LVU343
 1467              		.loc 1 833 1 is_stmt 0 view .LVU344
 1468 000e 70BD     		pop	{r4, r5, r6, pc}
 1469              	.LVL57:
 1470              	.L140:
 1471              		.loc 1 819 5 is_stmt 1 view .LVU345
 1472              		.loc 1 819 15 is_stmt 0 view .LVU346
 1473 0010 0A4C     		ldr	r4, .L141
 1474 0012 2369     		ldr	r3, [r4, #16]
 1475 0014 23F44073 		bic	r3, r3, #768
 1476 0018 2361     		str	r3, [r4, #16]
 1477              		.loc 1 820 5 is_stmt 1 view .LVU347
 1478              		.loc 1 820 15 is_stmt 0 view .LVU348
 1479 001a 2369     		ldr	r3, [r4, #16]
 1480 001c 43F40073 		orr	r3, r3, #512
 1481 0020 2361     		str	r3, [r4, #16]
 1482              		.loc 1 821 5 is_stmt 1 view .LVU349
ARM GAS  C:\Users\USER\AppData\Local\Temp\cclOE3lb.s 			page 27


 1483              		.loc 1 821 15 is_stmt 0 view .LVU350
 1484 0022 2369     		ldr	r3, [r4, #16]
 1485 0024 43F00103 		orr	r3, r3, #1
 1486 0028 2361     		str	r3, [r4, #16]
 1487              		.loc 1 823 5 is_stmt 1 view .LVU351
 1488              		.loc 1 823 30 is_stmt 0 view .LVU352
 1489 002a 2E60     		str	r6, [r5]
 1490              		.loc 1 826 5 is_stmt 1 view .LVU353
 1491              		.loc 1 826 14 is_stmt 0 view .LVU354
 1492 002c FFF7FEFF 		bl	FLASH_WaitForLastOperation
 1493              	.LVL58:
 1494              		.loc 1 829 5 is_stmt 1 view .LVU355
 1495              		.loc 1 829 15 is_stmt 0 view .LVU356
 1496 0030 2369     		ldr	r3, [r4, #16]
 1497 0032 23F00103 		bic	r3, r3, #1
 1498 0036 2361     		str	r3, [r4, #16]
 1499              		.loc 1 832 3 is_stmt 1 view .LVU357
 1500              		.loc 1 833 1 is_stmt 0 view .LVU358
 1501 0038 70BD     		pop	{r4, r5, r6, pc}
 1502              	.LVL59:
 1503              	.L142:
 1504              		.loc 1 833 1 view .LVU359
 1505 003a 00BF     		.align	2
 1506              	.L141:
 1507 003c 003C0240 		.word	1073888256
 1508              		.cfi_endproc
 1509              	.LFE125:
 1510              		.size	FLASH_ProgramWord, .-FLASH_ProgramWord
 1511              		.section	.text.FLASH_ProgramHalfWord,"ax",%progbits
 1512              		.align	1
 1513              		.p2align 4,,15
 1514              		.global	FLASH_ProgramHalfWord
 1515              		.syntax unified
 1516              		.thumb
 1517              		.thumb_func
 1518              		.fpu fpv4-sp-d16
 1519              		.type	FLASH_ProgramHalfWord, %function
 1520              	FLASH_ProgramHalfWord:
 1521              	.LVL60:
 1522              	.LFB126:
 1523              		.loc 1 849 1 is_stmt 1 view -0
 1524              		.cfi_startproc
 1525              		@ args = 0, pretend = 0, frame = 0
 1526              		@ frame_needed = 0, uses_anonymous_args = 0
 1527              		.loc 1 850 3 view .LVU361
 1528              		.loc 1 853 3 view .LVU362
 1529              		.loc 1 856 3 view .LVU363
 1530              		.loc 1 849 1 is_stmt 0 view .LVU364
 1531 0000 70B5     		push	{r4, r5, r6, lr}
 1532              		.cfi_def_cfa_offset 16
 1533              		.cfi_offset 4, -16
 1534              		.cfi_offset 5, -12
 1535              		.cfi_offset 6, -8
 1536              		.cfi_offset 14, -4
 1537              		.loc 1 849 1 view .LVU365
 1538 0002 0546     		mov	r5, r0
 1539 0004 0E46     		mov	r6, r1
ARM GAS  C:\Users\USER\AppData\Local\Temp\cclOE3lb.s 			page 28


 1540              		.loc 1 856 12 view .LVU366
 1541 0006 FFF7FEFF 		bl	FLASH_WaitForLastOperation
 1542              	.LVL61:
 1543              		.loc 1 858 3 is_stmt 1 view .LVU367
 1544              		.loc 1 858 5 is_stmt 0 view .LVU368
 1545 000a 0928     		cmp	r0, #9
 1546 000c 00D0     		beq	.L146
 1547              		.loc 1 874 3 is_stmt 1 view .LVU369
 1548              		.loc 1 875 1 is_stmt 0 view .LVU370
 1549 000e 70BD     		pop	{r4, r5, r6, pc}
 1550              	.LVL62:
 1551              	.L146:
 1552              		.loc 1 861 5 is_stmt 1 view .LVU371
 1553              		.loc 1 861 15 is_stmt 0 view .LVU372
 1554 0010 0A4C     		ldr	r4, .L147
 1555 0012 2369     		ldr	r3, [r4, #16]
 1556 0014 23F44073 		bic	r3, r3, #768
 1557 0018 2361     		str	r3, [r4, #16]
 1558              		.loc 1 862 5 is_stmt 1 view .LVU373
 1559              		.loc 1 862 15 is_stmt 0 view .LVU374
 1560 001a 2369     		ldr	r3, [r4, #16]
 1561 001c 43F48073 		orr	r3, r3, #256
 1562 0020 2361     		str	r3, [r4, #16]
 1563              		.loc 1 863 5 is_stmt 1 view .LVU375
 1564              		.loc 1 863 15 is_stmt 0 view .LVU376
 1565 0022 2369     		ldr	r3, [r4, #16]
 1566 0024 43F00103 		orr	r3, r3, #1
 1567 0028 2361     		str	r3, [r4, #16]
 1568              		.loc 1 865 5 is_stmt 1 view .LVU377
 1569              		.loc 1 865 30 is_stmt 0 view .LVU378
 1570 002a 2E80     		strh	r6, [r5]	@ movhi
 1571              		.loc 1 868 5 is_stmt 1 view .LVU379
 1572              		.loc 1 868 14 is_stmt 0 view .LVU380
 1573 002c FFF7FEFF 		bl	FLASH_WaitForLastOperation
 1574              	.LVL63:
 1575              		.loc 1 871 5 is_stmt 1 view .LVU381
 1576              		.loc 1 871 15 is_stmt 0 view .LVU382
 1577 0030 2369     		ldr	r3, [r4, #16]
 1578 0032 23F00103 		bic	r3, r3, #1
 1579 0036 2361     		str	r3, [r4, #16]
 1580              		.loc 1 874 3 is_stmt 1 view .LVU383
 1581              		.loc 1 875 1 is_stmt 0 view .LVU384
 1582 0038 70BD     		pop	{r4, r5, r6, pc}
 1583              	.LVL64:
 1584              	.L148:
 1585              		.loc 1 875 1 view .LVU385
 1586 003a 00BF     		.align	2
 1587              	.L147:
 1588 003c 003C0240 		.word	1073888256
 1589              		.cfi_endproc
 1590              	.LFE126:
 1591              		.size	FLASH_ProgramHalfWord, .-FLASH_ProgramHalfWord
 1592              		.section	.text.FLASH_ProgramByte,"ax",%progbits
 1593              		.align	1
 1594              		.p2align 4,,15
 1595              		.global	FLASH_ProgramByte
 1596              		.syntax unified
ARM GAS  C:\Users\USER\AppData\Local\Temp\cclOE3lb.s 			page 29


 1597              		.thumb
 1598              		.thumb_func
 1599              		.fpu fpv4-sp-d16
 1600              		.type	FLASH_ProgramByte, %function
 1601              	FLASH_ProgramByte:
 1602              	.LVL65:
 1603              	.LFB127:
 1604              		.loc 1 891 1 is_stmt 1 view -0
 1605              		.cfi_startproc
 1606              		@ args = 0, pretend = 0, frame = 0
 1607              		@ frame_needed = 0, uses_anonymous_args = 0
 1608              		.loc 1 892 3 view .LVU387
 1609              		.loc 1 895 3 view .LVU388
 1610              		.loc 1 898 3 view .LVU389
 1611              		.loc 1 891 1 is_stmt 0 view .LVU390
 1612 0000 70B5     		push	{r4, r5, r6, lr}
 1613              		.cfi_def_cfa_offset 16
 1614              		.cfi_offset 4, -16
 1615              		.cfi_offset 5, -12
 1616              		.cfi_offset 6, -8
 1617              		.cfi_offset 14, -4
 1618              		.loc 1 891 1 view .LVU391
 1619 0002 0546     		mov	r5, r0
 1620 0004 0E46     		mov	r6, r1
 1621              		.loc 1 898 12 view .LVU392
 1622 0006 FFF7FEFF 		bl	FLASH_WaitForLastOperation
 1623              	.LVL66:
 1624              		.loc 1 900 3 is_stmt 1 view .LVU393
 1625              		.loc 1 900 5 is_stmt 0 view .LVU394
 1626 000a 0928     		cmp	r0, #9
 1627 000c 00D0     		beq	.L152
 1628              		.loc 1 917 3 is_stmt 1 view .LVU395
 1629              		.loc 1 918 1 is_stmt 0 view .LVU396
 1630 000e 70BD     		pop	{r4, r5, r6, pc}
 1631              	.LVL67:
 1632              	.L152:
 1633              		.loc 1 903 5 is_stmt 1 view .LVU397
 1634              		.loc 1 903 15 is_stmt 0 view .LVU398
 1635 0010 094C     		ldr	r4, .L153
 1636 0012 2369     		ldr	r3, [r4, #16]
 1637 0014 23F44073 		bic	r3, r3, #768
 1638 0018 2361     		str	r3, [r4, #16]
 1639              		.loc 1 904 5 is_stmt 1 view .LVU399
 1640              		.loc 1 904 15 is_stmt 0 view .LVU400
 1641 001a 2369     		ldr	r3, [r4, #16]
 1642 001c 2361     		str	r3, [r4, #16]
 1643              		.loc 1 905 5 is_stmt 1 view .LVU401
 1644              		.loc 1 905 15 is_stmt 0 view .LVU402
 1645 001e 2369     		ldr	r3, [r4, #16]
 1646 0020 43F00103 		orr	r3, r3, #1
 1647 0024 2361     		str	r3, [r4, #16]
 1648              		.loc 1 907 5 is_stmt 1 view .LVU403
 1649              		.loc 1 907 29 is_stmt 0 view .LVU404
 1650 0026 2E70     		strb	r6, [r5]
 1651              		.loc 1 910 5 is_stmt 1 view .LVU405
 1652              		.loc 1 910 14 is_stmt 0 view .LVU406
 1653 0028 FFF7FEFF 		bl	FLASH_WaitForLastOperation
ARM GAS  C:\Users\USER\AppData\Local\Temp\cclOE3lb.s 			page 30


 1654              	.LVL68:
 1655              		.loc 1 913 5 is_stmt 1 view .LVU407
 1656              		.loc 1 913 15 is_stmt 0 view .LVU408
 1657 002c 2369     		ldr	r3, [r4, #16]
 1658 002e 23F00103 		bic	r3, r3, #1
 1659 0032 2361     		str	r3, [r4, #16]
 1660              		.loc 1 917 3 is_stmt 1 view .LVU409
 1661              		.loc 1 918 1 is_stmt 0 view .LVU410
 1662 0034 70BD     		pop	{r4, r5, r6, pc}
 1663              	.LVL69:
 1664              	.L154:
 1665              		.loc 1 918 1 view .LVU411
 1666 0036 00BF     		.align	2
 1667              	.L153:
 1668 0038 003C0240 		.word	1073888256
 1669              		.cfi_endproc
 1670              	.LFE127:
 1671              		.size	FLASH_ProgramByte, .-FLASH_ProgramByte
 1672              		.section	.text.FLASH_OB_WRPConfig,"ax",%progbits
 1673              		.align	1
 1674              		.p2align 4,,15
 1675              		.global	FLASH_OB_WRPConfig
 1676              		.syntax unified
 1677              		.thumb
 1678              		.thumb_func
 1679              		.fpu fpv4-sp-d16
 1680              		.type	FLASH_OB_WRPConfig, %function
 1681              	FLASH_OB_WRPConfig:
 1682              	.LVL70:
 1683              	.LFB130:
 1684              		.loc 1 1028 1 is_stmt 1 view -0
 1685              		.cfi_startproc
 1686              		@ args = 0, pretend = 0, frame = 0
 1687              		@ frame_needed = 0, uses_anonymous_args = 0
 1688              		.loc 1 1029 3 view .LVU413
 1689              		.loc 1 1032 3 view .LVU414
 1690              		.loc 1 1033 3 view .LVU415
 1691              		.loc 1 1035 3 view .LVU416
 1692              		.loc 1 1028 1 is_stmt 0 view .LVU417
 1693 0000 38B5     		push	{r3, r4, r5, lr}
 1694              		.cfi_def_cfa_offset 16
 1695              		.cfi_offset 3, -16
 1696              		.cfi_offset 4, -12
 1697              		.cfi_offset 5, -8
 1698              		.cfi_offset 14, -4
 1699              		.loc 1 1028 1 view .LVU418
 1700 0002 0446     		mov	r4, r0
 1701 0004 0D46     		mov	r5, r1
 1702              		.loc 1 1035 12 view .LVU419
 1703 0006 FFF7FEFF 		bl	FLASH_WaitForLastOperation
 1704              	.LVL71:
 1705              		.loc 1 1037 3 is_stmt 1 view .LVU420
 1706              		.loc 1 1037 5 is_stmt 0 view .LVU421
 1707 000a 0928     		cmp	r0, #9
 1708 000c 00D0     		beq	.L159
 1709              		.loc 1 1048 1 view .LVU422
 1710 000e 38BD     		pop	{r3, r4, r5, pc}
ARM GAS  C:\Users\USER\AppData\Local\Temp\cclOE3lb.s 			page 31


 1711              	.LVL72:
 1712              	.L159:
 1713              		.loc 1 1039 5 is_stmt 1 view .LVU423
 1714 0010 A4B2     		uxth	r4, r4
 1715              	.LVL73:
 1716              		.loc 1 1039 7 is_stmt 0 view .LVU424
 1717 0012 2DB1     		cbz	r5, .L157
 1718              		.loc 1 1041 7 is_stmt 1 view .LVU425
 1719              		.loc 1 1041 44 is_stmt 0 view .LVU426
 1720 0014 054A     		ldr	r2, .L160
 1721 0016 1388     		ldrh	r3, [r2]
 1722 0018 23EA0404 		bic	r4, r3, r4
 1723 001c 1480     		strh	r4, [r2]	@ movhi
 1724              		.loc 1 1048 1 view .LVU427
 1725 001e 38BD     		pop	{r3, r4, r5, pc}
 1726              	.L157:
 1727              		.loc 1 1045 7 is_stmt 1 view .LVU428
 1728              		.loc 1 1045 44 is_stmt 0 view .LVU429
 1729 0020 024B     		ldr	r3, .L160
 1730 0022 1A88     		ldrh	r2, [r3]
 1731 0024 1443     		orrs	r4, r4, r2
 1732 0026 1C80     		strh	r4, [r3]	@ movhi
 1733              		.loc 1 1048 1 view .LVU430
 1734 0028 38BD     		pop	{r3, r4, r5, pc}
 1735              	.L161:
 1736 002a 00BF     		.align	2
 1737              	.L160:
 1738 002c 163C0240 		.word	1073888278
 1739              		.cfi_endproc
 1740              	.LFE130:
 1741              		.size	FLASH_OB_WRPConfig, .-FLASH_OB_WRPConfig
 1742              		.section	.text.FLASH_OB_WRP1Config,"ax",%progbits
 1743              		.align	1
 1744              		.p2align 4,,15
 1745              		.global	FLASH_OB_WRP1Config
 1746              		.syntax unified
 1747              		.thumb
 1748              		.thumb_func
 1749              		.fpu fpv4-sp-d16
 1750              		.type	FLASH_OB_WRP1Config, %function
 1751              	FLASH_OB_WRP1Config:
 1752              	.LVL74:
 1753              	.LFB131:
 1754              		.loc 1 1070 1 is_stmt 1 view -0
 1755              		.cfi_startproc
 1756              		@ args = 0, pretend = 0, frame = 0
 1757              		@ frame_needed = 0, uses_anonymous_args = 0
 1758              		.loc 1 1071 3 view .LVU432
 1759              		.loc 1 1074 3 view .LVU433
 1760              		.loc 1 1075 3 view .LVU434
 1761              		.loc 1 1077 3 view .LVU435
 1762              		.loc 1 1070 1 is_stmt 0 view .LVU436
 1763 0000 38B5     		push	{r3, r4, r5, lr}
 1764              		.cfi_def_cfa_offset 16
 1765              		.cfi_offset 3, -16
 1766              		.cfi_offset 4, -12
 1767              		.cfi_offset 5, -8
ARM GAS  C:\Users\USER\AppData\Local\Temp\cclOE3lb.s 			page 32


 1768              		.cfi_offset 14, -4
 1769              		.loc 1 1070 1 view .LVU437
 1770 0002 0446     		mov	r4, r0
 1771 0004 0D46     		mov	r5, r1
 1772              		.loc 1 1077 12 view .LVU438
 1773 0006 FFF7FEFF 		bl	FLASH_WaitForLastOperation
 1774              	.LVL75:
 1775              		.loc 1 1079 3 is_stmt 1 view .LVU439
 1776              		.loc 1 1079 5 is_stmt 0 view .LVU440
 1777 000a 0928     		cmp	r0, #9
 1778 000c 00D0     		beq	.L166
 1779              		.loc 1 1090 1 view .LVU441
 1780 000e 38BD     		pop	{r3, r4, r5, pc}
 1781              	.LVL76:
 1782              	.L166:
 1783              		.loc 1 1081 5 is_stmt 1 view .LVU442
 1784 0010 A4B2     		uxth	r4, r4
 1785              	.LVL77:
 1786              		.loc 1 1081 7 is_stmt 0 view .LVU443
 1787 0012 2DB1     		cbz	r5, .L164
 1788              		.loc 1 1083 7 is_stmt 1 view .LVU444
 1789              		.loc 1 1083 45 is_stmt 0 view .LVU445
 1790 0014 054A     		ldr	r2, .L167
 1791 0016 1388     		ldrh	r3, [r2]
 1792 0018 23EA0404 		bic	r4, r3, r4
 1793 001c 1480     		strh	r4, [r2]	@ movhi
 1794              		.loc 1 1090 1 view .LVU446
 1795 001e 38BD     		pop	{r3, r4, r5, pc}
 1796              	.L164:
 1797              		.loc 1 1087 7 is_stmt 1 view .LVU447
 1798              		.loc 1 1087 45 is_stmt 0 view .LVU448
 1799 0020 024B     		ldr	r3, .L167
 1800 0022 1A88     		ldrh	r2, [r3]
 1801 0024 1443     		orrs	r4, r4, r2
 1802 0026 1C80     		strh	r4, [r3]	@ movhi
 1803              		.loc 1 1090 1 view .LVU449
 1804 0028 38BD     		pop	{r3, r4, r5, pc}
 1805              	.L168:
 1806 002a 00BF     		.align	2
 1807              	.L167:
 1808 002c 1A3C0240 		.word	1073888282
 1809              		.cfi_endproc
 1810              	.LFE131:
 1811              		.size	FLASH_OB_WRP1Config, .-FLASH_OB_WRP1Config
 1812              		.section	.text.FLASH_OB_PCROPConfig,"ax",%progbits
 1813              		.align	1
 1814              		.p2align 4,,15
 1815              		.global	FLASH_OB_PCROPConfig
 1816              		.syntax unified
 1817              		.thumb
 1818              		.thumb_func
 1819              		.fpu fpv4-sp-d16
 1820              		.type	FLASH_OB_PCROPConfig, %function
 1821              	FLASH_OB_PCROPConfig:
 1822              	.LVL78:
 1823              	.LFB133:
 1824              		.loc 1 1150 1 is_stmt 1 view -0
ARM GAS  C:\Users\USER\AppData\Local\Temp\cclOE3lb.s 			page 33


 1825              		.cfi_startproc
 1826              		@ args = 0, pretend = 0, frame = 0
 1827              		@ frame_needed = 0, uses_anonymous_args = 0
 1828              		.loc 1 1151 3 view .LVU451
 1829              		.loc 1 1154 3 view .LVU452
 1830              		.loc 1 1155 3 view .LVU453
 1831              		.loc 1 1157 3 view .LVU454
 1832              		.loc 1 1150 1 is_stmt 0 view .LVU455
 1833 0000 38B5     		push	{r3, r4, r5, lr}
 1834              		.cfi_def_cfa_offset 16
 1835              		.cfi_offset 3, -16
 1836              		.cfi_offset 4, -12
 1837              		.cfi_offset 5, -8
 1838              		.cfi_offset 14, -4
 1839              		.loc 1 1150 1 view .LVU456
 1840 0002 0446     		mov	r4, r0
 1841 0004 0D46     		mov	r5, r1
 1842              		.loc 1 1157 12 view .LVU457
 1843 0006 FFF7FEFF 		bl	FLASH_WaitForLastOperation
 1844              	.LVL79:
 1845              		.loc 1 1159 3 is_stmt 1 view .LVU458
 1846              		.loc 1 1159 5 is_stmt 0 view .LVU459
 1847 000a 0928     		cmp	r0, #9
 1848 000c 00D0     		beq	.L173
 1849              		.loc 1 1170 1 view .LVU460
 1850 000e 38BD     		pop	{r3, r4, r5, pc}
 1851              	.LVL80:
 1852              	.L173:
 1853              		.loc 1 1161 5 is_stmt 1 view .LVU461
 1854 0010 A4B2     		uxth	r4, r4
 1855              	.LVL81:
 1856              		.loc 1 1161 7 is_stmt 0 view .LVU462
 1857 0012 25B1     		cbz	r5, .L171
 1858              		.loc 1 1163 7 is_stmt 1 view .LVU463
 1859              		.loc 1 1163 44 is_stmt 0 view .LVU464
 1860 0014 054B     		ldr	r3, .L174
 1861 0016 1A88     		ldrh	r2, [r3]
 1862 0018 1443     		orrs	r4, r4, r2
 1863 001a 1C80     		strh	r4, [r3]	@ movhi
 1864              		.loc 1 1170 1 view .LVU465
 1865 001c 38BD     		pop	{r3, r4, r5, pc}
 1866              	.L171:
 1867              		.loc 1 1167 7 is_stmt 1 view .LVU466
 1868              		.loc 1 1167 44 is_stmt 0 view .LVU467
 1869 001e 034A     		ldr	r2, .L174
 1870 0020 1388     		ldrh	r3, [r2]
 1871 0022 23EA0404 		bic	r4, r3, r4
 1872 0026 1480     		strh	r4, [r2]	@ movhi
 1873              		.loc 1 1170 1 view .LVU468
 1874 0028 38BD     		pop	{r3, r4, r5, pc}
 1875              	.L175:
 1876 002a 00BF     		.align	2
 1877              	.L174:
 1878 002c 163C0240 		.word	1073888278
 1879              		.cfi_endproc
 1880              	.LFE133:
 1881              		.size	FLASH_OB_PCROPConfig, .-FLASH_OB_PCROPConfig
ARM GAS  C:\Users\USER\AppData\Local\Temp\cclOE3lb.s 			page 34


 1882              		.section	.text.FLASH_OB_PCROP1Config,"ax",%progbits
 1883              		.align	1
 1884              		.p2align 4,,15
 1885              		.global	FLASH_OB_PCROP1Config
 1886              		.syntax unified
 1887              		.thumb
 1888              		.thumb_func
 1889              		.fpu fpv4-sp-d16
 1890              		.type	FLASH_OB_PCROP1Config, %function
 1891              	FLASH_OB_PCROP1Config:
 1892              	.LVL82:
 1893              	.LFB134:
 1894              		.loc 1 1187 1 is_stmt 1 view -0
 1895              		.cfi_startproc
 1896              		@ args = 0, pretend = 0, frame = 0
 1897              		@ frame_needed = 0, uses_anonymous_args = 0
 1898              		.loc 1 1188 3 view .LVU470
 1899              		.loc 1 1191 3 view .LVU471
 1900              		.loc 1 1192 3 view .LVU472
 1901              		.loc 1 1194 3 view .LVU473
 1902              		.loc 1 1187 1 is_stmt 0 view .LVU474
 1903 0000 38B5     		push	{r3, r4, r5, lr}
 1904              		.cfi_def_cfa_offset 16
 1905              		.cfi_offset 3, -16
 1906              		.cfi_offset 4, -12
 1907              		.cfi_offset 5, -8
 1908              		.cfi_offset 14, -4
 1909              		.loc 1 1187 1 view .LVU475
 1910 0002 0446     		mov	r4, r0
 1911 0004 0D46     		mov	r5, r1
 1912              		.loc 1 1194 12 view .LVU476
 1913 0006 FFF7FEFF 		bl	FLASH_WaitForLastOperation
 1914              	.LVL83:
 1915              		.loc 1 1196 3 is_stmt 1 view .LVU477
 1916              		.loc 1 1196 5 is_stmt 0 view .LVU478
 1917 000a 0928     		cmp	r0, #9
 1918 000c 00D0     		beq	.L180
 1919              		.loc 1 1207 1 view .LVU479
 1920 000e 38BD     		pop	{r3, r4, r5, pc}
 1921              	.LVL84:
 1922              	.L180:
 1923              		.loc 1 1198 5 is_stmt 1 view .LVU480
 1924 0010 A4B2     		uxth	r4, r4
 1925              	.LVL85:
 1926              		.loc 1 1198 7 is_stmt 0 view .LVU481
 1927 0012 25B1     		cbz	r5, .L178
 1928              		.loc 1 1200 7 is_stmt 1 view .LVU482
 1929              		.loc 1 1200 45 is_stmt 0 view .LVU483
 1930 0014 054B     		ldr	r3, .L181
 1931 0016 1A88     		ldrh	r2, [r3]
 1932 0018 1443     		orrs	r4, r4, r2
 1933 001a 1C80     		strh	r4, [r3]	@ movhi
 1934              		.loc 1 1207 1 view .LVU484
 1935 001c 38BD     		pop	{r3, r4, r5, pc}
 1936              	.L178:
 1937              		.loc 1 1204 7 is_stmt 1 view .LVU485
 1938              		.loc 1 1204 45 is_stmt 0 view .LVU486
ARM GAS  C:\Users\USER\AppData\Local\Temp\cclOE3lb.s 			page 35


 1939 001e 034A     		ldr	r2, .L181
 1940 0020 1388     		ldrh	r3, [r2]
 1941 0022 23EA0404 		bic	r4, r3, r4
 1942 0026 1480     		strh	r4, [r2]	@ movhi
 1943              		.loc 1 1207 1 view .LVU487
 1944 0028 38BD     		pop	{r3, r4, r5, pc}
 1945              	.L182:
 1946 002a 00BF     		.align	2
 1947              	.L181:
 1948 002c 1A3C0240 		.word	1073888282
 1949              		.cfi_endproc
 1950              	.LFE134:
 1951              		.size	FLASH_OB_PCROP1Config, .-FLASH_OB_PCROP1Config
 1952              		.section	.text.FLASH_OB_RDPConfig,"ax",%progbits
 1953              		.align	1
 1954              		.p2align 4,,15
 1955              		.global	FLASH_OB_RDPConfig
 1956              		.syntax unified
 1957              		.thumb
 1958              		.thumb_func
 1959              		.fpu fpv4-sp-d16
 1960              		.type	FLASH_OB_RDPConfig, %function
 1961              	FLASH_OB_RDPConfig:
 1962              	.LVL86:
 1963              	.LFB135:
 1964              		.loc 1 1223 1 is_stmt 1 view -0
 1965              		.cfi_startproc
 1966              		@ args = 0, pretend = 0, frame = 0
 1967              		@ frame_needed = 0, uses_anonymous_args = 0
 1968              		.loc 1 1224 3 view .LVU489
 1969              		.loc 1 1227 3 view .LVU490
 1970              		.loc 1 1229 3 view .LVU491
 1971              		.loc 1 1223 1 is_stmt 0 view .LVU492
 1972 0000 10B5     		push	{r4, lr}
 1973              		.cfi_def_cfa_offset 8
 1974              		.cfi_offset 4, -8
 1975              		.cfi_offset 14, -4
 1976              		.loc 1 1223 1 view .LVU493
 1977 0002 0446     		mov	r4, r0
 1978              		.loc 1 1229 12 view .LVU494
 1979 0004 FFF7FEFF 		bl	FLASH_WaitForLastOperation
 1980              	.LVL87:
 1981              		.loc 1 1231 3 is_stmt 1 view .LVU495
 1982              		.loc 1 1231 5 is_stmt 0 view .LVU496
 1983 0008 0928     		cmp	r0, #9
 1984              		.loc 1 1233 5 is_stmt 1 view .LVU497
 1985              		.loc 1 1233 41 is_stmt 0 view .LVU498
 1986 000a 04BF     		itt	eq
 1987 000c 014B     		ldreq	r3, .L186
 1988 000e 1C70     		strbeq	r4, [r3]
 1989              		.loc 1 1236 1 view .LVU499
 1990 0010 10BD     		pop	{r4, pc}
 1991              	.L187:
 1992 0012 00BF     		.align	2
 1993              	.L186:
 1994 0014 153C0240 		.word	1073888277
 1995              		.cfi_endproc
ARM GAS  C:\Users\USER\AppData\Local\Temp\cclOE3lb.s 			page 36


 1996              	.LFE135:
 1997              		.size	FLASH_OB_RDPConfig, .-FLASH_OB_RDPConfig
 1998              		.section	.text.FLASH_OB_UserConfig,"ax",%progbits
 1999              		.align	1
 2000              		.p2align 4,,15
 2001              		.global	FLASH_OB_UserConfig
 2002              		.syntax unified
 2003              		.thumb
 2004              		.thumb_func
 2005              		.fpu fpv4-sp-d16
 2006              		.type	FLASH_OB_UserConfig, %function
 2007              	FLASH_OB_UserConfig:
 2008              	.LVL88:
 2009              	.LFB136:
 2010              		.loc 1 1255 1 is_stmt 1 view -0
 2011              		.cfi_startproc
 2012              		@ args = 0, pretend = 0, frame = 0
 2013              		@ frame_needed = 0, uses_anonymous_args = 0
 2014              		.loc 1 1256 3 view .LVU501
 2015              		.loc 1 1257 3 view .LVU502
 2016              		.loc 1 1260 3 view .LVU503
 2017              		.loc 1 1261 3 view .LVU504
 2018              		.loc 1 1262 3 view .LVU505
 2019              		.loc 1 1265 3 view .LVU506
 2020              		.loc 1 1255 1 is_stmt 0 view .LVU507
 2021 0000 70B5     		push	{r4, r5, r6, lr}
 2022              		.cfi_def_cfa_offset 16
 2023              		.cfi_offset 4, -16
 2024              		.cfi_offset 5, -12
 2025              		.cfi_offset 6, -8
 2026              		.cfi_offset 14, -4
 2027              		.loc 1 1255 1 view .LVU508
 2028 0002 0646     		mov	r6, r0
 2029 0004 0C46     		mov	r4, r1
 2030 0006 1546     		mov	r5, r2
 2031              		.loc 1 1265 12 view .LVU509
 2032 0008 FFF7FEFF 		bl	FLASH_WaitForLastOperation
 2033              	.LVL89:
 2034              		.loc 1 1267 3 is_stmt 1 view .LVU510
 2035              		.loc 1 1267 5 is_stmt 0 view .LVU511
 2036 000c 0928     		cmp	r0, #9
 2037 000e 00D0     		beq	.L191
 2038              		.loc 1 1282 1 view .LVU512
 2039 0010 70BD     		pop	{r4, r5, r6, pc}
 2040              	.L191:
 2041              		.loc 1 1276 5 is_stmt 1 view .LVU513
 2042              		.loc 1 1276 67 is_stmt 0 view .LVU514
 2043 0012 044A     		ldr	r2, .L192
 2044 0014 1378     		ldrb	r3, [r2]	@ zero_extendqisi2
 2045              	.LVL90:
 2046              		.loc 1 1280 5 is_stmt 1 view .LVU515
 2047              		.loc 1 1276 15 is_stmt 0 view .LVU516
 2048 0016 03F00F03 		and	r3, r3, #15
 2049              	.LVL91:
 2050              		.loc 1 1280 42 view .LVU517
 2051 001a 1E43     		orrs	r6, r6, r3
 2052 001c 3543     		orrs	r5, r5, r6
ARM GAS  C:\Users\USER\AppData\Local\Temp\cclOE3lb.s 			page 37


 2053 001e 2C43     		orrs	r4, r4, r5
 2054 0020 1470     		strb	r4, [r2]
 2055              		.loc 1 1282 1 view .LVU518
 2056 0022 70BD     		pop	{r4, r5, r6, pc}
 2057              	.L193:
 2058              		.align	2
 2059              	.L192:
 2060 0024 143C0240 		.word	1073888276
 2061              		.cfi_endproc
 2062              	.LFE136:
 2063              		.size	FLASH_OB_UserConfig, .-FLASH_OB_UserConfig
 2064              		.section	.text.FLASH_OB_Launch,"ax",%progbits
 2065              		.align	1
 2066              		.p2align 4,,15
 2067              		.global	FLASH_OB_Launch
 2068              		.syntax unified
 2069              		.thumb
 2070              		.thumb_func
 2071              		.fpu fpv4-sp-d16
 2072              		.type	FLASH_OB_Launch, %function
 2073              	FLASH_OB_Launch:
 2074              	.LFB139:
 2075              		.loc 1 1334 1 is_stmt 1 view -0
 2076              		.cfi_startproc
 2077              		@ args = 0, pretend = 0, frame = 0
 2078              		@ frame_needed = 0, uses_anonymous_args = 0
 2079              		@ link register save eliminated.
 2080              		.loc 1 1335 3 view .LVU520
 2081              	.LVL92:
 2082              		.loc 1 1338 3 view .LVU521
 2083              		.loc 1 1338 40 is_stmt 0 view .LVU522
 2084 0000 034A     		ldr	r2, .L195
 2085 0002 1378     		ldrb	r3, [r2]	@ zero_extendqisi2
 2086 0004 43F00203 		orr	r3, r3, #2
 2087 0008 1370     		strb	r3, [r2]
 2088              		.loc 1 1341 3 is_stmt 1 view .LVU523
 2089              		.loc 1 1341 12 is_stmt 0 view .LVU524
 2090 000a FFF7FEBF 		b	FLASH_WaitForLastOperation
 2091              	.LVL93:
 2092              	.L196:
 2093 000e 00BF     		.align	2
 2094              	.L195:
 2095 0010 143C0240 		.word	1073888276
 2096              		.cfi_endproc
 2097              	.LFE139:
 2098              		.size	FLASH_OB_Launch, .-FLASH_OB_Launch
 2099              		.text
 2100              	.Letext0:
 2101              		.file 2 "c:\\program files (x86)\\gnu tools arm embedded\\8 2018-q4-major\\arm-none-eabi\\include\
 2102              		.file 3 "c:\\program files (x86)\\gnu tools arm embedded\\8 2018-q4-major\\arm-none-eabi\\include\
 2103              		.file 4 "src/ChibiOS_3.0.2/os/ext/CMSIS/include/core_cm4.h"
 2104              		.file 5 "src/ChibiOS_3.0.2/os/ext/CMSIS/ST/system_stm32f4xx.h"
 2105              		.file 6 "src/ChibiOS_3.0.2/os/ext/CMSIS/ST/stm32f407xx.h"
 2106              		.file 7 "src/ChibiOS_3.0.2/os/ext/CMSIS/ST/stm32f4xx.h"
 2107              		.file 8 "src/ChibiOS_3.0.2/ext/stdperiph_stm32f4/inc/stm32f4xx_flash.h"