ARM GAS  C:\Users\USER\AppData\Local\Temp\ccslTfpZ.s 			page 1


   1              		.cpu cortex-m4
   2              		.eabi_attribute 27, 1
   3              		.eabi_attribute 28, 1
   4              		.eabi_attribute 20, 1
   5              		.eabi_attribute 21, 1
   6              		.eabi_attribute 23, 3
   7              		.eabi_attribute 24, 1
   8              		.eabi_attribute 25, 1
   9              		.eabi_attribute 26, 1
  10              		.eabi_attribute 30, 2
  11              		.eabi_attribute 34, 1
  12              		.eabi_attribute 18, 4
  13              		.file	"stm32f4xx_syscfg.c"
  14              		.text
  15              	.Ltext0:
  16              		.cfi_sections	.debug_frame
  17              		.section	.text.SYSCFG_DeInit,"ax",%progbits
  18              		.align	1
  19              		.p2align 4,,15
  20              		.global	SYSCFG_DeInit
  21              		.arch armv7e-m
  22              		.syntax unified
  23              		.thumb
  24              		.thumb_func
  25              		.fpu fpv4-sp-d16
  26              		.type	SYSCFG_DeInit, %function
  27              	SYSCFG_DeInit:
  28              	.LFB112:
  29              		.file 1 "src/ChibiOS_3.0.2/ext/stdperiph_stm32f4/src/stm32f4xx_syscfg.c"
  30              		.loc 1 104 1 view -0
  31              		.cfi_startproc
  32              		@ args = 0, pretend = 0, frame = 0
  33              		@ frame_needed = 0, uses_anonymous_args = 0
  34              		.loc 1 105 4 view .LVU1
  35              		.loc 1 104 1 is_stmt 0 view .LVU2
  36 0000 08B5     		push	{r3, lr}
  37              		.cfi_def_cfa_offset 8
  38              		.cfi_offset 3, -8
  39              		.cfi_offset 14, -4
  40              		.loc 1 105 4 view .LVU3
  41 0002 0121     		movs	r1, #1
  42 0004 4FF48040 		mov	r0, #16384
  43 0008 FFF7FEFF 		bl	RCC_APB2PeriphResetCmd
  44              	.LVL0:
  45              		.loc 1 106 4 is_stmt 1 view .LVU4
  46 000c 0021     		movs	r1, #0
  47 000e 4FF48040 		mov	r0, #16384
  48              		.loc 1 107 1 is_stmt 0 view .LVU5
  49 0012 BDE80840 		pop	{r3, lr}
  50              		.cfi_restore 14
  51              		.cfi_restore 3
  52              		.cfi_def_cfa_offset 0
  53              		.loc 1 106 4 view .LVU6
  54 0016 FFF7FEBF 		b	RCC_APB2PeriphResetCmd
  55              	.LVL1:
  56              		.cfi_endproc
  57              	.LFE112:
ARM GAS  C:\Users\USER\AppData\Local\Temp\ccslTfpZ.s 			page 2


  58              		.size	SYSCFG_DeInit, .-SYSCFG_DeInit
  59 001a 00BF     		.section	.text.SYSCFG_MemoryRemapConfig,"ax",%progbits
  60              		.align	1
  61              		.p2align 4,,15
  62              		.global	SYSCFG_MemoryRemapConfig
  63              		.syntax unified
  64              		.thumb
  65              		.thumb_func
  66              		.fpu fpv4-sp-d16
  67              		.type	SYSCFG_MemoryRemapConfig, %function
  68              	SYSCFG_MemoryRemapConfig:
  69              	.LVL2:
  70              	.LFB113:
  71              		.loc 1 123 1 is_stmt 1 view -0
  72              		.cfi_startproc
  73              		@ args = 0, pretend = 0, frame = 0
  74              		@ frame_needed = 0, uses_anonymous_args = 0
  75              		@ link register save eliminated.
  76              		.loc 1 125 3 view .LVU8
  77              		.loc 1 127 3 view .LVU9
  78              		.loc 1 127 18 is_stmt 0 view .LVU10
  79 0000 014B     		ldr	r3, .L5
  80 0002 1860     		str	r0, [r3]
  81              		.loc 1 128 1 view .LVU11
  82 0004 7047     		bx	lr
  83              	.L6:
  84 0006 00BF     		.align	2
  85              	.L5:
  86 0008 00380140 		.word	1073821696
  87              		.cfi_endproc
  88              	.LFE113:
  89              		.size	SYSCFG_MemoryRemapConfig, .-SYSCFG_MemoryRemapConfig
  90              		.section	.text.SYSCFG_MemorySwappingBank,"ax",%progbits
  91              		.align	1
  92              		.p2align 4,,15
  93              		.global	SYSCFG_MemorySwappingBank
  94              		.syntax unified
  95              		.thumb
  96              		.thumb_func
  97              		.fpu fpv4-sp-d16
  98              		.type	SYSCFG_MemorySwappingBank, %function
  99              	SYSCFG_MemorySwappingBank:
 100              	.LVL3:
 101              	.LFB114:
 102              		.loc 1 144 1 is_stmt 1 view -0
 103              		.cfi_startproc
 104              		@ args = 0, pretend = 0, frame = 0
 105              		@ frame_needed = 0, uses_anonymous_args = 0
 106              		@ link register save eliminated.
 107              		.loc 1 146 3 view .LVU13
 108              		.loc 1 148 3 view .LVU14
 109              		.loc 1 148 34 is_stmt 0 view .LVU15
 110 0000 014B     		ldr	r3, .L8
 111 0002 1860     		str	r0, [r3]
 112              		.loc 1 149 1 view .LVU16
 113 0004 7047     		bx	lr
 114              	.L9:
ARM GAS  C:\Users\USER\AppData\Local\Temp\ccslTfpZ.s 			page 3


 115 0006 00BF     		.align	2
 116              	.L8:
 117 0008 20002742 		.word	1109852192
 118              		.cfi_endproc
 119              	.LFE114:
 120              		.size	SYSCFG_MemorySwappingBank, .-SYSCFG_MemorySwappingBank
 121              		.section	.text.SYSCFG_EXTILineConfig,"ax",%progbits
 122              		.align	1
 123              		.p2align 4,,15
 124              		.global	SYSCFG_EXTILineConfig
 125              		.syntax unified
 126              		.thumb
 127              		.thumb_func
 128              		.fpu fpv4-sp-d16
 129              		.type	SYSCFG_EXTILineConfig, %function
 130              	SYSCFG_EXTILineConfig:
 131              	.LVL4:
 132              	.LFB115:
 133              		.loc 1 167 1 is_stmt 1 view -0
 134              		.cfi_startproc
 135              		@ args = 0, pretend = 0, frame = 0
 136              		@ frame_needed = 0, uses_anonymous_args = 0
 137              		@ link register save eliminated.
 138              		.loc 1 168 3 view .LVU18
 139              		.loc 1 171 3 view .LVU19
 140              		.loc 1 172 3 view .LVU20
 141              		.loc 1 174 3 view .LVU21
 142 0000 01F0FC03 		and	r3, r1, #252
 143 0004 03F18043 		add	r3, r3, #1073741824
 144 0008 03F59C33 		add	r3, r3, #79872
 145              		.loc 1 174 35 is_stmt 0 view .LVU22
 146 000c 01F00301 		and	r1, r1, #3
 147              	.LVL5:
 148              		.loc 1 167 1 view .LVU23
 149 0010 10B4     		push	{r4}
 150              		.cfi_def_cfa_offset 4
 151              		.cfi_offset 4, -4
 152              		.loc 1 175 43 view .LVU24
 153 0012 9A68     		ldr	r2, [r3, #8]
 154              		.loc 1 174 35 view .LVU25
 155 0014 8900     		lsls	r1, r1, #2
 156              	.LVL6:
 157              		.loc 1 175 3 is_stmt 1 view .LVU26
 158              		.loc 1 174 7 is_stmt 0 view .LVU27
 159 0016 0F24     		movs	r4, #15
 160 0018 8C40     		lsls	r4, r4, r1
 161              	.LVL7:
 162              		.loc 1 175 43 view .LVU28
 163 001a 22EA0402 		bic	r2, r2, r4
 164 001e 9A60     		str	r2, [r3, #8]
 165              		.loc 1 176 3 is_stmt 1 view .LVU29
 166              		.loc 1 176 43 is_stmt 0 view .LVU30
 167 0020 9A68     		ldr	r2, [r3, #8]
 168              		.loc 1 177 1 view .LVU31
 169 0022 5DF8044B 		ldr	r4, [sp], #4
 170              		.cfi_restore 4
 171              		.cfi_def_cfa_offset 0
ARM GAS  C:\Users\USER\AppData\Local\Temp\ccslTfpZ.s 			page 4


 172              	.LVL8:
 173              		.loc 1 176 80 view .LVU32
 174 0026 00FA01F1 		lsl	r1, r0, r1
 175              	.LVL9:
 176              		.loc 1 176 43 view .LVU33
 177 002a 1143     		orrs	r1, r1, r2
 178 002c 9960     		str	r1, [r3, #8]
 179              		.loc 1 177 1 view .LVU34
 180 002e 7047     		bx	lr
 181              		.cfi_endproc
 182              	.LFE115:
 183              		.size	SYSCFG_EXTILineConfig, .-SYSCFG_EXTILineConfig
 184              		.section	.text.SYSCFG_ETH_MediaInterfaceConfig,"ax",%progbits
 185              		.align	1
 186              		.p2align 4,,15
 187              		.global	SYSCFG_ETH_MediaInterfaceConfig
 188              		.syntax unified
 189              		.thumb
 190              		.thumb_func
 191              		.fpu fpv4-sp-d16
 192              		.type	SYSCFG_ETH_MediaInterfaceConfig, %function
 193              	SYSCFG_ETH_MediaInterfaceConfig:
 194              	.LVL10:
 195              	.LFB116:
 196              		.loc 1 188 1 is_stmt 1 view -0
 197              		.cfi_startproc
 198              		@ args = 0, pretend = 0, frame = 0
 199              		@ frame_needed = 0, uses_anonymous_args = 0
 200              		@ link register save eliminated.
 201              		.loc 1 189 3 view .LVU36
 202              		.loc 1 191 3 view .LVU37
 203              		.loc 1 191 42 is_stmt 0 view .LVU38
 204 0000 014B     		ldr	r3, .L13
 205 0002 1860     		str	r0, [r3]
 206              		.loc 1 192 1 view .LVU39
 207 0004 7047     		bx	lr
 208              	.L14:
 209 0006 00BF     		.align	2
 210              	.L13:
 211 0008 DC002742 		.word	1109852380
 212              		.cfi_endproc
 213              	.LFE116:
 214              		.size	SYSCFG_ETH_MediaInterfaceConfig, .-SYSCFG_ETH_MediaInterfaceConfig
 215              		.section	.text.SYSCFG_CompensationCellCmd,"ax",%progbits
 216              		.align	1
 217              		.p2align 4,,15
 218              		.global	SYSCFG_CompensationCellCmd
 219              		.syntax unified
 220              		.thumb
 221              		.thumb_func
 222              		.fpu fpv4-sp-d16
 223              		.type	SYSCFG_CompensationCellCmd, %function
 224              	SYSCFG_CompensationCellCmd:
 225              	.LVL11:
 226              	.LFB117:
 227              		.loc 1 205 1 is_stmt 1 view -0
 228              		.cfi_startproc
ARM GAS  C:\Users\USER\AppData\Local\Temp\ccslTfpZ.s 			page 5


 229              		@ args = 0, pretend = 0, frame = 0
 230              		@ frame_needed = 0, uses_anonymous_args = 0
 231              		@ link register save eliminated.
 232              		.loc 1 207 3 view .LVU41
 233              		.loc 1 209 3 view .LVU42
 234              		.loc 1 209 38 is_stmt 0 view .LVU43
 235 0000 014B     		ldr	r3, .L16
 236 0002 1860     		str	r0, [r3]
 237              		.loc 1 210 1 view .LVU44
 238 0004 7047     		bx	lr
 239              	.L17:
 240 0006 00BF     		.align	2
 241              	.L16:
 242 0008 00042742 		.word	1109853184
 243              		.cfi_endproc
 244              	.LFE117:
 245              		.size	SYSCFG_CompensationCellCmd, .-SYSCFG_CompensationCellCmd
 246              		.section	.text.SYSCFG_GetCompensationCellStatus,"ax",%progbits
 247              		.align	1
 248              		.p2align 4,,15
 249              		.global	SYSCFG_GetCompensationCellStatus
 250              		.syntax unified
 251              		.thumb
 252              		.thumb_func
 253              		.fpu fpv4-sp-d16
 254              		.type	SYSCFG_GetCompensationCellStatus, %function
 255              	SYSCFG_GetCompensationCellStatus:
 256              	.LFB118:
 257              		.loc 1 218 1 is_stmt 1 view -0
 258              		.cfi_startproc
 259              		@ args = 0, pretend = 0, frame = 0
 260              		@ frame_needed = 0, uses_anonymous_args = 0
 261              		@ link register save eliminated.
 262              		.loc 1 219 3 view .LVU46
 263              	.LVL12:
 264              		.loc 1 221 3 view .LVU47
 265              		.loc 1 221 14 is_stmt 0 view .LVU48
 266 0000 024B     		ldr	r3, .L19
 267 0002 186A     		ldr	r0, [r3, #32]
 268              	.LVL13:
 269              		.loc 1 229 3 is_stmt 1 view .LVU49
 270              		.loc 1 230 1 is_stmt 0 view .LVU50
 271 0004 C0F30020 		ubfx	r0, r0, #8, #1
 272              	.LVL14:
 273              		.loc 1 230 1 view .LVU51
 274 0008 7047     		bx	lr
 275              	.L20:
 276 000a 00BF     		.align	2
 277              	.L19:
 278 000c 00380140 		.word	1073821696
 279              		.cfi_endproc
 280              	.LFE118:
 281              		.size	SYSCFG_GetCompensationCellStatus, .-SYSCFG_GetCompensationCellStatus
 282              		.text
 283              	.Letext0:
 284              		.file 2 "c:\\program files (x86)\\gnu tools arm embedded\\8 2018-q4-major\\arm-none-eabi\\include\
 285              		.file 3 "c:\\program files (x86)\\gnu tools arm embedded\\8 2018-q4-major\\arm-none-eabi\\include\
ARM GAS  C:\Users\USER\AppData\Local\Temp\ccslTfpZ.s 			page 6


 286              		.file 4 "src/ChibiOS_3.0.2/os/ext/CMSIS/include/core_cm4.h"
 287              		.file 5 "src/ChibiOS_3.0.2/os/ext/CMSIS/ST/system_stm32f4xx.h"
 288              		.file 6 "src/ChibiOS_3.0.2/os/ext/CMSIS/ST/stm32f407xx.h"
 289              		.file 7 "src/ChibiOS_3.0.2/os/ext/CMSIS/ST/stm32f4xx.h"
 290              		.file 8 "src/ChibiOS_3.0.2/ext/stdperiph_stm32f4/inc/stm32f4xx_rcc.h"
 291              		.section	.debug_info,"",%progbits
 292              	.Ldebug_info0:
 293 0000 08030000 		.4byte	0x308
 294 0004 0400     		.2byte	0x4
 295 0006 00000000 		.4byte	.Ldebug_abbrev0
 296 000a 04       		.byte	0x4
 297 000b 01       		.uleb128 0x1
 298 000c C5000000 		.4byte	.LASF38
 299 0010 0C       		.byte	0xc
 300 0011 71030000 		.4byte	.LASF39
 301 0015 4F000000 		.4byte	.LASF40
 302 0019 00000000 		.4byte	.Ldebug_ranges0+0
 303 001d 00000000 		.4byte	0
 304 0021 00000000 		.4byte	.Ldebug_line0
 305 0025 02       		.uleb128 0x2
 306 0026 01       		.byte	0x1
 307 0027 06       		.byte	0x6
 308 0028 E3020000 		.4byte	.LASF0
 309 002c 03       		.uleb128 0x3
 310 002d 00000000 		.4byte	.LASF4
 311 0031 02       		.byte	0x2
 312 0032 2B       		.byte	0x2b
 313 0033 18       		.byte	0x18
 314 0034 38000000 		.4byte	0x38
 315 0038 02       		.uleb128 0x2
 316 0039 01       		.byte	0x1
 317 003a 08       		.byte	0x8
 318 003b 3B020000 		.4byte	.LASF1
 319 003f 02       		.uleb128 0x2
 320 0040 02       		.byte	0x2
 321 0041 05       		.byte	0x5
 322 0042 28030000 		.4byte	.LASF2
 323 0046 02       		.uleb128 0x2
 324 0047 02       		.byte	0x2
 325 0048 07       		.byte	0x7
 326 0049 B8030000 		.4byte	.LASF3
 327 004d 03       		.uleb128 0x3
 328 004e 2A000000 		.4byte	.LASF5
 329 0052 02       		.byte	0x2
 330 0053 4D       		.byte	0x4d
 331 0054 18       		.byte	0x18
 332 0055 59000000 		.4byte	0x59
 333 0059 02       		.uleb128 0x2
 334 005a 04       		.byte	0x4
 335 005b 05       		.byte	0x5
 336 005c 68030000 		.4byte	.LASF6
 337 0060 03       		.uleb128 0x3
 338 0061 0D020000 		.4byte	.LASF7
 339 0065 02       		.byte	0x2
 340 0066 4F       		.byte	0x4f
 341 0067 19       		.byte	0x19
 342 0068 6C000000 		.4byte	0x6c
ARM GAS  C:\Users\USER\AppData\Local\Temp\ccslTfpZ.s 			page 7


 343 006c 02       		.uleb128 0x2
 344 006d 04       		.byte	0x4
 345 006e 07       		.byte	0x7
 346 006f 54020000 		.4byte	.LASF8
 347 0073 02       		.uleb128 0x2
 348 0074 08       		.byte	0x8
 349 0075 05       		.byte	0x5
 350 0076 F7020000 		.4byte	.LASF9
 351 007a 02       		.uleb128 0x2
 352 007b 08       		.byte	0x8
 353 007c 07       		.byte	0x7
 354 007d C4020000 		.4byte	.LASF10
 355 0081 04       		.uleb128 0x4
 356 0082 04       		.byte	0x4
 357 0083 05       		.byte	0x5
 358 0084 696E7400 		.ascii	"int\000"
 359 0088 02       		.uleb128 0x2
 360 0089 04       		.byte	0x4
 361 008a 07       		.byte	0x7
 362 008b B1020000 		.4byte	.LASF11
 363 008f 03       		.uleb128 0x3
 364 0090 DB020000 		.4byte	.LASF12
 365 0094 03       		.byte	0x3
 366 0095 18       		.byte	0x18
 367 0096 13       		.byte	0x13
 368 0097 2C000000 		.4byte	0x2c
 369 009b 03       		.uleb128 0x3
 370 009c EF020000 		.4byte	.LASF13
 371 00a0 03       		.byte	0x3
 372 00a1 2C       		.byte	0x2c
 373 00a2 13       		.byte	0x13
 374 00a3 4D000000 		.4byte	0x4d
 375 00a7 05       		.uleb128 0x5
 376 00a8 9B000000 		.4byte	0x9b
 377 00ac 03       		.uleb128 0x3
 378 00ad 5F030000 		.4byte	.LASF14
 379 00b1 03       		.byte	0x3
 380 00b2 30       		.byte	0x30
 381 00b3 14       		.byte	0x14
 382 00b4 60000000 		.4byte	0x60
 383 00b8 05       		.uleb128 0x5
 384 00b9 AC000000 		.4byte	0xac
 385 00bd 06       		.uleb128 0x6
 386 00be AC000000 		.4byte	0xac
 387 00c2 CD000000 		.4byte	0xcd
 388 00c6 07       		.uleb128 0x7
 389 00c7 88000000 		.4byte	0x88
 390 00cb 01       		.byte	0x1
 391 00cc 00       		.byte	0
 392 00cd 08       		.uleb128 0x8
 393 00ce 84020000 		.4byte	.LASF15
 394 00d2 04       		.byte	0x4
 395 00d3 A706     		.2byte	0x6a7
 396 00d5 19       		.byte	0x19
 397 00d6 A7000000 		.4byte	0xa7
 398 00da 09       		.uleb128 0x9
 399 00db 05030000 		.4byte	.LASF16
ARM GAS  C:\Users\USER\AppData\Local\Temp\ccslTfpZ.s 			page 8


 400 00df 05       		.byte	0x5
 401 00e0 4C       		.byte	0x4c
 402 00e1 11       		.byte	0x11
 403 00e2 AC000000 		.4byte	0xac
 404 00e6 0A       		.uleb128 0xa
 405 00e7 24       		.byte	0x24
 406 00e8 06       		.byte	0x6
 407 00e9 3202     		.2byte	0x232
 408 00eb 09       		.byte	0x9
 409 00ec 37010000 		.4byte	0x137
 410 00f0 0B       		.uleb128 0xb
 411 00f1 66020000 		.4byte	.LASF17
 412 00f5 06       		.byte	0x6
 413 00f6 3402     		.2byte	0x234
 414 00f8 11       		.byte	0x11
 415 00f9 B8000000 		.4byte	0xb8
 416 00fd 00       		.byte	0
 417 00fe 0C       		.uleb128 0xc
 418 00ff 504D4300 		.ascii	"PMC\000"
 419 0103 06       		.byte	0x6
 420 0104 3502     		.2byte	0x235
 421 0106 11       		.byte	0x11
 422 0107 B8000000 		.4byte	0xb8
 423 010b 04       		.byte	0x4
 424 010c 0B       		.uleb128 0xb
 425 010d AA020000 		.4byte	.LASF18
 426 0111 06       		.byte	0x6
 427 0112 3602     		.2byte	0x236
 428 0114 11       		.byte	0x11
 429 0115 47010000 		.4byte	0x147
 430 0119 08       		.byte	0x8
 431 011a 0B       		.uleb128 0xb
 432 011b A1020000 		.4byte	.LASF19
 433 011f 06       		.byte	0x6
 434 0120 3702     		.2byte	0x237
 435 0122 11       		.byte	0x11
 436 0123 BD000000 		.4byte	0xbd
 437 0127 18       		.byte	0x18
 438 0128 0B       		.uleb128 0xb
 439 0129 35020000 		.4byte	.LASF20
 440 012d 06       		.byte	0x6
 441 012e 3802     		.2byte	0x238
 442 0130 11       		.byte	0x11
 443 0131 B8000000 		.4byte	0xb8
 444 0135 20       		.byte	0x20
 445 0136 00       		.byte	0
 446 0137 06       		.uleb128 0x6
 447 0138 B8000000 		.4byte	0xb8
 448 013c 47010000 		.4byte	0x147
 449 0140 07       		.uleb128 0x7
 450 0141 88000000 		.4byte	0x88
 451 0145 03       		.byte	0x3
 452 0146 00       		.byte	0
 453 0147 05       		.uleb128 0x5
 454 0148 37010000 		.4byte	0x137
 455 014c 0D       		.uleb128 0xd
 456 014d 3B030000 		.4byte	.LASF21
ARM GAS  C:\Users\USER\AppData\Local\Temp\ccslTfpZ.s 			page 9


 457 0151 06       		.byte	0x6
 458 0152 3902     		.2byte	0x239
 459 0154 03       		.byte	0x3
 460 0155 E6000000 		.4byte	0xe6
 461 0159 0E       		.uleb128 0xe
 462 015a 07       		.byte	0x7
 463 015b 01       		.byte	0x1
 464 015c 38000000 		.4byte	0x38
 465 0160 07       		.byte	0x7
 466 0161 A2       		.byte	0xa2
 467 0162 01       		.byte	0x1
 468 0163 74010000 		.4byte	0x174
 469 0167 0F       		.uleb128 0xf
 470 0168 BE020000 		.4byte	.LASF22
 471 016c 00       		.byte	0
 472 016d 10       		.uleb128 0x10
 473 016e 53455400 		.ascii	"SET\000"
 474 0172 01       		.byte	0x1
 475 0173 00       		.byte	0
 476 0174 03       		.uleb128 0x3
 477 0175 49020000 		.4byte	.LASF23
 478 0179 07       		.byte	0x7
 479 017a A5       		.byte	0xa5
 480 017b 03       		.byte	0x3
 481 017c 59010000 		.4byte	0x159
 482 0180 0E       		.uleb128 0xe
 483 0181 07       		.byte	0x7
 484 0182 01       		.byte	0x1
 485 0183 38000000 		.4byte	0x38
 486 0187 07       		.byte	0x7
 487 0188 A8       		.byte	0xa8
 488 0189 01       		.byte	0x1
 489 018a 9B010000 		.4byte	0x19b
 490 018e 0F       		.uleb128 0xf
 491 018f B0030000 		.4byte	.LASF24
 492 0193 00       		.byte	0
 493 0194 0F       		.uleb128 0xf
 494 0195 18020000 		.4byte	.LASF25
 495 0199 01       		.byte	0x1
 496 019a 00       		.byte	0
 497 019b 03       		.uleb128 0x3
 498 019c A7000000 		.4byte	.LASF26
 499 01a0 07       		.byte	0x7
 500 01a1 AB       		.byte	0xab
 501 01a2 03       		.byte	0x3
 502 01a3 80010000 		.4byte	0x180
 503 01a7 11       		.uleb128 0x11
 504 01a8 86000000 		.4byte	.LASF41
 505 01ac 01       		.byte	0x1
 506 01ad D9       		.byte	0xd9
 507 01ae 0C       		.byte	0xc
 508 01af 74010000 		.4byte	0x174
 509 01b3 00000000 		.4byte	.LFB118
 510 01b7 10000000 		.4byte	.LFE118-.LFB118
 511 01bb 01       		.uleb128 0x1
 512 01bc 9C       		.byte	0x9c
 513 01bd D6010000 		.4byte	0x1d6
ARM GAS  C:\Users\USER\AppData\Local\Temp\ccslTfpZ.s 			page 10


 514 01c1 12       		.uleb128 0x12
 515 01c2 CB030000 		.4byte	.LASF27
 516 01c6 01       		.byte	0x1
 517 01c7 DB       		.byte	0xdb
 518 01c8 0E       		.byte	0xe
 519 01c9 74010000 		.4byte	0x174
 520 01cd 04000000 		.4byte	.LLST2
 521 01d1 00000000 		.4byte	.LVUS2
 522 01d5 00       		.byte	0
 523 01d6 13       		.uleb128 0x13
 524 01d7 34000000 		.4byte	.LASF28
 525 01db 01       		.byte	0x1
 526 01dc CC       		.byte	0xcc
 527 01dd 06       		.byte	0x6
 528 01de 00000000 		.4byte	.LFB117
 529 01e2 0C000000 		.4byte	.LFE117-.LFB117
 530 01e6 01       		.uleb128 0x1
 531 01e7 9C       		.byte	0x9c
 532 01e8 FB010000 		.4byte	0x1fb
 533 01ec 14       		.uleb128 0x14
 534 01ed 32030000 		.4byte	.LASF30
 535 01f1 01       		.byte	0x1
 536 01f2 CC       		.byte	0xcc
 537 01f3 31       		.byte	0x31
 538 01f4 9B010000 		.4byte	0x19b
 539 01f8 01       		.uleb128 0x1
 540 01f9 50       		.byte	0x50
 541 01fa 00       		.byte	0
 542 01fb 13       		.uleb128 0x13
 543 01fc 0A000000 		.4byte	.LASF29
 544 0200 01       		.byte	0x1
 545 0201 BB       		.byte	0xbb
 546 0202 06       		.byte	0x6
 547 0203 00000000 		.4byte	.LFB116
 548 0207 0C000000 		.4byte	.LFE116-.LFB116
 549 020b 01       		.uleb128 0x1
 550 020c 9C       		.byte	0x9c
 551 020d 20020000 		.4byte	0x220
 552 0211 14       		.uleb128 0x14
 553 0212 F3010000 		.4byte	.LASF31
 554 0216 01       		.byte	0x1
 555 0217 BB       		.byte	0xbb
 556 0218 2F       		.byte	0x2f
 557 0219 AC000000 		.4byte	0xac
 558 021d 01       		.uleb128 0x1
 559 021e 50       		.byte	0x50
 560 021f 00       		.byte	0
 561 0220 13       		.uleb128 0x13
 562 0221 1F020000 		.4byte	.LASF32
 563 0225 01       		.byte	0x1
 564 0226 A6       		.byte	0xa6
 565 0227 06       		.byte	0x6
 566 0228 00000000 		.4byte	.LFB115
 567 022c 30000000 		.4byte	.LFE115-.LFB115
 568 0230 01       		.uleb128 0x1
 569 0231 9C       		.byte	0x9c
 570 0232 6D020000 		.4byte	0x26d
ARM GAS  C:\Users\USER\AppData\Local\Temp\ccslTfpZ.s 			page 11


 571 0236 14       		.uleb128 0x14
 572 0237 4A030000 		.4byte	.LASF33
 573 023b 01       		.byte	0x1
 574 023c A6       		.byte	0xa6
 575 023d 24       		.byte	0x24
 576 023e 8F000000 		.4byte	0x8f
 577 0242 01       		.uleb128 0x1
 578 0243 50       		.byte	0x50
 579 0244 15       		.uleb128 0x15
 580 0245 91020000 		.4byte	.LASF42
 581 0249 01       		.byte	0x1
 582 024a A6       		.byte	0xa6
 583 024b 42       		.byte	0x42
 584 024c 8F000000 		.4byte	0x8f
 585 0250 2F000000 		.4byte	.LLST0
 586 0254 2B000000 		.4byte	.LVUS0
 587 0258 16       		.uleb128 0x16
 588 0259 746D7000 		.ascii	"tmp\000"
 589 025d 01       		.byte	0x1
 590 025e A8       		.byte	0xa8
 591 025f 0C       		.byte	0xc
 592 0260 AC000000 		.4byte	0xac
 593 0264 58000000 		.4byte	.LLST1
 594 0268 50000000 		.4byte	.LVUS1
 595 026c 00       		.byte	0
 596 026d 13       		.uleb128 0x13
 597 026e D5030000 		.4byte	.LASF34
 598 0272 01       		.byte	0x1
 599 0273 8F       		.byte	0x8f
 600 0274 06       		.byte	0x6
 601 0275 00000000 		.4byte	.LFB114
 602 0279 0C000000 		.4byte	.LFE114-.LFB114
 603 027d 01       		.uleb128 0x1
 604 027e 9C       		.byte	0x9c
 605 027f 92020000 		.4byte	0x292
 606 0283 14       		.uleb128 0x14
 607 0284 32030000 		.4byte	.LASF30
 608 0288 01       		.byte	0x1
 609 0289 8F       		.byte	0x8f
 610 028a 30       		.byte	0x30
 611 028b 9B010000 		.4byte	0x19b
 612 028f 01       		.uleb128 0x1
 613 0290 50       		.byte	0x50
 614 0291 00       		.byte	0
 615 0292 13       		.uleb128 0x13
 616 0293 EF030000 		.4byte	.LASF35
 617 0297 01       		.byte	0x1
 618 0298 7A       		.byte	0x7a
 619 0299 06       		.byte	0x6
 620 029a 00000000 		.4byte	.LFB113
 621 029e 0C000000 		.4byte	.LFE113-.LFB113
 622 02a2 01       		.uleb128 0x1
 623 02a3 9C       		.byte	0x9c
 624 02a4 B7020000 		.4byte	0x2b7
 625 02a8 14       		.uleb128 0x14
 626 02a9 15030000 		.4byte	.LASF36
 627 02ad 01       		.byte	0x1
ARM GAS  C:\Users\USER\AppData\Local\Temp\ccslTfpZ.s 			page 12


 628 02ae 7A       		.byte	0x7a
 629 02af 27       		.byte	0x27
 630 02b0 8F000000 		.4byte	0x8f
 631 02b4 01       		.uleb128 0x1
 632 02b5 50       		.byte	0x50
 633 02b6 00       		.byte	0
 634 02b7 13       		.uleb128 0x13
 635 02b8 B7000000 		.4byte	.LASF37
 636 02bc 01       		.byte	0x1
 637 02bd 67       		.byte	0x67
 638 02be 06       		.byte	0x6
 639 02bf 00000000 		.4byte	.LFB112
 640 02c3 1A000000 		.4byte	.LFE112-.LFB112
 641 02c7 01       		.uleb128 0x1
 642 02c8 9C       		.byte	0x9c
 643 02c9 FE020000 		.4byte	0x2fe
 644 02cd 17       		.uleb128 0x17
 645 02ce 0C000000 		.4byte	.LVL0
 646 02d2 FE020000 		.4byte	0x2fe
 647 02d6 E7020000 		.4byte	0x2e7
 648 02da 18       		.uleb128 0x18
 649 02db 01       		.uleb128 0x1
 650 02dc 50       		.byte	0x50
 651 02dd 03       		.uleb128 0x3
 652 02de 0A       		.byte	0xa
 653 02df 0040     		.2byte	0x4000
 654 02e1 18       		.uleb128 0x18
 655 02e2 01       		.uleb128 0x1
 656 02e3 51       		.byte	0x51
 657 02e4 01       		.uleb128 0x1
 658 02e5 31       		.byte	0x31
 659 02e6 00       		.byte	0
 660 02e7 19       		.uleb128 0x19
 661 02e8 1A000000 		.4byte	.LVL1
 662 02ec FE020000 		.4byte	0x2fe
 663 02f0 18       		.uleb128 0x18
 664 02f1 01       		.uleb128 0x1
 665 02f2 50       		.byte	0x50
 666 02f3 03       		.uleb128 0x3
 667 02f4 0A       		.byte	0xa
 668 02f5 0040     		.2byte	0x4000
 669 02f7 18       		.uleb128 0x18
 670 02f8 01       		.uleb128 0x1
 671 02f9 51       		.byte	0x51
 672 02fa 01       		.uleb128 0x1
 673 02fb 30       		.byte	0x30
 674 02fc 00       		.byte	0
 675 02fd 00       		.byte	0
 676 02fe 1A       		.uleb128 0x1a
 677 02ff 6D020000 		.4byte	.LASF43
 678 0303 6D020000 		.4byte	.LASF43
 679 0307 08       		.byte	0x8
 680 0308 6203     		.2byte	0x362
 681 030a 0D       		.byte	0xd
 682 030b 00       		.byte	0
 683              		.section	.debug_abbrev,"",%progbits
 684              	.Ldebug_abbrev0:
ARM GAS  C:\Users\USER\AppData\Local\Temp\ccslTfpZ.s 			page 13


 685 0000 01       		.uleb128 0x1
 686 0001 11       		.uleb128 0x11
 687 0002 01       		.byte	0x1
 688 0003 25       		.uleb128 0x25
 689 0004 0E       		.uleb128 0xe
 690 0005 13       		.uleb128 0x13
 691 0006 0B       		.uleb128 0xb
 692 0007 03       		.uleb128 0x3
 693 0008 0E       		.uleb128 0xe
 694 0009 1B       		.uleb128 0x1b
 695 000a 0E       		.uleb128 0xe
 696 000b 55       		.uleb128 0x55
 697 000c 17       		.uleb128 0x17
 698 000d 11       		.uleb128 0x11
 699 000e 01       		.uleb128 0x1
 700 000f 10       		.uleb128 0x10
 701 0010 17       		.uleb128 0x17
 702 0011 00       		.byte	0
 703 0012 00       		.byte	0
 704 0013 02       		.uleb128 0x2
 705 0014 24       		.uleb128 0x24
 706 0015 00       		.byte	0
 707 0016 0B       		.uleb128 0xb
 708 0017 0B       		.uleb128 0xb
 709 0018 3E       		.uleb128 0x3e
 710 0019 0B       		.uleb128 0xb
 711 001a 03       		.uleb128 0x3
 712 001b 0E       		.uleb128 0xe
 713 001c 00       		.byte	0
 714 001d 00       		.byte	0
 715 001e 03       		.uleb128 0x3
 716 001f 16       		.uleb128 0x16
 717 0020 00       		.byte	0
 718 0021 03       		.uleb128 0x3
 719 0022 0E       		.uleb128 0xe
 720 0023 3A       		.uleb128 0x3a
 721 0024 0B       		.uleb128 0xb
 722 0025 3B       		.uleb128 0x3b
 723 0026 0B       		.uleb128 0xb
 724 0027 39       		.uleb128 0x39
 725 0028 0B       		.uleb128 0xb
 726 0029 49       		.uleb128 0x49
 727 002a 13       		.uleb128 0x13
 728 002b 00       		.byte	0
 729 002c 00       		.byte	0
 730 002d 04       		.uleb128 0x4
 731 002e 24       		.uleb128 0x24
 732 002f 00       		.byte	0
 733 0030 0B       		.uleb128 0xb
 734 0031 0B       		.uleb128 0xb
 735 0032 3E       		.uleb128 0x3e
 736 0033 0B       		.uleb128 0xb
 737 0034 03       		.uleb128 0x3
 738 0035 08       		.uleb128 0x8
 739 0036 00       		.byte	0
 740 0037 00       		.byte	0
 741 0038 05       		.uleb128 0x5
ARM GAS  C:\Users\USER\AppData\Local\Temp\ccslTfpZ.s 			page 14


 742 0039 35       		.uleb128 0x35
 743 003a 00       		.byte	0
 744 003b 49       		.uleb128 0x49
 745 003c 13       		.uleb128 0x13
 746 003d 00       		.byte	0
 747 003e 00       		.byte	0
 748 003f 06       		.uleb128 0x6
 749 0040 01       		.uleb128 0x1
 750 0041 01       		.byte	0x1
 751 0042 49       		.uleb128 0x49
 752 0043 13       		.uleb128 0x13
 753 0044 01       		.uleb128 0x1
 754 0045 13       		.uleb128 0x13
 755 0046 00       		.byte	0
 756 0047 00       		.byte	0
 757 0048 07       		.uleb128 0x7
 758 0049 21       		.uleb128 0x21
 759 004a 00       		.byte	0
 760 004b 49       		.uleb128 0x49
 761 004c 13       		.uleb128 0x13
 762 004d 2F       		.uleb128 0x2f
 763 004e 0B       		.uleb128 0xb
 764 004f 00       		.byte	0
 765 0050 00       		.byte	0
 766 0051 08       		.uleb128 0x8
 767 0052 34       		.uleb128 0x34
 768 0053 00       		.byte	0
 769 0054 03       		.uleb128 0x3
 770 0055 0E       		.uleb128 0xe
 771 0056 3A       		.uleb128 0x3a
 772 0057 0B       		.uleb128 0xb
 773 0058 3B       		.uleb128 0x3b
 774 0059 05       		.uleb128 0x5
 775 005a 39       		.uleb128 0x39
 776 005b 0B       		.uleb128 0xb
 777 005c 49       		.uleb128 0x49
 778 005d 13       		.uleb128 0x13
 779 005e 3F       		.uleb128 0x3f
 780 005f 19       		.uleb128 0x19
 781 0060 3C       		.uleb128 0x3c
 782 0061 19       		.uleb128 0x19
 783 0062 00       		.byte	0
 784 0063 00       		.byte	0
 785 0064 09       		.uleb128 0x9
 786 0065 34       		.uleb128 0x34
 787 0066 00       		.byte	0
 788 0067 03       		.uleb128 0x3
 789 0068 0E       		.uleb128 0xe
 790 0069 3A       		.uleb128 0x3a
 791 006a 0B       		.uleb128 0xb
 792 006b 3B       		.uleb128 0x3b
 793 006c 0B       		.uleb128 0xb
 794 006d 39       		.uleb128 0x39
 795 006e 0B       		.uleb128 0xb
 796 006f 49       		.uleb128 0x49
 797 0070 13       		.uleb128 0x13
 798 0071 3F       		.uleb128 0x3f
ARM GAS  C:\Users\USER\AppData\Local\Temp\ccslTfpZ.s 			page 15


 799 0072 19       		.uleb128 0x19
 800 0073 3C       		.uleb128 0x3c
 801 0074 19       		.uleb128 0x19
 802 0075 00       		.byte	0
 803 0076 00       		.byte	0
 804 0077 0A       		.uleb128 0xa
 805 0078 13       		.uleb128 0x13
 806 0079 01       		.byte	0x1
 807 007a 0B       		.uleb128 0xb
 808 007b 0B       		.uleb128 0xb
 809 007c 3A       		.uleb128 0x3a
 810 007d 0B       		.uleb128 0xb
 811 007e 3B       		.uleb128 0x3b
 812 007f 05       		.uleb128 0x5
 813 0080 39       		.uleb128 0x39
 814 0081 0B       		.uleb128 0xb
 815 0082 01       		.uleb128 0x1
 816 0083 13       		.uleb128 0x13
 817 0084 00       		.byte	0
 818 0085 00       		.byte	0
 819 0086 0B       		.uleb128 0xb
 820 0087 0D       		.uleb128 0xd
 821 0088 00       		.byte	0
 822 0089 03       		.uleb128 0x3
 823 008a 0E       		.uleb128 0xe
 824 008b 3A       		.uleb128 0x3a
 825 008c 0B       		.uleb128 0xb
 826 008d 3B       		.uleb128 0x3b
 827 008e 05       		.uleb128 0x5
 828 008f 39       		.uleb128 0x39
 829 0090 0B       		.uleb128 0xb
 830 0091 49       		.uleb128 0x49
 831 0092 13       		.uleb128 0x13
 832 0093 38       		.uleb128 0x38
 833 0094 0B       		.uleb128 0xb
 834 0095 00       		.byte	0
 835 0096 00       		.byte	0
 836 0097 0C       		.uleb128 0xc
 837 0098 0D       		.uleb128 0xd
 838 0099 00       		.byte	0
 839 009a 03       		.uleb128 0x3
 840 009b 08       		.uleb128 0x8
 841 009c 3A       		.uleb128 0x3a
 842 009d 0B       		.uleb128 0xb
 843 009e 3B       		.uleb128 0x3b
 844 009f 05       		.uleb128 0x5
 845 00a0 39       		.uleb128 0x39
 846 00a1 0B       		.uleb128 0xb
 847 00a2 49       		.uleb128 0x49
 848 00a3 13       		.uleb128 0x13
 849 00a4 38       		.uleb128 0x38
 850 00a5 0B       		.uleb128 0xb
 851 00a6 00       		.byte	0
 852 00a7 00       		.byte	0
 853 00a8 0D       		.uleb128 0xd
 854 00a9 16       		.uleb128 0x16
 855 00aa 00       		.byte	0
ARM GAS  C:\Users\USER\AppData\Local\Temp\ccslTfpZ.s 			page 16


 856 00ab 03       		.uleb128 0x3
 857 00ac 0E       		.uleb128 0xe
 858 00ad 3A       		.uleb128 0x3a
 859 00ae 0B       		.uleb128 0xb
 860 00af 3B       		.uleb128 0x3b
 861 00b0 05       		.uleb128 0x5
 862 00b1 39       		.uleb128 0x39
 863 00b2 0B       		.uleb128 0xb
 864 00b3 49       		.uleb128 0x49
 865 00b4 13       		.uleb128 0x13
 866 00b5 00       		.byte	0
 867 00b6 00       		.byte	0
 868 00b7 0E       		.uleb128 0xe
 869 00b8 04       		.uleb128 0x4
 870 00b9 01       		.byte	0x1
 871 00ba 3E       		.uleb128 0x3e
 872 00bb 0B       		.uleb128 0xb
 873 00bc 0B       		.uleb128 0xb
 874 00bd 0B       		.uleb128 0xb
 875 00be 49       		.uleb128 0x49
 876 00bf 13       		.uleb128 0x13
 877 00c0 3A       		.uleb128 0x3a
 878 00c1 0B       		.uleb128 0xb
 879 00c2 3B       		.uleb128 0x3b
 880 00c3 0B       		.uleb128 0xb
 881 00c4 39       		.uleb128 0x39
 882 00c5 0B       		.uleb128 0xb
 883 00c6 01       		.uleb128 0x1
 884 00c7 13       		.uleb128 0x13
 885 00c8 00       		.byte	0
 886 00c9 00       		.byte	0
 887 00ca 0F       		.uleb128 0xf
 888 00cb 28       		.uleb128 0x28
 889 00cc 00       		.byte	0
 890 00cd 03       		.uleb128 0x3
 891 00ce 0E       		.uleb128 0xe
 892 00cf 1C       		.uleb128 0x1c
 893 00d0 0B       		.uleb128 0xb
 894 00d1 00       		.byte	0
 895 00d2 00       		.byte	0
 896 00d3 10       		.uleb128 0x10
 897 00d4 28       		.uleb128 0x28
 898 00d5 00       		.byte	0
 899 00d6 03       		.uleb128 0x3
 900 00d7 08       		.uleb128 0x8
 901 00d8 1C       		.uleb128 0x1c
 902 00d9 0B       		.uleb128 0xb
 903 00da 00       		.byte	0
 904 00db 00       		.byte	0
 905 00dc 11       		.uleb128 0x11
 906 00dd 2E       		.uleb128 0x2e
 907 00de 01       		.byte	0x1
 908 00df 3F       		.uleb128 0x3f
 909 00e0 19       		.uleb128 0x19
 910 00e1 03       		.uleb128 0x3
 911 00e2 0E       		.uleb128 0xe
 912 00e3 3A       		.uleb128 0x3a
ARM GAS  C:\Users\USER\AppData\Local\Temp\ccslTfpZ.s 			page 17


 913 00e4 0B       		.uleb128 0xb
 914 00e5 3B       		.uleb128 0x3b
 915 00e6 0B       		.uleb128 0xb
 916 00e7 39       		.uleb128 0x39
 917 00e8 0B       		.uleb128 0xb
 918 00e9 27       		.uleb128 0x27
 919 00ea 19       		.uleb128 0x19
 920 00eb 49       		.uleb128 0x49
 921 00ec 13       		.uleb128 0x13
 922 00ed 11       		.uleb128 0x11
 923 00ee 01       		.uleb128 0x1
 924 00ef 12       		.uleb128 0x12
 925 00f0 06       		.uleb128 0x6
 926 00f1 40       		.uleb128 0x40
 927 00f2 18       		.uleb128 0x18
 928 00f3 9742     		.uleb128 0x2117
 929 00f5 19       		.uleb128 0x19
 930 00f6 01       		.uleb128 0x1
 931 00f7 13       		.uleb128 0x13
 932 00f8 00       		.byte	0
 933 00f9 00       		.byte	0
 934 00fa 12       		.uleb128 0x12
 935 00fb 34       		.uleb128 0x34
 936 00fc 00       		.byte	0
 937 00fd 03       		.uleb128 0x3
 938 00fe 0E       		.uleb128 0xe
 939 00ff 3A       		.uleb128 0x3a
 940 0100 0B       		.uleb128 0xb
 941 0101 3B       		.uleb128 0x3b
 942 0102 0B       		.uleb128 0xb
 943 0103 39       		.uleb128 0x39
 944 0104 0B       		.uleb128 0xb
 945 0105 49       		.uleb128 0x49
 946 0106 13       		.uleb128 0x13
 947 0107 02       		.uleb128 0x2
 948 0108 17       		.uleb128 0x17
 949 0109 B742     		.uleb128 0x2137
 950 010b 17       		.uleb128 0x17
 951 010c 00       		.byte	0
 952 010d 00       		.byte	0
 953 010e 13       		.uleb128 0x13
 954 010f 2E       		.uleb128 0x2e
 955 0110 01       		.byte	0x1
 956 0111 3F       		.uleb128 0x3f
 957 0112 19       		.uleb128 0x19
 958 0113 03       		.uleb128 0x3
 959 0114 0E       		.uleb128 0xe
 960 0115 3A       		.uleb128 0x3a
 961 0116 0B       		.uleb128 0xb
 962 0117 3B       		.uleb128 0x3b
 963 0118 0B       		.uleb128 0xb
 964 0119 39       		.uleb128 0x39
 965 011a 0B       		.uleb128 0xb
 966 011b 27       		.uleb128 0x27
 967 011c 19       		.uleb128 0x19
 968 011d 11       		.uleb128 0x11
 969 011e 01       		.uleb128 0x1
ARM GAS  C:\Users\USER\AppData\Local\Temp\ccslTfpZ.s 			page 18


 970 011f 12       		.uleb128 0x12
 971 0120 06       		.uleb128 0x6
 972 0121 40       		.uleb128 0x40
 973 0122 18       		.uleb128 0x18
 974 0123 9742     		.uleb128 0x2117
 975 0125 19       		.uleb128 0x19
 976 0126 01       		.uleb128 0x1
 977 0127 13       		.uleb128 0x13
 978 0128 00       		.byte	0
 979 0129 00       		.byte	0
 980 012a 14       		.uleb128 0x14
 981 012b 05       		.uleb128 0x5
 982 012c 00       		.byte	0
 983 012d 03       		.uleb128 0x3
 984 012e 0E       		.uleb128 0xe
 985 012f 3A       		.uleb128 0x3a
 986 0130 0B       		.uleb128 0xb
 987 0131 3B       		.uleb128 0x3b
 988 0132 0B       		.uleb128 0xb
 989 0133 39       		.uleb128 0x39
 990 0134 0B       		.uleb128 0xb
 991 0135 49       		.uleb128 0x49
 992 0136 13       		.uleb128 0x13
 993 0137 02       		.uleb128 0x2
 994 0138 18       		.uleb128 0x18
 995 0139 00       		.byte	0
 996 013a 00       		.byte	0
 997 013b 15       		.uleb128 0x15
 998 013c 05       		.uleb128 0x5
 999 013d 00       		.byte	0
 1000 013e 03       		.uleb128 0x3
 1001 013f 0E       		.uleb128 0xe
 1002 0140 3A       		.uleb128 0x3a
 1003 0141 0B       		.uleb128 0xb
 1004 0142 3B       		.uleb128 0x3b
 1005 0143 0B       		.uleb128 0xb
 1006 0144 39       		.uleb128 0x39
 1007 0145 0B       		.uleb128 0xb
 1008 0146 49       		.uleb128 0x49
 1009 0147 13       		.uleb128 0x13
 1010 0148 02       		.uleb128 0x2
 1011 0149 17       		.uleb128 0x17
 1012 014a B742     		.uleb128 0x2137
 1013 014c 17       		.uleb128 0x17
 1014 014d 00       		.byte	0
 1015 014e 00       		.byte	0
 1016 014f 16       		.uleb128 0x16
 1017 0150 34       		.uleb128 0x34
 1018 0151 00       		.byte	0
 1019 0152 03       		.uleb128 0x3
 1020 0153 08       		.uleb128 0x8
 1021 0154 3A       		.uleb128 0x3a
 1022 0155 0B       		.uleb128 0xb
 1023 0156 3B       		.uleb128 0x3b
 1024 0157 0B       		.uleb128 0xb
 1025 0158 39       		.uleb128 0x39
 1026 0159 0B       		.uleb128 0xb
ARM GAS  C:\Users\USER\AppData\Local\Temp\ccslTfpZ.s 			page 19


 1027 015a 49       		.uleb128 0x49
 1028 015b 13       		.uleb128 0x13
 1029 015c 02       		.uleb128 0x2
 1030 015d 17       		.uleb128 0x17
 1031 015e B742     		.uleb128 0x2137
 1032 0160 17       		.uleb128 0x17
 1033 0161 00       		.byte	0
 1034 0162 00       		.byte	0
 1035 0163 17       		.uleb128 0x17
 1036 0164 898201   		.uleb128 0x4109
 1037 0167 01       		.byte	0x1
 1038 0168 11       		.uleb128 0x11
 1039 0169 01       		.uleb128 0x1
 1040 016a 31       		.uleb128 0x31
 1041 016b 13       		.uleb128 0x13
 1042 016c 01       		.uleb128 0x1
 1043 016d 13       		.uleb128 0x13
 1044 016e 00       		.byte	0
 1045 016f 00       		.byte	0
 1046 0170 18       		.uleb128 0x18
 1047 0171 8A8201   		.uleb128 0x410a
 1048 0174 00       		.byte	0
 1049 0175 02       		.uleb128 0x2
 1050 0176 18       		.uleb128 0x18
 1051 0177 9142     		.uleb128 0x2111
 1052 0179 18       		.uleb128 0x18
 1053 017a 00       		.byte	0
 1054 017b 00       		.byte	0
 1055 017c 19       		.uleb128 0x19
 1056 017d 898201   		.uleb128 0x4109
 1057 0180 01       		.byte	0x1
 1058 0181 11       		.uleb128 0x11
 1059 0182 01       		.uleb128 0x1
 1060 0183 9542     		.uleb128 0x2115
 1061 0185 19       		.uleb128 0x19
 1062 0186 31       		.uleb128 0x31
 1063 0187 13       		.uleb128 0x13
 1064 0188 00       		.byte	0
 1065 0189 00       		.byte	0
 1066 018a 1A       		.uleb128 0x1a
 1067 018b 2E       		.uleb128 0x2e
 1068 018c 00       		.byte	0
 1069 018d 3F       		.uleb128 0x3f
 1070 018e 19       		.uleb128 0x19
 1071 018f 3C       		.uleb128 0x3c
 1072 0190 19       		.uleb128 0x19
 1073 0191 6E       		.uleb128 0x6e
 1074 0192 0E       		.uleb128 0xe
 1075 0193 03       		.uleb128 0x3
 1076 0194 0E       		.uleb128 0xe
 1077 0195 3A       		.uleb128 0x3a
 1078 0196 0B       		.uleb128 0xb
 1079 0197 3B       		.uleb128 0x3b
 1080 0198 05       		.uleb128 0x5
 1081 0199 39       		.uleb128 0x39
 1082 019a 0B       		.uleb128 0xb
 1083 019b 00       		.byte	0
ARM GAS  C:\Users\USER\AppData\Local\Temp\ccslTfpZ.s 			page 20


 1084 019c 00       		.byte	0
 1085 019d 00       		.byte	0
 1086              		.section	.debug_loc,"",%progbits
 1087              	.Ldebug_loc0:
 1088              	.LVUS2:
 1089 0000 02       		.uleb128 .LVU47
 1090 0001 00       		.uleb128 .LVU49
 1091 0002 00       		.uleb128 .LVU49
 1092 0003 00       		.uleb128 .LVU51
 1093              	.LLST2:
 1094 0004 00000000 		.4byte	.LVL12
 1095 0008 04000000 		.4byte	.LVL13
 1096 000c 0200     		.2byte	0x2
 1097 000e 30       		.byte	0x30
 1098 000f 9F       		.byte	0x9f
 1099 0010 04000000 		.4byte	.LVL13
 1100 0014 08000000 		.4byte	.LVL14
 1101 0018 0900     		.2byte	0x9
 1102 001a 70       		.byte	0x70
 1103 001b 00       		.sleb128 0
 1104 001c 0A       		.byte	0xa
 1105 001d 0001     		.2byte	0x100
 1106 001f 1A       		.byte	0x1a
 1107 0020 30       		.byte	0x30
 1108 0021 2E       		.byte	0x2e
 1109 0022 9F       		.byte	0x9f
 1110 0023 00000000 		.4byte	0
 1111 0027 00000000 		.4byte	0
 1112              	.LVUS0:
 1113 002b 00       		.uleb128 0
 1114 002c 00       		.uleb128 .LVU23
 1115 002d 00       		.uleb128 .LVU23
 1116 002e 00       		.uleb128 0
 1117              	.LLST0:
 1118 002f 00000000 		.4byte	.LVL4
 1119 0033 10000000 		.4byte	.LVL5
 1120 0037 0100     		.2byte	0x1
 1121 0039 51       		.byte	0x51
 1122 003a 10000000 		.4byte	.LVL5
 1123 003e 30000000 		.4byte	.LFE115
 1124 0042 0400     		.2byte	0x4
 1125 0044 F3       		.byte	0xf3
 1126 0045 01       		.uleb128 0x1
 1127 0046 51       		.byte	0x51
 1128 0047 9F       		.byte	0x9f
 1129 0048 00000000 		.4byte	0
 1130 004c 00000000 		.4byte	0
 1131              	.LVUS1:
 1132 0050 02       		.uleb128 .LVU19
 1133 0051 00       		.uleb128 .LVU26
 1134 0052 00       		.uleb128 .LVU26
 1135 0053 00       		.uleb128 .LVU28
 1136 0054 00       		.uleb128 .LVU28
 1137 0055 00       		.uleb128 .LVU32
 1138 0056 00       		.uleb128 .LVU32
 1139 0057 00       		.uleb128 .LVU33
 1140              	.LLST1:
ARM GAS  C:\Users\USER\AppData\Local\Temp\ccslTfpZ.s 			page 21


 1141 0058 00000000 		.4byte	.LVL4
 1142 005c 16000000 		.4byte	.LVL6
 1143 0060 0200     		.2byte	0x2
 1144 0062 30       		.byte	0x30
 1145 0063 9F       		.byte	0x9f
 1146 0064 16000000 		.4byte	.LVL6
 1147 0068 1A000000 		.4byte	.LVL7
 1148 006c 0500     		.2byte	0x5
 1149 006e 3F       		.byte	0x3f
 1150 006f 71       		.byte	0x71
 1151 0070 00       		.sleb128 0
 1152 0071 24       		.byte	0x24
 1153 0072 9F       		.byte	0x9f
 1154 0073 1A000000 		.4byte	.LVL7
 1155 0077 26000000 		.4byte	.LVL8
 1156 007b 0100     		.2byte	0x1
 1157 007d 54       		.byte	0x54
 1158 007e 26000000 		.4byte	.LVL8
 1159 0082 2A000000 		.4byte	.LVL9
 1160 0086 0500     		.2byte	0x5
 1161 0088 3F       		.byte	0x3f
 1162 0089 71       		.byte	0x71
 1163 008a 00       		.sleb128 0
 1164 008b 24       		.byte	0x24
 1165 008c 9F       		.byte	0x9f
 1166 008d 00000000 		.4byte	0
 1167 0091 00000000 		.4byte	0
 1168              		.section	.debug_aranges,"",%progbits
 1169 0000 4C000000 		.4byte	0x4c
 1170 0004 0200     		.2byte	0x2
 1171 0006 00000000 		.4byte	.Ldebug_info0
 1172 000a 04       		.byte	0x4
 1173 000b 00       		.byte	0
 1174 000c 0000     		.2byte	0
 1175 000e 0000     		.2byte	0
 1176 0010 00000000 		.4byte	.LFB112
 1177 0014 1A000000 		.4byte	.LFE112-.LFB112
 1178 0018 00000000 		.4byte	.LFB113
 1179 001c 0C000000 		.4byte	.LFE113-.LFB113
 1180 0020 00000000 		.4byte	.LFB114
 1181 0024 0C000000 		.4byte	.LFE114-.LFB114
 1182 0028 00000000 		.4byte	.LFB115
 1183 002c 30000000 		.4byte	.LFE115-.LFB115
 1184 0030 00000000 		.4byte	.LFB116
 1185 0034 0C000000 		.4byte	.LFE116-.LFB116
 1186 0038 00000000 		.4byte	.LFB117
 1187 003c 0C000000 		.4byte	.LFE117-.LFB117
 1188 0040 00000000 		.4byte	.LFB118
 1189 0044 10000000 		.4byte	.LFE118-.LFB118
 1190 0048 00000000 		.4byte	0
 1191 004c 00000000 		.4byte	0
 1192              		.section	.debug_ranges,"",%progbits
 1193              	.Ldebug_ranges0:
 1194 0000 00000000 		.4byte	.LFB112
 1195 0004 1A000000 		.4byte	.LFE112
 1196 0008 00000000 		.4byte	.LFB113
 1197 000c 0C000000 		.4byte	.LFE113
ARM GAS  C:\Users\USER\AppData\Local\Temp\ccslTfpZ.s 			page 22


 1198 0010 00000000 		.4byte	.LFB114
 1199 0014 0C000000 		.4byte	.LFE114
 1200 0018 00000000 		.4byte	.LFB115
 1201 001c 30000000 		.4byte	.LFE115
 1202 0020 00000000 		.4byte	.LFB116
 1203 0024 0C000000 		.4byte	.LFE116
 1204 0028 00000000 		.4byte	.LFB117
 1205 002c 0C000000 		.4byte	.LFE117
 1206 0030 00000000 		.4byte	.LFB118
 1207 0034 10000000 		.4byte	.LFE118
 1208 0038 00000000 		.4byte	0
 1209 003c 00000000 		.4byte	0
 1210              		.section	.debug_line,"",%progbits
 1211              	.Ldebug_line0:
 1212 0000 FE020000 		.section	.debug_str,"MS",%progbits,1
 1212      0300F601 
 1212      00000201 
 1212      FB0E0D00 
 1212      01010101 
 1213              	.LASF4:
 1214 0000 5F5F7569 		.ascii	"__uint8_t\000"
 1214      6E74385F 
 1214      7400
 1215              	.LASF29:
 1216 000a 53595343 		.ascii	"SYSCFG_ETH_MediaInterfaceConfig\000"
 1216      46475F45 
 1216      54485F4D 
 1216      65646961 
 1216      496E7465 
 1217              	.LASF5:
 1218 002a 5F5F696E 		.ascii	"__int32_t\000"
 1218      7433325F 
 1218      7400
 1219              	.LASF28:
 1220 0034 53595343 		.ascii	"SYSCFG_CompensationCellCmd\000"
 1220      46475F43 
 1220      6F6D7065 
 1220      6E736174 
 1220      696F6E43 
 1221              	.LASF40:
 1222 004f 443A5C67 		.ascii	"D:\\git\\oroca_bldc_dev\\oroca_bldc_FW\\oroca_bldc_"
 1222      69745C6F 
 1222      726F6361 
 1222      5F626C64 
 1222      635F6465 
 1223 007e 63686962 		.ascii	"chibios\000"
 1223      696F7300 
 1224              	.LASF41:
 1225 0086 53595343 		.ascii	"SYSCFG_GetCompensationCellStatus\000"
 1225      46475F47 
 1225      6574436F 
 1225      6D70656E 
 1225      73617469 
 1226              	.LASF26:
 1227 00a7 46756E63 		.ascii	"FunctionalState\000"
 1227      74696F6E 
 1227      616C5374 
ARM GAS  C:\Users\USER\AppData\Local\Temp\ccslTfpZ.s 			page 23


 1227      61746500 
 1228              	.LASF37:
 1229 00b7 53595343 		.ascii	"SYSCFG_DeInit\000"
 1229      46475F44 
 1229      65496E69 
 1229      7400
 1230              	.LASF38:
 1231 00c5 474E5520 		.ascii	"GNU C99 8.2.1 20181213 (release) [gcc-8-branch revi"
 1231      43393920 
 1231      382E322E 
 1231      31203230 
 1231      31383132 
 1232 00f8 73696F6E 		.ascii	"sion 267074] -mcpu=cortex-m4 -mfloat-abi=hard -mfpu"
 1232      20323637 
 1232      3037345D 
 1232      202D6D63 
 1232      70753D63 
 1233 012b 3D667076 		.ascii	"=fpv4-sp-d16 -mno-thumb-interwork -mthumb -march=ar"
 1233      342D7370 
 1233      2D643136 
 1233      202D6D6E 
 1233      6F2D7468 
 1234 015e 6D763765 		.ascii	"mv7e-m+fp -ggdb -O2 -std=gnu99 -fomit-frame-pointer"
 1234      2D6D2B66 
 1234      70202D67 
 1234      67646220 
 1234      2D4F3220 
 1235 0191 202D6661 		.ascii	" -falign-functions=16 -ffunction-sections -fdata-se"
 1235      6C69676E 
 1235      2D66756E 
 1235      6374696F 
 1235      6E733D31 
 1236 01c4 6374696F 		.ascii	"ctions -fno-common -fsingle-precision-constant\000"
 1236      6E73202D 
 1236      666E6F2D 
 1236      636F6D6D 
 1236      6F6E202D 
 1237              	.LASF31:
 1238 01f3 53595343 		.ascii	"SYSCFG_ETH_MediaInterface\000"
 1238      46475F45 
 1238      54485F4D 
 1238      65646961 
 1238      496E7465 
 1239              	.LASF7:
 1240 020d 5F5F7569 		.ascii	"__uint32_t\000"
 1240      6E743332 
 1240      5F7400
 1241              	.LASF25:
 1242 0218 454E4142 		.ascii	"ENABLE\000"
 1242      4C4500
 1243              	.LASF32:
 1244 021f 53595343 		.ascii	"SYSCFG_EXTILineConfig\000"
 1244      46475F45 
 1244      5854494C 
 1244      696E6543 
 1244      6F6E6669 
 1245              	.LASF20:
ARM GAS  C:\Users\USER\AppData\Local\Temp\ccslTfpZ.s 			page 24


 1246 0235 434D5043 		.ascii	"CMPCR\000"
 1246      5200
 1247              	.LASF1:
 1248 023b 756E7369 		.ascii	"unsigned char\000"
 1248      676E6564 
 1248      20636861 
 1248      7200
 1249              	.LASF23:
 1250 0249 466C6167 		.ascii	"FlagStatus\000"
 1250      53746174 
 1250      757300
 1251              	.LASF8:
 1252 0254 6C6F6E67 		.ascii	"long unsigned int\000"
 1252      20756E73 
 1252      69676E65 
 1252      6420696E 
 1252      7400
 1253              	.LASF17:
 1254 0266 4D454D52 		.ascii	"MEMRMP\000"
 1254      4D5000
 1255              	.LASF43:
 1256 026d 5243435F 		.ascii	"RCC_APB2PeriphResetCmd\000"
 1256      41504232 
 1256      50657269 
 1256      70685265 
 1256      73657443 
 1257              	.LASF15:
 1258 0284 49544D5F 		.ascii	"ITM_RxBuffer\000"
 1258      52784275 
 1258      66666572 
 1258      00
 1259              	.LASF42:
 1260 0291 45585449 		.ascii	"EXTI_PinSourcex\000"
 1260      5F50696E 
 1260      536F7572 
 1260      63657800 
 1261              	.LASF19:
 1262 02a1 52455345 		.ascii	"RESERVED\000"
 1262      52564544 
 1262      00
 1263              	.LASF18:
 1264 02aa 45585449 		.ascii	"EXTICR\000"
 1264      435200
 1265              	.LASF11:
 1266 02b1 756E7369 		.ascii	"unsigned int\000"
 1266      676E6564 
 1266      20696E74 
 1266      00
 1267              	.LASF22:
 1268 02be 52455345 		.ascii	"RESET\000"
 1268      5400
 1269              	.LASF10:
 1270 02c4 6C6F6E67 		.ascii	"long long unsigned int\000"
 1270      206C6F6E 
 1270      6720756E 
 1270      7369676E 
 1270      65642069 
ARM GAS  C:\Users\USER\AppData\Local\Temp\ccslTfpZ.s 			page 25


 1271              	.LASF12:
 1272 02db 75696E74 		.ascii	"uint8_t\000"
 1272      385F7400 
 1273              	.LASF0:
 1274 02e3 7369676E 		.ascii	"signed char\000"
 1274      65642063 
 1274      68617200 
 1275              	.LASF13:
 1276 02ef 696E7433 		.ascii	"int32_t\000"
 1276      325F7400 
 1277              	.LASF9:
 1278 02f7 6C6F6E67 		.ascii	"long long int\000"
 1278      206C6F6E 
 1278      6720696E 
 1278      7400
 1279              	.LASF16:
 1280 0305 53797374 		.ascii	"SystemCoreClock\000"
 1280      656D436F 
 1280      7265436C 
 1280      6F636B00 
 1281              	.LASF36:
 1282 0315 53595343 		.ascii	"SYSCFG_MemoryRemap\000"
 1282      46475F4D 
 1282      656D6F72 
 1282      7952656D 
 1282      617000
 1283              	.LASF2:
 1284 0328 73686F72 		.ascii	"short int\000"
 1284      7420696E 
 1284      7400
 1285              	.LASF30:
 1286 0332 4E657753 		.ascii	"NewState\000"
 1286      74617465 
 1286      00
 1287              	.LASF21:
 1288 033b 53595343 		.ascii	"SYSCFG_TypeDef\000"
 1288      46475F54 
 1288      79706544 
 1288      656600
 1289              	.LASF33:
 1290 034a 45585449 		.ascii	"EXTI_PortSourceGPIOx\000"
 1290      5F506F72 
 1290      74536F75 
 1290      72636547 
 1290      50494F78 
 1291              	.LASF14:
 1292 035f 75696E74 		.ascii	"uint32_t\000"
 1292      33325F74 
 1292      00
 1293              	.LASF6:
 1294 0368 6C6F6E67 		.ascii	"long int\000"
 1294      20696E74 
 1294      00
 1295              	.LASF39:
 1296 0371 7372632F 		.ascii	"src/ChibiOS_3.0.2/ext/stdperiph_stm32f4/src/stm32f4"
 1296      43686962 
 1296      694F535F 
ARM GAS  C:\Users\USER\AppData\Local\Temp\ccslTfpZ.s 			page 26


 1296      332E302E 
 1296      322F6578 
 1297 03a4 78785F73 		.ascii	"xx_syscfg.c\000"
 1297      79736366 
 1297      672E6300 
 1298              	.LASF24:
 1299 03b0 44495341 		.ascii	"DISABLE\000"
 1299      424C4500 
 1300              	.LASF3:
 1301 03b8 73686F72 		.ascii	"short unsigned int\000"
 1301      7420756E 
 1301      7369676E 
 1301      65642069 
 1301      6E7400
 1302              	.LASF27:
 1303 03cb 62697473 		.ascii	"bitstatus\000"
 1303      74617475 
 1303      7300
 1304              	.LASF34:
 1305 03d5 53595343 		.ascii	"SYSCFG_MemorySwappingBank\000"
 1305      46475F4D 
 1305      656D6F72 
 1305      79537761 
 1305      7070696E 
 1306              	.LASF35:
 1307 03ef 53595343 		.ascii	"SYSCFG_MemoryRemapConfig\000"
 1307      46475F4D 
 1307      656D6F72 
 1307      7952656D 
 1307      6170436F 
 1308              		.ident	"GCC: (GNU Tools for Arm Embedded Processors 8-2018-q4-major) 8.2.1 20181213 (release) [gcc
ARM GAS  C:\Users\USER\AppData\Local\Temp\ccslTfpZ.s 			page 27


DEFINED SYMBOLS
                            *ABS*:00000000 stm32f4xx_syscfg.c
C:\Users\USER\AppData\Local\Temp\ccslTfpZ.s:18     .text.SYSCFG_DeInit:00000000 $t
C:\Users\USER\AppData\Local\Temp\ccslTfpZ.s:27     .text.SYSCFG_DeInit:00000000 SYSCFG_DeInit
C:\Users\USER\AppData\Local\Temp\ccslTfpZ.s:60     .text.SYSCFG_MemoryRemapConfig:00000000 $t
C:\Users\USER\AppData\Local\Temp\ccslTfpZ.s:68     .text.SYSCFG_MemoryRemapConfig:00000000 SYSCFG_MemoryRemapConfig
C:\Users\USER\AppData\Local\Temp\ccslTfpZ.s:86     .text.SYSCFG_MemoryRemapConfig:00000008 $d
C:\Users\USER\AppData\Local\Temp\ccslTfpZ.s:91     .text.SYSCFG_MemorySwappingBank:00000000 $t
C:\Users\USER\AppData\Local\Temp\ccslTfpZ.s:99     .text.SYSCFG_MemorySwappingBank:00000000 SYSCFG_MemorySwappingBank
C:\Users\USER\AppData\Local\Temp\ccslTfpZ.s:117    .text.SYSCFG_MemorySwappingBank:00000008 $d
C:\Users\USER\AppData\Local\Temp\ccslTfpZ.s:122    .text.SYSCFG_EXTILineConfig:00000000 $t
C:\Users\USER\AppData\Local\Temp\ccslTfpZ.s:130    .text.SYSCFG_EXTILineConfig:00000000 SYSCFG_EXTILineConfig
C:\Users\USER\AppData\Local\Temp\ccslTfpZ.s:185    .text.SYSCFG_ETH_MediaInterfaceConfig:00000000 $t
C:\Users\USER\AppData\Local\Temp\ccslTfpZ.s:193    .text.SYSCFG_ETH_MediaInterfaceConfig:00000000 SYSCFG_ETH_MediaInterfaceConfig
C:\Users\USER\AppData\Local\Temp\ccslTfpZ.s:211    .text.SYSCFG_ETH_MediaInterfaceConfig:00000008 $d
C:\Users\USER\AppData\Local\Temp\ccslTfpZ.s:216    .text.SYSCFG_CompensationCellCmd:00000000 $t
C:\Users\USER\AppData\Local\Temp\ccslTfpZ.s:224    .text.SYSCFG_CompensationCellCmd:00000000 SYSCFG_CompensationCellCmd
C:\Users\USER\AppData\Local\Temp\ccslTfpZ.s:242    .text.SYSCFG_CompensationCellCmd:00000008 $d
C:\Users\USER\AppData\Local\Temp\ccslTfpZ.s:247    .text.SYSCFG_GetCompensationCellStatus:00000000 $t
C:\Users\USER\AppData\Local\Temp\ccslTfpZ.s:255    .text.SYSCFG_GetCompensationCellStatus:00000000 SYSCFG_GetCompensationCellStatus
C:\Users\USER\AppData\Local\Temp\ccslTfpZ.s:278    .text.SYSCFG_GetCompensationCellStatus:0000000c $d

UNDEFINED SYMBOLS
RCC_APB2PeriphResetCmd
