ARM GAS  C:\Users\USER\AppData\Local\Temp\ccNdlOSb.s 			page 1


   1              		.cpu cortex-m4
   2              		.eabi_attribute 27, 1
   3              		.eabi_attribute 28, 1
   4              		.eabi_attribute 20, 1
   5              		.eabi_attribute 21, 1
   6              		.eabi_attribute 23, 3
   7              		.eabi_attribute 24, 1
   8              		.eabi_attribute 25, 1
   9              		.eabi_attribute 26, 1
  10              		.eabi_attribute 30, 2
  11              		.eabi_attribute 34, 1
  12              		.eabi_attribute 18, 4
  13              		.file	"stm32f4xx_tim.c"
  14              		.text
  15              	.Ltext0:
  16              		.cfi_sections	.debug_frame
  17              		.section	.text.TIM_DeInit,"ax",%progbits
  18              		.align	1
  19              		.p2align 4,,15
  20              		.global	TIM_DeInit
  21              		.arch armv7e-m
  22              		.syntax unified
  23              		.thumb
  24              		.thumb_func
  25              		.fpu fpv4-sp-d16
  26              		.type	TIM_DeInit, %function
  27              	TIM_DeInit:
  28              	.LVL0:
  29              	.LFB112:
  30              		.file 1 "src/ChibiOS_3.0.2/ext/stdperiph_stm32f4/src/stm32f4xx_tim.c"
  31              		.loc 1 205 1 view -0
  32              		.cfi_startproc
  33              		@ args = 0, pretend = 0, frame = 0
  34              		@ frame_needed = 0, uses_anonymous_args = 0
  35              		.loc 1 207 3 view .LVU1
  36              		.loc 1 209 3 view .LVU2
  37              		.loc 1 205 1 is_stmt 0 view .LVU3
  38 0000 08B5     		push	{r3, lr}
  39              		.cfi_def_cfa_offset 8
  40              		.cfi_offset 3, -8
  41              		.cfi_offset 14, -4
  42              		.loc 1 209 6 view .LVU4
  43 0002 604B     		ldr	r3, .L32
  44 0004 9842     		cmp	r0, r3
  45 0006 33D0     		beq	.L18
  46              		.loc 1 214 8 is_stmt 1 view .LVU5
  47              		.loc 1 214 11 is_stmt 0 view .LVU6
  48 0008 B0F1804F 		cmp	r0, #1073741824
  49 000c 3AD0     		beq	.L19
  50              		.loc 1 219 8 is_stmt 1 view .LVU7
  51              		.loc 1 219 11 is_stmt 0 view .LVU8
  52 000e 5E4B     		ldr	r3, .L32+4
  53 0010 9842     		cmp	r0, r3
  54 0012 41D0     		beq	.L20
  55              		.loc 1 224 8 is_stmt 1 view .LVU9
  56              		.loc 1 224 11 is_stmt 0 view .LVU10
  57 0014 5D4B     		ldr	r3, .L32+8
ARM GAS  C:\Users\USER\AppData\Local\Temp\ccNdlOSb.s 			page 2


  58 0016 9842     		cmp	r0, r3
  59 0018 20D0     		beq	.L21
  60              		.loc 1 229 8 is_stmt 1 view .LVU11
  61              		.loc 1 229 11 is_stmt 0 view .LVU12
  62 001a 5D4B     		ldr	r3, .L32+12
  63 001c 9842     		cmp	r0, r3
  64 001e 45D0     		beq	.L22
  65              		.loc 1 234 8 is_stmt 1 view .LVU13
  66              		.loc 1 234 11 is_stmt 0 view .LVU14
  67 0020 5C4B     		ldr	r3, .L32+16
  68 0022 9842     		cmp	r0, r3
  69 0024 4CD0     		beq	.L23
  70              		.loc 1 239 8 is_stmt 1 view .LVU15
  71              		.loc 1 239 11 is_stmt 0 view .LVU16
  72 0026 5C4B     		ldr	r3, .L32+20
  73 0028 9842     		cmp	r0, r3
  74 002a 53D0     		beq	.L24
  75              		.loc 1 244 8 is_stmt 1 view .LVU17
  76              		.loc 1 244 11 is_stmt 0 view .LVU18
  77 002c 5B4B     		ldr	r3, .L32+24
  78 002e 9842     		cmp	r0, r3
  79 0030 66D0     		beq	.L25
  80              		.loc 1 249 8 is_stmt 1 view .LVU19
  81              		.loc 1 249 11 is_stmt 0 view .LVU20
  82 0032 5B4B     		ldr	r3, .L32+28
  83 0034 9842     		cmp	r0, r3
  84 0036 57D0     		beq	.L26
  85              		.loc 1 254 8 is_stmt 1 view .LVU21
  86              		.loc 1 254 11 is_stmt 0 view .LVU22
  87 0038 5A4B     		ldr	r3, .L32+32
  88 003a 9842     		cmp	r0, r3
  89 003c 6AD0     		beq	.L27
  90              		.loc 1 259 8 is_stmt 1 view .LVU23
  91              		.loc 1 259 11 is_stmt 0 view .LVU24
  92 003e 5A4B     		ldr	r3, .L32+36
  93 0040 9842     		cmp	r0, r3
  94 0042 73D0     		beq	.L28
  95              		.loc 1 264 8 is_stmt 1 view .LVU25
  96              		.loc 1 264 11 is_stmt 0 view .LVU26
  97 0044 594B     		ldr	r3, .L32+40
  98 0046 9842     		cmp	r0, r3
  99 0048 7CD0     		beq	.L29
 100              		.loc 1 269 8 is_stmt 1 view .LVU27
 101              		.loc 1 269 11 is_stmt 0 view .LVU28
 102 004a 594B     		ldr	r3, .L32+44
 103 004c 9842     		cmp	r0, r3
 104 004e 00F08380 		beq	.L30
 105              		.loc 1 276 5 is_stmt 1 view .LVU29
 106              		.loc 1 276 8 is_stmt 0 view .LVU30
 107 0052 584B     		ldr	r3, .L32+48
 108 0054 9842     		cmp	r0, r3
 109 0056 00F08980 		beq	.L31
 110              		.loc 1 282 1 view .LVU31
 111 005a 08BD     		pop	{r3, pc}
 112              	.L21:
 113              		.loc 1 226 5 is_stmt 1 view .LVU32
 114 005c 0121     		movs	r1, #1
ARM GAS  C:\Users\USER\AppData\Local\Temp\ccNdlOSb.s 			page 3


 115 005e 0420     		movs	r0, #4
 116              	.LVL1:
 117              		.loc 1 226 5 is_stmt 0 view .LVU33
 118 0060 FFF7FEFF 		bl	RCC_APB1PeriphResetCmd
 119              	.LVL2:
 120              		.loc 1 227 5 is_stmt 1 view .LVU34
 121 0064 0021     		movs	r1, #0
 122 0066 0420     		movs	r0, #4
 123              		.loc 1 282 1 is_stmt 0 view .LVU35
 124 0068 BDE80840 		pop	{r3, lr}
 125              		.cfi_remember_state
 126              		.cfi_restore 14
 127              		.cfi_restore 3
 128              		.cfi_def_cfa_offset 0
 129              		.loc 1 227 5 view .LVU36
 130 006c FFF7FEBF 		b	RCC_APB1PeriphResetCmd
 131              	.LVL3:
 132              	.L18:
 133              		.cfi_restore_state
 134              		.loc 1 211 5 is_stmt 1 view .LVU37
 135 0070 0121     		movs	r1, #1
 136 0072 0846     		mov	r0, r1
 137              	.LVL4:
 138              		.loc 1 211 5 is_stmt 0 view .LVU38
 139 0074 FFF7FEFF 		bl	RCC_APB2PeriphResetCmd
 140              	.LVL5:
 141              		.loc 1 212 5 is_stmt 1 view .LVU39
 142 0078 0021     		movs	r1, #0
 143 007a 0120     		movs	r0, #1
 144              		.loc 1 282 1 is_stmt 0 view .LVU40
 145 007c BDE80840 		pop	{r3, lr}
 146              		.cfi_remember_state
 147              		.cfi_restore 14
 148              		.cfi_restore 3
 149              		.cfi_def_cfa_offset 0
 150              		.loc 1 212 5 view .LVU41
 151 0080 FFF7FEBF 		b	RCC_APB2PeriphResetCmd
 152              	.LVL6:
 153              	.L19:
 154              		.cfi_restore_state
 155              		.loc 1 216 5 is_stmt 1 view .LVU42
 156 0084 0121     		movs	r1, #1
 157 0086 0846     		mov	r0, r1
 158              	.LVL7:
 159              		.loc 1 216 5 is_stmt 0 view .LVU43
 160 0088 FFF7FEFF 		bl	RCC_APB1PeriphResetCmd
 161              	.LVL8:
 162              		.loc 1 217 5 is_stmt 1 view .LVU44
 163 008c 0021     		movs	r1, #0
 164 008e 0120     		movs	r0, #1
 165              		.loc 1 282 1 is_stmt 0 view .LVU45
 166 0090 BDE80840 		pop	{r3, lr}
 167              		.cfi_remember_state
 168              		.cfi_restore 14
 169              		.cfi_restore 3
 170              		.cfi_def_cfa_offset 0
 171              		.loc 1 217 5 view .LVU46
ARM GAS  C:\Users\USER\AppData\Local\Temp\ccNdlOSb.s 			page 4


 172 0094 FFF7FEBF 		b	RCC_APB1PeriphResetCmd
 173              	.LVL9:
 174              	.L20:
 175              		.cfi_restore_state
 176              		.loc 1 221 5 is_stmt 1 view .LVU47
 177 0098 0121     		movs	r1, #1
 178 009a 0220     		movs	r0, #2
 179              	.LVL10:
 180              		.loc 1 221 5 is_stmt 0 view .LVU48
 181 009c FFF7FEFF 		bl	RCC_APB1PeriphResetCmd
 182              	.LVL11:
 183              		.loc 1 222 5 is_stmt 1 view .LVU49
 184 00a0 0021     		movs	r1, #0
 185 00a2 0220     		movs	r0, #2
 186              		.loc 1 282 1 is_stmt 0 view .LVU50
 187 00a4 BDE80840 		pop	{r3, lr}
 188              		.cfi_remember_state
 189              		.cfi_restore 14
 190              		.cfi_restore 3
 191              		.cfi_def_cfa_offset 0
 192              		.loc 1 222 5 view .LVU51
 193 00a8 FFF7FEBF 		b	RCC_APB1PeriphResetCmd
 194              	.LVL12:
 195              	.L22:
 196              		.cfi_restore_state
 197              		.loc 1 231 5 is_stmt 1 view .LVU52
 198 00ac 0121     		movs	r1, #1
 199 00ae 0820     		movs	r0, #8
 200              	.LVL13:
 201              		.loc 1 231 5 is_stmt 0 view .LVU53
 202 00b0 FFF7FEFF 		bl	RCC_APB1PeriphResetCmd
 203              	.LVL14:
 204              		.loc 1 232 5 is_stmt 1 view .LVU54
 205 00b4 0021     		movs	r1, #0
 206 00b6 0820     		movs	r0, #8
 207              		.loc 1 282 1 is_stmt 0 view .LVU55
 208 00b8 BDE80840 		pop	{r3, lr}
 209              		.cfi_remember_state
 210              		.cfi_restore 14
 211              		.cfi_restore 3
 212              		.cfi_def_cfa_offset 0
 213              		.loc 1 232 5 view .LVU56
 214 00bc FFF7FEBF 		b	RCC_APB1PeriphResetCmd
 215              	.LVL15:
 216              	.L23:
 217              		.cfi_restore_state
 218              		.loc 1 236 5 is_stmt 1 view .LVU57
 219 00c0 0121     		movs	r1, #1
 220 00c2 1020     		movs	r0, #16
 221              	.LVL16:
 222              		.loc 1 236 5 is_stmt 0 view .LVU58
 223 00c4 FFF7FEFF 		bl	RCC_APB1PeriphResetCmd
 224              	.LVL17:
 225              		.loc 1 237 5 is_stmt 1 view .LVU59
 226 00c8 0021     		movs	r1, #0
 227 00ca 1020     		movs	r0, #16
 228              		.loc 1 282 1 is_stmt 0 view .LVU60
ARM GAS  C:\Users\USER\AppData\Local\Temp\ccNdlOSb.s 			page 5


 229 00cc BDE80840 		pop	{r3, lr}
 230              		.cfi_remember_state
 231              		.cfi_restore 14
 232              		.cfi_restore 3
 233              		.cfi_def_cfa_offset 0
 234              		.loc 1 237 5 view .LVU61
 235 00d0 FFF7FEBF 		b	RCC_APB1PeriphResetCmd
 236              	.LVL18:
 237              	.L24:
 238              		.cfi_restore_state
 239              		.loc 1 241 5 is_stmt 1 view .LVU62
 240 00d4 0121     		movs	r1, #1
 241 00d6 2020     		movs	r0, #32
 242              	.LVL19:
 243              		.loc 1 241 5 is_stmt 0 view .LVU63
 244 00d8 FFF7FEFF 		bl	RCC_APB1PeriphResetCmd
 245              	.LVL20:
 246              		.loc 1 242 5 is_stmt 1 view .LVU64
 247 00dc 0021     		movs	r1, #0
 248 00de 2020     		movs	r0, #32
 249              		.loc 1 282 1 is_stmt 0 view .LVU65
 250 00e0 BDE80840 		pop	{r3, lr}
 251              		.cfi_remember_state
 252              		.cfi_restore 14
 253              		.cfi_restore 3
 254              		.cfi_def_cfa_offset 0
 255              		.loc 1 242 5 view .LVU66
 256 00e4 FFF7FEBF 		b	RCC_APB1PeriphResetCmd
 257              	.LVL21:
 258              	.L26:
 259              		.cfi_restore_state
 260              		.loc 1 251 5 is_stmt 1 view .LVU67
 261 00e8 0121     		movs	r1, #1
 262 00ea 4FF48030 		mov	r0, #65536
 263              	.LVL22:
 264              		.loc 1 251 5 is_stmt 0 view .LVU68
 265 00ee FFF7FEFF 		bl	RCC_APB2PeriphResetCmd
 266              	.LVL23:
 267              		.loc 1 252 5 is_stmt 1 view .LVU69
 268 00f2 0021     		movs	r1, #0
 269 00f4 4FF48030 		mov	r0, #65536
 270              		.loc 1 282 1 is_stmt 0 view .LVU70
 271 00f8 BDE80840 		pop	{r3, lr}
 272              		.cfi_remember_state
 273              		.cfi_restore 14
 274              		.cfi_restore 3
 275              		.cfi_def_cfa_offset 0
 276              		.loc 1 252 5 view .LVU71
 277 00fc FFF7FEBF 		b	RCC_APB2PeriphResetCmd
 278              	.LVL24:
 279              	.L25:
 280              		.cfi_restore_state
 281              		.loc 1 246 5 is_stmt 1 view .LVU72
 282 0100 0121     		movs	r1, #1
 283 0102 0220     		movs	r0, #2
 284              	.LVL25:
 285              		.loc 1 246 5 is_stmt 0 view .LVU73
ARM GAS  C:\Users\USER\AppData\Local\Temp\ccNdlOSb.s 			page 6


 286 0104 FFF7FEFF 		bl	RCC_APB2PeriphResetCmd
 287              	.LVL26:
 288              		.loc 1 247 5 is_stmt 1 view .LVU74
 289 0108 0021     		movs	r1, #0
 290 010a 0220     		movs	r0, #2
 291              		.loc 1 282 1 is_stmt 0 view .LVU75
 292 010c BDE80840 		pop	{r3, lr}
 293              		.cfi_remember_state
 294              		.cfi_restore 14
 295              		.cfi_restore 3
 296              		.cfi_def_cfa_offset 0
 297              		.loc 1 247 5 view .LVU76
 298 0110 FFF7FEBF 		b	RCC_APB2PeriphResetCmd
 299              	.LVL27:
 300              	.L27:
 301              		.cfi_restore_state
 302              		.loc 1 256 5 is_stmt 1 view .LVU77
 303 0114 0121     		movs	r1, #1
 304 0116 4FF40030 		mov	r0, #131072
 305              	.LVL28:
 306              		.loc 1 256 5 is_stmt 0 view .LVU78
 307 011a FFF7FEFF 		bl	RCC_APB2PeriphResetCmd
 308              	.LVL29:
 309              		.loc 1 257 5 is_stmt 1 view .LVU79
 310 011e 0021     		movs	r1, #0
 311 0120 4FF40030 		mov	r0, #131072
 312              		.loc 1 282 1 is_stmt 0 view .LVU80
 313 0124 BDE80840 		pop	{r3, lr}
 314              		.cfi_remember_state
 315              		.cfi_restore 14
 316              		.cfi_restore 3
 317              		.cfi_def_cfa_offset 0
 318              		.loc 1 257 5 view .LVU81
 319 0128 FFF7FEBF 		b	RCC_APB2PeriphResetCmd
 320              	.LVL30:
 321              	.L28:
 322              		.cfi_restore_state
 323              		.loc 1 261 5 is_stmt 1 view .LVU82
 324 012c 0121     		movs	r1, #1
 325 012e 4FF48020 		mov	r0, #262144
 326              	.LVL31:
 327              		.loc 1 261 5 is_stmt 0 view .LVU83
 328 0132 FFF7FEFF 		bl	RCC_APB2PeriphResetCmd
 329              	.LVL32:
 330              		.loc 1 262 5 is_stmt 1 view .LVU84
 331 0136 0021     		movs	r1, #0
 332 0138 4FF48020 		mov	r0, #262144
 333              		.loc 1 282 1 is_stmt 0 view .LVU85
 334 013c BDE80840 		pop	{r3, lr}
 335              		.cfi_remember_state
 336              		.cfi_restore 14
 337              		.cfi_restore 3
 338              		.cfi_def_cfa_offset 0
 339              		.loc 1 262 5 view .LVU86
 340 0140 FFF7FEBF 		b	RCC_APB2PeriphResetCmd
 341              	.LVL33:
 342              	.L29:
ARM GAS  C:\Users\USER\AppData\Local\Temp\ccNdlOSb.s 			page 7


 343              		.cfi_restore_state
 344              		.loc 1 266 5 is_stmt 1 view .LVU87
 345 0144 0121     		movs	r1, #1
 346 0146 4020     		movs	r0, #64
 347              	.LVL34:
 348              		.loc 1 266 5 is_stmt 0 view .LVU88
 349 0148 FFF7FEFF 		bl	RCC_APB1PeriphResetCmd
 350              	.LVL35:
 351              		.loc 1 267 5 is_stmt 1 view .LVU89
 352 014c 0021     		movs	r1, #0
 353 014e 4020     		movs	r0, #64
 354              		.loc 1 282 1 is_stmt 0 view .LVU90
 355 0150 BDE80840 		pop	{r3, lr}
 356              		.cfi_remember_state
 357              		.cfi_restore 14
 358              		.cfi_restore 3
 359              		.cfi_def_cfa_offset 0
 360              		.loc 1 267 5 view .LVU91
 361 0154 FFF7FEBF 		b	RCC_APB1PeriphResetCmd
 362              	.LVL36:
 363              	.L30:
 364              		.cfi_restore_state
 365              		.loc 1 271 5 is_stmt 1 view .LVU92
 366 0158 0121     		movs	r1, #1
 367 015a 8020     		movs	r0, #128
 368              	.LVL37:
 369              		.loc 1 271 5 is_stmt 0 view .LVU93
 370 015c FFF7FEFF 		bl	RCC_APB1PeriphResetCmd
 371              	.LVL38:
 372              		.loc 1 272 5 is_stmt 1 view .LVU94
 373 0160 0021     		movs	r1, #0
 374 0162 8020     		movs	r0, #128
 375              		.loc 1 282 1 is_stmt 0 view .LVU95
 376 0164 BDE80840 		pop	{r3, lr}
 377              		.cfi_remember_state
 378              		.cfi_restore 14
 379              		.cfi_restore 3
 380              		.cfi_def_cfa_offset 0
 381              		.loc 1 272 5 view .LVU96
 382 0168 FFF7FEBF 		b	RCC_APB1PeriphResetCmd
 383              	.LVL39:
 384              	.L31:
 385              		.cfi_restore_state
 386              		.loc 1 278 7 is_stmt 1 view .LVU97
 387 016c 0121     		movs	r1, #1
 388 016e 4FF48070 		mov	r0, #256
 389              	.LVL40:
 390              		.loc 1 278 7 is_stmt 0 view .LVU98
 391 0172 FFF7FEFF 		bl	RCC_APB1PeriphResetCmd
 392              	.LVL41:
 393              		.loc 1 279 7 is_stmt 1 view .LVU99
 394 0176 0021     		movs	r1, #0
 395 0178 4FF48070 		mov	r0, #256
 396              		.loc 1 282 1 is_stmt 0 view .LVU100
 397 017c BDE80840 		pop	{r3, lr}
 398              		.cfi_restore 14
 399              		.cfi_restore 3
ARM GAS  C:\Users\USER\AppData\Local\Temp\ccNdlOSb.s 			page 8


 400              		.cfi_def_cfa_offset 0
 401              		.loc 1 279 7 view .LVU101
 402 0180 FFF7FEBF 		b	RCC_APB1PeriphResetCmd
 403              	.LVL42:
 404              	.L33:
 405              		.align	2
 406              	.L32:
 407 0184 00000140 		.word	1073807360
 408 0188 00040040 		.word	1073742848
 409 018c 00080040 		.word	1073743872
 410 0190 000C0040 		.word	1073744896
 411 0194 00100040 		.word	1073745920
 412 0198 00140040 		.word	1073746944
 413 019c 00040140 		.word	1073808384
 414 01a0 00400140 		.word	1073823744
 415 01a4 00440140 		.word	1073824768
 416 01a8 00480140 		.word	1073825792
 417 01ac 00180040 		.word	1073747968
 418 01b0 001C0040 		.word	1073748992
 419 01b4 00200040 		.word	1073750016
 420              		.cfi_endproc
 421              	.LFE112:
 422              		.size	TIM_DeInit, .-TIM_DeInit
 423              		.section	.text.TIM_TimeBaseInit,"ax",%progbits
 424              		.align	1
 425              		.p2align 4,,15
 426              		.global	TIM_TimeBaseInit
 427              		.syntax unified
 428              		.thumb
 429              		.thumb_func
 430              		.fpu fpv4-sp-d16
 431              		.type	TIM_TimeBaseInit, %function
 432              	TIM_TimeBaseInit:
 433              	.LVL43:
 434              	.LFB113:
 435              		.loc 1 293 1 is_stmt 1 view -0
 436              		.cfi_startproc
 437              		@ args = 0, pretend = 0, frame = 0
 438              		@ frame_needed = 0, uses_anonymous_args = 0
 439              		@ link register save eliminated.
 440              		.loc 1 294 3 view .LVU103
 441              		.loc 1 297 3 view .LVU104
 442              		.loc 1 298 3 view .LVU105
 443              		.loc 1 299 3 view .LVU106
 444              		.loc 1 301 3 view .LVU107
 445              		.loc 1 303 5 is_stmt 0 view .LVU108
 446 0000 214A     		ldr	r2, .L47
 447              		.loc 1 301 16 view .LVU109
 448 0002 0368     		ldr	r3, [r0]
 449              		.loc 1 303 5 view .LVU110
 450 0004 9042     		cmp	r0, r2
 451              		.loc 1 293 1 view .LVU111
 452 0006 70B4     		push	{r4, r5, r6}
 453              		.cfi_def_cfa_offset 12
 454              		.cfi_offset 4, -12
 455              		.cfi_offset 5, -8
 456              		.cfi_offset 6, -4
ARM GAS  C:\Users\USER\AppData\Local\Temp\ccNdlOSb.s 			page 9


 457              		.loc 1 301 10 view .LVU112
 458 0008 9BB2     		uxth	r3, r3
 459              	.LVL44:
 460              		.loc 1 303 3 is_stmt 1 view .LVU113
 461              		.loc 1 303 5 is_stmt 0 view .LVU114
 462 000a 12D0     		beq	.L35
 463              		.loc 1 303 21 discriminator 1 view .LVU115
 464 000c 02F58062 		add	r2, r2, #1024
 465 0010 9042     		cmp	r0, r2
 466 0012 0ED0     		beq	.L35
 467              		.loc 1 303 38 discriminator 2 view .LVU116
 468 0014 B0F1804F 		cmp	r0, #1073741824
 469 0018 0BD0     		beq	.L35
 470              		.loc 1 304 21 view .LVU117
 471 001a A2F58032 		sub	r2, r2, #65536
 472 001e 9042     		cmp	r0, r2
 473 0020 07D0     		beq	.L35
 474              		.loc 1 304 38 discriminator 1 view .LVU118
 475 0022 02F58062 		add	r2, r2, #1024
 476 0026 9042     		cmp	r0, r2
 477 0028 03D0     		beq	.L35
 478              		.loc 1 305 21 view .LVU119
 479 002a 02F58062 		add	r2, r2, #1024
 480 002e 9042     		cmp	r0, r2
 481 0030 03D1     		bne	.L36
 482              	.L35:
 483              		.loc 1 308 5 is_stmt 1 view .LVU120
 484              		.loc 1 309 12 is_stmt 0 view .LVU121
 485 0032 4A88     		ldrh	r2, [r1, #2]
 486              		.loc 1 308 12 view .LVU122
 487 0034 23F07003 		bic	r3, r3, #112
 488              	.LVL45:
 489              		.loc 1 309 5 is_stmt 1 view .LVU123
 490              		.loc 1 309 12 is_stmt 0 view .LVU124
 491 0038 1343     		orrs	r3, r3, r2
 492              	.LVL46:
 493              	.L36:
 494              		.loc 1 312 3 is_stmt 1 view .LVU125
 495              		.loc 1 312 5 is_stmt 0 view .LVU126
 496 003a 144D     		ldr	r5, .L47+4
 497 003c 4C68     		ldr	r4, [r1, #4]
 498 003e 0A88     		ldrh	r2, [r1]
 499 0040 A842     		cmp	r0, r5
 500 0042 15D0     		beq	.L38
 501              		.loc 1 312 21 discriminator 1 view .LVU127
 502 0044 05F58065 		add	r5, r5, #1024
 503 0048 A842     		cmp	r0, r5
 504 004a 11D0     		beq	.L38
 505              		.loc 1 315 5 is_stmt 1 view .LVU128
 506              		.loc 1 316 12 is_stmt 0 view .LVU129
 507 004c 0E89     		ldrh	r6, [r1, #8]
 508              		.loc 1 315 12 view .LVU130
 509 004e 23F44073 		bic	r3, r3, #768
 510              	.LVL47:
 511              		.loc 1 327 6 view .LVU131
 512 0052 05F56C45 		add	r5, r5, #60416
 513              		.loc 1 315 12 view .LVU132
ARM GAS  C:\Users\USER\AppData\Local\Temp\ccNdlOSb.s 			page 10


 514 0056 9BB2     		uxth	r3, r3
 515              	.LVL48:
 516              		.loc 1 316 5 is_stmt 1 view .LVU133
 517              		.loc 1 319 3 view .LVU134
 518              		.loc 1 319 13 is_stmt 0 view .LVU135
 519 0058 3343     		orrs	r3, r3, r6
 520              	.LVL49:
 521              		.loc 1 327 6 view .LVU136
 522 005a A842     		cmp	r0, r5
 523              		.loc 1 319 13 view .LVU137
 524 005c 0360     		str	r3, [r0]
 525              		.loc 1 322 3 is_stmt 1 view .LVU138
 526              		.loc 1 322 13 is_stmt 0 view .LVU139
 527 005e C462     		str	r4, [r0, #44]
 528              		.loc 1 325 3 is_stmt 1 view .LVU140
 529              		.loc 1 325 13 is_stmt 0 view .LVU141
 530 0060 8262     		str	r2, [r0, #40]
 531              		.loc 1 327 3 is_stmt 1 view .LVU142
 532              		.loc 1 327 6 is_stmt 0 view .LVU143
 533 0062 0CD1     		bne	.L39
 534              	.L41:
 535              		.loc 1 330 5 is_stmt 1 view .LVU144
 536              		.loc 1 330 39 is_stmt 0 view .LVU145
 537 0064 8B7A     		ldrb	r3, [r1, #10]	@ zero_extendqisi2
 538              		.loc 1 330 15 view .LVU146
 539 0066 0363     		str	r3, [r0, #48]
 540              		.loc 1 335 3 is_stmt 1 view .LVU147
 541              		.loc 1 335 13 is_stmt 0 view .LVU148
 542 0068 0123     		movs	r3, #1
 543 006a 4361     		str	r3, [r0, #20]
 544              		.loc 1 336 1 view .LVU149
 545 006c 70BC     		pop	{r4, r5, r6}
 546              		.cfi_remember_state
 547              		.cfi_restore 6
 548              		.cfi_restore 5
 549              		.cfi_restore 4
 550              		.cfi_def_cfa_offset 0
 551 006e 7047     		bx	lr
 552              	.LVL50:
 553              	.L38:
 554              		.cfi_restore_state
 555              		.loc 1 319 3 is_stmt 1 view .LVU150
 556              		.loc 1 319 13 is_stmt 0 view .LVU151
 557 0070 0360     		str	r3, [r0]
 558              		.loc 1 322 3 is_stmt 1 view .LVU152
 559              		.loc 1 322 13 is_stmt 0 view .LVU153
 560 0072 C462     		str	r4, [r0, #44]
 561              		.loc 1 325 3 is_stmt 1 view .LVU154
 562              		.loc 1 325 13 is_stmt 0 view .LVU155
 563 0074 8262     		str	r2, [r0, #40]
 564              		.loc 1 327 3 is_stmt 1 view .LVU156
 565              	.LVL51:
 566              	.L40:
 567              		.loc 1 335 3 view .LVU157
 568              		.loc 1 335 13 is_stmt 0 view .LVU158
 569 0076 0123     		movs	r3, #1
 570 0078 4361     		str	r3, [r0, #20]
ARM GAS  C:\Users\USER\AppData\Local\Temp\ccNdlOSb.s 			page 11


 571              		.loc 1 336 1 view .LVU159
 572 007a 70BC     		pop	{r4, r5, r6}
 573              		.cfi_remember_state
 574              		.cfi_restore 6
 575              		.cfi_restore 5
 576              		.cfi_restore 4
 577              		.cfi_def_cfa_offset 0
 578 007c 7047     		bx	lr
 579              	.L39:
 580              		.cfi_restore_state
 581              		.loc 1 327 22 discriminator 1 view .LVU160
 582 007e 044B     		ldr	r3, .L47+8
 583 0080 9842     		cmp	r0, r3
 584 0082 EFD0     		beq	.L41
 585 0084 F7E7     		b	.L40
 586              	.L48:
 587 0086 00BF     		.align	2
 588              	.L47:
 589 0088 00000140 		.word	1073807360
 590 008c 00100040 		.word	1073745920
 591 0090 00040140 		.word	1073808384
 592              		.cfi_endproc
 593              	.LFE113:
 594              		.size	TIM_TimeBaseInit, .-TIM_TimeBaseInit
 595              		.section	.text.TIM_TimeBaseStructInit,"ax",%progbits
 596              		.align	1
 597              		.p2align 4,,15
 598              		.global	TIM_TimeBaseStructInit
 599              		.syntax unified
 600              		.thumb
 601              		.thumb_func
 602              		.fpu fpv4-sp-d16
 603              		.type	TIM_TimeBaseStructInit, %function
 604              	TIM_TimeBaseStructInit:
 605              	.LVL52:
 606              	.LFB114:
 607              		.loc 1 345 1 is_stmt 1 view -0
 608              		.cfi_startproc
 609              		@ args = 0, pretend = 0, frame = 0
 610              		@ frame_needed = 0, uses_anonymous_args = 0
 611              		@ link register save eliminated.
 612              		.loc 1 347 3 view .LVU162
 613              		.loc 1 348 3 view .LVU163
 614              		.loc 1 349 3 view .LVU164
 615              		.loc 1 350 3 view .LVU165
 616              		.loc 1 351 3 view .LVU166
 617              		.loc 1 348 41 is_stmt 0 view .LVU167
 618 0000 0023     		movs	r3, #0
 619 0002 4FF0FF32 		mov	r2, #-1
 620 0006 C0E90032 		strd	r3, r2, [r0]
 621              		.loc 1 349 45 view .LVU168
 622 000a 0381     		strh	r3, [r0, #8]	@ movhi
 623              		.loc 1 351 49 view .LVU169
 624 000c 8372     		strb	r3, [r0, #10]
 625              		.loc 1 352 1 view .LVU170
 626 000e 7047     		bx	lr
 627              		.cfi_endproc
ARM GAS  C:\Users\USER\AppData\Local\Temp\ccNdlOSb.s 			page 12


 628              	.LFE114:
 629              		.size	TIM_TimeBaseStructInit, .-TIM_TimeBaseStructInit
 630              		.section	.text.TIM_PrescalerConfig,"ax",%progbits
 631              		.align	1
 632              		.p2align 4,,15
 633              		.global	TIM_PrescalerConfig
 634              		.syntax unified
 635              		.thumb
 636              		.thumb_func
 637              		.fpu fpv4-sp-d16
 638              		.type	TIM_PrescalerConfig, %function
 639              	TIM_PrescalerConfig:
 640              	.LVL53:
 641              	.LFB115:
 642              		.loc 1 365 1 is_stmt 1 view -0
 643              		.cfi_startproc
 644              		@ args = 0, pretend = 0, frame = 0
 645              		@ frame_needed = 0, uses_anonymous_args = 0
 646              		@ link register save eliminated.
 647              		.loc 1 367 3 view .LVU172
 648              		.loc 1 368 3 view .LVU173
 649              		.loc 1 370 3 view .LVU174
 650              		.loc 1 370 13 is_stmt 0 view .LVU175
 651 0000 8162     		str	r1, [r0, #40]
 652              		.loc 1 372 3 is_stmt 1 view .LVU176
 653              		.loc 1 372 13 is_stmt 0 view .LVU177
 654 0002 4261     		str	r2, [r0, #20]
 655              		.loc 1 373 1 view .LVU178
 656 0004 7047     		bx	lr
 657              		.cfi_endproc
 658              	.LFE115:
 659              		.size	TIM_PrescalerConfig, .-TIM_PrescalerConfig
 660 0006 00BF     		.section	.text.TIM_CounterModeConfig,"ax",%progbits
 661              		.align	1
 662              		.p2align 4,,15
 663              		.global	TIM_CounterModeConfig
 664              		.syntax unified
 665              		.thumb
 666              		.thumb_func
 667              		.fpu fpv4-sp-d16
 668              		.type	TIM_CounterModeConfig, %function
 669              	TIM_CounterModeConfig:
 670              	.LVL54:
 671              	.LFB116:
 672              		.loc 1 388 1 is_stmt 1 view -0
 673              		.cfi_startproc
 674              		@ args = 0, pretend = 0, frame = 0
 675              		@ frame_needed = 0, uses_anonymous_args = 0
 676              		@ link register save eliminated.
 677              		.loc 1 389 3 view .LVU180
 678              		.loc 1 392 3 view .LVU181
 679              		.loc 1 393 3 view .LVU182
 680              		.loc 1 395 3 view .LVU183
 681              		.loc 1 395 16 is_stmt 0 view .LVU184
 682 0000 0268     		ldr	r2, [r0]
 683              	.LVL55:
 684              		.loc 1 398 3 is_stmt 1 view .LVU185
ARM GAS  C:\Users\USER\AppData\Local\Temp\ccNdlOSb.s 			page 13


 685              		.loc 1 398 10 is_stmt 0 view .LVU186
 686 0002 4FF68F73 		movw	r3, #65423
 687 0006 1340     		ands	r3, r3, r2
 688              	.LVL56:
 689              		.loc 1 401 3 is_stmt 1 view .LVU187
 690              		.loc 1 404 3 view .LVU188
 691              		.loc 1 404 13 is_stmt 0 view .LVU189
 692 0008 1943     		orrs	r1, r1, r3
 693              	.LVL57:
 694              		.loc 1 404 13 view .LVU190
 695 000a 0160     		str	r1, [r0]
 696              		.loc 1 405 1 view .LVU191
 697 000c 7047     		bx	lr
 698              		.cfi_endproc
 699              	.LFE116:
 700              		.size	TIM_CounterModeConfig, .-TIM_CounterModeConfig
 701 000e 00BF     		.section	.text.TIM_SetCounter,"ax",%progbits
 702              		.align	1
 703              		.p2align 4,,15
 704              		.global	TIM_SetCounter
 705              		.syntax unified
 706              		.thumb
 707              		.thumb_func
 708              		.fpu fpv4-sp-d16
 709              		.type	TIM_SetCounter, %function
 710              	TIM_SetCounter:
 711              	.LVL58:
 712              	.LFB117:
 713              		.loc 1 414 1 is_stmt 1 view -0
 714              		.cfi_startproc
 715              		@ args = 0, pretend = 0, frame = 0
 716              		@ frame_needed = 0, uses_anonymous_args = 0
 717              		@ link register save eliminated.
 718              		.loc 1 416 4 view .LVU193
 719              		.loc 1 419 3 view .LVU194
 720              		.loc 1 419 13 is_stmt 0 view .LVU195
 721 0000 4162     		str	r1, [r0, #36]
 722              		.loc 1 420 1 view .LVU196
 723 0002 7047     		bx	lr
 724              		.cfi_endproc
 725              	.LFE117:
 726              		.size	TIM_SetCounter, .-TIM_SetCounter
 727              		.section	.text.TIM_SetAutoreload,"ax",%progbits
 728              		.align	1
 729              		.p2align 4,,15
 730              		.global	TIM_SetAutoreload
 731              		.syntax unified
 732              		.thumb
 733              		.thumb_func
 734              		.fpu fpv4-sp-d16
 735              		.type	TIM_SetAutoreload, %function
 736              	TIM_SetAutoreload:
 737              	.LVL59:
 738              	.LFB118:
 739              		.loc 1 429 1 is_stmt 1 view -0
 740              		.cfi_startproc
 741              		@ args = 0, pretend = 0, frame = 0
ARM GAS  C:\Users\USER\AppData\Local\Temp\ccNdlOSb.s 			page 14


 742              		@ frame_needed = 0, uses_anonymous_args = 0
 743              		@ link register save eliminated.
 744              		.loc 1 431 3 view .LVU198
 745              		.loc 1 434 3 view .LVU199
 746              		.loc 1 434 13 is_stmt 0 view .LVU200
 747 0000 C162     		str	r1, [r0, #44]
 748              		.loc 1 435 1 view .LVU201
 749 0002 7047     		bx	lr
 750              		.cfi_endproc
 751              	.LFE118:
 752              		.size	TIM_SetAutoreload, .-TIM_SetAutoreload
 753              		.section	.text.TIM_GetCounter,"ax",%progbits
 754              		.align	1
 755              		.p2align 4,,15
 756              		.global	TIM_GetCounter
 757              		.syntax unified
 758              		.thumb
 759              		.thumb_func
 760              		.fpu fpv4-sp-d16
 761              		.type	TIM_GetCounter, %function
 762              	TIM_GetCounter:
 763              	.LVL60:
 764              	.LFB119:
 765              		.loc 1 443 1 is_stmt 1 view -0
 766              		.cfi_startproc
 767              		@ args = 0, pretend = 0, frame = 0
 768              		@ frame_needed = 0, uses_anonymous_args = 0
 769              		@ link register save eliminated.
 770              		.loc 1 445 3 view .LVU203
 771              		.loc 1 448 3 view .LVU204
 772              		.loc 1 448 14 is_stmt 0 view .LVU205
 773 0000 406A     		ldr	r0, [r0, #36]
 774              	.LVL61:
 775              		.loc 1 449 1 view .LVU206
 776 0002 7047     		bx	lr
 777              		.cfi_endproc
 778              	.LFE119:
 779              		.size	TIM_GetCounter, .-TIM_GetCounter
 780              		.section	.text.TIM_GetPrescaler,"ax",%progbits
 781              		.align	1
 782              		.p2align 4,,15
 783              		.global	TIM_GetPrescaler
 784              		.syntax unified
 785              		.thumb
 786              		.thumb_func
 787              		.fpu fpv4-sp-d16
 788              		.type	TIM_GetPrescaler, %function
 789              	TIM_GetPrescaler:
 790              	.LVL62:
 791              	.LFB120:
 792              		.loc 1 457 1 is_stmt 1 view -0
 793              		.cfi_startproc
 794              		@ args = 0, pretend = 0, frame = 0
 795              		@ frame_needed = 0, uses_anonymous_args = 0
 796              		@ link register save eliminated.
 797              		.loc 1 459 3 view .LVU208
 798              		.loc 1 462 3 view .LVU209
ARM GAS  C:\Users\USER\AppData\Local\Temp\ccNdlOSb.s 			page 15


 799              		.loc 1 462 14 is_stmt 0 view .LVU210
 800 0000 806A     		ldr	r0, [r0, #40]
 801              	.LVL63:
 802              		.loc 1 463 1 view .LVU211
 803 0002 80B2     		uxth	r0, r0
 804 0004 7047     		bx	lr
 805              		.cfi_endproc
 806              	.LFE120:
 807              		.size	TIM_GetPrescaler, .-TIM_GetPrescaler
 808 0006 00BF     		.section	.text.TIM_UpdateDisableConfig,"ax",%progbits
 809              		.align	1
 810              		.p2align 4,,15
 811              		.global	TIM_UpdateDisableConfig
 812              		.syntax unified
 813              		.thumb
 814              		.thumb_func
 815              		.fpu fpv4-sp-d16
 816              		.type	TIM_UpdateDisableConfig, %function
 817              	TIM_UpdateDisableConfig:
 818              	.LVL64:
 819              	.LFB121:
 820              		.loc 1 473 1 is_stmt 1 view -0
 821              		.cfi_startproc
 822              		@ args = 0, pretend = 0, frame = 0
 823              		@ frame_needed = 0, uses_anonymous_args = 0
 824              		@ link register save eliminated.
 825              		.loc 1 475 3 view .LVU213
 826              		.loc 1 476 3 view .LVU214
 827              		.loc 1 478 3 view .LVU215
 828              		.loc 1 481 15 is_stmt 0 view .LVU216
 829 0000 0368     		ldr	r3, [r0]
 830              		.loc 1 478 6 view .LVU217
 831 0002 19B1     		cbz	r1, .L57
 832              		.loc 1 481 5 is_stmt 1 view .LVU218
 833              		.loc 1 481 15 is_stmt 0 view .LVU219
 834 0004 43F00203 		orr	r3, r3, #2
 835 0008 0360     		str	r3, [r0]
 836 000a 7047     		bx	lr
 837              	.L57:
 838              		.loc 1 486 5 is_stmt 1 view .LVU220
 839              		.loc 1 486 15 is_stmt 0 view .LVU221
 840 000c 4FF6FD72 		movw	r2, #65533
 841 0010 1340     		ands	r3, r3, r2
 842 0012 0360     		str	r3, [r0]
 843              		.loc 1 488 1 view .LVU222
 844 0014 7047     		bx	lr
 845              		.cfi_endproc
 846              	.LFE121:
 847              		.size	TIM_UpdateDisableConfig, .-TIM_UpdateDisableConfig
 848 0016 00BF     		.section	.text.TIM_UpdateRequestConfig,"ax",%progbits
 849              		.align	1
 850              		.p2align 4,,15
 851              		.global	TIM_UpdateRequestConfig
 852              		.syntax unified
 853              		.thumb
 854              		.thumb_func
 855              		.fpu fpv4-sp-d16
ARM GAS  C:\Users\USER\AppData\Local\Temp\ccNdlOSb.s 			page 16


 856              		.type	TIM_UpdateRequestConfig, %function
 857              	TIM_UpdateRequestConfig:
 858              	.LVL65:
 859              	.LFB122:
 860              		.loc 1 502 1 is_stmt 1 view -0
 861              		.cfi_startproc
 862              		@ args = 0, pretend = 0, frame = 0
 863              		@ frame_needed = 0, uses_anonymous_args = 0
 864              		@ link register save eliminated.
 865              		.loc 1 504 3 view .LVU224
 866              		.loc 1 505 3 view .LVU225
 867              		.loc 1 507 3 view .LVU226
 868              		.loc 1 510 15 is_stmt 0 view .LVU227
 869 0000 0368     		ldr	r3, [r0]
 870              		.loc 1 507 6 view .LVU228
 871 0002 19B1     		cbz	r1, .L60
 872              		.loc 1 510 5 is_stmt 1 view .LVU229
 873              		.loc 1 510 15 is_stmt 0 view .LVU230
 874 0004 43F00403 		orr	r3, r3, #4
 875 0008 0360     		str	r3, [r0]
 876 000a 7047     		bx	lr
 877              	.L60:
 878              		.loc 1 515 5 is_stmt 1 view .LVU231
 879              		.loc 1 515 15 is_stmt 0 view .LVU232
 880 000c 4FF6FB72 		movw	r2, #65531
 881 0010 1340     		ands	r3, r3, r2
 882 0012 0360     		str	r3, [r0]
 883              		.loc 1 517 1 view .LVU233
 884 0014 7047     		bx	lr
 885              		.cfi_endproc
 886              	.LFE122:
 887              		.size	TIM_UpdateRequestConfig, .-TIM_UpdateRequestConfig
 888 0016 00BF     		.section	.text.TIM_ARRPreloadConfig,"ax",%progbits
 889              		.align	1
 890              		.p2align 4,,15
 891              		.global	TIM_ARRPreloadConfig
 892              		.syntax unified
 893              		.thumb
 894              		.thumb_func
 895              		.fpu fpv4-sp-d16
 896              		.type	TIM_ARRPreloadConfig, %function
 897              	TIM_ARRPreloadConfig:
 898              	.LVL66:
 899              	.LFB123:
 900              		.loc 1 527 1 is_stmt 1 view -0
 901              		.cfi_startproc
 902              		@ args = 0, pretend = 0, frame = 0
 903              		@ frame_needed = 0, uses_anonymous_args = 0
 904              		@ link register save eliminated.
 905              		.loc 1 529 3 view .LVU235
 906              		.loc 1 530 3 view .LVU236
 907              		.loc 1 532 3 view .LVU237
 908              		.loc 1 535 15 is_stmt 0 view .LVU238
 909 0000 0368     		ldr	r3, [r0]
 910              		.loc 1 532 6 view .LVU239
 911 0002 19B1     		cbz	r1, .L63
 912              		.loc 1 535 5 is_stmt 1 view .LVU240
ARM GAS  C:\Users\USER\AppData\Local\Temp\ccNdlOSb.s 			page 17


 913              		.loc 1 535 15 is_stmt 0 view .LVU241
 914 0004 43F08003 		orr	r3, r3, #128
 915 0008 0360     		str	r3, [r0]
 916 000a 7047     		bx	lr
 917              	.L63:
 918              		.loc 1 540 5 is_stmt 1 view .LVU242
 919              		.loc 1 540 15 is_stmt 0 view .LVU243
 920 000c 4FF67F72 		movw	r2, #65407
 921 0010 1340     		ands	r3, r3, r2
 922 0012 0360     		str	r3, [r0]
 923              		.loc 1 542 1 view .LVU244
 924 0014 7047     		bx	lr
 925              		.cfi_endproc
 926              	.LFE123:
 927              		.size	TIM_ARRPreloadConfig, .-TIM_ARRPreloadConfig
 928 0016 00BF     		.section	.text.TIM_SelectOnePulseMode,"ax",%progbits
 929              		.align	1
 930              		.p2align 4,,15
 931              		.global	TIM_SelectOnePulseMode
 932              		.syntax unified
 933              		.thumb
 934              		.thumb_func
 935              		.fpu fpv4-sp-d16
 936              		.type	TIM_SelectOnePulseMode, %function
 937              	TIM_SelectOnePulseMode:
 938              	.LVL67:
 939              	.LFB124:
 940              		.loc 1 554 1 is_stmt 1 view -0
 941              		.cfi_startproc
 942              		@ args = 0, pretend = 0, frame = 0
 943              		@ frame_needed = 0, uses_anonymous_args = 0
 944              		@ link register save eliminated.
 945              		.loc 1 556 3 view .LVU246
 946              		.loc 1 557 3 view .LVU247
 947              		.loc 1 560 3 view .LVU248
 948              		.loc 1 560 13 is_stmt 0 view .LVU249
 949 0000 0368     		ldr	r3, [r0]
 950 0002 4FF6F772 		movw	r2, #65527
 951 0006 1340     		ands	r3, r3, r2
 952 0008 0360     		str	r3, [r0]
 953              		.loc 1 563 3 is_stmt 1 view .LVU250
 954              		.loc 1 563 13 is_stmt 0 view .LVU251
 955 000a 0368     		ldr	r3, [r0]
 956 000c 1943     		orrs	r1, r1, r3
 957              	.LVL68:
 958              		.loc 1 563 13 view .LVU252
 959 000e 0160     		str	r1, [r0]
 960              		.loc 1 564 1 view .LVU253
 961 0010 7047     		bx	lr
 962              		.cfi_endproc
 963              	.LFE124:
 964              		.size	TIM_SelectOnePulseMode, .-TIM_SelectOnePulseMode
 965 0012 00BF     		.section	.text.TIM_SetClockDivision,"ax",%progbits
 966              		.align	1
 967              		.p2align 4,,15
 968              		.global	TIM_SetClockDivision
 969              		.syntax unified
ARM GAS  C:\Users\USER\AppData\Local\Temp\ccNdlOSb.s 			page 18


 970              		.thumb
 971              		.thumb_func
 972              		.fpu fpv4-sp-d16
 973              		.type	TIM_SetClockDivision, %function
 974              	TIM_SetClockDivision:
 975              	.LVL69:
 976              	.LFB125:
 977              		.loc 1 577 1 is_stmt 1 view -0
 978              		.cfi_startproc
 979              		@ args = 0, pretend = 0, frame = 0
 980              		@ frame_needed = 0, uses_anonymous_args = 0
 981              		@ link register save eliminated.
 982              		.loc 1 579 3 view .LVU255
 983              		.loc 1 580 3 view .LVU256
 984              		.loc 1 583 3 view .LVU257
 985              		.loc 1 583 13 is_stmt 0 view .LVU258
 986 0000 0368     		ldr	r3, [r0]
 987 0002 4FF6FF42 		movw	r2, #64767
 988 0006 1340     		ands	r3, r3, r2
 989 0008 0360     		str	r3, [r0]
 990              		.loc 1 586 3 is_stmt 1 view .LVU259
 991              		.loc 1 586 13 is_stmt 0 view .LVU260
 992 000a 0368     		ldr	r3, [r0]
 993 000c 1943     		orrs	r1, r1, r3
 994              	.LVL70:
 995              		.loc 1 586 13 view .LVU261
 996 000e 0160     		str	r1, [r0]
 997              		.loc 1 587 1 view .LVU262
 998 0010 7047     		bx	lr
 999              		.cfi_endproc
 1000              	.LFE125:
 1001              		.size	TIM_SetClockDivision, .-TIM_SetClockDivision
 1002 0012 00BF     		.section	.text.TIM_Cmd,"ax",%progbits
 1003              		.align	1
 1004              		.p2align 4,,15
 1005              		.global	TIM_Cmd
 1006              		.syntax unified
 1007              		.thumb
 1008              		.thumb_func
 1009              		.fpu fpv4-sp-d16
 1010              		.type	TIM_Cmd, %function
 1011              	TIM_Cmd:
 1012              	.LVL71:
 1013              	.LFB126:
 1014              		.loc 1 597 1 is_stmt 1 view -0
 1015              		.cfi_startproc
 1016              		@ args = 0, pretend = 0, frame = 0
 1017              		@ frame_needed = 0, uses_anonymous_args = 0
 1018              		@ link register save eliminated.
 1019              		.loc 1 599 3 view .LVU264
 1020              		.loc 1 600 3 view .LVU265
 1021              		.loc 1 602 3 view .LVU266
 1022              		.loc 1 605 15 is_stmt 0 view .LVU267
 1023 0000 0368     		ldr	r3, [r0]
 1024              		.loc 1 602 6 view .LVU268
 1025 0002 19B1     		cbz	r1, .L68
 1026              		.loc 1 605 5 is_stmt 1 view .LVU269
ARM GAS  C:\Users\USER\AppData\Local\Temp\ccNdlOSb.s 			page 19


 1027              		.loc 1 605 15 is_stmt 0 view .LVU270
 1028 0004 43F00103 		orr	r3, r3, #1
 1029 0008 0360     		str	r3, [r0]
 1030 000a 7047     		bx	lr
 1031              	.L68:
 1032              		.loc 1 610 5 is_stmt 1 view .LVU271
 1033              		.loc 1 610 15 is_stmt 0 view .LVU272
 1034 000c 4FF6FE72 		movw	r2, #65534
 1035 0010 1340     		ands	r3, r3, r2
 1036 0012 0360     		str	r3, [r0]
 1037              		.loc 1 612 1 view .LVU273
 1038 0014 7047     		bx	lr
 1039              		.cfi_endproc
 1040              	.LFE126:
 1041              		.size	TIM_Cmd, .-TIM_Cmd
 1042 0016 00BF     		.section	.text.TIM_OC1Init,"ax",%progbits
 1043              		.align	1
 1044              		.p2align 4,,15
 1045              		.global	TIM_OC1Init
 1046              		.syntax unified
 1047              		.thumb
 1048              		.thumb_func
 1049              		.fpu fpv4-sp-d16
 1050              		.type	TIM_OC1Init, %function
 1051              	TIM_OC1Init:
 1052              	.LVL72:
 1053              	.LFB127:
 1054              		.loc 1 678 1 is_stmt 1 view -0
 1055              		.cfi_startproc
 1056              		@ args = 0, pretend = 0, frame = 0
 1057              		@ frame_needed = 0, uses_anonymous_args = 0
 1058              		@ link register save eliminated.
 1059              		.loc 1 679 3 view .LVU275
 1060              		.loc 1 682 3 view .LVU276
 1061              		.loc 1 683 3 view .LVU277
 1062              		.loc 1 684 3 view .LVU278
 1063              		.loc 1 685 3 view .LVU279
 1064              		.loc 1 688 3 view .LVU280
 1065              		.loc 1 688 14 is_stmt 0 view .LVU281
 1066 0000 036A     		ldr	r3, [r0, #32]
 1067 0002 4FF6FE72 		movw	r2, #65534
 1068 0006 1340     		ands	r3, r3, r2
 1069 0008 0362     		str	r3, [r0, #32]
 1070              		.loc 1 691 3 is_stmt 1 view .LVU282
 1071              		.loc 1 678 1 is_stmt 0 view .LVU283
 1072 000a F0B4     		push	{r4, r5, r6, r7}
 1073              		.cfi_def_cfa_offset 16
 1074              		.cfi_offset 4, -16
 1075              		.cfi_offset 5, -12
 1076              		.cfi_offset 6, -8
 1077              		.cfi_offset 7, -4
 1078              		.loc 1 691 17 view .LVU284
 1079 000c D0F820C0 		ldr	ip, [r0, #32]
 1080              	.LVL73:
 1081              		.loc 1 693 3 is_stmt 1 view .LVU285
 1082              		.loc 1 710 11 is_stmt 0 view .LVU286
 1083 0010 8A89     		ldrh	r2, [r1, #12]
ARM GAS  C:\Users\USER\AppData\Local\Temp\ccNdlOSb.s 			page 20


 1084 0012 4F88     		ldrh	r7, [r1, #2]
 1085              		.loc 1 693 17 view .LVU287
 1086 0014 4368     		ldr	r3, [r0, #4]
 1087              		.loc 1 696 18 view .LVU288
 1088 0016 8569     		ldr	r5, [r0, #24]
 1089              		.loc 1 712 5 view .LVU289
 1090 0018 144E     		ldr	r6, .L74
 1091              		.loc 1 705 11 view .LVU290
 1092 001a 4FF6FD74 		movw	r4, #65533
 1093              		.loc 1 710 11 view .LVU291
 1094 001e 3A43     		orrs	r2, r2, r7
 1095              		.loc 1 705 11 view .LVU292
 1096 0020 0CEA0404 		and	r4, ip, r4
 1097              		.loc 1 710 11 view .LVU293
 1098 0024 1443     		orrs	r4, r4, r2
 1099              		.loc 1 700 12 view .LVU294
 1100 0026 4FF68C72 		movw	r2, #65420
 1101 002a 2A40     		ands	r2, r2, r5
 1102              		.loc 1 702 12 view .LVU295
 1103 002c 0D88     		ldrh	r5, [r1]
 1104              		.loc 1 712 5 view .LVU296
 1105 002e B042     		cmp	r0, r6
 1106              		.loc 1 693 10 view .LVU297
 1107 0030 9BB2     		uxth	r3, r3
 1108              	.LVL74:
 1109              		.loc 1 696 3 is_stmt 1 view .LVU298
 1110              		.loc 1 699 3 view .LVU299
 1111              		.loc 1 700 3 view .LVU300
 1112              		.loc 1 702 3 view .LVU301
 1113              		.loc 1 702 12 is_stmt 0 view .LVU302
 1114 0032 42EA0502 		orr	r2, r2, r5
 1115              	.LVL75:
 1116              		.loc 1 705 3 is_stmt 1 view .LVU303
 1117              		.loc 1 707 3 view .LVU304
 1118              		.loc 1 710 3 view .LVU305
 1119              		.loc 1 712 3 view .LVU306
 1120              		.loc 1 712 5 is_stmt 0 view .LVU307
 1121 0036 0AD0     		beq	.L71
 1122              		.loc 1 712 21 discriminator 1 view .LVU308
 1123 0038 06F58066 		add	r6, r6, #1024
 1124 003c B042     		cmp	r0, r6
 1125 003e 06D0     		beq	.L71
 1126              	.L72:
 1127              		.loc 1 737 3 is_stmt 1 view .LVU309
 1128              		.loc 1 743 32 is_stmt 0 view .LVU310
 1129 0040 8968     		ldr	r1, [r1, #8]
 1130              	.LVL76:
 1131              		.loc 1 737 13 view .LVU311
 1132 0042 4360     		str	r3, [r0, #4]
 1133              		.loc 1 740 3 is_stmt 1 view .LVU312
 1134              		.loc 1 740 15 is_stmt 0 view .LVU313
 1135 0044 8261     		str	r2, [r0, #24]
 1136              		.loc 1 743 3 is_stmt 1 view .LVU314
 1137              		.loc 1 743 14 is_stmt 0 view .LVU315
 1138 0046 4163     		str	r1, [r0, #52]
 1139              		.loc 1 746 3 is_stmt 1 view .LVU316
 1140              		.loc 1 746 14 is_stmt 0 view .LVU317
ARM GAS  C:\Users\USER\AppData\Local\Temp\ccNdlOSb.s 			page 21


 1141 0048 0462     		str	r4, [r0, #32]
 1142              		.loc 1 747 1 view .LVU318
 1143 004a F0BC     		pop	{r4, r5, r6, r7}
 1144              		.cfi_remember_state
 1145              		.cfi_restore 7
 1146              		.cfi_restore 6
 1147              		.cfi_restore 5
 1148              		.cfi_restore 4
 1149              		.cfi_def_cfa_offset 0
 1150              	.LVL77:
 1151              		.loc 1 747 1 view .LVU319
 1152 004c 7047     		bx	lr
 1153              	.LVL78:
 1154              	.L71:
 1155              		.cfi_restore_state
 1156              		.loc 1 714 5 is_stmt 1 view .LVU320
 1157              		.loc 1 715 5 view .LVU321
 1158              		.loc 1 716 5 view .LVU322
 1159              		.loc 1 717 5 view .LVU323
 1160              		.loc 1 720 5 view .LVU324
 1161              		.loc 1 722 13 is_stmt 0 view .LVU325
 1162 004e CE89     		ldrh	r6, [r1, #14]
 1163              		.loc 1 734 12 view .LVU326
 1164 0050 0D8A     		ldrh	r5, [r1, #16]
 1165 0052 4F8A     		ldrh	r7, [r1, #18]
 1166              		.loc 1 720 13 view .LVU327
 1167 0054 24F00804 		bic	r4, r4, #8
 1168              	.LVL79:
 1169              		.loc 1 722 5 is_stmt 1 view .LVU328
 1170              		.loc 1 722 13 is_stmt 0 view .LVU329
 1171 0058 3443     		orrs	r4, r4, r6
 1172              	.LVL80:
 1173              		.loc 1 724 5 is_stmt 1 view .LVU330
 1174              		.loc 1 727 13 is_stmt 0 view .LVU331
 1175 005a 8E88     		ldrh	r6, [r1, #4]
 1176              		.loc 1 730 12 view .LVU332
 1177 005c 23F44073 		bic	r3, r3, #768
 1178              	.LVL81:
 1179              		.loc 1 724 13 view .LVU333
 1180 0060 24F00404 		bic	r4, r4, #4
 1181              	.LVL82:
 1182              		.loc 1 727 5 is_stmt 1 view .LVU334
 1183              		.loc 1 734 12 is_stmt 0 view .LVU335
 1184 0064 3D43     		orrs	r5, r5, r7
 1185              		.loc 1 727 13 view .LVU336
 1186 0066 3443     		orrs	r4, r4, r6
 1187              	.LVL83:
 1188              		.loc 1 729 5 is_stmt 1 view .LVU337
 1189              		.loc 1 730 5 view .LVU338
 1190              		.loc 1 732 5 view .LVU339
 1191              		.loc 1 734 5 view .LVU340
 1192              		.loc 1 734 12 is_stmt 0 view .LVU341
 1193 0068 2B43     		orrs	r3, r3, r5
 1194              	.LVL84:
 1195              		.loc 1 734 12 view .LVU342
 1196 006a E9E7     		b	.L72
 1197              	.L75:
ARM GAS  C:\Users\USER\AppData\Local\Temp\ccNdlOSb.s 			page 22


 1198              		.align	2
 1199              	.L74:
 1200 006c 00000140 		.word	1073807360
 1201              		.cfi_endproc
 1202              	.LFE127:
 1203              		.size	TIM_OC1Init, .-TIM_OC1Init
 1204              		.section	.text.TIM_OC2Init,"ax",%progbits
 1205              		.align	1
 1206              		.p2align 4,,15
 1207              		.global	TIM_OC2Init
 1208              		.syntax unified
 1209              		.thumb
 1210              		.thumb_func
 1211              		.fpu fpv4-sp-d16
 1212              		.type	TIM_OC2Init, %function
 1213              	TIM_OC2Init:
 1214              	.LVL85:
 1215              	.LFB128:
 1216              		.loc 1 759 1 is_stmt 1 view -0
 1217              		.cfi_startproc
 1218              		@ args = 0, pretend = 0, frame = 0
 1219              		@ frame_needed = 0, uses_anonymous_args = 0
 1220              		@ link register save eliminated.
 1221              		.loc 1 760 3 view .LVU344
 1222              		.loc 1 763 3 view .LVU345
 1223              		.loc 1 764 3 view .LVU346
 1224              		.loc 1 765 3 view .LVU347
 1225              		.loc 1 766 3 view .LVU348
 1226              		.loc 1 769 3 view .LVU349
 1227              		.loc 1 769 14 is_stmt 0 view .LVU350
 1228 0000 036A     		ldr	r3, [r0, #32]
 1229 0002 4FF6EF72 		movw	r2, #65519
 1230 0006 1340     		ands	r3, r3, r2
 1231 0008 0362     		str	r3, [r0, #32]
 1232              		.loc 1 772 3 is_stmt 1 view .LVU351
 1233              		.loc 1 759 1 is_stmt 0 view .LVU352
 1234 000a F0B4     		push	{r4, r5, r6, r7}
 1235              		.cfi_def_cfa_offset 16
 1236              		.cfi_offset 4, -16
 1237              		.cfi_offset 5, -12
 1238              		.cfi_offset 6, -8
 1239              		.cfi_offset 7, -4
 1240              		.loc 1 772 17 view .LVU353
 1241 000c D0F820C0 		ldr	ip, [r0, #32]
 1242              	.LVL86:
 1243              		.loc 1 774 3 is_stmt 1 view .LVU354
 1244              		.loc 1 789 14 is_stmt 0 view .LVU355
 1245 0010 8A89     		ldrh	r2, [r1, #12]
 1246              		.loc 1 792 14 view .LVU356
 1247 0012 4F88     		ldrh	r7, [r1, #2]
 1248              		.loc 1 774 17 view .LVU357
 1249 0014 4468     		ldr	r4, [r0, #4]
 1250              		.loc 1 777 18 view .LVU358
 1251 0016 8669     		ldr	r6, [r0, #24]
 1252              		.loc 1 794 5 view .LVU359
 1253 0018 194D     		ldr	r5, .L80
 1254              		.loc 1 787 11 view .LVU360
ARM GAS  C:\Users\USER\AppData\Local\Temp\ccNdlOSb.s 			page 23


 1255 001a 4FF6DF73 		movw	r3, #65503
 1256              		.loc 1 792 11 view .LVU361
 1257 001e 3A43     		orrs	r2, r2, r7
 1258              		.loc 1 787 11 view .LVU362
 1259 0020 0CEA0303 		and	r3, ip, r3
 1260              		.loc 1 792 11 view .LVU363
 1261 0024 43EA0213 		orr	r3, r3, r2, lsl #4
 1262              		.loc 1 781 12 view .LVU364
 1263 0028 48F6FF42 		movw	r2, #36095
 1264 002c 3240     		ands	r2, r2, r6
 1265              		.loc 1 784 15 view .LVU365
 1266 002e 0E88     		ldrh	r6, [r1]
 1267              		.loc 1 794 5 view .LVU366
 1268 0030 A842     		cmp	r0, r5
 1269              		.loc 1 784 12 view .LVU367
 1270 0032 42EA0622 		orr	r2, r2, r6, lsl #8
 1271              		.loc 1 792 11 view .LVU368
 1272 0036 9BB2     		uxth	r3, r3
 1273              		.loc 1 774 10 view .LVU369
 1274 0038 A4B2     		uxth	r4, r4
 1275              	.LVL87:
 1276              		.loc 1 777 3 is_stmt 1 view .LVU370
 1277              		.loc 1 780 3 view .LVU371
 1278              		.loc 1 781 3 view .LVU372
 1279              		.loc 1 784 3 view .LVU373
 1280              		.loc 1 784 12 is_stmt 0 view .LVU374
 1281 003a 92B2     		uxth	r2, r2
 1282              	.LVL88:
 1283              		.loc 1 787 3 is_stmt 1 view .LVU375
 1284              		.loc 1 789 3 view .LVU376
 1285              		.loc 1 792 3 view .LVU377
 1286              		.loc 1 794 3 view .LVU378
 1287              		.loc 1 794 5 is_stmt 0 view .LVU379
 1288 003c 0AD0     		beq	.L77
 1289              		.loc 1 794 21 discriminator 1 view .LVU380
 1290 003e 05F58065 		add	r5, r5, #1024
 1291 0042 A842     		cmp	r0, r5
 1292 0044 06D0     		beq	.L77
 1293              	.L78:
 1294              		.loc 1 819 3 is_stmt 1 view .LVU381
 1295              		.loc 1 825 32 is_stmt 0 view .LVU382
 1296 0046 8968     		ldr	r1, [r1, #8]
 1297              	.LVL89:
 1298              		.loc 1 819 13 view .LVU383
 1299 0048 4460     		str	r4, [r0, #4]
 1300              		.loc 1 822 3 is_stmt 1 view .LVU384
 1301              		.loc 1 822 15 is_stmt 0 view .LVU385
 1302 004a 8261     		str	r2, [r0, #24]
 1303              		.loc 1 825 3 is_stmt 1 view .LVU386
 1304              		.loc 1 829 1 is_stmt 0 view .LVU387
 1305 004c F0BC     		pop	{r4, r5, r6, r7}
 1306              		.cfi_remember_state
 1307              		.cfi_restore 7
 1308              		.cfi_restore 6
 1309              		.cfi_restore 5
 1310              		.cfi_restore 4
 1311              		.cfi_def_cfa_offset 0
ARM GAS  C:\Users\USER\AppData\Local\Temp\ccNdlOSb.s 			page 24


 1312              	.LVL90:
 1313              		.loc 1 825 14 view .LVU388
 1314 004e 8163     		str	r1, [r0, #56]
 1315              		.loc 1 828 3 is_stmt 1 view .LVU389
 1316              		.loc 1 828 14 is_stmt 0 view .LVU390
 1317 0050 0362     		str	r3, [r0, #32]
 1318              		.loc 1 829 1 view .LVU391
 1319 0052 7047     		bx	lr
 1320              	.LVL91:
 1321              	.L77:
 1322              		.cfi_restore_state
 1323              		.loc 1 796 5 is_stmt 1 view .LVU392
 1324              		.loc 1 797 5 view .LVU393
 1325              		.loc 1 798 5 view .LVU394
 1326              		.loc 1 799 5 view .LVU395
 1327              		.loc 1 802 5 view .LVU396
 1328              		.loc 1 804 16 is_stmt 0 view .LVU397
 1329 0054 CD89     		ldrh	r5, [r1, #14]
 1330              		.loc 1 814 15 view .LVU398
 1331 0056 0E8A     		ldrh	r6, [r1, #16]
 1332              		.loc 1 816 15 view .LVU399
 1333 0058 4F8A     		ldrh	r7, [r1, #18]
 1334              		.loc 1 802 13 view .LVU400
 1335 005a 23F08003 		bic	r3, r3, #128
 1336              	.LVL92:
 1337              		.loc 1 804 5 is_stmt 1 view .LVU401
 1338              		.loc 1 804 13 is_stmt 0 view .LVU402
 1339 005e 43EA0513 		orr	r3, r3, r5, lsl #4
 1340              	.LVL93:
 1341              		.loc 1 806 5 is_stmt 1 view .LVU403
 1342              		.loc 1 806 13 is_stmt 0 view .LVU404
 1343 0062 4FF6BF75 		movw	r5, #65471
 1344 0066 1D40     		ands	r5, r5, r3
 1345              	.LVL94:
 1346              		.loc 1 809 5 is_stmt 1 view .LVU405
 1347              		.loc 1 809 16 is_stmt 0 view .LVU406
 1348 0068 8B88     		ldrh	r3, [r1, #4]
 1349              		.loc 1 812 12 view .LVU407
 1350 006a 24F44064 		bic	r4, r4, #3072
 1351              	.LVL95:
 1352              		.loc 1 816 12 view .LVU408
 1353 006e 3E43     		orrs	r6, r6, r7
 1354              		.loc 1 809 13 view .LVU409
 1355 0070 45EA0313 		orr	r3, r5, r3, lsl #4
 1356              		.loc 1 816 12 view .LVU410
 1357 0074 44EA8604 		orr	r4, r4, r6, lsl #2
 1358              		.loc 1 809 13 view .LVU411
 1359 0078 9BB2     		uxth	r3, r3
 1360              	.LVL96:
 1361              		.loc 1 811 5 is_stmt 1 view .LVU412
 1362              		.loc 1 812 5 view .LVU413
 1363              		.loc 1 814 5 view .LVU414
 1364              		.loc 1 816 5 view .LVU415
 1365              		.loc 1 816 12 is_stmt 0 view .LVU416
 1366 007a A4B2     		uxth	r4, r4
 1367              	.LVL97:
 1368              		.loc 1 816 12 view .LVU417
ARM GAS  C:\Users\USER\AppData\Local\Temp\ccNdlOSb.s 			page 25


 1369 007c E3E7     		b	.L78
 1370              	.L81:
 1371 007e 00BF     		.align	2
 1372              	.L80:
 1373 0080 00000140 		.word	1073807360
 1374              		.cfi_endproc
 1375              	.LFE128:
 1376              		.size	TIM_OC2Init, .-TIM_OC2Init
 1377              		.section	.text.TIM_OC3Init,"ax",%progbits
 1378              		.align	1
 1379              		.p2align 4,,15
 1380              		.global	TIM_OC3Init
 1381              		.syntax unified
 1382              		.thumb
 1383              		.thumb_func
 1384              		.fpu fpv4-sp-d16
 1385              		.type	TIM_OC3Init, %function
 1386              	TIM_OC3Init:
 1387              	.LVL98:
 1388              	.LFB129:
 1389              		.loc 1 840 1 is_stmt 1 view -0
 1390              		.cfi_startproc
 1391              		@ args = 0, pretend = 0, frame = 0
 1392              		@ frame_needed = 0, uses_anonymous_args = 0
 1393              		@ link register save eliminated.
 1394              		.loc 1 841 3 view .LVU419
 1395              		.loc 1 844 3 view .LVU420
 1396              		.loc 1 845 3 view .LVU421
 1397              		.loc 1 846 3 view .LVU422
 1398              		.loc 1 847 3 view .LVU423
 1399              		.loc 1 850 3 view .LVU424
 1400              		.loc 1 850 14 is_stmt 0 view .LVU425
 1401 0000 036A     		ldr	r3, [r0, #32]
 1402 0002 4FF6FF62 		movw	r2, #65279
 1403 0006 1340     		ands	r3, r3, r2
 1404 0008 0362     		str	r3, [r0, #32]
 1405              		.loc 1 853 3 is_stmt 1 view .LVU426
 1406              		.loc 1 840 1 is_stmt 0 view .LVU427
 1407 000a F0B4     		push	{r4, r5, r6, r7}
 1408              		.cfi_def_cfa_offset 16
 1409              		.cfi_offset 4, -16
 1410              		.cfi_offset 5, -12
 1411              		.cfi_offset 6, -8
 1412              		.cfi_offset 7, -4
 1413              		.loc 1 872 14 view .LVU428
 1414 000c 4A88     		ldrh	r2, [r1, #2]
 1415              		.loc 1 853 17 view .LVU429
 1416 000e 076A     		ldr	r7, [r0, #32]
 1417              	.LVL99:
 1418              		.loc 1 855 3 is_stmt 1 view .LVU430
 1419              		.loc 1 869 14 is_stmt 0 view .LVU431
 1420 0010 8C89     		ldrh	r4, [r1, #12]
 1421              		.loc 1 855 17 view .LVU432
 1422 0012 4568     		ldr	r5, [r0, #4]
 1423              		.loc 1 874 5 view .LVU433
 1424 0014 194E     		ldr	r6, .L86
 1425              		.loc 1 858 18 view .LVU434
ARM GAS  C:\Users\USER\AppData\Local\Temp\ccNdlOSb.s 			page 26


 1426 0016 D0F81CC0 		ldr	ip, [r0, #28]
 1427              		.loc 1 867 11 view .LVU435
 1428 001a 4FF6FF53 		movw	r3, #65023
 1429 001e 3B40     		ands	r3, r3, r7
 1430              		.loc 1 872 11 view .LVU436
 1431 0020 1443     		orrs	r4, r4, r2
 1432              		.loc 1 864 12 view .LVU437
 1433 0022 0F88     		ldrh	r7, [r1]
 1434              	.LVL100:
 1435              		.loc 1 862 12 view .LVU438
 1436 0024 4FF68C72 		movw	r2, #65420
 1437              		.loc 1 872 11 view .LVU439
 1438 0028 43EA0423 		orr	r3, r3, r4, lsl #8
 1439              		.loc 1 862 12 view .LVU440
 1440 002c 0CEA0202 		and	r2, ip, r2
 1441              		.loc 1 874 5 view .LVU441
 1442 0030 B042     		cmp	r0, r6
 1443              		.loc 1 872 11 view .LVU442
 1444 0032 9BB2     		uxth	r3, r3
 1445              		.loc 1 855 10 view .LVU443
 1446 0034 ADB2     		uxth	r5, r5
 1447              	.LVL101:
 1448              		.loc 1 858 3 is_stmt 1 view .LVU444
 1449              		.loc 1 861 3 view .LVU445
 1450              		.loc 1 862 3 view .LVU446
 1451              		.loc 1 864 3 view .LVU447
 1452              		.loc 1 864 12 is_stmt 0 view .LVU448
 1453 0036 42EA0702 		orr	r2, r2, r7
 1454              	.LVL102:
 1455              		.loc 1 867 3 is_stmt 1 view .LVU449
 1456              		.loc 1 869 3 view .LVU450
 1457              		.loc 1 872 3 view .LVU451
 1458              		.loc 1 874 3 view .LVU452
 1459              		.loc 1 874 5 is_stmt 0 view .LVU453
 1460 003a 09D0     		beq	.L83
 1461              		.loc 1 874 21 discriminator 1 view .LVU454
 1462 003c 104C     		ldr	r4, .L86+4
 1463 003e A042     		cmp	r0, r4
 1464 0040 06D0     		beq	.L83
 1465              	.L84:
 1466              		.loc 1 899 3 is_stmt 1 view .LVU455
 1467              		.loc 1 905 32 is_stmt 0 view .LVU456
 1468 0042 8968     		ldr	r1, [r1, #8]
 1469              	.LVL103:
 1470              		.loc 1 899 13 view .LVU457
 1471 0044 4560     		str	r5, [r0, #4]
 1472              		.loc 1 902 3 is_stmt 1 view .LVU458
 1473              		.loc 1 902 15 is_stmt 0 view .LVU459
 1474 0046 C261     		str	r2, [r0, #28]
 1475              		.loc 1 905 3 is_stmt 1 view .LVU460
 1476              		.loc 1 909 1 is_stmt 0 view .LVU461
 1477 0048 F0BC     		pop	{r4, r5, r6, r7}
 1478              		.cfi_remember_state
 1479              		.cfi_restore 7
 1480              		.cfi_restore 6
 1481              		.cfi_restore 5
 1482              		.cfi_restore 4
ARM GAS  C:\Users\USER\AppData\Local\Temp\ccNdlOSb.s 			page 27


 1483              		.cfi_def_cfa_offset 0
 1484              	.LVL104:
 1485              		.loc 1 905 14 view .LVU462
 1486 004a C163     		str	r1, [r0, #60]
 1487              		.loc 1 908 3 is_stmt 1 view .LVU463
 1488              		.loc 1 908 14 is_stmt 0 view .LVU464
 1489 004c 0362     		str	r3, [r0, #32]
 1490              		.loc 1 909 1 view .LVU465
 1491 004e 7047     		bx	lr
 1492              	.LVL105:
 1493              	.L83:
 1494              		.cfi_restore_state
 1495              		.loc 1 876 5 is_stmt 1 view .LVU466
 1496              		.loc 1 877 5 view .LVU467
 1497              		.loc 1 878 5 view .LVU468
 1498              		.loc 1 879 5 view .LVU469
 1499              		.loc 1 882 5 view .LVU470
 1500              		.loc 1 884 16 is_stmt 0 view .LVU471
 1501 0050 CC89     		ldrh	r4, [r1, #14]
 1502              		.loc 1 894 15 view .LVU472
 1503 0052 0E8A     		ldrh	r6, [r1, #16]
 1504              		.loc 1 896 15 view .LVU473
 1505 0054 4F8A     		ldrh	r7, [r1, #18]
 1506              		.loc 1 882 13 view .LVU474
 1507 0056 23F40063 		bic	r3, r3, #2048
 1508              	.LVL106:
 1509              		.loc 1 884 5 is_stmt 1 view .LVU475
 1510              		.loc 1 884 13 is_stmt 0 view .LVU476
 1511 005a 43EA0423 		orr	r3, r3, r4, lsl #8
 1512              	.LVL107:
 1513              		.loc 1 886 5 is_stmt 1 view .LVU477
 1514              		.loc 1 886 13 is_stmt 0 view .LVU478
 1515 005e 4FF6FF34 		movw	r4, #64511
 1516 0062 1C40     		ands	r4, r4, r3
 1517              	.LVL108:
 1518              		.loc 1 889 5 is_stmt 1 view .LVU479
 1519              		.loc 1 889 16 is_stmt 0 view .LVU480
 1520 0064 8B88     		ldrh	r3, [r1, #4]
 1521              		.loc 1 892 12 view .LVU481
 1522 0066 25F44055 		bic	r5, r5, #12288
 1523              	.LVL109:
 1524              		.loc 1 896 12 view .LVU482
 1525 006a 3E43     		orrs	r6, r6, r7
 1526              		.loc 1 889 13 view .LVU483
 1527 006c 44EA0323 		orr	r3, r4, r3, lsl #8
 1528              		.loc 1 896 12 view .LVU484
 1529 0070 45EA0614 		orr	r4, r5, r6, lsl #4
 1530              	.LVL110:
 1531              		.loc 1 889 13 view .LVU485
 1532 0074 9BB2     		uxth	r3, r3
 1533              	.LVL111:
 1534              		.loc 1 891 5 is_stmt 1 view .LVU486
 1535              		.loc 1 892 5 view .LVU487
 1536              		.loc 1 894 5 view .LVU488
 1537              		.loc 1 896 5 view .LVU489
 1538              		.loc 1 896 12 is_stmt 0 view .LVU490
 1539 0076 A5B2     		uxth	r5, r4
ARM GAS  C:\Users\USER\AppData\Local\Temp\ccNdlOSb.s 			page 28


 1540              	.LVL112:
 1541              		.loc 1 896 12 view .LVU491
 1542 0078 E3E7     		b	.L84
 1543              	.L87:
 1544 007a 00BF     		.align	2
 1545              	.L86:
 1546 007c 00000140 		.word	1073807360
 1547 0080 00040140 		.word	1073808384
 1548              		.cfi_endproc
 1549              	.LFE129:
 1550              		.size	TIM_OC3Init, .-TIM_OC3Init
 1551              		.section	.text.TIM_OC4Init,"ax",%progbits
 1552              		.align	1
 1553              		.p2align 4,,15
 1554              		.global	TIM_OC4Init
 1555              		.syntax unified
 1556              		.thumb
 1557              		.thumb_func
 1558              		.fpu fpv4-sp-d16
 1559              		.type	TIM_OC4Init, %function
 1560              	TIM_OC4Init:
 1561              	.LVL113:
 1562              	.LFB130:
 1563              		.loc 1 920 1 is_stmt 1 view -0
 1564              		.cfi_startproc
 1565              		@ args = 0, pretend = 0, frame = 0
 1566              		@ frame_needed = 0, uses_anonymous_args = 0
 1567              		@ link register save eliminated.
 1568              		.loc 1 921 3 view .LVU493
 1569              		.loc 1 924 3 view .LVU494
 1570              		.loc 1 925 3 view .LVU495
 1571              		.loc 1 926 3 view .LVU496
 1572              		.loc 1 927 3 view .LVU497
 1573              		.loc 1 930 3 view .LVU498
 1574              		.loc 1 930 14 is_stmt 0 view .LVU499
 1575 0000 036A     		ldr	r3, [r0, #32]
 1576 0002 4EF6FF72 		movw	r2, #61439
 1577 0006 1340     		ands	r3, r3, r2
 1578 0008 0362     		str	r3, [r0, #32]
 1579              		.loc 1 933 3 is_stmt 1 view .LVU500
 1580              		.loc 1 920 1 is_stmt 0 view .LVU501
 1581 000a F0B4     		push	{r4, r5, r6, r7}
 1582              		.cfi_def_cfa_offset 16
 1583              		.cfi_offset 4, -16
 1584              		.cfi_offset 5, -12
 1585              		.cfi_offset 6, -8
 1586              		.cfi_offset 7, -4
 1587              		.loc 1 933 17 view .LVU502
 1588 000c D0F820C0 		ldr	ip, [r0, #32]
 1589              	.LVL114:
 1590              		.loc 1 935 3 is_stmt 1 view .LVU503
 1591              		.loc 1 950 14 is_stmt 0 view .LVU504
 1592 0010 8A89     		ldrh	r2, [r1, #12]
 1593              		.loc 1 953 14 view .LVU505
 1594 0012 4F88     		ldrh	r7, [r1, #2]
 1595              		.loc 1 935 17 view .LVU506
 1596 0014 4468     		ldr	r4, [r0, #4]
ARM GAS  C:\Users\USER\AppData\Local\Temp\ccNdlOSb.s 			page 29


 1597              		.loc 1 938 18 view .LVU507
 1598 0016 C669     		ldr	r6, [r0, #28]
 1599              		.loc 1 955 5 view .LVU508
 1600 0018 124D     		ldr	r5, .L92
 1601              		.loc 1 948 11 view .LVU509
 1602 001a 4DF6FF73 		movw	r3, #57343
 1603              		.loc 1 953 11 view .LVU510
 1604 001e 3A43     		orrs	r2, r2, r7
 1605              		.loc 1 948 11 view .LVU511
 1606 0020 0CEA0303 		and	r3, ip, r3
 1607              		.loc 1 953 11 view .LVU512
 1608 0024 43EA0233 		orr	r3, r3, r2, lsl #12
 1609              		.loc 1 942 12 view .LVU513
 1610 0028 48F6FF42 		movw	r2, #36095
 1611 002c 3240     		ands	r2, r2, r6
 1612              		.loc 1 945 15 view .LVU514
 1613 002e 0E88     		ldrh	r6, [r1]
 1614              		.loc 1 955 5 view .LVU515
 1615 0030 A842     		cmp	r0, r5
 1616              		.loc 1 945 12 view .LVU516
 1617 0032 42EA0622 		orr	r2, r2, r6, lsl #8
 1618              		.loc 1 953 11 view .LVU517
 1619 0036 9BB2     		uxth	r3, r3
 1620              		.loc 1 935 10 view .LVU518
 1621 0038 A4B2     		uxth	r4, r4
 1622              	.LVL115:
 1623              		.loc 1 938 3 is_stmt 1 view .LVU519
 1624              		.loc 1 941 3 view .LVU520
 1625              		.loc 1 942 3 view .LVU521
 1626              		.loc 1 945 3 view .LVU522
 1627              		.loc 1 945 12 is_stmt 0 view .LVU523
 1628 003a 92B2     		uxth	r2, r2
 1629              	.LVL116:
 1630              		.loc 1 948 3 is_stmt 1 view .LVU524
 1631              		.loc 1 950 3 view .LVU525
 1632              		.loc 1 953 3 view .LVU526
 1633              		.loc 1 955 3 view .LVU527
 1634              		.loc 1 955 5 is_stmt 0 view .LVU528
 1635 003c 0AD0     		beq	.L89
 1636              		.loc 1 955 21 discriminator 1 view .LVU529
 1637 003e 05F58065 		add	r5, r5, #1024
 1638 0042 A842     		cmp	r0, r5
 1639 0044 06D0     		beq	.L89
 1640              	.L90:
 1641              		.loc 1 964 3 is_stmt 1 view .LVU530
 1642              		.loc 1 970 32 is_stmt 0 view .LVU531
 1643 0046 8968     		ldr	r1, [r1, #8]
 1644              	.LVL117:
 1645              		.loc 1 964 13 view .LVU532
 1646 0048 4460     		str	r4, [r0, #4]
 1647              		.loc 1 967 3 is_stmt 1 view .LVU533
 1648              		.loc 1 967 15 is_stmt 0 view .LVU534
 1649 004a C261     		str	r2, [r0, #28]
 1650              		.loc 1 970 3 is_stmt 1 view .LVU535
 1651              		.loc 1 974 1 is_stmt 0 view .LVU536
 1652 004c F0BC     		pop	{r4, r5, r6, r7}
 1653              		.cfi_remember_state
ARM GAS  C:\Users\USER\AppData\Local\Temp\ccNdlOSb.s 			page 30


 1654              		.cfi_restore 7
 1655              		.cfi_restore 6
 1656              		.cfi_restore 5
 1657              		.cfi_restore 4
 1658              		.cfi_def_cfa_offset 0
 1659              	.LVL118:
 1660              		.loc 1 970 14 view .LVU537
 1661 004e 0164     		str	r1, [r0, #64]
 1662              		.loc 1 973 3 is_stmt 1 view .LVU538
 1663              		.loc 1 973 14 is_stmt 0 view .LVU539
 1664 0050 0362     		str	r3, [r0, #32]
 1665              		.loc 1 974 1 view .LVU540
 1666 0052 7047     		bx	lr
 1667              	.LVL119:
 1668              	.L89:
 1669              		.cfi_restore_state
 1670              		.loc 1 957 5 is_stmt 1 view .LVU541
 1671              		.loc 1 959 5 view .LVU542
 1672              		.loc 1 961 15 is_stmt 0 view .LVU543
 1673 0054 0D8A     		ldrh	r5, [r1, #16]
 1674              		.loc 1 959 12 view .LVU544
 1675 0056 24F48044 		bic	r4, r4, #16384
 1676              	.LVL120:
 1677              		.loc 1 961 5 is_stmt 1 view .LVU545
 1678              		.loc 1 961 12 is_stmt 0 view .LVU546
 1679 005a 44EA8514 		orr	r4, r4, r5, lsl #6
 1680              	.LVL121:
 1681              		.loc 1 961 12 view .LVU547
 1682 005e A4B2     		uxth	r4, r4
 1683              	.LVL122:
 1684              		.loc 1 961 12 view .LVU548
 1685 0060 F1E7     		b	.L90
 1686              	.L93:
 1687 0062 00BF     		.align	2
 1688              	.L92:
 1689 0064 00000140 		.word	1073807360
 1690              		.cfi_endproc
 1691              	.LFE130:
 1692              		.size	TIM_OC4Init, .-TIM_OC4Init
 1693              		.section	.text.TIM_OCStructInit,"ax",%progbits
 1694              		.align	1
 1695              		.p2align 4,,15
 1696              		.global	TIM_OCStructInit
 1697              		.syntax unified
 1698              		.thumb
 1699              		.thumb_func
 1700              		.fpu fpv4-sp-d16
 1701              		.type	TIM_OCStructInit, %function
 1702              	TIM_OCStructInit:
 1703              	.LVL123:
 1704              	.LFB131:
 1705              		.loc 1 983 1 is_stmt 1 view -0
 1706              		.cfi_startproc
 1707              		@ args = 0, pretend = 0, frame = 0
 1708              		@ frame_needed = 0, uses_anonymous_args = 0
 1709              		@ link register save eliminated.
 1710              		.loc 1 985 3 view .LVU550
ARM GAS  C:\Users\USER\AppData\Local\Temp\ccNdlOSb.s 			page 31


 1711              		.loc 1 986 3 view .LVU551
 1712              		.loc 1 987 3 view .LVU552
 1713              		.loc 1 985 32 is_stmt 0 view .LVU553
 1714 0000 0023     		movs	r3, #0
 1715 0002 0360     		str	r3, [r0]
 1716              		.loc 1 987 38 view .LVU554
 1717 0004 8380     		strh	r3, [r0, #4]	@ movhi
 1718              		.loc 1 988 3 is_stmt 1 view .LVU555
 1719              		.loc 1 989 3 view .LVU556
 1720              		.loc 1 990 3 view .LVU557
 1721              		.loc 1 991 3 view .LVU558
 1722              		.loc 1 992 3 view .LVU559
 1723              		.loc 1 989 36 is_stmt 0 view .LVU560
 1724 0006 C0E90233 		strd	r3, r3, [r0, #8]
 1725              		.loc 1 991 37 view .LVU561
 1726 000a 0361     		str	r3, [r0, #16]
 1727              		.loc 1 993 1 view .LVU562
 1728 000c 7047     		bx	lr
 1729              		.cfi_endproc
 1730              	.LFE131:
 1731              		.size	TIM_OCStructInit, .-TIM_OCStructInit
 1732 000e 00BF     		.section	.text.TIM_SelectOCxM,"ax",%progbits
 1733              		.align	1
 1734              		.p2align 4,,15
 1735              		.global	TIM_SelectOCxM
 1736              		.syntax unified
 1737              		.thumb
 1738              		.thumb_func
 1739              		.fpu fpv4-sp-d16
 1740              		.type	TIM_SelectOCxM, %function
 1741              	TIM_SelectOCxM:
 1742              	.LVL124:
 1743              	.LFB132:
 1744              		.loc 1 1019 1 is_stmt 1 view -0
 1745              		.cfi_startproc
 1746              		@ args = 0, pretend = 0, frame = 0
 1747              		@ frame_needed = 0, uses_anonymous_args = 0
 1748              		@ link register save eliminated.
 1749              		.loc 1 1020 3 view .LVU564
 1750              		.loc 1 1021 3 view .LVU565
 1751              		.loc 1 1024 3 view .LVU566
 1752              		.loc 1 1025 3 view .LVU567
 1753              		.loc 1 1026 3 view .LVU568
 1754              		.loc 1 1028 3 view .LVU569
 1755              		.loc 1 1029 3 view .LVU570
 1756              		.loc 1 1031 23 is_stmt 0 view .LVU571
 1757 0000 0123     		movs	r3, #1
 1758 0002 8B40     		lsls	r3, r3, r1
 1759              		.loc 1 1019 1 view .LVU572
 1760 0004 10B4     		push	{r4}
 1761              		.cfi_def_cfa_offset 4
 1762              		.cfi_offset 4, -4
 1763              		.loc 1 1034 17 view .LVU573
 1764 0006 DB43     		mvns	r3, r3
 1765              		.loc 1 1034 14 view .LVU574
 1766 0008 046A     		ldr	r4, [r0, #32]
 1767              		.loc 1 1034 17 view .LVU575
ARM GAS  C:\Users\USER\AppData\Local\Temp\ccNdlOSb.s 			page 32


 1768 000a 9BB2     		uxth	r3, r3
 1769              		.loc 1 1034 14 view .LVU576
 1770 000c 2340     		ands	r3, r3, r4
 1771              		.loc 1 1036 5 view .LVU577
 1772 000e 21F00804 		bic	r4, r1, #8
 1773              		.loc 1 1034 14 view .LVU578
 1774 0012 0362     		str	r3, [r0, #32]
 1775              		.loc 1 1029 7 view .LVU579
 1776 0014 1830     		adds	r0, r0, #24
 1777              	.LVL125:
 1778              		.loc 1 1031 3 is_stmt 1 view .LVU580
 1779              		.loc 1 1034 3 view .LVU581
 1780              		.loc 1 1036 3 view .LVU582
 1781              		.loc 1 1036 5 is_stmt 0 view .LVU583
 1782 0016 7CB1     		cbz	r4, .L99
 1783              		.loc 1 1048 5 is_stmt 1 view .LVU584
 1784              	.LVL126:
 1785              		.loc 1 1051 5 view .LVU585
 1786              		.loc 1 1048 12 is_stmt 0 view .LVU586
 1787 0018 0439     		subs	r1, r1, #4
 1788              	.LVL127:
 1789              		.loc 1 1048 49 view .LVU587
 1790 001a C1F34E01 		ubfx	r1, r1, #1, #15
 1791              		.loc 1 1051 28 view .LVU588
 1792 001e 48F6FF74 		movw	r4, #36863
 1793 0022 0B58     		ldr	r3, [r1, r0]
 1794 0024 2340     		ands	r3, r3, r4
 1795 0026 0B50     		str	r3, [r1, r0]
 1796              		.loc 1 1054 5 is_stmt 1 view .LVU589
 1797              		.loc 1 1054 31 is_stmt 0 view .LVU590
 1798 0028 1202     		lsls	r2, r2, #8
 1799              	.LVL128:
 1800              		.loc 1 1054 28 view .LVU591
 1801 002a 0B58     		ldr	r3, [r1, r0]
 1802              		.loc 1 1056 1 view .LVU592
 1803 002c 5DF8044B 		ldr	r4, [sp], #4
 1804              		.cfi_remember_state
 1805              		.cfi_restore 4
 1806              		.cfi_def_cfa_offset 0
 1807              		.loc 1 1054 31 view .LVU593
 1808 0030 92B2     		uxth	r2, r2
 1809              		.loc 1 1054 28 view .LVU594
 1810 0032 1A43     		orrs	r2, r2, r3
 1811 0034 0A50     		str	r2, [r1, r0]
 1812              		.loc 1 1056 1 view .LVU595
 1813 0036 7047     		bx	lr
 1814              	.LVL129:
 1815              	.L99:
 1816              		.cfi_restore_state
 1817              		.loc 1 1038 5 is_stmt 1 view .LVU596
 1818              		.loc 1 1041 5 view .LVU597
 1819              		.loc 1 1038 24 is_stmt 0 view .LVU598
 1820 0038 4908     		lsrs	r1, r1, #1
 1821              	.LVL130:
 1822              		.loc 1 1041 28 view .LVU599
 1823 003a 4FF68F74 		movw	r4, #65423
 1824 003e 0B58     		ldr	r3, [r1, r0]
ARM GAS  C:\Users\USER\AppData\Local\Temp\ccNdlOSb.s 			page 33


 1825 0040 2340     		ands	r3, r3, r4
 1826 0042 0B50     		str	r3, [r1, r0]
 1827              		.loc 1 1044 5 is_stmt 1 view .LVU600
 1828              		.loc 1 1044 28 is_stmt 0 view .LVU601
 1829 0044 0B58     		ldr	r3, [r1, r0]
 1830              		.loc 1 1056 1 view .LVU602
 1831 0046 5DF8044B 		ldr	r4, [sp], #4
 1832              		.cfi_restore 4
 1833              		.cfi_def_cfa_offset 0
 1834              		.loc 1 1044 28 view .LVU603
 1835 004a 1A43     		orrs	r2, r2, r3
 1836              	.LVL131:
 1837              		.loc 1 1044 28 view .LVU604
 1838 004c 0A50     		str	r2, [r1, r0]
 1839              		.loc 1 1056 1 view .LVU605
 1840 004e 7047     		bx	lr
 1841              		.cfi_endproc
 1842              	.LFE132:
 1843              		.size	TIM_SelectOCxM, .-TIM_SelectOCxM
 1844              		.section	.text.TIM_SetCompare1,"ax",%progbits
 1845              		.align	1
 1846              		.p2align 4,,15
 1847              		.global	TIM_SetCompare1
 1848              		.syntax unified
 1849              		.thumb
 1850              		.thumb_func
 1851              		.fpu fpv4-sp-d16
 1852              		.type	TIM_SetCompare1, %function
 1853              	TIM_SetCompare1:
 1854              	.LVL132:
 1855              	.LFB133:
 1856              		.loc 1 1065 1 is_stmt 1 view -0
 1857              		.cfi_startproc
 1858              		@ args = 0, pretend = 0, frame = 0
 1859              		@ frame_needed = 0, uses_anonymous_args = 0
 1860              		@ link register save eliminated.
 1861              		.loc 1 1067 3 view .LVU607
 1862              		.loc 1 1070 3 view .LVU608
 1863              		.loc 1 1070 14 is_stmt 0 view .LVU609
 1864 0000 4163     		str	r1, [r0, #52]
 1865              		.loc 1 1071 1 view .LVU610
 1866 0002 7047     		bx	lr
 1867              		.cfi_endproc
 1868              	.LFE133:
 1869              		.size	TIM_SetCompare1, .-TIM_SetCompare1
 1870              		.section	.text.TIM_SetCompare2,"ax",%progbits
 1871              		.align	1
 1872              		.p2align 4,,15
 1873              		.global	TIM_SetCompare2
 1874              		.syntax unified
 1875              		.thumb
 1876              		.thumb_func
 1877              		.fpu fpv4-sp-d16
 1878              		.type	TIM_SetCompare2, %function
 1879              	TIM_SetCompare2:
 1880              	.LVL133:
 1881              	.LFB134:
ARM GAS  C:\Users\USER\AppData\Local\Temp\ccNdlOSb.s 			page 34


 1882              		.loc 1 1081 1 is_stmt 1 view -0
 1883              		.cfi_startproc
 1884              		@ args = 0, pretend = 0, frame = 0
 1885              		@ frame_needed = 0, uses_anonymous_args = 0
 1886              		@ link register save eliminated.
 1887              		.loc 1 1083 3 view .LVU612
 1888              		.loc 1 1086 3 view .LVU613
 1889              		.loc 1 1086 14 is_stmt 0 view .LVU614
 1890 0000 8163     		str	r1, [r0, #56]
 1891              		.loc 1 1087 1 view .LVU615
 1892 0002 7047     		bx	lr
 1893              		.cfi_endproc
 1894              	.LFE134:
 1895              		.size	TIM_SetCompare2, .-TIM_SetCompare2
 1896              		.section	.text.TIM_SetCompare3,"ax",%progbits
 1897              		.align	1
 1898              		.p2align 4,,15
 1899              		.global	TIM_SetCompare3
 1900              		.syntax unified
 1901              		.thumb
 1902              		.thumb_func
 1903              		.fpu fpv4-sp-d16
 1904              		.type	TIM_SetCompare3, %function
 1905              	TIM_SetCompare3:
 1906              	.LVL134:
 1907              	.LFB135:
 1908              		.loc 1 1096 1 is_stmt 1 view -0
 1909              		.cfi_startproc
 1910              		@ args = 0, pretend = 0, frame = 0
 1911              		@ frame_needed = 0, uses_anonymous_args = 0
 1912              		@ link register save eliminated.
 1913              		.loc 1 1098 3 view .LVU617
 1914              		.loc 1 1101 3 view .LVU618
 1915              		.loc 1 1101 14 is_stmt 0 view .LVU619
 1916 0000 C163     		str	r1, [r0, #60]
 1917              		.loc 1 1102 1 view .LVU620
 1918 0002 7047     		bx	lr
 1919              		.cfi_endproc
 1920              	.LFE135:
 1921              		.size	TIM_SetCompare3, .-TIM_SetCompare3
 1922              		.section	.text.TIM_SetCompare4,"ax",%progbits
 1923              		.align	1
 1924              		.p2align 4,,15
 1925              		.global	TIM_SetCompare4
 1926              		.syntax unified
 1927              		.thumb
 1928              		.thumb_func
 1929              		.fpu fpv4-sp-d16
 1930              		.type	TIM_SetCompare4, %function
 1931              	TIM_SetCompare4:
 1932              	.LVL135:
 1933              	.LFB136:
 1934              		.loc 1 1111 1 is_stmt 1 view -0
 1935              		.cfi_startproc
 1936              		@ args = 0, pretend = 0, frame = 0
 1937              		@ frame_needed = 0, uses_anonymous_args = 0
 1938              		@ link register save eliminated.
ARM GAS  C:\Users\USER\AppData\Local\Temp\ccNdlOSb.s 			page 35


 1939              		.loc 1 1113 3 view .LVU622
 1940              		.loc 1 1116 3 view .LVU623
 1941              		.loc 1 1116 14 is_stmt 0 view .LVU624
 1942 0000 0164     		str	r1, [r0, #64]
 1943              		.loc 1 1117 1 view .LVU625
 1944 0002 7047     		bx	lr
 1945              		.cfi_endproc
 1946              	.LFE136:
 1947              		.size	TIM_SetCompare4, .-TIM_SetCompare4
 1948              		.section	.text.TIM_ForcedOC1Config,"ax",%progbits
 1949              		.align	1
 1950              		.p2align 4,,15
 1951              		.global	TIM_ForcedOC1Config
 1952              		.syntax unified
 1953              		.thumb
 1954              		.thumb_func
 1955              		.fpu fpv4-sp-d16
 1956              		.type	TIM_ForcedOC1Config, %function
 1957              	TIM_ForcedOC1Config:
 1958              	.LVL136:
 1959              	.LFB137:
 1960              		.loc 1 1129 1 is_stmt 1 view -0
 1961              		.cfi_startproc
 1962              		@ args = 0, pretend = 0, frame = 0
 1963              		@ frame_needed = 0, uses_anonymous_args = 0
 1964              		@ link register save eliminated.
 1965              		.loc 1 1130 3 view .LVU627
 1966              		.loc 1 1133 3 view .LVU628
 1967              		.loc 1 1134 3 view .LVU629
 1968              		.loc 1 1135 3 view .LVU630
 1969              		.loc 1 1135 18 is_stmt 0 view .LVU631
 1970 0000 8269     		ldr	r2, [r0, #24]
 1971              	.LVL137:
 1972              		.loc 1 1138 3 is_stmt 1 view .LVU632
 1973              		.loc 1 1138 12 is_stmt 0 view .LVU633
 1974 0002 4FF68F73 		movw	r3, #65423
 1975 0006 1340     		ands	r3, r3, r2
 1976              	.LVL138:
 1977              		.loc 1 1141 3 is_stmt 1 view .LVU634
 1978              		.loc 1 1144 3 view .LVU635
 1979              		.loc 1 1144 15 is_stmt 0 view .LVU636
 1980 0008 1943     		orrs	r1, r1, r3
 1981              	.LVL139:
 1982              		.loc 1 1144 15 view .LVU637
 1983 000a 8161     		str	r1, [r0, #24]
 1984              		.loc 1 1145 1 view .LVU638
 1985 000c 7047     		bx	lr
 1986              		.cfi_endproc
 1987              	.LFE137:
 1988              		.size	TIM_ForcedOC1Config, .-TIM_ForcedOC1Config
 1989 000e 00BF     		.section	.text.TIM_ForcedOC2Config,"ax",%progbits
 1990              		.align	1
 1991              		.p2align 4,,15
 1992              		.global	TIM_ForcedOC2Config
 1993              		.syntax unified
 1994              		.thumb
 1995              		.thumb_func
ARM GAS  C:\Users\USER\AppData\Local\Temp\ccNdlOSb.s 			page 36


 1996              		.fpu fpv4-sp-d16
 1997              		.type	TIM_ForcedOC2Config, %function
 1998              	TIM_ForcedOC2Config:
 1999              	.LVL140:
 2000              	.LFB138:
 2001              		.loc 1 1158 1 is_stmt 1 view -0
 2002              		.cfi_startproc
 2003              		@ args = 0, pretend = 0, frame = 0
 2004              		@ frame_needed = 0, uses_anonymous_args = 0
 2005              		@ link register save eliminated.
 2006              		.loc 1 1159 3 view .LVU640
 2007              		.loc 1 1162 3 view .LVU641
 2008              		.loc 1 1163 3 view .LVU642
 2009              		.loc 1 1164 3 view .LVU643
 2010              		.loc 1 1164 18 is_stmt 0 view .LVU644
 2011 0000 8269     		ldr	r2, [r0, #24]
 2012              	.LVL141:
 2013              		.loc 1 1167 3 is_stmt 1 view .LVU645
 2014              		.loc 1 1167 12 is_stmt 0 view .LVU646
 2015 0002 48F6FF73 		movw	r3, #36863
 2016 0006 1340     		ands	r3, r3, r2
 2017              	.LVL142:
 2018              		.loc 1 1170 3 is_stmt 1 view .LVU647
 2019              		.loc 1 1173 3 view .LVU648
 2020              		.loc 1 1170 12 is_stmt 0 view .LVU649
 2021 0008 43EA0121 		orr	r1, r3, r1, lsl #8
 2022              	.LVL143:
 2023              		.loc 1 1173 15 view .LVU650
 2024 000c 89B2     		uxth	r1, r1
 2025 000e 8161     		str	r1, [r0, #24]
 2026              		.loc 1 1174 1 view .LVU651
 2027 0010 7047     		bx	lr
 2028              		.cfi_endproc
 2029              	.LFE138:
 2030              		.size	TIM_ForcedOC2Config, .-TIM_ForcedOC2Config
 2031 0012 00BF     		.section	.text.TIM_ForcedOC3Config,"ax",%progbits
 2032              		.align	1
 2033              		.p2align 4,,15
 2034              		.global	TIM_ForcedOC3Config
 2035              		.syntax unified
 2036              		.thumb
 2037              		.thumb_func
 2038              		.fpu fpv4-sp-d16
 2039              		.type	TIM_ForcedOC3Config, %function
 2040              	TIM_ForcedOC3Config:
 2041              	.LVL144:
 2042              	.LFB139:
 2043              		.loc 1 1186 1 is_stmt 1 view -0
 2044              		.cfi_startproc
 2045              		@ args = 0, pretend = 0, frame = 0
 2046              		@ frame_needed = 0, uses_anonymous_args = 0
 2047              		@ link register save eliminated.
 2048              		.loc 1 1187 3 view .LVU653
 2049              		.loc 1 1190 3 view .LVU654
 2050              		.loc 1 1191 3 view .LVU655
 2051              		.loc 1 1193 3 view .LVU656
 2052              		.loc 1 1193 18 is_stmt 0 view .LVU657
ARM GAS  C:\Users\USER\AppData\Local\Temp\ccNdlOSb.s 			page 37


 2053 0000 C269     		ldr	r2, [r0, #28]
 2054              	.LVL145:
 2055              		.loc 1 1196 3 is_stmt 1 view .LVU658
 2056              		.loc 1 1196 12 is_stmt 0 view .LVU659
 2057 0002 4FF68F73 		movw	r3, #65423
 2058 0006 1340     		ands	r3, r3, r2
 2059              	.LVL146:
 2060              		.loc 1 1199 3 is_stmt 1 view .LVU660
 2061              		.loc 1 1202 3 view .LVU661
 2062              		.loc 1 1202 15 is_stmt 0 view .LVU662
 2063 0008 1943     		orrs	r1, r1, r3
 2064              	.LVL147:
 2065              		.loc 1 1202 15 view .LVU663
 2066 000a C161     		str	r1, [r0, #28]
 2067              		.loc 1 1203 1 view .LVU664
 2068 000c 7047     		bx	lr
 2069              		.cfi_endproc
 2070              	.LFE139:
 2071              		.size	TIM_ForcedOC3Config, .-TIM_ForcedOC3Config
 2072 000e 00BF     		.section	.text.TIM_ForcedOC4Config,"ax",%progbits
 2073              		.align	1
 2074              		.p2align 4,,15
 2075              		.global	TIM_ForcedOC4Config
 2076              		.syntax unified
 2077              		.thumb
 2078              		.thumb_func
 2079              		.fpu fpv4-sp-d16
 2080              		.type	TIM_ForcedOC4Config, %function
 2081              	TIM_ForcedOC4Config:
 2082              	.LVL148:
 2083              	.LFB140:
 2084              		.loc 1 1215 1 is_stmt 1 view -0
 2085              		.cfi_startproc
 2086              		@ args = 0, pretend = 0, frame = 0
 2087              		@ frame_needed = 0, uses_anonymous_args = 0
 2088              		@ link register save eliminated.
 2089              		.loc 1 1216 3 view .LVU666
 2090              		.loc 1 1219 3 view .LVU667
 2091              		.loc 1 1220 3 view .LVU668
 2092              		.loc 1 1221 3 view .LVU669
 2093              		.loc 1 1221 18 is_stmt 0 view .LVU670
 2094 0000 C269     		ldr	r2, [r0, #28]
 2095              	.LVL149:
 2096              		.loc 1 1224 3 is_stmt 1 view .LVU671
 2097              		.loc 1 1224 12 is_stmt 0 view .LVU672
 2098 0002 48F6FF73 		movw	r3, #36863
 2099 0006 1340     		ands	r3, r3, r2
 2100              	.LVL150:
 2101              		.loc 1 1227 3 is_stmt 1 view .LVU673
 2102              		.loc 1 1230 3 view .LVU674
 2103              		.loc 1 1227 12 is_stmt 0 view .LVU675
 2104 0008 43EA0121 		orr	r1, r3, r1, lsl #8
 2105              	.LVL151:
 2106              		.loc 1 1230 15 view .LVU676
 2107 000c 89B2     		uxth	r1, r1
 2108 000e C161     		str	r1, [r0, #28]
 2109              		.loc 1 1231 1 view .LVU677
ARM GAS  C:\Users\USER\AppData\Local\Temp\ccNdlOSb.s 			page 38


 2110 0010 7047     		bx	lr
 2111              		.cfi_endproc
 2112              	.LFE140:
 2113              		.size	TIM_ForcedOC4Config, .-TIM_ForcedOC4Config
 2114 0012 00BF     		.section	.text.TIM_OC1PreloadConfig,"ax",%progbits
 2115              		.align	1
 2116              		.p2align 4,,15
 2117              		.global	TIM_OC1PreloadConfig
 2118              		.syntax unified
 2119              		.thumb
 2120              		.thumb_func
 2121              		.fpu fpv4-sp-d16
 2122              		.type	TIM_OC1PreloadConfig, %function
 2123              	TIM_OC1PreloadConfig:
 2124              	.LVL152:
 2125              	.LFB141:
 2126              		.loc 1 1243 1 is_stmt 1 view -0
 2127              		.cfi_startproc
 2128              		@ args = 0, pretend = 0, frame = 0
 2129              		@ frame_needed = 0, uses_anonymous_args = 0
 2130              		@ link register save eliminated.
 2131              		.loc 1 1244 3 view .LVU679
 2132              		.loc 1 1247 3 view .LVU680
 2133              		.loc 1 1248 3 view .LVU681
 2134              		.loc 1 1250 3 view .LVU682
 2135              		.loc 1 1250 18 is_stmt 0 view .LVU683
 2136 0000 8269     		ldr	r2, [r0, #24]
 2137              	.LVL153:
 2138              		.loc 1 1253 3 is_stmt 1 view .LVU684
 2139              		.loc 1 1253 12 is_stmt 0 view .LVU685
 2140 0002 4FF6F773 		movw	r3, #65527
 2141 0006 1340     		ands	r3, r3, r2
 2142              	.LVL154:
 2143              		.loc 1 1256 3 is_stmt 1 view .LVU686
 2144              		.loc 1 1259 3 view .LVU687
 2145              		.loc 1 1259 15 is_stmt 0 view .LVU688
 2146 0008 1943     		orrs	r1, r1, r3
 2147              	.LVL155:
 2148              		.loc 1 1259 15 view .LVU689
 2149 000a 8161     		str	r1, [r0, #24]
 2150              		.loc 1 1260 1 view .LVU690
 2151 000c 7047     		bx	lr
 2152              		.cfi_endproc
 2153              	.LFE141:
 2154              		.size	TIM_OC1PreloadConfig, .-TIM_OC1PreloadConfig
 2155 000e 00BF     		.section	.text.TIM_OC2PreloadConfig,"ax",%progbits
 2156              		.align	1
 2157              		.p2align 4,,15
 2158              		.global	TIM_OC2PreloadConfig
 2159              		.syntax unified
 2160              		.thumb
 2161              		.thumb_func
 2162              		.fpu fpv4-sp-d16
 2163              		.type	TIM_OC2PreloadConfig, %function
 2164              	TIM_OC2PreloadConfig:
 2165              	.LVL156:
 2166              	.LFB142:
ARM GAS  C:\Users\USER\AppData\Local\Temp\ccNdlOSb.s 			page 39


 2167              		.loc 1 1273 1 is_stmt 1 view -0
 2168              		.cfi_startproc
 2169              		@ args = 0, pretend = 0, frame = 0
 2170              		@ frame_needed = 0, uses_anonymous_args = 0
 2171              		@ link register save eliminated.
 2172              		.loc 1 1274 3 view .LVU692
 2173              		.loc 1 1277 3 view .LVU693
 2174              		.loc 1 1278 3 view .LVU694
 2175              		.loc 1 1280 3 view .LVU695
 2176              		.loc 1 1280 18 is_stmt 0 view .LVU696
 2177 0000 8269     		ldr	r2, [r0, #24]
 2178              	.LVL157:
 2179              		.loc 1 1283 3 is_stmt 1 view .LVU697
 2180              		.loc 1 1283 12 is_stmt 0 view .LVU698
 2181 0002 4FF2FF73 		movw	r3, #63487
 2182 0006 1340     		ands	r3, r3, r2
 2183              	.LVL158:
 2184              		.loc 1 1286 3 is_stmt 1 view .LVU699
 2185              		.loc 1 1289 3 view .LVU700
 2186              		.loc 1 1286 12 is_stmt 0 view .LVU701
 2187 0008 43EA0121 		orr	r1, r3, r1, lsl #8
 2188              	.LVL159:
 2189              		.loc 1 1289 15 view .LVU702
 2190 000c 89B2     		uxth	r1, r1
 2191 000e 8161     		str	r1, [r0, #24]
 2192              		.loc 1 1290 1 view .LVU703
 2193 0010 7047     		bx	lr
 2194              		.cfi_endproc
 2195              	.LFE142:
 2196              		.size	TIM_OC2PreloadConfig, .-TIM_OC2PreloadConfig
 2197 0012 00BF     		.section	.text.TIM_OC3PreloadConfig,"ax",%progbits
 2198              		.align	1
 2199              		.p2align 4,,15
 2200              		.global	TIM_OC3PreloadConfig
 2201              		.syntax unified
 2202              		.thumb
 2203              		.thumb_func
 2204              		.fpu fpv4-sp-d16
 2205              		.type	TIM_OC3PreloadConfig, %function
 2206              	TIM_OC3PreloadConfig:
 2207              	.LVL160:
 2208              	.LFB143:
 2209              		.loc 1 1302 1 is_stmt 1 view -0
 2210              		.cfi_startproc
 2211              		@ args = 0, pretend = 0, frame = 0
 2212              		@ frame_needed = 0, uses_anonymous_args = 0
 2213              		@ link register save eliminated.
 2214              		.loc 1 1303 3 view .LVU705
 2215              		.loc 1 1306 3 view .LVU706
 2216              		.loc 1 1307 3 view .LVU707
 2217              		.loc 1 1309 3 view .LVU708
 2218              		.loc 1 1309 18 is_stmt 0 view .LVU709
 2219 0000 C269     		ldr	r2, [r0, #28]
 2220              	.LVL161:
 2221              		.loc 1 1312 3 is_stmt 1 view .LVU710
 2222              		.loc 1 1312 12 is_stmt 0 view .LVU711
 2223 0002 4FF6F773 		movw	r3, #65527
ARM GAS  C:\Users\USER\AppData\Local\Temp\ccNdlOSb.s 			page 40


 2224 0006 1340     		ands	r3, r3, r2
 2225              	.LVL162:
 2226              		.loc 1 1315 3 is_stmt 1 view .LVU712
 2227              		.loc 1 1318 3 view .LVU713
 2228              		.loc 1 1318 15 is_stmt 0 view .LVU714
 2229 0008 1943     		orrs	r1, r1, r3
 2230              	.LVL163:
 2231              		.loc 1 1318 15 view .LVU715
 2232 000a C161     		str	r1, [r0, #28]
 2233              		.loc 1 1319 1 view .LVU716
 2234 000c 7047     		bx	lr
 2235              		.cfi_endproc
 2236              	.LFE143:
 2237              		.size	TIM_OC3PreloadConfig, .-TIM_OC3PreloadConfig
 2238 000e 00BF     		.section	.text.TIM_OC4PreloadConfig,"ax",%progbits
 2239              		.align	1
 2240              		.p2align 4,,15
 2241              		.global	TIM_OC4PreloadConfig
 2242              		.syntax unified
 2243              		.thumb
 2244              		.thumb_func
 2245              		.fpu fpv4-sp-d16
 2246              		.type	TIM_OC4PreloadConfig, %function
 2247              	TIM_OC4PreloadConfig:
 2248              	.LVL164:
 2249              	.LFB144:
 2250              		.loc 1 1331 1 is_stmt 1 view -0
 2251              		.cfi_startproc
 2252              		@ args = 0, pretend = 0, frame = 0
 2253              		@ frame_needed = 0, uses_anonymous_args = 0
 2254              		@ link register save eliminated.
 2255              		.loc 1 1332 3 view .LVU718
 2256              		.loc 1 1335 3 view .LVU719
 2257              		.loc 1 1336 3 view .LVU720
 2258              		.loc 1 1338 3 view .LVU721
 2259              		.loc 1 1338 18 is_stmt 0 view .LVU722
 2260 0000 C269     		ldr	r2, [r0, #28]
 2261              	.LVL165:
 2262              		.loc 1 1341 3 is_stmt 1 view .LVU723
 2263              		.loc 1 1341 12 is_stmt 0 view .LVU724
 2264 0002 4FF2FF73 		movw	r3, #63487
 2265 0006 1340     		ands	r3, r3, r2
 2266              	.LVL166:
 2267              		.loc 1 1344 3 is_stmt 1 view .LVU725
 2268              		.loc 1 1347 3 view .LVU726
 2269              		.loc 1 1344 12 is_stmt 0 view .LVU727
 2270 0008 43EA0121 		orr	r1, r3, r1, lsl #8
 2271              	.LVL167:
 2272              		.loc 1 1347 15 view .LVU728
 2273 000c 89B2     		uxth	r1, r1
 2274 000e C161     		str	r1, [r0, #28]
 2275              		.loc 1 1348 1 view .LVU729
 2276 0010 7047     		bx	lr
 2277              		.cfi_endproc
 2278              	.LFE144:
 2279              		.size	TIM_OC4PreloadConfig, .-TIM_OC4PreloadConfig
 2280 0012 00BF     		.section	.text.TIM_OC1FastConfig,"ax",%progbits
ARM GAS  C:\Users\USER\AppData\Local\Temp\ccNdlOSb.s 			page 41


 2281              		.align	1
 2282              		.p2align 4,,15
 2283              		.global	TIM_OC1FastConfig
 2284              		.syntax unified
 2285              		.thumb
 2286              		.thumb_func
 2287              		.fpu fpv4-sp-d16
 2288              		.type	TIM_OC1FastConfig, %function
 2289              	TIM_OC1FastConfig:
 2290              	.LVL168:
 2291              	.LFB145:
 2292              		.loc 1 1360 1 is_stmt 1 view -0
 2293              		.cfi_startproc
 2294              		@ args = 0, pretend = 0, frame = 0
 2295              		@ frame_needed = 0, uses_anonymous_args = 0
 2296              		@ link register save eliminated.
 2297              		.loc 1 1361 3 view .LVU731
 2298              		.loc 1 1364 3 view .LVU732
 2299              		.loc 1 1365 3 view .LVU733
 2300              		.loc 1 1368 3 view .LVU734
 2301              		.loc 1 1368 18 is_stmt 0 view .LVU735
 2302 0000 8269     		ldr	r2, [r0, #24]
 2303              	.LVL169:
 2304              		.loc 1 1371 3 is_stmt 1 view .LVU736
 2305              		.loc 1 1371 12 is_stmt 0 view .LVU737
 2306 0002 4FF6FB73 		movw	r3, #65531
 2307 0006 1340     		ands	r3, r3, r2
 2308              	.LVL170:
 2309              		.loc 1 1374 3 is_stmt 1 view .LVU738
 2310              		.loc 1 1377 3 view .LVU739
 2311              		.loc 1 1377 15 is_stmt 0 view .LVU740
 2312 0008 1943     		orrs	r1, r1, r3
 2313              	.LVL171:
 2314              		.loc 1 1377 15 view .LVU741
 2315 000a 8161     		str	r1, [r0, #24]
 2316              		.loc 1 1378 1 view .LVU742
 2317 000c 7047     		bx	lr
 2318              		.cfi_endproc
 2319              	.LFE145:
 2320              		.size	TIM_OC1FastConfig, .-TIM_OC1FastConfig
 2321 000e 00BF     		.section	.text.TIM_OC2FastConfig,"ax",%progbits
 2322              		.align	1
 2323              		.p2align 4,,15
 2324              		.global	TIM_OC2FastConfig
 2325              		.syntax unified
 2326              		.thumb
 2327              		.thumb_func
 2328              		.fpu fpv4-sp-d16
 2329              		.type	TIM_OC2FastConfig, %function
 2330              	TIM_OC2FastConfig:
 2331              	.LVL172:
 2332              	.LFB146:
 2333              		.loc 1 1391 1 is_stmt 1 view -0
 2334              		.cfi_startproc
 2335              		@ args = 0, pretend = 0, frame = 0
 2336              		@ frame_needed = 0, uses_anonymous_args = 0
 2337              		@ link register save eliminated.
ARM GAS  C:\Users\USER\AppData\Local\Temp\ccNdlOSb.s 			page 42


 2338              		.loc 1 1392 3 view .LVU744
 2339              		.loc 1 1395 3 view .LVU745
 2340              		.loc 1 1396 3 view .LVU746
 2341              		.loc 1 1399 3 view .LVU747
 2342              		.loc 1 1399 18 is_stmt 0 view .LVU748
 2343 0000 8269     		ldr	r2, [r0, #24]
 2344              	.LVL173:
 2345              		.loc 1 1402 3 is_stmt 1 view .LVU749
 2346              		.loc 1 1402 12 is_stmt 0 view .LVU750
 2347 0002 4FF6FF33 		movw	r3, #64511
 2348 0006 1340     		ands	r3, r3, r2
 2349              	.LVL174:
 2350              		.loc 1 1405 3 is_stmt 1 view .LVU751
 2351              		.loc 1 1408 3 view .LVU752
 2352              		.loc 1 1405 12 is_stmt 0 view .LVU753
 2353 0008 43EA0121 		orr	r1, r3, r1, lsl #8
 2354              	.LVL175:
 2355              		.loc 1 1408 15 view .LVU754
 2356 000c 89B2     		uxth	r1, r1
 2357 000e 8161     		str	r1, [r0, #24]
 2358              		.loc 1 1409 1 view .LVU755
 2359 0010 7047     		bx	lr
 2360              		.cfi_endproc
 2361              	.LFE146:
 2362              		.size	TIM_OC2FastConfig, .-TIM_OC2FastConfig
 2363 0012 00BF     		.section	.text.TIM_OC3FastConfig,"ax",%progbits
 2364              		.align	1
 2365              		.p2align 4,,15
 2366              		.global	TIM_OC3FastConfig
 2367              		.syntax unified
 2368              		.thumb
 2369              		.thumb_func
 2370              		.fpu fpv4-sp-d16
 2371              		.type	TIM_OC3FastConfig, %function
 2372              	TIM_OC3FastConfig:
 2373              	.LVL176:
 2374              	.LFB147:
 2375              		.loc 1 1421 1 is_stmt 1 view -0
 2376              		.cfi_startproc
 2377              		@ args = 0, pretend = 0, frame = 0
 2378              		@ frame_needed = 0, uses_anonymous_args = 0
 2379              		@ link register save eliminated.
 2380              		.loc 1 1422 3 view .LVU757
 2381              		.loc 1 1425 3 view .LVU758
 2382              		.loc 1 1426 3 view .LVU759
 2383              		.loc 1 1429 3 view .LVU760
 2384              		.loc 1 1429 18 is_stmt 0 view .LVU761
 2385 0000 C269     		ldr	r2, [r0, #28]
 2386              	.LVL177:
 2387              		.loc 1 1432 3 is_stmt 1 view .LVU762
 2388              		.loc 1 1432 12 is_stmt 0 view .LVU763
 2389 0002 4FF6FB73 		movw	r3, #65531
 2390 0006 1340     		ands	r3, r3, r2
 2391              	.LVL178:
 2392              		.loc 1 1435 3 is_stmt 1 view .LVU764
 2393              		.loc 1 1438 3 view .LVU765
 2394              		.loc 1 1438 15 is_stmt 0 view .LVU766
ARM GAS  C:\Users\USER\AppData\Local\Temp\ccNdlOSb.s 			page 43


 2395 0008 1943     		orrs	r1, r1, r3
 2396              	.LVL179:
 2397              		.loc 1 1438 15 view .LVU767
 2398 000a C161     		str	r1, [r0, #28]
 2399              		.loc 1 1439 1 view .LVU768
 2400 000c 7047     		bx	lr
 2401              		.cfi_endproc
 2402              	.LFE147:
 2403              		.size	TIM_OC3FastConfig, .-TIM_OC3FastConfig
 2404 000e 00BF     		.section	.text.TIM_OC4FastConfig,"ax",%progbits
 2405              		.align	1
 2406              		.p2align 4,,15
 2407              		.global	TIM_OC4FastConfig
 2408              		.syntax unified
 2409              		.thumb
 2410              		.thumb_func
 2411              		.fpu fpv4-sp-d16
 2412              		.type	TIM_OC4FastConfig, %function
 2413              	TIM_OC4FastConfig:
 2414              	.LVL180:
 2415              	.LFB148:
 2416              		.loc 1 1451 1 is_stmt 1 view -0
 2417              		.cfi_startproc
 2418              		@ args = 0, pretend = 0, frame = 0
 2419              		@ frame_needed = 0, uses_anonymous_args = 0
 2420              		@ link register save eliminated.
 2421              		.loc 1 1452 3 view .LVU770
 2422              		.loc 1 1455 3 view .LVU771
 2423              		.loc 1 1456 3 view .LVU772
 2424              		.loc 1 1459 3 view .LVU773
 2425              		.loc 1 1459 18 is_stmt 0 view .LVU774
 2426 0000 C269     		ldr	r2, [r0, #28]
 2427              	.LVL181:
 2428              		.loc 1 1462 3 is_stmt 1 view .LVU775
 2429              		.loc 1 1462 12 is_stmt 0 view .LVU776
 2430 0002 4FF6FF33 		movw	r3, #64511
 2431 0006 1340     		ands	r3, r3, r2
 2432              	.LVL182:
 2433              		.loc 1 1465 3 is_stmt 1 view .LVU777
 2434              		.loc 1 1468 3 view .LVU778
 2435              		.loc 1 1465 12 is_stmt 0 view .LVU779
 2436 0008 43EA0121 		orr	r1, r3, r1, lsl #8
 2437              	.LVL183:
 2438              		.loc 1 1468 15 view .LVU780
 2439 000c 89B2     		uxth	r1, r1
 2440 000e C161     		str	r1, [r0, #28]
 2441              		.loc 1 1469 1 view .LVU781
 2442 0010 7047     		bx	lr
 2443              		.cfi_endproc
 2444              	.LFE148:
 2445              		.size	TIM_OC4FastConfig, .-TIM_OC4FastConfig
 2446 0012 00BF     		.section	.text.TIM_ClearOC1Ref,"ax",%progbits
 2447              		.align	1
 2448              		.p2align 4,,15
 2449              		.global	TIM_ClearOC1Ref
 2450              		.syntax unified
 2451              		.thumb
ARM GAS  C:\Users\USER\AppData\Local\Temp\ccNdlOSb.s 			page 44


 2452              		.thumb_func
 2453              		.fpu fpv4-sp-d16
 2454              		.type	TIM_ClearOC1Ref, %function
 2455              	TIM_ClearOC1Ref:
 2456              	.LVL184:
 2457              	.LFB149:
 2458              		.loc 1 1481 1 is_stmt 1 view -0
 2459              		.cfi_startproc
 2460              		@ args = 0, pretend = 0, frame = 0
 2461              		@ frame_needed = 0, uses_anonymous_args = 0
 2462              		@ link register save eliminated.
 2463              		.loc 1 1482 3 view .LVU783
 2464              		.loc 1 1485 3 view .LVU784
 2465              		.loc 1 1486 3 view .LVU785
 2466              		.loc 1 1488 3 view .LVU786
 2467              		.loc 1 1488 18 is_stmt 0 view .LVU787
 2468 0000 8269     		ldr	r2, [r0, #24]
 2469              	.LVL185:
 2470              		.loc 1 1491 3 is_stmt 1 view .LVU788
 2471              		.loc 1 1491 12 is_stmt 0 view .LVU789
 2472 0002 4FF67F73 		movw	r3, #65407
 2473 0006 1340     		ands	r3, r3, r2
 2474              	.LVL186:
 2475              		.loc 1 1494 3 is_stmt 1 view .LVU790
 2476              		.loc 1 1497 3 view .LVU791
 2477              		.loc 1 1497 15 is_stmt 0 view .LVU792
 2478 0008 1943     		orrs	r1, r1, r3
 2479              	.LVL187:
 2480              		.loc 1 1497 15 view .LVU793
 2481 000a 8161     		str	r1, [r0, #24]
 2482              		.loc 1 1498 1 view .LVU794
 2483 000c 7047     		bx	lr
 2484              		.cfi_endproc
 2485              	.LFE149:
 2486              		.size	TIM_ClearOC1Ref, .-TIM_ClearOC1Ref
 2487 000e 00BF     		.section	.text.TIM_ClearOC2Ref,"ax",%progbits
 2488              		.align	1
 2489              		.p2align 4,,15
 2490              		.global	TIM_ClearOC2Ref
 2491              		.syntax unified
 2492              		.thumb
 2493              		.thumb_func
 2494              		.fpu fpv4-sp-d16
 2495              		.type	TIM_ClearOC2Ref, %function
 2496              	TIM_ClearOC2Ref:
 2497              	.LVL188:
 2498              	.LFB150:
 2499              		.loc 1 1511 1 is_stmt 1 view -0
 2500              		.cfi_startproc
 2501              		@ args = 0, pretend = 0, frame = 0
 2502              		@ frame_needed = 0, uses_anonymous_args = 0
 2503              		@ link register save eliminated.
 2504              		.loc 1 1512 3 view .LVU796
 2505              		.loc 1 1515 3 view .LVU797
 2506              		.loc 1 1516 3 view .LVU798
 2507              		.loc 1 1518 3 view .LVU799
 2508              		.loc 1 1518 18 is_stmt 0 view .LVU800
ARM GAS  C:\Users\USER\AppData\Local\Temp\ccNdlOSb.s 			page 45


 2509 0000 8369     		ldr	r3, [r0, #24]
 2510              	.LVL189:
 2511              		.loc 1 1521 3 is_stmt 1 view .LVU801
 2512              		.loc 1 1521 12 is_stmt 0 view .LVU802
 2513 0002 C3F30E03 		ubfx	r3, r3, #0, #15
 2514              	.LVL190:
 2515              		.loc 1 1524 3 is_stmt 1 view .LVU803
 2516              		.loc 1 1527 3 view .LVU804
 2517              		.loc 1 1524 12 is_stmt 0 view .LVU805
 2518 0006 43EA0121 		orr	r1, r3, r1, lsl #8
 2519              	.LVL191:
 2520              		.loc 1 1527 15 view .LVU806
 2521 000a 89B2     		uxth	r1, r1
 2522 000c 8161     		str	r1, [r0, #24]
 2523              		.loc 1 1528 1 view .LVU807
 2524 000e 7047     		bx	lr
 2525              		.cfi_endproc
 2526              	.LFE150:
 2527              		.size	TIM_ClearOC2Ref, .-TIM_ClearOC2Ref
 2528              		.section	.text.TIM_ClearOC3Ref,"ax",%progbits
 2529              		.align	1
 2530              		.p2align 4,,15
 2531              		.global	TIM_ClearOC3Ref
 2532              		.syntax unified
 2533              		.thumb
 2534              		.thumb_func
 2535              		.fpu fpv4-sp-d16
 2536              		.type	TIM_ClearOC3Ref, %function
 2537              	TIM_ClearOC3Ref:
 2538              	.LVL192:
 2539              	.LFB151:
 2540              		.loc 1 1540 1 is_stmt 1 view -0
 2541              		.cfi_startproc
 2542              		@ args = 0, pretend = 0, frame = 0
 2543              		@ frame_needed = 0, uses_anonymous_args = 0
 2544              		@ link register save eliminated.
 2545              		.loc 1 1541 3 view .LVU809
 2546              		.loc 1 1544 3 view .LVU810
 2547              		.loc 1 1545 3 view .LVU811
 2548              		.loc 1 1547 3 view .LVU812
 2549              		.loc 1 1547 18 is_stmt 0 view .LVU813
 2550 0000 C269     		ldr	r2, [r0, #28]
 2551              	.LVL193:
 2552              		.loc 1 1550 3 is_stmt 1 view .LVU814
 2553              		.loc 1 1550 12 is_stmt 0 view .LVU815
 2554 0002 4FF67F73 		movw	r3, #65407
 2555 0006 1340     		ands	r3, r3, r2
 2556              	.LVL194:
 2557              		.loc 1 1553 3 is_stmt 1 view .LVU816
 2558              		.loc 1 1556 3 view .LVU817
 2559              		.loc 1 1556 15 is_stmt 0 view .LVU818
 2560 0008 1943     		orrs	r1, r1, r3
 2561              	.LVL195:
 2562              		.loc 1 1556 15 view .LVU819
 2563 000a C161     		str	r1, [r0, #28]
 2564              		.loc 1 1557 1 view .LVU820
 2565 000c 7047     		bx	lr
ARM GAS  C:\Users\USER\AppData\Local\Temp\ccNdlOSb.s 			page 46


 2566              		.cfi_endproc
 2567              	.LFE151:
 2568              		.size	TIM_ClearOC3Ref, .-TIM_ClearOC3Ref
 2569 000e 00BF     		.section	.text.TIM_ClearOC4Ref,"ax",%progbits
 2570              		.align	1
 2571              		.p2align 4,,15
 2572              		.global	TIM_ClearOC4Ref
 2573              		.syntax unified
 2574              		.thumb
 2575              		.thumb_func
 2576              		.fpu fpv4-sp-d16
 2577              		.type	TIM_ClearOC4Ref, %function
 2578              	TIM_ClearOC4Ref:
 2579              	.LVL196:
 2580              	.LFB152:
 2581              		.loc 1 1569 1 is_stmt 1 view -0
 2582              		.cfi_startproc
 2583              		@ args = 0, pretend = 0, frame = 0
 2584              		@ frame_needed = 0, uses_anonymous_args = 0
 2585              		@ link register save eliminated.
 2586              		.loc 1 1570 3 view .LVU822
 2587              		.loc 1 1573 3 view .LVU823
 2588              		.loc 1 1574 3 view .LVU824
 2589              		.loc 1 1576 3 view .LVU825
 2590              		.loc 1 1576 18 is_stmt 0 view .LVU826
 2591 0000 C369     		ldr	r3, [r0, #28]
 2592              	.LVL197:
 2593              		.loc 1 1579 3 is_stmt 1 view .LVU827
 2594              		.loc 1 1579 12 is_stmt 0 view .LVU828
 2595 0002 C3F30E03 		ubfx	r3, r3, #0, #15
 2596              	.LVL198:
 2597              		.loc 1 1582 3 is_stmt 1 view .LVU829
 2598              		.loc 1 1585 3 view .LVU830
 2599              		.loc 1 1582 12 is_stmt 0 view .LVU831
 2600 0006 43EA0121 		orr	r1, r3, r1, lsl #8
 2601              	.LVL199:
 2602              		.loc 1 1585 15 view .LVU832
 2603 000a 89B2     		uxth	r1, r1
 2604 000c C161     		str	r1, [r0, #28]
 2605              		.loc 1 1586 1 view .LVU833
 2606 000e 7047     		bx	lr
 2607              		.cfi_endproc
 2608              	.LFE152:
 2609              		.size	TIM_ClearOC4Ref, .-TIM_ClearOC4Ref
 2610              		.section	.text.TIM_OC1PolarityConfig,"ax",%progbits
 2611              		.align	1
 2612              		.p2align 4,,15
 2613              		.global	TIM_OC1PolarityConfig
 2614              		.syntax unified
 2615              		.thumb
 2616              		.thumb_func
 2617              		.fpu fpv4-sp-d16
 2618              		.type	TIM_OC1PolarityConfig, %function
 2619              	TIM_OC1PolarityConfig:
 2620              	.LVL200:
 2621              	.LFB153:
 2622              		.loc 1 1598 1 is_stmt 1 view -0
ARM GAS  C:\Users\USER\AppData\Local\Temp\ccNdlOSb.s 			page 47


 2623              		.cfi_startproc
 2624              		@ args = 0, pretend = 0, frame = 0
 2625              		@ frame_needed = 0, uses_anonymous_args = 0
 2626              		@ link register save eliminated.
 2627              		.loc 1 1599 3 view .LVU835
 2628              		.loc 1 1602 3 view .LVU836
 2629              		.loc 1 1603 3 view .LVU837
 2630              		.loc 1 1605 3 view .LVU838
 2631              		.loc 1 1605 17 is_stmt 0 view .LVU839
 2632 0000 026A     		ldr	r2, [r0, #32]
 2633              	.LVL201:
 2634              		.loc 1 1608 3 is_stmt 1 view .LVU840
 2635              		.loc 1 1608 11 is_stmt 0 view .LVU841
 2636 0002 4FF6FD73 		movw	r3, #65533
 2637 0006 1340     		ands	r3, r3, r2
 2638              	.LVL202:
 2639              		.loc 1 1609 3 is_stmt 1 view .LVU842
 2640              		.loc 1 1612 3 view .LVU843
 2641              		.loc 1 1612 14 is_stmt 0 view .LVU844
 2642 0008 1943     		orrs	r1, r1, r3
 2643              	.LVL203:
 2644              		.loc 1 1612 14 view .LVU845
 2645 000a 0162     		str	r1, [r0, #32]
 2646              		.loc 1 1613 1 view .LVU846
 2647 000c 7047     		bx	lr
 2648              		.cfi_endproc
 2649              	.LFE153:
 2650              		.size	TIM_OC1PolarityConfig, .-TIM_OC1PolarityConfig
 2651 000e 00BF     		.section	.text.TIM_OC1NPolarityConfig,"ax",%progbits
 2652              		.align	1
 2653              		.p2align 4,,15
 2654              		.global	TIM_OC1NPolarityConfig
 2655              		.syntax unified
 2656              		.thumb
 2657              		.thumb_func
 2658              		.fpu fpv4-sp-d16
 2659              		.type	TIM_OC1NPolarityConfig, %function
 2660              	TIM_OC1NPolarityConfig:
 2661              	.LVL204:
 2662              	.LFB154:
 2663              		.loc 1 1625 1 is_stmt 1 view -0
 2664              		.cfi_startproc
 2665              		@ args = 0, pretend = 0, frame = 0
 2666              		@ frame_needed = 0, uses_anonymous_args = 0
 2667              		@ link register save eliminated.
 2668              		.loc 1 1626 3 view .LVU848
 2669              		.loc 1 1628 3 view .LVU849
 2670              		.loc 1 1629 3 view .LVU850
 2671              		.loc 1 1631 3 view .LVU851
 2672              		.loc 1 1631 17 is_stmt 0 view .LVU852
 2673 0000 026A     		ldr	r2, [r0, #32]
 2674              	.LVL205:
 2675              		.loc 1 1634 3 is_stmt 1 view .LVU853
 2676              		.loc 1 1634 11 is_stmt 0 view .LVU854
 2677 0002 4FF6F773 		movw	r3, #65527
 2678 0006 1340     		ands	r3, r3, r2
 2679              	.LVL206:
ARM GAS  C:\Users\USER\AppData\Local\Temp\ccNdlOSb.s 			page 48


 2680              		.loc 1 1635 3 is_stmt 1 view .LVU855
 2681              		.loc 1 1638 3 view .LVU856
 2682              		.loc 1 1638 14 is_stmt 0 view .LVU857
 2683 0008 1943     		orrs	r1, r1, r3
 2684              	.LVL207:
 2685              		.loc 1 1638 14 view .LVU858
 2686 000a 0162     		str	r1, [r0, #32]
 2687              		.loc 1 1639 1 view .LVU859
 2688 000c 7047     		bx	lr
 2689              		.cfi_endproc
 2690              	.LFE154:
 2691              		.size	TIM_OC1NPolarityConfig, .-TIM_OC1NPolarityConfig
 2692 000e 00BF     		.section	.text.TIM_OC2PolarityConfig,"ax",%progbits
 2693              		.align	1
 2694              		.p2align 4,,15
 2695              		.global	TIM_OC2PolarityConfig
 2696              		.syntax unified
 2697              		.thumb
 2698              		.thumb_func
 2699              		.fpu fpv4-sp-d16
 2700              		.type	TIM_OC2PolarityConfig, %function
 2701              	TIM_OC2PolarityConfig:
 2702              	.LVL208:
 2703              	.LFB155:
 2704              		.loc 1 1652 1 is_stmt 1 view -0
 2705              		.cfi_startproc
 2706              		@ args = 0, pretend = 0, frame = 0
 2707              		@ frame_needed = 0, uses_anonymous_args = 0
 2708              		@ link register save eliminated.
 2709              		.loc 1 1653 3 view .LVU861
 2710              		.loc 1 1656 3 view .LVU862
 2711              		.loc 1 1657 3 view .LVU863
 2712              		.loc 1 1659 3 view .LVU864
 2713              		.loc 1 1659 17 is_stmt 0 view .LVU865
 2714 0000 026A     		ldr	r2, [r0, #32]
 2715              	.LVL209:
 2716              		.loc 1 1662 3 is_stmt 1 view .LVU866
 2717              		.loc 1 1662 11 is_stmt 0 view .LVU867
 2718 0002 4FF6DF73 		movw	r3, #65503
 2719 0006 1340     		ands	r3, r3, r2
 2720              	.LVL210:
 2721              		.loc 1 1663 3 is_stmt 1 view .LVU868
 2722              		.loc 1 1666 3 view .LVU869
 2723              		.loc 1 1663 11 is_stmt 0 view .LVU870
 2724 0008 43EA0111 		orr	r1, r3, r1, lsl #4
 2725              	.LVL211:
 2726              		.loc 1 1666 14 view .LVU871
 2727 000c 89B2     		uxth	r1, r1
 2728 000e 0162     		str	r1, [r0, #32]
 2729              		.loc 1 1667 1 view .LVU872
 2730 0010 7047     		bx	lr
 2731              		.cfi_endproc
 2732              	.LFE155:
 2733              		.size	TIM_OC2PolarityConfig, .-TIM_OC2PolarityConfig
 2734 0012 00BF     		.section	.text.TIM_OC2NPolarityConfig,"ax",%progbits
 2735              		.align	1
 2736              		.p2align 4,,15
ARM GAS  C:\Users\USER\AppData\Local\Temp\ccNdlOSb.s 			page 49


 2737              		.global	TIM_OC2NPolarityConfig
 2738              		.syntax unified
 2739              		.thumb
 2740              		.thumb_func
 2741              		.fpu fpv4-sp-d16
 2742              		.type	TIM_OC2NPolarityConfig, %function
 2743              	TIM_OC2NPolarityConfig:
 2744              	.LVL212:
 2745              	.LFB156:
 2746              		.loc 1 1679 1 is_stmt 1 view -0
 2747              		.cfi_startproc
 2748              		@ args = 0, pretend = 0, frame = 0
 2749              		@ frame_needed = 0, uses_anonymous_args = 0
 2750              		@ link register save eliminated.
 2751              		.loc 1 1680 3 view .LVU874
 2752              		.loc 1 1683 3 view .LVU875
 2753              		.loc 1 1684 3 view .LVU876
 2754              		.loc 1 1686 3 view .LVU877
 2755              		.loc 1 1686 17 is_stmt 0 view .LVU878
 2756 0000 026A     		ldr	r2, [r0, #32]
 2757              	.LVL213:
 2758              		.loc 1 1689 3 is_stmt 1 view .LVU879
 2759              		.loc 1 1689 11 is_stmt 0 view .LVU880
 2760 0002 4FF67F73 		movw	r3, #65407
 2761 0006 1340     		ands	r3, r3, r2
 2762              	.LVL214:
 2763              		.loc 1 1690 3 is_stmt 1 view .LVU881
 2764              		.loc 1 1693 3 view .LVU882
 2765              		.loc 1 1690 11 is_stmt 0 view .LVU883
 2766 0008 43EA0111 		orr	r1, r3, r1, lsl #4
 2767              	.LVL215:
 2768              		.loc 1 1693 14 view .LVU884
 2769 000c 89B2     		uxth	r1, r1
 2770 000e 0162     		str	r1, [r0, #32]
 2771              		.loc 1 1694 1 view .LVU885
 2772 0010 7047     		bx	lr
 2773              		.cfi_endproc
 2774              	.LFE156:
 2775              		.size	TIM_OC2NPolarityConfig, .-TIM_OC2NPolarityConfig
 2776 0012 00BF     		.section	.text.TIM_OC3PolarityConfig,"ax",%progbits
 2777              		.align	1
 2778              		.p2align 4,,15
 2779              		.global	TIM_OC3PolarityConfig
 2780              		.syntax unified
 2781              		.thumb
 2782              		.thumb_func
 2783              		.fpu fpv4-sp-d16
 2784              		.type	TIM_OC3PolarityConfig, %function
 2785              	TIM_OC3PolarityConfig:
 2786              	.LVL216:
 2787              	.LFB157:
 2788              		.loc 1 1706 1 is_stmt 1 view -0
 2789              		.cfi_startproc
 2790              		@ args = 0, pretend = 0, frame = 0
 2791              		@ frame_needed = 0, uses_anonymous_args = 0
 2792              		@ link register save eliminated.
 2793              		.loc 1 1707 3 view .LVU887
ARM GAS  C:\Users\USER\AppData\Local\Temp\ccNdlOSb.s 			page 50


 2794              		.loc 1 1710 3 view .LVU888
 2795              		.loc 1 1711 3 view .LVU889
 2796              		.loc 1 1713 3 view .LVU890
 2797              		.loc 1 1713 17 is_stmt 0 view .LVU891
 2798 0000 026A     		ldr	r2, [r0, #32]
 2799              	.LVL217:
 2800              		.loc 1 1716 3 is_stmt 1 view .LVU892
 2801              		.loc 1 1716 11 is_stmt 0 view .LVU893
 2802 0002 4FF6FF53 		movw	r3, #65023
 2803 0006 1340     		ands	r3, r3, r2
 2804              	.LVL218:
 2805              		.loc 1 1717 3 is_stmt 1 view .LVU894
 2806              		.loc 1 1720 3 view .LVU895
 2807              		.loc 1 1717 11 is_stmt 0 view .LVU896
 2808 0008 43EA0121 		orr	r1, r3, r1, lsl #8
 2809              	.LVL219:
 2810              		.loc 1 1720 14 view .LVU897
 2811 000c 89B2     		uxth	r1, r1
 2812 000e 0162     		str	r1, [r0, #32]
 2813              		.loc 1 1721 1 view .LVU898
 2814 0010 7047     		bx	lr
 2815              		.cfi_endproc
 2816              	.LFE157:
 2817              		.size	TIM_OC3PolarityConfig, .-TIM_OC3PolarityConfig
 2818 0012 00BF     		.section	.text.TIM_OC3NPolarityConfig,"ax",%progbits
 2819              		.align	1
 2820              		.p2align 4,,15
 2821              		.global	TIM_OC3NPolarityConfig
 2822              		.syntax unified
 2823              		.thumb
 2824              		.thumb_func
 2825              		.fpu fpv4-sp-d16
 2826              		.type	TIM_OC3NPolarityConfig, %function
 2827              	TIM_OC3NPolarityConfig:
 2828              	.LVL220:
 2829              	.LFB158:
 2830              		.loc 1 1733 1 is_stmt 1 view -0
 2831              		.cfi_startproc
 2832              		@ args = 0, pretend = 0, frame = 0
 2833              		@ frame_needed = 0, uses_anonymous_args = 0
 2834              		@ link register save eliminated.
 2835              		.loc 1 1734 3 view .LVU900
 2836              		.loc 1 1737 3 view .LVU901
 2837              		.loc 1 1738 3 view .LVU902
 2838              		.loc 1 1740 3 view .LVU903
 2839              		.loc 1 1740 17 is_stmt 0 view .LVU904
 2840 0000 026A     		ldr	r2, [r0, #32]
 2841              	.LVL221:
 2842              		.loc 1 1743 3 is_stmt 1 view .LVU905
 2843              		.loc 1 1743 11 is_stmt 0 view .LVU906
 2844 0002 4FF2FF73 		movw	r3, #63487
 2845 0006 1340     		ands	r3, r3, r2
 2846              	.LVL222:
 2847              		.loc 1 1744 3 is_stmt 1 view .LVU907
 2848              		.loc 1 1747 3 view .LVU908
 2849              		.loc 1 1744 11 is_stmt 0 view .LVU909
 2850 0008 43EA0121 		orr	r1, r3, r1, lsl #8
ARM GAS  C:\Users\USER\AppData\Local\Temp\ccNdlOSb.s 			page 51


 2851              	.LVL223:
 2852              		.loc 1 1747 14 view .LVU910
 2853 000c 89B2     		uxth	r1, r1
 2854 000e 0162     		str	r1, [r0, #32]
 2855              		.loc 1 1748 1 view .LVU911
 2856 0010 7047     		bx	lr
 2857              		.cfi_endproc
 2858              	.LFE158:
 2859              		.size	TIM_OC3NPolarityConfig, .-TIM_OC3NPolarityConfig
 2860 0012 00BF     		.section	.text.TIM_OC4PolarityConfig,"ax",%progbits
 2861              		.align	1
 2862              		.p2align 4,,15
 2863              		.global	TIM_OC4PolarityConfig
 2864              		.syntax unified
 2865              		.thumb
 2866              		.thumb_func
 2867              		.fpu fpv4-sp-d16
 2868              		.type	TIM_OC4PolarityConfig, %function
 2869              	TIM_OC4PolarityConfig:
 2870              	.LVL224:
 2871              	.LFB159:
 2872              		.loc 1 1760 1 is_stmt 1 view -0
 2873              		.cfi_startproc
 2874              		@ args = 0, pretend = 0, frame = 0
 2875              		@ frame_needed = 0, uses_anonymous_args = 0
 2876              		@ link register save eliminated.
 2877              		.loc 1 1761 3 view .LVU913
 2878              		.loc 1 1764 3 view .LVU914
 2879              		.loc 1 1765 3 view .LVU915
 2880              		.loc 1 1767 3 view .LVU916
 2881              		.loc 1 1767 17 is_stmt 0 view .LVU917
 2882 0000 026A     		ldr	r2, [r0, #32]
 2883              	.LVL225:
 2884              		.loc 1 1770 3 is_stmt 1 view .LVU918
 2885              		.loc 1 1770 11 is_stmt 0 view .LVU919
 2886 0002 4DF6FF73 		movw	r3, #57343
 2887 0006 1340     		ands	r3, r3, r2
 2888              	.LVL226:
 2889              		.loc 1 1771 3 is_stmt 1 view .LVU920
 2890              		.loc 1 1774 3 view .LVU921
 2891              		.loc 1 1771 11 is_stmt 0 view .LVU922
 2892 0008 43EA0131 		orr	r1, r3, r1, lsl #12
 2893              	.LVL227:
 2894              		.loc 1 1774 14 view .LVU923
 2895 000c 89B2     		uxth	r1, r1
 2896 000e 0162     		str	r1, [r0, #32]
 2897              		.loc 1 1775 1 view .LVU924
 2898 0010 7047     		bx	lr
 2899              		.cfi_endproc
 2900              	.LFE159:
 2901              		.size	TIM_OC4PolarityConfig, .-TIM_OC4PolarityConfig
 2902 0012 00BF     		.section	.text.TIM_CCxCmd,"ax",%progbits
 2903              		.align	1
 2904              		.p2align 4,,15
 2905              		.global	TIM_CCxCmd
 2906              		.syntax unified
 2907              		.thumb
ARM GAS  C:\Users\USER\AppData\Local\Temp\ccNdlOSb.s 			page 52


 2908              		.thumb_func
 2909              		.fpu fpv4-sp-d16
 2910              		.type	TIM_CCxCmd, %function
 2911              	TIM_CCxCmd:
 2912              	.LVL228:
 2913              	.LFB160:
 2914              		.loc 1 1791 1 is_stmt 1 view -0
 2915              		.cfi_startproc
 2916              		@ args = 0, pretend = 0, frame = 0
 2917              		@ frame_needed = 0, uses_anonymous_args = 0
 2918              		@ link register save eliminated.
 2919              		.loc 1 1792 3 view .LVU926
 2920              		.loc 1 1795 3 view .LVU927
 2921              		.loc 1 1796 3 view .LVU928
 2922              		.loc 1 1797 3 view .LVU929
 2923              		.loc 1 1799 3 view .LVU930
 2924              		.loc 1 1802 3 view .LVU931
 2925              		.loc 1 1799 22 is_stmt 0 view .LVU932
 2926 0000 0123     		movs	r3, #1
 2927 0002 8B40     		lsls	r3, r3, r1
 2928              		.loc 1 1791 1 view .LVU933
 2929 0004 10B4     		push	{r4}
 2930              		.cfi_def_cfa_offset 4
 2931              		.cfi_offset 4, -4
 2932              		.loc 1 1802 17 view .LVU934
 2933 0006 DB43     		mvns	r3, r3
 2934              		.loc 1 1802 14 view .LVU935
 2935 0008 046A     		ldr	r4, [r0, #32]
 2936              		.loc 1 1802 17 view .LVU936
 2937 000a 9BB2     		uxth	r3, r3
 2938              		.loc 1 1802 14 view .LVU937
 2939 000c 2340     		ands	r3, r3, r4
 2940 000e 0362     		str	r3, [r0, #32]
 2941              		.loc 1 1805 3 is_stmt 1 view .LVU938
 2942              		.loc 1 1805 37 is_stmt 0 view .LVU939
 2943 0010 02FA01F1 		lsl	r1, r2, r1
 2944              	.LVL229:
 2945              		.loc 1 1805 14 view .LVU940
 2946 0014 026A     		ldr	r2, [r0, #32]
 2947              	.LVL230:
 2948              		.loc 1 1806 1 view .LVU941
 2949 0016 5DF8044B 		ldr	r4, [sp], #4
 2950              		.cfi_restore 4
 2951              		.cfi_def_cfa_offset 0
 2952              		.loc 1 1805 18 view .LVU942
 2953 001a 89B2     		uxth	r1, r1
 2954              		.loc 1 1805 14 view .LVU943
 2955 001c 1143     		orrs	r1, r1, r2
 2956 001e 0162     		str	r1, [r0, #32]
 2957              		.loc 1 1806 1 view .LVU944
 2958 0020 7047     		bx	lr
 2959              		.cfi_endproc
 2960              	.LFE160:
 2961              		.size	TIM_CCxCmd, .-TIM_CCxCmd
 2962 0022 00BF     		.section	.text.TIM_CCxNCmd,"ax",%progbits
 2963              		.align	1
 2964              		.p2align 4,,15
ARM GAS  C:\Users\USER\AppData\Local\Temp\ccNdlOSb.s 			page 53


 2965              		.global	TIM_CCxNCmd
 2966              		.syntax unified
 2967              		.thumb
 2968              		.thumb_func
 2969              		.fpu fpv4-sp-d16
 2970              		.type	TIM_CCxNCmd, %function
 2971              	TIM_CCxNCmd:
 2972              	.LVL231:
 2973              	.LFB161:
 2974              		.loc 1 1821 1 is_stmt 1 view -0
 2975              		.cfi_startproc
 2976              		@ args = 0, pretend = 0, frame = 0
 2977              		@ frame_needed = 0, uses_anonymous_args = 0
 2978              		@ link register save eliminated.
 2979              		.loc 1 1822 3 view .LVU946
 2980              		.loc 1 1825 3 view .LVU947
 2981              		.loc 1 1826 3 view .LVU948
 2982              		.loc 1 1827 3 view .LVU949
 2983              		.loc 1 1829 3 view .LVU950
 2984              		.loc 1 1832 3 view .LVU951
 2985              		.loc 1 1829 23 is_stmt 0 view .LVU952
 2986 0000 0423     		movs	r3, #4
 2987 0002 8B40     		lsls	r3, r3, r1
 2988              		.loc 1 1821 1 view .LVU953
 2989 0004 10B4     		push	{r4}
 2990              		.cfi_def_cfa_offset 4
 2991              		.cfi_offset 4, -4
 2992              		.loc 1 1832 17 view .LVU954
 2993 0006 DB43     		mvns	r3, r3
 2994              		.loc 1 1832 14 view .LVU955
 2995 0008 046A     		ldr	r4, [r0, #32]
 2996              		.loc 1 1832 17 view .LVU956
 2997 000a 9BB2     		uxth	r3, r3
 2998              		.loc 1 1832 14 view .LVU957
 2999 000c 2340     		ands	r3, r3, r4
 3000 000e 0362     		str	r3, [r0, #32]
 3001              		.loc 1 1835 3 is_stmt 1 view .LVU958
 3002              		.loc 1 1835 38 is_stmt 0 view .LVU959
 3003 0010 02FA01F1 		lsl	r1, r2, r1
 3004              	.LVL232:
 3005              		.loc 1 1835 14 view .LVU960
 3006 0014 026A     		ldr	r2, [r0, #32]
 3007              	.LVL233:
 3008              		.loc 1 1836 1 view .LVU961
 3009 0016 5DF8044B 		ldr	r4, [sp], #4
 3010              		.cfi_restore 4
 3011              		.cfi_def_cfa_offset 0
 3012              		.loc 1 1835 18 view .LVU962
 3013 001a 89B2     		uxth	r1, r1
 3014              		.loc 1 1835 14 view .LVU963
 3015 001c 1143     		orrs	r1, r1, r2
 3016 001e 0162     		str	r1, [r0, #32]
 3017              		.loc 1 1836 1 view .LVU964
 3018 0020 7047     		bx	lr
 3019              		.cfi_endproc
 3020              	.LFE161:
 3021              		.size	TIM_CCxNCmd, .-TIM_CCxNCmd
ARM GAS  C:\Users\USER\AppData\Local\Temp\ccNdlOSb.s 			page 54


 3022 0022 00BF     		.section	.text.TIM_ICInit,"ax",%progbits
 3023              		.align	1
 3024              		.p2align 4,,15
 3025              		.global	TIM_ICInit
 3026              		.syntax unified
 3027              		.thumb
 3028              		.thumb_func
 3029              		.fpu fpv4-sp-d16
 3030              		.type	TIM_ICInit, %function
 3031              	TIM_ICInit:
 3032              	.LVL234:
 3033              	.LFB162:
 3034              		.loc 1 1905 1 is_stmt 1 view -0
 3035              		.cfi_startproc
 3036              		@ args = 0, pretend = 0, frame = 0
 3037              		@ frame_needed = 0, uses_anonymous_args = 0
 3038              		@ link register save eliminated.
 3039              		.loc 1 1907 3 view .LVU966
 3040              		.loc 1 1908 3 view .LVU967
 3041              		.loc 1 1909 3 view .LVU968
 3042              		.loc 1 1910 3 view .LVU969
 3043              		.loc 1 1911 3 view .LVU970
 3044              		.loc 1 1913 3 view .LVU971
 3045              		.loc 1 1905 1 is_stmt 0 view .LVU972
 3046 0000 F0B4     		push	{r4, r5, r6, r7}
 3047              		.cfi_def_cfa_offset 16
 3048              		.cfi_offset 4, -16
 3049              		.cfi_offset 5, -12
 3050              		.cfi_offset 6, -8
 3051              		.cfi_offset 7, -4
 3052              		.loc 1 1913 23 view .LVU973
 3053 0002 0C88     		ldrh	r4, [r1]
 3054 0004 4E88     		ldrh	r6, [r1, #2]
 3055 0006 8D88     		ldrh	r5, [r1, #4]
 3056 0008 0F89     		ldrh	r7, [r1, #8]
 3057              	.LBB46:
 3058              	.LBB47:
 3059              		.loc 1 3214 14 view .LVU974
 3060 000a 036A     		ldr	r3, [r0, #32]
 3061 000c C988     		ldrh	r1, [r1, #6]
 3062              	.LVL235:
 3063              		.loc 1 3214 14 view .LVU975
 3064              	.LBE47:
 3065              	.LBE46:
 3066              		.loc 1 1913 6 view .LVU976
 3067 000e F4B9     		cbnz	r4, .L132
 3068              		.loc 1 1916 5 is_stmt 1 view .LVU977
 3069              	.LVL236:
 3070              	.LBB49:
 3071              	.LBI46:
 3072              		.loc 1 3208 13 view .LVU978
 3073              	.LBB48:
 3074              		.loc 1 3211 3 view .LVU979
 3075              		.loc 1 3214 3 view .LVU980
 3076              		.loc 1 3214 14 is_stmt 0 view .LVU981
 3077 0010 4FF6FE72 		movw	r2, #65534
 3078 0014 1340     		ands	r3, r3, r2
ARM GAS  C:\Users\USER\AppData\Local\Temp\ccNdlOSb.s 			page 55


 3079 0016 0362     		str	r3, [r0, #32]
 3080              		.loc 1 3215 3 is_stmt 1 view .LVU982
 3081              		.loc 1 3215 18 is_stmt 0 view .LVU983
 3082 0018 8369     		ldr	r3, [r0, #24]
 3083              		.loc 1 3216 17 view .LVU984
 3084 001a 026A     		ldr	r2, [r0, #32]
 3085              		.loc 1 3215 12 view .LVU985
 3086 001c 9BB2     		uxth	r3, r3
 3087              	.LVL237:
 3088              		.loc 1 3216 3 is_stmt 1 view .LVU986
 3089              		.loc 1 3219 12 is_stmt 0 view .LVU987
 3090 001e 23F0F303 		bic	r3, r3, #243
 3091              	.LVL238:
 3092              		.loc 1 3216 11 view .LVU988
 3093 0022 92B2     		uxth	r2, r2
 3094              	.LVL239:
 3095              		.loc 1 3219 3 is_stmt 1 view .LVU989
 3096              		.loc 1 3220 3 view .LVU990
 3097 0024 43EA0713 		orr	r3, r3, r7, lsl #4
 3098              		.loc 1 3223 11 is_stmt 0 view .LVU991
 3099 0028 22F00A02 		bic	r2, r2, #10
 3100              	.LVL240:
 3101              		.loc 1 3224 11 view .LVU992
 3102 002c 3243     		orrs	r2, r2, r6
 3103 002e 9BB2     		uxth	r3, r3
 3104              	.LVL241:
 3105              		.loc 1 3223 3 is_stmt 1 view .LVU993
 3106              		.loc 1 3224 3 view .LVU994
 3107              		.loc 1 3227 3 view .LVU995
 3108              		.loc 1 3227 15 is_stmt 0 view .LVU996
 3109 0030 2B43     		orrs	r3, r3, r5
 3110              	.LVL242:
 3111              		.loc 1 3228 14 view .LVU997
 3112 0032 42F00102 		orr	r2, r2, #1
 3113              	.LVL243:
 3114              		.loc 1 3227 15 view .LVU998
 3115 0036 8361     		str	r3, [r0, #24]
 3116              		.loc 1 3228 3 is_stmt 1 view .LVU999
 3117              		.loc 1 3228 14 is_stmt 0 view .LVU1000
 3118 0038 0262     		str	r2, [r0, #32]
 3119              	.LVL244:
 3120              		.loc 1 3228 14 view .LVU1001
 3121              	.LBE48:
 3122              	.LBE49:
 3123              		.loc 1 1920 5 is_stmt 1 view .LVU1002
 3124              	.LBB50:
 3125              	.LBI50:
 3126              		.loc 1 2099 6 view .LVU1003
 3127              	.LBB51:
 3128              		.loc 1 2102 3 view .LVU1004
 3129              		.loc 1 2103 3 view .LVU1005
 3130              		.loc 1 2106 3 view .LVU1006
 3131              		.loc 1 2106 15 is_stmt 0 view .LVU1007
 3132 003a 8369     		ldr	r3, [r0, #24]
 3133 003c 4FF6F372 		movw	r2, #65523
 3134 0040 1340     		ands	r3, r3, r2
 3135 0042 8361     		str	r3, [r0, #24]
ARM GAS  C:\Users\USER\AppData\Local\Temp\ccNdlOSb.s 			page 56


 3136              		.loc 1 2109 3 is_stmt 1 view .LVU1008
 3137              		.loc 1 2109 15 is_stmt 0 view .LVU1009
 3138 0044 8369     		ldr	r3, [r0, #24]
 3139 0046 1943     		orrs	r1, r1, r3
 3140 0048 8161     		str	r1, [r0, #24]
 3141              	.LBE51:
 3142              	.LBE50:
 3143              		.loc 1 1952 1 view .LVU1010
 3144 004a F0BC     		pop	{r4, r5, r6, r7}
 3145              		.cfi_remember_state
 3146              		.cfi_restore 7
 3147              		.cfi_restore 6
 3148              		.cfi_restore 5
 3149              		.cfi_restore 4
 3150              		.cfi_def_cfa_offset 0
 3151 004c 7047     		bx	lr
 3152              	.LVL245:
 3153              	.L132:
 3154              		.cfi_restore_state
 3155              		.loc 1 1922 8 is_stmt 1 view .LVU1011
 3156              		.loc 1 1922 11 is_stmt 0 view .LVU1012
 3157 004e 042C     		cmp	r4, #4
 3158 0050 25D0     		beq	.L137
 3159              		.loc 1 1932 8 is_stmt 1 view .LVU1013
 3160              		.loc 1 1932 11 is_stmt 0 view .LVU1014
 3161 0052 082C     		cmp	r4, #8
 3162 0054 48D0     		beq	.L138
 3163              		.loc 1 1945 5 is_stmt 1 view .LVU1015
 3164              		.loc 1 1946 5 view .LVU1016
 3165              	.LVL246:
 3166              	.LBB52:
 3167              	.LBI52:
 3168              		.loc 1 3332 13 view .LVU1017
 3169              	.LBB53:
 3170              		.loc 1 3335 3 view .LVU1018
 3171              		.loc 1 3338 3 view .LVU1019
 3172              		.loc 1 3338 14 is_stmt 0 view .LVU1020
 3173 0056 4EF6FF72 		movw	r2, #61439
 3174 005a 1340     		ands	r3, r3, r2
 3175 005c 0362     		str	r3, [r0, #32]
 3176              		.loc 1 3339 3 is_stmt 1 view .LVU1021
 3177              		.loc 1 3339 18 is_stmt 0 view .LVU1022
 3178 005e C369     		ldr	r3, [r0, #28]
 3179              	.LVL247:
 3180              		.loc 1 3340 3 is_stmt 1 view .LVU1023
 3181              		.loc 1 3340 17 is_stmt 0 view .LVU1024
 3182 0060 026A     		ldr	r2, [r0, #32]
 3183              	.LVL248:
 3184              		.loc 1 3341 3 is_stmt 1 view .LVU1025
 3185              		.loc 1 3344 3 view .LVU1026
 3186              		.loc 1 3344 12 is_stmt 0 view .LVU1027
 3187 0062 40F6FF44 		movw	r4, #3327
 3188 0066 2340     		ands	r3, r3, r4
 3189              	.LVL249:
 3190              		.loc 1 3345 3 is_stmt 1 view .LVU1028
 3191              		.loc 1 3349 11 is_stmt 0 view .LVU1029
 3192 0068 45F6FF74 		movw	r4, #24575
ARM GAS  C:\Users\USER\AppData\Local\Temp\ccNdlOSb.s 			page 57


 3193 006c 2240     		ands	r2, r2, r4
 3194              	.LVL250:
 3195              		.loc 1 3345 12 view .LVU1030
 3196 006e 43EA0523 		orr	r3, r3, r5, lsl #8
 3197              	.LVL251:
 3198              		.loc 1 3346 3 is_stmt 1 view .LVU1031
 3199              		.loc 1 3349 3 view .LVU1032
 3200              		.loc 1 3350 3 view .LVU1033
 3201              		.loc 1 3350 11 is_stmt 0 view .LVU1034
 3202 0072 42EA0632 		orr	r2, r2, r6, lsl #12
 3203              		.loc 1 3346 12 view .LVU1035
 3204 0076 43EA0733 		orr	r3, r3, r7, lsl #12
 3205              	.LVL252:
 3206              		.loc 1 3350 11 view .LVU1036
 3207 007a 92B2     		uxth	r2, r2
 3208              	.LVL253:
 3209              		.loc 1 3353 3 is_stmt 1 view .LVU1037
 3210              		.loc 1 3353 15 is_stmt 0 view .LVU1038
 3211 007c 9BB2     		uxth	r3, r3
 3212              		.loc 1 3354 14 view .LVU1039
 3213 007e 42F48052 		orr	r2, r2, #4096
 3214              	.LVL254:
 3215              		.loc 1 3353 15 view .LVU1040
 3216 0082 C361     		str	r3, [r0, #28]
 3217              		.loc 1 3354 3 is_stmt 1 view .LVU1041
 3218              		.loc 1 3354 14 is_stmt 0 view .LVU1042
 3219 0084 0262     		str	r2, [r0, #32]
 3220              	.LVL255:
 3221              		.loc 1 3354 14 view .LVU1043
 3222              	.LBE53:
 3223              	.LBE52:
 3224              		.loc 1 1950 5 is_stmt 1 view .LVU1044
 3225              	.LBB54:
 3226              	.LBI54:
 3227              		.loc 1 2172 6 view .LVU1045
 3228              	.LBB55:
 3229              		.loc 1 2175 3 view .LVU1046
 3230              		.loc 1 2176 3 view .LVU1047
 3231              		.loc 1 2179 3 view .LVU1048
 3232              		.loc 1 2179 15 is_stmt 0 view .LVU1049
 3233 0086 C369     		ldr	r3, [r0, #28]
 3234 0088 4FF2FF32 		movw	r2, #62463
 3235 008c 1340     		ands	r3, r3, r2
 3236 008e C361     		str	r3, [r0, #28]
 3237              		.loc 1 2182 3 is_stmt 1 view .LVU1050
 3238              		.loc 1 2182 15 is_stmt 0 view .LVU1051
 3239 0090 C369     		ldr	r3, [r0, #28]
 3240              		.loc 1 2182 18 view .LVU1052
 3241 0092 0902     		lsls	r1, r1, #8
 3242 0094 89B2     		uxth	r1, r1
 3243              		.loc 1 2182 15 view .LVU1053
 3244 0096 1943     		orrs	r1, r1, r3
 3245 0098 C161     		str	r1, [r0, #28]
 3246              	.LBE55:
 3247              	.LBE54:
 3248              		.loc 1 1952 1 view .LVU1054
 3249 009a F0BC     		pop	{r4, r5, r6, r7}
ARM GAS  C:\Users\USER\AppData\Local\Temp\ccNdlOSb.s 			page 58


 3250              		.cfi_remember_state
 3251              		.cfi_restore 7
 3252              		.cfi_restore 6
 3253              		.cfi_restore 5
 3254              		.cfi_restore 4
 3255              		.cfi_def_cfa_offset 0
 3256 009c 7047     		bx	lr
 3257              	.LVL256:
 3258              	.L137:
 3259              		.cfi_restore_state
 3260              		.loc 1 1925 5 is_stmt 1 view .LVU1055
 3261              		.loc 1 1926 5 view .LVU1056
 3262              	.LBB56:
 3263              	.LBI56:
 3264              		.loc 1 3249 13 view .LVU1057
 3265              	.LBB57:
 3266              		.loc 1 3252 3 view .LVU1058
 3267              		.loc 1 3255 3 view .LVU1059
 3268              		.loc 1 3255 14 is_stmt 0 view .LVU1060
 3269 009e 4FF6EF72 		movw	r2, #65519
 3270 00a2 1340     		ands	r3, r3, r2
 3271 00a4 0362     		str	r3, [r0, #32]
 3272              		.loc 1 3256 3 is_stmt 1 view .LVU1061
 3273              		.loc 1 3256 18 is_stmt 0 view .LVU1062
 3274 00a6 8369     		ldr	r3, [r0, #24]
 3275              	.LVL257:
 3276              		.loc 1 3257 3 is_stmt 1 view .LVU1063
 3277              		.loc 1 3257 17 is_stmt 0 view .LVU1064
 3278 00a8 026A     		ldr	r2, [r0, #32]
 3279              		.loc 1 3261 12 view .LVU1065
 3280 00aa 40F6FF44 		movw	r4, #3327
 3281 00ae 2340     		ands	r3, r3, r4
 3282              	.LVL258:
 3283              		.loc 1 3257 11 view .LVU1066
 3284 00b0 92B2     		uxth	r2, r2
 3285              	.LVL259:
 3286              		.loc 1 3258 3 is_stmt 1 view .LVU1067
 3287              		.loc 1 3261 3 view .LVU1068
 3288              		.loc 1 3262 3 view .LVU1069
 3289              		.loc 1 3262 12 is_stmt 0 view .LVU1070
 3290 00b2 43EA0733 		orr	r3, r3, r7, lsl #12
 3291              	.LVL260:
 3292              		.loc 1 3266 11 view .LVU1071
 3293 00b6 22F0A002 		bic	r2, r2, #160
 3294              	.LVL261:
 3295              		.loc 1 3267 11 view .LVU1072
 3296 00ba 42EA0612 		orr	r2, r2, r6, lsl #4
 3297              		.loc 1 3262 12 view .LVU1073
 3298 00be 9BB2     		uxth	r3, r3
 3299              	.LVL262:
 3300              		.loc 1 3263 3 is_stmt 1 view .LVU1074
 3301              		.loc 1 3266 3 view .LVU1075
 3302              		.loc 1 3267 3 view .LVU1076
 3303              		.loc 1 3263 12 is_stmt 0 view .LVU1077
 3304 00c0 43EA0523 		orr	r3, r3, r5, lsl #8
 3305              	.LVL263:
 3306              		.loc 1 3267 11 view .LVU1078
ARM GAS  C:\Users\USER\AppData\Local\Temp\ccNdlOSb.s 			page 59


 3307 00c4 92B2     		uxth	r2, r2
 3308              	.LVL264:
 3309              		.loc 1 3270 3 is_stmt 1 view .LVU1079
 3310              		.loc 1 3270 15 is_stmt 0 view .LVU1080
 3311 00c6 9BB2     		uxth	r3, r3
 3312              		.loc 1 3271 14 view .LVU1081
 3313 00c8 42F01002 		orr	r2, r2, #16
 3314              	.LVL265:
 3315              		.loc 1 3270 15 view .LVU1082
 3316 00cc 8361     		str	r3, [r0, #24]
 3317              		.loc 1 3271 3 is_stmt 1 view .LVU1083
 3318              		.loc 1 3271 14 is_stmt 0 view .LVU1084
 3319 00ce 0262     		str	r2, [r0, #32]
 3320              	.LVL266:
 3321              		.loc 1 3271 14 view .LVU1085
 3322              	.LBE57:
 3323              	.LBE56:
 3324              		.loc 1 1930 5 is_stmt 1 view .LVU1086
 3325              	.LBB58:
 3326              	.LBI58:
 3327              		.loc 1 2124 6 view .LVU1087
 3328              	.LBB59:
 3329              		.loc 1 2127 3 view .LVU1088
 3330              		.loc 1 2128 3 view .LVU1089
 3331              		.loc 1 2131 3 view .LVU1090
 3332              		.loc 1 2131 15 is_stmt 0 view .LVU1091
 3333 00d0 8369     		ldr	r3, [r0, #24]
 3334 00d2 4FF2FF32 		movw	r2, #62463
 3335 00d6 1340     		ands	r3, r3, r2
 3336 00d8 8361     		str	r3, [r0, #24]
 3337              		.loc 1 2134 3 is_stmt 1 view .LVU1092
 3338              		.loc 1 2134 15 is_stmt 0 view .LVU1093
 3339 00da 8369     		ldr	r3, [r0, #24]
 3340              		.loc 1 2134 18 view .LVU1094
 3341 00dc 0902     		lsls	r1, r1, #8
 3342 00de 89B2     		uxth	r1, r1
 3343              		.loc 1 2134 15 view .LVU1095
 3344 00e0 1943     		orrs	r1, r1, r3
 3345 00e2 8161     		str	r1, [r0, #24]
 3346              	.LBE59:
 3347              	.LBE58:
 3348              		.loc 1 1952 1 view .LVU1096
 3349 00e4 F0BC     		pop	{r4, r5, r6, r7}
 3350              		.cfi_remember_state
 3351              		.cfi_restore 7
 3352              		.cfi_restore 6
 3353              		.cfi_restore 5
 3354              		.cfi_restore 4
 3355              		.cfi_def_cfa_offset 0
 3356 00e6 7047     		bx	lr
 3357              	.LVL267:
 3358              	.L138:
 3359              		.cfi_restore_state
 3360              		.loc 1 1935 5 is_stmt 1 view .LVU1097
 3361              		.loc 1 1936 5 view .LVU1098
 3362              	.LBB60:
 3363              	.LBI60:
ARM GAS  C:\Users\USER\AppData\Local\Temp\ccNdlOSb.s 			page 60


 3364              		.loc 1 3291 13 view .LVU1099
 3365              	.LBB61:
 3366              		.loc 1 3294 3 view .LVU1100
 3367              		.loc 1 3297 3 view .LVU1101
 3368              		.loc 1 3297 14 is_stmt 0 view .LVU1102
 3369 00e8 4FF6FF62 		movw	r2, #65279
 3370 00ec 1340     		ands	r3, r3, r2
 3371 00ee 0362     		str	r3, [r0, #32]
 3372              		.loc 1 3298 3 is_stmt 1 view .LVU1103
 3373              		.loc 1 3298 18 is_stmt 0 view .LVU1104
 3374 00f0 C369     		ldr	r3, [r0, #28]
 3375              		.loc 1 3299 17 view .LVU1105
 3376 00f2 026A     		ldr	r2, [r0, #32]
 3377              		.loc 1 3298 12 view .LVU1106
 3378 00f4 9BB2     		uxth	r3, r3
 3379              	.LVL268:
 3380              		.loc 1 3299 3 is_stmt 1 view .LVU1107
 3381              		.loc 1 3299 11 is_stmt 0 view .LVU1108
 3382 00f6 92B2     		uxth	r2, r2
 3383              	.LVL269:
 3384              		.loc 1 3300 3 is_stmt 1 view .LVU1109
 3385              		.loc 1 3303 3 view .LVU1110
 3386              		.loc 1 3304 3 view .LVU1111
 3387              		.loc 1 3303 12 is_stmt 0 view .LVU1112
 3388 00f8 23F0F303 		bic	r3, r3, #243
 3389              	.LVL270:
 3390              		.loc 1 3307 11 view .LVU1113
 3391 00fc 22F42062 		bic	r2, r2, #2560
 3392              	.LVL271:
 3393              		.loc 1 3307 11 view .LVU1114
 3394 0100 43EA0713 		orr	r3, r3, r7, lsl #4
 3395              		.loc 1 3308 11 view .LVU1115
 3396 0104 42EA0622 		orr	r2, r2, r6, lsl #8
 3397 0108 9BB2     		uxth	r3, r3
 3398              	.LVL272:
 3399              		.loc 1 3307 3 is_stmt 1 view .LVU1116
 3400              		.loc 1 3308 3 view .LVU1117
 3401              		.loc 1 3308 11 is_stmt 0 view .LVU1118
 3402 010a 92B2     		uxth	r2, r2
 3403              	.LVL273:
 3404              		.loc 1 3311 3 is_stmt 1 view .LVU1119
 3405              		.loc 1 3311 15 is_stmt 0 view .LVU1120
 3406 010c 2B43     		orrs	r3, r3, r5
 3407              	.LVL274:
 3408              		.loc 1 3312 14 view .LVU1121
 3409 010e 42F48072 		orr	r2, r2, #256
 3410              	.LVL275:
 3411              		.loc 1 3311 15 view .LVU1122
 3412 0112 C361     		str	r3, [r0, #28]
 3413              		.loc 1 3312 3 is_stmt 1 view .LVU1123
 3414              		.loc 1 3312 14 is_stmt 0 view .LVU1124
 3415 0114 0262     		str	r2, [r0, #32]
 3416              	.LVL276:
 3417              		.loc 1 3312 14 view .LVU1125
 3418              	.LBE61:
 3419              	.LBE60:
 3420              		.loc 1 1940 5 is_stmt 1 view .LVU1126
ARM GAS  C:\Users\USER\AppData\Local\Temp\ccNdlOSb.s 			page 61


 3421              	.LBB62:
 3422              	.LBI62:
 3423              		.loc 1 2148 6 view .LVU1127
 3424              	.LBB63:
 3425              		.loc 1 2151 3 view .LVU1128
 3426              		.loc 1 2152 3 view .LVU1129
 3427              		.loc 1 2155 3 view .LVU1130
 3428              		.loc 1 2155 15 is_stmt 0 view .LVU1131
 3429 0116 C369     		ldr	r3, [r0, #28]
 3430 0118 4FF6F372 		movw	r2, #65523
 3431 011c 1340     		ands	r3, r3, r2
 3432 011e C361     		str	r3, [r0, #28]
 3433              		.loc 1 2158 3 is_stmt 1 view .LVU1132
 3434              		.loc 1 2158 15 is_stmt 0 view .LVU1133
 3435 0120 C369     		ldr	r3, [r0, #28]
 3436 0122 1943     		orrs	r1, r1, r3
 3437 0124 C161     		str	r1, [r0, #28]
 3438              	.LBE63:
 3439              	.LBE62:
 3440              		.loc 1 1952 1 view .LVU1134
 3441 0126 F0BC     		pop	{r4, r5, r6, r7}
 3442              		.cfi_restore 7
 3443              		.cfi_restore 6
 3444              		.cfi_restore 5
 3445              		.cfi_restore 4
 3446              		.cfi_def_cfa_offset 0
 3447 0128 7047     		bx	lr
 3448              		.cfi_endproc
 3449              	.LFE162:
 3450              		.size	TIM_ICInit, .-TIM_ICInit
 3451 012a 00BF     		.section	.text.TIM_ICStructInit,"ax",%progbits
 3452              		.align	1
 3453              		.p2align 4,,15
 3454              		.global	TIM_ICStructInit
 3455              		.syntax unified
 3456              		.thumb
 3457              		.thumb_func
 3458              		.fpu fpv4-sp-d16
 3459              		.type	TIM_ICStructInit, %function
 3460              	TIM_ICStructInit:
 3461              	.LVL277:
 3462              	.LFB163:
 3463              		.loc 1 1961 1 is_stmt 1 view -0
 3464              		.cfi_startproc
 3465              		@ args = 0, pretend = 0, frame = 0
 3466              		@ frame_needed = 0, uses_anonymous_args = 0
 3467              		@ link register save eliminated.
 3468              		.loc 1 1963 3 view .LVU1136
 3469              		.loc 1 1963 33 is_stmt 0 view .LVU1137
 3470 0000 0023     		movs	r3, #0
 3471              		.loc 1 1965 37 view .LVU1138
 3472 0002 0122     		movs	r2, #1
 3473 0004 8280     		strh	r2, [r0, #4]	@ movhi
 3474              		.loc 1 1963 33 view .LVU1139
 3475 0006 0380     		strh	r3, [r0]	@ movhi
 3476              		.loc 1 1964 3 is_stmt 1 view .LVU1140
 3477              		.loc 1 1964 36 is_stmt 0 view .LVU1141
ARM GAS  C:\Users\USER\AppData\Local\Temp\ccNdlOSb.s 			page 62


 3478 0008 4380     		strh	r3, [r0, #2]	@ movhi
 3479              		.loc 1 1965 3 is_stmt 1 view .LVU1142
 3480              		.loc 1 1966 3 view .LVU1143
 3481              		.loc 1 1966 37 is_stmt 0 view .LVU1144
 3482 000a C380     		strh	r3, [r0, #6]	@ movhi
 3483              		.loc 1 1967 3 is_stmt 1 view .LVU1145
 3484              		.loc 1 1967 34 is_stmt 0 view .LVU1146
 3485 000c 0381     		strh	r3, [r0, #8]	@ movhi
 3486              		.loc 1 1968 1 view .LVU1147
 3487 000e 7047     		bx	lr
 3488              		.cfi_endproc
 3489              	.LFE163:
 3490              		.size	TIM_ICStructInit, .-TIM_ICStructInit
 3491              		.section	.text.TIM_PWMIConfig,"ax",%progbits
 3492              		.align	1
 3493              		.p2align 4,,15
 3494              		.global	TIM_PWMIConfig
 3495              		.syntax unified
 3496              		.thumb
 3497              		.thumb_func
 3498              		.fpu fpv4-sp-d16
 3499              		.type	TIM_PWMIConfig, %function
 3500              	TIM_PWMIConfig:
 3501              	.LVL278:
 3502              	.LFB164:
 3503              		.loc 1 1980 1 is_stmt 1 view -0
 3504              		.cfi_startproc
 3505              		@ args = 0, pretend = 0, frame = 0
 3506              		@ frame_needed = 0, uses_anonymous_args = 0
 3507              		.loc 1 1981 3 view .LVU1149
 3508              		.loc 1 1982 3 view .LVU1150
 3509              		.loc 1 1985 3 view .LVU1151
 3510              		.loc 1 1988 3 view .LVU1152
 3511              		.loc 1 1980 1 is_stmt 0 view .LVU1153
 3512 0000 2DE9F043 		push	{r4, r5, r6, r7, r8, r9, lr}
 3513              		.cfi_def_cfa_offset 28
 3514              		.cfi_offset 4, -28
 3515              		.cfi_offset 5, -24
 3516              		.cfi_offset 6, -20
 3517              		.cfi_offset 7, -16
 3518              		.cfi_offset 8, -12
 3519              		.cfi_offset 9, -8
 3520              		.cfi_offset 14, -4
 3521              		.loc 1 1988 23 view .LVU1154
 3522 0004 B1F802E0 		ldrh	lr, [r1, #2]
 3523              		.loc 1 1997 23 view .LVU1155
 3524 0008 B1F804C0 		ldrh	ip, [r1, #4]
 3525 000c 0B89     		ldrh	r3, [r1, #8]
 3526 000e CE88     		ldrh	r6, [r1, #6]
 3527              		.loc 1 2005 6 view .LVU1156
 3528 0010 0A88     		ldrh	r2, [r1]
 3529              		.loc 1 1988 6 view .LVU1157
 3530 0012 BEF1000F 		cmp	lr, #0
 3531 0016 4FEA0311 		lsl	r1, r3, #4
 3532              	.LVL279:
 3533              		.loc 1 1994 24 view .LVU1158
 3534 001a 0CBF     		ite	eq
ARM GAS  C:\Users\USER\AppData\Local\Temp\ccNdlOSb.s 			page 63


 3535 001c 0224     		moveq	r4, #2
 3536 001e 0024     		movne	r4, #0
 3537              	.LVL280:
 3538              		.loc 1 1997 3 is_stmt 1 view .LVU1159
 3539 0020 1B03     		lsls	r3, r3, #12
 3540              		.loc 1 1997 6 is_stmt 0 view .LVU1160
 3541 0022 BCF1010F 		cmp	ip, #1
 3542 0026 4FEA0625 		lsl	r5, r6, #8
 3543              		.loc 1 2003 25 view .LVU1161
 3544 002a 0CBF     		ite	eq
 3545 002c 0227     		moveq	r7, #2
 3546 002e 0127     		movne	r7, #1
 3547              	.LVL281:
 3548              		.loc 1 2005 3 is_stmt 1 view .LVU1162
 3549 0030 89B2     		uxth	r1, r1
 3550 0032 9BB2     		uxth	r3, r3
 3551 0034 ADB2     		uxth	r5, r5
 3552              		.loc 1 2005 6 is_stmt 0 view .LVU1163
 3553 0036 002A     		cmp	r2, #0
 3554 0038 41D1     		bne	.L143
 3555              		.loc 1 2008 5 is_stmt 1 view .LVU1164
 3556              	.LVL282:
 3557              	.LBB64:
 3558              	.LBI64:
 3559              		.loc 1 3208 13 view .LVU1165
 3560              	.LBB65:
 3561              		.loc 1 3211 3 view .LVU1166
 3562              		.loc 1 3214 3 view .LVU1167
 3563              		.loc 1 3214 14 is_stmt 0 view .LVU1168
 3564 003a 026A     		ldr	r2, [r0, #32]
 3565 003c 4FF6FE78 		movw	r8, #65534
 3566 0040 02EA0802 		and	r2, r2, r8
 3567 0044 0262     		str	r2, [r0, #32]
 3568              		.loc 1 3215 3 is_stmt 1 view .LVU1169
 3569              		.loc 1 3215 18 is_stmt 0 view .LVU1170
 3570 0046 D0F81880 		ldr	r8, [r0, #24]
 3571              		.loc 1 3216 17 view .LVU1171
 3572 004a 026A     		ldr	r2, [r0, #32]
 3573              		.loc 1 3215 12 view .LVU1172
 3574 004c 1FFA88F8 		uxth	r8, r8
 3575              	.LVL283:
 3576              		.loc 1 3216 3 is_stmt 1 view .LVU1173
 3577              		.loc 1 3216 11 is_stmt 0 view .LVU1174
 3578 0050 92B2     		uxth	r2, r2
 3579              	.LVL284:
 3580              		.loc 1 3219 3 is_stmt 1 view .LVU1175
 3581              		.loc 1 3220 3 view .LVU1176
 3582              		.loc 1 3219 12 is_stmt 0 view .LVU1177
 3583 0052 28F0F308 		bic	r8, r8, #243
 3584              	.LVL285:
 3585              		.loc 1 3223 11 view .LVU1178
 3586 0056 22F00A02 		bic	r2, r2, #10
 3587              	.LVL286:
 3588              		.loc 1 3223 11 view .LVU1179
 3589 005a 41EA0801 		orr	r1, r1, r8
 3590              	.LVL287:
 3591              		.loc 1 3223 3 is_stmt 1 view .LVU1180
ARM GAS  C:\Users\USER\AppData\Local\Temp\ccNdlOSb.s 			page 64


 3592              		.loc 1 3224 3 view .LVU1181
 3593              		.loc 1 3224 11 is_stmt 0 view .LVU1182
 3594 005e 4EEA0202 		orr	r2, lr, r2
 3595              	.LVL288:
 3596              		.loc 1 3227 3 is_stmt 1 view .LVU1183
 3597              		.loc 1 3227 15 is_stmt 0 view .LVU1184
 3598 0062 4CEA0101 		orr	r1, ip, r1
 3599              	.LVL289:
 3600              		.loc 1 3228 14 view .LVU1185
 3601 0066 42F00102 		orr	r2, r2, #1
 3602              	.LVL290:
 3603              		.loc 1 3227 15 view .LVU1186
 3604 006a 8161     		str	r1, [r0, #24]
 3605              		.loc 1 3228 3 is_stmt 1 view .LVU1187
 3606              		.loc 1 3228 14 is_stmt 0 view .LVU1188
 3607 006c 0262     		str	r2, [r0, #32]
 3608              	.LVL291:
 3609              		.loc 1 3228 14 view .LVU1189
 3610              	.LBE65:
 3611              	.LBE64:
 3612              		.loc 1 2011 5 is_stmt 1 view .LVU1190
 3613              	.LBB66:
 3614              	.LBI66:
 3615              		.loc 1 2099 6 view .LVU1191
 3616              	.LBB67:
 3617              		.loc 1 2102 3 view .LVU1192
 3618              		.loc 1 2103 3 view .LVU1193
 3619              		.loc 1 2106 3 view .LVU1194
 3620              		.loc 1 2106 15 is_stmt 0 view .LVU1195
 3621 006e 8269     		ldr	r2, [r0, #24]
 3622 0070 4FF6F371 		movw	r1, #65523
 3623 0074 0A40     		ands	r2, r2, r1
 3624 0076 8261     		str	r2, [r0, #24]
 3625              		.loc 1 2109 3 is_stmt 1 view .LVU1196
 3626              		.loc 1 2109 15 is_stmt 0 view .LVU1197
 3627 0078 8269     		ldr	r2, [r0, #24]
 3628 007a 1643     		orrs	r6, r6, r2
 3629 007c 8661     		str	r6, [r0, #24]
 3630              	.LVL292:
 3631              		.loc 1 2109 15 view .LVU1198
 3632              	.LBE67:
 3633              	.LBE66:
 3634              		.loc 1 2013 5 is_stmt 1 view .LVU1199
 3635              	.LBB68:
 3636              	.LBI68:
 3637              		.loc 1 3249 13 view .LVU1200
 3638              	.LBB69:
 3639              		.loc 1 3252 3 view .LVU1201
 3640              		.loc 1 3255 3 view .LVU1202
 3641              		.loc 1 3255 14 is_stmt 0 view .LVU1203
 3642 007e 026A     		ldr	r2, [r0, #32]
 3643 0080 4FF6EF71 		movw	r1, #65519
 3644 0084 0A40     		ands	r2, r2, r1
 3645 0086 0262     		str	r2, [r0, #32]
 3646              		.loc 1 3256 3 is_stmt 1 view .LVU1204
 3647              		.loc 1 3256 18 is_stmt 0 view .LVU1205
 3648 0088 8169     		ldr	r1, [r0, #24]
ARM GAS  C:\Users\USER\AppData\Local\Temp\ccNdlOSb.s 			page 65


 3649              	.LVL293:
 3650              		.loc 1 3257 3 is_stmt 1 view .LVU1206
 3651              		.loc 1 3257 17 is_stmt 0 view .LVU1207
 3652 008a 026A     		ldr	r2, [r0, #32]
 3653              		.loc 1 3261 12 view .LVU1208
 3654 008c 40F6FF46 		movw	r6, #3327
 3655              		.loc 1 3257 11 view .LVU1209
 3656 0090 92B2     		uxth	r2, r2
 3657              	.LVL294:
 3658              		.loc 1 3258 3 is_stmt 1 view .LVU1210
 3659              		.loc 1 3261 3 view .LVU1211
 3660              		.loc 1 3266 11 is_stmt 0 view .LVU1212
 3661 0092 22F0A002 		bic	r2, r2, #160
 3662              	.LVL295:
 3663              		.loc 1 3261 12 view .LVU1213
 3664 0096 3140     		ands	r1, r1, r6
 3665              	.LVL296:
 3666              		.loc 1 3262 3 is_stmt 1 view .LVU1214
 3667              		.loc 1 3262 12 is_stmt 0 view .LVU1215
 3668 0098 0B43     		orrs	r3, r3, r1
 3669              	.LVL297:
 3670              		.loc 1 3263 3 is_stmt 1 view .LVU1216
 3671              		.loc 1 3266 3 view .LVU1217
 3672              		.loc 1 3267 3 view .LVU1218
 3673              		.loc 1 3267 11 is_stmt 0 view .LVU1219
 3674 009a 42EA0414 		orr	r4, r2, r4, lsl #4
 3675              	.LVL298:
 3676              		.loc 1 3270 3 is_stmt 1 view .LVU1220
 3677              		.loc 1 3270 15 is_stmt 0 view .LVU1221
 3678 009e 43EA0727 		orr	r7, r3, r7, lsl #8
 3679              	.LVL299:
 3680              		.loc 1 3271 14 view .LVU1222
 3681 00a2 44F01004 		orr	r4, r4, #16
 3682              	.LVL300:
 3683              		.loc 1 3270 15 view .LVU1223
 3684 00a6 8761     		str	r7, [r0, #24]
 3685              		.loc 1 3271 3 is_stmt 1 view .LVU1224
 3686              		.loc 1 3271 14 is_stmt 0 view .LVU1225
 3687 00a8 0462     		str	r4, [r0, #32]
 3688              	.LVL301:
 3689              		.loc 1 3271 14 view .LVU1226
 3690              	.LBE69:
 3691              	.LBE68:
 3692              		.loc 1 2015 5 is_stmt 1 view .LVU1227
 3693              	.LBB70:
 3694              	.LBI70:
 3695              		.loc 1 2124 6 view .LVU1228
 3696              	.LBB71:
 3697              		.loc 1 2127 3 view .LVU1229
 3698              		.loc 1 2128 3 view .LVU1230
 3699              		.loc 1 2131 3 view .LVU1231
 3700              		.loc 1 2131 15 is_stmt 0 view .LVU1232
 3701 00aa 8369     		ldr	r3, [r0, #24]
 3702 00ac 4FF2FF32 		movw	r2, #62463
 3703 00b0 1340     		ands	r3, r3, r2
 3704 00b2 8361     		str	r3, [r0, #24]
 3705              		.loc 1 2134 3 is_stmt 1 view .LVU1233
ARM GAS  C:\Users\USER\AppData\Local\Temp\ccNdlOSb.s 			page 66


 3706              		.loc 1 2134 15 is_stmt 0 view .LVU1234
 3707 00b4 8369     		ldr	r3, [r0, #24]
 3708 00b6 1D43     		orrs	r5, r5, r3
 3709 00b8 8561     		str	r5, [r0, #24]
 3710              	.LBE71:
 3711              	.LBE70:
 3712              		.loc 1 2029 1 view .LVU1235
 3713 00ba BDE8F083 		pop	{r4, r5, r6, r7, r8, r9, pc}
 3714              	.LVL302:
 3715              	.L143:
 3716              		.loc 1 2020 5 is_stmt 1 view .LVU1236
 3717              	.LBB72:
 3718              	.LBI72:
 3719              		.loc 1 3249 13 view .LVU1237
 3720              	.LBB73:
 3721              		.loc 1 3252 3 view .LVU1238
 3722              		.loc 1 3255 3 view .LVU1239
 3723              		.loc 1 3255 14 is_stmt 0 view .LVU1240
 3724 00be 026A     		ldr	r2, [r0, #32]
 3725 00c0 4FF6EF78 		movw	r8, #65519
 3726 00c4 02EA0802 		and	r2, r2, r8
 3727 00c8 0262     		str	r2, [r0, #32]
 3728              		.loc 1 3256 3 is_stmt 1 view .LVU1241
 3729              		.loc 1 3256 18 is_stmt 0 view .LVU1242
 3730 00ca D0F81880 		ldr	r8, [r0, #24]
 3731              	.LVL303:
 3732              		.loc 1 3257 3 is_stmt 1 view .LVU1243
 3733              		.loc 1 3257 17 is_stmt 0 view .LVU1244
 3734 00ce 026A     		ldr	r2, [r0, #32]
 3735              		.loc 1 3261 12 view .LVU1245
 3736 00d0 40F6FF49 		movw	r9, #3327
 3737              		.loc 1 3257 11 view .LVU1246
 3738 00d4 92B2     		uxth	r2, r2
 3739              	.LVL304:
 3740              		.loc 1 3258 3 is_stmt 1 view .LVU1247
 3741              		.loc 1 3261 3 view .LVU1248
 3742              		.loc 1 3261 12 is_stmt 0 view .LVU1249
 3743 00d6 08EA0908 		and	r8, r8, r9
 3744              	.LVL305:
 3745              		.loc 1 3262 3 is_stmt 1 view .LVU1250
 3746              		.loc 1 3266 11 is_stmt 0 view .LVU1251
 3747 00da 22F0A002 		bic	r2, r2, #160
 3748              	.LVL306:
 3749              		.loc 1 3262 12 view .LVU1252
 3750 00de 48EA0303 		orr	r3, r8, r3
 3751              	.LVL307:
 3752              		.loc 1 3263 3 is_stmt 1 view .LVU1253
 3753              		.loc 1 3266 3 view .LVU1254
 3754              		.loc 1 3267 3 view .LVU1255
 3755              		.loc 1 3267 11 is_stmt 0 view .LVU1256
 3756 00e2 42EA0E12 		orr	r2, r2, lr, lsl #4
 3757              		.loc 1 3263 12 view .LVU1257
 3758 00e6 43EA0C23 		orr	r3, r3, ip, lsl #8
 3759              	.LVL308:
 3760              		.loc 1 3267 11 view .LVU1258
 3761 00ea 92B2     		uxth	r2, r2
 3762              	.LVL309:
ARM GAS  C:\Users\USER\AppData\Local\Temp\ccNdlOSb.s 			page 67


 3763              		.loc 1 3270 3 is_stmt 1 view .LVU1259
 3764              		.loc 1 3270 15 is_stmt 0 view .LVU1260
 3765 00ec 9BB2     		uxth	r3, r3
 3766              		.loc 1 3271 14 view .LVU1261
 3767 00ee 42F01002 		orr	r2, r2, #16
 3768              	.LVL310:
 3769              		.loc 1 3270 15 view .LVU1262
 3770 00f2 8361     		str	r3, [r0, #24]
 3771              		.loc 1 3271 3 is_stmt 1 view .LVU1263
 3772              		.loc 1 3271 14 is_stmt 0 view .LVU1264
 3773 00f4 0262     		str	r2, [r0, #32]
 3774              	.LVL311:
 3775              		.loc 1 3271 14 view .LVU1265
 3776              	.LBE73:
 3777              	.LBE72:
 3778              		.loc 1 2023 5 is_stmt 1 view .LVU1266
 3779              	.LBB74:
 3780              	.LBI74:
 3781              		.loc 1 2124 6 view .LVU1267
 3782              	.LBB75:
 3783              		.loc 1 2127 3 view .LVU1268
 3784              		.loc 1 2128 3 view .LVU1269
 3785              		.loc 1 2131 3 view .LVU1270
 3786              		.loc 1 2131 15 is_stmt 0 view .LVU1271
 3787 00f6 8369     		ldr	r3, [r0, #24]
 3788 00f8 4FF2FF32 		movw	r2, #62463
 3789 00fc 1340     		ands	r3, r3, r2
 3790 00fe 8361     		str	r3, [r0, #24]
 3791              		.loc 1 2134 3 is_stmt 1 view .LVU1272
 3792              		.loc 1 2134 15 is_stmt 0 view .LVU1273
 3793 0100 8369     		ldr	r3, [r0, #24]
 3794 0102 1D43     		orrs	r5, r5, r3
 3795 0104 8561     		str	r5, [r0, #24]
 3796              	.LVL312:
 3797              		.loc 1 2134 15 view .LVU1274
 3798              	.LBE75:
 3799              	.LBE74:
 3800              		.loc 1 2025 5 is_stmt 1 view .LVU1275
 3801              	.LBB76:
 3802              	.LBI76:
 3803              		.loc 1 3208 13 view .LVU1276
 3804              	.LBB77:
 3805              		.loc 1 3211 3 view .LVU1277
 3806              		.loc 1 3214 3 view .LVU1278
 3807              		.loc 1 3214 14 is_stmt 0 view .LVU1279
 3808 0106 036A     		ldr	r3, [r0, #32]
 3809 0108 4FF6FE72 		movw	r2, #65534
 3810 010c 1340     		ands	r3, r3, r2
 3811 010e 0362     		str	r3, [r0, #32]
 3812              		.loc 1 3215 3 is_stmt 1 view .LVU1280
 3813              		.loc 1 3215 18 is_stmt 0 view .LVU1281
 3814 0110 8269     		ldr	r2, [r0, #24]
 3815              		.loc 1 3216 17 view .LVU1282
 3816 0112 036A     		ldr	r3, [r0, #32]
 3817              		.loc 1 3215 12 view .LVU1283
 3818 0114 92B2     		uxth	r2, r2
 3819              	.LVL313:
ARM GAS  C:\Users\USER\AppData\Local\Temp\ccNdlOSb.s 			page 68


 3820              		.loc 1 3216 3 is_stmt 1 view .LVU1284
 3821              		.loc 1 3216 11 is_stmt 0 view .LVU1285
 3822 0116 9BB2     		uxth	r3, r3
 3823              	.LVL314:
 3824              		.loc 1 3219 3 is_stmt 1 view .LVU1286
 3825              		.loc 1 3220 3 view .LVU1287
 3826              		.loc 1 3219 12 is_stmt 0 view .LVU1288
 3827 0118 22F0F302 		bic	r2, r2, #243
 3828              	.LVL315:
 3829              		.loc 1 3223 11 view .LVU1289
 3830 011c 23F00A03 		bic	r3, r3, #10
 3831              	.LVL316:
 3832              		.loc 1 3223 11 view .LVU1290
 3833 0120 1143     		orrs	r1, r1, r2
 3834              	.LVL317:
 3835              		.loc 1 3223 3 is_stmt 1 view .LVU1291
 3836              		.loc 1 3224 3 view .LVU1292
 3837              		.loc 1 3224 11 is_stmt 0 view .LVU1293
 3838 0122 1C43     		orrs	r4, r4, r3
 3839              	.LVL318:
 3840              		.loc 1 3227 3 is_stmt 1 view .LVU1294
 3841              		.loc 1 3227 15 is_stmt 0 view .LVU1295
 3842 0124 0F43     		orrs	r7, r7, r1
 3843              	.LVL319:
 3844              		.loc 1 3228 14 view .LVU1296
 3845 0126 44F00104 		orr	r4, r4, #1
 3846              	.LVL320:
 3847              		.loc 1 3227 15 view .LVU1297
 3848 012a 8761     		str	r7, [r0, #24]
 3849              		.loc 1 3228 3 is_stmt 1 view .LVU1298
 3850              		.loc 1 3228 14 is_stmt 0 view .LVU1299
 3851 012c 0462     		str	r4, [r0, #32]
 3852              	.LVL321:
 3853              		.loc 1 3228 14 view .LVU1300
 3854              	.LBE77:
 3855              	.LBE76:
 3856              		.loc 1 2027 5 is_stmt 1 view .LVU1301
 3857              	.LBB78:
 3858              	.LBI78:
 3859              		.loc 1 2099 6 view .LVU1302
 3860              	.LBB79:
 3861              		.loc 1 2102 3 view .LVU1303
 3862              		.loc 1 2103 3 view .LVU1304
 3863              		.loc 1 2106 3 view .LVU1305
 3864              		.loc 1 2106 15 is_stmt 0 view .LVU1306
 3865 012e 8369     		ldr	r3, [r0, #24]
 3866 0130 4FF6F372 		movw	r2, #65523
 3867 0134 1340     		ands	r3, r3, r2
 3868 0136 8361     		str	r3, [r0, #24]
 3869              		.loc 1 2109 3 is_stmt 1 view .LVU1307
 3870              		.loc 1 2109 15 is_stmt 0 view .LVU1308
 3871 0138 8369     		ldr	r3, [r0, #24]
 3872 013a 1E43     		orrs	r6, r6, r3
 3873 013c 8661     		str	r6, [r0, #24]
 3874              	.LBE79:
 3875              	.LBE78:
 3876              		.loc 1 2029 1 view .LVU1309
ARM GAS  C:\Users\USER\AppData\Local\Temp\ccNdlOSb.s 			page 69


 3877 013e BDE8F083 		pop	{r4, r5, r6, r7, r8, r9, pc}
 3878              		.cfi_endproc
 3879              	.LFE164:
 3880              		.size	TIM_PWMIConfig, .-TIM_PWMIConfig
 3881 0142 00BF     		.section	.text.TIM_GetCapture1,"ax",%progbits
 3882              		.align	1
 3883              		.p2align 4,,15
 3884              		.global	TIM_GetCapture1
 3885              		.syntax unified
 3886              		.thumb
 3887              		.thumb_func
 3888              		.fpu fpv4-sp-d16
 3889              		.type	TIM_GetCapture1, %function
 3890              	TIM_GetCapture1:
 3891              	.LVL322:
 3892              	.LFB165:
 3893              		.loc 1 2037 1 is_stmt 1 view -0
 3894              		.cfi_startproc
 3895              		@ args = 0, pretend = 0, frame = 0
 3896              		@ frame_needed = 0, uses_anonymous_args = 0
 3897              		@ link register save eliminated.
 3898              		.loc 1 2039 3 view .LVU1311
 3899              		.loc 1 2042 3 view .LVU1312
 3900              		.loc 1 2042 14 is_stmt 0 view .LVU1313
 3901 0000 406B     		ldr	r0, [r0, #52]
 3902              	.LVL323:
 3903              		.loc 1 2043 1 view .LVU1314
 3904 0002 7047     		bx	lr
 3905              		.cfi_endproc
 3906              	.LFE165:
 3907              		.size	TIM_GetCapture1, .-TIM_GetCapture1
 3908              		.section	.text.TIM_GetCapture2,"ax",%progbits
 3909              		.align	1
 3910              		.p2align 4,,15
 3911              		.global	TIM_GetCapture2
 3912              		.syntax unified
 3913              		.thumb
 3914              		.thumb_func
 3915              		.fpu fpv4-sp-d16
 3916              		.type	TIM_GetCapture2, %function
 3917              	TIM_GetCapture2:
 3918              	.LVL324:
 3919              	.LFB166:
 3920              		.loc 1 2052 1 is_stmt 1 view -0
 3921              		.cfi_startproc
 3922              		@ args = 0, pretend = 0, frame = 0
 3923              		@ frame_needed = 0, uses_anonymous_args = 0
 3924              		@ link register save eliminated.
 3925              		.loc 1 2054 3 view .LVU1316
 3926              		.loc 1 2057 3 view .LVU1317
 3927              		.loc 1 2057 14 is_stmt 0 view .LVU1318
 3928 0000 806B     		ldr	r0, [r0, #56]
 3929              	.LVL325:
 3930              		.loc 1 2058 1 view .LVU1319
 3931 0002 7047     		bx	lr
 3932              		.cfi_endproc
 3933              	.LFE166:
ARM GAS  C:\Users\USER\AppData\Local\Temp\ccNdlOSb.s 			page 70


 3934              		.size	TIM_GetCapture2, .-TIM_GetCapture2
 3935              		.section	.text.TIM_GetCapture3,"ax",%progbits
 3936              		.align	1
 3937              		.p2align 4,,15
 3938              		.global	TIM_GetCapture3
 3939              		.syntax unified
 3940              		.thumb
 3941              		.thumb_func
 3942              		.fpu fpv4-sp-d16
 3943              		.type	TIM_GetCapture3, %function
 3944              	TIM_GetCapture3:
 3945              	.LVL326:
 3946              	.LFB167:
 3947              		.loc 1 2066 1 is_stmt 1 view -0
 3948              		.cfi_startproc
 3949              		@ args = 0, pretend = 0, frame = 0
 3950              		@ frame_needed = 0, uses_anonymous_args = 0
 3951              		@ link register save eliminated.
 3952              		.loc 1 2068 3 view .LVU1321
 3953              		.loc 1 2071 3 view .LVU1322
 3954              		.loc 1 2071 14 is_stmt 0 view .LVU1323
 3955 0000 C06B     		ldr	r0, [r0, #60]
 3956              	.LVL327:
 3957              		.loc 1 2072 1 view .LVU1324
 3958 0002 7047     		bx	lr
 3959              		.cfi_endproc
 3960              	.LFE167:
 3961              		.size	TIM_GetCapture3, .-TIM_GetCapture3
 3962              		.section	.text.TIM_GetCapture4,"ax",%progbits
 3963              		.align	1
 3964              		.p2align 4,,15
 3965              		.global	TIM_GetCapture4
 3966              		.syntax unified
 3967              		.thumb
 3968              		.thumb_func
 3969              		.fpu fpv4-sp-d16
 3970              		.type	TIM_GetCapture4, %function
 3971              	TIM_GetCapture4:
 3972              	.LVL328:
 3973              	.LFB168:
 3974              		.loc 1 2080 1 is_stmt 1 view -0
 3975              		.cfi_startproc
 3976              		@ args = 0, pretend = 0, frame = 0
 3977              		@ frame_needed = 0, uses_anonymous_args = 0
 3978              		@ link register save eliminated.
 3979              		.loc 1 2082 3 view .LVU1326
 3980              		.loc 1 2085 3 view .LVU1327
 3981              		.loc 1 2085 14 is_stmt 0 view .LVU1328
 3982 0000 006C     		ldr	r0, [r0, #64]
 3983              	.LVL329:
 3984              		.loc 1 2086 1 view .LVU1329
 3985 0002 7047     		bx	lr
 3986              		.cfi_endproc
 3987              	.LFE168:
 3988              		.size	TIM_GetCapture4, .-TIM_GetCapture4
 3989              		.section	.text.TIM_SetIC1Prescaler,"ax",%progbits
 3990              		.align	1
ARM GAS  C:\Users\USER\AppData\Local\Temp\ccNdlOSb.s 			page 71


 3991              		.p2align 4,,15
 3992              		.global	TIM_SetIC1Prescaler
 3993              		.syntax unified
 3994              		.thumb
 3995              		.thumb_func
 3996              		.fpu fpv4-sp-d16
 3997              		.type	TIM_SetIC1Prescaler, %function
 3998              	TIM_SetIC1Prescaler:
 3999              	.LVL330:
 4000              	.LFB169:
 4001              		.loc 1 2100 1 is_stmt 1 view -0
 4002              		.cfi_startproc
 4003              		@ args = 0, pretend = 0, frame = 0
 4004              		@ frame_needed = 0, uses_anonymous_args = 0
 4005              		@ link register save eliminated.
 4006              		.loc 1 2102 3 view .LVU1331
 4007              		.loc 1 2103 3 view .LVU1332
 4008              		.loc 1 2106 3 view .LVU1333
 4009              		.loc 1 2106 15 is_stmt 0 view .LVU1334
 4010 0000 8369     		ldr	r3, [r0, #24]
 4011 0002 4FF6F372 		movw	r2, #65523
 4012 0006 1340     		ands	r3, r3, r2
 4013 0008 8361     		str	r3, [r0, #24]
 4014              		.loc 1 2109 3 is_stmt 1 view .LVU1335
 4015              		.loc 1 2109 15 is_stmt 0 view .LVU1336
 4016 000a 8369     		ldr	r3, [r0, #24]
 4017 000c 1943     		orrs	r1, r1, r3
 4018              	.LVL331:
 4019              		.loc 1 2109 15 view .LVU1337
 4020 000e 8161     		str	r1, [r0, #24]
 4021              		.loc 1 2110 1 view .LVU1338
 4022 0010 7047     		bx	lr
 4023              		.cfi_endproc
 4024              	.LFE169:
 4025              		.size	TIM_SetIC1Prescaler, .-TIM_SetIC1Prescaler
 4026 0012 00BF     		.section	.text.TIM_SetIC2Prescaler,"ax",%progbits
 4027              		.align	1
 4028              		.p2align 4,,15
 4029              		.global	TIM_SetIC2Prescaler
 4030              		.syntax unified
 4031              		.thumb
 4032              		.thumb_func
 4033              		.fpu fpv4-sp-d16
 4034              		.type	TIM_SetIC2Prescaler, %function
 4035              	TIM_SetIC2Prescaler:
 4036              	.LVL332:
 4037              	.LFB170:
 4038              		.loc 1 2125 1 is_stmt 1 view -0
 4039              		.cfi_startproc
 4040              		@ args = 0, pretend = 0, frame = 0
 4041              		@ frame_needed = 0, uses_anonymous_args = 0
 4042              		@ link register save eliminated.
 4043              		.loc 1 2127 3 view .LVU1340
 4044              		.loc 1 2128 3 view .LVU1341
 4045              		.loc 1 2131 3 view .LVU1342
 4046              		.loc 1 2131 15 is_stmt 0 view .LVU1343
 4047 0000 8369     		ldr	r3, [r0, #24]
ARM GAS  C:\Users\USER\AppData\Local\Temp\ccNdlOSb.s 			page 72


 4048 0002 4FF2FF32 		movw	r2, #62463
 4049 0006 1340     		ands	r3, r3, r2
 4050 0008 8361     		str	r3, [r0, #24]
 4051              		.loc 1 2134 3 is_stmt 1 view .LVU1344
 4052              		.loc 1 2134 15 is_stmt 0 view .LVU1345
 4053 000a 8369     		ldr	r3, [r0, #24]
 4054              		.loc 1 2134 18 view .LVU1346
 4055 000c 0902     		lsls	r1, r1, #8
 4056              	.LVL333:
 4057              		.loc 1 2134 18 view .LVU1347
 4058 000e 89B2     		uxth	r1, r1
 4059              		.loc 1 2134 15 view .LVU1348
 4060 0010 1943     		orrs	r1, r1, r3
 4061 0012 8161     		str	r1, [r0, #24]
 4062              		.loc 1 2135 1 view .LVU1349
 4063 0014 7047     		bx	lr
 4064              		.cfi_endproc
 4065              	.LFE170:
 4066              		.size	TIM_SetIC2Prescaler, .-TIM_SetIC2Prescaler
 4067 0016 00BF     		.section	.text.TIM_SetIC3Prescaler,"ax",%progbits
 4068              		.align	1
 4069              		.p2align 4,,15
 4070              		.global	TIM_SetIC3Prescaler
 4071              		.syntax unified
 4072              		.thumb
 4073              		.thumb_func
 4074              		.fpu fpv4-sp-d16
 4075              		.type	TIM_SetIC3Prescaler, %function
 4076              	TIM_SetIC3Prescaler:
 4077              	.LVL334:
 4078              	.LFB171:
 4079              		.loc 1 2149 1 is_stmt 1 view -0
 4080              		.cfi_startproc
 4081              		@ args = 0, pretend = 0, frame = 0
 4082              		@ frame_needed = 0, uses_anonymous_args = 0
 4083              		@ link register save eliminated.
 4084              		.loc 1 2151 3 view .LVU1351
 4085              		.loc 1 2152 3 view .LVU1352
 4086              		.loc 1 2155 3 view .LVU1353
 4087              		.loc 1 2155 15 is_stmt 0 view .LVU1354
 4088 0000 C369     		ldr	r3, [r0, #28]
 4089 0002 4FF6F372 		movw	r2, #65523
 4090 0006 1340     		ands	r3, r3, r2
 4091 0008 C361     		str	r3, [r0, #28]
 4092              		.loc 1 2158 3 is_stmt 1 view .LVU1355
 4093              		.loc 1 2158 15 is_stmt 0 view .LVU1356
 4094 000a C369     		ldr	r3, [r0, #28]
 4095 000c 1943     		orrs	r1, r1, r3
 4096              	.LVL335:
 4097              		.loc 1 2158 15 view .LVU1357
 4098 000e C161     		str	r1, [r0, #28]
 4099              		.loc 1 2159 1 view .LVU1358
 4100 0010 7047     		bx	lr
 4101              		.cfi_endproc
 4102              	.LFE171:
 4103              		.size	TIM_SetIC3Prescaler, .-TIM_SetIC3Prescaler
 4104 0012 00BF     		.section	.text.TIM_SetIC4Prescaler,"ax",%progbits
ARM GAS  C:\Users\USER\AppData\Local\Temp\ccNdlOSb.s 			page 73


 4105              		.align	1
 4106              		.p2align 4,,15
 4107              		.global	TIM_SetIC4Prescaler
 4108              		.syntax unified
 4109              		.thumb
 4110              		.thumb_func
 4111              		.fpu fpv4-sp-d16
 4112              		.type	TIM_SetIC4Prescaler, %function
 4113              	TIM_SetIC4Prescaler:
 4114              	.LVL336:
 4115              	.LFB172:
 4116              		.loc 1 2173 1 is_stmt 1 view -0
 4117              		.cfi_startproc
 4118              		@ args = 0, pretend = 0, frame = 0
 4119              		@ frame_needed = 0, uses_anonymous_args = 0
 4120              		@ link register save eliminated.
 4121              		.loc 1 2175 3 view .LVU1360
 4122              		.loc 1 2176 3 view .LVU1361
 4123              		.loc 1 2179 3 view .LVU1362
 4124              		.loc 1 2179 15 is_stmt 0 view .LVU1363
 4125 0000 C369     		ldr	r3, [r0, #28]
 4126 0002 4FF2FF32 		movw	r2, #62463
 4127 0006 1340     		ands	r3, r3, r2
 4128 0008 C361     		str	r3, [r0, #28]
 4129              		.loc 1 2182 3 is_stmt 1 view .LVU1364
 4130              		.loc 1 2182 15 is_stmt 0 view .LVU1365
 4131 000a C369     		ldr	r3, [r0, #28]
 4132              		.loc 1 2182 18 view .LVU1366
 4133 000c 0902     		lsls	r1, r1, #8
 4134              	.LVL337:
 4135              		.loc 1 2182 18 view .LVU1367
 4136 000e 89B2     		uxth	r1, r1
 4137              		.loc 1 2182 15 view .LVU1368
 4138 0010 1943     		orrs	r1, r1, r3
 4139 0012 C161     		str	r1, [r0, #28]
 4140              		.loc 1 2183 1 view .LVU1369
 4141 0014 7047     		bx	lr
 4142              		.cfi_endproc
 4143              	.LFE172:
 4144              		.size	TIM_SetIC4Prescaler, .-TIM_SetIC4Prescaler
 4145 0016 00BF     		.section	.text.TIM_BDTRConfig,"ax",%progbits
 4146              		.align	1
 4147              		.p2align 4,,15
 4148              		.global	TIM_BDTRConfig
 4149              		.syntax unified
 4150              		.thumb
 4151              		.thumb_func
 4152              		.fpu fpv4-sp-d16
 4153              		.type	TIM_BDTRConfig, %function
 4154              	TIM_BDTRConfig:
 4155              	.LVL338:
 4156              	.LFB173:
 4157              		.loc 1 2226 1 is_stmt 1 view -0
 4158              		.cfi_startproc
 4159              		@ args = 0, pretend = 0, frame = 0
 4160              		@ frame_needed = 0, uses_anonymous_args = 0
 4161              		@ link register save eliminated.
ARM GAS  C:\Users\USER\AppData\Local\Temp\ccNdlOSb.s 			page 74


 4162              		.loc 1 2228 3 view .LVU1371
 4163              		.loc 1 2229 3 view .LVU1372
 4164              		.loc 1 2230 3 view .LVU1373
 4165              		.loc 1 2231 3 view .LVU1374
 4166              		.loc 1 2232 3 view .LVU1375
 4167              		.loc 1 2233 3 view .LVU1376
 4168              		.loc 1 2234 3 view .LVU1377
 4169              		.loc 1 2238 3 view .LVU1378
 4170              		.loc 1 2226 1 is_stmt 0 view .LVU1379
 4171 0000 70B4     		push	{r4, r5, r6}
 4172              		.cfi_def_cfa_offset 12
 4173              		.cfi_offset 4, -12
 4174              		.cfi_offset 5, -8
 4175              		.cfi_offset 6, -4
 4176              		.loc 1 2240 84 view .LVU1380
 4177 0002 0B88     		ldrh	r3, [r1]
 4178 0004 4C88     		ldrh	r4, [r1, #2]
 4179 0006 8A88     		ldrh	r2, [r1, #4]
 4180 0008 CE88     		ldrh	r6, [r1, #6]
 4181 000a 0D89     		ldrh	r5, [r1, #8]
 4182 000c 2343     		orrs	r3, r3, r4
 4183 000e 1343     		orrs	r3, r3, r2
 4184 0010 4C89     		ldrh	r4, [r1, #10]
 4185 0012 8A89     		ldrh	r2, [r1, #12]
 4186 0014 3343     		orrs	r3, r3, r6
 4187 0016 2B43     		orrs	r3, r3, r5
 4188 0018 2343     		orrs	r3, r3, r4
 4189 001a 1343     		orrs	r3, r3, r2
 4190              		.loc 1 2238 14 view .LVU1381
 4191 001c 4364     		str	r3, [r0, #68]
 4192              		.loc 1 2242 1 view .LVU1382
 4193 001e 70BC     		pop	{r4, r5, r6}
 4194              		.cfi_restore 6
 4195              		.cfi_restore 5
 4196              		.cfi_restore 4
 4197              		.cfi_def_cfa_offset 0
 4198 0020 7047     		bx	lr
 4199              		.cfi_endproc
 4200              	.LFE173:
 4201              		.size	TIM_BDTRConfig, .-TIM_BDTRConfig
 4202 0022 00BF     		.section	.text.TIM_BDTRStructInit,"ax",%progbits
 4203              		.align	1
 4204              		.p2align 4,,15
 4205              		.global	TIM_BDTRStructInit
 4206              		.syntax unified
 4207              		.thumb
 4208              		.thumb_func
 4209              		.fpu fpv4-sp-d16
 4210              		.type	TIM_BDTRStructInit, %function
 4211              	TIM_BDTRStructInit:
 4212              	.LVL339:
 4213              	.LFB174:
 4214              		.loc 1 2251 1 is_stmt 1 view -0
 4215              		.cfi_startproc
 4216              		@ args = 0, pretend = 0, frame = 0
 4217              		@ frame_needed = 0, uses_anonymous_args = 0
 4218              		@ link register save eliminated.
ARM GAS  C:\Users\USER\AppData\Local\Temp\ccNdlOSb.s 			page 75


 4219              		.loc 1 2253 3 view .LVU1384
 4220              		.loc 1 2253 37 is_stmt 0 view .LVU1385
 4221 0000 0023     		movs	r3, #0
 4222 0002 0380     		strh	r3, [r0]	@ movhi
 4223              		.loc 1 2254 3 is_stmt 1 view .LVU1386
 4224              		.loc 1 2254 37 is_stmt 0 view .LVU1387
 4225 0004 4380     		strh	r3, [r0, #2]	@ movhi
 4226              		.loc 1 2255 3 is_stmt 1 view .LVU1388
 4227              		.loc 1 2255 37 is_stmt 0 view .LVU1389
 4228 0006 8380     		strh	r3, [r0, #4]	@ movhi
 4229              		.loc 1 2256 3 is_stmt 1 view .LVU1390
 4230              		.loc 1 2256 36 is_stmt 0 view .LVU1391
 4231 0008 C380     		strh	r3, [r0, #6]	@ movhi
 4232              		.loc 1 2257 3 is_stmt 1 view .LVU1392
 4233              		.loc 1 2257 33 is_stmt 0 view .LVU1393
 4234 000a 0381     		strh	r3, [r0, #8]	@ movhi
 4235              		.loc 1 2258 3 is_stmt 1 view .LVU1394
 4236              		.loc 1 2258 41 is_stmt 0 view .LVU1395
 4237 000c 4381     		strh	r3, [r0, #10]	@ movhi
 4238              		.loc 1 2259 3 is_stmt 1 view .LVU1396
 4239              		.loc 1 2259 43 is_stmt 0 view .LVU1397
 4240 000e 8381     		strh	r3, [r0, #12]	@ movhi
 4241              		.loc 1 2260 1 view .LVU1398
 4242 0010 7047     		bx	lr
 4243              		.cfi_endproc
 4244              	.LFE174:
 4245              		.size	TIM_BDTRStructInit, .-TIM_BDTRStructInit
 4246 0012 00BF     		.section	.text.TIM_CtrlPWMOutputs,"ax",%progbits
 4247              		.align	1
 4248              		.p2align 4,,15
 4249              		.global	TIM_CtrlPWMOutputs
 4250              		.syntax unified
 4251              		.thumb
 4252              		.thumb_func
 4253              		.fpu fpv4-sp-d16
 4254              		.type	TIM_CtrlPWMOutputs, %function
 4255              	TIM_CtrlPWMOutputs:
 4256              	.LVL340:
 4257              	.LFB175:
 4258              		.loc 1 2270 1 is_stmt 1 view -0
 4259              		.cfi_startproc
 4260              		@ args = 0, pretend = 0, frame = 0
 4261              		@ frame_needed = 0, uses_anonymous_args = 0
 4262              		@ link register save eliminated.
 4263              		.loc 1 2272 3 view .LVU1400
 4264              		.loc 1 2273 3 view .LVU1401
 4265              		.loc 1 2275 3 view .LVU1402
 4266              		.loc 1 2278 16 is_stmt 0 view .LVU1403
 4267 0000 436C     		ldr	r3, [r0, #68]
 4268              		.loc 1 2275 6 view .LVU1404
 4269 0002 19B1     		cbz	r1, .L160
 4270              		.loc 1 2278 5 is_stmt 1 view .LVU1405
 4271              		.loc 1 2278 16 is_stmt 0 view .LVU1406
 4272 0004 43F40043 		orr	r3, r3, #32768
 4273 0008 4364     		str	r3, [r0, #68]
 4274 000a 7047     		bx	lr
 4275              	.L160:
ARM GAS  C:\Users\USER\AppData\Local\Temp\ccNdlOSb.s 			page 76


 4276              		.loc 1 2283 5 is_stmt 1 view .LVU1407
 4277              		.loc 1 2283 16 is_stmt 0 view .LVU1408
 4278 000c C3F30E03 		ubfx	r3, r3, #0, #15
 4279 0010 4364     		str	r3, [r0, #68]
 4280              		.loc 1 2285 1 view .LVU1409
 4281 0012 7047     		bx	lr
 4282              		.cfi_endproc
 4283              	.LFE175:
 4284              		.size	TIM_CtrlPWMOutputs, .-TIM_CtrlPWMOutputs
 4285              		.section	.text.TIM_SelectCOM,"ax",%progbits
 4286              		.align	1
 4287              		.p2align 4,,15
 4288              		.global	TIM_SelectCOM
 4289              		.syntax unified
 4290              		.thumb
 4291              		.thumb_func
 4292              		.fpu fpv4-sp-d16
 4293              		.type	TIM_SelectCOM, %function
 4294              	TIM_SelectCOM:
 4295              	.LVL341:
 4296              	.LFB176:
 4297              		.loc 1 2295 1 is_stmt 1 view -0
 4298              		.cfi_startproc
 4299              		@ args = 0, pretend = 0, frame = 0
 4300              		@ frame_needed = 0, uses_anonymous_args = 0
 4301              		@ link register save eliminated.
 4302              		.loc 1 2297 3 view .LVU1411
 4303              		.loc 1 2298 3 view .LVU1412
 4304              		.loc 1 2300 3 view .LVU1413
 4305              		.loc 1 2303 15 is_stmt 0 view .LVU1414
 4306 0000 4368     		ldr	r3, [r0, #4]
 4307              		.loc 1 2300 6 view .LVU1415
 4308 0002 19B1     		cbz	r1, .L163
 4309              		.loc 1 2303 5 is_stmt 1 view .LVU1416
 4310              		.loc 1 2303 15 is_stmt 0 view .LVU1417
 4311 0004 43F00403 		orr	r3, r3, #4
 4312 0008 4360     		str	r3, [r0, #4]
 4313 000a 7047     		bx	lr
 4314              	.L163:
 4315              		.loc 1 2308 5 is_stmt 1 view .LVU1418
 4316              		.loc 1 2308 15 is_stmt 0 view .LVU1419
 4317 000c 4FF6FB72 		movw	r2, #65531
 4318 0010 1340     		ands	r3, r3, r2
 4319 0012 4360     		str	r3, [r0, #4]
 4320              		.loc 1 2310 1 view .LVU1420
 4321 0014 7047     		bx	lr
 4322              		.cfi_endproc
 4323              	.LFE176:
 4324              		.size	TIM_SelectCOM, .-TIM_SelectCOM
 4325 0016 00BF     		.section	.text.TIM_CCPreloadControl,"ax",%progbits
 4326              		.align	1
 4327              		.p2align 4,,15
 4328              		.global	TIM_CCPreloadControl
 4329              		.syntax unified
 4330              		.thumb
 4331              		.thumb_func
 4332              		.fpu fpv4-sp-d16
ARM GAS  C:\Users\USER\AppData\Local\Temp\ccNdlOSb.s 			page 77


 4333              		.type	TIM_CCPreloadControl, %function
 4334              	TIM_CCPreloadControl:
 4335              	.LVL342:
 4336              	.LFB177:
 4337              		.loc 1 2320 1 is_stmt 1 view -0
 4338              		.cfi_startproc
 4339              		@ args = 0, pretend = 0, frame = 0
 4340              		@ frame_needed = 0, uses_anonymous_args = 0
 4341              		@ link register save eliminated.
 4342              		.loc 1 2322 3 view .LVU1422
 4343              		.loc 1 2323 3 view .LVU1423
 4344              		.loc 1 2324 3 view .LVU1424
 4345              		.loc 1 2327 15 is_stmt 0 view .LVU1425
 4346 0000 4368     		ldr	r3, [r0, #4]
 4347              		.loc 1 2324 6 view .LVU1426
 4348 0002 19B1     		cbz	r1, .L166
 4349              		.loc 1 2327 5 is_stmt 1 view .LVU1427
 4350              		.loc 1 2327 15 is_stmt 0 view .LVU1428
 4351 0004 43F00103 		orr	r3, r3, #1
 4352 0008 4360     		str	r3, [r0, #4]
 4353 000a 7047     		bx	lr
 4354              	.L166:
 4355              		.loc 1 2332 5 is_stmt 1 view .LVU1429
 4356              		.loc 1 2332 15 is_stmt 0 view .LVU1430
 4357 000c 4FF6FE72 		movw	r2, #65534
 4358 0010 1340     		ands	r3, r3, r2
 4359 0012 4360     		str	r3, [r0, #4]
 4360              		.loc 1 2334 1 view .LVU1431
 4361 0014 7047     		bx	lr
 4362              		.cfi_endproc
 4363              	.LFE177:
 4364              		.size	TIM_CCPreloadControl, .-TIM_CCPreloadControl
 4365 0016 00BF     		.section	.text.TIM_ITConfig,"ax",%progbits
 4366              		.align	1
 4367              		.p2align 4,,15
 4368              		.global	TIM_ITConfig
 4369              		.syntax unified
 4370              		.thumb
 4371              		.thumb_func
 4372              		.fpu fpv4-sp-d16
 4373              		.type	TIM_ITConfig, %function
 4374              	TIM_ITConfig:
 4375              	.LVL343:
 4376              	.LFB178:
 4377              		.loc 1 2377 1 is_stmt 1 view -0
 4378              		.cfi_startproc
 4379              		@ args = 0, pretend = 0, frame = 0
 4380              		@ frame_needed = 0, uses_anonymous_args = 0
 4381              		@ link register save eliminated.
 4382              		.loc 1 2379 3 view .LVU1433
 4383              		.loc 1 2380 3 view .LVU1434
 4384              		.loc 1 2381 3 view .LVU1435
 4385              		.loc 1 2383 3 view .LVU1436
 4386              		.loc 1 2383 6 is_stmt 0 view .LVU1437
 4387 0000 1AB1     		cbz	r2, .L169
 4388              		.loc 1 2386 5 is_stmt 1 view .LVU1438
 4389              		.loc 1 2386 16 is_stmt 0 view .LVU1439
ARM GAS  C:\Users\USER\AppData\Local\Temp\ccNdlOSb.s 			page 78


 4390 0002 C368     		ldr	r3, [r0, #12]
 4391 0004 1943     		orrs	r1, r1, r3
 4392              	.LVL344:
 4393              		.loc 1 2386 16 view .LVU1440
 4394 0006 C160     		str	r1, [r0, #12]
 4395 0008 7047     		bx	lr
 4396              	.LVL345:
 4397              	.L169:
 4398              		.loc 1 2391 5 is_stmt 1 view .LVU1441
 4399              		.loc 1 2391 16 is_stmt 0 view .LVU1442
 4400 000a C368     		ldr	r3, [r0, #12]
 4401              		.loc 1 2391 19 view .LVU1443
 4402 000c C943     		mvns	r1, r1
 4403              	.LVL346:
 4404              		.loc 1 2391 19 view .LVU1444
 4405 000e 89B2     		uxth	r1, r1
 4406              		.loc 1 2391 16 view .LVU1445
 4407 0010 1940     		ands	r1, r1, r3
 4408 0012 C160     		str	r1, [r0, #12]
 4409              		.loc 1 2393 1 view .LVU1446
 4410 0014 7047     		bx	lr
 4411              		.cfi_endproc
 4412              	.LFE178:
 4413              		.size	TIM_ITConfig, .-TIM_ITConfig
 4414 0016 00BF     		.section	.text.TIM_GenerateEvent,"ax",%progbits
 4415              		.align	1
 4416              		.p2align 4,,15
 4417              		.global	TIM_GenerateEvent
 4418              		.syntax unified
 4419              		.thumb
 4420              		.thumb_func
 4421              		.fpu fpv4-sp-d16
 4422              		.type	TIM_GenerateEvent, %function
 4423              	TIM_GenerateEvent:
 4424              	.LVL347:
 4425              	.LFB179:
 4426              		.loc 1 2415 1 is_stmt 1 view -0
 4427              		.cfi_startproc
 4428              		@ args = 0, pretend = 0, frame = 0
 4429              		@ frame_needed = 0, uses_anonymous_args = 0
 4430              		@ link register save eliminated.
 4431              		.loc 1 2417 3 view .LVU1448
 4432              		.loc 1 2418 3 view .LVU1449
 4433              		.loc 1 2421 3 view .LVU1450
 4434              		.loc 1 2421 13 is_stmt 0 view .LVU1451
 4435 0000 4161     		str	r1, [r0, #20]
 4436              		.loc 1 2422 1 view .LVU1452
 4437 0002 7047     		bx	lr
 4438              		.cfi_endproc
 4439              	.LFE179:
 4440              		.size	TIM_GenerateEvent, .-TIM_GenerateEvent
 4441              		.section	.text.TIM_GetFlagStatus,"ax",%progbits
 4442              		.align	1
 4443              		.p2align 4,,15
 4444              		.global	TIM_GetFlagStatus
 4445              		.syntax unified
 4446              		.thumb
ARM GAS  C:\Users\USER\AppData\Local\Temp\ccNdlOSb.s 			page 79


 4447              		.thumb_func
 4448              		.fpu fpv4-sp-d16
 4449              		.type	TIM_GetFlagStatus, %function
 4450              	TIM_GetFlagStatus:
 4451              	.LVL348:
 4452              	.LFB180:
 4453              		.loc 1 2448 1 is_stmt 1 view -0
 4454              		.cfi_startproc
 4455              		@ args = 0, pretend = 0, frame = 0
 4456              		@ frame_needed = 0, uses_anonymous_args = 0
 4457              		@ link register save eliminated.
 4458              		.loc 1 2449 3 view .LVU1454
 4459              		.loc 1 2451 3 view .LVU1455
 4460              		.loc 1 2452 3 view .LVU1456
 4461              		.loc 1 2455 3 view .LVU1457
 4462              		.loc 1 2455 12 is_stmt 0 view .LVU1458
 4463 0000 0369     		ldr	r3, [r0, #16]
 4464              	.LVL349:
 4465              		.loc 1 2463 3 is_stmt 1 view .LVU1459
 4466              		.loc 1 2455 6 is_stmt 0 view .LVU1460
 4467 0002 1942     		tst	r1, r3
 4468              		.loc 1 2464 1 view .LVU1461
 4469 0004 14BF     		ite	ne
 4470 0006 0120     		movne	r0, #1
 4471              	.LVL350:
 4472              		.loc 1 2464 1 view .LVU1462
 4473 0008 0020     		moveq	r0, #0
 4474 000a 7047     		bx	lr
 4475              		.cfi_endproc
 4476              	.LFE180:
 4477              		.size	TIM_GetFlagStatus, .-TIM_GetFlagStatus
 4478              		.section	.text.TIM_ClearFlag,"ax",%progbits
 4479              		.align	1
 4480              		.p2align 4,,15
 4481              		.global	TIM_ClearFlag
 4482              		.syntax unified
 4483              		.thumb
 4484              		.thumb_func
 4485              		.fpu fpv4-sp-d16
 4486              		.type	TIM_ClearFlag, %function
 4487              	TIM_ClearFlag:
 4488              	.LVL351:
 4489              	.LFB181:
 4490              		.loc 1 2490 1 is_stmt 1 view -0
 4491              		.cfi_startproc
 4492              		@ args = 0, pretend = 0, frame = 0
 4493              		@ frame_needed = 0, uses_anonymous_args = 0
 4494              		@ link register save eliminated.
 4495              		.loc 1 2492 3 view .LVU1464
 4496              		.loc 1 2495 3 view .LVU1465
 4497              		.loc 1 2495 14 is_stmt 0 view .LVU1466
 4498 0000 C943     		mvns	r1, r1
 4499              	.LVL352:
 4500              		.loc 1 2495 14 view .LVU1467
 4501 0002 89B2     		uxth	r1, r1
 4502              		.loc 1 2495 12 view .LVU1468
 4503 0004 0161     		str	r1, [r0, #16]
ARM GAS  C:\Users\USER\AppData\Local\Temp\ccNdlOSb.s 			page 80


 4504              		.loc 1 2496 1 view .LVU1469
 4505 0006 7047     		bx	lr
 4506              		.cfi_endproc
 4507              	.LFE181:
 4508              		.size	TIM_ClearFlag, .-TIM_ClearFlag
 4509              		.section	.text.TIM_GetITStatus,"ax",%progbits
 4510              		.align	1
 4511              		.p2align 4,,15
 4512              		.global	TIM_GetITStatus
 4513              		.syntax unified
 4514              		.thumb
 4515              		.thumb_func
 4516              		.fpu fpv4-sp-d16
 4517              		.type	TIM_GetITStatus, %function
 4518              	TIM_GetITStatus:
 4519              	.LVL353:
 4520              	.LFB182:
 4521              		.loc 1 2518 1 is_stmt 1 view -0
 4522              		.cfi_startproc
 4523              		@ args = 0, pretend = 0, frame = 0
 4524              		@ frame_needed = 0, uses_anonymous_args = 0
 4525              		@ link register save eliminated.
 4526              		.loc 1 2519 3 view .LVU1471
 4527              		.loc 1 2520 3 view .LVU1472
 4528              		.loc 1 2522 3 view .LVU1473
 4529              		.loc 1 2523 3 view .LVU1474
 4530              		.loc 1 2525 3 view .LVU1475
 4531              		.loc 1 2525 18 is_stmt 0 view .LVU1476
 4532 0000 0369     		ldr	r3, [r0, #16]
 4533              	.LVL354:
 4534              		.loc 1 2527 3 is_stmt 1 view .LVU1477
 4535              		.loc 1 2527 18 is_stmt 0 view .LVU1478
 4536 0002 C268     		ldr	r2, [r0, #12]
 4537              	.LVL355:
 4538              		.loc 1 2528 3 is_stmt 1 view .LVU1479
 4539              		.loc 1 2528 6 is_stmt 0 view .LVU1480
 4540 0004 11EA0300 		ands	r0, r1, r3
 4541              	.LVL356:
 4542              		.loc 1 2528 6 view .LVU1481
 4543 0008 03D0     		beq	.L175
 4544              		.loc 1 2528 37 discriminator 1 view .LVU1482
 4545 000a 1142     		tst	r1, r2
 4546              		.loc 1 2534 15 discriminator 1 view .LVU1483
 4547 000c 14BF     		ite	ne
 4548 000e 0120     		movne	r0, #1
 4549 0010 0020     		moveq	r0, #0
 4550              	.L175:
 4551              	.LVL357:
 4552              		.loc 1 2536 3 is_stmt 1 view .LVU1484
 4553              		.loc 1 2537 1 is_stmt 0 view .LVU1485
 4554 0012 7047     		bx	lr
 4555              		.cfi_endproc
 4556              	.LFE182:
 4557              		.size	TIM_GetITStatus, .-TIM_GetITStatus
 4558              		.section	.text.TIM_ClearITPendingBit,"ax",%progbits
 4559              		.align	1
 4560              		.p2align 4,,15
ARM GAS  C:\Users\USER\AppData\Local\Temp\ccNdlOSb.s 			page 81


 4561              		.global	TIM_ClearITPendingBit
 4562              		.syntax unified
 4563              		.thumb
 4564              		.thumb_func
 4565              		.fpu fpv4-sp-d16
 4566              		.type	TIM_ClearITPendingBit, %function
 4567              	TIM_ClearITPendingBit:
 4568              	.LFB207:
 4569              		.cfi_startproc
 4570              		@ args = 0, pretend = 0, frame = 0
 4571              		@ frame_needed = 0, uses_anonymous_args = 0
 4572              		@ link register save eliminated.
 4573 0000 C943     		mvns	r1, r1
 4574 0002 89B2     		uxth	r1, r1
 4575 0004 0161     		str	r1, [r0, #16]
 4576 0006 7047     		bx	lr
 4577              		.cfi_endproc
 4578              	.LFE207:
 4579              		.size	TIM_ClearITPendingBit, .-TIM_ClearITPendingBit
 4580              		.section	.text.TIM_DMAConfig,"ax",%progbits
 4581              		.align	1
 4582              		.p2align 4,,15
 4583              		.global	TIM_DMAConfig
 4584              		.syntax unified
 4585              		.thumb
 4586              		.thumb_func
 4587              		.fpu fpv4-sp-d16
 4588              		.type	TIM_DMAConfig, %function
 4589              	TIM_DMAConfig:
 4590              	.LVL358:
 4591              	.LFB184:
 4592              		.loc 1 2596 1 is_stmt 1 view -0
 4593              		.cfi_startproc
 4594              		@ args = 0, pretend = 0, frame = 0
 4595              		@ frame_needed = 0, uses_anonymous_args = 0
 4596              		@ link register save eliminated.
 4597              		.loc 1 2598 3 view .LVU1487
 4598              		.loc 1 2599 3 view .LVU1488
 4599              		.loc 1 2600 3 view .LVU1489
 4600              		.loc 1 2603 3 view .LVU1490
 4601              		.loc 1 2603 27 is_stmt 0 view .LVU1491
 4602 0000 0A43     		orrs	r2, r2, r1
 4603              	.LVL359:
 4604              		.loc 1 2603 13 view .LVU1492
 4605 0002 8264     		str	r2, [r0, #72]
 4606              		.loc 1 2604 1 view .LVU1493
 4607 0004 7047     		bx	lr
 4608              		.cfi_endproc
 4609              	.LFE184:
 4610              		.size	TIM_DMAConfig, .-TIM_DMAConfig
 4611 0006 00BF     		.section	.text.TIM_DMACmd,"ax",%progbits
 4612              		.align	1
 4613              		.p2align 4,,15
 4614              		.global	TIM_DMACmd
 4615              		.syntax unified
 4616              		.thumb
 4617              		.thumb_func
ARM GAS  C:\Users\USER\AppData\Local\Temp\ccNdlOSb.s 			page 82


 4618              		.fpu fpv4-sp-d16
 4619              		.type	TIM_DMACmd, %function
 4620              	TIM_DMACmd:
 4621              	.LFB205:
 4622              		.cfi_startproc
 4623              		@ args = 0, pretend = 0, frame = 0
 4624              		@ frame_needed = 0, uses_anonymous_args = 0
 4625              		@ link register save eliminated.
 4626 0000 FFF7FEBF 		b	TIM_ITConfig
 4627              		.cfi_endproc
 4628              	.LFE205:
 4629              		.size	TIM_DMACmd, .-TIM_DMACmd
 4630              		.section	.text.TIM_SelectCCDMA,"ax",%progbits
 4631              		.align	1
 4632              		.p2align 4,,15
 4633              		.global	TIM_SelectCCDMA
 4634              		.syntax unified
 4635              		.thumb
 4636              		.thumb_func
 4637              		.fpu fpv4-sp-d16
 4638              		.type	TIM_SelectCCDMA, %function
 4639              	TIM_SelectCCDMA:
 4640              	.LVL360:
 4641              	.LFB186:
 4642              		.loc 1 2649 1 is_stmt 1 view -0
 4643              		.cfi_startproc
 4644              		@ args = 0, pretend = 0, frame = 0
 4645              		@ frame_needed = 0, uses_anonymous_args = 0
 4646              		@ link register save eliminated.
 4647              		.loc 1 2651 3 view .LVU1495
 4648              		.loc 1 2652 3 view .LVU1496
 4649              		.loc 1 2654 3 view .LVU1497
 4650              		.loc 1 2657 15 is_stmt 0 view .LVU1498
 4651 0000 4368     		ldr	r3, [r0, #4]
 4652              		.loc 1 2654 6 view .LVU1499
 4653 0002 19B1     		cbz	r1, .L181
 4654              		.loc 1 2657 5 is_stmt 1 view .LVU1500
 4655              		.loc 1 2657 15 is_stmt 0 view .LVU1501
 4656 0004 43F00803 		orr	r3, r3, #8
 4657 0008 4360     		str	r3, [r0, #4]
 4658 000a 7047     		bx	lr
 4659              	.L181:
 4660              		.loc 1 2662 5 is_stmt 1 view .LVU1502
 4661              		.loc 1 2662 15 is_stmt 0 view .LVU1503
 4662 000c 4FF6F772 		movw	r2, #65527
 4663 0010 1340     		ands	r3, r3, r2
 4664 0012 4360     		str	r3, [r0, #4]
 4665              		.loc 1 2664 1 view .LVU1504
 4666 0014 7047     		bx	lr
 4667              		.cfi_endproc
 4668              	.LFE186:
 4669              		.size	TIM_SelectCCDMA, .-TIM_SelectCCDMA
 4670 0016 00BF     		.section	.text.TIM_InternalClockConfig,"ax",%progbits
 4671              		.align	1
 4672              		.p2align 4,,15
 4673              		.global	TIM_InternalClockConfig
 4674              		.syntax unified
ARM GAS  C:\Users\USER\AppData\Local\Temp\ccNdlOSb.s 			page 83


 4675              		.thumb
 4676              		.thumb_func
 4677              		.fpu fpv4-sp-d16
 4678              		.type	TIM_InternalClockConfig, %function
 4679              	TIM_InternalClockConfig:
 4680              	.LVL361:
 4681              	.LFB187:
 4682              		.loc 1 2688 1 is_stmt 1 view -0
 4683              		.cfi_startproc
 4684              		@ args = 0, pretend = 0, frame = 0
 4685              		@ frame_needed = 0, uses_anonymous_args = 0
 4686              		@ link register save eliminated.
 4687              		.loc 1 2690 3 view .LVU1506
 4688              		.loc 1 2693 3 view .LVU1507
 4689              		.loc 1 2693 14 is_stmt 0 view .LVU1508
 4690 0000 8368     		ldr	r3, [r0, #8]
 4691 0002 4FF6F872 		movw	r2, #65528
 4692 0006 1340     		ands	r3, r3, r2
 4693 0008 8360     		str	r3, [r0, #8]
 4694              		.loc 1 2694 1 view .LVU1509
 4695 000a 7047     		bx	lr
 4696              		.cfi_endproc
 4697              	.LFE187:
 4698              		.size	TIM_InternalClockConfig, .-TIM_InternalClockConfig
 4699              		.section	.text.TIM_ITRxExternalClockConfig,"ax",%progbits
 4700              		.align	1
 4701              		.p2align 4,,15
 4702              		.global	TIM_ITRxExternalClockConfig
 4703              		.syntax unified
 4704              		.thumb
 4705              		.thumb_func
 4706              		.fpu fpv4-sp-d16
 4707              		.type	TIM_ITRxExternalClockConfig, %function
 4708              	TIM_ITRxExternalClockConfig:
 4709              	.LVL362:
 4710              	.LFB188:
 4711              		.loc 1 2709 1 is_stmt 1 view -0
 4712              		.cfi_startproc
 4713              		@ args = 0, pretend = 0, frame = 0
 4714              		@ frame_needed = 0, uses_anonymous_args = 0
 4715              		@ link register save eliminated.
 4716              		.loc 1 2711 3 view .LVU1511
 4717              		.loc 1 2712 3 view .LVU1512
 4718              		.loc 1 2715 3 view .LVU1513
 4719              	.LBB80:
 4720              	.LBI80:
 4721              		.loc 1 2896 6 view .LVU1514
 4722              	.LBB81:
 4723              		.loc 1 2898 3 view .LVU1515
 4724              		.loc 1 2901 3 view .LVU1516
 4725              		.loc 1 2902 3 view .LVU1517
 4726              		.loc 1 2905 3 view .LVU1518
 4727              		.loc 1 2905 17 is_stmt 0 view .LVU1519
 4728 0000 8268     		ldr	r2, [r0, #8]
 4729              	.LVL363:
 4730              		.loc 1 2908 3 is_stmt 1 view .LVU1520
 4731              		.loc 1 2908 11 is_stmt 0 view .LVU1521
ARM GAS  C:\Users\USER\AppData\Local\Temp\ccNdlOSb.s 			page 84


 4732 0002 4FF68F73 		movw	r3, #65423
 4733 0006 1340     		ands	r3, r3, r2
 4734              	.LVL364:
 4735              		.loc 1 2911 3 is_stmt 1 view .LVU1522
 4736              		.loc 1 2914 3 view .LVU1523
 4737              		.loc 1 2914 14 is_stmt 0 view .LVU1524
 4738 0008 1943     		orrs	r1, r1, r3
 4739              	.LVL365:
 4740              		.loc 1 2914 14 view .LVU1525
 4741 000a 8160     		str	r1, [r0, #8]
 4742              	.LVL366:
 4743              		.loc 1 2914 14 view .LVU1526
 4744              	.LBE81:
 4745              	.LBE80:
 4746              		.loc 1 2718 3 is_stmt 1 view .LVU1527
 4747              		.loc 1 2718 14 is_stmt 0 view .LVU1528
 4748 000c 8368     		ldr	r3, [r0, #8]
 4749 000e 43F00703 		orr	r3, r3, #7
 4750 0012 8360     		str	r3, [r0, #8]
 4751              		.loc 1 2719 1 view .LVU1529
 4752 0014 7047     		bx	lr
 4753              		.cfi_endproc
 4754              	.LFE188:
 4755              		.size	TIM_ITRxExternalClockConfig, .-TIM_ITRxExternalClockConfig
 4756 0016 00BF     		.section	.text.TIM_TIxExternalClockConfig,"ax",%progbits
 4757              		.align	1
 4758              		.p2align 4,,15
 4759              		.global	TIM_TIxExternalClockConfig
 4760              		.syntax unified
 4761              		.thumb
 4762              		.thumb_func
 4763              		.fpu fpv4-sp-d16
 4764              		.type	TIM_TIxExternalClockConfig, %function
 4765              	TIM_TIxExternalClockConfig:
 4766              	.LVL367:
 4767              	.LFB189:
 4768              		.loc 1 2740 1 is_stmt 1 view -0
 4769              		.cfi_startproc
 4770              		@ args = 0, pretend = 0, frame = 0
 4771              		@ frame_needed = 0, uses_anonymous_args = 0
 4772              		@ link register save eliminated.
 4773              		.loc 1 2742 3 view .LVU1531
 4774              		.loc 1 2743 3 view .LVU1532
 4775              		.loc 1 2744 3 view .LVU1533
 4776              		.loc 1 2747 3 view .LVU1534
 4777              		.loc 1 2747 6 is_stmt 0 view .LVU1535
 4778 0000 6029     		cmp	r1, #96
 4779              		.loc 1 2740 1 view .LVU1536
 4780 0002 70B4     		push	{r4, r5, r6}
 4781              		.cfi_def_cfa_offset 12
 4782              		.cfi_offset 4, -12
 4783              		.cfi_offset 5, -8
 4784              		.cfi_offset 6, -4
 4785              	.LBB82:
 4786              	.LBB83:
 4787              		.loc 1 3255 14 view .LVU1537
 4788 0004 046A     		ldr	r4, [r0, #32]
ARM GAS  C:\Users\USER\AppData\Local\Temp\ccNdlOSb.s 			page 85


 4789              	.LBE83:
 4790              	.LBE82:
 4791              		.loc 1 2747 6 view .LVU1538
 4792 0006 21D0     		beq	.L189
 4793              		.loc 1 2753 5 is_stmt 1 view .LVU1539
 4794              	.LVL368:
 4795              	.LBB85:
 4796              	.LBI85:
 4797              		.loc 1 3208 13 view .LVU1540
 4798              	.LBB86:
 4799              		.loc 1 3211 3 view .LVU1541
 4800              		.loc 1 3214 3 view .LVU1542
 4801              		.loc 1 3214 14 is_stmt 0 view .LVU1543
 4802 0008 4FF6FE75 		movw	r5, #65534
 4803 000c 2C40     		ands	r4, r4, r5
 4804 000e 0462     		str	r4, [r0, #32]
 4805              		.loc 1 3215 3 is_stmt 1 view .LVU1544
 4806              		.loc 1 3215 18 is_stmt 0 view .LVU1545
 4807 0010 8469     		ldr	r4, [r0, #24]
 4808              		.loc 1 3216 17 view .LVU1546
 4809 0012 056A     		ldr	r5, [r0, #32]
 4810              		.loc 1 3215 12 view .LVU1547
 4811 0014 A4B2     		uxth	r4, r4
 4812              	.LVL369:
 4813              		.loc 1 3216 3 is_stmt 1 view .LVU1548
 4814              		.loc 1 3219 12 is_stmt 0 view .LVU1549
 4815 0016 24F0F304 		bic	r4, r4, #243
 4816              	.LVL370:
 4817              		.loc 1 3216 11 view .LVU1550
 4818 001a ADB2     		uxth	r5, r5
 4819              	.LVL371:
 4820              		.loc 1 3219 3 is_stmt 1 view .LVU1551
 4821              		.loc 1 3220 3 view .LVU1552
 4822 001c 44EA0314 		orr	r4, r4, r3, lsl #4
 4823              		.loc 1 3223 11 is_stmt 0 view .LVU1553
 4824 0020 25F00A05 		bic	r5, r5, #10
 4825              	.LVL372:
 4826              		.loc 1 3223 11 view .LVU1554
 4827 0024 A4B2     		uxth	r4, r4
 4828              	.LVL373:
 4829              		.loc 1 3223 3 is_stmt 1 view .LVU1555
 4830              		.loc 1 3224 3 view .LVU1556
 4831              		.loc 1 3224 11 is_stmt 0 view .LVU1557
 4832 0026 2A43     		orrs	r2, r2, r5
 4833              	.LVL374:
 4834              		.loc 1 3227 3 is_stmt 1 view .LVU1558
 4835              		.loc 1 3227 15 is_stmt 0 view .LVU1559
 4836 0028 44F00104 		orr	r4, r4, #1
 4837              	.LVL375:
 4838              		.loc 1 3228 14 view .LVU1560
 4839 002c 42F00102 		orr	r2, r2, #1
 4840              	.LVL376:
 4841              		.loc 1 3227 15 view .LVU1561
 4842 0030 8461     		str	r4, [r0, #24]
 4843              		.loc 1 3228 3 is_stmt 1 view .LVU1562
 4844              		.loc 1 3228 14 is_stmt 0 view .LVU1563
 4845 0032 0262     		str	r2, [r0, #32]
ARM GAS  C:\Users\USER\AppData\Local\Temp\ccNdlOSb.s 			page 86


 4846              	.LVL377:
 4847              	.L187:
 4848              		.loc 1 3228 14 view .LVU1564
 4849              	.LBE86:
 4850              	.LBE85:
 4851              		.loc 1 2756 3 is_stmt 1 view .LVU1565
 4852              	.LBB87:
 4853              	.LBI87:
 4854              		.loc 1 2896 6 view .LVU1566
 4855              	.LBB88:
 4856              		.loc 1 2898 3 view .LVU1567
 4857              		.loc 1 2901 3 view .LVU1568
 4858              		.loc 1 2902 3 view .LVU1569
 4859              		.loc 1 2905 3 view .LVU1570
 4860              		.loc 1 2905 17 is_stmt 0 view .LVU1571
 4861 0034 8268     		ldr	r2, [r0, #8]
 4862              	.LVL378:
 4863              		.loc 1 2908 3 is_stmt 1 view .LVU1572
 4864              		.loc 1 2908 11 is_stmt 0 view .LVU1573
 4865 0036 4FF68F73 		movw	r3, #65423
 4866              	.LVL379:
 4867              		.loc 1 2908 11 view .LVU1574
 4868 003a 1340     		ands	r3, r3, r2
 4869              	.LVL380:
 4870              		.loc 1 2911 3 is_stmt 1 view .LVU1575
 4871              		.loc 1 2914 3 view .LVU1576
 4872              		.loc 1 2914 14 is_stmt 0 view .LVU1577
 4873 003c 1943     		orrs	r1, r1, r3
 4874              	.LVL381:
 4875              		.loc 1 2914 14 view .LVU1578
 4876 003e 8160     		str	r1, [r0, #8]
 4877              	.LVL382:
 4878              		.loc 1 2914 14 view .LVU1579
 4879              	.LBE88:
 4880              	.LBE87:
 4881              		.loc 1 2758 3 is_stmt 1 view .LVU1580
 4882              		.loc 1 2758 14 is_stmt 0 view .LVU1581
 4883 0040 8368     		ldr	r3, [r0, #8]
 4884 0042 43F00703 		orr	r3, r3, #7
 4885 0046 8360     		str	r3, [r0, #8]
 4886              		.loc 1 2759 1 view .LVU1582
 4887 0048 70BC     		pop	{r4, r5, r6}
 4888              		.cfi_remember_state
 4889              		.cfi_restore 6
 4890              		.cfi_restore 5
 4891              		.cfi_restore 4
 4892              		.cfi_def_cfa_offset 0
 4893 004a 7047     		bx	lr
 4894              	.LVL383:
 4895              	.L189:
 4896              		.cfi_restore_state
 4897              		.loc 1 2749 5 is_stmt 1 view .LVU1583
 4898              	.LBB89:
 4899              	.LBI82:
 4900              		.loc 1 3249 13 view .LVU1584
 4901              	.LBB84:
 4902              		.loc 1 3252 3 view .LVU1585
ARM GAS  C:\Users\USER\AppData\Local\Temp\ccNdlOSb.s 			page 87


 4903              		.loc 1 3255 3 view .LVU1586
 4904              		.loc 1 3255 14 is_stmt 0 view .LVU1587
 4905 004c 4FF6EF75 		movw	r5, #65519
 4906 0050 2C40     		ands	r4, r4, r5
 4907 0052 0462     		str	r4, [r0, #32]
 4908              		.loc 1 3256 3 is_stmt 1 view .LVU1588
 4909              		.loc 1 3256 18 is_stmt 0 view .LVU1589
 4910 0054 8669     		ldr	r6, [r0, #24]
 4911              	.LVL384:
 4912              		.loc 1 3257 3 is_stmt 1 view .LVU1590
 4913              		.loc 1 3257 17 is_stmt 0 view .LVU1591
 4914 0056 056A     		ldr	r5, [r0, #32]
 4915              		.loc 1 3261 12 view .LVU1592
 4916 0058 40F6FF44 		movw	r4, #3327
 4917              		.loc 1 3257 11 view .LVU1593
 4918 005c ADB2     		uxth	r5, r5
 4919              	.LVL385:
 4920              		.loc 1 3258 3 is_stmt 1 view .LVU1594
 4921              		.loc 1 3261 3 view .LVU1595
 4922              		.loc 1 3261 12 is_stmt 0 view .LVU1596
 4923 005e 2640     		ands	r6, r6, r4
 4924              	.LVL386:
 4925              		.loc 1 3262 3 is_stmt 1 view .LVU1597
 4926              		.loc 1 3266 11 is_stmt 0 view .LVU1598
 4927 0060 25F0A005 		bic	r5, r5, #160
 4928              	.LVL387:
 4929              		.loc 1 3262 12 view .LVU1599
 4930 0064 46EA0336 		orr	r6, r6, r3, lsl #12
 4931              	.LVL388:
 4932              		.loc 1 3267 11 view .LVU1600
 4933 0068 45EA0212 		orr	r2, r5, r2, lsl #4
 4934              	.LVL389:
 4935              		.loc 1 3262 12 view .LVU1601
 4936 006c B6B2     		uxth	r6, r6
 4937              	.LVL390:
 4938              		.loc 1 3263 3 is_stmt 1 view .LVU1602
 4939              		.loc 1 3266 3 view .LVU1603
 4940              		.loc 1 3267 3 view .LVU1604
 4941              		.loc 1 3267 11 is_stmt 0 view .LVU1605
 4942 006e 92B2     		uxth	r2, r2
 4943              	.LVL391:
 4944              		.loc 1 3270 3 is_stmt 1 view .LVU1606
 4945              		.loc 1 3270 15 is_stmt 0 view .LVU1607
 4946 0070 46F48076 		orr	r6, r6, #256
 4947              	.LVL392:
 4948              		.loc 1 3271 14 view .LVU1608
 4949 0074 42F01002 		orr	r2, r2, #16
 4950              	.LVL393:
 4951              		.loc 1 3270 15 view .LVU1609
 4952 0078 8661     		str	r6, [r0, #24]
 4953              		.loc 1 3271 3 is_stmt 1 view .LVU1610
 4954              		.loc 1 3271 14 is_stmt 0 view .LVU1611
 4955 007a 0262     		str	r2, [r0, #32]
 4956 007c DAE7     		b	.L187
 4957              	.LBE84:
 4958              	.LBE89:
 4959              		.cfi_endproc
ARM GAS  C:\Users\USER\AppData\Local\Temp\ccNdlOSb.s 			page 88


 4960              	.LFE189:
 4961              		.size	TIM_TIxExternalClockConfig, .-TIM_TIxExternalClockConfig
 4962 007e 00BF     		.section	.text.TIM_ETRClockMode1Config,"ax",%progbits
 4963              		.align	1
 4964              		.p2align 4,,15
 4965              		.global	TIM_ETRClockMode1Config
 4966              		.syntax unified
 4967              		.thumb
 4968              		.thumb_func
 4969              		.fpu fpv4-sp-d16
 4970              		.type	TIM_ETRClockMode1Config, %function
 4971              	TIM_ETRClockMode1Config:
 4972              	.LVL394:
 4973              	.LFB190:
 4974              		.loc 1 2780 1 is_stmt 1 view -0
 4975              		.cfi_startproc
 4976              		@ args = 0, pretend = 0, frame = 0
 4977              		@ frame_needed = 0, uses_anonymous_args = 0
 4978              		@ link register save eliminated.
 4979              		.loc 1 2781 3 view .LVU1613
 4980              		.loc 1 2784 3 view .LVU1614
 4981              		.loc 1 2785 3 view .LVU1615
 4982              		.loc 1 2786 3 view .LVU1616
 4983              		.loc 1 2787 3 view .LVU1617
 4984              		.loc 1 2789 3 view .LVU1618
 4985              	.LBB90:
 4986              	.LBI90:
 4987              		.loc 1 3016 6 view .LVU1619
 4988              	.LBB91:
 4989              		.loc 1 3019 3 view .LVU1620
 4990              		.loc 1 3022 3 view .LVU1621
 4991              		.loc 1 3023 3 view .LVU1622
 4992              		.loc 1 3024 3 view .LVU1623
 4993              		.loc 1 3025 3 view .LVU1624
 4994              		.loc 1 3027 3 view .LVU1625
 4995              	.LBE91:
 4996              	.LBE90:
 4997              		.loc 1 2780 1 is_stmt 0 view .LVU1626
 4998 0000 10B4     		push	{r4}
 4999              		.cfi_def_cfa_offset 4
 5000              		.cfi_offset 4, -4
 5001              	.LBB93:
 5002              	.LBB92:
 5003              		.loc 1 3027 17 view .LVU1627
 5004 0002 8468     		ldr	r4, [r0, #8]
 5005              	.LVL395:
 5006              		.loc 1 3030 3 is_stmt 1 view .LVU1628
 5007              		.loc 1 3033 47 is_stmt 0 view .LVU1629
 5008 0004 42EA0323 		orr	r3, r2, r3, lsl #8
 5009              	.LVL396:
 5010              		.loc 1 3033 14 view .LVU1630
 5011 0008 1943     		orrs	r1, r1, r3
 5012              	.LVL397:
 5013              		.loc 1 3030 11 view .LVU1631
 5014 000a E4B2     		uxtb	r4, r4
 5015              	.LVL398:
 5016              		.loc 1 3033 3 is_stmt 1 view .LVU1632
ARM GAS  C:\Users\USER\AppData\Local\Temp\ccNdlOSb.s 			page 89


 5017              		.loc 1 3036 3 view .LVU1633
 5018              		.loc 1 3033 11 is_stmt 0 view .LVU1634
 5019 000c 0C43     		orrs	r4, r4, r1
 5020              	.LVL399:
 5021              		.loc 1 3036 14 view .LVU1635
 5022 000e A4B2     		uxth	r4, r4
 5023 0010 8460     		str	r4, [r0, #8]
 5024              	.LVL400:
 5025              		.loc 1 3036 14 view .LVU1636
 5026              	.LBE92:
 5027              	.LBE93:
 5028              		.loc 1 2792 3 is_stmt 1 view .LVU1637
 5029              		.loc 1 2792 17 is_stmt 0 view .LVU1638
 5030 0012 8368     		ldr	r3, [r0, #8]
 5031              	.LVL401:
 5032              		.loc 1 2795 3 is_stmt 1 view .LVU1639
 5033              		.loc 1 2798 3 view .LVU1640
 5034              		.loc 1 2801 3 view .LVU1641
 5035              		.loc 1 2806 1 is_stmt 0 view .LVU1642
 5036 0014 5DF8044B 		ldr	r4, [sp], #4
 5037              		.cfi_restore 4
 5038              		.cfi_def_cfa_offset 0
 5039 0018 23F07703 		bic	r3, r3, #119
 5040              	.LVL402:
 5041              		.loc 1 2806 1 view .LVU1643
 5042 001c 9BB2     		uxth	r3, r3
 5043              	.LVL403:
 5044              		.loc 1 2802 3 is_stmt 1 view .LVU1644
 5045              		.loc 1 2805 3 view .LVU1645
 5046              		.loc 1 2805 14 is_stmt 0 view .LVU1646
 5047 001e 43F07703 		orr	r3, r3, #119
 5048              	.LVL404:
 5049              		.loc 1 2805 14 view .LVU1647
 5050 0022 8360     		str	r3, [r0, #8]
 5051              		.loc 1 2806 1 view .LVU1648
 5052 0024 7047     		bx	lr
 5053              		.cfi_endproc
 5054              	.LFE190:
 5055              		.size	TIM_ETRClockMode1Config, .-TIM_ETRClockMode1Config
 5056 0026 00BF     		.section	.text.TIM_ETRClockMode2Config,"ax",%progbits
 5057              		.align	1
 5058              		.p2align 4,,15
 5059              		.global	TIM_ETRClockMode2Config
 5060              		.syntax unified
 5061              		.thumb
 5062              		.thumb_func
 5063              		.fpu fpv4-sp-d16
 5064              		.type	TIM_ETRClockMode2Config, %function
 5065              	TIM_ETRClockMode2Config:
 5066              	.LVL405:
 5067              	.LFB191:
 5068              		.loc 1 2827 1 is_stmt 1 view -0
 5069              		.cfi_startproc
 5070              		@ args = 0, pretend = 0, frame = 0
 5071              		@ frame_needed = 0, uses_anonymous_args = 0
 5072              		@ link register save eliminated.
 5073              		.loc 1 2829 3 view .LVU1650
ARM GAS  C:\Users\USER\AppData\Local\Temp\ccNdlOSb.s 			page 90


 5074              		.loc 1 2830 3 view .LVU1651
 5075              		.loc 1 2831 3 view .LVU1652
 5076              		.loc 1 2832 3 view .LVU1653
 5077              		.loc 1 2835 3 view .LVU1654
 5078              	.LBB94:
 5079              	.LBI94:
 5080              		.loc 1 3016 6 view .LVU1655
 5081              	.LBB95:
 5082              		.loc 1 3019 3 view .LVU1656
 5083              		.loc 1 3022 3 view .LVU1657
 5084              		.loc 1 3023 3 view .LVU1658
 5085              		.loc 1 3024 3 view .LVU1659
 5086              		.loc 1 3025 3 view .LVU1660
 5087              		.loc 1 3027 3 view .LVU1661
 5088              	.LBE95:
 5089              	.LBE94:
 5090              		.loc 1 2827 1 is_stmt 0 view .LVU1662
 5091 0000 10B4     		push	{r4}
 5092              		.cfi_def_cfa_offset 4
 5093              		.cfi_offset 4, -4
 5094              	.LBB97:
 5095              	.LBB96:
 5096              		.loc 1 3027 17 view .LVU1663
 5097 0002 8468     		ldr	r4, [r0, #8]
 5098              	.LVL406:
 5099              		.loc 1 3030 3 is_stmt 1 view .LVU1664
 5100              		.loc 1 3033 47 is_stmt 0 view .LVU1665
 5101 0004 42EA0323 		orr	r3, r2, r3, lsl #8
 5102              	.LVL407:
 5103              		.loc 1 3033 14 view .LVU1666
 5104 0008 1943     		orrs	r1, r1, r3
 5105              	.LVL408:
 5106              		.loc 1 3030 11 view .LVU1667
 5107 000a E4B2     		uxtb	r4, r4
 5108              	.LVL409:
 5109              		.loc 1 3033 3 is_stmt 1 view .LVU1668
 5110              		.loc 1 3036 3 view .LVU1669
 5111              		.loc 1 3033 11 is_stmt 0 view .LVU1670
 5112 000c 0C43     		orrs	r4, r4, r1
 5113              	.LVL410:
 5114              		.loc 1 3036 14 view .LVU1671
 5115 000e A4B2     		uxth	r4, r4
 5116 0010 8460     		str	r4, [r0, #8]
 5117              	.LVL411:
 5118              		.loc 1 3036 14 view .LVU1672
 5119              	.LBE96:
 5120              	.LBE97:
 5121              		.loc 1 2838 3 is_stmt 1 view .LVU1673
 5122              		.loc 1 2838 14 is_stmt 0 view .LVU1674
 5123 0012 8368     		ldr	r3, [r0, #8]
 5124              		.loc 1 2839 1 view .LVU1675
 5125 0014 5DF8044B 		ldr	r4, [sp], #4
 5126              		.cfi_restore 4
 5127              		.cfi_def_cfa_offset 0
 5128              		.loc 1 2838 14 view .LVU1676
 5129 0018 43F48043 		orr	r3, r3, #16384
 5130 001c 8360     		str	r3, [r0, #8]
ARM GAS  C:\Users\USER\AppData\Local\Temp\ccNdlOSb.s 			page 91


 5131              		.loc 1 2839 1 view .LVU1677
 5132 001e 7047     		bx	lr
 5133              		.cfi_endproc
 5134              	.LFE191:
 5135              		.size	TIM_ETRClockMode2Config, .-TIM_ETRClockMode2Config
 5136              		.section	.text.TIM_SelectInputTrigger,"ax",%progbits
 5137              		.align	1
 5138              		.p2align 4,,15
 5139              		.global	TIM_SelectInputTrigger
 5140              		.syntax unified
 5141              		.thumb
 5142              		.thumb_func
 5143              		.fpu fpv4-sp-d16
 5144              		.type	TIM_SelectInputTrigger, %function
 5145              	TIM_SelectInputTrigger:
 5146              	.LVL412:
 5147              	.LFB192:
 5148              		.loc 1 2897 1 is_stmt 1 view -0
 5149              		.cfi_startproc
 5150              		@ args = 0, pretend = 0, frame = 0
 5151              		@ frame_needed = 0, uses_anonymous_args = 0
 5152              		@ link register save eliminated.
 5153              		.loc 1 2898 3 view .LVU1679
 5154              		.loc 1 2901 3 view .LVU1680
 5155              		.loc 1 2902 3 view .LVU1681
 5156              		.loc 1 2905 3 view .LVU1682
 5157              		.loc 1 2905 17 is_stmt 0 view .LVU1683
 5158 0000 8268     		ldr	r2, [r0, #8]
 5159              	.LVL413:
 5160              		.loc 1 2908 3 is_stmt 1 view .LVU1684
 5161              		.loc 1 2908 11 is_stmt 0 view .LVU1685
 5162 0002 4FF68F73 		movw	r3, #65423
 5163 0006 1340     		ands	r3, r3, r2
 5164              	.LVL414:
 5165              		.loc 1 2911 3 is_stmt 1 view .LVU1686
 5166              		.loc 1 2914 3 view .LVU1687
 5167              		.loc 1 2914 14 is_stmt 0 view .LVU1688
 5168 0008 1943     		orrs	r1, r1, r3
 5169              	.LVL415:
 5170              		.loc 1 2914 14 view .LVU1689
 5171 000a 8160     		str	r1, [r0, #8]
 5172              		.loc 1 2915 1 view .LVU1690
 5173 000c 7047     		bx	lr
 5174              		.cfi_endproc
 5175              	.LFE192:
 5176              		.size	TIM_SelectInputTrigger, .-TIM_SelectInputTrigger
 5177 000e 00BF     		.section	.text.TIM_SelectOutputTrigger,"ax",%progbits
 5178              		.align	1
 5179              		.p2align 4,,15
 5180              		.global	TIM_SelectOutputTrigger
 5181              		.syntax unified
 5182              		.thumb
 5183              		.thumb_func
 5184              		.fpu fpv4-sp-d16
 5185              		.type	TIM_SelectOutputTrigger, %function
 5186              	TIM_SelectOutputTrigger:
 5187              	.LVL416:
ARM GAS  C:\Users\USER\AppData\Local\Temp\ccNdlOSb.s 			page 92


 5188              	.LFB193:
 5189              		.loc 1 2940 1 is_stmt 1 view -0
 5190              		.cfi_startproc
 5191              		@ args = 0, pretend = 0, frame = 0
 5192              		@ frame_needed = 0, uses_anonymous_args = 0
 5193              		@ link register save eliminated.
 5194              		.loc 1 2942 3 view .LVU1692
 5195              		.loc 1 2943 3 view .LVU1693
 5196              		.loc 1 2946 3 view .LVU1694
 5197              		.loc 1 2946 13 is_stmt 0 view .LVU1695
 5198 0000 4368     		ldr	r3, [r0, #4]
 5199 0002 4FF68F72 		movw	r2, #65423
 5200 0006 1340     		ands	r3, r3, r2
 5201 0008 4360     		str	r3, [r0, #4]
 5202              		.loc 1 2948 3 is_stmt 1 view .LVU1696
 5203              		.loc 1 2948 13 is_stmt 0 view .LVU1697
 5204 000a 4368     		ldr	r3, [r0, #4]
 5205 000c 1943     		orrs	r1, r1, r3
 5206              	.LVL417:
 5207              		.loc 1 2948 13 view .LVU1698
 5208 000e 4160     		str	r1, [r0, #4]
 5209              		.loc 1 2949 1 view .LVU1699
 5210 0010 7047     		bx	lr
 5211              		.cfi_endproc
 5212              	.LFE193:
 5213              		.size	TIM_SelectOutputTrigger, .-TIM_SelectOutputTrigger
 5214 0012 00BF     		.section	.text.TIM_SelectSlaveMode,"ax",%progbits
 5215              		.align	1
 5216              		.p2align 4,,15
 5217              		.global	TIM_SelectSlaveMode
 5218              		.syntax unified
 5219              		.thumb
 5220              		.thumb_func
 5221              		.fpu fpv4-sp-d16
 5222              		.type	TIM_SelectSlaveMode, %function
 5223              	TIM_SelectSlaveMode:
 5224              	.LVL418:
 5225              	.LFB194:
 5226              		.loc 1 2964 1 is_stmt 1 view -0
 5227              		.cfi_startproc
 5228              		@ args = 0, pretend = 0, frame = 0
 5229              		@ frame_needed = 0, uses_anonymous_args = 0
 5230              		@ link register save eliminated.
 5231              		.loc 1 2966 3 view .LVU1701
 5232              		.loc 1 2967 3 view .LVU1702
 5233              		.loc 1 2970 3 view .LVU1703
 5234              		.loc 1 2970 14 is_stmt 0 view .LVU1704
 5235 0000 8368     		ldr	r3, [r0, #8]
 5236 0002 4FF6F872 		movw	r2, #65528
 5237 0006 1340     		ands	r3, r3, r2
 5238 0008 8360     		str	r3, [r0, #8]
 5239              		.loc 1 2973 3 is_stmt 1 view .LVU1705
 5240              		.loc 1 2973 14 is_stmt 0 view .LVU1706
 5241 000a 8368     		ldr	r3, [r0, #8]
 5242 000c 1943     		orrs	r1, r1, r3
 5243              	.LVL419:
 5244              		.loc 1 2973 14 view .LVU1707
ARM GAS  C:\Users\USER\AppData\Local\Temp\ccNdlOSb.s 			page 93


 5245 000e 8160     		str	r1, [r0, #8]
 5246              		.loc 1 2974 1 view .LVU1708
 5247 0010 7047     		bx	lr
 5248              		.cfi_endproc
 5249              	.LFE194:
 5250              		.size	TIM_SelectSlaveMode, .-TIM_SelectSlaveMode
 5251 0012 00BF     		.section	.text.TIM_SelectMasterSlaveMode,"ax",%progbits
 5252              		.align	1
 5253              		.p2align 4,,15
 5254              		.global	TIM_SelectMasterSlaveMode
 5255              		.syntax unified
 5256              		.thumb
 5257              		.thumb_func
 5258              		.fpu fpv4-sp-d16
 5259              		.type	TIM_SelectMasterSlaveMode, %function
 5260              	TIM_SelectMasterSlaveMode:
 5261              	.LVL420:
 5262              	.LFB195:
 5263              		.loc 1 2987 1 is_stmt 1 view -0
 5264              		.cfi_startproc
 5265              		@ args = 0, pretend = 0, frame = 0
 5266              		@ frame_needed = 0, uses_anonymous_args = 0
 5267              		@ link register save eliminated.
 5268              		.loc 1 2989 3 view .LVU1710
 5269              		.loc 1 2990 3 view .LVU1711
 5270              		.loc 1 2993 3 view .LVU1712
 5271              		.loc 1 2993 14 is_stmt 0 view .LVU1713
 5272 0000 8368     		ldr	r3, [r0, #8]
 5273 0002 4FF67F72 		movw	r2, #65407
 5274 0006 1340     		ands	r3, r3, r2
 5275 0008 8360     		str	r3, [r0, #8]
 5276              		.loc 1 2996 3 is_stmt 1 view .LVU1714
 5277              		.loc 1 2996 14 is_stmt 0 view .LVU1715
 5278 000a 8368     		ldr	r3, [r0, #8]
 5279 000c 1943     		orrs	r1, r1, r3
 5280              	.LVL421:
 5281              		.loc 1 2996 14 view .LVU1716
 5282 000e 8160     		str	r1, [r0, #8]
 5283              		.loc 1 2997 1 view .LVU1717
 5284 0010 7047     		bx	lr
 5285              		.cfi_endproc
 5286              	.LFE195:
 5287              		.size	TIM_SelectMasterSlaveMode, .-TIM_SelectMasterSlaveMode
 5288 0012 00BF     		.section	.text.TIM_ETRConfig,"ax",%progbits
 5289              		.align	1
 5290              		.p2align 4,,15
 5291              		.global	TIM_ETRConfig
 5292              		.syntax unified
 5293              		.thumb
 5294              		.thumb_func
 5295              		.fpu fpv4-sp-d16
 5296              		.type	TIM_ETRConfig, %function
 5297              	TIM_ETRConfig:
 5298              	.LVL422:
 5299              	.LFB196:
 5300              		.loc 1 3018 1 is_stmt 1 view -0
 5301              		.cfi_startproc
ARM GAS  C:\Users\USER\AppData\Local\Temp\ccNdlOSb.s 			page 94


 5302              		@ args = 0, pretend = 0, frame = 0
 5303              		@ frame_needed = 0, uses_anonymous_args = 0
 5304              		@ link register save eliminated.
 5305              		.loc 1 3019 3 view .LVU1719
 5306              		.loc 1 3022 3 view .LVU1720
 5307              		.loc 1 3023 3 view .LVU1721
 5308              		.loc 1 3024 3 view .LVU1722
 5309              		.loc 1 3025 3 view .LVU1723
 5310              		.loc 1 3027 3 view .LVU1724
 5311              		.loc 1 3018 1 is_stmt 0 view .LVU1725
 5312 0000 10B4     		push	{r4}
 5313              		.cfi_def_cfa_offset 4
 5314              		.cfi_offset 4, -4
 5315              		.loc 1 3027 17 view .LVU1726
 5316 0002 8468     		ldr	r4, [r0, #8]
 5317              	.LVL423:
 5318              		.loc 1 3030 3 is_stmt 1 view .LVU1727
 5319              		.loc 1 3033 14 is_stmt 0 view .LVU1728
 5320 0004 0A43     		orrs	r2, r2, r1
 5321              	.LVL424:
 5322              		.loc 1 3033 14 view .LVU1729
 5323 0006 42EA0323 		orr	r3, r2, r3, lsl #8
 5324              	.LVL425:
 5325              		.loc 1 3030 11 view .LVU1730
 5326 000a E4B2     		uxtb	r4, r4
 5327              	.LVL426:
 5328              		.loc 1 3033 3 is_stmt 1 view .LVU1731
 5329              		.loc 1 3036 3 view .LVU1732
 5330              		.loc 1 3033 11 is_stmt 0 view .LVU1733
 5331 000c 1C43     		orrs	r4, r4, r3
 5332              	.LVL427:
 5333              		.loc 1 3036 14 view .LVU1734
 5334 000e A4B2     		uxth	r4, r4
 5335 0010 8460     		str	r4, [r0, #8]
 5336              		.loc 1 3037 1 view .LVU1735
 5337 0012 5DF8044B 		ldr	r4, [sp], #4
 5338              		.cfi_restore 4
 5339              		.cfi_def_cfa_offset 0
 5340 0016 7047     		bx	lr
 5341              		.cfi_endproc
 5342              	.LFE196:
 5343              		.size	TIM_ETRConfig, .-TIM_ETRConfig
 5344              		.section	.text.TIM_EncoderInterfaceConfig,"ax",%progbits
 5345              		.align	1
 5346              		.p2align 4,,15
 5347              		.global	TIM_EncoderInterfaceConfig
 5348              		.syntax unified
 5349              		.thumb
 5350              		.thumb_func
 5351              		.fpu fpv4-sp-d16
 5352              		.type	TIM_EncoderInterfaceConfig, %function
 5353              	TIM_EncoderInterfaceConfig:
 5354              	.LVL428:
 5355              	.LFB197:
 5356              		.loc 1 3076 1 is_stmt 1 view -0
 5357              		.cfi_startproc
 5358              		@ args = 0, pretend = 0, frame = 0
ARM GAS  C:\Users\USER\AppData\Local\Temp\ccNdlOSb.s 			page 95


 5359              		@ frame_needed = 0, uses_anonymous_args = 0
 5360              		@ link register save eliminated.
 5361              		.loc 1 3077 3 view .LVU1737
 5362              		.loc 1 3078 3 view .LVU1738
 5363              		.loc 1 3079 3 view .LVU1739
 5364              		.loc 1 3082 3 view .LVU1740
 5365              		.loc 1 3083 3 view .LVU1741
 5366              		.loc 1 3084 3 view .LVU1742
 5367              		.loc 1 3085 3 view .LVU1743
 5368              		.loc 1 3088 3 view .LVU1744
 5369              		.loc 1 3076 1 is_stmt 0 view .LVU1745
 5370 0000 F0B4     		push	{r4, r5, r6, r7}
 5371              		.cfi_def_cfa_offset 16
 5372              		.cfi_offset 4, -16
 5373              		.cfi_offset 5, -12
 5374              		.cfi_offset 6, -8
 5375              		.cfi_offset 7, -4
 5376              		.loc 1 3088 17 view .LVU1746
 5377 0002 8768     		ldr	r7, [r0, #8]
 5378              	.LVL429:
 5379              		.loc 1 3091 3 is_stmt 1 view .LVU1747
 5380              		.loc 1 3091 18 is_stmt 0 view .LVU1748
 5381 0004 8669     		ldr	r6, [r0, #24]
 5382              	.LVL430:
 5383              		.loc 1 3094 3 is_stmt 1 view .LVU1749
 5384              		.loc 1 3094 17 is_stmt 0 view .LVU1750
 5385 0006 D0F820C0 		ldr	ip, [r0, #32]
 5386              	.LVL431:
 5387              		.loc 1 3097 3 is_stmt 1 view .LVU1751
 5388              		.loc 1 3105 11 is_stmt 0 view .LVU1752
 5389 000a 4FF6DD74 		movw	r4, #65501
 5390              		.loc 1 3101 12 view .LVU1753
 5391 000e 4FF6FC45 		movw	r5, #64764
 5392 0012 3540     		ands	r5, r5, r6
 5393              		.loc 1 3106 14 view .LVU1754
 5394 0014 42EA0313 		orr	r3, r2, r3, lsl #4
 5395              	.LVL432:
 5396              		.loc 1 3105 11 view .LVU1755
 5397 0018 0CEA0404 		and	r4, ip, r4
 5398              		.loc 1 3097 11 view .LVU1756
 5399 001c 4FF6F876 		movw	r6, #65528
 5400              	.LVL433:
 5401              		.loc 1 3097 11 view .LVU1757
 5402 0020 3E40     		ands	r6, r6, r7
 5403              		.loc 1 3106 11 view .LVU1758
 5404 0022 1C43     		orrs	r4, r4, r3
 5405              	.LVL434:
 5406              		.loc 1 3098 3 is_stmt 1 view .LVU1759
 5407              		.loc 1 3101 3 view .LVU1760
 5408              		.loc 1 3102 3 view .LVU1761
 5409              		.loc 1 3105 3 view .LVU1762
 5410              		.loc 1 3106 3 view .LVU1763
 5411              		.loc 1 3109 3 view .LVU1764
 5412              		.loc 1 3112 15 is_stmt 0 view .LVU1765
 5413 0024 45F48075 		orr	r5, r5, #256
 5414              	.LVL435:
 5415              		.loc 1 3115 14 view .LVU1766
ARM GAS  C:\Users\USER\AppData\Local\Temp\ccNdlOSb.s 			page 96


 5416 0028 A4B2     		uxth	r4, r4
 5417              		.loc 1 3112 15 view .LVU1767
 5418 002a 45F00105 		orr	r5, r5, #1
 5419              		.loc 1 3109 14 view .LVU1768
 5420 002e 3143     		orrs	r1, r1, r6
 5421              	.LVL436:
 5422              		.loc 1 3109 14 view .LVU1769
 5423 0030 8160     		str	r1, [r0, #8]
 5424              		.loc 1 3112 3 is_stmt 1 view .LVU1770
 5425              		.loc 1 3112 15 is_stmt 0 view .LVU1771
 5426 0032 8561     		str	r5, [r0, #24]
 5427              		.loc 1 3115 3 is_stmt 1 view .LVU1772
 5428              		.loc 1 3115 14 is_stmt 0 view .LVU1773
 5429 0034 0462     		str	r4, [r0, #32]
 5430              		.loc 1 3116 1 view .LVU1774
 5431 0036 F0BC     		pop	{r4, r5, r6, r7}
 5432              		.cfi_restore 7
 5433              		.cfi_restore 6
 5434              		.cfi_restore 5
 5435              		.cfi_restore 4
 5436              		.cfi_def_cfa_offset 0
 5437              	.LVL437:
 5438              		.loc 1 3116 1 view .LVU1775
 5439 0038 7047     		bx	lr
 5440              		.cfi_endproc
 5441              	.LFE197:
 5442              		.size	TIM_EncoderInterfaceConfig, .-TIM_EncoderInterfaceConfig
 5443 003a 00BF     		.section	.text.TIM_SelectHallSensor,"ax",%progbits
 5444              		.align	1
 5445              		.p2align 4,,15
 5446              		.global	TIM_SelectHallSensor
 5447              		.syntax unified
 5448              		.thumb
 5449              		.thumb_func
 5450              		.fpu fpv4-sp-d16
 5451              		.type	TIM_SelectHallSensor, %function
 5452              	TIM_SelectHallSensor:
 5453              	.LVL438:
 5454              	.LFB198:
 5455              		.loc 1 3127 1 is_stmt 1 view -0
 5456              		.cfi_startproc
 5457              		@ args = 0, pretend = 0, frame = 0
 5458              		@ frame_needed = 0, uses_anonymous_args = 0
 5459              		@ link register save eliminated.
 5460              		.loc 1 3129 3 view .LVU1777
 5461              		.loc 1 3130 3 view .LVU1778
 5462              		.loc 1 3132 3 view .LVU1779
 5463              		.loc 1 3135 15 is_stmt 0 view .LVU1780
 5464 0000 4368     		ldr	r3, [r0, #4]
 5465              		.loc 1 3132 6 view .LVU1781
 5466 0002 19B1     		cbz	r1, .L203
 5467              		.loc 1 3135 5 is_stmt 1 view .LVU1782
 5468              		.loc 1 3135 15 is_stmt 0 view .LVU1783
 5469 0004 43F08003 		orr	r3, r3, #128
 5470 0008 4360     		str	r3, [r0, #4]
 5471 000a 7047     		bx	lr
 5472              	.L203:
ARM GAS  C:\Users\USER\AppData\Local\Temp\ccNdlOSb.s 			page 97


 5473              		.loc 1 3140 5 is_stmt 1 view .LVU1784
 5474              		.loc 1 3140 15 is_stmt 0 view .LVU1785
 5475 000c 4FF67F72 		movw	r2, #65407
 5476 0010 1340     		ands	r3, r3, r2
 5477 0012 4360     		str	r3, [r0, #4]
 5478              		.loc 1 3142 1 view .LVU1786
 5479 0014 7047     		bx	lr
 5480              		.cfi_endproc
 5481              	.LFE198:
 5482              		.size	TIM_SelectHallSensor, .-TIM_SelectHallSensor
 5483 0016 00BF     		.section	.text.TIM_RemapConfig,"ax",%progbits
 5484              		.align	1
 5485              		.p2align 4,,15
 5486              		.global	TIM_RemapConfig
 5487              		.syntax unified
 5488              		.thumb
 5489              		.thumb_func
 5490              		.fpu fpv4-sp-d16
 5491              		.type	TIM_RemapConfig, %function
 5492              	TIM_RemapConfig:
 5493              	.LVL439:
 5494              	.LFB199:
 5495              		.loc 1 3178 1 is_stmt 1 view -0
 5496              		.cfi_startproc
 5497              		@ args = 0, pretend = 0, frame = 0
 5498              		@ frame_needed = 0, uses_anonymous_args = 0
 5499              		@ link register save eliminated.
 5500              		.loc 1 3180 3 view .LVU1788
 5501              		.loc 1 3181 3 view .LVU1789
 5502              		.loc 1 3184 3 view .LVU1790
 5503              		.loc 1 3184 12 is_stmt 0 view .LVU1791
 5504 0000 0165     		str	r1, [r0, #80]
 5505              		.loc 1 3185 1 view .LVU1792
 5506 0002 7047     		bx	lr
 5507              		.cfi_endproc
 5508              	.LFE199:
 5509              		.size	TIM_RemapConfig, .-TIM_RemapConfig
 5510              		.text
 5511              	.Letext0:
 5512              		.file 2 "c:\\program files (x86)\\gnu tools arm embedded\\8 2018-q4-major\\arm-none-eabi\\include\
 5513              		.file 3 "c:\\program files (x86)\\gnu tools arm embedded\\8 2018-q4-major\\arm-none-eabi\\include\
 5514              		.file 4 "src/ChibiOS_3.0.2/os/ext/CMSIS/include/core_cm4.h"
 5515              		.file 5 "src/ChibiOS_3.0.2/os/ext/CMSIS/ST/system_stm32f4xx.h"
 5516              		.file 6 "src/ChibiOS_3.0.2/os/ext/CMSIS/ST/stm32f407xx.h"
 5517              		.file 7 "src/ChibiOS_3.0.2/os/ext/CMSIS/ST/stm32f4xx.h"
 5518              		.file 8 "src/ChibiOS_3.0.2/ext/stdperiph_stm32f4/inc/stm32f4xx_tim.h"
 5519              		.file 9 "src/ChibiOS_3.0.2/ext/stdperiph_stm32f4/inc/stm32f4xx_rcc.h"