ARM GAS  C:\Users\USER\AppData\Local\Temp\ccQ81jt0.s 			page 1


   1              		.cpu cortex-m4
   2              		.eabi_attribute 27, 1
   3              		.eabi_attribute 28, 1
   4              		.eabi_attribute 20, 1
   5              		.eabi_attribute 21, 1
   6              		.eabi_attribute 23, 3
   7              		.eabi_attribute 24, 1
   8              		.eabi_attribute 25, 1
   9              		.eabi_attribute 26, 1
  10              		.eabi_attribute 30, 2
  11              		.eabi_attribute 34, 1
  12              		.eabi_attribute 18, 4
  13              		.file	"stm32_dma.c"
  14              		.text
  15              	.Ltext0:
  16              		.cfi_sections	.debug_frame
  17              		.section	.text.Vector6C,"ax",%progbits
  18              		.align	1
  19              		.p2align 4,,15
  20              		.global	Vector6C
  21              		.arch armv7e-m
  22              		.syntax unified
  23              		.thumb
  24              		.thumb_func
  25              		.fpu fpv4-sp-d16
  26              		.type	Vector6C, %function
  27              	Vector6C:
  28              	.LFB256:
  29              		.file 1 "src/ChibiOS_3.0.2/os/hal/ports/STM32/STM32F4xx/stm32_dma.c"
  30              		.loc 1 127 28 view -0
  31              		.cfi_startproc
  32              		@ args = 0, pretend = 0, frame = 0
  33              		@ frame_needed = 0, uses_anonymous_args = 0
  34              		.loc 1 128 3 view .LVU1
  35              		.loc 1 130 3 view .LVU2
  36              		.loc 1 130 3 view .LVU3
  37              		.loc 1 130 22 view .LVU4
  38              		.loc 1 132 3 view .LVU5
  39              		.loc 1 127 28 is_stmt 0 view .LVU6
  40 0000 08B5     		push	{r3, lr}
  41              		.cfi_def_cfa_offset 8
  42              		.cfi_offset 3, -8
  43              		.cfi_offset 14, -4
  44              		.loc 1 132 23 view .LVU7
  45 0002 074B     		ldr	r3, .L8
  46              		.loc 1 134 23 view .LVU8
  47 0004 074A     		ldr	r2, .L8+4
  48              		.loc 1 132 23 view .LVU9
  49 0006 1968     		ldr	r1, [r3]
  50              		.loc 1 132 9 view .LVU10
  51 0008 01F03D01 		and	r1, r1, #61
  52              	.LVL0:
  53              		.loc 1 133 3 is_stmt 1 view .LVU11
  54              		.loc 1 133 15 is_stmt 0 view .LVU12
  55 000c 9960     		str	r1, [r3, #8]
  56              		.loc 1 134 3 is_stmt 1 view .LVU13
  57              		.loc 1 134 23 is_stmt 0 view .LVU14
ARM GAS  C:\Users\USER\AppData\Local\Temp\ccQ81jt0.s 			page 2


  58 000e 1368     		ldr	r3, [r2]
  59              		.loc 1 134 6 view .LVU15
  60 0010 0BB1     		cbz	r3, .L2
  61              		.loc 1 135 5 is_stmt 1 view .LVU16
  62 0012 5068     		ldr	r0, [r2, #4]
  63 0014 9847     		blx	r3
  64              	.LVL1:
  65              	.L2:
  66              		.loc 1 137 3 view .LVU17
  67              		.loc 1 137 3 view .LVU18
  68              		.loc 1 138 1 is_stmt 0 view .LVU19
  69 0016 BDE80840 		pop	{r3, lr}
  70              		.cfi_restore 14
  71              		.cfi_restore 3
  72              		.cfi_def_cfa_offset 0
  73              		.loc 1 137 3 view .LVU20
  74 001a FFF7FEBF 		b	_port_irq_epilogue
  75              	.LVL2:
  76              	.L9:
  77 001e 00BF     		.align	2
  78              	.L8:
  79 0020 00600240 		.word	1073897472
  80 0024 00000000 		.word	.LANCHOR0
  81              		.cfi_endproc
  82              	.LFE256:
  83              		.size	Vector6C, .-Vector6C
  84              		.section	.text.Vector70,"ax",%progbits
  85              		.align	1
  86              		.p2align 4,,15
  87              		.global	Vector70
  88              		.syntax unified
  89              		.thumb
  90              		.thumb_func
  91              		.fpu fpv4-sp-d16
  92              		.type	Vector70, %function
  93              	Vector70:
  94              	.LFB257:
  95              		.loc 1 145 28 is_stmt 1 view -0
  96              		.cfi_startproc
  97              		@ args = 0, pretend = 0, frame = 0
  98              		@ frame_needed = 0, uses_anonymous_args = 0
  99              		.loc 1 146 3 view .LVU22
 100              		.loc 1 148 3 view .LVU23
 101              		.loc 1 148 3 view .LVU24
 102              		.loc 1 148 22 view .LVU25
 103              		.loc 1 150 3 view .LVU26
 104              		.loc 1 150 16 is_stmt 0 view .LVU27
 105 0000 084B     		ldr	r3, .L16
 106              		.loc 1 152 23 view .LVU28
 107 0002 0948     		ldr	r0, .L16+4
 108              		.loc 1 150 16 view .LVU29
 109 0004 1968     		ldr	r1, [r3]
 110              		.loc 1 152 23 view .LVU30
 111 0006 8268     		ldr	r2, [r0, #8]
 112              		.loc 1 150 23 view .LVU31
 113 0008 8909     		lsrs	r1, r1, #6
 114              		.loc 1 150 9 view .LVU32
ARM GAS  C:\Users\USER\AppData\Local\Temp\ccQ81jt0.s 			page 3


 115 000a 01F03D01 		and	r1, r1, #61
 116              	.LVL3:
 117              		.loc 1 151 3 is_stmt 1 view .LVU33
 118              		.loc 1 145 28 is_stmt 0 view .LVU34
 119 000e 10B5     		push	{r4, lr}
 120              		.cfi_def_cfa_offset 8
 121              		.cfi_offset 4, -8
 122              		.cfi_offset 14, -4
 123              		.loc 1 151 23 view .LVU35
 124 0010 8C01     		lsls	r4, r1, #6
 125              		.loc 1 151 15 view .LVU36
 126 0012 9C60     		str	r4, [r3, #8]
 127              		.loc 1 152 3 is_stmt 1 view .LVU37
 128              		.loc 1 152 6 is_stmt 0 view .LVU38
 129 0014 0AB1     		cbz	r2, .L11
 130              		.loc 1 153 5 is_stmt 1 view .LVU39
 131 0016 C068     		ldr	r0, [r0, #12]
 132 0018 9047     		blx	r2
 133              	.LVL4:
 134              	.L11:
 135              		.loc 1 155 3 view .LVU40
 136              		.loc 1 155 3 view .LVU41
 137              		.loc 1 156 1 is_stmt 0 view .LVU42
 138 001a BDE81040 		pop	{r4, lr}
 139              		.cfi_restore 14
 140              		.cfi_restore 4
 141              		.cfi_def_cfa_offset 0
 142              		.loc 1 155 3 view .LVU43
 143 001e FFF7FEBF 		b	_port_irq_epilogue
 144              	.LVL5:
 145              	.L17:
 146 0022 00BF     		.align	2
 147              	.L16:
 148 0024 00600240 		.word	1073897472
 149 0028 00000000 		.word	.LANCHOR0
 150              		.cfi_endproc
 151              	.LFE257:
 152              		.size	Vector70, .-Vector70
 153              		.section	.text.Vector74,"ax",%progbits
 154              		.align	1
 155              		.p2align 4,,15
 156              		.global	Vector74
 157              		.syntax unified
 158              		.thumb
 159              		.thumb_func
 160              		.fpu fpv4-sp-d16
 161              		.type	Vector74, %function
 162              	Vector74:
 163              	.LFB258:
 164              		.loc 1 163 28 is_stmt 1 view -0
 165              		.cfi_startproc
 166              		@ args = 0, pretend = 0, frame = 0
 167              		@ frame_needed = 0, uses_anonymous_args = 0
 168              		.loc 1 164 3 view .LVU45
 169              		.loc 1 166 3 view .LVU46
 170              		.loc 1 166 3 view .LVU47
 171              		.loc 1 166 22 view .LVU48
ARM GAS  C:\Users\USER\AppData\Local\Temp\ccQ81jt0.s 			page 4


 172              		.loc 1 168 3 view .LVU49
 173              		.loc 1 168 16 is_stmt 0 view .LVU50
 174 0000 084B     		ldr	r3, .L24
 175              		.loc 1 170 23 view .LVU51
 176 0002 0948     		ldr	r0, .L24+4
 177              		.loc 1 168 16 view .LVU52
 178 0004 1968     		ldr	r1, [r3]
 179              		.loc 1 170 23 view .LVU53
 180 0006 0269     		ldr	r2, [r0, #16]
 181              		.loc 1 168 23 view .LVU54
 182 0008 090C     		lsrs	r1, r1, #16
 183              		.loc 1 168 9 view .LVU55
 184 000a 01F03D01 		and	r1, r1, #61
 185              	.LVL6:
 186              		.loc 1 169 3 is_stmt 1 view .LVU56
 187              		.loc 1 163 28 is_stmt 0 view .LVU57
 188 000e 10B5     		push	{r4, lr}
 189              		.cfi_def_cfa_offset 8
 190              		.cfi_offset 4, -8
 191              		.cfi_offset 14, -4
 192              		.loc 1 169 23 view .LVU58
 193 0010 0C04     		lsls	r4, r1, #16
 194              		.loc 1 169 15 view .LVU59
 195 0012 9C60     		str	r4, [r3, #8]
 196              		.loc 1 170 3 is_stmt 1 view .LVU60
 197              		.loc 1 170 6 is_stmt 0 view .LVU61
 198 0014 0AB1     		cbz	r2, .L19
 199              		.loc 1 171 5 is_stmt 1 view .LVU62
 200 0016 4069     		ldr	r0, [r0, #20]
 201 0018 9047     		blx	r2
 202              	.LVL7:
 203              	.L19:
 204              		.loc 1 173 3 view .LVU63
 205              		.loc 1 173 3 view .LVU64
 206              		.loc 1 174 1 is_stmt 0 view .LVU65
 207 001a BDE81040 		pop	{r4, lr}
 208              		.cfi_restore 14
 209              		.cfi_restore 4
 210              		.cfi_def_cfa_offset 0
 211              		.loc 1 173 3 view .LVU66
 212 001e FFF7FEBF 		b	_port_irq_epilogue
 213              	.LVL8:
 214              	.L25:
 215 0022 00BF     		.align	2
 216              	.L24:
 217 0024 00600240 		.word	1073897472
 218 0028 00000000 		.word	.LANCHOR0
 219              		.cfi_endproc
 220              	.LFE258:
 221              		.size	Vector74, .-Vector74
 222              		.section	.text.Vector78,"ax",%progbits
 223              		.align	1
 224              		.p2align 4,,15
 225              		.global	Vector78
 226              		.syntax unified
 227              		.thumb
 228              		.thumb_func
ARM GAS  C:\Users\USER\AppData\Local\Temp\ccQ81jt0.s 			page 5


 229              		.fpu fpv4-sp-d16
 230              		.type	Vector78, %function
 231              	Vector78:
 232              	.LFB259:
 233              		.loc 1 181 28 is_stmt 1 view -0
 234              		.cfi_startproc
 235              		@ args = 0, pretend = 0, frame = 0
 236              		@ frame_needed = 0, uses_anonymous_args = 0
 237              		.loc 1 182 3 view .LVU68
 238              		.loc 1 184 3 view .LVU69
 239              		.loc 1 184 3 view .LVU70
 240              		.loc 1 184 22 view .LVU71
 241              		.loc 1 186 3 view .LVU72
 242              		.loc 1 186 16 is_stmt 0 view .LVU73
 243 0000 084B     		ldr	r3, .L32
 244              		.loc 1 188 23 view .LVU74
 245 0002 0948     		ldr	r0, .L32+4
 246              		.loc 1 186 16 view .LVU75
 247 0004 1968     		ldr	r1, [r3]
 248              		.loc 1 188 23 view .LVU76
 249 0006 8269     		ldr	r2, [r0, #24]
 250              		.loc 1 186 23 view .LVU77
 251 0008 890D     		lsrs	r1, r1, #22
 252              		.loc 1 186 9 view .LVU78
 253 000a 01F03D01 		and	r1, r1, #61
 254              	.LVL9:
 255              		.loc 1 187 3 is_stmt 1 view .LVU79
 256              		.loc 1 181 28 is_stmt 0 view .LVU80
 257 000e 10B5     		push	{r4, lr}
 258              		.cfi_def_cfa_offset 8
 259              		.cfi_offset 4, -8
 260              		.cfi_offset 14, -4
 261              		.loc 1 187 23 view .LVU81
 262 0010 8C05     		lsls	r4, r1, #22
 263              		.loc 1 187 15 view .LVU82
 264 0012 9C60     		str	r4, [r3, #8]
 265              		.loc 1 188 3 is_stmt 1 view .LVU83
 266              		.loc 1 188 6 is_stmt 0 view .LVU84
 267 0014 0AB1     		cbz	r2, .L27
 268              		.loc 1 189 5 is_stmt 1 view .LVU85
 269 0016 C069     		ldr	r0, [r0, #28]
 270 0018 9047     		blx	r2
 271              	.LVL10:
 272              	.L27:
 273              		.loc 1 191 3 view .LVU86
 274              		.loc 1 191 3 view .LVU87
 275              		.loc 1 192 1 is_stmt 0 view .LVU88
 276 001a BDE81040 		pop	{r4, lr}
 277              		.cfi_restore 14
 278              		.cfi_restore 4
 279              		.cfi_def_cfa_offset 0
 280              		.loc 1 191 3 view .LVU89
 281 001e FFF7FEBF 		b	_port_irq_epilogue
 282              	.LVL11:
 283              	.L33:
 284 0022 00BF     		.align	2
 285              	.L32:
ARM GAS  C:\Users\USER\AppData\Local\Temp\ccQ81jt0.s 			page 6


 286 0024 00600240 		.word	1073897472
 287 0028 00000000 		.word	.LANCHOR0
 288              		.cfi_endproc
 289              	.LFE259:
 290              		.size	Vector78, .-Vector78
 291              		.section	.text.Vector7C,"ax",%progbits
 292              		.align	1
 293              		.p2align 4,,15
 294              		.global	Vector7C
 295              		.syntax unified
 296              		.thumb
 297              		.thumb_func
 298              		.fpu fpv4-sp-d16
 299              		.type	Vector7C, %function
 300              	Vector7C:
 301              	.LFB260:
 302              		.loc 1 199 28 is_stmt 1 view -0
 303              		.cfi_startproc
 304              		@ args = 0, pretend = 0, frame = 0
 305              		@ frame_needed = 0, uses_anonymous_args = 0
 306              		.loc 1 200 3 view .LVU91
 307              		.loc 1 202 3 view .LVU92
 308              		.loc 1 202 3 view .LVU93
 309              		.loc 1 202 22 view .LVU94
 310              		.loc 1 204 3 view .LVU95
 311              		.loc 1 199 28 is_stmt 0 view .LVU96
 312 0000 08B5     		push	{r3, lr}
 313              		.cfi_def_cfa_offset 8
 314              		.cfi_offset 3, -8
 315              		.cfi_offset 14, -4
 316              		.loc 1 204 23 view .LVU97
 317 0002 074B     		ldr	r3, .L40
 318              		.loc 1 206 23 view .LVU98
 319 0004 0748     		ldr	r0, .L40+4
 320              		.loc 1 204 23 view .LVU99
 321 0006 5968     		ldr	r1, [r3, #4]
 322              		.loc 1 206 23 view .LVU100
 323 0008 026A     		ldr	r2, [r0, #32]
 324              		.loc 1 204 9 view .LVU101
 325 000a 01F03D01 		and	r1, r1, #61
 326              	.LVL12:
 327              		.loc 1 205 3 is_stmt 1 view .LVU102
 328              		.loc 1 205 15 is_stmt 0 view .LVU103
 329 000e D960     		str	r1, [r3, #12]
 330              		.loc 1 206 3 is_stmt 1 view .LVU104
 331              		.loc 1 206 6 is_stmt 0 view .LVU105
 332 0010 0AB1     		cbz	r2, .L35
 333              		.loc 1 207 5 is_stmt 1 view .LVU106
 334 0012 406A     		ldr	r0, [r0, #36]
 335 0014 9047     		blx	r2
 336              	.LVL13:
 337              	.L35:
 338              		.loc 1 209 3 view .LVU107
 339              		.loc 1 209 3 view .LVU108
 340              		.loc 1 210 1 is_stmt 0 view .LVU109
 341 0016 BDE80840 		pop	{r3, lr}
 342              		.cfi_restore 14
ARM GAS  C:\Users\USER\AppData\Local\Temp\ccQ81jt0.s 			page 7


 343              		.cfi_restore 3
 344              		.cfi_def_cfa_offset 0
 345              		.loc 1 209 3 view .LVU110
 346 001a FFF7FEBF 		b	_port_irq_epilogue
 347              	.LVL14:
 348              	.L41:
 349 001e 00BF     		.align	2
 350              	.L40:
 351 0020 00600240 		.word	1073897472
 352 0024 00000000 		.word	.LANCHOR0
 353              		.cfi_endproc
 354              	.LFE260:
 355              		.size	Vector7C, .-Vector7C
 356              		.section	.text.Vector80,"ax",%progbits
 357              		.align	1
 358              		.p2align 4,,15
 359              		.global	Vector80
 360              		.syntax unified
 361              		.thumb
 362              		.thumb_func
 363              		.fpu fpv4-sp-d16
 364              		.type	Vector80, %function
 365              	Vector80:
 366              	.LFB261:
 367              		.loc 1 217 28 is_stmt 1 view -0
 368              		.cfi_startproc
 369              		@ args = 0, pretend = 0, frame = 0
 370              		@ frame_needed = 0, uses_anonymous_args = 0
 371              		.loc 1 218 3 view .LVU112
 372              		.loc 1 220 3 view .LVU113
 373              		.loc 1 220 3 view .LVU114
 374              		.loc 1 220 22 view .LVU115
 375              		.loc 1 222 3 view .LVU116
 376              		.loc 1 222 16 is_stmt 0 view .LVU117
 377 0000 084B     		ldr	r3, .L48
 378              		.loc 1 224 23 view .LVU118
 379 0002 0948     		ldr	r0, .L48+4
 380              		.loc 1 222 16 view .LVU119
 381 0004 5968     		ldr	r1, [r3, #4]
 382              		.loc 1 224 23 view .LVU120
 383 0006 826A     		ldr	r2, [r0, #40]
 384              		.loc 1 222 23 view .LVU121
 385 0008 8909     		lsrs	r1, r1, #6
 386              		.loc 1 222 9 view .LVU122
 387 000a 01F03D01 		and	r1, r1, #61
 388              	.LVL15:
 389              		.loc 1 223 3 is_stmt 1 view .LVU123
 390              		.loc 1 217 28 is_stmt 0 view .LVU124
 391 000e 10B5     		push	{r4, lr}
 392              		.cfi_def_cfa_offset 8
 393              		.cfi_offset 4, -8
 394              		.cfi_offset 14, -4
 395              		.loc 1 223 23 view .LVU125
 396 0010 8C01     		lsls	r4, r1, #6
 397              		.loc 1 223 15 view .LVU126
 398 0012 DC60     		str	r4, [r3, #12]
 399              		.loc 1 224 3 is_stmt 1 view .LVU127
ARM GAS  C:\Users\USER\AppData\Local\Temp\ccQ81jt0.s 			page 8


 400              		.loc 1 224 6 is_stmt 0 view .LVU128
 401 0014 0AB1     		cbz	r2, .L43
 402              		.loc 1 225 5 is_stmt 1 view .LVU129
 403 0016 C06A     		ldr	r0, [r0, #44]
 404 0018 9047     		blx	r2
 405              	.LVL16:
 406              	.L43:
 407              		.loc 1 227 3 view .LVU130
 408              		.loc 1 227 3 view .LVU131
 409              		.loc 1 228 1 is_stmt 0 view .LVU132
 410 001a BDE81040 		pop	{r4, lr}
 411              		.cfi_restore 14
 412              		.cfi_restore 4
 413              		.cfi_def_cfa_offset 0
 414              		.loc 1 227 3 view .LVU133
 415 001e FFF7FEBF 		b	_port_irq_epilogue
 416              	.LVL17:
 417              	.L49:
 418 0022 00BF     		.align	2
 419              	.L48:
 420 0024 00600240 		.word	1073897472
 421 0028 00000000 		.word	.LANCHOR0
 422              		.cfi_endproc
 423              	.LFE261:
 424              		.size	Vector80, .-Vector80
 425              		.section	.text.Vector84,"ax",%progbits
 426              		.align	1
 427              		.p2align 4,,15
 428              		.global	Vector84
 429              		.syntax unified
 430              		.thumb
 431              		.thumb_func
 432              		.fpu fpv4-sp-d16
 433              		.type	Vector84, %function
 434              	Vector84:
 435              	.LFB262:
 436              		.loc 1 235 28 is_stmt 1 view -0
 437              		.cfi_startproc
 438              		@ args = 0, pretend = 0, frame = 0
 439              		@ frame_needed = 0, uses_anonymous_args = 0
 440              		.loc 1 236 3 view .LVU135
 441              		.loc 1 238 3 view .LVU136
 442              		.loc 1 238 3 view .LVU137
 443              		.loc 1 238 22 view .LVU138
 444              		.loc 1 240 3 view .LVU139
 445              		.loc 1 240 16 is_stmt 0 view .LVU140
 446 0000 084B     		ldr	r3, .L56
 447              		.loc 1 242 23 view .LVU141
 448 0002 0948     		ldr	r0, .L56+4
 449              		.loc 1 240 16 view .LVU142
 450 0004 5968     		ldr	r1, [r3, #4]
 451              		.loc 1 242 23 view .LVU143
 452 0006 026B     		ldr	r2, [r0, #48]
 453              		.loc 1 240 23 view .LVU144
 454 0008 090C     		lsrs	r1, r1, #16
 455              		.loc 1 240 9 view .LVU145
 456 000a 01F03D01 		and	r1, r1, #61
ARM GAS  C:\Users\USER\AppData\Local\Temp\ccQ81jt0.s 			page 9


 457              	.LVL18:
 458              		.loc 1 241 3 is_stmt 1 view .LVU146
 459              		.loc 1 235 28 is_stmt 0 view .LVU147
 460 000e 10B5     		push	{r4, lr}
 461              		.cfi_def_cfa_offset 8
 462              		.cfi_offset 4, -8
 463              		.cfi_offset 14, -4
 464              		.loc 1 241 23 view .LVU148
 465 0010 0C04     		lsls	r4, r1, #16
 466              		.loc 1 241 15 view .LVU149
 467 0012 DC60     		str	r4, [r3, #12]
 468              		.loc 1 242 3 is_stmt 1 view .LVU150
 469              		.loc 1 242 6 is_stmt 0 view .LVU151
 470 0014 0AB1     		cbz	r2, .L51
 471              		.loc 1 243 5 is_stmt 1 view .LVU152
 472 0016 406B     		ldr	r0, [r0, #52]
 473 0018 9047     		blx	r2
 474              	.LVL19:
 475              	.L51:
 476              		.loc 1 245 3 view .LVU153
 477              		.loc 1 245 3 view .LVU154
 478              		.loc 1 246 1 is_stmt 0 view .LVU155
 479 001a BDE81040 		pop	{r4, lr}
 480              		.cfi_restore 14
 481              		.cfi_restore 4
 482              		.cfi_def_cfa_offset 0
 483              		.loc 1 245 3 view .LVU156
 484 001e FFF7FEBF 		b	_port_irq_epilogue
 485              	.LVL20:
 486              	.L57:
 487 0022 00BF     		.align	2
 488              	.L56:
 489 0024 00600240 		.word	1073897472
 490 0028 00000000 		.word	.LANCHOR0
 491              		.cfi_endproc
 492              	.LFE262:
 493              		.size	Vector84, .-Vector84
 494              		.section	.text.VectorFC,"ax",%progbits
 495              		.align	1
 496              		.p2align 4,,15
 497              		.global	VectorFC
 498              		.syntax unified
 499              		.thumb
 500              		.thumb_func
 501              		.fpu fpv4-sp-d16
 502              		.type	VectorFC, %function
 503              	VectorFC:
 504              	.LFB263:
 505              		.loc 1 253 28 is_stmt 1 view -0
 506              		.cfi_startproc
 507              		@ args = 0, pretend = 0, frame = 0
 508              		@ frame_needed = 0, uses_anonymous_args = 0
 509              		.loc 1 254 3 view .LVU158
 510              		.loc 1 256 3 view .LVU159
 511              		.loc 1 256 3 view .LVU160
 512              		.loc 1 256 22 view .LVU161
 513              		.loc 1 258 3 view .LVU162
ARM GAS  C:\Users\USER\AppData\Local\Temp\ccQ81jt0.s 			page 10


 514              		.loc 1 258 16 is_stmt 0 view .LVU163
 515 0000 084B     		ldr	r3, .L64
 516              		.loc 1 260 23 view .LVU164
 517 0002 0948     		ldr	r0, .L64+4
 518              		.loc 1 258 16 view .LVU165
 519 0004 5968     		ldr	r1, [r3, #4]
 520              		.loc 1 260 23 view .LVU166
 521 0006 826B     		ldr	r2, [r0, #56]
 522              		.loc 1 258 23 view .LVU167
 523 0008 890D     		lsrs	r1, r1, #22
 524              		.loc 1 258 9 view .LVU168
 525 000a 01F03D01 		and	r1, r1, #61
 526              	.LVL21:
 527              		.loc 1 259 3 is_stmt 1 view .LVU169
 528              		.loc 1 253 28 is_stmt 0 view .LVU170
 529 000e 10B5     		push	{r4, lr}
 530              		.cfi_def_cfa_offset 8
 531              		.cfi_offset 4, -8
 532              		.cfi_offset 14, -4
 533              		.loc 1 259 23 view .LVU171
 534 0010 8C05     		lsls	r4, r1, #22
 535              		.loc 1 259 15 view .LVU172
 536 0012 DC60     		str	r4, [r3, #12]
 537              		.loc 1 260 3 is_stmt 1 view .LVU173
 538              		.loc 1 260 6 is_stmt 0 view .LVU174
 539 0014 0AB1     		cbz	r2, .L59
 540              		.loc 1 261 5 is_stmt 1 view .LVU175
 541 0016 C06B     		ldr	r0, [r0, #60]
 542 0018 9047     		blx	r2
 543              	.LVL22:
 544              	.L59:
 545              		.loc 1 263 3 view .LVU176
 546              		.loc 1 263 3 view .LVU177
 547              		.loc 1 264 1 is_stmt 0 view .LVU178
 548 001a BDE81040 		pop	{r4, lr}
 549              		.cfi_restore 14
 550              		.cfi_restore 4
 551              		.cfi_def_cfa_offset 0
 552              		.loc 1 263 3 view .LVU179
 553 001e FFF7FEBF 		b	_port_irq_epilogue
 554              	.LVL23:
 555              	.L65:
 556 0022 00BF     		.align	2
 557              	.L64:
 558 0024 00600240 		.word	1073897472
 559 0028 00000000 		.word	.LANCHOR0
 560              		.cfi_endproc
 561              	.LFE263:
 562              		.size	VectorFC, .-VectorFC
 563              		.section	.text.Vector120,"ax",%progbits
 564              		.align	1
 565              		.p2align 4,,15
 566              		.global	Vector120
 567              		.syntax unified
 568              		.thumb
 569              		.thumb_func
 570              		.fpu fpv4-sp-d16
ARM GAS  C:\Users\USER\AppData\Local\Temp\ccQ81jt0.s 			page 11


 571              		.type	Vector120, %function
 572              	Vector120:
 573              	.LFB264:
 574              		.loc 1 271 29 is_stmt 1 view -0
 575              		.cfi_startproc
 576              		@ args = 0, pretend = 0, frame = 0
 577              		@ frame_needed = 0, uses_anonymous_args = 0
 578              		.loc 1 272 3 view .LVU181
 579              		.loc 1 274 3 view .LVU182
 580              		.loc 1 274 3 view .LVU183
 581              		.loc 1 274 22 view .LVU184
 582              		.loc 1 276 3 view .LVU185
 583              		.loc 1 271 29 is_stmt 0 view .LVU186
 584 0000 08B5     		push	{r3, lr}
 585              		.cfi_def_cfa_offset 8
 586              		.cfi_offset 3, -8
 587              		.cfi_offset 14, -4
 588              		.loc 1 276 23 view .LVU187
 589 0002 074B     		ldr	r3, .L72
 590              		.loc 1 278 23 view .LVU188
 591 0004 0748     		ldr	r0, .L72+4
 592              		.loc 1 276 23 view .LVU189
 593 0006 1968     		ldr	r1, [r3]
 594              		.loc 1 278 23 view .LVU190
 595 0008 026C     		ldr	r2, [r0, #64]
 596              		.loc 1 276 9 view .LVU191
 597 000a 01F03D01 		and	r1, r1, #61
 598              	.LVL24:
 599              		.loc 1 277 3 is_stmt 1 view .LVU192
 600              		.loc 1 277 15 is_stmt 0 view .LVU193
 601 000e 9960     		str	r1, [r3, #8]
 602              		.loc 1 278 3 is_stmt 1 view .LVU194
 603              		.loc 1 278 6 is_stmt 0 view .LVU195
 604 0010 0AB1     		cbz	r2, .L67
 605              		.loc 1 279 5 is_stmt 1 view .LVU196
 606 0012 406C     		ldr	r0, [r0, #68]
 607 0014 9047     		blx	r2
 608              	.LVL25:
 609              	.L67:
 610              		.loc 1 281 3 view .LVU197
 611              		.loc 1 281 3 view .LVU198
 612              		.loc 1 282 1 is_stmt 0 view .LVU199
 613 0016 BDE80840 		pop	{r3, lr}
 614              		.cfi_restore 14
 615              		.cfi_restore 3
 616              		.cfi_def_cfa_offset 0
 617              		.loc 1 281 3 view .LVU200
 618 001a FFF7FEBF 		b	_port_irq_epilogue
 619              	.LVL26:
 620              	.L73:
 621 001e 00BF     		.align	2
 622              	.L72:
 623 0020 00640240 		.word	1073898496
 624 0024 00000000 		.word	.LANCHOR0
 625              		.cfi_endproc
 626              	.LFE264:
 627              		.size	Vector120, .-Vector120
ARM GAS  C:\Users\USER\AppData\Local\Temp\ccQ81jt0.s 			page 12


 628              		.section	.text.Vector124,"ax",%progbits
 629              		.align	1
 630              		.p2align 4,,15
 631              		.global	Vector124
 632              		.syntax unified
 633              		.thumb
 634              		.thumb_func
 635              		.fpu fpv4-sp-d16
 636              		.type	Vector124, %function
 637              	Vector124:
 638              	.LFB265:
 639              		.loc 1 289 29 is_stmt 1 view -0
 640              		.cfi_startproc
 641              		@ args = 0, pretend = 0, frame = 0
 642              		@ frame_needed = 0, uses_anonymous_args = 0
 643              		.loc 1 290 3 view .LVU202
 644              		.loc 1 292 3 view .LVU203
 645              		.loc 1 292 3 view .LVU204
 646              		.loc 1 292 22 view .LVU205
 647              		.loc 1 294 3 view .LVU206
 648              		.loc 1 294 16 is_stmt 0 view .LVU207
 649 0000 084B     		ldr	r3, .L80
 650              		.loc 1 296 23 view .LVU208
 651 0002 0948     		ldr	r0, .L80+4
 652              		.loc 1 294 16 view .LVU209
 653 0004 1968     		ldr	r1, [r3]
 654              		.loc 1 296 23 view .LVU210
 655 0006 826C     		ldr	r2, [r0, #72]
 656              		.loc 1 294 23 view .LVU211
 657 0008 8909     		lsrs	r1, r1, #6
 658              		.loc 1 294 9 view .LVU212
 659 000a 01F03D01 		and	r1, r1, #61
 660              	.LVL27:
 661              		.loc 1 295 3 is_stmt 1 view .LVU213
 662              		.loc 1 289 29 is_stmt 0 view .LVU214
 663 000e 10B5     		push	{r4, lr}
 664              		.cfi_def_cfa_offset 8
 665              		.cfi_offset 4, -8
 666              		.cfi_offset 14, -4
 667              		.loc 1 295 23 view .LVU215
 668 0010 8C01     		lsls	r4, r1, #6
 669              		.loc 1 295 15 view .LVU216
 670 0012 9C60     		str	r4, [r3, #8]
 671              		.loc 1 296 3 is_stmt 1 view .LVU217
 672              		.loc 1 296 6 is_stmt 0 view .LVU218
 673 0014 0AB1     		cbz	r2, .L75
 674              		.loc 1 297 5 is_stmt 1 view .LVU219
 675 0016 C06C     		ldr	r0, [r0, #76]
 676 0018 9047     		blx	r2
 677              	.LVL28:
 678              	.L75:
 679              		.loc 1 299 3 view .LVU220
 680              		.loc 1 299 3 view .LVU221
 681              		.loc 1 300 1 is_stmt 0 view .LVU222
 682 001a BDE81040 		pop	{r4, lr}
 683              		.cfi_restore 14
 684              		.cfi_restore 4
ARM GAS  C:\Users\USER\AppData\Local\Temp\ccQ81jt0.s 			page 13


 685              		.cfi_def_cfa_offset 0
 686              		.loc 1 299 3 view .LVU223
 687 001e FFF7FEBF 		b	_port_irq_epilogue
 688              	.LVL29:
 689              	.L81:
 690 0022 00BF     		.align	2
 691              	.L80:
 692 0024 00640240 		.word	1073898496
 693 0028 00000000 		.word	.LANCHOR0
 694              		.cfi_endproc
 695              	.LFE265:
 696              		.size	Vector124, .-Vector124
 697              		.section	.text.Vector128,"ax",%progbits
 698              		.align	1
 699              		.p2align 4,,15
 700              		.global	Vector128
 701              		.syntax unified
 702              		.thumb
 703              		.thumb_func
 704              		.fpu fpv4-sp-d16
 705              		.type	Vector128, %function
 706              	Vector128:
 707              	.LFB266:
 708              		.loc 1 307 29 is_stmt 1 view -0
 709              		.cfi_startproc
 710              		@ args = 0, pretend = 0, frame = 0
 711              		@ frame_needed = 0, uses_anonymous_args = 0
 712              		.loc 1 308 3 view .LVU225
 713              		.loc 1 310 3 view .LVU226
 714              		.loc 1 310 3 view .LVU227
 715              		.loc 1 310 22 view .LVU228
 716              		.loc 1 312 3 view .LVU229
 717              		.loc 1 312 16 is_stmt 0 view .LVU230
 718 0000 084B     		ldr	r3, .L88
 719              		.loc 1 314 24 view .LVU231
 720 0002 0948     		ldr	r0, .L88+4
 721              		.loc 1 312 16 view .LVU232
 722 0004 1968     		ldr	r1, [r3]
 723              		.loc 1 314 24 view .LVU233
 724 0006 026D     		ldr	r2, [r0, #80]
 725              		.loc 1 312 23 view .LVU234
 726 0008 090C     		lsrs	r1, r1, #16
 727              		.loc 1 312 9 view .LVU235
 728 000a 01F03D01 		and	r1, r1, #61
 729              	.LVL30:
 730              		.loc 1 313 3 is_stmt 1 view .LVU236
 731              		.loc 1 307 29 is_stmt 0 view .LVU237
 732 000e 10B5     		push	{r4, lr}
 733              		.cfi_def_cfa_offset 8
 734              		.cfi_offset 4, -8
 735              		.cfi_offset 14, -4
 736              		.loc 1 313 23 view .LVU238
 737 0010 0C04     		lsls	r4, r1, #16
 738              		.loc 1 313 15 view .LVU239
 739 0012 9C60     		str	r4, [r3, #8]
 740              		.loc 1 314 3 is_stmt 1 view .LVU240
 741              		.loc 1 314 6 is_stmt 0 view .LVU241
ARM GAS  C:\Users\USER\AppData\Local\Temp\ccQ81jt0.s 			page 14


 742 0014 0AB1     		cbz	r2, .L83
 743              		.loc 1 315 5 is_stmt 1 view .LVU242
 744 0016 406D     		ldr	r0, [r0, #84]
 745 0018 9047     		blx	r2
 746              	.LVL31:
 747              	.L83:
 748              		.loc 1 317 3 view .LVU243
 749              		.loc 1 317 3 view .LVU244
 750              		.loc 1 318 1 is_stmt 0 view .LVU245
 751 001a BDE81040 		pop	{r4, lr}
 752              		.cfi_restore 14
 753              		.cfi_restore 4
 754              		.cfi_def_cfa_offset 0
 755              		.loc 1 317 3 view .LVU246
 756 001e FFF7FEBF 		b	_port_irq_epilogue
 757              	.LVL32:
 758              	.L89:
 759 0022 00BF     		.align	2
 760              	.L88:
 761 0024 00640240 		.word	1073898496
 762 0028 00000000 		.word	.LANCHOR0
 763              		.cfi_endproc
 764              	.LFE266:
 765              		.size	Vector128, .-Vector128
 766              		.section	.text.Vector12C,"ax",%progbits
 767              		.align	1
 768              		.p2align 4,,15
 769              		.global	Vector12C
 770              		.syntax unified
 771              		.thumb
 772              		.thumb_func
 773              		.fpu fpv4-sp-d16
 774              		.type	Vector12C, %function
 775              	Vector12C:
 776              	.LFB267:
 777              		.loc 1 325 29 is_stmt 1 view -0
 778              		.cfi_startproc
 779              		@ args = 0, pretend = 0, frame = 0
 780              		@ frame_needed = 0, uses_anonymous_args = 0
 781              		.loc 1 326 3 view .LVU248
 782              		.loc 1 328 3 view .LVU249
 783              		.loc 1 328 3 view .LVU250
 784              		.loc 1 328 22 view .LVU251
 785              		.loc 1 330 3 view .LVU252
 786              		.loc 1 330 16 is_stmt 0 view .LVU253
 787 0000 084B     		ldr	r3, .L96
 788              		.loc 1 332 24 view .LVU254
 789 0002 0948     		ldr	r0, .L96+4
 790              		.loc 1 330 16 view .LVU255
 791 0004 1968     		ldr	r1, [r3]
 792              		.loc 1 332 24 view .LVU256
 793 0006 826D     		ldr	r2, [r0, #88]
 794              		.loc 1 330 23 view .LVU257
 795 0008 890D     		lsrs	r1, r1, #22
 796              		.loc 1 330 9 view .LVU258
 797 000a 01F03D01 		and	r1, r1, #61
 798              	.LVL33:
ARM GAS  C:\Users\USER\AppData\Local\Temp\ccQ81jt0.s 			page 15


 799              		.loc 1 331 3 is_stmt 1 view .LVU259
 800              		.loc 1 325 29 is_stmt 0 view .LVU260
 801 000e 10B5     		push	{r4, lr}
 802              		.cfi_def_cfa_offset 8
 803              		.cfi_offset 4, -8
 804              		.cfi_offset 14, -4
 805              		.loc 1 331 23 view .LVU261
 806 0010 8C05     		lsls	r4, r1, #22
 807              		.loc 1 331 15 view .LVU262
 808 0012 9C60     		str	r4, [r3, #8]
 809              		.loc 1 332 3 is_stmt 1 view .LVU263
 810              		.loc 1 332 6 is_stmt 0 view .LVU264
 811 0014 0AB1     		cbz	r2, .L91
 812              		.loc 1 333 5 is_stmt 1 view .LVU265
 813 0016 C06D     		ldr	r0, [r0, #92]
 814 0018 9047     		blx	r2
 815              	.LVL34:
 816              	.L91:
 817              		.loc 1 335 3 view .LVU266
 818              		.loc 1 335 3 view .LVU267
 819              		.loc 1 336 1 is_stmt 0 view .LVU268
 820 001a BDE81040 		pop	{r4, lr}
 821              		.cfi_restore 14
 822              		.cfi_restore 4
 823              		.cfi_def_cfa_offset 0
 824              		.loc 1 335 3 view .LVU269
 825 001e FFF7FEBF 		b	_port_irq_epilogue
 826              	.LVL35:
 827              	.L97:
 828 0022 00BF     		.align	2
 829              	.L96:
 830 0024 00640240 		.word	1073898496
 831 0028 00000000 		.word	.LANCHOR0
 832              		.cfi_endproc
 833              	.LFE267:
 834              		.size	Vector12C, .-Vector12C
 835              		.section	.text.Vector130,"ax",%progbits
 836              		.align	1
 837              		.p2align 4,,15
 838              		.global	Vector130
 839              		.syntax unified
 840              		.thumb
 841              		.thumb_func
 842              		.fpu fpv4-sp-d16
 843              		.type	Vector130, %function
 844              	Vector130:
 845              	.LFB268:
 846              		.loc 1 343 29 is_stmt 1 view -0
 847              		.cfi_startproc
 848              		@ args = 0, pretend = 0, frame = 0
 849              		@ frame_needed = 0, uses_anonymous_args = 0
 850              		.loc 1 344 3 view .LVU271
 851              		.loc 1 346 3 view .LVU272
 852              		.loc 1 346 3 view .LVU273
 853              		.loc 1 346 22 view .LVU274
 854              		.loc 1 348 3 view .LVU275
 855              		.loc 1 343 29 is_stmt 0 view .LVU276
ARM GAS  C:\Users\USER\AppData\Local\Temp\ccQ81jt0.s 			page 16


 856 0000 08B5     		push	{r3, lr}
 857              		.cfi_def_cfa_offset 8
 858              		.cfi_offset 3, -8
 859              		.cfi_offset 14, -4
 860              		.loc 1 348 23 view .LVU277
 861 0002 074B     		ldr	r3, .L104
 862              		.loc 1 350 24 view .LVU278
 863 0004 0748     		ldr	r0, .L104+4
 864              		.loc 1 348 23 view .LVU279
 865 0006 5968     		ldr	r1, [r3, #4]
 866              		.loc 1 350 24 view .LVU280
 867 0008 026E     		ldr	r2, [r0, #96]
 868              		.loc 1 348 9 view .LVU281
 869 000a 01F03D01 		and	r1, r1, #61
 870              	.LVL36:
 871              		.loc 1 349 3 is_stmt 1 view .LVU282
 872              		.loc 1 349 15 is_stmt 0 view .LVU283
 873 000e D960     		str	r1, [r3, #12]
 874              		.loc 1 350 3 is_stmt 1 view .LVU284
 875              		.loc 1 350 6 is_stmt 0 view .LVU285
 876 0010 0AB1     		cbz	r2, .L99
 877              		.loc 1 351 5 is_stmt 1 view .LVU286
 878 0012 406E     		ldr	r0, [r0, #100]
 879 0014 9047     		blx	r2
 880              	.LVL37:
 881              	.L99:
 882              		.loc 1 353 3 view .LVU287
 883              		.loc 1 353 3 view .LVU288
 884              		.loc 1 354 1 is_stmt 0 view .LVU289
 885 0016 BDE80840 		pop	{r3, lr}
 886              		.cfi_restore 14
 887              		.cfi_restore 3
 888              		.cfi_def_cfa_offset 0
 889              		.loc 1 353 3 view .LVU290
 890 001a FFF7FEBF 		b	_port_irq_epilogue
 891              	.LVL38:
 892              	.L105:
 893 001e 00BF     		.align	2
 894              	.L104:
 895 0020 00640240 		.word	1073898496
 896 0024 00000000 		.word	.LANCHOR0
 897              		.cfi_endproc
 898              	.LFE268:
 899              		.size	Vector130, .-Vector130
 900              		.section	.text.Vector150,"ax",%progbits
 901              		.align	1
 902              		.p2align 4,,15
 903              		.global	Vector150
 904              		.syntax unified
 905              		.thumb
 906              		.thumb_func
 907              		.fpu fpv4-sp-d16
 908              		.type	Vector150, %function
 909              	Vector150:
 910              	.LFB269:
 911              		.loc 1 361 29 is_stmt 1 view -0
 912              		.cfi_startproc
ARM GAS  C:\Users\USER\AppData\Local\Temp\ccQ81jt0.s 			page 17


 913              		@ args = 0, pretend = 0, frame = 0
 914              		@ frame_needed = 0, uses_anonymous_args = 0
 915              		.loc 1 362 3 view .LVU292
 916              		.loc 1 364 3 view .LVU293
 917              		.loc 1 364 3 view .LVU294
 918              		.loc 1 364 22 view .LVU295
 919              		.loc 1 366 3 view .LVU296
 920              		.loc 1 366 16 is_stmt 0 view .LVU297
 921 0000 084B     		ldr	r3, .L112
 922              		.loc 1 368 24 view .LVU298
 923 0002 0948     		ldr	r0, .L112+4
 924              		.loc 1 366 16 view .LVU299
 925 0004 5968     		ldr	r1, [r3, #4]
 926              		.loc 1 368 24 view .LVU300
 927 0006 826E     		ldr	r2, [r0, #104]
 928              		.loc 1 366 23 view .LVU301
 929 0008 8909     		lsrs	r1, r1, #6
 930              		.loc 1 366 9 view .LVU302
 931 000a 01F03D01 		and	r1, r1, #61
 932              	.LVL39:
 933              		.loc 1 367 3 is_stmt 1 view .LVU303
 934              		.loc 1 361 29 is_stmt 0 view .LVU304
 935 000e 10B5     		push	{r4, lr}
 936              		.cfi_def_cfa_offset 8
 937              		.cfi_offset 4, -8
 938              		.cfi_offset 14, -4
 939              		.loc 1 367 23 view .LVU305
 940 0010 8C01     		lsls	r4, r1, #6
 941              		.loc 1 367 15 view .LVU306
 942 0012 DC60     		str	r4, [r3, #12]
 943              		.loc 1 368 3 is_stmt 1 view .LVU307
 944              		.loc 1 368 6 is_stmt 0 view .LVU308
 945 0014 0AB1     		cbz	r2, .L107
 946              		.loc 1 369 5 is_stmt 1 view .LVU309
 947 0016 C06E     		ldr	r0, [r0, #108]
 948 0018 9047     		blx	r2
 949              	.LVL40:
 950              	.L107:
 951              		.loc 1 371 3 view .LVU310
 952              		.loc 1 371 3 view .LVU311
 953              		.loc 1 372 1 is_stmt 0 view .LVU312
 954 001a BDE81040 		pop	{r4, lr}
 955              		.cfi_restore 14
 956              		.cfi_restore 4
 957              		.cfi_def_cfa_offset 0
 958              		.loc 1 371 3 view .LVU313
 959 001e FFF7FEBF 		b	_port_irq_epilogue
 960              	.LVL41:
 961              	.L113:
 962 0022 00BF     		.align	2
 963              	.L112:
 964 0024 00640240 		.word	1073898496
 965 0028 00000000 		.word	.LANCHOR0
 966              		.cfi_endproc
 967              	.LFE269:
 968              		.size	Vector150, .-Vector150
 969              		.section	.text.Vector154,"ax",%progbits
ARM GAS  C:\Users\USER\AppData\Local\Temp\ccQ81jt0.s 			page 18


 970              		.align	1
 971              		.p2align 4,,15
 972              		.global	Vector154
 973              		.syntax unified
 974              		.thumb
 975              		.thumb_func
 976              		.fpu fpv4-sp-d16
 977              		.type	Vector154, %function
 978              	Vector154:
 979              	.LFB270:
 980              		.loc 1 379 29 is_stmt 1 view -0
 981              		.cfi_startproc
 982              		@ args = 0, pretend = 0, frame = 0
 983              		@ frame_needed = 0, uses_anonymous_args = 0
 984              		.loc 1 380 3 view .LVU315
 985              		.loc 1 382 3 view .LVU316
 986              		.loc 1 382 3 view .LVU317
 987              		.loc 1 382 22 view .LVU318
 988              		.loc 1 384 3 view .LVU319
 989              		.loc 1 384 16 is_stmt 0 view .LVU320
 990 0000 084B     		ldr	r3, .L120
 991              		.loc 1 386 24 view .LVU321
 992 0002 0948     		ldr	r0, .L120+4
 993              		.loc 1 384 16 view .LVU322
 994 0004 5968     		ldr	r1, [r3, #4]
 995              		.loc 1 386 24 view .LVU323
 996 0006 026F     		ldr	r2, [r0, #112]
 997              		.loc 1 384 23 view .LVU324
 998 0008 090C     		lsrs	r1, r1, #16
 999              		.loc 1 384 9 view .LVU325
 1000 000a 01F03D01 		and	r1, r1, #61
 1001              	.LVL42:
 1002              		.loc 1 385 3 is_stmt 1 view .LVU326
 1003              		.loc 1 379 29 is_stmt 0 view .LVU327
 1004 000e 10B5     		push	{r4, lr}
 1005              		.cfi_def_cfa_offset 8
 1006              		.cfi_offset 4, -8
 1007              		.cfi_offset 14, -4
 1008              		.loc 1 385 23 view .LVU328
 1009 0010 0C04     		lsls	r4, r1, #16
 1010              		.loc 1 385 15 view .LVU329
 1011 0012 DC60     		str	r4, [r3, #12]
 1012              		.loc 1 386 3 is_stmt 1 view .LVU330
 1013              		.loc 1 386 6 is_stmt 0 view .LVU331
 1014 0014 0AB1     		cbz	r2, .L115
 1015              		.loc 1 387 5 is_stmt 1 view .LVU332
 1016 0016 406F     		ldr	r0, [r0, #116]
 1017 0018 9047     		blx	r2
 1018              	.LVL43:
 1019              	.L115:
 1020              		.loc 1 389 3 view .LVU333
 1021              		.loc 1 389 3 view .LVU334
 1022              		.loc 1 390 1 is_stmt 0 view .LVU335
 1023 001a BDE81040 		pop	{r4, lr}
 1024              		.cfi_restore 14
 1025              		.cfi_restore 4
 1026              		.cfi_def_cfa_offset 0
ARM GAS  C:\Users\USER\AppData\Local\Temp\ccQ81jt0.s 			page 19


 1027              		.loc 1 389 3 view .LVU336
 1028 001e FFF7FEBF 		b	_port_irq_epilogue
 1029              	.LVL44:
 1030              	.L121:
 1031 0022 00BF     		.align	2
 1032              	.L120:
 1033 0024 00640240 		.word	1073898496
 1034 0028 00000000 		.word	.LANCHOR0
 1035              		.cfi_endproc
 1036              	.LFE270:
 1037              		.size	Vector154, .-Vector154
 1038              		.section	.text.Vector158,"ax",%progbits
 1039              		.align	1
 1040              		.p2align 4,,15
 1041              		.global	Vector158
 1042              		.syntax unified
 1043              		.thumb
 1044              		.thumb_func
 1045              		.fpu fpv4-sp-d16
 1046              		.type	Vector158, %function
 1047              	Vector158:
 1048              	.LFB271:
 1049              		.loc 1 397 29 is_stmt 1 view -0
 1050              		.cfi_startproc
 1051              		@ args = 0, pretend = 0, frame = 0
 1052              		@ frame_needed = 0, uses_anonymous_args = 0
 1053              		.loc 1 398 3 view .LVU338
 1054              		.loc 1 400 3 view .LVU339
 1055              		.loc 1 400 3 view .LVU340
 1056              		.loc 1 400 22 view .LVU341
 1057              		.loc 1 402 3 view .LVU342
 1058              		.loc 1 402 16 is_stmt 0 view .LVU343
 1059 0000 084B     		ldr	r3, .L128
 1060              		.loc 1 404 24 view .LVU344
 1061 0002 0948     		ldr	r0, .L128+4
 1062              		.loc 1 402 16 view .LVU345
 1063 0004 5968     		ldr	r1, [r3, #4]
 1064              		.loc 1 404 24 view .LVU346
 1065 0006 826F     		ldr	r2, [r0, #120]
 1066              		.loc 1 402 23 view .LVU347
 1067 0008 890D     		lsrs	r1, r1, #22
 1068              		.loc 1 402 9 view .LVU348
 1069 000a 01F03D01 		and	r1, r1, #61
 1070              	.LVL45:
 1071              		.loc 1 403 3 is_stmt 1 view .LVU349
 1072              		.loc 1 397 29 is_stmt 0 view .LVU350
 1073 000e 10B5     		push	{r4, lr}
 1074              		.cfi_def_cfa_offset 8
 1075              		.cfi_offset 4, -8
 1076              		.cfi_offset 14, -4
 1077              		.loc 1 403 23 view .LVU351
 1078 0010 8C05     		lsls	r4, r1, #22
 1079              		.loc 1 403 15 view .LVU352
 1080 0012 DC60     		str	r4, [r3, #12]
 1081              		.loc 1 404 3 is_stmt 1 view .LVU353
 1082              		.loc 1 404 6 is_stmt 0 view .LVU354
 1083 0014 0AB1     		cbz	r2, .L123
ARM GAS  C:\Users\USER\AppData\Local\Temp\ccQ81jt0.s 			page 20


 1084              		.loc 1 405 5 is_stmt 1 view .LVU355
 1085 0016 C06F     		ldr	r0, [r0, #124]
 1086 0018 9047     		blx	r2
 1087              	.LVL46:
 1088              	.L123:
 1089              		.loc 1 407 3 view .LVU356
 1090              		.loc 1 407 3 view .LVU357
 1091              		.loc 1 408 1 is_stmt 0 view .LVU358
 1092 001a BDE81040 		pop	{r4, lr}
 1093              		.cfi_restore 14
 1094              		.cfi_restore 4
 1095              		.cfi_def_cfa_offset 0
 1096              		.loc 1 407 3 view .LVU359
 1097 001e FFF7FEBF 		b	_port_irq_epilogue
 1098              	.LVL47:
 1099              	.L129:
 1100 0022 00BF     		.align	2
 1101              	.L128:
 1102 0024 00640240 		.word	1073898496
 1103 0028 00000000 		.word	.LANCHOR0
 1104              		.cfi_endproc
 1105              	.LFE271:
 1106              		.size	Vector158, .-Vector158
 1107              		.section	.text.dmaInit,"ax",%progbits
 1108              		.align	1
 1109              		.p2align 4,,15
 1110              		.global	dmaInit
 1111              		.syntax unified
 1112              		.thumb
 1113              		.thumb_func
 1114              		.fpu fpv4-sp-d16
 1115              		.type	dmaInit, %function
 1116              	dmaInit:
 1117              	.LFB272:
 1118              		.loc 1 419 20 is_stmt 1 view -0
 1119              		.cfi_startproc
 1120              		@ args = 0, pretend = 0, frame = 0
 1121              		@ frame_needed = 0, uses_anonymous_args = 0
 1122              		@ link register save eliminated.
 1123              		.loc 1 420 3 view .LVU361
 1124              		.loc 1 422 3 view .LVU362
 1125              		.loc 1 422 20 is_stmt 0 view .LVU363
 1126 0000 0E49     		ldr	r1, .L136
 1127 0002 0F4A     		ldr	r2, .L136+4
 1128 0004 0F48     		ldr	r0, .L136+8
 1129 0006 0023     		movs	r3, #0
 1130              		.loc 1 419 20 view .LVU364
 1131 0008 10B4     		push	{r4}
 1132              		.cfi_def_cfa_offset 4
 1133              		.cfi_offset 4, -4
 1134              		.loc 1 422 20 view .LVU365
 1135 000a 0B60     		str	r3, [r1]
 1136              		.loc 1 423 3 is_stmt 1 view .LVU366
 1137              	.LVL48:
 1138              		.loc 1 423 3 is_stmt 0 view .LVU367
 1139 000c 0E4C     		ldr	r4, .L136+12
 1140              		.loc 1 424 38 view .LVU368
ARM GAS  C:\Users\USER\AppData\Local\Temp\ccQ81jt0.s 			page 21


 1141 000e 1946     		mov	r1, r3
 1142 0010 01E0     		b	.L132
 1143              	.LVL49:
 1144              	.L135:
 1145              		.loc 1 424 38 view .LVU369
 1146 0012 52F80C0C 		ldr	r0, [r2, #-12]
 1147              	.LVL50:
 1148              	.L132:
 1149              		.loc 1 424 5 is_stmt 1 discriminator 3 view .LVU370
 1150              		.loc 1 424 38 is_stmt 0 discriminator 3 view .LVU371
 1151 0016 0160     		str	r1, [r0]
 1152              		.loc 1 425 5 is_stmt 1 discriminator 3 view .LVU372
 1153              		.loc 1 425 31 is_stmt 0 discriminator 3 view .LVU373
 1154 0018 44F83310 		str	r1, [r4, r3, lsl #3]
 1155              		.loc 1 423 39 discriminator 3 view .LVU374
 1156 001c 0133     		adds	r3, r3, #1
 1157              	.LVL51:
 1158              		.loc 1 423 3 discriminator 3 view .LVU375
 1159 001e 102B     		cmp	r3, #16
 1160 0020 02F10C02 		add	r2, r2, #12
 1161 0024 F5D1     		bne	.L135
 1162              		.loc 1 427 3 is_stmt 1 view .LVU376
 1163              		.loc 1 427 15 is_stmt 0 view .LVU377
 1164 0026 0949     		ldr	r1, .L136+16
 1165              		.loc 1 429 15 view .LVU378
 1166 0028 094A     		ldr	r2, .L136+20
 1167              		.loc 1 431 1 view .LVU379
 1168 002a 5DF8044B 		ldr	r4, [sp], #4
 1169              		.cfi_restore 4
 1170              		.cfi_def_cfa_offset 0
 1171              		.loc 1 427 15 view .LVU380
 1172 002e 4FF0FF33 		mov	r3, #-1
 1173              	.LVL52:
 1174              		.loc 1 427 15 view .LVU381
 1175 0032 8B60     		str	r3, [r1, #8]
 1176              		.loc 1 428 3 is_stmt 1 view .LVU382
 1177              		.loc 1 428 15 is_stmt 0 view .LVU383
 1178 0034 CB60     		str	r3, [r1, #12]
 1179              		.loc 1 429 3 is_stmt 1 view .LVU384
 1180              		.loc 1 429 15 is_stmt 0 view .LVU385
 1181 0036 9360     		str	r3, [r2, #8]
 1182              		.loc 1 430 3 is_stmt 1 view .LVU386
 1183              		.loc 1 430 15 is_stmt 0 view .LVU387
 1184 0038 D360     		str	r3, [r2, #12]
 1185              		.loc 1 431 1 view .LVU388
 1186 003a 7047     		bx	lr
 1187              	.L137:
 1188              		.align	2
 1189              	.L136:
 1190 003c 00000000 		.word	.LANCHOR1
 1191 0040 0C000000 		.word	.LANCHOR2+12
 1192 0044 10600240 		.word	1073897488
 1193 0048 00000000 		.word	.LANCHOR0
 1194 004c 00600240 		.word	1073897472
 1195 0050 00640240 		.word	1073898496
 1196              		.cfi_endproc
 1197              	.LFE272:
ARM GAS  C:\Users\USER\AppData\Local\Temp\ccQ81jt0.s 			page 22


 1198              		.size	dmaInit, .-dmaInit
 1199              		.section	.text.dmaStreamAllocate,"ax",%progbits
 1200              		.align	1
 1201              		.p2align 4,,15
 1202              		.global	dmaStreamAllocate
 1203              		.syntax unified
 1204              		.thumb
 1205              		.thumb_func
 1206              		.fpu fpv4-sp-d16
 1207              		.type	dmaStreamAllocate, %function
 1208              	dmaStreamAllocate:
 1209              	.LVL53:
 1210              	.LFB273:
 1211              		.loc 1 460 37 is_stmt 1 view -0
 1212              		.cfi_startproc
 1213              		@ args = 0, pretend = 0, frame = 0
 1214              		@ frame_needed = 0, uses_anonymous_args = 0
 1215              		.loc 1 462 3 view .LVU390
 1216              		.loc 1 462 3 view .LVU391
 1217              		.loc 1 465 3 view .LVU392
 1218              		.loc 1 460 37 is_stmt 0 view .LVU393
 1219 0000 F8B5     		push	{r3, r4, r5, r6, r7, lr}
 1220              		.cfi_def_cfa_offset 24
 1221              		.cfi_offset 3, -24
 1222              		.cfi_offset 4, -20
 1223              		.cfi_offset 5, -16
 1224              		.cfi_offset 6, -12
 1225              		.cfi_offset 7, -8
 1226              		.cfi_offset 14, -4
 1227              		.loc 1 465 25 view .LVU394
 1228 0002 204F     		ldr	r7, .L154
 1229              		.loc 1 465 39 view .LVU395
 1230 0004 467A     		ldrb	r6, [r0, #9]	@ zero_extendqisi2
 1231              		.loc 1 465 25 view .LVU396
 1232 0006 D7F800C0 		ldr	ip, [r7]
 1233              		.loc 1 465 30 view .LVU397
 1234 000a 0124     		movs	r4, #1
 1235 000c 04FA06F5 		lsl	r5, r4, r6
 1236              		.loc 1 465 6 view .LVU398
 1237 0010 15EA0C0F 		tst	r5, ip
 1238 0014 33D1     		bne	.L143
 1239              		.loc 1 469 3 is_stmt 1 view .LVU399
 1240              		.loc 1 469 46 is_stmt 0 view .LVU400
 1241 0016 1C4C     		ldr	r4, .L154+4
 1242              		.loc 1 471 20 view .LVU401
 1243 0018 45EA0C05 		orr	r5, r5, ip
 1244              		.loc 1 470 46 view .LVU402
 1245 001c 04EBC60C 		add	ip, r4, r6, lsl #3
 1246              		.loc 1 474 6 view .LVU403
 1247 0020 15F0FF0F 		tst	r5, #255
 1248              		.loc 1 471 20 view .LVU404
 1249 0024 3D60     		str	r5, [r7]
 1250              		.loc 1 469 46 view .LVU405
 1251 0026 44F83620 		str	r2, [r4, r6, lsl #3]
 1252              		.loc 1 470 3 is_stmt 1 view .LVU406
 1253              		.loc 1 470 46 is_stmt 0 view .LVU407
 1254 002a CCF80430 		str	r3, [ip, #4]
ARM GAS  C:\Users\USER\AppData\Local\Temp\ccQ81jt0.s 			page 23


 1255              		.loc 1 471 3 is_stmt 1 view .LVU408
 1256              		.loc 1 474 3 view .LVU409
 1257              		.loc 1 474 6 is_stmt 0 view .LVU410
 1258 002e 04D0     		beq	.L140
 1259              		.loc 1 475 5 is_stmt 1 view .LVU411
 1260 0030 164C     		ldr	r4, .L154+8
 1261 0032 236B     		ldr	r3, [r4, #48]
 1262              	.LVL54:
 1263              		.loc 1 475 5 is_stmt 0 view .LVU412
 1264 0034 43F40013 		orr	r3, r3, #2097152
 1265 0038 2363     		str	r3, [r4, #48]
 1266              		.loc 1 475 5 is_stmt 1 view .LVU413
 1267              	.L140:
 1268              		.loc 1 475 25 discriminator 3 view .LVU414
 1269              		.loc 1 476 3 discriminator 3 view .LVU415
 1270              		.loc 1 476 6 is_stmt 0 discriminator 3 view .LVU416
 1271 003a 15F47F4F 		tst	r5, #65280
 1272 003e 16D1     		bne	.L153
 1273              	.L141:
 1274              		.loc 1 477 25 is_stmt 1 discriminator 3 view .LVU417
 1275              		.loc 1 480 3 discriminator 3 view .LVU418
 1276 0040 0568     		ldr	r5, [r0]
 1277 0042 2B68     		ldr	r3, [r5]
 1278 0044 23F01F03 		bic	r3, r3, #31
 1279 0048 2B60     		str	r3, [r5]
 1280              		.loc 1 480 3 discriminator 3 view .LVU419
 1281              	.L142:
 1282              		.loc 1 480 3 discriminator 2 view .LVU420
 1283 004a 2C68     		ldr	r4, [r5]
 1284 004c 14F00104 		ands	r4, r4, #1
 1285 0050 FBD1     		bne	.L142
 1286              		.loc 1 480 3 discriminator 3 view .LVU421
 1287 0052 077A     		ldrb	r7, [r0, #8]	@ zero_extendqisi2
 1288 0054 4668     		ldr	r6, [r0, #4]
 1289 0056 3D23     		movs	r3, #61
 1290 0058 BB40     		lsls	r3, r3, r7
 1291              		.loc 1 482 23 is_stmt 0 discriminator 3 view .LVU422
 1292 005a 2127     		movs	r7, #33
 1293              		.loc 1 480 3 discriminator 3 view .LVU423
 1294 005c 3360     		str	r3, [r6]
 1295              		.loc 1 480 3 is_stmt 1 discriminator 3 view .LVU424
 1296              		.loc 1 480 27 discriminator 3 view .LVU425
 1297              		.loc 1 481 3 discriminator 3 view .LVU426
 1298              		.loc 1 481 22 is_stmt 0 discriminator 3 view .LVU427
 1299 005e 2C60     		str	r4, [r5]
 1300              		.loc 1 482 3 is_stmt 1 discriminator 3 view .LVU428
 1301              		.loc 1 482 23 is_stmt 0 discriminator 3 view .LVU429
 1302 0060 6F61     		str	r7, [r5, #20]
 1303              		.loc 1 485 3 is_stmt 1 discriminator 3 view .LVU430
 1304              		.loc 1 485 6 is_stmt 0 discriminator 3 view .LVU431
 1305 0062 52B1     		cbz	r2, .L144
 1306              		.loc 1 486 5 is_stmt 1 view .LVU432
 1307 0064 807A     		ldrb	r0, [r0, #10]	@ zero_extendqisi2
 1308              	.LVL55:
 1309              		.loc 1 486 5 is_stmt 0 view .LVU433
 1310 0066 FFF7FEFF 		bl	nvicEnableVector
 1311              	.LVL56:
ARM GAS  C:\Users\USER\AppData\Local\Temp\ccQ81jt0.s 			page 24


 1312              		.loc 1 488 10 view .LVU434
 1313 006a 2046     		mov	r0, r4
 1314              		.loc 1 489 1 view .LVU435
 1315 006c F8BD     		pop	{r3, r4, r5, r6, r7, pc}
 1316              	.LVL57:
 1317              	.L153:
 1318              		.loc 1 477 5 is_stmt 1 view .LVU436
 1319 006e 074C     		ldr	r4, .L154+8
 1320 0070 236B     		ldr	r3, [r4, #48]
 1321 0072 43F48003 		orr	r3, r3, #4194304
 1322 0076 2363     		str	r3, [r4, #48]
 1323              		.loc 1 477 5 view .LVU437
 1324 0078 E2E7     		b	.L141
 1325              	.L144:
 1326              		.loc 1 488 10 is_stmt 0 view .LVU438
 1327 007a 1046     		mov	r0, r2
 1328              	.LVL58:
 1329              		.loc 1 489 1 view .LVU439
 1330 007c F8BD     		pop	{r3, r4, r5, r6, r7, pc}
 1331              	.LVL59:
 1332              	.L143:
 1333              		.loc 1 466 12 view .LVU440
 1334 007e 2046     		mov	r0, r4
 1335              	.LVL60:
 1336              		.loc 1 489 1 view .LVU441
 1337 0080 F8BD     		pop	{r3, r4, r5, r6, r7, pc}
 1338              	.LVL61:
 1339              	.L155:
 1340              		.loc 1 489 1 view .LVU442
 1341 0082 00BF     		.align	2
 1342              	.L154:
 1343 0084 00000000 		.word	.LANCHOR1
 1344 0088 00000000 		.word	.LANCHOR0
 1345 008c 00380240 		.word	1073887232
 1346              		.cfi_endproc
 1347              	.LFE273:
 1348              		.size	dmaStreamAllocate, .-dmaStreamAllocate
 1349              		.section	.text.dmaStreamRelease,"ax",%progbits
 1350              		.align	1
 1351              		.p2align 4,,15
 1352              		.global	dmaStreamRelease
 1353              		.syntax unified
 1354              		.thumb
 1355              		.thumb_func
 1356              		.fpu fpv4-sp-d16
 1357              		.type	dmaStreamRelease, %function
 1358              	dmaStreamRelease:
 1359              	.LVL62:
 1360              	.LFB274:
 1361              		.loc 1 504 57 is_stmt 1 view -0
 1362              		.cfi_startproc
 1363              		@ args = 0, pretend = 0, frame = 0
 1364              		@ frame_needed = 0, uses_anonymous_args = 0
 1365              		.loc 1 506 3 view .LVU444
 1366              		.loc 1 506 3 view .LVU445
 1367              		.loc 1 509 3 view .LVU446
 1368              		.loc 1 509 3 view .LVU447
ARM GAS  C:\Users\USER\AppData\Local\Temp\ccQ81jt0.s 			page 25


 1369              		.loc 1 513 3 view .LVU448
 1370              		.loc 1 504 57 is_stmt 0 view .LVU449
 1371 0000 10B5     		push	{r4, lr}
 1372              		.cfi_def_cfa_offset 8
 1373              		.cfi_offset 4, -8
 1374              		.cfi_offset 14, -4
 1375              		.loc 1 504 57 view .LVU450
 1376 0002 0446     		mov	r4, r0
 1377              		.loc 1 513 3 view .LVU451
 1378 0004 807A     		ldrb	r0, [r0, #10]	@ zero_extendqisi2
 1379              	.LVL63:
 1380              		.loc 1 513 3 view .LVU452
 1381 0006 FFF7FEFF 		bl	nvicDisableVector
 1382              	.LVL64:
 1383              		.loc 1 516 3 is_stmt 1 view .LVU453
 1384              		.loc 1 516 20 is_stmt 0 view .LVU454
 1385 000a 0C49     		ldr	r1, .L160
 1386              		.loc 1 516 36 view .LVU455
 1387 000c 607A     		ldrb	r0, [r4, #9]	@ zero_extendqisi2
 1388              		.loc 1 516 20 view .LVU456
 1389 000e 0B68     		ldr	r3, [r1]
 1390              		.loc 1 516 27 view .LVU457
 1391 0010 0122     		movs	r2, #1
 1392 0012 8240     		lsls	r2, r2, r0
 1393              		.loc 1 516 20 view .LVU458
 1394 0014 23EA0203 		bic	r3, r3, r2
 1395              		.loc 1 519 6 view .LVU459
 1396 0018 13F0FF0F 		tst	r3, #255
 1397              		.loc 1 516 20 view .LVU460
 1398 001c 0B60     		str	r3, [r1]
 1399              		.loc 1 519 3 is_stmt 1 view .LVU461
 1400              		.loc 1 519 6 is_stmt 0 view .LVU462
 1401 001e 04D1     		bne	.L157
 1402              		.loc 1 520 5 is_stmt 1 view .LVU463
 1403 0020 0749     		ldr	r1, .L160+4
 1404 0022 0A6B     		ldr	r2, [r1, #48]
 1405 0024 22F40012 		bic	r2, r2, #2097152
 1406 0028 0A63     		str	r2, [r1, #48]
 1407              		.loc 1 520 5 view .LVU464
 1408              	.L157:
 1409              		.loc 1 520 26 discriminator 3 view .LVU465
 1410              		.loc 1 521 3 discriminator 3 view .LVU466
 1411              		.loc 1 521 6 is_stmt 0 discriminator 3 view .LVU467
 1412 002a 13F47F4F 		tst	r3, #65280
 1413 002e 04D1     		bne	.L156
 1414              		.loc 1 522 5 is_stmt 1 view .LVU468
 1415 0030 034A     		ldr	r2, .L160+4
 1416 0032 136B     		ldr	r3, [r2, #48]
 1417 0034 23F48003 		bic	r3, r3, #4194304
 1418 0038 1363     		str	r3, [r2, #48]
 1419              		.loc 1 522 5 view .LVU469
 1420              		.loc 1 522 26 view .LVU470
 1421              	.L156:
 1422              		.loc 1 523 1 is_stmt 0 view .LVU471
 1423 003a 10BD     		pop	{r4, pc}
 1424              	.LVL65:
 1425              	.L161:
ARM GAS  C:\Users\USER\AppData\Local\Temp\ccQ81jt0.s 			page 26


 1426              		.loc 1 523 1 view .LVU472
 1427              		.align	2
 1428              	.L160:
 1429 003c 00000000 		.word	.LANCHOR1
 1430 0040 00380240 		.word	1073887232
 1431              		.cfi_endproc
 1432              	.LFE274:
 1433              		.size	dmaStreamRelease, .-dmaStreamRelease
 1434              		.global	_stm32_dma_streams
 1435              		.section	.bss.dma_isr_redir,"aw",%nobits
 1436              		.align	2
 1437              		.set	.LANCHOR0,. + 0
 1438              		.type	dma_isr_redir, %object
 1439              		.size	dma_isr_redir, 128
 1440              	dma_isr_redir:
 1441 0000 00000000 		.space	128
 1441      00000000 
 1441      00000000 
 1441      00000000 
 1441      00000000 
 1442              		.section	.bss.dma_streams_mask,"aw",%nobits
 1443              		.align	2
 1444              		.set	.LANCHOR1,. + 0
 1445              		.type	dma_streams_mask, %object
 1446              		.size	dma_streams_mask, 4
 1447              	dma_streams_mask:
 1448 0000 00000000 		.space	4
 1449              		.section	.rodata._stm32_dma_streams,"a"
 1450              		.align	2
 1451              		.set	.LANCHOR2,. + 0
 1452              		.type	_stm32_dma_streams, %object
 1453              		.size	_stm32_dma_streams, 192
 1454              	_stm32_dma_streams:
 1455 0000 10600240 		.word	1073897488
 1456 0004 08600240 		.word	1073897480
 1457 0008 00       		.byte	0
 1458 0009 00       		.byte	0
 1459 000a 0B       		.byte	11
 1460 000b 00       		.space	1
 1461 000c 28600240 		.word	1073897512
 1462 0010 08600240 		.word	1073897480
 1463 0014 06       		.byte	6
 1464 0015 01       		.byte	1
 1465 0016 0C       		.byte	12
 1466 0017 00       		.space	1
 1467 0018 40600240 		.word	1073897536
 1468 001c 08600240 		.word	1073897480
 1469 0020 10       		.byte	16
 1470 0021 02       		.byte	2
 1471 0022 0D       		.byte	13
 1472 0023 00       		.space	1
 1473 0024 58600240 		.word	1073897560
 1474 0028 08600240 		.word	1073897480
 1475 002c 16       		.byte	22
 1476 002d 03       		.byte	3
 1477 002e 0E       		.byte	14
 1478 002f 00       		.space	1
ARM GAS  C:\Users\USER\AppData\Local\Temp\ccQ81jt0.s 			page 27


 1479 0030 70600240 		.word	1073897584
 1480 0034 0C600240 		.word	1073897484
 1481 0038 00       		.byte	0
 1482 0039 04       		.byte	4
 1483 003a 0F       		.byte	15
 1484 003b 00       		.space	1
 1485 003c 88600240 		.word	1073897608
 1486 0040 0C600240 		.word	1073897484
 1487 0044 06       		.byte	6
 1488 0045 05       		.byte	5
 1489 0046 10       		.byte	16
 1490 0047 00       		.space	1
 1491 0048 A0600240 		.word	1073897632
 1492 004c 0C600240 		.word	1073897484
 1493 0050 10       		.byte	16
 1494 0051 06       		.byte	6
 1495 0052 11       		.byte	17
 1496 0053 00       		.space	1
 1497 0054 B8600240 		.word	1073897656
 1498 0058 0C600240 		.word	1073897484
 1499 005c 16       		.byte	22
 1500 005d 07       		.byte	7
 1501 005e 2F       		.byte	47
 1502 005f 00       		.space	1
 1503 0060 10640240 		.word	1073898512
 1504 0064 08640240 		.word	1073898504
 1505 0068 00       		.byte	0
 1506 0069 08       		.byte	8
 1507 006a 38       		.byte	56
 1508 006b 00       		.space	1
 1509 006c 28640240 		.word	1073898536
 1510 0070 08640240 		.word	1073898504
 1511 0074 06       		.byte	6
 1512 0075 09       		.byte	9
 1513 0076 39       		.byte	57
 1514 0077 00       		.space	1
 1515 0078 40640240 		.word	1073898560
 1516 007c 08640240 		.word	1073898504
 1517 0080 10       		.byte	16
 1518 0081 0A       		.byte	10
 1519 0082 3A       		.byte	58
 1520 0083 00       		.space	1
 1521 0084 58640240 		.word	1073898584
 1522 0088 08640240 		.word	1073898504
 1523 008c 16       		.byte	22
 1524 008d 0B       		.byte	11
 1525 008e 3B       		.byte	59
 1526 008f 00       		.space	1
 1527 0090 70640240 		.word	1073898608
 1528 0094 0C640240 		.word	1073898508
 1529 0098 00       		.byte	0
 1530 0099 0C       		.byte	12
 1531 009a 3C       		.byte	60
 1532 009b 00       		.space	1
 1533 009c 88640240 		.word	1073898632
 1534 00a0 0C640240 		.word	1073898508
 1535 00a4 06       		.byte	6
ARM GAS  C:\Users\USER\AppData\Local\Temp\ccQ81jt0.s 			page 28


 1536 00a5 0D       		.byte	13
 1537 00a6 44       		.byte	68
 1538 00a7 00       		.space	1
 1539 00a8 A0640240 		.word	1073898656
 1540 00ac 0C640240 		.word	1073898508
 1541 00b0 10       		.byte	16
 1542 00b1 0E       		.byte	14
 1543 00b2 45       		.byte	69
 1544 00b3 00       		.space	1
 1545 00b4 B8640240 		.word	1073898680
 1546 00b8 0C640240 		.word	1073898508
 1547 00bc 16       		.byte	22
 1548 00bd 0F       		.byte	15
 1549 00be 46       		.byte	70
 1550 00bf 00       		.space	1
 1551              		.text
 1552              	.Letext0:
 1553              		.file 2 "c:\\program files (x86)\\gnu tools arm embedded\\8 2018-q4-major\\lib\\gcc\\arm-none-eabi
 1554              		.file 3 "c:\\program files (x86)\\gnu tools arm embedded\\8 2018-q4-major\\arm-none-eabi\\include\
 1555              		.file 4 "c:\\program files (x86)\\gnu tools arm embedded\\8 2018-q4-major\\arm-none-eabi\\include\
 1556              		.file 5 "src/ChibiOS_3.0.2/os/rt/ports/ARMCMx/compilers/GCC/chtypes.h"
 1557              		.file 6 "src/ChibiOS_3.0.2/os/rt/include/chsystypes.h"
 1558              		.file 7 "src/ChibiOS_3.0.2/os/rt/include/chschd.h"
 1559              		.file 8 "src/ChibiOS_3.0.2/os/ext/CMSIS/include/core_cm4.h"
 1560              		.file 9 "src/ChibiOS_3.0.2/os/ext/CMSIS/ST/system_stm32f4xx.h"
 1561              		.file 10 "src/ChibiOS_3.0.2/os/ext/CMSIS/ST/stm32f407xx.h"
 1562              		.file 11 "src/ChibiOS_3.0.2/os/rt/ports/ARMCMx/chcore.h"
 1563              		.file 12 "src/ChibiOS_3.0.2/os/rt/ports/ARMCMx/chcore_v7m.h"
 1564              		.file 13 "src/ChibiOS_3.0.2/os/rt/include/chtm.h"
 1565              		.file 14 "src/ChibiOS_3.0.2/os/rt/include/chsem.h"
 1566              		.file 15 "src/ChibiOS_3.0.2/os/rt/include/chmtx.h"
 1567              		.file 16 "src/ChibiOS_3.0.2/os/rt/include/chregistry.h"
 1568              		.file 17 "src/ChibiOS_3.0.2/os/rt/include/chevents.h"
 1569              		.file 18 "src/ChibiOS_3.0.2/os/rt/include/chqueues.h"
 1570              		.file 19 "src/ChibiOS_3.0.2/os/hal/ports/STM32/STM32F4xx/stm32_dma.h"
 1571              		.file 20 "src/ChibiOS_3.0.2/os/hal/ports/STM32/LLD/GPIOv2/pal_lld.h"
 1572              		.file 21 "src/ChibiOS_3.0.2/os/hal/include/can.h"
 1573              		.file 22 "src/ChibiOS_3.0.2/os/hal/ports/STM32/LLD/can_lld.h"
 1574              		.file 23 "src/ChibiOS_3.0.2/os/hal/include/i2c.h"
 1575              		.file 24 "src/ChibiOS_3.0.2/os/hal/ports/STM32/LLD/I2Cv1/i2c_lld.h"
 1576              		.file 25 "src/ChibiOS_3.0.2/os/hal/include/icu.h"
 1577              		.file 26 "src/ChibiOS_3.0.2/os/hal/ports/STM32/LLD/TIMv1/icu_lld.h"
 1578              		.file 27 "src/ChibiOS_3.0.2/os/hal/ports/STM32/LLD/TIMv1/stm32_tim.h"
 1579              		.file 28 "src/ChibiOS_3.0.2/os/hal/include/serial.h"
 1580              		.file 29 "src/ChibiOS_3.0.2/os/hal/ports/STM32/LLD/USARTv1/serial_lld.h"
 1581              		.file 30 "src/ChibiOS_3.0.2/os/hal/include/spi.h"
 1582              		.file 31 "src/ChibiOS_3.0.2/os/hal/ports/STM32/LLD/SPIv1/spi_lld.h"
 1583              		.file 32 "src/ChibiOS_3.0.2/os/hal/include/uart.h"
 1584              		.file 33 "src/ChibiOS_3.0.2/os/hal/ports/STM32/LLD/USARTv1/uart_lld.h"
 1585              		.file 34 "src/ChibiOS_3.0.2/os/hal/include/usb.h"
 1586              		.file 35 "src/ChibiOS_3.0.2/os/hal/ports/STM32/LLD/OTGv1/usb_lld.h"
 1587              		.file 36 "src/ChibiOS_3.0.2/os/hal/ports/STM32/LLD/OTGv1/stm32_otg.h"
 1588              		.file 37 "src/ChibiOS_3.0.2/os/hal/ports/common/ARMCMx/nvic.h"