ARM GAS  C:\Users\USER\AppData\Local\Temp\ccTjsbjM.s 			page 1


   1              		.cpu cortex-m4
   2              		.eabi_attribute 27, 1
   3              		.eabi_attribute 28, 1
   4              		.eabi_attribute 20, 1
   5              		.eabi_attribute 21, 1
   6              		.eabi_attribute 23, 3
   7              		.eabi_attribute 24, 1
   8              		.eabi_attribute 25, 1
   9              		.eabi_attribute 26, 1
  10              		.eabi_attribute 30, 2
  11              		.eabi_attribute 34, 1
  12              		.eabi_attribute 18, 4
  13              		.file	"stm32f4xx_exti.c"
  14              		.text
  15              	.Ltext0:
  16              		.cfi_sections	.debug_frame
  17              		.section	.text.EXTI_DeInit,"ax",%progbits
  18              		.align	1
  19              		.p2align 4,,15
  20              		.global	EXTI_DeInit
  21              		.arch armv7e-m
  22              		.syntax unified
  23              		.thumb
  24              		.thumb_func
  25              		.fpu fpv4-sp-d16
  26              		.type	EXTI_DeInit, %function
  27              	EXTI_DeInit:
  28              	.LFB112:
  29              		.file 1 "src/ChibiOS_3.0.2/ext/stdperiph_stm32f4/src/stm32f4xx_exti.c"
  30              		.loc 1 115 1 view -0
  31              		.cfi_startproc
  32              		@ args = 0, pretend = 0, frame = 0
  33              		@ frame_needed = 0, uses_anonymous_args = 0
  34              		@ link register save eliminated.
  35              		.loc 1 116 3 view .LVU1
  36              		.loc 1 116 13 is_stmt 0 view .LVU2
  37 0000 044B     		ldr	r3, .L3
  38              		.loc 1 120 12 view .LVU3
  39 0002 0549     		ldr	r1, .L3+4
  40              		.loc 1 116 13 view .LVU4
  41 0004 0022     		movs	r2, #0
  42 0006 1A60     		str	r2, [r3]
  43              		.loc 1 117 3 is_stmt 1 view .LVU5
  44              		.loc 1 117 13 is_stmt 0 view .LVU6
  45 0008 5A60     		str	r2, [r3, #4]
  46              		.loc 1 118 3 is_stmt 1 view .LVU7
  47              		.loc 1 118 14 is_stmt 0 view .LVU8
  48 000a 9A60     		str	r2, [r3, #8]
  49              		.loc 1 119 3 is_stmt 1 view .LVU9
  50              		.loc 1 119 14 is_stmt 0 view .LVU10
  51 000c DA60     		str	r2, [r3, #12]
  52              		.loc 1 120 3 is_stmt 1 view .LVU11
  53              		.loc 1 120 12 is_stmt 0 view .LVU12
  54 000e 5961     		str	r1, [r3, #20]
  55              		.loc 1 121 1 view .LVU13
  56 0010 7047     		bx	lr
  57              	.L4:
ARM GAS  C:\Users\USER\AppData\Local\Temp\ccTjsbjM.s 			page 2


  58 0012 00BF     		.align	2
  59              	.L3:
  60 0014 003C0140 		.word	1073822720
  61 0018 FFFF7F00 		.word	8388607
  62              		.cfi_endproc
  63              	.LFE112:
  64              		.size	EXTI_DeInit, .-EXTI_DeInit
  65              		.section	.text.EXTI_Init,"ax",%progbits
  66              		.align	1
  67              		.p2align 4,,15
  68              		.global	EXTI_Init
  69              		.syntax unified
  70              		.thumb
  71              		.thumb_func
  72              		.fpu fpv4-sp-d16
  73              		.type	EXTI_Init, %function
  74              	EXTI_Init:
  75              	.LVL0:
  76              	.LFB113:
  77              		.loc 1 131 1 is_stmt 1 view -0
  78              		.cfi_startproc
  79              		@ args = 0, pretend = 0, frame = 0
  80              		@ frame_needed = 0, uses_anonymous_args = 0
  81              		@ link register save eliminated.
  82              		.loc 1 132 3 view .LVU15
  83              		.loc 1 135 3 view .LVU16
  84              		.loc 1 136 3 view .LVU17
  85              		.loc 1 137 3 view .LVU18
  86              		.loc 1 138 3 view .LVU19
  87              		.loc 1 140 3 view .LVU20
  88              		.loc 1 142 3 view .LVU21
  89 0000 0379     		ldrb	r3, [r0, #4]	@ zero_extendqisi2
  90              		.loc 1 142 6 is_stmt 0 view .LVU22
  91 0002 8279     		ldrb	r2, [r0, #6]	@ zero_extendqisi2
  92              		.loc 1 131 1 view .LVU23
  93 0004 70B4     		push	{r4, r5, r6}
  94              		.cfi_def_cfa_offset 12
  95              		.cfi_offset 4, -12
  96              		.cfi_offset 5, -8
  97              		.cfi_offset 6, -4
  98 0006 0568     		ldr	r5, [r0]
  99 0008 03F18043 		add	r3, r3, #1073741824
 100 000c 03F59E33 		add	r3, r3, #80896
 101 0010 EC43     		mvns	r4, r5
 102              		.loc 1 142 6 view .LVU24
 103 0012 F2B1     		cbz	r2, .L6
 104              		.loc 1 145 5 is_stmt 1 view .LVU25
 105              		.loc 1 145 15 is_stmt 0 view .LVU26
 106 0014 154A     		ldr	r2, .L11
 107              		.loc 1 157 24 view .LVU27
 108 0016 4179     		ldrb	r1, [r0, #5]	@ zero_extendqisi2
 109              		.loc 1 145 15 view .LVU28
 110 0018 1668     		ldr	r6, [r2]
 111 001a 2640     		ands	r6, r6, r4
 112 001c 1660     		str	r6, [r2]
 113              		.loc 1 146 5 is_stmt 1 view .LVU29
 114              		.loc 1 146 15 is_stmt 0 view .LVU30
ARM GAS  C:\Users\USER\AppData\Local\Temp\ccTjsbjM.s 			page 3


 115 001e 5668     		ldr	r6, [r2, #4]
 116 0020 3440     		ands	r4, r4, r6
 117 0022 5460     		str	r4, [r2, #4]
 118              		.loc 1 148 5 is_stmt 1 view .LVU31
 119              	.LVL1:
 120              		.loc 1 150 5 view .LVU32
 121              		.loc 1 150 28 is_stmt 0 view .LVU33
 122 0024 1C68     		ldr	r4, [r3]
 123 0026 2543     		orrs	r5, r5, r4
 124 0028 1D60     		str	r5, [r3]
 125              		.loc 1 153 5 is_stmt 1 view .LVU34
 126              		.loc 1 153 35 is_stmt 0 view .LVU35
 127 002a 0068     		ldr	r0, [r0]
 128              	.LVL2:
 129              		.loc 1 153 16 view .LVU36
 130 002c 9468     		ldr	r4, [r2, #8]
 131              		.loc 1 153 19 view .LVU37
 132 002e C343     		mvns	r3, r0
 133              		.loc 1 153 16 view .LVU38
 134 0030 1C40     		ands	r4, r4, r3
 135 0032 9460     		str	r4, [r2, #8]
 136              		.loc 1 154 5 is_stmt 1 view .LVU39
 137              		.loc 1 154 16 is_stmt 0 view .LVU40
 138 0034 D468     		ldr	r4, [r2, #12]
 139              		.loc 1 157 8 view .LVU41
 140 0036 1029     		cmp	r1, #16
 141              		.loc 1 154 16 view .LVU42
 142 0038 03EA0403 		and	r3, r3, r4
 143 003c D360     		str	r3, [r2, #12]
 144              		.loc 1 157 5 is_stmt 1 view .LVU43
 145              		.loc 1 157 8 is_stmt 0 view .LVU44
 146 003e 0DD0     		beq	.L10
 147              		.loc 1 165 7 is_stmt 1 view .LVU45
 148              	.LVL3:
 149              		.loc 1 166 7 view .LVU46
 150              		.loc 1 168 7 view .LVU47
 151              		.loc 1 166 11 is_stmt 0 view .LVU48
 152 0040 01F18043 		add	r3, r1, #1073741824
 153 0044 03F59E33 		add	r3, r3, #80896
 154              		.loc 1 178 1 view .LVU49
 155 0048 70BC     		pop	{r4, r5, r6}
 156              		.cfi_remember_state
 157              		.cfi_restore 6
 158              		.cfi_restore 5
 159              		.cfi_restore 4
 160              		.cfi_def_cfa_offset 0
 161              		.loc 1 168 30 view .LVU50
 162 004a 1A68     		ldr	r2, [r3]
 163 004c 1043     		orrs	r0, r0, r2
 164 004e 1860     		str	r0, [r3]
 165              		.loc 1 178 1 view .LVU51
 166 0050 7047     		bx	lr
 167              	.LVL4:
 168              	.L6:
 169              		.cfi_restore_state
 170              		.loc 1 173 5 is_stmt 1 view .LVU52
 171              		.loc 1 176 5 view .LVU53
ARM GAS  C:\Users\USER\AppData\Local\Temp\ccTjsbjM.s 			page 4


 172              		.loc 1 176 28 is_stmt 0 view .LVU54
 173 0052 1A68     		ldr	r2, [r3]
 174 0054 1440     		ands	r4, r4, r2
 175 0056 1C60     		str	r4, [r3]
 176              		.loc 1 178 1 view .LVU55
 177 0058 70BC     		pop	{r4, r5, r6}
 178              		.cfi_remember_state
 179              		.cfi_restore 6
 180              		.cfi_restore 5
 181              		.cfi_restore 4
 182              		.cfi_def_cfa_offset 0
 183 005a 7047     		bx	lr
 184              	.LVL5:
 185              	.L10:
 186              		.cfi_restore_state
 187              		.loc 1 160 7 is_stmt 1 view .LVU56
 188              		.loc 1 160 18 is_stmt 0 view .LVU57
 189 005c 9368     		ldr	r3, [r2, #8]
 190 005e 0343     		orrs	r3, r3, r0
 191 0060 9360     		str	r3, [r2, #8]
 192              		.loc 1 161 7 is_stmt 1 view .LVU58
 193              		.loc 1 161 18 is_stmt 0 view .LVU59
 194 0062 D368     		ldr	r3, [r2, #12]
 195 0064 1843     		orrs	r0, r0, r3
 196 0066 D060     		str	r0, [r2, #12]
 197              		.loc 1 178 1 view .LVU60
 198 0068 70BC     		pop	{r4, r5, r6}
 199              		.cfi_restore 6
 200              		.cfi_restore 5
 201              		.cfi_restore 4
 202              		.cfi_def_cfa_offset 0
 203 006a 7047     		bx	lr
 204              	.L12:
 205              		.align	2
 206              	.L11:
 207 006c 003C0140 		.word	1073822720
 208              		.cfi_endproc
 209              	.LFE113:
 210              		.size	EXTI_Init, .-EXTI_Init
 211              		.section	.text.EXTI_StructInit,"ax",%progbits
 212              		.align	1
 213              		.p2align 4,,15
 214              		.global	EXTI_StructInit
 215              		.syntax unified
 216              		.thumb
 217              		.thumb_func
 218              		.fpu fpv4-sp-d16
 219              		.type	EXTI_StructInit, %function
 220              	EXTI_StructInit:
 221              	.LVL6:
 222              	.LFB114:
 223              		.loc 1 187 1 is_stmt 1 view -0
 224              		.cfi_startproc
 225              		@ args = 0, pretend = 0, frame = 0
 226              		@ frame_needed = 0, uses_anonymous_args = 0
 227              		@ link register save eliminated.
 228              		.loc 1 188 3 view .LVU62
ARM GAS  C:\Users\USER\AppData\Local\Temp\ccTjsbjM.s 			page 5


 229              		.loc 1 189 3 view .LVU63
 230              		.loc 1 190 3 view .LVU64
 231              		.loc 1 191 3 view .LVU65
 232              		.loc 1 188 30 is_stmt 0 view .LVU66
 233 0000 0023     		movs	r3, #0
 234              		.loc 1 189 30 view .LVU67
 235 0002 4FF44062 		mov	r2, #3072
 236 0006 8280     		strh	r2, [r0, #4]	@ movhi
 237              		.loc 1 188 30 view .LVU68
 238 0008 0360     		str	r3, [r0]
 239              		.loc 1 191 33 view .LVU69
 240 000a 8371     		strb	r3, [r0, #6]
 241              		.loc 1 192 1 view .LVU70
 242 000c 7047     		bx	lr
 243              		.cfi_endproc
 244              	.LFE114:
 245              		.size	EXTI_StructInit, .-EXTI_StructInit
 246 000e 00BF     		.section	.text.EXTI_GenerateSWInterrupt,"ax",%progbits
 247              		.align	1
 248              		.p2align 4,,15
 249              		.global	EXTI_GenerateSWInterrupt
 250              		.syntax unified
 251              		.thumb
 252              		.thumb_func
 253              		.fpu fpv4-sp-d16
 254              		.type	EXTI_GenerateSWInterrupt, %function
 255              	EXTI_GenerateSWInterrupt:
 256              	.LVL7:
 257              	.LFB115:
 258              		.loc 1 202 1 is_stmt 1 view -0
 259              		.cfi_startproc
 260              		@ args = 0, pretend = 0, frame = 0
 261              		@ frame_needed = 0, uses_anonymous_args = 0
 262              		@ link register save eliminated.
 263              		.loc 1 204 3 view .LVU72
 264              		.loc 1 206 3 view .LVU73
 265              		.loc 1 206 15 is_stmt 0 view .LVU74
 266 0000 024A     		ldr	r2, .L15
 267 0002 1369     		ldr	r3, [r2, #16]
 268 0004 1843     		orrs	r0, r0, r3
 269              	.LVL8:
 270              		.loc 1 206 15 view .LVU75
 271 0006 1061     		str	r0, [r2, #16]
 272              		.loc 1 207 1 view .LVU76
 273 0008 7047     		bx	lr
 274              	.L16:
 275 000a 00BF     		.align	2
 276              	.L15:
 277 000c 003C0140 		.word	1073822720
 278              		.cfi_endproc
 279              	.LFE115:
 280              		.size	EXTI_GenerateSWInterrupt, .-EXTI_GenerateSWInterrupt
 281              		.section	.text.EXTI_GetFlagStatus,"ax",%progbits
 282              		.align	1
 283              		.p2align 4,,15
 284              		.global	EXTI_GetFlagStatus
 285              		.syntax unified
ARM GAS  C:\Users\USER\AppData\Local\Temp\ccTjsbjM.s 			page 6


 286              		.thumb
 287              		.thumb_func
 288              		.fpu fpv4-sp-d16
 289              		.type	EXTI_GetFlagStatus, %function
 290              	EXTI_GetFlagStatus:
 291              	.LVL9:
 292              	.LFB116:
 293              		.loc 1 232 1 is_stmt 1 view -0
 294              		.cfi_startproc
 295              		@ args = 0, pretend = 0, frame = 0
 296              		@ frame_needed = 0, uses_anonymous_args = 0
 297              		@ link register save eliminated.
 298              		.loc 1 233 3 view .LVU78
 299              		.loc 1 235 3 view .LVU79
 300              		.loc 1 237 3 view .LVU80
 301              		.loc 1 237 12 is_stmt 0 view .LVU81
 302 0000 034B     		ldr	r3, .L18
 303 0002 5B69     		ldr	r3, [r3, #20]
 304              	.LVL10:
 305              		.loc 1 245 3 is_stmt 1 view .LVU82
 306              		.loc 1 237 6 is_stmt 0 view .LVU83
 307 0004 0342     		tst	r3, r0
 308              		.loc 1 246 1 view .LVU84
 309 0006 14BF     		ite	ne
 310 0008 0120     		movne	r0, #1
 311              	.LVL11:
 312              		.loc 1 246 1 view .LVU85
 313 000a 0020     		moveq	r0, #0
 314 000c 7047     		bx	lr
 315              	.L19:
 316 000e 00BF     		.align	2
 317              	.L18:
 318 0010 003C0140 		.word	1073822720
 319              		.cfi_endproc
 320              	.LFE116:
 321              		.size	EXTI_GetFlagStatus, .-EXTI_GetFlagStatus
 322              		.section	.text.EXTI_ClearFlag,"ax",%progbits
 323              		.align	1
 324              		.p2align 4,,15
 325              		.global	EXTI_ClearFlag
 326              		.syntax unified
 327              		.thumb
 328              		.thumb_func
 329              		.fpu fpv4-sp-d16
 330              		.type	EXTI_ClearFlag, %function
 331              	EXTI_ClearFlag:
 332              	.LVL12:
 333              	.LFB117:
 334              		.loc 1 255 1 is_stmt 1 view -0
 335              		.cfi_startproc
 336              		@ args = 0, pretend = 0, frame = 0
 337              		@ frame_needed = 0, uses_anonymous_args = 0
 338              		@ link register save eliminated.
 339              		.loc 1 257 3 view .LVU87
 340              		.loc 1 259 3 view .LVU88
 341              		.loc 1 259 12 is_stmt 0 view .LVU89
 342 0000 014B     		ldr	r3, .L21
ARM GAS  C:\Users\USER\AppData\Local\Temp\ccTjsbjM.s 			page 7


 343 0002 5861     		str	r0, [r3, #20]
 344              		.loc 1 260 1 view .LVU90
 345 0004 7047     		bx	lr
 346              	.L22:
 347 0006 00BF     		.align	2
 348              	.L21:
 349 0008 003C0140 		.word	1073822720
 350              		.cfi_endproc
 351              	.LFE117:
 352              		.size	EXTI_ClearFlag, .-EXTI_ClearFlag
 353              		.section	.text.EXTI_GetITStatus,"ax",%progbits
 354              		.align	1
 355              		.p2align 4,,15
 356              		.global	EXTI_GetITStatus
 357              		.syntax unified
 358              		.thumb
 359              		.thumb_func
 360              		.fpu fpv4-sp-d16
 361              		.type	EXTI_GetITStatus, %function
 362              	EXTI_GetITStatus:
 363              	.LFB121:
 364              		.cfi_startproc
 365              		@ args = 0, pretend = 0, frame = 0
 366              		@ frame_needed = 0, uses_anonymous_args = 0
 367              		@ link register save eliminated.
 368 0000 FFF7FEBF 		b	EXTI_GetFlagStatus
 369              		.cfi_endproc
 370              	.LFE121:
 371              		.size	EXTI_GetITStatus, .-EXTI_GetITStatus
 372              		.section	.text.EXTI_ClearITPendingBit,"ax",%progbits
 373              		.align	1
 374              		.p2align 4,,15
 375              		.global	EXTI_ClearITPendingBit
 376              		.syntax unified
 377              		.thumb
 378              		.thumb_func
 379              		.fpu fpv4-sp-d16
 380              		.type	EXTI_ClearITPendingBit, %function
 381              	EXTI_ClearITPendingBit:
 382              	.LFB123:
 383              		.cfi_startproc
 384              		@ args = 0, pretend = 0, frame = 0
 385              		@ frame_needed = 0, uses_anonymous_args = 0
 386              		@ link register save eliminated.
 387 0000 014B     		ldr	r3, .L25
 388 0002 5861     		str	r0, [r3, #20]
 389 0004 7047     		bx	lr
 390              	.L26:
 391 0006 00BF     		.align	2
 392              	.L25:
 393 0008 003C0140 		.word	1073822720
 394              		.cfi_endproc
 395              	.LFE123:
 396              		.size	EXTI_ClearITPendingBit, .-EXTI_ClearITPendingBit
 397              		.text
 398              	.Letext0:
 399              		.file 2 "c:\\program files (x86)\\gnu tools arm embedded\\8 2018-q4-major\\arm-none-eabi\\include\
ARM GAS  C:\Users\USER\AppData\Local\Temp\ccTjsbjM.s 			page 8


 400              		.file 3 "c:\\program files (x86)\\gnu tools arm embedded\\8 2018-q4-major\\arm-none-eabi\\include\
 401              		.file 4 "src/ChibiOS_3.0.2/os/ext/CMSIS/include/core_cm4.h"
 402              		.file 5 "src/ChibiOS_3.0.2/os/ext/CMSIS/ST/system_stm32f4xx.h"
 403              		.file 6 "src/ChibiOS_3.0.2/os/ext/CMSIS/ST/stm32f407xx.h"
 404              		.file 7 "src/ChibiOS_3.0.2/os/ext/CMSIS/ST/stm32f4xx.h"
 405              		.file 8 "src/ChibiOS_3.0.2/ext/stdperiph_stm32f4/inc/stm32f4xx_exti.h"