ARM GAS  C:\Users\IDONNO~1\AppData\Local\Temp\cco0ioRR.s 			page 1


   1              		.syntax unified
   2              		.cpu cortex-m4
   3              		.eabi_attribute 27, 1
   4              		.eabi_attribute 28, 1
   5              		.fpu fpv4-sp-d16
   6              		.eabi_attribute 20, 1
   7              		.eabi_attribute 21, 1
   8              		.eabi_attribute 23, 3
   9              		.eabi_attribute 24, 1
  10              		.eabi_attribute 25, 1
  11              		.eabi_attribute 26, 1
  12              		.eabi_attribute 30, 2
  13              		.eabi_attribute 34, 1
  14              		.eabi_attribute 18, 4
  15              		.thumb
  16              		.syntax unified
  17              		.file	"syscalls.c"
  18              		.text
  19              	.Ltext0:
  20              		.cfi_sections	.debug_frame
  21              		.section	.text._read_r,"ax",%progbits
  22              		.align	2
  23              		.p2align 4,,15
  24              		.global	_read_r
  25              		.thumb
  26              		.thumb_func
  27              		.type	_read_r, %function
  28              	_read_r:
  29              	.LFB219:
  30              		.file 1 "src/ChibiOS_3.0.2/os/various/syscalls.c"
  31              		.loc 1 71 0
  32              		.cfi_startproc
  33              		@ args = 0, pretend = 0, frame = 0
  34              		@ frame_needed = 0, uses_anonymous_args = 0
  35              		@ link register save eliminated.
  36              	.LVL0:
  37              		.loc 1 84 0
  38 0000 1623     		movs	r3, #22
  39              	.LVL1:
  40 0002 0360     		str	r3, [r0]
  41              		.loc 1 87 0
  42 0004 4FF0FF30 		mov	r0, #-1
  43              	.LVL2:
  44 0008 7047     		bx	lr
  45              		.cfi_endproc
  46              	.LFE219:
  47              		.size	_read_r, .-_read_r
  48 000a 00BF     		.section	.text._lseek_r,"ax",%progbits
  49              		.align	2
  50              		.p2align 4,,15
  51              		.global	_lseek_r
  52              		.thumb
  53              		.thumb_func
  54              		.type	_lseek_r, %function
  55              	_lseek_r:
  56              	.LFB220:
  57              		.loc 1 92 0
ARM GAS  C:\Users\IDONNO~1\AppData\Local\Temp\cco0ioRR.s 			page 2


  58              		.cfi_startproc
  59              		@ args = 0, pretend = 0, frame = 0
  60              		@ frame_needed = 0, uses_anonymous_args = 0
  61              		@ link register save eliminated.
  62              	.LVL3:
  63              		.loc 1 99 0
  64 0000 0020     		movs	r0, #0
  65              	.LVL4:
  66 0002 7047     		bx	lr
  67              		.cfi_endproc
  68              	.LFE220:
  69              		.size	_lseek_r, .-_lseek_r
  70              		.section	.text._write_r,"ax",%progbits
  71              		.align	2
  72              		.p2align 4,,15
  73              		.global	_write_r
  74              		.thumb
  75              		.thumb_func
  76              		.type	_write_r, %function
  77              	_write_r:
  78              	.LFB221:
  79              		.loc 1 104 0
  80              		.cfi_startproc
  81              		@ args = 0, pretend = 0, frame = 0
  82              		@ frame_needed = 0, uses_anonymous_args = 0
  83              		@ link register save eliminated.
  84              	.LVL5:
  85              		.loc 1 116 0
  86 0000 1846     		mov	r0, r3
  87              	.LVL6:
  88 0002 7047     		bx	lr
  89              		.cfi_endproc
  90              	.LFE221:
  91              		.size	_write_r, .-_write_r
  92              		.section	.text._close_r,"ax",%progbits
  93              		.align	2
  94              		.p2align 4,,15
  95              		.global	_close_r
  96              		.thumb
  97              		.thumb_func
  98              		.type	_close_r, %function
  99              	_close_r:
 100              	.LFB222:
 101              		.loc 1 121 0
 102              		.cfi_startproc
 103              		@ args = 0, pretend = 0, frame = 0
 104              		@ frame_needed = 0, uses_anonymous_args = 0
 105              		@ link register save eliminated.
 106              	.LVL7:
 107              		.loc 1 126 0
 108 0000 0020     		movs	r0, #0
 109              	.LVL8:
 110 0002 7047     		bx	lr
 111              		.cfi_endproc
 112              	.LFE222:
 113              		.size	_close_r, .-_close_r
 114              		.section	.text._sbrk_r,"ax",%progbits
ARM GAS  C:\Users\IDONNO~1\AppData\Local\Temp\cco0ioRR.s 			page 3


 115              		.align	2
 116              		.p2align 4,,15
 117              		.global	_sbrk_r
 118              		.thumb
 119              		.thumb_func
 120              		.type	_sbrk_r, %function
 121              	_sbrk_r:
 122              	.LFB223:
 123              		.loc 1 131 0
 124              		.cfi_startproc
 125              		@ args = 0, pretend = 0, frame = 0
 126              		@ frame_needed = 0, uses_anonymous_args = 0
 127              	.LVL9:
 128 0000 10B5     		push	{r4, lr}
 129              		.cfi_def_cfa_offset 8
 130              		.cfi_offset 4, -8
 131              		.cfi_offset 14, -4
 132              		.loc 1 131 0
 133 0002 0446     		mov	r4, r0
 134              		.loc 1 137 0
 135 0004 0846     		mov	r0, r1
 136              	.LVL10:
 137 0006 FFF7FEFF 		bl	chCoreAlloc
 138              	.LVL11:
 139              		.loc 1 138 0
 140 000a 00B1     		cbz	r0, .L10
 141              		.loc 1 148 0
 142 000c 10BD     		pop	{r4, pc}
 143              	.LVL12:
 144              	.L10:
 145              		.loc 1 139 0
 146 000e 0C23     		movs	r3, #12
 147 0010 2360     		str	r3, [r4]
 148              		.loc 1 140 0
 149 0012 4FF0FF30 		mov	r0, #-1
 150              	.LVL13:
 151              		.loc 1 148 0
 152 0016 10BD     		pop	{r4, pc}
 153              		.cfi_endproc
 154              	.LFE223:
 155              		.size	_sbrk_r, .-_sbrk_r
 156              		.section	.text._fstat_r,"ax",%progbits
 157              		.align	2
 158              		.p2align 4,,15
 159              		.global	_fstat_r
 160              		.thumb
 161              		.thumb_func
 162              		.type	_fstat_r, %function
 163              	_fstat_r:
 164              	.LFB224:
 165              		.loc 1 153 0
 166              		.cfi_startproc
 167              		@ args = 0, pretend = 0, frame = 0
 168              		@ frame_needed = 0, uses_anonymous_args = 0
 169              	.LVL14:
 170 0000 10B5     		push	{r4, lr}
 171              		.cfi_def_cfa_offset 8
ARM GAS  C:\Users\IDONNO~1\AppData\Local\Temp\cco0ioRR.s 			page 4


 172              		.cfi_offset 4, -8
 173              		.cfi_offset 14, -4
 174              		.loc 1 157 0
 175 0002 1046     		mov	r0, r2
 176              	.LVL15:
 177              		.loc 1 153 0
 178 0004 1446     		mov	r4, r2
 179              		.loc 1 157 0
 180 0006 0021     		movs	r1, #0
 181              	.LVL16:
 182 0008 3C22     		movs	r2, #60
 183              	.LVL17:
 184 000a FFF7FEFF 		bl	memset
 185              	.LVL18:
 186              		.loc 1 158 0
 187 000e 4FF40053 		mov	r3, #8192
 188 0012 6360     		str	r3, [r4, #4]
 189              		.loc 1 160 0
 190 0014 0020     		movs	r0, #0
 191 0016 10BD     		pop	{r4, pc}
 192              		.cfi_endproc
 193              	.LFE224:
 194              		.size	_fstat_r, .-_fstat_r
 195              		.section	.text._isatty_r,"ax",%progbits
 196              		.align	2
 197              		.p2align 4,,15
 198              		.global	_isatty_r
 199              		.thumb
 200              		.thumb_func
 201              		.type	_isatty_r, %function
 202              	_isatty_r:
 203              	.LFB225:
 204              		.loc 1 165 0
 205              		.cfi_startproc
 206              		@ args = 0, pretend = 0, frame = 0
 207              		@ frame_needed = 0, uses_anonymous_args = 0
 208              		@ link register save eliminated.
 209              	.LVL19:
 210              		.loc 1 170 0
 211 0000 0120     		movs	r0, #1
 212              	.LVL20:
 213 0002 7047     		bx	lr
 214              		.cfi_endproc
 215              	.LFE225:
 216              		.size	_isatty_r, .-_isatty_r
 217              		.text
 218              	.Letext0:
 219              		.file 2 "c:\\program files (x86)\\gnu tools arm embedded\\5.4 2016q3\\lib\\gcc\\arm-none-eabi\\5.4
 220              		.file 3 "c:\\program files (x86)\\gnu tools arm embedded\\5.4 2016q3\\arm-none-eabi\\include\\mach
 221              		.file 4 "c:\\program files (x86)\\gnu tools arm embedded\\5.4 2016q3\\arm-none-eabi\\include\\sys\
 222              		.file 5 "c:\\program files (x86)\\gnu tools arm embedded\\5.4 2016q3\\arm-none-eabi\\include\\sys\
 223              		.file 6 "c:\\program files (x86)\\gnu tools arm embedded\\5.4 2016q3\\arm-none-eabi\\include\\sys\
 224              		.file 7 "c:\\program files (x86)\\gnu tools arm embedded\\5.4 2016q3\\arm-none-eabi\\include\\sys\
 225              		.file 8 "c:\\program files (x86)\\gnu tools arm embedded\\5.4 2016q3\\arm-none-eabi\\include\\sys\
 226              		.file 9 "c:\\program files (x86)\\gnu tools arm embedded\\5.4 2016q3\\arm-none-eabi\\include\\sys\
 227              		.file 10 "c:\\program files (x86)\\gnu tools arm embedded\\5.4 2016q3\\arm-none-eabi\\include\\sys
 228              		.file 11 "src/ChibiOS_3.0.2/os/rt/ports/ARMCMx/compilers/GCC/chtypes.h"
ARM GAS  C:\Users\IDONNO~1\AppData\Local\Temp\cco0ioRR.s 			page 5


 229              		.file 12 "src/ChibiOS_3.0.2/os/rt/include/chsystypes.h"
 230              		.file 13 "src/ChibiOS_3.0.2/os/rt/include/chschd.h"
 231              		.file 14 "src/ChibiOS_3.0.2/os/rt/ports/ARMCMx/chcore.h"
 232              		.file 15 "src/ChibiOS_3.0.2/os/rt/ports/ARMCMx/chcore_v7m.h"
 233              		.file 16 "src/ChibiOS_3.0.2/os/rt/include/chtm.h"
 234              		.file 17 "src/ChibiOS_3.0.2/os/rt/include/chsem.h"
 235              		.file 18 "src/ChibiOS_3.0.2/os/rt/include/chmtx.h"
 236              		.file 19 "src/ChibiOS_3.0.2/os/ext/CMSIS/include/core_cm4.h"
 237              		.file 20 "src/ChibiOS_3.0.2/os/rt/include/chmemcore.h"