ARM GAS  C:\Users\IDONNO~1\AppData\Local\Temp\cco0ioRR.s 			page 1


   1              		.syntax unified
   2              		.cpu cortex-m4
   3              		.eabi_attribute 27, 1
   4              		.eabi_attribute 28, 1
   5              		.fpu fpv4-sp-d16
   6              		.eabi_attribute 20, 1
   7              		.eabi_attribute 21, 1
   8              		.eabi_attribute 23, 3
   9              		.eabi_attribute 24, 1
  10              		.eabi_attribute 25, 1
  11              		.eabi_attribute 26, 1
  12              		.eabi_attribute 30, 2
  13              		.eabi_attribute 34, 1
  14              		.eabi_attribute 18, 4
  15              		.thumb
  16              		.syntax unified
  17              		.file	"syscalls.c"
  18              		.text
  19              	.Ltext0:
  20              		.cfi_sections	.debug_frame
  21              		.section	.text._read_r,"ax",%progbits
  22              		.align	2
  23              		.p2align 4,,15
  24              		.global	_read_r
  25              		.thumb
  26              		.thumb_func
  27              		.type	_read_r, %function
  28              	_read_r:
  29              	.LFB219:
  30              		.file 1 "src/ChibiOS_3.0.2/os/various/syscalls.c"
  31              		.loc 1 71 0
  32              		.cfi_startproc
  33              		@ args = 0, pretend = 0, frame = 0
  34              		@ frame_needed = 0, uses_anonymous_args = 0
  35              		@ link register save eliminated.
  36              	.LVL0:
  37              		.loc 1 84 0
  38 0000 1623     		movs	r3, #22
  39              	.LVL1:
  40 0002 0360     		str	r3, [r0]
  41              		.loc 1 87 0
  42 0004 4FF0FF30 		mov	r0, #-1
  43              	.LVL2:
  44 0008 7047     		bx	lr
  45              		.cfi_endproc
  46              	.LFE219:
  47              		.size	_read_r, .-_read_r
  48 000a 00BF     		.section	.text._lseek_r,"ax",%progbits
  49              		.align	2
  50              		.p2align 4,,15
  51              		.global	_lseek_r
  52              		.thumb
  53              		.thumb_func
  54              		.type	_lseek_r, %function
  55              	_lseek_r:
  56              	.LFB220:
  57              		.loc 1 92 0
ARM GAS  C:\Users\IDONNO~1\AppData\Local\Temp\cco0ioRR.s 			page 2


  58              		.cfi_startproc
  59              		@ args = 0, pretend = 0, frame = 0
  60              		@ frame_needed = 0, uses_anonymous_args = 0
  61              		@ link register save eliminated.
  62              	.LVL3:
  63              		.loc 1 99 0
  64 0000 0020     		movs	r0, #0
  65              	.LVL4:
  66 0002 7047     		bx	lr
  67              		.cfi_endproc
  68              	.LFE220:
  69              		.size	_lseek_r, .-_lseek_r
  70              		.section	.text._write_r,"ax",%progbits
  71              		.align	2
  72              		.p2align 4,,15
  73              		.global	_write_r
  74              		.thumb
  75              		.thumb_func
  76              		.type	_write_r, %function
  77              	_write_r:
  78              	.LFB221:
  79              		.loc 1 104 0
  80              		.cfi_startproc
  81              		@ args = 0, pretend = 0, frame = 0
  82              		@ frame_needed = 0, uses_anonymous_args = 0
  83              		@ link register save eliminated.
  84              	.LVL5:
  85              		.loc 1 116 0
  86 0000 1846     		mov	r0, r3
  87              	.LVL6:
  88 0002 7047     		bx	lr
  89              		.cfi_endproc
  90              	.LFE221:
  91              		.size	_write_r, .-_write_r
  92              		.section	.text._close_r,"ax",%progbits
  93              		.align	2
  94              		.p2align 4,,15
  95              		.global	_close_r
  96              		.thumb
  97              		.thumb_func
  98              		.type	_close_r, %function
  99              	_close_r:
 100              	.LFB222:
 101              		.loc 1 121 0
 102              		.cfi_startproc
 103              		@ args = 0, pretend = 0, frame = 0
 104              		@ frame_needed = 0, uses_anonymous_args = 0
 105              		@ link register save eliminated.
 106              	.LVL7:
 107              		.loc 1 126 0
 108 0000 0020     		movs	r0, #0
 109              	.LVL8:
 110 0002 7047     		bx	lr
 111              		.cfi_endproc
 112              	.LFE222:
 113              		.size	_close_r, .-_close_r
 114              		.section	.text._sbrk_r,"ax",%progbits
ARM GAS  C:\Users\IDONNO~1\AppData\Local\Temp\cco0ioRR.s 			page 3


 115              		.align	2
 116              		.p2align 4,,15
 117              		.global	_sbrk_r
 118              		.thumb
 119              		.thumb_func
 120              		.type	_sbrk_r, %function
 121              	_sbrk_r:
 122              	.LFB223:
 123              		.loc 1 131 0
 124              		.cfi_startproc
 125              		@ args = 0, pretend = 0, frame = 0
 126              		@ frame_needed = 0, uses_anonymous_args = 0
 127              	.LVL9:
 128 0000 10B5     		push	{r4, lr}
 129              		.cfi_def_cfa_offset 8
 130              		.cfi_offset 4, -8
 131              		.cfi_offset 14, -4
 132              		.loc 1 131 0
 133 0002 0446     		mov	r4, r0
 134              		.loc 1 137 0
 135 0004 0846     		mov	r0, r1
 136              	.LVL10:
 137 0006 FFF7FEFF 		bl	chCoreAlloc
 138              	.LVL11:
 139              		.loc 1 138 0
 140 000a 00B1     		cbz	r0, .L10
 141              		.loc 1 148 0
 142 000c 10BD     		pop	{r4, pc}
 143              	.LVL12:
 144              	.L10:
 145              		.loc 1 139 0
 146 000e 0C23     		movs	r3, #12
 147 0010 2360     		str	r3, [r4]
 148              		.loc 1 140 0
 149 0012 4FF0FF30 		mov	r0, #-1
 150              	.LVL13:
 151              		.loc 1 148 0
 152 0016 10BD     		pop	{r4, pc}
 153              		.cfi_endproc
 154              	.LFE223:
 155              		.size	_sbrk_r, .-_sbrk_r
 156              		.section	.text._fstat_r,"ax",%progbits
 157              		.align	2
 158              		.p2align 4,,15
 159              		.global	_fstat_r
 160              		.thumb
 161              		.thumb_func
 162              		.type	_fstat_r, %function
 163              	_fstat_r:
 164              	.LFB224:
 165              		.loc 1 153 0
 166              		.cfi_startproc
 167              		@ args = 0, pretend = 0, frame = 0
 168              		@ frame_needed = 0, uses_anonymous_args = 0
 169              	.LVL14:
 170 0000 10B5     		push	{r4, lr}
 171              		.cfi_def_cfa_offset 8
ARM GAS  C:\Users\IDONNO~1\AppData\Local\Temp\cco0ioRR.s 			page 4


 172              		.cfi_offset 4, -8
 173              		.cfi_offset 14, -4
 174              		.loc 1 157 0
 175 0002 1046     		mov	r0, r2
 176              	.LVL15:
 177              		.loc 1 153 0
 178 0004 1446     		mov	r4, r2
 179              		.loc 1 157 0
 180 0006 0021     		movs	r1, #0
 181              	.LVL16:
 182 0008 3C22     		movs	r2, #60
 183              	.LVL17:
 184 000a FFF7FEFF 		bl	memset
 185              	.LVL18:
 186              		.loc 1 158 0
 187 000e 4FF40053 		mov	r3, #8192
 188 0012 6360     		str	r3, [r4, #4]
 189              		.loc 1 160 0
 190 0014 0020     		movs	r0, #0
 191 0016 10BD     		pop	{r4, pc}
 192              		.cfi_endproc
 193              	.LFE224:
 194              		.size	_fstat_r, .-_fstat_r
 195              		.section	.text._isatty_r,"ax",%progbits
 196              		.align	2
 197              		.p2align 4,,15
 198              		.global	_isatty_r
 199              		.thumb
 200              		.thumb_func
 201              		.type	_isatty_r, %function
 202              	_isatty_r:
 203              	.LFB225:
 204              		.loc 1 165 0
 205              		.cfi_startproc
 206              		@ args = 0, pretend = 0, frame = 0
 207              		@ frame_needed = 0, uses_anonymous_args = 0
 208              		@ link register save eliminated.
 209              	.LVL19:
 210              		.loc 1 170 0
 211 0000 0120     		movs	r0, #1
 212              	.LVL20:
 213 0002 7047     		bx	lr
 214              		.cfi_endproc
 215              	.LFE225:
 216              		.size	_isatty_r, .-_isatty_r
 217              		.text
 218              	.Letext0:
 219              		.file 2 "c:\\program files (x86)\\gnu tools arm embedded\\5.4 2016q3\\lib\\gcc\\arm-none-eabi\\5.4
 220              		.file 3 "c:\\program files (x86)\\gnu tools arm embedded\\5.4 2016q3\\arm-none-eabi\\include\\mach
 221              		.file 4 "c:\\program files (x86)\\gnu tools arm embedded\\5.4 2016q3\\arm-none-eabi\\include\\sys\
 222              		.file 5 "c:\\program files (x86)\\gnu tools arm embedded\\5.4 2016q3\\arm-none-eabi\\include\\sys\
 223              		.file 6 "c:\\program files (x86)\\gnu tools arm embedded\\5.4 2016q3\\arm-none-eabi\\include\\sys\
 224              		.file 7 "c:\\program files (x86)\\gnu tools arm embedded\\5.4 2016q3\\arm-none-eabi\\include\\sys\
 225              		.file 8 "c:\\program files (x86)\\gnu tools arm embedded\\5.4 2016q3\\arm-none-eabi\\include\\sys\
 226              		.file 9 "c:\\program files (x86)\\gnu tools arm embedded\\5.4 2016q3\\arm-none-eabi\\include\\sys\
 227              		.file 10 "c:\\program files (x86)\\gnu tools arm embedded\\5.4 2016q3\\arm-none-eabi\\include\\sys
 228              		.file 11 "src/ChibiOS_3.0.2/os/rt/ports/ARMCMx/compilers/GCC/chtypes.h"
ARM GAS  C:\Users\IDONNO~1\AppData\Local\Temp\cco0ioRR.s 			page 5


 229              		.file 12 "src/ChibiOS_3.0.2/os/rt/include/chsystypes.h"
 230              		.file 13 "src/ChibiOS_3.0.2/os/rt/include/chschd.h"
 231              		.file 14 "src/ChibiOS_3.0.2/os/rt/ports/ARMCMx/chcore.h"
 232              		.file 15 "src/ChibiOS_3.0.2/os/rt/ports/ARMCMx/chcore_v7m.h"
 233              		.file 16 "src/ChibiOS_3.0.2/os/rt/include/chtm.h"
 234              		.file 17 "src/ChibiOS_3.0.2/os/rt/include/chsem.h"
 235              		.file 18 "src/ChibiOS_3.0.2/os/rt/include/chmtx.h"
 236              		.file 19 "src/ChibiOS_3.0.2/os/ext/CMSIS/include/core_cm4.h"
 237              		.file 20 "src/ChibiOS_3.0.2/os/rt/include/chmemcore.h"
 238              		.section	.debug_info,"",%progbits
 239              	.Ldebug_info0:
 240 0000 11130000 		.4byte	0x1311
 241 0004 0400     		.2byte	0x4
 242 0006 00000000 		.4byte	.Ldebug_abbrev0
 243 000a 04       		.byte	0x4
 244 000b 01       		.uleb128 0x1
 245 000c 76070000 		.4byte	.LASF259
 246 0010 0C       		.byte	0xc
 247 0011 F8010000 		.4byte	.LASF260
 248 0015 F0080000 		.4byte	.LASF261
 249 0019 00000000 		.4byte	.Ldebug_ranges0+0
 250 001d 00000000 		.4byte	0
 251 0021 00000000 		.4byte	.Ldebug_line0
 252 0025 02       		.uleb128 0x2
 253 0026 00000000 		.4byte	.LASF2
 254 002a 02       		.byte	0x2
 255 002b D8       		.byte	0xd8
 256 002c 30000000 		.4byte	0x30
 257 0030 03       		.uleb128 0x3
 258 0031 04       		.byte	0x4
 259 0032 07       		.byte	0x7
 260 0033 7C050000 		.4byte	.LASF0
 261 0037 04       		.uleb128 0x4
 262 0038 04       		.byte	0x4
 263 0039 05       		.byte	0x5
 264 003a 696E7400 		.ascii	"int\000"
 265 003e 03       		.uleb128 0x3
 266 003f 01       		.byte	0x1
 267 0040 06       		.byte	0x6
 268 0041 2D020000 		.4byte	.LASF1
 269 0045 02       		.uleb128 0x2
 270 0046 3E010000 		.4byte	.LASF3
 271 004a 03       		.byte	0x3
 272 004b 1D       		.byte	0x1d
 273 004c 50000000 		.4byte	0x50
 274 0050 03       		.uleb128 0x3
 275 0051 01       		.byte	0x1
 276 0052 08       		.byte	0x8
 277 0053 96020000 		.4byte	.LASF4
 278 0057 03       		.uleb128 0x3
 279 0058 02       		.byte	0x2
 280 0059 05       		.byte	0x5
 281 005a 83090000 		.4byte	.LASF5
 282 005e 03       		.uleb128 0x3
 283 005f 02       		.byte	0x2
 284 0060 07       		.byte	0x7
 285 0061 620A0000 		.4byte	.LASF6
ARM GAS  C:\Users\IDONNO~1\AppData\Local\Temp\cco0ioRR.s 			page 6


 286 0065 02       		.uleb128 0x2
 287 0066 9C0A0000 		.4byte	.LASF7
 288 006a 03       		.byte	0x3
 289 006b 3F       		.byte	0x3f
 290 006c 70000000 		.4byte	0x70
 291 0070 03       		.uleb128 0x3
 292 0071 04       		.byte	0x4
 293 0072 05       		.byte	0x5
 294 0073 87010000 		.4byte	.LASF8
 295 0077 02       		.uleb128 0x2
 296 0078 D7040000 		.4byte	.LASF9
 297 007c 03       		.byte	0x3
 298 007d 41       		.byte	0x41
 299 007e 82000000 		.4byte	0x82
 300 0082 03       		.uleb128 0x3
 301 0083 04       		.byte	0x4
 302 0084 07       		.byte	0x7
 303 0085 D4030000 		.4byte	.LASF10
 304 0089 03       		.uleb128 0x3
 305 008a 08       		.byte	0x8
 306 008b 05       		.byte	0x5
 307 008c ED040000 		.4byte	.LASF11
 308 0090 02       		.uleb128 0x2
 309 0091 BE030000 		.4byte	.LASF12
 310 0095 03       		.byte	0x3
 311 0096 5B       		.byte	0x5b
 312 0097 9B000000 		.4byte	0x9b
 313 009b 03       		.uleb128 0x3
 314 009c 08       		.byte	0x8
 315 009d 07       		.byte	0x7
 316 009e FA060000 		.4byte	.LASF13
 317 00a2 02       		.uleb128 0x2
 318 00a3 36040000 		.4byte	.LASF14
 319 00a7 04       		.byte	0x4
 320 00a8 07       		.byte	0x7
 321 00a9 37000000 		.4byte	0x37
 322 00ad 02       		.uleb128 0x2
 323 00ae AB040000 		.4byte	.LASF15
 324 00b2 05       		.byte	0x5
 325 00b3 1C       		.byte	0x1c
 326 00b4 70000000 		.4byte	0x70
 327 00b8 02       		.uleb128 0x2
 328 00b9 43020000 		.4byte	.LASF16
 329 00bd 05       		.byte	0x5
 330 00be 20       		.byte	0x20
 331 00bf 70000000 		.4byte	0x70
 332 00c3 02       		.uleb128 0x2
 333 00c4 4F0A0000 		.4byte	.LASF17
 334 00c8 05       		.byte	0x5
 335 00c9 2C       		.byte	0x2c
 336 00ca 70000000 		.4byte	0x70
 337 00ce 02       		.uleb128 0x2
 338 00cf 48010000 		.4byte	.LASF18
 339 00d3 05       		.byte	0x5
 340 00d4 36       		.byte	0x36
 341 00d5 57000000 		.4byte	0x57
 342 00d9 02       		.uleb128 0x2
ARM GAS  C:\Users\IDONNO~1\AppData\Local\Temp\cco0ioRR.s 			page 7


 343 00da 0B0A0000 		.4byte	.LASF19
 344 00de 05       		.byte	0x5
 345 00df 3A       		.byte	0x3a
 346 00e0 5E000000 		.4byte	0x5e
 347 00e4 02       		.uleb128 0x2
 348 00e5 C6000000 		.4byte	.LASF20
 349 00e9 05       		.byte	0x5
 350 00ea 3D       		.byte	0x3d
 351 00eb 5E000000 		.4byte	0x5e
 352 00ef 02       		.uleb128 0x2
 353 00f0 CF040000 		.4byte	.LASF21
 354 00f4 05       		.byte	0x5
 355 00f5 49       		.byte	0x49
 356 00f6 5E000000 		.4byte	0x5e
 357 00fa 02       		.uleb128 0x2
 358 00fb 22030000 		.4byte	.LASF22
 359 00ff 05       		.byte	0x5
 360 0100 58       		.byte	0x58
 361 0101 77000000 		.4byte	0x77
 362 0105 02       		.uleb128 0x2
 363 0106 19070000 		.4byte	.LASF23
 364 010a 05       		.byte	0x5
 365 010b 64       		.byte	0x64
 366 010c C3000000 		.4byte	0xc3
 367 0110 02       		.uleb128 0x2
 368 0111 C6060000 		.4byte	.LASF24
 369 0115 05       		.byte	0x5
 370 0116 72       		.byte	0x72
 371 0117 70000000 		.4byte	0x70
 372 011b 05       		.uleb128 0x5
 373 011c E9080000 		.4byte	.LASF25
 374 0120 02       		.byte	0x2
 375 0121 6501     		.2byte	0x165
 376 0123 30000000 		.4byte	0x30
 377 0127 06       		.uleb128 0x6
 378 0128 04       		.byte	0x4
 379 0129 05       		.byte	0x5
 380 012a A6       		.byte	0xa6
 381 012b 46010000 		.4byte	0x146
 382 012f 07       		.uleb128 0x7
 383 0130 2F010000 		.4byte	.LASF26
 384 0134 05       		.byte	0x5
 385 0135 A8       		.byte	0xa8
 386 0136 1B010000 		.4byte	0x11b
 387 013a 07       		.uleb128 0x7
 388 013b CE060000 		.4byte	.LASF27
 389 013f 05       		.byte	0x5
 390 0140 A9       		.byte	0xa9
 391 0141 46010000 		.4byte	0x146
 392 0145 00       		.byte	0
 393 0146 08       		.uleb128 0x8
 394 0147 50000000 		.4byte	0x50
 395 014b 56010000 		.4byte	0x156
 396 014f 09       		.uleb128 0x9
 397 0150 56010000 		.4byte	0x156
 398 0154 03       		.byte	0x3
 399 0155 00       		.byte	0
ARM GAS  C:\Users\IDONNO~1\AppData\Local\Temp\cco0ioRR.s 			page 8


 400 0156 03       		.uleb128 0x3
 401 0157 04       		.byte	0x4
 402 0158 07       		.byte	0x7
 403 0159 07000000 		.4byte	.LASF28
 404 015d 0A       		.uleb128 0xa
 405 015e 08       		.byte	0x8
 406 015f 05       		.byte	0x5
 407 0160 A3       		.byte	0xa3
 408 0161 7E010000 		.4byte	0x17e
 409 0165 0B       		.uleb128 0xb
 410 0166 46060000 		.4byte	.LASF29
 411 016a 05       		.byte	0x5
 412 016b A5       		.byte	0xa5
 413 016c 37000000 		.4byte	0x37
 414 0170 00       		.byte	0
 415 0171 0B       		.uleb128 0xb
 416 0172 1B000000 		.4byte	.LASF30
 417 0176 05       		.byte	0x5
 418 0177 AA       		.byte	0xaa
 419 0178 27010000 		.4byte	0x127
 420 017c 04       		.byte	0x4
 421 017d 00       		.byte	0
 422 017e 02       		.uleb128 0x2
 423 017f D1080000 		.4byte	.LASF31
 424 0183 05       		.byte	0x5
 425 0184 AB       		.byte	0xab
 426 0185 5D010000 		.4byte	0x15d
 427 0189 02       		.uleb128 0x2
 428 018a C1080000 		.4byte	.LASF32
 429 018e 05       		.byte	0x5
 430 018f AF       		.byte	0xaf
 431 0190 A2000000 		.4byte	0xa2
 432 0194 0C       		.uleb128 0xc
 433 0195 04       		.byte	0x4
 434 0196 02       		.uleb128 0x2
 435 0197 BF0A0000 		.4byte	.LASF33
 436 019b 05       		.byte	0x5
 437 019c CB       		.byte	0xcb
 438 019d 5E000000 		.4byte	0x5e
 439 01a1 0D       		.uleb128 0xd
 440 01a2 04       		.byte	0x4
 441 01a3 A7010000 		.4byte	0x1a7
 442 01a7 03       		.uleb128 0x3
 443 01a8 01       		.byte	0x1
 444 01a9 08       		.byte	0x8
 445 01aa F5020000 		.4byte	.LASF34
 446 01ae 02       		.uleb128 0x2
 447 01af 360A0000 		.4byte	.LASF35
 448 01b3 06       		.byte	0x6
 449 01b4 16       		.byte	0x16
 450 01b5 82000000 		.4byte	0x82
 451 01b9 0E       		.uleb128 0xe
 452 01ba 8B040000 		.4byte	.LASF40
 453 01be 18       		.byte	0x18
 454 01bf 06       		.byte	0x6
 455 01c0 2F       		.byte	0x2f
 456 01c1 0C020000 		.4byte	0x20c
ARM GAS  C:\Users\IDONNO~1\AppData\Local\Temp\cco0ioRR.s 			page 9


 457 01c5 0B       		.uleb128 0xb
 458 01c6 27090000 		.4byte	.LASF36
 459 01ca 06       		.byte	0x6
 460 01cb 31       		.byte	0x31
 461 01cc 0C020000 		.4byte	0x20c
 462 01d0 00       		.byte	0
 463 01d1 0F       		.uleb128 0xf
 464 01d2 5F6B00   		.ascii	"_k\000"
 465 01d5 06       		.byte	0x6
 466 01d6 32       		.byte	0x32
 467 01d7 37000000 		.4byte	0x37
 468 01db 04       		.byte	0x4
 469 01dc 0B       		.uleb128 0xb
 470 01dd A3040000 		.4byte	.LASF37
 471 01e1 06       		.byte	0x6
 472 01e2 32       		.byte	0x32
 473 01e3 37000000 		.4byte	0x37
 474 01e7 08       		.byte	0x8
 475 01e8 0B       		.uleb128 0xb
 476 01e9 5D050000 		.4byte	.LASF38
 477 01ed 06       		.byte	0x6
 478 01ee 32       		.byte	0x32
 479 01ef 37000000 		.4byte	0x37
 480 01f3 0C       		.byte	0xc
 481 01f4 0B       		.uleb128 0xb
 482 01f5 8A030000 		.4byte	.LASF39
 483 01f9 06       		.byte	0x6
 484 01fa 32       		.byte	0x32
 485 01fb 37000000 		.4byte	0x37
 486 01ff 10       		.byte	0x10
 487 0200 0F       		.uleb128 0xf
 488 0201 5F7800   		.ascii	"_x\000"
 489 0204 06       		.byte	0x6
 490 0205 33       		.byte	0x33
 491 0206 12020000 		.4byte	0x212
 492 020a 14       		.byte	0x14
 493 020b 00       		.byte	0
 494 020c 0D       		.uleb128 0xd
 495 020d 04       		.byte	0x4
 496 020e B9010000 		.4byte	0x1b9
 497 0212 08       		.uleb128 0x8
 498 0213 AE010000 		.4byte	0x1ae
 499 0217 22020000 		.4byte	0x222
 500 021b 09       		.uleb128 0x9
 501 021c 56010000 		.4byte	0x156
 502 0220 00       		.byte	0
 503 0221 00       		.byte	0
 504 0222 0E       		.uleb128 0xe
 505 0223 D6000000 		.4byte	.LASF41
 506 0227 24       		.byte	0x24
 507 0228 06       		.byte	0x6
 508 0229 37       		.byte	0x37
 509 022a 9B020000 		.4byte	0x29b
 510 022e 0B       		.uleb128 0xb
 511 022f F2000000 		.4byte	.LASF42
 512 0233 06       		.byte	0x6
 513 0234 39       		.byte	0x39
ARM GAS  C:\Users\IDONNO~1\AppData\Local\Temp\cco0ioRR.s 			page 10


 514 0235 37000000 		.4byte	0x37
 515 0239 00       		.byte	0
 516 023a 0B       		.uleb128 0xb
 517 023b F00A0000 		.4byte	.LASF43
 518 023f 06       		.byte	0x6
 519 0240 3A       		.byte	0x3a
 520 0241 37000000 		.4byte	0x37
 521 0245 04       		.byte	0x4
 522 0246 0B       		.uleb128 0xb
 523 0247 750A0000 		.4byte	.LASF44
 524 024b 06       		.byte	0x6
 525 024c 3B       		.byte	0x3b
 526 024d 37000000 		.4byte	0x37
 527 0251 08       		.byte	0x8
 528 0252 0B       		.uleb128 0xb
 529 0253 D7050000 		.4byte	.LASF45
 530 0257 06       		.byte	0x6
 531 0258 3C       		.byte	0x3c
 532 0259 37000000 		.4byte	0x37
 533 025d 0C       		.byte	0xc
 534 025e 0B       		.uleb128 0xb
 535 025f A1060000 		.4byte	.LASF46
 536 0263 06       		.byte	0x6
 537 0264 3D       		.byte	0x3d
 538 0265 37000000 		.4byte	0x37
 539 0269 10       		.byte	0x10
 540 026a 0B       		.uleb128 0xb
 541 026b BF090000 		.4byte	.LASF47
 542 026f 06       		.byte	0x6
 543 0270 3E       		.byte	0x3e
 544 0271 37000000 		.4byte	0x37
 545 0275 14       		.byte	0x14
 546 0276 0B       		.uleb128 0xb
 547 0277 64060000 		.4byte	.LASF48
 548 027b 06       		.byte	0x6
 549 027c 3F       		.byte	0x3f
 550 027d 37000000 		.4byte	0x37
 551 0281 18       		.byte	0x18
 552 0282 0B       		.uleb128 0xb
 553 0283 80060000 		.4byte	.LASF49
 554 0287 06       		.byte	0x6
 555 0288 40       		.byte	0x40
 556 0289 37000000 		.4byte	0x37
 557 028d 1C       		.byte	0x1c
 558 028e 0B       		.uleb128 0xb
 559 028f D10A0000 		.4byte	.LASF50
 560 0293 06       		.byte	0x6
 561 0294 41       		.byte	0x41
 562 0295 37000000 		.4byte	0x37
 563 0299 20       		.byte	0x20
 564 029a 00       		.byte	0
 565 029b 10       		.uleb128 0x10
 566 029c 63010000 		.4byte	.LASF51
 567 02a0 0801     		.2byte	0x108
 568 02a2 06       		.byte	0x6
 569 02a3 4A       		.byte	0x4a
 570 02a4 DB020000 		.4byte	0x2db
ARM GAS  C:\Users\IDONNO~1\AppData\Local\Temp\cco0ioRR.s 			page 11


 571 02a8 0B       		.uleb128 0xb
 572 02a9 C90A0000 		.4byte	.LASF52
 573 02ad 06       		.byte	0x6
 574 02ae 4B       		.byte	0x4b
 575 02af DB020000 		.4byte	0x2db
 576 02b3 00       		.byte	0
 577 02b4 0B       		.uleb128 0xb
 578 02b5 21070000 		.4byte	.LASF53
 579 02b9 06       		.byte	0x6
 580 02ba 4C       		.byte	0x4c
 581 02bb DB020000 		.4byte	0x2db
 582 02bf 80       		.byte	0x80
 583 02c0 11       		.uleb128 0x11
 584 02c1 9F090000 		.4byte	.LASF54
 585 02c5 06       		.byte	0x6
 586 02c6 4E       		.byte	0x4e
 587 02c7 AE010000 		.4byte	0x1ae
 588 02cb 0001     		.2byte	0x100
 589 02cd 11       		.uleb128 0x11
 590 02ce F3090000 		.4byte	.LASF55
 591 02d2 06       		.byte	0x6
 592 02d3 51       		.byte	0x51
 593 02d4 AE010000 		.4byte	0x1ae
 594 02d8 0401     		.2byte	0x104
 595 02da 00       		.byte	0
 596 02db 08       		.uleb128 0x8
 597 02dc 94010000 		.4byte	0x194
 598 02e0 EB020000 		.4byte	0x2eb
 599 02e4 09       		.uleb128 0x9
 600 02e5 56010000 		.4byte	0x156
 601 02e9 1F       		.byte	0x1f
 602 02ea 00       		.byte	0
 603 02eb 10       		.uleb128 0x10
 604 02ec 37060000 		.4byte	.LASF56
 605 02f0 9001     		.2byte	0x190
 606 02f2 06       		.byte	0x6
 607 02f3 5D       		.byte	0x5d
 608 02f4 29030000 		.4byte	0x329
 609 02f8 0B       		.uleb128 0xb
 610 02f9 27090000 		.4byte	.LASF36
 611 02fd 06       		.byte	0x6
 612 02fe 5E       		.byte	0x5e
 613 02ff 29030000 		.4byte	0x329
 614 0303 00       		.byte	0
 615 0304 0B       		.uleb128 0xb
 616 0305 DE090000 		.4byte	.LASF57
 617 0309 06       		.byte	0x6
 618 030a 5F       		.byte	0x5f
 619 030b 37000000 		.4byte	0x37
 620 030f 04       		.byte	0x4
 621 0310 0B       		.uleb128 0xb
 622 0311 01030000 		.4byte	.LASF58
 623 0315 06       		.byte	0x6
 624 0316 61       		.byte	0x61
 625 0317 2F030000 		.4byte	0x32f
 626 031b 08       		.byte	0x8
 627 031c 0B       		.uleb128 0xb
ARM GAS  C:\Users\IDONNO~1\AppData\Local\Temp\cco0ioRR.s 			page 12


 628 031d 63010000 		.4byte	.LASF51
 629 0321 06       		.byte	0x6
 630 0322 62       		.byte	0x62
 631 0323 9B020000 		.4byte	0x29b
 632 0327 88       		.byte	0x88
 633 0328 00       		.byte	0
 634 0329 0D       		.uleb128 0xd
 635 032a 04       		.byte	0x4
 636 032b EB020000 		.4byte	0x2eb
 637 032f 08       		.uleb128 0x8
 638 0330 3F030000 		.4byte	0x33f
 639 0334 3F030000 		.4byte	0x33f
 640 0338 09       		.uleb128 0x9
 641 0339 56010000 		.4byte	0x156
 642 033d 1F       		.byte	0x1f
 643 033e 00       		.byte	0
 644 033f 0D       		.uleb128 0xd
 645 0340 04       		.byte	0x4
 646 0341 45030000 		.4byte	0x345
 647 0345 12       		.uleb128 0x12
 648 0346 0E       		.uleb128 0xe
 649 0347 E3090000 		.4byte	.LASF59
 650 034b 08       		.byte	0x8
 651 034c 06       		.byte	0x6
 652 034d 75       		.byte	0x75
 653 034e 6B030000 		.4byte	0x36b
 654 0352 0B       		.uleb128 0xb
 655 0353 67070000 		.4byte	.LASF60
 656 0357 06       		.byte	0x6
 657 0358 76       		.byte	0x76
 658 0359 6B030000 		.4byte	0x36b
 659 035d 00       		.byte	0
 660 035e 0B       		.uleb128 0xb
 661 035f A1010000 		.4byte	.LASF61
 662 0363 06       		.byte	0x6
 663 0364 77       		.byte	0x77
 664 0365 37000000 		.4byte	0x37
 665 0369 04       		.byte	0x4
 666 036a 00       		.byte	0
 667 036b 0D       		.uleb128 0xd
 668 036c 04       		.byte	0x4
 669 036d 50000000 		.4byte	0x50
 670 0371 0E       		.uleb128 0xe
 671 0372 E6030000 		.4byte	.LASF62
 672 0376 68       		.byte	0x68
 673 0377 06       		.byte	0x6
 674 0378 B5       		.byte	0xb5
 675 0379 9B040000 		.4byte	0x49b
 676 037d 0F       		.uleb128 0xf
 677 037e 5F7000   		.ascii	"_p\000"
 678 0381 06       		.byte	0x6
 679 0382 B6       		.byte	0xb6
 680 0383 6B030000 		.4byte	0x36b
 681 0387 00       		.byte	0
 682 0388 0F       		.uleb128 0xf
 683 0389 5F7200   		.ascii	"_r\000"
 684 038c 06       		.byte	0x6
ARM GAS  C:\Users\IDONNO~1\AppData\Local\Temp\cco0ioRR.s 			page 13


 685 038d B7       		.byte	0xb7
 686 038e 37000000 		.4byte	0x37
 687 0392 04       		.byte	0x4
 688 0393 0F       		.uleb128 0xf
 689 0394 5F7700   		.ascii	"_w\000"
 690 0397 06       		.byte	0x6
 691 0398 B8       		.byte	0xb8
 692 0399 37000000 		.4byte	0x37
 693 039d 08       		.byte	0x8
 694 039e 0B       		.uleb128 0xb
 695 039f 16060000 		.4byte	.LASF63
 696 03a3 06       		.byte	0x6
 697 03a4 B9       		.byte	0xb9
 698 03a5 57000000 		.4byte	0x57
 699 03a9 0C       		.byte	0xc
 700 03aa 0B       		.uleb128 0xb
 701 03ab 5D010000 		.4byte	.LASF64
 702 03af 06       		.byte	0x6
 703 03b0 BA       		.byte	0xba
 704 03b1 57000000 		.4byte	0x57
 705 03b5 0E       		.byte	0xe
 706 03b6 0F       		.uleb128 0xf
 707 03b7 5F626600 		.ascii	"_bf\000"
 708 03bb 06       		.byte	0x6
 709 03bc BB       		.byte	0xbb
 710 03bd 46030000 		.4byte	0x346
 711 03c1 10       		.byte	0x10
 712 03c2 0B       		.uleb128 0xb
 713 03c3 C9090000 		.4byte	.LASF65
 714 03c7 06       		.byte	0x6
 715 03c8 BC       		.byte	0xbc
 716 03c9 37000000 		.4byte	0x37
 717 03cd 18       		.byte	0x18
 718 03ce 0B       		.uleb128 0xb
 719 03cf 64030000 		.4byte	.LASF66
 720 03d3 06       		.byte	0x6
 721 03d4 C3       		.byte	0xc3
 722 03d5 94010000 		.4byte	0x194
 723 03d9 1C       		.byte	0x1c
 724 03da 0B       		.uleb128 0xb
 725 03db 38000000 		.4byte	.LASF67
 726 03df 06       		.byte	0x6
 727 03e0 C5       		.byte	0xc5
 728 03e1 F1050000 		.4byte	0x5f1
 729 03e5 20       		.byte	0x20
 730 03e6 0B       		.uleb128 0xb
 731 03e7 65000000 		.4byte	.LASF68
 732 03eb 06       		.byte	0x6
 733 03ec C7       		.byte	0xc7
 734 03ed 20060000 		.4byte	0x620
 735 03f1 24       		.byte	0x24
 736 03f2 0B       		.uleb128 0xb
 737 03f3 B0060000 		.4byte	.LASF69
 738 03f7 06       		.byte	0x6
 739 03f8 CA       		.byte	0xca
 740 03f9 44060000 		.4byte	0x644
 741 03fd 28       		.byte	0x28
ARM GAS  C:\Users\IDONNO~1\AppData\Local\Temp\cco0ioRR.s 			page 14


 742 03fe 0B       		.uleb128 0xb
 743 03ff 06030000 		.4byte	.LASF70
 744 0403 06       		.byte	0x6
 745 0404 CB       		.byte	0xcb
 746 0405 5E060000 		.4byte	0x65e
 747 0409 2C       		.byte	0x2c
 748 040a 0F       		.uleb128 0xf
 749 040b 5F756200 		.ascii	"_ub\000"
 750 040f 06       		.byte	0x6
 751 0410 CE       		.byte	0xce
 752 0411 46030000 		.4byte	0x346
 753 0415 30       		.byte	0x30
 754 0416 0F       		.uleb128 0xf
 755 0417 5F757000 		.ascii	"_up\000"
 756 041b 06       		.byte	0x6
 757 041c CF       		.byte	0xcf
 758 041d 6B030000 		.4byte	0x36b
 759 0421 38       		.byte	0x38
 760 0422 0F       		.uleb128 0xf
 761 0423 5F757200 		.ascii	"_ur\000"
 762 0427 06       		.byte	0x6
 763 0428 D0       		.byte	0xd0
 764 0429 37000000 		.4byte	0x37
 765 042d 3C       		.byte	0x3c
 766 042e 0B       		.uleb128 0xb
 767 042f E6050000 		.4byte	.LASF71
 768 0433 06       		.byte	0x6
 769 0434 D3       		.byte	0xd3
 770 0435 64060000 		.4byte	0x664
 771 0439 40       		.byte	0x40
 772 043a 0B       		.uleb128 0xb
 773 043b EC000000 		.4byte	.LASF72
 774 043f 06       		.byte	0x6
 775 0440 D4       		.byte	0xd4
 776 0441 74060000 		.4byte	0x674
 777 0445 43       		.byte	0x43
 778 0446 0F       		.uleb128 0xf
 779 0447 5F6C6200 		.ascii	"_lb\000"
 780 044b 06       		.byte	0x6
 781 044c D7       		.byte	0xd7
 782 044d 46030000 		.4byte	0x346
 783 0451 44       		.byte	0x44
 784 0452 0B       		.uleb128 0xb
 785 0453 5E070000 		.4byte	.LASF73
 786 0457 06       		.byte	0x6
 787 0458 DA       		.byte	0xda
 788 0459 37000000 		.4byte	0x37
 789 045d 4C       		.byte	0x4c
 790 045e 0B       		.uleb128 0xb
 791 045f A7030000 		.4byte	.LASF74
 792 0463 06       		.byte	0x6
 793 0464 DB       		.byte	0xdb
 794 0465 C3000000 		.4byte	0xc3
 795 0469 50       		.byte	0x50
 796 046a 0B       		.uleb128 0xb
 797 046b 2D090000 		.4byte	.LASF75
 798 046f 06       		.byte	0x6
ARM GAS  C:\Users\IDONNO~1\AppData\Local\Temp\cco0ioRR.s 			page 15


 799 0470 DE       		.byte	0xde
 800 0471 B9040000 		.4byte	0x4b9
 801 0475 54       		.byte	0x54
 802 0476 0B       		.uleb128 0xb
 803 0477 0C010000 		.4byte	.LASF76
 804 047b 06       		.byte	0x6
 805 047c E2       		.byte	0xe2
 806 047d 89010000 		.4byte	0x189
 807 0481 58       		.byte	0x58
 808 0482 0B       		.uleb128 0xb
 809 0483 02060000 		.4byte	.LASF77
 810 0487 06       		.byte	0x6
 811 0488 E4       		.byte	0xe4
 812 0489 7E010000 		.4byte	0x17e
 813 048d 5C       		.byte	0x5c
 814 048e 0B       		.uleb128 0xb
 815 048f F9030000 		.4byte	.LASF78
 816 0493 06       		.byte	0x6
 817 0494 E5       		.byte	0xe5
 818 0495 37000000 		.4byte	0x37
 819 0499 64       		.byte	0x64
 820 049a 00       		.byte	0
 821 049b 13       		.uleb128 0x13
 822 049c 37000000 		.4byte	0x37
 823 04a0 B9040000 		.4byte	0x4b9
 824 04a4 14       		.uleb128 0x14
 825 04a5 B9040000 		.4byte	0x4b9
 826 04a9 14       		.uleb128 0x14
 827 04aa 94010000 		.4byte	0x194
 828 04ae 14       		.uleb128 0x14
 829 04af A1010000 		.4byte	0x1a1
 830 04b3 14       		.uleb128 0x14
 831 04b4 37000000 		.4byte	0x37
 832 04b8 00       		.byte	0
 833 04b9 0D       		.uleb128 0xd
 834 04ba 04       		.byte	0x4
 835 04bb BF040000 		.4byte	0x4bf
 836 04bf 15       		.uleb128 0x15
 837 04c0 D7020000 		.4byte	.LASF79
 838 04c4 2804     		.2byte	0x428
 839 04c6 06       		.byte	0x6
 840 04c7 3902     		.2byte	0x239
 841 04c9 F1050000 		.4byte	0x5f1
 842 04cd 16       		.uleb128 0x16
 843 04ce 48040000 		.4byte	.LASF80
 844 04d2 06       		.byte	0x6
 845 04d3 3B02     		.2byte	0x23b
 846 04d5 37000000 		.4byte	0x37
 847 04d9 00       		.byte	0
 848 04da 16       		.uleb128 0x16
 849 04db 1B030000 		.4byte	.LASF81
 850 04df 06       		.byte	0x6
 851 04e0 4002     		.2byte	0x240
 852 04e2 CB060000 		.4byte	0x6cb
 853 04e6 04       		.byte	0x4
 854 04e7 16       		.uleb128 0x16
 855 04e8 4C070000 		.4byte	.LASF82
ARM GAS  C:\Users\IDONNO~1\AppData\Local\Temp\cco0ioRR.s 			page 16


 856 04ec 06       		.byte	0x6
 857 04ed 4002     		.2byte	0x240
 858 04ef CB060000 		.4byte	0x6cb
 859 04f3 08       		.byte	0x8
 860 04f4 16       		.uleb128 0x16
 861 04f5 EC050000 		.4byte	.LASF83
 862 04f9 06       		.byte	0x6
 863 04fa 4002     		.2byte	0x240
 864 04fc CB060000 		.4byte	0x6cb
 865 0500 0C       		.byte	0xc
 866 0501 16       		.uleb128 0x16
 867 0502 D9090000 		.4byte	.LASF84
 868 0506 06       		.byte	0x6
 869 0507 4202     		.2byte	0x242
 870 0509 37000000 		.4byte	0x37
 871 050d 10       		.byte	0x10
 872 050e 16       		.uleb128 0x16
 873 050f E2040000 		.4byte	.LASF85
 874 0513 06       		.byte	0x6
 875 0514 4302     		.2byte	0x243
 876 0516 AD080000 		.4byte	0x8ad
 877 051a 14       		.byte	0x14
 878 051b 16       		.uleb128 0x16
 879 051c BE020000 		.4byte	.LASF86
 880 0520 06       		.byte	0x6
 881 0521 4602     		.2byte	0x246
 882 0523 37000000 		.4byte	0x37
 883 0527 30       		.byte	0x30
 884 0528 16       		.uleb128 0x16
 885 0529 2E0A0000 		.4byte	.LASF87
 886 052d 06       		.byte	0x6
 887 052e 4702     		.2byte	0x247
 888 0530 C2080000 		.4byte	0x8c2
 889 0534 34       		.byte	0x34
 890 0535 16       		.uleb128 0x16
 891 0536 EE030000 		.4byte	.LASF88
 892 053a 06       		.byte	0x6
 893 053b 4902     		.2byte	0x249
 894 053d 37000000 		.4byte	0x37
 895 0541 38       		.byte	0x38
 896 0542 16       		.uleb128 0x16
 897 0543 50000000 		.4byte	.LASF89
 898 0547 06       		.byte	0x6
 899 0548 4B02     		.2byte	0x24b
 900 054a D3080000 		.4byte	0x8d3
 901 054e 3C       		.byte	0x3c
 902 054f 16       		.uleb128 0x16
 903 0550 470A0000 		.4byte	.LASF90
 904 0554 06       		.byte	0x6
 905 0555 4E02     		.2byte	0x24e
 906 0557 0C020000 		.4byte	0x20c
 907 055b 40       		.byte	0x40
 908 055c 16       		.uleb128 0x16
 909 055d 97010000 		.4byte	.LASF91
 910 0561 06       		.byte	0x6
 911 0562 4F02     		.2byte	0x24f
 912 0564 37000000 		.4byte	0x37
ARM GAS  C:\Users\IDONNO~1\AppData\Local\Temp\cco0ioRR.s 			page 17


 913 0568 44       		.byte	0x44
 914 0569 16       		.uleb128 0x16
 915 056a CF030000 		.4byte	.LASF92
 916 056e 06       		.byte	0x6
 917 056f 5002     		.2byte	0x250
 918 0571 0C020000 		.4byte	0x20c
 919 0575 48       		.byte	0x48
 920 0576 16       		.uleb128 0x16
 921 0577 3A050000 		.4byte	.LASF93
 922 057b 06       		.byte	0x6
 923 057c 5102     		.2byte	0x251
 924 057e D9080000 		.4byte	0x8d9
 925 0582 4C       		.byte	0x4c
 926 0583 16       		.uleb128 0x16
 927 0584 87000000 		.4byte	.LASF94
 928 0588 06       		.byte	0x6
 929 0589 5402     		.2byte	0x254
 930 058b 37000000 		.4byte	0x37
 931 058f 50       		.byte	0x50
 932 0590 16       		.uleb128 0x16
 933 0591 AF030000 		.4byte	.LASF95
 934 0595 06       		.byte	0x6
 935 0596 5502     		.2byte	0x255
 936 0598 A1010000 		.4byte	0x1a1
 937 059c 54       		.byte	0x54
 938 059d 16       		.uleb128 0x16
 939 059e E1050000 		.4byte	.LASF96
 940 05a2 06       		.byte	0x6
 941 05a3 7802     		.2byte	0x278
 942 05a5 8B080000 		.4byte	0x88b
 943 05a9 58       		.byte	0x58
 944 05aa 17       		.uleb128 0x17
 945 05ab 37060000 		.4byte	.LASF56
 946 05af 06       		.byte	0x6
 947 05b0 7C02     		.2byte	0x27c
 948 05b2 29030000 		.4byte	0x329
 949 05b6 4801     		.2byte	0x148
 950 05b8 17       		.uleb128 0x17
 951 05b9 B6040000 		.4byte	.LASF97
 952 05bd 06       		.byte	0x6
 953 05be 7D02     		.2byte	0x27d
 954 05c0 EB020000 		.4byte	0x2eb
 955 05c4 4C01     		.2byte	0x14c
 956 05c6 17       		.uleb128 0x17
 957 05c7 9D030000 		.4byte	.LASF98
 958 05cb 06       		.byte	0x6
 959 05cc 8102     		.2byte	0x281
 960 05ce EA080000 		.4byte	0x8ea
 961 05d2 DC02     		.2byte	0x2dc
 962 05d4 17       		.uleb128 0x17
 963 05d5 12050000 		.4byte	.LASF99
 964 05d9 06       		.byte	0x6
 965 05da 8602     		.2byte	0x286
 966 05dc 90060000 		.4byte	0x690
 967 05e0 E002     		.2byte	0x2e0
 968 05e2 17       		.uleb128 0x17
 969 05e3 2D000000 		.4byte	.LASF100
ARM GAS  C:\Users\IDONNO~1\AppData\Local\Temp\cco0ioRR.s 			page 18


 970 05e7 06       		.byte	0x6
 971 05e8 8702     		.2byte	0x287
 972 05ea F6080000 		.4byte	0x8f6
 973 05ee EC02     		.2byte	0x2ec
 974 05f0 00       		.byte	0
 975 05f1 0D       		.uleb128 0xd
 976 05f2 04       		.byte	0x4
 977 05f3 9B040000 		.4byte	0x49b
 978 05f7 13       		.uleb128 0x13
 979 05f8 37000000 		.4byte	0x37
 980 05fc 15060000 		.4byte	0x615
 981 0600 14       		.uleb128 0x14
 982 0601 B9040000 		.4byte	0x4b9
 983 0605 14       		.uleb128 0x14
 984 0606 94010000 		.4byte	0x194
 985 060a 14       		.uleb128 0x14
 986 060b 15060000 		.4byte	0x615
 987 060f 14       		.uleb128 0x14
 988 0610 37000000 		.4byte	0x37
 989 0614 00       		.byte	0
 990 0615 0D       		.uleb128 0xd
 991 0616 04       		.byte	0x4
 992 0617 1B060000 		.4byte	0x61b
 993 061b 18       		.uleb128 0x18
 994 061c A7010000 		.4byte	0x1a7
 995 0620 0D       		.uleb128 0xd
 996 0621 04       		.byte	0x4
 997 0622 F7050000 		.4byte	0x5f7
 998 0626 13       		.uleb128 0x13
 999 0627 10010000 		.4byte	0x110
 1000 062b 44060000 		.4byte	0x644
 1001 062f 14       		.uleb128 0x14
 1002 0630 B9040000 		.4byte	0x4b9
 1003 0634 14       		.uleb128 0x14
 1004 0635 94010000 		.4byte	0x194
 1005 0639 14       		.uleb128 0x14
 1006 063a 10010000 		.4byte	0x110
 1007 063e 14       		.uleb128 0x14
 1008 063f 37000000 		.4byte	0x37
 1009 0643 00       		.byte	0
 1010 0644 0D       		.uleb128 0xd
 1011 0645 04       		.byte	0x4
 1012 0646 26060000 		.4byte	0x626
 1013 064a 13       		.uleb128 0x13
 1014 064b 37000000 		.4byte	0x37
 1015 064f 5E060000 		.4byte	0x65e
 1016 0653 14       		.uleb128 0x14
 1017 0654 B9040000 		.4byte	0x4b9
 1018 0658 14       		.uleb128 0x14
 1019 0659 94010000 		.4byte	0x194
 1020 065d 00       		.byte	0
 1021 065e 0D       		.uleb128 0xd
 1022 065f 04       		.byte	0x4
 1023 0660 4A060000 		.4byte	0x64a
 1024 0664 08       		.uleb128 0x8
 1025 0665 50000000 		.4byte	0x50
 1026 0669 74060000 		.4byte	0x674
ARM GAS  C:\Users\IDONNO~1\AppData\Local\Temp\cco0ioRR.s 			page 19


 1027 066d 09       		.uleb128 0x9
 1028 066e 56010000 		.4byte	0x156
 1029 0672 02       		.byte	0x2
 1030 0673 00       		.byte	0
 1031 0674 08       		.uleb128 0x8
 1032 0675 50000000 		.4byte	0x50
 1033 0679 84060000 		.4byte	0x684
 1034 067d 09       		.uleb128 0x9
 1035 067e 56010000 		.4byte	0x156
 1036 0682 00       		.byte	0
 1037 0683 00       		.byte	0
 1038 0684 05       		.uleb128 0x5
 1039 0685 CA080000 		.4byte	.LASF101
 1040 0689 06       		.byte	0x6
 1041 068a 1F01     		.2byte	0x11f
 1042 068c 71030000 		.4byte	0x371
 1043 0690 19       		.uleb128 0x19
 1044 0691 4A050000 		.4byte	.LASF102
 1045 0695 0C       		.byte	0xc
 1046 0696 06       		.byte	0x6
 1047 0697 2301     		.2byte	0x123
 1048 0699 C5060000 		.4byte	0x6c5
 1049 069d 16       		.uleb128 0x16
 1050 069e 27090000 		.4byte	.LASF36
 1051 06a2 06       		.byte	0x6
 1052 06a3 2501     		.2byte	0x125
 1053 06a5 C5060000 		.4byte	0x6c5
 1054 06a9 00       		.byte	0
 1055 06aa 16       		.uleb128 0x16
 1056 06ab 03050000 		.4byte	.LASF103
 1057 06af 06       		.byte	0x6
 1058 06b0 2601     		.2byte	0x126
 1059 06b2 37000000 		.4byte	0x37
 1060 06b6 04       		.byte	0x4
 1061 06b7 16       		.uleb128 0x16
 1062 06b8 44050000 		.4byte	.LASF104
 1063 06bc 06       		.byte	0x6
 1064 06bd 2701     		.2byte	0x127
 1065 06bf CB060000 		.4byte	0x6cb
 1066 06c3 08       		.byte	0x8
 1067 06c4 00       		.byte	0
 1068 06c5 0D       		.uleb128 0xd
 1069 06c6 04       		.byte	0x4
 1070 06c7 90060000 		.4byte	0x690
 1071 06cb 0D       		.uleb128 0xd
 1072 06cc 04       		.byte	0x4
 1073 06cd 84060000 		.4byte	0x684
 1074 06d1 19       		.uleb128 0x19
 1075 06d2 44070000 		.4byte	.LASF105
 1076 06d6 0E       		.byte	0xe
 1077 06d7 06       		.byte	0x6
 1078 06d8 3F01     		.2byte	0x13f
 1079 06da 06070000 		.4byte	0x706
 1080 06de 16       		.uleb128 0x16
 1081 06df AA060000 		.4byte	.LASF106
 1082 06e3 06       		.byte	0x6
 1083 06e4 4001     		.2byte	0x140
ARM GAS  C:\Users\IDONNO~1\AppData\Local\Temp\cco0ioRR.s 			page 20


 1084 06e6 06070000 		.4byte	0x706
 1085 06ea 00       		.byte	0
 1086 06eb 16       		.uleb128 0x16
 1087 06ec 12010000 		.4byte	.LASF107
 1088 06f0 06       		.byte	0x6
 1089 06f1 4101     		.2byte	0x141
 1090 06f3 06070000 		.4byte	0x706
 1091 06f7 06       		.byte	0x6
 1092 06f8 16       		.uleb128 0x16
 1093 06f9 5D0A0000 		.4byte	.LASF108
 1094 06fd 06       		.byte	0x6
 1095 06fe 4201     		.2byte	0x142
 1096 0700 5E000000 		.4byte	0x5e
 1097 0704 0C       		.byte	0xc
 1098 0705 00       		.byte	0
 1099 0706 08       		.uleb128 0x8
 1100 0707 5E000000 		.4byte	0x5e
 1101 070b 16070000 		.4byte	0x716
 1102 070f 09       		.uleb128 0x9
 1103 0710 56010000 		.4byte	0x156
 1104 0714 02       		.byte	0x2
 1105 0715 00       		.byte	0
 1106 0716 1A       		.uleb128 0x1a
 1107 0717 D0       		.byte	0xd0
 1108 0718 06       		.byte	0x6
 1109 0719 5902     		.2byte	0x259
 1110 071b 17080000 		.4byte	0x817
 1111 071f 16       		.uleb128 0x16
 1112 0720 20020000 		.4byte	.LASF109
 1113 0724 06       		.byte	0x6
 1114 0725 5B02     		.2byte	0x25b
 1115 0727 30000000 		.4byte	0x30
 1116 072b 00       		.byte	0
 1117 072c 16       		.uleb128 0x16
 1118 072d 9A080000 		.4byte	.LASF110
 1119 0731 06       		.byte	0x6
 1120 0732 5C02     		.2byte	0x25c
 1121 0734 A1010000 		.4byte	0x1a1
 1122 0738 04       		.byte	0x4
 1123 0739 16       		.uleb128 0x16
 1124 073a 7A000000 		.4byte	.LASF111
 1125 073e 06       		.byte	0x6
 1126 073f 5D02     		.2byte	0x25d
 1127 0741 17080000 		.4byte	0x817
 1128 0745 08       		.byte	0x8
 1129 0746 16       		.uleb128 0x16
 1130 0747 AE010000 		.4byte	.LASF112
 1131 074b 06       		.byte	0x6
 1132 074c 5E02     		.2byte	0x25e
 1133 074e 22020000 		.4byte	0x222
 1134 0752 24       		.byte	0x24
 1135 0753 16       		.uleb128 0x16
 1136 0754 2B050000 		.4byte	.LASF113
 1137 0758 06       		.byte	0x6
 1138 0759 5F02     		.2byte	0x25f
 1139 075b 37000000 		.4byte	0x37
 1140 075f 48       		.byte	0x48
ARM GAS  C:\Users\IDONNO~1\AppData\Local\Temp\cco0ioRR.s 			page 21


 1141 0760 16       		.uleb128 0x16
 1142 0761 0B060000 		.4byte	.LASF114
 1143 0765 06       		.byte	0x6
 1144 0766 6002     		.2byte	0x260
 1145 0768 9B000000 		.4byte	0x9b
 1146 076c 50       		.byte	0x50
 1147 076d 16       		.uleb128 0x16
 1148 076e E4080000 		.4byte	.LASF115
 1149 0772 06       		.byte	0x6
 1150 0773 6102     		.2byte	0x261
 1151 0775 D1060000 		.4byte	0x6d1
 1152 0779 58       		.byte	0x58
 1153 077a 16       		.uleb128 0x16
 1154 077b 76090000 		.4byte	.LASF116
 1155 077f 06       		.byte	0x6
 1156 0780 6202     		.2byte	0x262
 1157 0782 7E010000 		.4byte	0x17e
 1158 0786 68       		.byte	0x68
 1159 0787 16       		.uleb128 0x16
 1160 0788 EC060000 		.4byte	.LASF117
 1161 078c 06       		.byte	0x6
 1162 078d 6302     		.2byte	0x263
 1163 078f 7E010000 		.4byte	0x17e
 1164 0793 70       		.byte	0x70
 1165 0794 16       		.uleb128 0x16
 1166 0795 F4050000 		.4byte	.LASF118
 1167 0799 06       		.byte	0x6
 1168 079a 6402     		.2byte	0x264
 1169 079c 7E010000 		.4byte	0x17e
 1170 07a0 78       		.byte	0x78
 1171 07a1 16       		.uleb128 0x16
 1172 07a2 FB000000 		.4byte	.LASF119
 1173 07a6 06       		.byte	0x6
 1174 07a7 6502     		.2byte	0x265
 1175 07a9 27080000 		.4byte	0x827
 1176 07ad 80       		.byte	0x80
 1177 07ae 16       		.uleb128 0x16
 1178 07af 76040000 		.4byte	.LASF120
 1179 07b3 06       		.byte	0x6
 1180 07b4 6602     		.2byte	0x266
 1181 07b6 37080000 		.4byte	0x837
 1182 07ba 88       		.byte	0x88
 1183 07bb 16       		.uleb128 0x16
 1184 07bc F90A0000 		.4byte	.LASF121
 1185 07c0 06       		.byte	0x6
 1186 07c1 6702     		.2byte	0x267
 1187 07c3 37000000 		.4byte	0x37
 1188 07c7 A0       		.byte	0xa0
 1189 07c8 16       		.uleb128 0x16
 1190 07c9 79010000 		.4byte	.LASF122
 1191 07cd 06       		.byte	0x6
 1192 07ce 6802     		.2byte	0x268
 1193 07d0 7E010000 		.4byte	0x17e
 1194 07d4 A4       		.byte	0xa4
 1195 07d5 16       		.uleb128 0x16
 1196 07d6 A7080000 		.4byte	.LASF123
 1197 07da 06       		.byte	0x6
ARM GAS  C:\Users\IDONNO~1\AppData\Local\Temp\cco0ioRR.s 			page 22


 1198 07db 6902     		.2byte	0x269
 1199 07dd 7E010000 		.4byte	0x17e
 1200 07e1 AC       		.byte	0xac
 1201 07e2 16       		.uleb128 0x16
 1202 07e3 8B0A0000 		.4byte	.LASF124
 1203 07e7 06       		.byte	0x6
 1204 07e8 6A02     		.2byte	0x26a
 1205 07ea 7E010000 		.4byte	0x17e
 1206 07ee B4       		.byte	0xb4
 1207 07ef 16       		.uleb128 0x16
 1208 07f0 C8050000 		.4byte	.LASF125
 1209 07f4 06       		.byte	0x6
 1210 07f5 6B02     		.2byte	0x26b
 1211 07f7 7E010000 		.4byte	0x17e
 1212 07fb BC       		.byte	0xbc
 1213 07fc 16       		.uleb128 0x16
 1214 07fd DB000000 		.4byte	.LASF126
 1215 0801 06       		.byte	0x6
 1216 0802 6C02     		.2byte	0x26c
 1217 0804 7E010000 		.4byte	0x17e
 1218 0808 C4       		.byte	0xc4
 1219 0809 16       		.uleb128 0x16
 1220 080a B3050000 		.4byte	.LASF127
 1221 080e 06       		.byte	0x6
 1222 080f 6D02     		.2byte	0x26d
 1223 0811 37000000 		.4byte	0x37
 1224 0815 CC       		.byte	0xcc
 1225 0816 00       		.byte	0
 1226 0817 08       		.uleb128 0x8
 1227 0818 A7010000 		.4byte	0x1a7
 1228 081c 27080000 		.4byte	0x827
 1229 0820 09       		.uleb128 0x9
 1230 0821 56010000 		.4byte	0x156
 1231 0825 19       		.byte	0x19
 1232 0826 00       		.byte	0
 1233 0827 08       		.uleb128 0x8
 1234 0828 A7010000 		.4byte	0x1a7
 1235 082c 37080000 		.4byte	0x837
 1236 0830 09       		.uleb128 0x9
 1237 0831 56010000 		.4byte	0x156
 1238 0835 07       		.byte	0x7
 1239 0836 00       		.byte	0
 1240 0837 08       		.uleb128 0x8
 1241 0838 A7010000 		.4byte	0x1a7
 1242 083c 47080000 		.4byte	0x847
 1243 0840 09       		.uleb128 0x9
 1244 0841 56010000 		.4byte	0x156
 1245 0845 17       		.byte	0x17
 1246 0846 00       		.byte	0
 1247 0847 1A       		.uleb128 0x1a
 1248 0848 F0       		.byte	0xf0
 1249 0849 06       		.byte	0x6
 1250 084a 7202     		.2byte	0x272
 1251 084c 6B080000 		.4byte	0x86b
 1252 0850 16       		.uleb128 0x16
 1253 0851 130A0000 		.4byte	.LASF128
 1254 0855 06       		.byte	0x6
ARM GAS  C:\Users\IDONNO~1\AppData\Local\Temp\cco0ioRR.s 			page 23


 1255 0856 7502     		.2byte	0x275
 1256 0858 6B080000 		.4byte	0x86b
 1257 085c 00       		.byte	0
 1258 085d 16       		.uleb128 0x16
 1259 085e 1A050000 		.4byte	.LASF129
 1260 0862 06       		.byte	0x6
 1261 0863 7602     		.2byte	0x276
 1262 0865 7B080000 		.4byte	0x87b
 1263 0869 78       		.byte	0x78
 1264 086a 00       		.byte	0
 1265 086b 08       		.uleb128 0x8
 1266 086c 6B030000 		.4byte	0x36b
 1267 0870 7B080000 		.4byte	0x87b
 1268 0874 09       		.uleb128 0x9
 1269 0875 56010000 		.4byte	0x156
 1270 0879 1D       		.byte	0x1d
 1271 087a 00       		.byte	0
 1272 087b 08       		.uleb128 0x8
 1273 087c 30000000 		.4byte	0x30
 1274 0880 8B080000 		.4byte	0x88b
 1275 0884 09       		.uleb128 0x9
 1276 0885 56010000 		.4byte	0x156
 1277 0889 1D       		.byte	0x1d
 1278 088a 00       		.byte	0
 1279 088b 1B       		.uleb128 0x1b
 1280 088c F0       		.byte	0xf0
 1281 088d 06       		.byte	0x6
 1282 088e 5702     		.2byte	0x257
 1283 0890 AD080000 		.4byte	0x8ad
 1284 0894 1C       		.uleb128 0x1c
 1285 0895 D7020000 		.4byte	.LASF79
 1286 0899 06       		.byte	0x6
 1287 089a 6E02     		.2byte	0x26e
 1288 089c 16070000 		.4byte	0x716
 1289 08a0 1C       		.uleb128 0x1c
 1290 08a1 CE000000 		.4byte	.LASF130
 1291 08a5 06       		.byte	0x6
 1292 08a6 7702     		.2byte	0x277
 1293 08a8 47080000 		.4byte	0x847
 1294 08ac 00       		.byte	0
 1295 08ad 08       		.uleb128 0x8
 1296 08ae A7010000 		.4byte	0x1a7
 1297 08b2 BD080000 		.4byte	0x8bd
 1298 08b6 09       		.uleb128 0x9
 1299 08b7 56010000 		.4byte	0x156
 1300 08bb 18       		.byte	0x18
 1301 08bc 00       		.byte	0
 1302 08bd 1D       		.uleb128 0x1d
 1303 08be 10000000 		.4byte	.LASF262
 1304 08c2 0D       		.uleb128 0xd
 1305 08c3 04       		.byte	0x4
 1306 08c4 BD080000 		.4byte	0x8bd
 1307 08c8 1E       		.uleb128 0x1e
 1308 08c9 D3080000 		.4byte	0x8d3
 1309 08cd 14       		.uleb128 0x14
 1310 08ce B9040000 		.4byte	0x4b9
 1311 08d2 00       		.byte	0
ARM GAS  C:\Users\IDONNO~1\AppData\Local\Temp\cco0ioRR.s 			page 24


 1312 08d3 0D       		.uleb128 0xd
 1313 08d4 04       		.byte	0x4
 1314 08d5 C8080000 		.4byte	0x8c8
 1315 08d9 0D       		.uleb128 0xd
 1316 08da 04       		.byte	0x4
 1317 08db 0C020000 		.4byte	0x20c
 1318 08df 1E       		.uleb128 0x1e
 1319 08e0 EA080000 		.4byte	0x8ea
 1320 08e4 14       		.uleb128 0x14
 1321 08e5 37000000 		.4byte	0x37
 1322 08e9 00       		.byte	0
 1323 08ea 0D       		.uleb128 0xd
 1324 08eb 04       		.byte	0x4
 1325 08ec F0080000 		.4byte	0x8f0
 1326 08f0 0D       		.uleb128 0xd
 1327 08f1 04       		.byte	0x4
 1328 08f2 DF080000 		.4byte	0x8df
 1329 08f6 08       		.uleb128 0x8
 1330 08f7 84060000 		.4byte	0x684
 1331 08fb 06090000 		.4byte	0x906
 1332 08ff 09       		.uleb128 0x9
 1333 0900 56010000 		.4byte	0x156
 1334 0904 02       		.byte	0x2
 1335 0905 00       		.byte	0
 1336 0906 02       		.uleb128 0x2
 1337 0907 4F020000 		.4byte	.LASF131
 1338 090b 07       		.byte	0x7
 1339 090c 18       		.byte	0x18
 1340 090d 45000000 		.4byte	0x45
 1341 0911 02       		.uleb128 0x2
 1342 0912 72000000 		.4byte	.LASF132
 1343 0916 07       		.byte	0x7
 1344 0917 2C       		.byte	0x2c
 1345 0918 65000000 		.4byte	0x65
 1346 091c 02       		.uleb128 0x2
 1347 091d 3E0A0000 		.4byte	.LASF133
 1348 0921 07       		.byte	0x7
 1349 0922 30       		.byte	0x30
 1350 0923 77000000 		.4byte	0x77
 1351 0927 02       		.uleb128 0x2
 1352 0928 8D090000 		.4byte	.LASF134
 1353 092c 07       		.byte	0x7
 1354 092d 3C       		.byte	0x3c
 1355 092e 90000000 		.4byte	0x90
 1356 0932 02       		.uleb128 0x2
 1357 0933 05010000 		.4byte	.LASF135
 1358 0937 08       		.byte	0x8
 1359 0938 28       		.byte	0x28
 1360 0939 70000000 		.4byte	0x70
 1361 093d 02       		.uleb128 0x2
 1362 093e 92050000 		.4byte	.LASF136
 1363 0942 09       		.byte	0x9
 1364 0943 71       		.byte	0x71
 1365 0944 AD000000 		.4byte	0xad
 1366 0948 02       		.uleb128 0x2
 1367 0949 1A0A0000 		.4byte	.LASF137
 1368 094d 09       		.byte	0x9
ARM GAS  C:\Users\IDONNO~1\AppData\Local\Temp\cco0ioRR.s 			page 25


 1369 094e 76       		.byte	0x76
 1370 094f B8000000 		.4byte	0xb8
 1371 0953 02       		.uleb128 0x2
 1372 0954 9B050000 		.4byte	.LASF138
 1373 0958 09       		.byte	0x9
 1374 0959 8B       		.byte	0x8b
 1375 095a A1010000 		.4byte	0x1a1
 1376 095e 02       		.uleb128 0x2
 1377 095f C9030000 		.4byte	.LASF139
 1378 0963 09       		.byte	0x9
 1379 0964 9B       		.byte	0x9b
 1380 0965 EF000000 		.4byte	0xef
 1381 0969 02       		.uleb128 0x2
 1382 096a 57060000 		.4byte	.LASF140
 1383 096e 09       		.byte	0x9
 1384 096f AD       		.byte	0xad
 1385 0970 05010000 		.4byte	0x105
 1386 0974 02       		.uleb128 0x2
 1387 0975 B8000000 		.4byte	.LASF141
 1388 0979 09       		.byte	0x9
 1389 097a B1       		.byte	0xb1
 1390 097b CE000000 		.4byte	0xce
 1391 097f 02       		.uleb128 0x2
 1392 0980 57010000 		.4byte	.LASF142
 1393 0984 09       		.byte	0x9
 1394 0985 B5       		.byte	0xb5
 1395 0986 D9000000 		.4byte	0xd9
 1396 098a 02       		.uleb128 0x2
 1397 098b E30A0000 		.4byte	.LASF143
 1398 098f 09       		.byte	0x9
 1399 0990 B9       		.byte	0xb9
 1400 0991 E4000000 		.4byte	0xe4
 1401 0995 02       		.uleb128 0x2
 1402 0996 5D060000 		.4byte	.LASF144
 1403 099a 09       		.byte	0x9
 1404 099b CD       		.byte	0xcd
 1405 099c FA000000 		.4byte	0xfa
 1406 09a0 02       		.uleb128 0x2
 1407 09a1 BE000000 		.4byte	.LASF145
 1408 09a5 09       		.byte	0x9
 1409 09a6 D2       		.byte	0xd2
 1410 09a7 96010000 		.4byte	0x196
 1411 09ab 0E       		.uleb128 0xe
 1412 09ac BF040000 		.4byte	.LASF146
 1413 09b0 3C       		.byte	0x3c
 1414 09b1 0A       		.byte	0xa
 1415 09b2 1B       		.byte	0x1b
 1416 09b3 840A0000 		.4byte	0xa84
 1417 09b7 0B       		.uleb128 0xb
 1418 09b8 B6060000 		.4byte	.LASF147
 1419 09bc 0A       		.byte	0xa
 1420 09bd 1D       		.byte	0x1d
 1421 09be 74090000 		.4byte	0x974
 1422 09c2 00       		.byte	0
 1423 09c3 0B       		.uleb128 0xb
 1424 09c4 AE0A0000 		.4byte	.LASF148
 1425 09c8 0A       		.byte	0xa
ARM GAS  C:\Users\IDONNO~1\AppData\Local\Temp\cco0ioRR.s 			page 26


 1426 09c9 1E       		.byte	0x1e
 1427 09ca 5E090000 		.4byte	0x95e
 1428 09ce 02       		.byte	0x2
 1429 09cf 0B       		.uleb128 0xb
 1430 09d0 030A0000 		.4byte	.LASF149
 1431 09d4 0A       		.byte	0xa
 1432 09d5 1F       		.byte	0x1f
 1433 09d6 95090000 		.4byte	0x995
 1434 09da 04       		.byte	0x4
 1435 09db 0B       		.uleb128 0xb
 1436 09dc 4E060000 		.4byte	.LASF150
 1437 09e0 0A       		.byte	0xa
 1438 09e1 20       		.byte	0x20
 1439 09e2 A0090000 		.4byte	0x9a0
 1440 09e6 08       		.byte	0x8
 1441 09e7 0B       		.uleb128 0xb
 1442 09e8 61020000 		.4byte	.LASF151
 1443 09ec 0A       		.byte	0xa
 1444 09ed 21       		.byte	0x21
 1445 09ee 7F090000 		.4byte	0x97f
 1446 09f2 0A       		.byte	0xa
 1447 09f3 0B       		.uleb128 0xb
 1448 09f4 B7030000 		.4byte	.LASF152
 1449 09f8 0A       		.byte	0xa
 1450 09f9 22       		.byte	0x22
 1451 09fa 8A090000 		.4byte	0x98a
 1452 09fe 0C       		.byte	0xc
 1453 09ff 0B       		.uleb128 0xb
 1454 0a00 A4020000 		.4byte	.LASF153
 1455 0a04 0A       		.byte	0xa
 1456 0a05 23       		.byte	0x23
 1457 0a06 74090000 		.4byte	0x974
 1458 0a0a 0E       		.byte	0xe
 1459 0a0b 0B       		.uleb128 0xb
 1460 0a0c 01040000 		.4byte	.LASF154
 1461 0a10 0A       		.byte	0xa
 1462 0a11 24       		.byte	0x24
 1463 0a12 69090000 		.4byte	0x969
 1464 0a16 10       		.byte	0x10
 1465 0a17 0B       		.uleb128 0xb
 1466 0a18 77060000 		.4byte	.LASF155
 1467 0a1c 0A       		.byte	0xa
 1468 0a1d 32       		.byte	0x32
 1469 0a1e 32090000 		.4byte	0x932
 1470 0a22 14       		.byte	0x14
 1471 0a23 0B       		.uleb128 0xb
 1472 0a24 57020000 		.4byte	.LASF156
 1473 0a28 0A       		.byte	0xa
 1474 0a29 33       		.byte	0x33
 1475 0a2a 70000000 		.4byte	0x70
 1476 0a2e 18       		.byte	0x18
 1477 0a2f 0B       		.uleb128 0xb
 1478 0a30 41090000 		.4byte	.LASF157
 1479 0a34 0A       		.byte	0xa
 1480 0a35 34       		.byte	0x34
 1481 0a36 32090000 		.4byte	0x932
 1482 0a3a 1C       		.byte	0x1c
ARM GAS  C:\Users\IDONNO~1\AppData\Local\Temp\cco0ioRR.s 			page 27


 1483 0a3b 0B       		.uleb128 0xb
 1484 0a3c 6C040000 		.4byte	.LASF158
 1485 0a40 0A       		.byte	0xa
 1486 0a41 35       		.byte	0x35
 1487 0a42 70000000 		.4byte	0x70
 1488 0a46 20       		.byte	0x20
 1489 0a47 0B       		.uleb128 0xb
 1490 0a48 48030000 		.4byte	.LASF159
 1491 0a4c 0A       		.byte	0xa
 1492 0a4d 36       		.byte	0x36
 1493 0a4e 32090000 		.4byte	0x932
 1494 0a52 24       		.byte	0x24
 1495 0a53 0B       		.uleb128 0xb
 1496 0a54 68020000 		.4byte	.LASF160
 1497 0a58 0A       		.byte	0xa
 1498 0a59 37       		.byte	0x37
 1499 0a5a 70000000 		.4byte	0x70
 1500 0a5e 28       		.byte	0x28
 1501 0a5f 0B       		.uleb128 0xb
 1502 0a60 C4040000 		.4byte	.LASF161
 1503 0a64 0A       		.byte	0xa
 1504 0a65 38       		.byte	0x38
 1505 0a66 48090000 		.4byte	0x948
 1506 0a6a 2C       		.byte	0x2c
 1507 0a6b 0B       		.uleb128 0xb
 1508 0a6c 46000000 		.4byte	.LASF162
 1509 0a70 0A       		.byte	0xa
 1510 0a71 39       		.byte	0x39
 1511 0a72 3D090000 		.4byte	0x93d
 1512 0a76 30       		.byte	0x30
 1513 0a77 0B       		.uleb128 0xb
 1514 0a78 72020000 		.4byte	.LASF163
 1515 0a7c 0A       		.byte	0xa
 1516 0a7d 3A       		.byte	0x3a
 1517 0a7e 840A0000 		.4byte	0xa84
 1518 0a82 34       		.byte	0x34
 1519 0a83 00       		.byte	0
 1520 0a84 08       		.uleb128 0x8
 1521 0a85 70000000 		.4byte	0x70
 1522 0a89 940A0000 		.4byte	0xa94
 1523 0a8d 09       		.uleb128 0x9
 1524 0a8e 56010000 		.4byte	0x156
 1525 0a92 01       		.byte	0x1
 1526 0a93 00       		.byte	0
 1527 0a94 1F       		.uleb128 0x1f
 1528 0a95 11090000 		.4byte	0x911
 1529 0a99 02       		.uleb128 0x2
 1530 0a9a A3050000 		.4byte	.LASF164
 1531 0a9e 0B       		.byte	0xb
 1532 0a9f 45       		.byte	0x45
 1533 0aa0 1C090000 		.4byte	0x91c
 1534 0aa4 02       		.uleb128 0x2
 1535 0aa5 39090000 		.4byte	.LASF165
 1536 0aa9 0B       		.byte	0xb
 1537 0aaa 48       		.byte	0x48
 1538 0aab 06090000 		.4byte	0x906
 1539 0aaf 02       		.uleb128 0x2
ARM GAS  C:\Users\IDONNO~1\AppData\Local\Temp\cco0ioRR.s 			page 28


 1540 0ab0 BD010000 		.4byte	.LASF166
 1541 0ab4 0B       		.byte	0xb
 1542 0ab5 49       		.byte	0x49
 1543 0ab6 06090000 		.4byte	0x906
 1544 0aba 02       		.uleb128 0x2
 1545 0abb 40030000 		.4byte	.LASF167
 1546 0abf 0B       		.byte	0xb
 1547 0ac0 4A       		.byte	0x4a
 1548 0ac1 06090000 		.4byte	0x906
 1549 0ac5 02       		.uleb128 0x2
 1550 0ac6 54070000 		.4byte	.LASF168
 1551 0aca 0B       		.byte	0xb
 1552 0acb 4B       		.byte	0x4b
 1553 0acc 06090000 		.4byte	0x906
 1554 0ad0 02       		.uleb128 0x2
 1555 0ad1 3E000000 		.4byte	.LASF169
 1556 0ad5 0B       		.byte	0xb
 1557 0ad6 4C       		.byte	0x4c
 1558 0ad7 1C090000 		.4byte	0x91c
 1559 0adb 02       		.uleb128 0x2
 1560 0adc 2D070000 		.4byte	.LASF170
 1561 0ae0 0B       		.byte	0xb
 1562 0ae1 4D       		.byte	0x4d
 1563 0ae2 11090000 		.4byte	0x911
 1564 0ae6 02       		.uleb128 0x2
 1565 0ae7 7C020000 		.4byte	.LASF171
 1566 0aeb 0B       		.byte	0xb
 1567 0aec 4F       		.byte	0x4f
 1568 0aed 1C090000 		.4byte	0x91c
 1569 0af1 02       		.uleb128 0x2
 1570 0af2 56030000 		.4byte	.LASF172
 1571 0af6 0B       		.byte	0xb
 1572 0af7 51       		.byte	0x51
 1573 0af8 11090000 		.4byte	0x911
 1574 0afc 02       		.uleb128 0x2
 1575 0afd 23000000 		.4byte	.LASF173
 1576 0b01 0C       		.byte	0xc
 1577 0b02 33       		.byte	0x33
 1578 0b03 1C090000 		.4byte	0x91c
 1579 0b07 02       		.uleb128 0x2
 1580 0b08 6E060000 		.4byte	.LASF174
 1581 0b0c 0C       		.byte	0xc
 1582 0b0d 3F       		.byte	0x3f
 1583 0b0e 120B0000 		.4byte	0xb12
 1584 0b12 0E       		.uleb128 0xe
 1585 0b13 16040000 		.4byte	.LASF175
 1586 0b17 48       		.byte	0x48
 1587 0b18 0D       		.byte	0xd
 1588 0b19 C2       		.byte	0xc2
 1589 0b1a 170C0000 		.4byte	0xc17
 1590 0b1e 0B       		.uleb128 0xb
 1591 0b1f 90010000 		.4byte	.LASF176
 1592 0b23 0D       		.byte	0xd
 1593 0b24 C3       		.byte	0xc3
 1594 0b25 220C0000 		.4byte	0xc22
 1595 0b29 00       		.byte	0
 1596 0b2a 0B       		.uleb128 0xb
ARM GAS  C:\Users\IDONNO~1\AppData\Local\Temp\cco0ioRR.s 			page 29


 1597 0b2b A7010000 		.4byte	.LASF177
 1598 0b2f 0D       		.byte	0xd
 1599 0b30 C5       		.byte	0xc5
 1600 0b31 220C0000 		.4byte	0xc22
 1601 0b35 04       		.byte	0x4
 1602 0b36 0B       		.uleb128 0xb
 1603 0b37 0D030000 		.4byte	.LASF178
 1604 0b3b 0D       		.byte	0xd
 1605 0b3c C7       		.byte	0xc7
 1606 0b3d D00A0000 		.4byte	0xad0
 1607 0b41 08       		.byte	0x8
 1608 0b42 0B       		.uleb128 0xb
 1609 0b43 32000000 		.4byte	.LASF179
 1610 0b47 0D       		.byte	0xd
 1611 0b48 C8       		.byte	0xc8
 1612 0b49 490E0000 		.4byte	0xe49
 1613 0b4d 0C       		.byte	0xc
 1614 0b4e 0B       		.uleb128 0xb
 1615 0b4f 71010000 		.4byte	.LASF180
 1616 0b53 0D       		.byte	0xd
 1617 0b54 CA       		.byte	0xca
 1618 0b55 220C0000 		.4byte	0xc22
 1619 0b59 10       		.byte	0x10
 1620 0b5a 0B       		.uleb128 0xb
 1621 0b5b 11070000 		.4byte	.LASF181
 1622 0b5f 0D       		.byte	0xd
 1623 0b60 CB       		.byte	0xcb
 1624 0b61 220C0000 		.4byte	0xc22
 1625 0b65 14       		.byte	0x14
 1626 0b66 0B       		.uleb128 0xb
 1627 0b67 DC0A0000 		.4byte	.LASF182
 1628 0b6b 0D       		.byte	0xd
 1629 0b6c D2       		.byte	0xd2
 1630 0b6d 15060000 		.4byte	0x615
 1631 0b71 18       		.byte	0x18
 1632 0b72 0B       		.uleb128 0xb
 1633 0b73 130B0000 		.4byte	.LASF183
 1634 0b77 0D       		.byte	0xd
 1635 0b78 DD       		.byte	0xdd
 1636 0b79 AF0A0000 		.4byte	0xaaf
 1637 0b7d 1C       		.byte	0x1c
 1638 0b7e 0B       		.uleb128 0xb
 1639 0b7f 27010000 		.4byte	.LASF184
 1640 0b83 0D       		.byte	0xd
 1641 0b84 E1       		.byte	0xe1
 1642 0b85 A40A0000 		.4byte	0xaa4
 1643 0b89 1D       		.byte	0x1d
 1644 0b8a 0B       		.uleb128 0xb
 1645 0b8b C1050000 		.4byte	.LASF185
 1646 0b8f 0D       		.byte	0xd
 1647 0b90 E6       		.byte	0xe6
 1648 0b91 BA0A0000 		.4byte	0xaba
 1649 0b95 1E       		.byte	0x1e
 1650 0b96 0B       		.uleb128 0xb
 1651 0b97 39020000 		.4byte	.LASF186
 1652 0b9b 0D       		.byte	0xd
 1653 0b9c EC       		.byte	0xec
ARM GAS  C:\Users\IDONNO~1\AppData\Local\Temp\cco0ioRR.s 			page 30


 1654 0b9d C50A0000 		.4byte	0xac5
 1655 0ba1 1F       		.byte	0x1f
 1656 0ba2 0B       		.uleb128 0xb
 1657 0ba3 3F060000 		.4byte	.LASF187
 1658 0ba7 0D       		.byte	0xd
 1659 0ba8 F3       		.byte	0xf3
 1660 0ba9 8E100000 		.4byte	0x108e
 1661 0bad 20       		.byte	0x20
 1662 0bae 20       		.uleb128 0x20
 1663 0baf 705F7500 		.ascii	"p_u\000"
 1664 0bb3 0D       		.byte	0xd
 1665 0bb4 3101     		.2byte	0x131
 1666 0bb6 C90F0000 		.4byte	0xfc9
 1667 0bba 24       		.byte	0x24
 1668 0bbb 16       		.uleb128 0x16
 1669 0bbc 63050000 		.4byte	.LASF188
 1670 0bc0 0D       		.byte	0xd
 1671 0bc1 3601     		.2byte	0x136
 1672 0bc3 280C0000 		.4byte	0xc28
 1673 0bc7 28       		.byte	0x28
 1674 0bc8 16       		.uleb128 0x16
 1675 0bc9 5A000000 		.4byte	.LASF189
 1676 0bcd 0D       		.byte	0xd
 1677 0bce 3C01     		.2byte	0x13c
 1678 0bd0 4C0C0000 		.4byte	0xc4c
 1679 0bd4 2C       		.byte	0x2c
 1680 0bd5 16       		.uleb128 0x16
 1681 0bd6 0D0B0000 		.4byte	.LASF190
 1682 0bda 0D       		.byte	0xd
 1683 0bdb 4001     		.2byte	0x140
 1684 0bdd DB0A0000 		.4byte	0xadb
 1685 0be1 34       		.byte	0x34
 1686 0be2 16       		.uleb128 0x16
 1687 0be3 78030000 		.4byte	.LASF191
 1688 0be7 0D       		.byte	0xd
 1689 0be8 4601     		.2byte	0x146
 1690 0bea E60A0000 		.4byte	0xae6
 1691 0bee 38       		.byte	0x38
 1692 0bef 16       		.uleb128 0x16
 1693 0bf0 D6010000 		.4byte	.LASF192
 1694 0bf4 0D       		.byte	0xd
 1695 0bf5 4D01     		.2byte	0x14d
 1696 0bf7 88100000 		.4byte	0x1088
 1697 0bfb 3C       		.byte	0x3c
 1698 0bfc 16       		.uleb128 0x16
 1699 0bfd 8A060000 		.4byte	.LASF193
 1700 0c01 0D       		.byte	0xd
 1701 0c02 5101     		.2byte	0x151
 1702 0c04 D00A0000 		.4byte	0xad0
 1703 0c08 40       		.byte	0x40
 1704 0c09 16       		.uleb128 0x16
 1705 0c0a AB050000 		.4byte	.LASF194
 1706 0c0e 0D       		.byte	0xd
 1707 0c0f 5801     		.2byte	0x158
 1708 0c11 94010000 		.4byte	0x194
 1709 0c15 44       		.byte	0x44
 1710 0c16 00       		.byte	0
ARM GAS  C:\Users\IDONNO~1\AppData\Local\Temp\cco0ioRR.s 			page 31


 1711 0c17 02       		.uleb128 0x2
 1712 0c18 24060000 		.4byte	.LASF195
 1713 0c1c 0C       		.byte	0xc
 1714 0c1d 44       		.byte	0x44
 1715 0c1e 220C0000 		.4byte	0xc22
 1716 0c22 0D       		.uleb128 0xd
 1717 0c23 04       		.byte	0x4
 1718 0c24 070B0000 		.4byte	0xb07
 1719 0c28 02       		.uleb128 0x2
 1720 0c29 E0010000 		.4byte	.LASF196
 1721 0c2d 0C       		.byte	0xc
 1722 0c2e 49       		.byte	0x49
 1723 0c2f 330C0000 		.4byte	0xc33
 1724 0c33 0E       		.uleb128 0xe
 1725 0c34 93040000 		.4byte	.LASF197
 1726 0c38 04       		.byte	0x4
 1727 0c39 0D       		.byte	0xd
 1728 0c3a B0       		.byte	0xb0
 1729 0c3b 4C0C0000 		.4byte	0xc4c
 1730 0c3f 0B       		.uleb128 0xb
 1731 0c40 90010000 		.4byte	.LASF176
 1732 0c44 0D       		.byte	0xd
 1733 0c45 B1       		.byte	0xb1
 1734 0c46 220C0000 		.4byte	0xc22
 1735 0c4a 00       		.byte	0
 1736 0c4b 00       		.byte	0
 1737 0c4c 02       		.uleb128 0x2
 1738 0c4d C6010000 		.4byte	.LASF198
 1739 0c51 0C       		.byte	0xc
 1740 0c52 50       		.byte	0x50
 1741 0c53 570C0000 		.4byte	0xc57
 1742 0c57 0E       		.uleb128 0xe
 1743 0c58 33070000 		.4byte	.LASF199
 1744 0c5c 08       		.byte	0x8
 1745 0c5d 0D       		.byte	0xd
 1746 0c5e B7       		.byte	0xb7
 1747 0c5f 7C0C0000 		.4byte	0xc7c
 1748 0c63 0B       		.uleb128 0xb
 1749 0c64 90010000 		.4byte	.LASF176
 1750 0c68 0D       		.byte	0xd
 1751 0c69 B8       		.byte	0xb8
 1752 0c6a 220C0000 		.4byte	0xc22
 1753 0c6e 00       		.byte	0
 1754 0c6f 0B       		.uleb128 0xb
 1755 0c70 A7010000 		.4byte	.LASF177
 1756 0c74 0D       		.byte	0xd
 1757 0c75 B9       		.byte	0xb9
 1758 0c76 220C0000 		.4byte	0xc22
 1759 0c7a 04       		.byte	0x4
 1760 0c7b 00       		.byte	0
 1761 0c7c 02       		.uleb128 0x2
 1762 0c7d 5F040000 		.4byte	.LASF200
 1763 0c81 0C       		.byte	0xc
 1764 0c82 57       		.byte	0x57
 1765 0c83 870C0000 		.4byte	0xc87
 1766 0c87 19       		.uleb128 0x19
 1767 0c88 8F030000 		.4byte	.LASF201
ARM GAS  C:\Users\IDONNO~1\AppData\Local\Temp\cco0ioRR.s 			page 32


 1768 0c8c 1C       		.byte	0x1c
 1769 0c8d 0D       		.byte	0xd
 1770 0c8e 9001     		.2byte	0x190
 1771 0c90 E30C0000 		.4byte	0xce3
 1772 0c94 16       		.uleb128 0x16
 1773 0c95 DC080000 		.4byte	.LASF202
 1774 0c99 0D       		.byte	0xd
 1775 0c9a 9101     		.2byte	0x191
 1776 0c9c 4C0C0000 		.4byte	0xc4c
 1777 0ca0 00       		.byte	0
 1778 0ca1 16       		.uleb128 0x16
 1779 0ca2 A8090000 		.4byte	.LASF203
 1780 0ca6 0D       		.byte	0xd
 1781 0ca7 9201     		.2byte	0x192
 1782 0ca9 D00A0000 		.4byte	0xad0
 1783 0cad 08       		.byte	0x8
 1784 0cae 16       		.uleb128 0x16
 1785 0caf 6C000000 		.4byte	.LASF204
 1786 0cb3 0D       		.byte	0xd
 1787 0cb4 9401     		.2byte	0x194
 1788 0cb6 490E0000 		.4byte	0xe49
 1789 0cba 0C       		.byte	0xc
 1790 0cbb 16       		.uleb128 0x16
 1791 0cbc DE020000 		.4byte	.LASF205
 1792 0cc0 0D       		.byte	0xd
 1793 0cc1 9701     		.2byte	0x197
 1794 0cc3 220C0000 		.4byte	0xc22
 1795 0cc7 10       		.byte	0x10
 1796 0cc8 16       		.uleb128 0x16
 1797 0cc9 55090000 		.4byte	.LASF206
 1798 0ccd 0D       		.byte	0xd
 1799 0cce 9801     		.2byte	0x198
 1800 0cd0 220C0000 		.4byte	0xc22
 1801 0cd4 14       		.byte	0x14
 1802 0cd5 16       		.uleb128 0x16
 1803 0cd6 B50A0000 		.4byte	.LASF207
 1804 0cda 0D       		.byte	0xd
 1805 0cdb 9B01     		.2byte	0x19b
 1806 0cdd 220C0000 		.4byte	0xc22
 1807 0ce1 18       		.byte	0x18
 1808 0ce2 00       		.byte	0
 1809 0ce3 02       		.uleb128 0x2
 1810 0ce4 8F000000 		.4byte	.LASF208
 1811 0ce8 0C       		.byte	0xc
 1812 0ce9 5C       		.byte	0x5c
 1813 0cea EE0C0000 		.4byte	0xcee
 1814 0cee 0D       		.uleb128 0xd
 1815 0cef 04       		.byte	0x4
 1816 0cf0 F40C0000 		.4byte	0xcf4
 1817 0cf4 1E       		.uleb128 0x1e
 1818 0cf5 FF0C0000 		.4byte	0xcff
 1819 0cf9 14       		.uleb128 0x14
 1820 0cfa 94010000 		.4byte	0x194
 1821 0cfe 00       		.byte	0
 1822 0cff 02       		.uleb128 0x2
 1823 0d00 4F040000 		.4byte	.LASF209
 1824 0d04 0C       		.byte	0xc
ARM GAS  C:\Users\IDONNO~1\AppData\Local\Temp\cco0ioRR.s 			page 33


 1825 0d05 61       		.byte	0x61
 1826 0d06 0A0D0000 		.4byte	0xd0a
 1827 0d0a 19       		.uleb128 0x19
 1828 0d0b D5060000 		.4byte	.LASF210
 1829 0d0f 14       		.byte	0x14
 1830 0d10 0D       		.byte	0xd
 1831 0d11 6B01     		.2byte	0x16b
 1832 0d13 590D0000 		.4byte	0xd59
 1833 0d17 16       		.uleb128 0x16
 1834 0d18 0A050000 		.4byte	.LASF211
 1835 0d1c 0D       		.byte	0xd
 1836 0d1d 6C01     		.2byte	0x16c
 1837 0d1f 93100000 		.4byte	0x1093
 1838 0d23 00       		.byte	0
 1839 0d24 16       		.uleb128 0x16
 1840 0d25 23050000 		.4byte	.LASF212
 1841 0d29 0D       		.byte	0xd
 1842 0d2a 6D01     		.2byte	0x16d
 1843 0d2c 93100000 		.4byte	0x1093
 1844 0d30 04       		.byte	0x4
 1845 0d31 16       		.uleb128 0x16
 1846 0d32 BD060000 		.4byte	.LASF213
 1847 0d36 0D       		.byte	0xd
 1848 0d37 6E01     		.2byte	0x16e
 1849 0d39 FC0A0000 		.4byte	0xafc
 1850 0d3d 08       		.byte	0x8
 1851 0d3e 16       		.uleb128 0x16
 1852 0d3f 5C030000 		.4byte	.LASF214
 1853 0d43 0D       		.byte	0xd
 1854 0d44 6F01     		.2byte	0x16f
 1855 0d46 E30C0000 		.4byte	0xce3
 1856 0d4a 0C       		.byte	0xc
 1857 0d4b 16       		.uleb128 0x16
 1858 0d4c 20010000 		.4byte	.LASF215
 1859 0d50 0D       		.byte	0xd
 1860 0d51 7101     		.2byte	0x171
 1861 0d53 94010000 		.4byte	0x194
 1862 0d57 10       		.byte	0x10
 1863 0d58 00       		.byte	0
 1864 0d59 02       		.uleb128 0x2
 1865 0d5a 20040000 		.4byte	.LASF216
 1866 0d5e 0C       		.byte	0xc
 1867 0d5f 66       		.byte	0x66
 1868 0d60 640D0000 		.4byte	0xd64
 1869 0d64 19       		.uleb128 0x19
 1870 0d65 A1000000 		.4byte	.LASF217
 1871 0d69 10       		.byte	0x10
 1872 0d6a 0D       		.byte	0xd
 1873 0d6b 7B01     		.2byte	0x17b
 1874 0d6d A60D0000 		.4byte	0xda6
 1875 0d71 16       		.uleb128 0x16
 1876 0d72 0A050000 		.4byte	.LASF211
 1877 0d76 0D       		.byte	0xd
 1878 0d77 7C01     		.2byte	0x17c
 1879 0d79 93100000 		.4byte	0x1093
 1880 0d7d 00       		.byte	0
 1881 0d7e 16       		.uleb128 0x16
ARM GAS  C:\Users\IDONNO~1\AppData\Local\Temp\cco0ioRR.s 			page 34


 1882 0d7f 23050000 		.4byte	.LASF212
 1883 0d83 0D       		.byte	0xd
 1884 0d84 7E01     		.2byte	0x17e
 1885 0d86 93100000 		.4byte	0x1093
 1886 0d8a 04       		.byte	0x4
 1887 0d8b 16       		.uleb128 0x16
 1888 0d8c BD060000 		.4byte	.LASF213
 1889 0d90 0D       		.byte	0xd
 1890 0d91 8001     		.2byte	0x180
 1891 0d93 FC0A0000 		.4byte	0xafc
 1892 0d97 08       		.byte	0x8
 1893 0d98 16       		.uleb128 0x16
 1894 0d99 4A090000 		.4byte	.LASF218
 1895 0d9d 0D       		.byte	0xd
 1896 0d9e 8201     		.2byte	0x182
 1897 0da0 8E100000 		.4byte	0x108e
 1898 0da4 0C       		.byte	0xc
 1899 0da5 00       		.byte	0
 1900 0da6 02       		.uleb128 0x2
 1901 0da7 E6020000 		.4byte	.LASF219
 1902 0dab 0C       		.byte	0xc
 1903 0dac 6B       		.byte	0x6b
 1904 0dad B10D0000 		.4byte	0xdb1
 1905 0db1 19       		.uleb128 0x19
 1906 0db2 AF090000 		.4byte	.LASF220
 1907 0db6 04       		.byte	0x4
 1908 0db7 0D       		.byte	0xd
 1909 0db8 A201     		.2byte	0x1a2
 1910 0dba CC0D0000 		.4byte	0xdcc
 1911 0dbe 16       		.uleb128 0x16
 1912 0dbf AC020000 		.4byte	.LASF221
 1913 0dc3 0D       		.byte	0xd
 1914 0dc4 AA01     		.2byte	0x1aa
 1915 0dc6 99100000 		.4byte	0x1099
 1916 0dca 00       		.byte	0
 1917 0dcb 00       		.byte	0
 1918 0dcc 02       		.uleb128 0x2
 1919 0dcd 7F0A0000 		.4byte	.LASF222
 1920 0dd1 0C       		.byte	0xc
 1921 0dd2 70       		.byte	0x70
 1922 0dd3 D70D0000 		.4byte	0xdd7
 1923 0dd7 15       		.uleb128 0x15
 1924 0dd8 240A0000 		.4byte	.LASF223
 1925 0ddc 5802     		.2byte	0x258
 1926 0dde 0D       		.byte	0xd
 1927 0ddf C201     		.2byte	0x1c2
 1928 0de1 330E0000 		.4byte	0xe33
 1929 0de5 16       		.uleb128 0x16
 1930 0de6 33090000 		.4byte	.LASF224
 1931 0dea 0D       		.byte	0xd
 1932 0deb C601     		.2byte	0x1c6
 1933 0ded 7C0C0000 		.4byte	0xc7c
 1934 0df1 00       		.byte	0
 1935 0df2 16       		.uleb128 0x16
 1936 0df3 D2090000 		.4byte	.LASF225
 1937 0df7 0D       		.byte	0xd
 1938 0df8 CA01     		.2byte	0x1ca
ARM GAS  C:\Users\IDONNO~1\AppData\Local\Temp\cco0ioRR.s 			page 35


 1939 0dfa 590D0000 		.4byte	0xd59
 1940 0dfe 1C       		.byte	0x1c
 1941 0dff 20       		.uleb128 0x20
 1942 0e00 64626700 		.ascii	"dbg\000"
 1943 0e04 0D       		.byte	0xd
 1944 0e05 CE01     		.2byte	0x1ce
 1945 0e07 A60D0000 		.4byte	0xda6
 1946 0e0b 2C       		.byte	0x2c
 1947 0e0c 16       		.uleb128 0x16
 1948 0e0d B6080000 		.4byte	.LASF226
 1949 0e11 0D       		.byte	0xd
 1950 0e12 D201     		.2byte	0x1d2
 1951 0e14 070B0000 		.4byte	0xb07
 1952 0e18 30       		.byte	0x30
 1953 0e19 20       		.uleb128 0x20
 1954 0e1a 746D00   		.ascii	"tm\000"
 1955 0e1d 0D       		.byte	0xd
 1956 0e1e D701     		.2byte	0x1d7
 1957 0e20 BE0F0000 		.4byte	0xfbe
 1958 0e24 78       		.byte	0x78
 1959 0e25 16       		.uleb128 0x16
 1960 0e26 6D050000 		.4byte	.LASF227
 1961 0e2a 0D       		.byte	0xd
 1962 0e2b E301     		.2byte	0x1e3
 1963 0e2d 9E100000 		.4byte	0x109e
 1964 0e31 80       		.byte	0x80
 1965 0e32 00       		.byte	0
 1966 0e33 02       		.uleb128 0x2
 1967 0e34 EF010000 		.4byte	.LASF228
 1968 0e38 0E       		.byte	0xe
 1969 0e39 65       		.byte	0x65
 1970 0e3a 94010000 		.4byte	0x194
 1971 0e3e 02       		.uleb128 0x2
 1972 0e3f 35030000 		.4byte	.LASF229
 1973 0e43 0E       		.byte	0xe
 1974 0e44 6D       		.byte	0x6d
 1975 0e45 27090000 		.4byte	0x927
 1976 0e49 0E       		.uleb128 0xe
 1977 0e4a 88020000 		.4byte	.LASF230
 1978 0e4e 04       		.byte	0x4
 1979 0e4f 0E       		.byte	0xe
 1980 0e50 89       		.byte	0x89
 1981 0e51 620E0000 		.4byte	0xe62
 1982 0e55 0F       		.uleb128 0xf
 1983 0e56 72313300 		.ascii	"r13\000"
 1984 0e5a 0E       		.byte	0xe
 1985 0e5b 8A       		.byte	0x8a
 1986 0e5c A30F0000 		.4byte	0xfa3
 1987 0e60 00       		.byte	0
 1988 0e61 00       		.byte	0
 1989 0e62 0E       		.uleb128 0xe
 1990 0e63 95060000 		.4byte	.LASF231
 1991 0e67 64       		.byte	0x64
 1992 0e68 0F       		.byte	0xf
 1993 0e69 F4       		.byte	0xf4
 1994 0e6a A30F0000 		.4byte	0xfa3
 1995 0e6e 0F       		.uleb128 0xf
ARM GAS  C:\Users\IDONNO~1\AppData\Local\Temp\cco0ioRR.s 			page 36


 1996 0e6f 73313600 		.ascii	"s16\000"
 1997 0e73 0F       		.byte	0xf
 1998 0e74 F6       		.byte	0xf6
 1999 0e75 330E0000 		.4byte	0xe33
 2000 0e79 00       		.byte	0
 2001 0e7a 0F       		.uleb128 0xf
 2002 0e7b 73313700 		.ascii	"s17\000"
 2003 0e7f 0F       		.byte	0xf
 2004 0e80 F7       		.byte	0xf7
 2005 0e81 330E0000 		.4byte	0xe33
 2006 0e85 04       		.byte	0x4
 2007 0e86 0F       		.uleb128 0xf
 2008 0e87 73313800 		.ascii	"s18\000"
 2009 0e8b 0F       		.byte	0xf
 2010 0e8c F8       		.byte	0xf8
 2011 0e8d 330E0000 		.4byte	0xe33
 2012 0e91 08       		.byte	0x8
 2013 0e92 0F       		.uleb128 0xf
 2014 0e93 73313900 		.ascii	"s19\000"
 2015 0e97 0F       		.byte	0xf
 2016 0e98 F9       		.byte	0xf9
 2017 0e99 330E0000 		.4byte	0xe33
 2018 0e9d 0C       		.byte	0xc
 2019 0e9e 0F       		.uleb128 0xf
 2020 0e9f 73323000 		.ascii	"s20\000"
 2021 0ea3 0F       		.byte	0xf
 2022 0ea4 FA       		.byte	0xfa
 2023 0ea5 330E0000 		.4byte	0xe33
 2024 0ea9 10       		.byte	0x10
 2025 0eaa 0F       		.uleb128 0xf
 2026 0eab 73323100 		.ascii	"s21\000"
 2027 0eaf 0F       		.byte	0xf
 2028 0eb0 FB       		.byte	0xfb
 2029 0eb1 330E0000 		.4byte	0xe33
 2030 0eb5 14       		.byte	0x14
 2031 0eb6 0F       		.uleb128 0xf
 2032 0eb7 73323200 		.ascii	"s22\000"
 2033 0ebb 0F       		.byte	0xf
 2034 0ebc FC       		.byte	0xfc
 2035 0ebd 330E0000 		.4byte	0xe33
 2036 0ec1 18       		.byte	0x18
 2037 0ec2 0F       		.uleb128 0xf
 2038 0ec3 73323300 		.ascii	"s23\000"
 2039 0ec7 0F       		.byte	0xf
 2040 0ec8 FD       		.byte	0xfd
 2041 0ec9 330E0000 		.4byte	0xe33
 2042 0ecd 1C       		.byte	0x1c
 2043 0ece 0F       		.uleb128 0xf
 2044 0ecf 73323400 		.ascii	"s24\000"
 2045 0ed3 0F       		.byte	0xf
 2046 0ed4 FE       		.byte	0xfe
 2047 0ed5 330E0000 		.4byte	0xe33
 2048 0ed9 20       		.byte	0x20
 2049 0eda 0F       		.uleb128 0xf
 2050 0edb 73323500 		.ascii	"s25\000"
 2051 0edf 0F       		.byte	0xf
 2052 0ee0 FF       		.byte	0xff
ARM GAS  C:\Users\IDONNO~1\AppData\Local\Temp\cco0ioRR.s 			page 37


 2053 0ee1 330E0000 		.4byte	0xe33
 2054 0ee5 24       		.byte	0x24
 2055 0ee6 20       		.uleb128 0x20
 2056 0ee7 73323600 		.ascii	"s26\000"
 2057 0eeb 0F       		.byte	0xf
 2058 0eec 0001     		.2byte	0x100
 2059 0eee 330E0000 		.4byte	0xe33
 2060 0ef2 28       		.byte	0x28
 2061 0ef3 20       		.uleb128 0x20
 2062 0ef4 73323700 		.ascii	"s27\000"
 2063 0ef8 0F       		.byte	0xf
 2064 0ef9 0101     		.2byte	0x101
 2065 0efb 330E0000 		.4byte	0xe33
 2066 0eff 2C       		.byte	0x2c
 2067 0f00 20       		.uleb128 0x20
 2068 0f01 73323800 		.ascii	"s28\000"
 2069 0f05 0F       		.byte	0xf
 2070 0f06 0201     		.2byte	0x102
 2071 0f08 330E0000 		.4byte	0xe33
 2072 0f0c 30       		.byte	0x30
 2073 0f0d 20       		.uleb128 0x20
 2074 0f0e 73323900 		.ascii	"s29\000"
 2075 0f12 0F       		.byte	0xf
 2076 0f13 0301     		.2byte	0x103
 2077 0f15 330E0000 		.4byte	0xe33
 2078 0f19 34       		.byte	0x34
 2079 0f1a 20       		.uleb128 0x20
 2080 0f1b 73333000 		.ascii	"s30\000"
 2081 0f1f 0F       		.byte	0xf
 2082 0f20 0401     		.2byte	0x104
 2083 0f22 330E0000 		.4byte	0xe33
 2084 0f26 38       		.byte	0x38
 2085 0f27 20       		.uleb128 0x20
 2086 0f28 73333100 		.ascii	"s31\000"
 2087 0f2c 0F       		.byte	0xf
 2088 0f2d 0501     		.2byte	0x105
 2089 0f2f 330E0000 		.4byte	0xe33
 2090 0f33 3C       		.byte	0x3c
 2091 0f34 20       		.uleb128 0x20
 2092 0f35 723400   		.ascii	"r4\000"
 2093 0f38 0F       		.byte	0xf
 2094 0f39 0701     		.2byte	0x107
 2095 0f3b 330E0000 		.4byte	0xe33
 2096 0f3f 40       		.byte	0x40
 2097 0f40 20       		.uleb128 0x20
 2098 0f41 723500   		.ascii	"r5\000"
 2099 0f44 0F       		.byte	0xf
 2100 0f45 0801     		.2byte	0x108
 2101 0f47 330E0000 		.4byte	0xe33
 2102 0f4b 44       		.byte	0x44
 2103 0f4c 20       		.uleb128 0x20
 2104 0f4d 723600   		.ascii	"r6\000"
 2105 0f50 0F       		.byte	0xf
 2106 0f51 0901     		.2byte	0x109
 2107 0f53 330E0000 		.4byte	0xe33
 2108 0f57 48       		.byte	0x48
 2109 0f58 20       		.uleb128 0x20
ARM GAS  C:\Users\IDONNO~1\AppData\Local\Temp\cco0ioRR.s 			page 38


 2110 0f59 723700   		.ascii	"r7\000"
 2111 0f5c 0F       		.byte	0xf
 2112 0f5d 0A01     		.2byte	0x10a
 2113 0f5f 330E0000 		.4byte	0xe33
 2114 0f63 4C       		.byte	0x4c
 2115 0f64 20       		.uleb128 0x20
 2116 0f65 723800   		.ascii	"r8\000"
 2117 0f68 0F       		.byte	0xf
 2118 0f69 0B01     		.2byte	0x10b
 2119 0f6b 330E0000 		.4byte	0xe33
 2120 0f6f 50       		.byte	0x50
 2121 0f70 20       		.uleb128 0x20
 2122 0f71 723900   		.ascii	"r9\000"
 2123 0f74 0F       		.byte	0xf
 2124 0f75 0C01     		.2byte	0x10c
 2125 0f77 330E0000 		.4byte	0xe33
 2126 0f7b 54       		.byte	0x54
 2127 0f7c 20       		.uleb128 0x20
 2128 0f7d 72313000 		.ascii	"r10\000"
 2129 0f81 0F       		.byte	0xf
 2130 0f82 0D01     		.2byte	0x10d
 2131 0f84 330E0000 		.4byte	0xe33
 2132 0f88 58       		.byte	0x58
 2133 0f89 20       		.uleb128 0x20
 2134 0f8a 72313100 		.ascii	"r11\000"
 2135 0f8e 0F       		.byte	0xf
 2136 0f8f 0E01     		.2byte	0x10e
 2137 0f91 330E0000 		.4byte	0xe33
 2138 0f95 5C       		.byte	0x5c
 2139 0f96 20       		.uleb128 0x20
 2140 0f97 6C7200   		.ascii	"lr\000"
 2141 0f9a 0F       		.byte	0xf
 2142 0f9b 0F01     		.2byte	0x10f
 2143 0f9d 330E0000 		.4byte	0xe33
 2144 0fa1 60       		.byte	0x60
 2145 0fa2 00       		.byte	0
 2146 0fa3 0D       		.uleb128 0xd
 2147 0fa4 04       		.byte	0x4
 2148 0fa5 620E0000 		.4byte	0xe62
 2149 0fa9 0A       		.uleb128 0xa
 2150 0faa 04       		.byte	0x4
 2151 0fab 10       		.byte	0x10
 2152 0fac 38       		.byte	0x38
 2153 0fad BE0F0000 		.4byte	0xfbe
 2154 0fb1 0B       		.uleb128 0xb
 2155 0fb2 1D060000 		.4byte	.LASF232
 2156 0fb6 10       		.byte	0x10
 2157 0fb7 3C       		.byte	0x3c
 2158 0fb8 990A0000 		.4byte	0xa99
 2159 0fbc 00       		.byte	0
 2160 0fbd 00       		.byte	0
 2161 0fbe 02       		.uleb128 0x2
 2162 0fbf 5D090000 		.4byte	.LASF233
 2163 0fc3 10       		.byte	0x10
 2164 0fc4 3D       		.byte	0x3d
 2165 0fc5 A90F0000 		.4byte	0xfa9
 2166 0fc9 06       		.uleb128 0x6
ARM GAS  C:\Users\IDONNO~1\AppData\Local\Temp\cco0ioRR.s 			page 39


 2167 0fca 04       		.byte	0x4
 2168 0fcb 0D       		.byte	0xd
 2169 0fcc FA       		.byte	0xfa
 2170 0fcd 26100000 		.4byte	0x1026
 2171 0fd1 1C       		.uleb128 0x1c
 2172 0fd2 560A0000 		.4byte	.LASF234
 2173 0fd6 0D       		.byte	0xd
 2174 0fd7 0101     		.2byte	0x101
 2175 0fd9 DB0A0000 		.4byte	0xadb
 2176 0fdd 1C       		.uleb128 0x1c
 2177 0fde 35010000 		.4byte	.LASF235
 2178 0fe2 0D       		.byte	0xd
 2179 0fe3 0801     		.2byte	0x108
 2180 0fe5 DB0A0000 		.4byte	0xadb
 2181 0fe9 1C       		.uleb128 0x1c
 2182 0fea 14030000 		.4byte	.LASF236
 2183 0fee 0D       		.byte	0xd
 2184 0fef 0F01     		.2byte	0x10f
 2185 0ff1 94010000 		.4byte	0x194
 2186 0ff5 1C       		.uleb128 0x1c
 2187 0ff6 90020000 		.4byte	.LASF237
 2188 0ffa 0D       		.byte	0xd
 2189 0ffb 1601     		.2byte	0x116
 2190 0ffd 26100000 		.4byte	0x1026
 2191 1001 1C       		.uleb128 0x1c
 2192 1002 060B0000 		.4byte	.LASF238
 2193 1006 0D       		.byte	0xd
 2194 1007 1E01     		.2byte	0x11e
 2195 1009 51100000 		.4byte	0x1051
 2196 100d 1C       		.uleb128 0x1c
 2197 100e 83030000 		.4byte	.LASF239
 2198 1012 0D       		.byte	0xd
 2199 1013 2701     		.2byte	0x127
 2200 1015 88100000 		.4byte	0x1088
 2201 1019 1C       		.uleb128 0x1c
 2202 101a 50010000 		.4byte	.LASF240
 2203 101e 0D       		.byte	0xd
 2204 101f 2F01     		.2byte	0x12f
 2205 1021 E60A0000 		.4byte	0xae6
 2206 1025 00       		.byte	0
 2207 1026 0D       		.uleb128 0xd
 2208 1027 04       		.byte	0x4
 2209 1028 170C0000 		.4byte	0xc17
 2210 102c 0E       		.uleb128 0xe
 2211 102d 09040000 		.4byte	.LASF241
 2212 1031 0C       		.byte	0xc
 2213 1032 11       		.byte	0x11
 2214 1033 34       		.byte	0x34
 2215 1034 51100000 		.4byte	0x1051
 2216 1038 0B       		.uleb128 0xb
 2217 1039 6E090000 		.4byte	.LASF242
 2218 103d 11       		.byte	0x11
 2219 103e 35       		.byte	0x35
 2220 103f 4C0C0000 		.4byte	0xc4c
 2221 1043 00       		.byte	0
 2222 1044 0B       		.uleb128 0xb
 2223 1045 E6060000 		.4byte	.LASF243
ARM GAS  C:\Users\IDONNO~1\AppData\Local\Temp\cco0ioRR.s 			page 40


 2224 1049 11       		.byte	0x11
 2225 104a 37       		.byte	0x37
 2226 104b F10A0000 		.4byte	0xaf1
 2227 104f 08       		.byte	0x8
 2228 1050 00       		.byte	0
 2229 1051 0D       		.uleb128 0xd
 2230 1052 04       		.byte	0x4
 2231 1053 2C100000 		.4byte	0x102c
 2232 1057 0E       		.uleb128 0xe
 2233 1058 96090000 		.4byte	.LASF244
 2234 105c 10       		.byte	0x10
 2235 105d 12       		.byte	0x12
 2236 105e 39       		.byte	0x39
 2237 105f 88100000 		.4byte	0x1088
 2238 1063 0B       		.uleb128 0xb
 2239 1064 FB040000 		.4byte	.LASF245
 2240 1068 12       		.byte	0x12
 2241 1069 3A       		.byte	0x3a
 2242 106a 4C0C0000 		.4byte	0xc4c
 2243 106e 00       		.byte	0
 2244 106f 0B       		.uleb128 0xb
 2245 1070 18010000 		.4byte	.LASF246
 2246 1074 12       		.byte	0x12
 2247 1075 3C       		.byte	0x3c
 2248 1076 220C0000 		.4byte	0xc22
 2249 107a 08       		.byte	0x8
 2250 107b 0B       		.uleb128 0xb
 2251 107c E90A0000 		.4byte	.LASF247
 2252 1080 12       		.byte	0x12
 2253 1081 3E       		.byte	0x3e
 2254 1082 B9100000 		.4byte	0x10b9
 2255 1086 0C       		.byte	0xc
 2256 1087 00       		.byte	0
 2257 1088 0D       		.uleb128 0xd
 2258 1089 04       		.byte	0x4
 2259 108a 57100000 		.4byte	0x1057
 2260 108e 1F       		.uleb128 0x1f
 2261 108f FC0A0000 		.4byte	0xafc
 2262 1093 0D       		.uleb128 0xd
 2263 1094 04       		.byte	0x4
 2264 1095 FF0C0000 		.4byte	0xcff
 2265 1099 1F       		.uleb128 0x1f
 2266 109a 15060000 		.4byte	0x615
 2267 109e 08       		.uleb128 0x8
 2268 109f 3E0E0000 		.4byte	0xe3e
 2269 10a3 AE100000 		.4byte	0x10ae
 2270 10a7 09       		.uleb128 0x9
 2271 10a8 56010000 		.4byte	0x156
 2272 10ac 3A       		.byte	0x3a
 2273 10ad 00       		.byte	0
 2274 10ae 02       		.uleb128 0x2
 2275 10af FB090000 		.4byte	.LASF248
 2276 10b3 12       		.byte	0x12
 2277 10b4 34       		.byte	0x34
 2278 10b5 57100000 		.4byte	0x1057
 2279 10b9 0D       		.uleb128 0xd
 2280 10ba 04       		.byte	0x4
ARM GAS  C:\Users\IDONNO~1\AppData\Local\Temp\cco0ioRR.s 			page 41


 2281 10bb AE100000 		.4byte	0x10ae
 2282 10bf 21       		.uleb128 0x21
 2283 10c0 A60A0000 		.4byte	.LASF250
 2284 10c4 01       		.byte	0x1
 2285 10c5 46       		.byte	0x46
 2286 10c6 37000000 		.4byte	0x37
 2287 10ca 00000000 		.4byte	.LFB219
 2288 10ce 0A000000 		.4byte	.LFE219-.LFB219
 2289 10d2 01       		.uleb128 0x1
 2290 10d3 9C       		.byte	0x9c
 2291 10d4 0F110000 		.4byte	0x110f
 2292 10d8 22       		.uleb128 0x22
 2293 10d9 7200     		.ascii	"r\000"
 2294 10db 01       		.byte	0x1
 2295 10dc 46       		.byte	0x46
 2296 10dd B9040000 		.4byte	0x4b9
 2297 10e1 00000000 		.4byte	.LLST0
 2298 10e5 23       		.uleb128 0x23
 2299 10e6 51030000 		.4byte	.LASF249
 2300 10ea 01       		.byte	0x1
 2301 10eb 46       		.byte	0x46
 2302 10ec 37000000 		.4byte	0x37
 2303 10f0 01       		.uleb128 0x1
 2304 10f1 51       		.byte	0x51
 2305 10f2 24       		.uleb128 0x24
 2306 10f3 70747200 		.ascii	"ptr\000"
 2307 10f7 01       		.byte	0x1
 2308 10f8 46       		.byte	0x46
 2309 10f9 A1010000 		.4byte	0x1a1
 2310 10fd 01       		.uleb128 0x1
 2311 10fe 52       		.byte	0x52
 2312 10ff 22       		.uleb128 0x22
 2313 1100 6C656E00 		.ascii	"len\000"
 2314 1104 01       		.byte	0x1
 2315 1105 46       		.byte	0x46
 2316 1106 37000000 		.4byte	0x37
 2317 110a 21000000 		.4byte	.LLST1
 2318 110e 00       		.byte	0
 2319 110f 21       		.uleb128 0x21
 2320 1110 EA090000 		.4byte	.LASF251
 2321 1114 01       		.byte	0x1
 2322 1115 5B       		.byte	0x5b
 2323 1116 37000000 		.4byte	0x37
 2324 111a 00000000 		.4byte	.LFB220
 2325 111e 04000000 		.4byte	.LFE220-.LFB220
 2326 1122 01       		.uleb128 0x1
 2327 1123 9C       		.byte	0x9c
 2328 1124 5D110000 		.4byte	0x115d
 2329 1128 22       		.uleb128 0x22
 2330 1129 7200     		.ascii	"r\000"
 2331 112b 01       		.byte	0x1
 2332 112c 5B       		.byte	0x5b
 2333 112d B9040000 		.4byte	0x4b9
 2334 1131 42000000 		.4byte	.LLST2
 2335 1135 23       		.uleb128 0x23
 2336 1136 51030000 		.4byte	.LASF249
 2337 113a 01       		.byte	0x1
ARM GAS  C:\Users\IDONNO~1\AppData\Local\Temp\cco0ioRR.s 			page 42


 2338 113b 5B       		.byte	0x5b
 2339 113c 37000000 		.4byte	0x37
 2340 1140 01       		.uleb128 0x1
 2341 1141 51       		.byte	0x51
 2342 1142 24       		.uleb128 0x24
 2343 1143 70747200 		.ascii	"ptr\000"
 2344 1147 01       		.byte	0x1
 2345 1148 5B       		.byte	0x5b
 2346 1149 37000000 		.4byte	0x37
 2347 114d 01       		.uleb128 0x1
 2348 114e 52       		.byte	0x52
 2349 114f 24       		.uleb128 0x24
 2350 1150 64697200 		.ascii	"dir\000"
 2351 1154 01       		.byte	0x1
 2352 1155 5B       		.byte	0x5b
 2353 1156 37000000 		.4byte	0x37
 2354 115a 01       		.uleb128 0x1
 2355 115b 53       		.byte	0x53
 2356 115c 00       		.byte	0
 2357 115d 21       		.uleb128 0x21
 2358 115e 89050000 		.4byte	.LASF252
 2359 1162 01       		.byte	0x1
 2360 1163 67       		.byte	0x67
 2361 1164 37000000 		.4byte	0x37
 2362 1168 00000000 		.4byte	.LFB221
 2363 116c 04000000 		.4byte	.LFE221-.LFB221
 2364 1170 01       		.uleb128 0x1
 2365 1171 9C       		.byte	0x9c
 2366 1172 AB110000 		.4byte	0x11ab
 2367 1176 22       		.uleb128 0x22
 2368 1177 7200     		.ascii	"r\000"
 2369 1179 01       		.byte	0x1
 2370 117a 67       		.byte	0x67
 2371 117b B9040000 		.4byte	0x4b9
 2372 117f 63000000 		.4byte	.LLST3
 2373 1183 23       		.uleb128 0x23
 2374 1184 51030000 		.4byte	.LASF249
 2375 1188 01       		.byte	0x1
 2376 1189 67       		.byte	0x67
 2377 118a 37000000 		.4byte	0x37
 2378 118e 01       		.uleb128 0x1
 2379 118f 51       		.byte	0x51
 2380 1190 24       		.uleb128 0x24
 2381 1191 70747200 		.ascii	"ptr\000"
 2382 1195 01       		.byte	0x1
 2383 1196 67       		.byte	0x67
 2384 1197 A1010000 		.4byte	0x1a1
 2385 119b 01       		.uleb128 0x1
 2386 119c 52       		.byte	0x52
 2387 119d 24       		.uleb128 0x24
 2388 119e 6C656E00 		.ascii	"len\000"
 2389 11a2 01       		.byte	0x1
 2390 11a3 67       		.byte	0x67
 2391 11a4 37000000 		.4byte	0x37
 2392 11a8 01       		.uleb128 0x1
 2393 11a9 53       		.byte	0x53
 2394 11aa 00       		.byte	0
ARM GAS  C:\Users\IDONNO~1\AppData\Local\Temp\cco0ioRR.s 			page 43


 2395 11ab 21       		.uleb128 0x21
 2396 11ac 82040000 		.4byte	.LASF253
 2397 11b0 01       		.byte	0x1
 2398 11b1 78       		.byte	0x78
 2399 11b2 37000000 		.4byte	0x37
 2400 11b6 00000000 		.4byte	.LFB222
 2401 11ba 04000000 		.4byte	.LFE222-.LFB222
 2402 11be 01       		.uleb128 0x1
 2403 11bf 9C       		.byte	0x9c
 2404 11c0 DF110000 		.4byte	0x11df
 2405 11c4 22       		.uleb128 0x22
 2406 11c5 7200     		.ascii	"r\000"
 2407 11c7 01       		.byte	0x1
 2408 11c8 78       		.byte	0x78
 2409 11c9 B9040000 		.4byte	0x4b9
 2410 11cd 84000000 		.4byte	.LLST4
 2411 11d1 23       		.uleb128 0x23
 2412 11d2 51030000 		.4byte	.LASF249
 2413 11d6 01       		.byte	0x1
 2414 11d7 78       		.byte	0x78
 2415 11d8 37000000 		.4byte	0x37
 2416 11dc 01       		.uleb128 0x1
 2417 11dd 51       		.byte	0x51
 2418 11de 00       		.byte	0
 2419 11df 21       		.uleb128 0x21
 2420 11e0 B6020000 		.4byte	.LASF254
 2421 11e4 01       		.byte	0x1
 2422 11e5 82       		.byte	0x82
 2423 11e6 53090000 		.4byte	0x953
 2424 11ea 00000000 		.4byte	.LFB223
 2425 11ee 18000000 		.4byte	.LFE223-.LFB223
 2426 11f2 01       		.uleb128 0x1
 2427 11f3 9C       		.byte	0x9c
 2428 11f4 3C120000 		.4byte	0x123c
 2429 11f8 22       		.uleb128 0x22
 2430 11f9 7200     		.ascii	"r\000"
 2431 11fb 01       		.byte	0x1
 2432 11fc 82       		.byte	0x82
 2433 11fd B9040000 		.4byte	0x4b9
 2434 1201 A5000000 		.4byte	.LLST5
 2435 1205 25       		.uleb128 0x25
 2436 1206 BC050000 		.4byte	.LASF255
 2437 120a 01       		.byte	0x1
 2438 120b 82       		.byte	0x82
 2439 120c 37000000 		.4byte	0x37
 2440 1210 C3000000 		.4byte	.LLST6
 2441 1214 26       		.uleb128 0x26
 2442 1215 7000     		.ascii	"p\000"
 2443 1217 01       		.byte	0x1
 2444 1218 85       		.byte	0x85
 2445 1219 94010000 		.4byte	0x194
 2446 121d E4000000 		.4byte	.LLST7
 2447 1221 27       		.uleb128 0x27
 2448 1222 98000000 		.4byte	.LASF263
 2449 1226 4C120000 		.4byte	0x124c
 2450 122a 28       		.uleb128 0x28
 2451 122b 0A000000 		.4byte	.LVL11
ARM GAS  C:\Users\IDONNO~1\AppData\Local\Temp\cco0ioRR.s 			page 44


 2452 122f 00130000 		.4byte	0x1300
 2453 1233 29       		.uleb128 0x29
 2454 1234 01       		.uleb128 0x1
 2455 1235 50       		.byte	0x50
 2456 1236 03       		.uleb128 0x3
 2457 1237 F3       		.byte	0xf3
 2458 1238 01       		.uleb128 0x1
 2459 1239 51       		.byte	0x51
 2460 123a 00       		.byte	0
 2461 123b 00       		.byte	0
 2462 123c 08       		.uleb128 0x8
 2463 123d 1B060000 		.4byte	0x61b
 2464 1241 4C120000 		.4byte	0x124c
 2465 1245 09       		.uleb128 0x9
 2466 1246 56010000 		.4byte	0x156
 2467 124a 07       		.byte	0x7
 2468 124b 00       		.byte	0
 2469 124c 18       		.uleb128 0x18
 2470 124d 3C120000 		.4byte	0x123c
 2471 1251 21       		.uleb128 0x21
 2472 1252 6D070000 		.4byte	.LASF256
 2473 1256 01       		.byte	0x1
 2474 1257 98       		.byte	0x98
 2475 1258 37000000 		.4byte	0x37
 2476 125c 00000000 		.4byte	.LFB224
 2477 1260 18000000 		.4byte	.LFE224-.LFB224
 2478 1264 01       		.uleb128 0x1
 2479 1265 9C       		.byte	0x9c
 2480 1266 B0120000 		.4byte	0x12b0
 2481 126a 22       		.uleb128 0x22
 2482 126b 7200     		.ascii	"r\000"
 2483 126d 01       		.byte	0x1
 2484 126e 98       		.byte	0x98
 2485 126f B9040000 		.4byte	0x4b9
 2486 1273 F7000000 		.4byte	.LLST8
 2487 1277 25       		.uleb128 0x25
 2488 1278 51030000 		.4byte	.LASF249
 2489 127c 01       		.byte	0x1
 2490 127d 98       		.byte	0x98
 2491 127e 37000000 		.4byte	0x37
 2492 1282 18010000 		.4byte	.LLST9
 2493 1286 22       		.uleb128 0x22
 2494 1287 737400   		.ascii	"st\000"
 2495 128a 01       		.byte	0x1
 2496 128b 98       		.byte	0x98
 2497 128c B0120000 		.4byte	0x12b0
 2498 1290 39010000 		.4byte	.LLST10
 2499 1294 28       		.uleb128 0x28
 2500 1295 0E000000 		.4byte	.LVL18
 2501 1299 0B130000 		.4byte	0x130b
 2502 129d 29       		.uleb128 0x29
 2503 129e 01       		.uleb128 0x1
 2504 129f 50       		.byte	0x50
 2505 12a0 02       		.uleb128 0x2
 2506 12a1 74       		.byte	0x74
 2507 12a2 00       		.sleb128 0
 2508 12a3 29       		.uleb128 0x29
ARM GAS  C:\Users\IDONNO~1\AppData\Local\Temp\cco0ioRR.s 			page 45


 2509 12a4 01       		.uleb128 0x1
 2510 12a5 51       		.byte	0x51
 2511 12a6 01       		.uleb128 0x1
 2512 12a7 30       		.byte	0x30
 2513 12a8 29       		.uleb128 0x29
 2514 12a9 01       		.uleb128 0x1
 2515 12aa 52       		.byte	0x52
 2516 12ab 02       		.uleb128 0x2
 2517 12ac 08       		.byte	0x8
 2518 12ad 3C       		.byte	0x3c
 2519 12ae 00       		.byte	0
 2520 12af 00       		.byte	0
 2521 12b0 0D       		.uleb128 0xd
 2522 12b1 04       		.byte	0x4
 2523 12b2 AB090000 		.4byte	0x9ab
 2524 12b6 21       		.uleb128 0x21
 2525 12b7 2B030000 		.4byte	.LASF257
 2526 12bb 01       		.byte	0x1
 2527 12bc A4       		.byte	0xa4
 2528 12bd 37000000 		.4byte	0x37
 2529 12c1 00000000 		.4byte	.LFB225
 2530 12c5 04000000 		.4byte	.LFE225-.LFB225
 2531 12c9 01       		.uleb128 0x1
 2532 12ca 9C       		.byte	0x9c
 2533 12cb E9120000 		.4byte	0x12e9
 2534 12cf 22       		.uleb128 0x22
 2535 12d0 7200     		.ascii	"r\000"
 2536 12d2 01       		.byte	0x1
 2537 12d3 A4       		.byte	0xa4
 2538 12d4 B9040000 		.4byte	0x4b9
 2539 12d8 62010000 		.4byte	.LLST11
 2540 12dc 24       		.uleb128 0x24
 2541 12dd 666400   		.ascii	"fd\000"
 2542 12e0 01       		.byte	0x1
 2543 12e1 A4       		.byte	0xa4
 2544 12e2 37000000 		.4byte	0x37
 2545 12e6 01       		.uleb128 0x1
 2546 12e7 51       		.byte	0x51
 2547 12e8 00       		.byte	0
 2548 12e9 2A       		.uleb128 0x2a
 2549 12ea 50050000 		.4byte	.LASF258
 2550 12ee 13       		.byte	0x13
 2551 12ef A706     		.2byte	0x6a7
 2552 12f1 940A0000 		.4byte	0xa94
 2553 12f5 2B       		.uleb128 0x2b
 2554 12f6 636800   		.ascii	"ch\000"
 2555 12f9 0D       		.byte	0xd
 2556 12fa 0902     		.2byte	0x209
 2557 12fc CC0D0000 		.4byte	0xdcc
 2558 1300 2C       		.uleb128 0x2c
 2559 1301 6C030000 		.4byte	.LASF264
 2560 1305 6C030000 		.4byte	.LASF264
 2561 1309 14       		.byte	0x14
 2562 130a 62       		.byte	0x62
 2563 130b 2D       		.uleb128 0x2d
 2564 130c FA020000 		.4byte	.LASF265
 2565 1310 FA020000 		.4byte	.LASF265
ARM GAS  C:\Users\IDONNO~1\AppData\Local\Temp\cco0ioRR.s 			page 46


 2566 1314 00       		.byte	0
 2567              		.section	.debug_abbrev,"",%progbits
 2568              	.Ldebug_abbrev0:
 2569 0000 01       		.uleb128 0x1
 2570 0001 11       		.uleb128 0x11
 2571 0002 01       		.byte	0x1
 2572 0003 25       		.uleb128 0x25
 2573 0004 0E       		.uleb128 0xe
 2574 0005 13       		.uleb128 0x13
 2575 0006 0B       		.uleb128 0xb
 2576 0007 03       		.uleb128 0x3
 2577 0008 0E       		.uleb128 0xe
 2578 0009 1B       		.uleb128 0x1b
 2579 000a 0E       		.uleb128 0xe
 2580 000b 55       		.uleb128 0x55
 2581 000c 17       		.uleb128 0x17
 2582 000d 11       		.uleb128 0x11
 2583 000e 01       		.uleb128 0x1
 2584 000f 10       		.uleb128 0x10
 2585 0010 17       		.uleb128 0x17
 2586 0011 00       		.byte	0
 2587 0012 00       		.byte	0
 2588 0013 02       		.uleb128 0x2
 2589 0014 16       		.uleb128 0x16
 2590 0015 00       		.byte	0
 2591 0016 03       		.uleb128 0x3
 2592 0017 0E       		.uleb128 0xe
 2593 0018 3A       		.uleb128 0x3a
 2594 0019 0B       		.uleb128 0xb
 2595 001a 3B       		.uleb128 0x3b
 2596 001b 0B       		.uleb128 0xb
 2597 001c 49       		.uleb128 0x49
 2598 001d 13       		.uleb128 0x13
 2599 001e 00       		.byte	0
 2600 001f 00       		.byte	0
 2601 0020 03       		.uleb128 0x3
 2602 0021 24       		.uleb128 0x24
 2603 0022 00       		.byte	0
 2604 0023 0B       		.uleb128 0xb
 2605 0024 0B       		.uleb128 0xb
 2606 0025 3E       		.uleb128 0x3e
 2607 0026 0B       		.uleb128 0xb
 2608 0027 03       		.uleb128 0x3
 2609 0028 0E       		.uleb128 0xe
 2610 0029 00       		.byte	0
 2611 002a 00       		.byte	0
 2612 002b 04       		.uleb128 0x4
 2613 002c 24       		.uleb128 0x24
 2614 002d 00       		.byte	0
 2615 002e 0B       		.uleb128 0xb
 2616 002f 0B       		.uleb128 0xb
 2617 0030 3E       		.uleb128 0x3e
 2618 0031 0B       		.uleb128 0xb
 2619 0032 03       		.uleb128 0x3
 2620 0033 08       		.uleb128 0x8
 2621 0034 00       		.byte	0
 2622 0035 00       		.byte	0
ARM GAS  C:\Users\IDONNO~1\AppData\Local\Temp\cco0ioRR.s 			page 47


 2623 0036 05       		.uleb128 0x5
 2624 0037 16       		.uleb128 0x16
 2625 0038 00       		.byte	0
 2626 0039 03       		.uleb128 0x3
 2627 003a 0E       		.uleb128 0xe
 2628 003b 3A       		.uleb128 0x3a
 2629 003c 0B       		.uleb128 0xb
 2630 003d 3B       		.uleb128 0x3b
 2631 003e 05       		.uleb128 0x5
 2632 003f 49       		.uleb128 0x49
 2633 0040 13       		.uleb128 0x13
 2634 0041 00       		.byte	0
 2635 0042 00       		.byte	0
 2636 0043 06       		.uleb128 0x6
 2637 0044 17       		.uleb128 0x17
 2638 0045 01       		.byte	0x1
 2639 0046 0B       		.uleb128 0xb
 2640 0047 0B       		.uleb128 0xb
 2641 0048 3A       		.uleb128 0x3a
 2642 0049 0B       		.uleb128 0xb
 2643 004a 3B       		.uleb128 0x3b
 2644 004b 0B       		.uleb128 0xb
 2645 004c 01       		.uleb128 0x1
 2646 004d 13       		.uleb128 0x13
 2647 004e 00       		.byte	0
 2648 004f 00       		.byte	0
 2649 0050 07       		.uleb128 0x7
 2650 0051 0D       		.uleb128 0xd
 2651 0052 00       		.byte	0
 2652 0053 03       		.uleb128 0x3
 2653 0054 0E       		.uleb128 0xe
 2654 0055 3A       		.uleb128 0x3a
 2655 0056 0B       		.uleb128 0xb
 2656 0057 3B       		.uleb128 0x3b
 2657 0058 0B       		.uleb128 0xb
 2658 0059 49       		.uleb128 0x49
 2659 005a 13       		.uleb128 0x13
 2660 005b 00       		.byte	0
 2661 005c 00       		.byte	0
 2662 005d 08       		.uleb128 0x8
 2663 005e 01       		.uleb128 0x1
 2664 005f 01       		.byte	0x1
 2665 0060 49       		.uleb128 0x49
 2666 0061 13       		.uleb128 0x13
 2667 0062 01       		.uleb128 0x1
 2668 0063 13       		.uleb128 0x13
 2669 0064 00       		.byte	0
 2670 0065 00       		.byte	0
 2671 0066 09       		.uleb128 0x9
 2672 0067 21       		.uleb128 0x21
 2673 0068 00       		.byte	0
 2674 0069 49       		.uleb128 0x49
 2675 006a 13       		.uleb128 0x13
 2676 006b 2F       		.uleb128 0x2f
 2677 006c 0B       		.uleb128 0xb
 2678 006d 00       		.byte	0
 2679 006e 00       		.byte	0
ARM GAS  C:\Users\IDONNO~1\AppData\Local\Temp\cco0ioRR.s 			page 48


 2680 006f 0A       		.uleb128 0xa
 2681 0070 13       		.uleb128 0x13
 2682 0071 01       		.byte	0x1
 2683 0072 0B       		.uleb128 0xb
 2684 0073 0B       		.uleb128 0xb
 2685 0074 3A       		.uleb128 0x3a
 2686 0075 0B       		.uleb128 0xb
 2687 0076 3B       		.uleb128 0x3b
 2688 0077 0B       		.uleb128 0xb
 2689 0078 01       		.uleb128 0x1
 2690 0079 13       		.uleb128 0x13
 2691 007a 00       		.byte	0
 2692 007b 00       		.byte	0
 2693 007c 0B       		.uleb128 0xb
 2694 007d 0D       		.uleb128 0xd
 2695 007e 00       		.byte	0
 2696 007f 03       		.uleb128 0x3
 2697 0080 0E       		.uleb128 0xe
 2698 0081 3A       		.uleb128 0x3a
 2699 0082 0B       		.uleb128 0xb
 2700 0083 3B       		.uleb128 0x3b
 2701 0084 0B       		.uleb128 0xb
 2702 0085 49       		.uleb128 0x49
 2703 0086 13       		.uleb128 0x13
 2704 0087 38       		.uleb128 0x38
 2705 0088 0B       		.uleb128 0xb
 2706 0089 00       		.byte	0
 2707 008a 00       		.byte	0
 2708 008b 0C       		.uleb128 0xc
 2709 008c 0F       		.uleb128 0xf
 2710 008d 00       		.byte	0
 2711 008e 0B       		.uleb128 0xb
 2712 008f 0B       		.uleb128 0xb
 2713 0090 00       		.byte	0
 2714 0091 00       		.byte	0
 2715 0092 0D       		.uleb128 0xd
 2716 0093 0F       		.uleb128 0xf
 2717 0094 00       		.byte	0
 2718 0095 0B       		.uleb128 0xb
 2719 0096 0B       		.uleb128 0xb
 2720 0097 49       		.uleb128 0x49
 2721 0098 13       		.uleb128 0x13
 2722 0099 00       		.byte	0
 2723 009a 00       		.byte	0
 2724 009b 0E       		.uleb128 0xe
 2725 009c 13       		.uleb128 0x13
 2726 009d 01       		.byte	0x1
 2727 009e 03       		.uleb128 0x3
 2728 009f 0E       		.uleb128 0xe
 2729 00a0 0B       		.uleb128 0xb
 2730 00a1 0B       		.uleb128 0xb
 2731 00a2 3A       		.uleb128 0x3a
 2732 00a3 0B       		.uleb128 0xb
 2733 00a4 3B       		.uleb128 0x3b
 2734 00a5 0B       		.uleb128 0xb
 2735 00a6 01       		.uleb128 0x1
 2736 00a7 13       		.uleb128 0x13
ARM GAS  C:\Users\IDONNO~1\AppData\Local\Temp\cco0ioRR.s 			page 49


 2737 00a8 00       		.byte	0
 2738 00a9 00       		.byte	0
 2739 00aa 0F       		.uleb128 0xf
 2740 00ab 0D       		.uleb128 0xd
 2741 00ac 00       		.byte	0
 2742 00ad 03       		.uleb128 0x3
 2743 00ae 08       		.uleb128 0x8
 2744 00af 3A       		.uleb128 0x3a
 2745 00b0 0B       		.uleb128 0xb
 2746 00b1 3B       		.uleb128 0x3b
 2747 00b2 0B       		.uleb128 0xb
 2748 00b3 49       		.uleb128 0x49
 2749 00b4 13       		.uleb128 0x13
 2750 00b5 38       		.uleb128 0x38
 2751 00b6 0B       		.uleb128 0xb
 2752 00b7 00       		.byte	0
 2753 00b8 00       		.byte	0
 2754 00b9 10       		.uleb128 0x10
 2755 00ba 13       		.uleb128 0x13
 2756 00bb 01       		.byte	0x1
 2757 00bc 03       		.uleb128 0x3
 2758 00bd 0E       		.uleb128 0xe
 2759 00be 0B       		.uleb128 0xb
 2760 00bf 05       		.uleb128 0x5
 2761 00c0 3A       		.uleb128 0x3a
 2762 00c1 0B       		.uleb128 0xb
 2763 00c2 3B       		.uleb128 0x3b
 2764 00c3 0B       		.uleb128 0xb
 2765 00c4 01       		.uleb128 0x1
 2766 00c5 13       		.uleb128 0x13
 2767 00c6 00       		.byte	0
 2768 00c7 00       		.byte	0
 2769 00c8 11       		.uleb128 0x11
 2770 00c9 0D       		.uleb128 0xd
 2771 00ca 00       		.byte	0
 2772 00cb 03       		.uleb128 0x3
 2773 00cc 0E       		.uleb128 0xe
 2774 00cd 3A       		.uleb128 0x3a
 2775 00ce 0B       		.uleb128 0xb
 2776 00cf 3B       		.uleb128 0x3b
 2777 00d0 0B       		.uleb128 0xb
 2778 00d1 49       		.uleb128 0x49
 2779 00d2 13       		.uleb128 0x13
 2780 00d3 38       		.uleb128 0x38
 2781 00d4 05       		.uleb128 0x5
 2782 00d5 00       		.byte	0
 2783 00d6 00       		.byte	0
 2784 00d7 12       		.uleb128 0x12
 2785 00d8 15       		.uleb128 0x15
 2786 00d9 00       		.byte	0
 2787 00da 27       		.uleb128 0x27
 2788 00db 19       		.uleb128 0x19
 2789 00dc 00       		.byte	0
 2790 00dd 00       		.byte	0
 2791 00de 13       		.uleb128 0x13
 2792 00df 15       		.uleb128 0x15
 2793 00e0 01       		.byte	0x1
ARM GAS  C:\Users\IDONNO~1\AppData\Local\Temp\cco0ioRR.s 			page 50


 2794 00e1 27       		.uleb128 0x27
 2795 00e2 19       		.uleb128 0x19
 2796 00e3 49       		.uleb128 0x49
 2797 00e4 13       		.uleb128 0x13
 2798 00e5 01       		.uleb128 0x1
 2799 00e6 13       		.uleb128 0x13
 2800 00e7 00       		.byte	0
 2801 00e8 00       		.byte	0
 2802 00e9 14       		.uleb128 0x14
 2803 00ea 05       		.uleb128 0x5
 2804 00eb 00       		.byte	0
 2805 00ec 49       		.uleb128 0x49
 2806 00ed 13       		.uleb128 0x13
 2807 00ee 00       		.byte	0
 2808 00ef 00       		.byte	0
 2809 00f0 15       		.uleb128 0x15
 2810 00f1 13       		.uleb128 0x13
 2811 00f2 01       		.byte	0x1
 2812 00f3 03       		.uleb128 0x3
 2813 00f4 0E       		.uleb128 0xe
 2814 00f5 0B       		.uleb128 0xb
 2815 00f6 05       		.uleb128 0x5
 2816 00f7 3A       		.uleb128 0x3a
 2817 00f8 0B       		.uleb128 0xb
 2818 00f9 3B       		.uleb128 0x3b
 2819 00fa 05       		.uleb128 0x5
 2820 00fb 01       		.uleb128 0x1
 2821 00fc 13       		.uleb128 0x13
 2822 00fd 00       		.byte	0
 2823 00fe 00       		.byte	0
 2824 00ff 16       		.uleb128 0x16
 2825 0100 0D       		.uleb128 0xd
 2826 0101 00       		.byte	0
 2827 0102 03       		.uleb128 0x3
 2828 0103 0E       		.uleb128 0xe
 2829 0104 3A       		.uleb128 0x3a
 2830 0105 0B       		.uleb128 0xb
 2831 0106 3B       		.uleb128 0x3b
 2832 0107 05       		.uleb128 0x5
 2833 0108 49       		.uleb128 0x49
 2834 0109 13       		.uleb128 0x13
 2835 010a 38       		.uleb128 0x38
 2836 010b 0B       		.uleb128 0xb
 2837 010c 00       		.byte	0
 2838 010d 00       		.byte	0
 2839 010e 17       		.uleb128 0x17
 2840 010f 0D       		.uleb128 0xd
 2841 0110 00       		.byte	0
 2842 0111 03       		.uleb128 0x3
 2843 0112 0E       		.uleb128 0xe
 2844 0113 3A       		.uleb128 0x3a
 2845 0114 0B       		.uleb128 0xb
 2846 0115 3B       		.uleb128 0x3b
 2847 0116 05       		.uleb128 0x5
 2848 0117 49       		.uleb128 0x49
 2849 0118 13       		.uleb128 0x13
 2850 0119 38       		.uleb128 0x38
ARM GAS  C:\Users\IDONNO~1\AppData\Local\Temp\cco0ioRR.s 			page 51


 2851 011a 05       		.uleb128 0x5
 2852 011b 00       		.byte	0
 2853 011c 00       		.byte	0
 2854 011d 18       		.uleb128 0x18
 2855 011e 26       		.uleb128 0x26
 2856 011f 00       		.byte	0
 2857 0120 49       		.uleb128 0x49
 2858 0121 13       		.uleb128 0x13
 2859 0122 00       		.byte	0
 2860 0123 00       		.byte	0
 2861 0124 19       		.uleb128 0x19
 2862 0125 13       		.uleb128 0x13
 2863 0126 01       		.byte	0x1
 2864 0127 03       		.uleb128 0x3
 2865 0128 0E       		.uleb128 0xe
 2866 0129 0B       		.uleb128 0xb
 2867 012a 0B       		.uleb128 0xb
 2868 012b 3A       		.uleb128 0x3a
 2869 012c 0B       		.uleb128 0xb
 2870 012d 3B       		.uleb128 0x3b
 2871 012e 05       		.uleb128 0x5
 2872 012f 01       		.uleb128 0x1
 2873 0130 13       		.uleb128 0x13
 2874 0131 00       		.byte	0
 2875 0132 00       		.byte	0
 2876 0133 1A       		.uleb128 0x1a
 2877 0134 13       		.uleb128 0x13
 2878 0135 01       		.byte	0x1
 2879 0136 0B       		.uleb128 0xb
 2880 0137 0B       		.uleb128 0xb
 2881 0138 3A       		.uleb128 0x3a
 2882 0139 0B       		.uleb128 0xb
 2883 013a 3B       		.uleb128 0x3b
 2884 013b 05       		.uleb128 0x5
 2885 013c 01       		.uleb128 0x1
 2886 013d 13       		.uleb128 0x13
 2887 013e 00       		.byte	0
 2888 013f 00       		.byte	0
 2889 0140 1B       		.uleb128 0x1b
 2890 0141 17       		.uleb128 0x17
 2891 0142 01       		.byte	0x1
 2892 0143 0B       		.uleb128 0xb
 2893 0144 0B       		.uleb128 0xb
 2894 0145 3A       		.uleb128 0x3a
 2895 0146 0B       		.uleb128 0xb
 2896 0147 3B       		.uleb128 0x3b
 2897 0148 05       		.uleb128 0x5
 2898 0149 01       		.uleb128 0x1
 2899 014a 13       		.uleb128 0x13
 2900 014b 00       		.byte	0
 2901 014c 00       		.byte	0
 2902 014d 1C       		.uleb128 0x1c
 2903 014e 0D       		.uleb128 0xd
 2904 014f 00       		.byte	0
 2905 0150 03       		.uleb128 0x3
 2906 0151 0E       		.uleb128 0xe
 2907 0152 3A       		.uleb128 0x3a
ARM GAS  C:\Users\IDONNO~1\AppData\Local\Temp\cco0ioRR.s 			page 52


 2908 0153 0B       		.uleb128 0xb
 2909 0154 3B       		.uleb128 0x3b
 2910 0155 05       		.uleb128 0x5
 2911 0156 49       		.uleb128 0x49
 2912 0157 13       		.uleb128 0x13
 2913 0158 00       		.byte	0
 2914 0159 00       		.byte	0
 2915 015a 1D       		.uleb128 0x1d
 2916 015b 13       		.uleb128 0x13
 2917 015c 00       		.byte	0
 2918 015d 03       		.uleb128 0x3
 2919 015e 0E       		.uleb128 0xe
 2920 015f 3C       		.uleb128 0x3c
 2921 0160 19       		.uleb128 0x19
 2922 0161 00       		.byte	0
 2923 0162 00       		.byte	0
 2924 0163 1E       		.uleb128 0x1e
 2925 0164 15       		.uleb128 0x15
 2926 0165 01       		.byte	0x1
 2927 0166 27       		.uleb128 0x27
 2928 0167 19       		.uleb128 0x19
 2929 0168 01       		.uleb128 0x1
 2930 0169 13       		.uleb128 0x13
 2931 016a 00       		.byte	0
 2932 016b 00       		.byte	0
 2933 016c 1F       		.uleb128 0x1f
 2934 016d 35       		.uleb128 0x35
 2935 016e 00       		.byte	0
 2936 016f 49       		.uleb128 0x49
 2937 0170 13       		.uleb128 0x13
 2938 0171 00       		.byte	0
 2939 0172 00       		.byte	0
 2940 0173 20       		.uleb128 0x20
 2941 0174 0D       		.uleb128 0xd
 2942 0175 00       		.byte	0
 2943 0176 03       		.uleb128 0x3
 2944 0177 08       		.uleb128 0x8
 2945 0178 3A       		.uleb128 0x3a
 2946 0179 0B       		.uleb128 0xb
 2947 017a 3B       		.uleb128 0x3b
 2948 017b 05       		.uleb128 0x5
 2949 017c 49       		.uleb128 0x49
 2950 017d 13       		.uleb128 0x13
 2951 017e 38       		.uleb128 0x38
 2952 017f 0B       		.uleb128 0xb
 2953 0180 00       		.byte	0
 2954 0181 00       		.byte	0
 2955 0182 21       		.uleb128 0x21
 2956 0183 2E       		.uleb128 0x2e
 2957 0184 01       		.byte	0x1
 2958 0185 3F       		.uleb128 0x3f
 2959 0186 19       		.uleb128 0x19
 2960 0187 03       		.uleb128 0x3
 2961 0188 0E       		.uleb128 0xe
 2962 0189 3A       		.uleb128 0x3a
 2963 018a 0B       		.uleb128 0xb
 2964 018b 3B       		.uleb128 0x3b
ARM GAS  C:\Users\IDONNO~1\AppData\Local\Temp\cco0ioRR.s 			page 53


 2965 018c 0B       		.uleb128 0xb
 2966 018d 27       		.uleb128 0x27
 2967 018e 19       		.uleb128 0x19
 2968 018f 49       		.uleb128 0x49
 2969 0190 13       		.uleb128 0x13
 2970 0191 11       		.uleb128 0x11
 2971 0192 01       		.uleb128 0x1
 2972 0193 12       		.uleb128 0x12
 2973 0194 06       		.uleb128 0x6
 2974 0195 40       		.uleb128 0x40
 2975 0196 18       		.uleb128 0x18
 2976 0197 9742     		.uleb128 0x2117
 2977 0199 19       		.uleb128 0x19
 2978 019a 01       		.uleb128 0x1
 2979 019b 13       		.uleb128 0x13
 2980 019c 00       		.byte	0
 2981 019d 00       		.byte	0
 2982 019e 22       		.uleb128 0x22
 2983 019f 05       		.uleb128 0x5
 2984 01a0 00       		.byte	0
 2985 01a1 03       		.uleb128 0x3
 2986 01a2 08       		.uleb128 0x8
 2987 01a3 3A       		.uleb128 0x3a
 2988 01a4 0B       		.uleb128 0xb
 2989 01a5 3B       		.uleb128 0x3b
 2990 01a6 0B       		.uleb128 0xb
 2991 01a7 49       		.uleb128 0x49
 2992 01a8 13       		.uleb128 0x13
 2993 01a9 02       		.uleb128 0x2
 2994 01aa 17       		.uleb128 0x17
 2995 01ab 00       		.byte	0
 2996 01ac 00       		.byte	0
 2997 01ad 23       		.uleb128 0x23
 2998 01ae 05       		.uleb128 0x5
 2999 01af 00       		.byte	0
 3000 01b0 03       		.uleb128 0x3
 3001 01b1 0E       		.uleb128 0xe
 3002 01b2 3A       		.uleb128 0x3a
 3003 01b3 0B       		.uleb128 0xb
 3004 01b4 3B       		.uleb128 0x3b
 3005 01b5 0B       		.uleb128 0xb
 3006 01b6 49       		.uleb128 0x49
 3007 01b7 13       		.uleb128 0x13
 3008 01b8 02       		.uleb128 0x2
 3009 01b9 18       		.uleb128 0x18
 3010 01ba 00       		.byte	0
 3011 01bb 00       		.byte	0
 3012 01bc 24       		.uleb128 0x24
 3013 01bd 05       		.uleb128 0x5
 3014 01be 00       		.byte	0
 3015 01bf 03       		.uleb128 0x3
 3016 01c0 08       		.uleb128 0x8
 3017 01c1 3A       		.uleb128 0x3a
 3018 01c2 0B       		.uleb128 0xb
 3019 01c3 3B       		.uleb128 0x3b
 3020 01c4 0B       		.uleb128 0xb
 3021 01c5 49       		.uleb128 0x49
ARM GAS  C:\Users\IDONNO~1\AppData\Local\Temp\cco0ioRR.s 			page 54


 3022 01c6 13       		.uleb128 0x13
 3023 01c7 02       		.uleb128 0x2
 3024 01c8 18       		.uleb128 0x18
 3025 01c9 00       		.byte	0
 3026 01ca 00       		.byte	0
 3027 01cb 25       		.uleb128 0x25
 3028 01cc 05       		.uleb128 0x5
 3029 01cd 00       		.byte	0
 3030 01ce 03       		.uleb128 0x3
 3031 01cf 0E       		.uleb128 0xe
 3032 01d0 3A       		.uleb128 0x3a
 3033 01d1 0B       		.uleb128 0xb
 3034 01d2 3B       		.uleb128 0x3b
 3035 01d3 0B       		.uleb128 0xb
 3036 01d4 49       		.uleb128 0x49
 3037 01d5 13       		.uleb128 0x13
 3038 01d6 02       		.uleb128 0x2
 3039 01d7 17       		.uleb128 0x17
 3040 01d8 00       		.byte	0
 3041 01d9 00       		.byte	0
 3042 01da 26       		.uleb128 0x26
 3043 01db 34       		.uleb128 0x34
 3044 01dc 00       		.byte	0
 3045 01dd 03       		.uleb128 0x3
 3046 01de 08       		.uleb128 0x8
 3047 01df 3A       		.uleb128 0x3a
 3048 01e0 0B       		.uleb128 0xb
 3049 01e1 3B       		.uleb128 0x3b
 3050 01e2 0B       		.uleb128 0xb
 3051 01e3 49       		.uleb128 0x49
 3052 01e4 13       		.uleb128 0x13
 3053 01e5 02       		.uleb128 0x2
 3054 01e6 17       		.uleb128 0x17
 3055 01e7 00       		.byte	0
 3056 01e8 00       		.byte	0
 3057 01e9 27       		.uleb128 0x27
 3058 01ea 34       		.uleb128 0x34
 3059 01eb 00       		.byte	0
 3060 01ec 03       		.uleb128 0x3
 3061 01ed 0E       		.uleb128 0xe
 3062 01ee 49       		.uleb128 0x49
 3063 01ef 13       		.uleb128 0x13
 3064 01f0 34       		.uleb128 0x34
 3065 01f1 19       		.uleb128 0x19
 3066 01f2 00       		.byte	0
 3067 01f3 00       		.byte	0
 3068 01f4 28       		.uleb128 0x28
 3069 01f5 898201   		.uleb128 0x4109
 3070 01f8 01       		.byte	0x1
 3071 01f9 11       		.uleb128 0x11
 3072 01fa 01       		.uleb128 0x1
 3073 01fb 31       		.uleb128 0x31
 3074 01fc 13       		.uleb128 0x13
 3075 01fd 00       		.byte	0
 3076 01fe 00       		.byte	0
 3077 01ff 29       		.uleb128 0x29
 3078 0200 8A8201   		.uleb128 0x410a
ARM GAS  C:\Users\IDONNO~1\AppData\Local\Temp\cco0ioRR.s 			page 55


 3079 0203 00       		.byte	0
 3080 0204 02       		.uleb128 0x2
 3081 0205 18       		.uleb128 0x18
 3082 0206 9142     		.uleb128 0x2111
 3083 0208 18       		.uleb128 0x18
 3084 0209 00       		.byte	0
 3085 020a 00       		.byte	0
 3086 020b 2A       		.uleb128 0x2a
 3087 020c 34       		.uleb128 0x34
 3088 020d 00       		.byte	0
 3089 020e 03       		.uleb128 0x3
 3090 020f 0E       		.uleb128 0xe
 3091 0210 3A       		.uleb128 0x3a
 3092 0211 0B       		.uleb128 0xb
 3093 0212 3B       		.uleb128 0x3b
 3094 0213 05       		.uleb128 0x5
 3095 0214 49       		.uleb128 0x49
 3096 0215 13       		.uleb128 0x13
 3097 0216 3F       		.uleb128 0x3f
 3098 0217 19       		.uleb128 0x19
 3099 0218 3C       		.uleb128 0x3c
 3100 0219 19       		.uleb128 0x19
 3101 021a 00       		.byte	0
 3102 021b 00       		.byte	0
 3103 021c 2B       		.uleb128 0x2b
 3104 021d 34       		.uleb128 0x34
 3105 021e 00       		.byte	0
 3106 021f 03       		.uleb128 0x3
 3107 0220 08       		.uleb128 0x8
 3108 0221 3A       		.uleb128 0x3a
 3109 0222 0B       		.uleb128 0xb
 3110 0223 3B       		.uleb128 0x3b
 3111 0224 05       		.uleb128 0x5
 3112 0225 49       		.uleb128 0x49
 3113 0226 13       		.uleb128 0x13
 3114 0227 3F       		.uleb128 0x3f
 3115 0228 19       		.uleb128 0x19
 3116 0229 3C       		.uleb128 0x3c
 3117 022a 19       		.uleb128 0x19
 3118 022b 00       		.byte	0
 3119 022c 00       		.byte	0
 3120 022d 2C       		.uleb128 0x2c
 3121 022e 2E       		.uleb128 0x2e
 3122 022f 00       		.byte	0
 3123 0230 3F       		.uleb128 0x3f
 3124 0231 19       		.uleb128 0x19
 3125 0232 3C       		.uleb128 0x3c
 3126 0233 19       		.uleb128 0x19
 3127 0234 6E       		.uleb128 0x6e
 3128 0235 0E       		.uleb128 0xe
 3129 0236 03       		.uleb128 0x3
 3130 0237 0E       		.uleb128 0xe
 3131 0238 3A       		.uleb128 0x3a
 3132 0239 0B       		.uleb128 0xb
 3133 023a 3B       		.uleb128 0x3b
 3134 023b 0B       		.uleb128 0xb
 3135 023c 00       		.byte	0
ARM GAS  C:\Users\IDONNO~1\AppData\Local\Temp\cco0ioRR.s 			page 56


 3136 023d 00       		.byte	0
 3137 023e 2D       		.uleb128 0x2d
 3138 023f 2E       		.uleb128 0x2e
 3139 0240 00       		.byte	0
 3140 0241 3F       		.uleb128 0x3f
 3141 0242 19       		.uleb128 0x19
 3142 0243 3C       		.uleb128 0x3c
 3143 0244 19       		.uleb128 0x19
 3144 0245 6E       		.uleb128 0x6e
 3145 0246 0E       		.uleb128 0xe
 3146 0247 03       		.uleb128 0x3
 3147 0248 0E       		.uleb128 0xe
 3148 0249 00       		.byte	0
 3149 024a 00       		.byte	0
 3150 024b 00       		.byte	0
 3151              		.section	.debug_loc,"",%progbits
 3152              	.Ldebug_loc0:
 3153              	.LLST0:
 3154 0000 00000000 		.4byte	.LVL0
 3155 0004 08000000 		.4byte	.LVL2
 3156 0008 0100     		.2byte	0x1
 3157 000a 50       		.byte	0x50
 3158 000b 08000000 		.4byte	.LVL2
 3159 000f 0A000000 		.4byte	.LFE219
 3160 0013 0400     		.2byte	0x4
 3161 0015 F3       		.byte	0xf3
 3162 0016 01       		.uleb128 0x1
 3163 0017 50       		.byte	0x50
 3164 0018 9F       		.byte	0x9f
 3165 0019 00000000 		.4byte	0
 3166 001d 00000000 		.4byte	0
 3167              	.LLST1:
 3168 0021 00000000 		.4byte	.LVL0
 3169 0025 02000000 		.4byte	.LVL1
 3170 0029 0100     		.2byte	0x1
 3171 002b 53       		.byte	0x53
 3172 002c 02000000 		.4byte	.LVL1
 3173 0030 0A000000 		.4byte	.LFE219
 3174 0034 0400     		.2byte	0x4
 3175 0036 F3       		.byte	0xf3
 3176 0037 01       		.uleb128 0x1
 3177 0038 53       		.byte	0x53
 3178 0039 9F       		.byte	0x9f
 3179 003a 00000000 		.4byte	0
 3180 003e 00000000 		.4byte	0
 3181              	.LLST2:
 3182 0042 00000000 		.4byte	.LVL3
 3183 0046 02000000 		.4byte	.LVL4
 3184 004a 0100     		.2byte	0x1
 3185 004c 50       		.byte	0x50
 3186 004d 02000000 		.4byte	.LVL4
 3187 0051 04000000 		.4byte	.LFE220
 3188 0055 0400     		.2byte	0x4
 3189 0057 F3       		.byte	0xf3
 3190 0058 01       		.uleb128 0x1
 3191 0059 50       		.byte	0x50
 3192 005a 9F       		.byte	0x9f
ARM GAS  C:\Users\IDONNO~1\AppData\Local\Temp\cco0ioRR.s 			page 57


 3193 005b 00000000 		.4byte	0
 3194 005f 00000000 		.4byte	0
 3195              	.LLST3:
 3196 0063 00000000 		.4byte	.LVL5
 3197 0067 02000000 		.4byte	.LVL6
 3198 006b 0100     		.2byte	0x1
 3199 006d 50       		.byte	0x50
 3200 006e 02000000 		.4byte	.LVL6
 3201 0072 04000000 		.4byte	.LFE221
 3202 0076 0400     		.2byte	0x4
 3203 0078 F3       		.byte	0xf3
 3204 0079 01       		.uleb128 0x1
 3205 007a 50       		.byte	0x50
 3206 007b 9F       		.byte	0x9f
 3207 007c 00000000 		.4byte	0
 3208 0080 00000000 		.4byte	0
 3209              	.LLST4:
 3210 0084 00000000 		.4byte	.LVL7
 3211 0088 02000000 		.4byte	.LVL8
 3212 008c 0100     		.2byte	0x1
 3213 008e 50       		.byte	0x50
 3214 008f 02000000 		.4byte	.LVL8
 3215 0093 04000000 		.4byte	.LFE222
 3216 0097 0400     		.2byte	0x4
 3217 0099 F3       		.byte	0xf3
 3218 009a 01       		.uleb128 0x1
 3219 009b 50       		.byte	0x50
 3220 009c 9F       		.byte	0x9f
 3221 009d 00000000 		.4byte	0
 3222 00a1 00000000 		.4byte	0
 3223              	.LLST5:
 3224 00a5 00000000 		.4byte	.LVL9
 3225 00a9 06000000 		.4byte	.LVL10
 3226 00ad 0100     		.2byte	0x1
 3227 00af 50       		.byte	0x50
 3228 00b0 06000000 		.4byte	.LVL10
 3229 00b4 18000000 		.4byte	.LFE223
 3230 00b8 0100     		.2byte	0x1
 3231 00ba 54       		.byte	0x54
 3232 00bb 00000000 		.4byte	0
 3233 00bf 00000000 		.4byte	0
 3234              	.LLST6:
 3235 00c3 00000000 		.4byte	.LVL9
 3236 00c7 09000000 		.4byte	.LVL11-1
 3237 00cb 0100     		.2byte	0x1
 3238 00cd 51       		.byte	0x51
 3239 00ce 09000000 		.4byte	.LVL11-1
 3240 00d2 18000000 		.4byte	.LFE223
 3241 00d6 0400     		.2byte	0x4
 3242 00d8 F3       		.byte	0xf3
 3243 00d9 01       		.uleb128 0x1
 3244 00da 51       		.byte	0x51
 3245 00db 9F       		.byte	0x9f
 3246 00dc 00000000 		.4byte	0
 3247 00e0 00000000 		.4byte	0
 3248              	.LLST7:
 3249 00e4 0A000000 		.4byte	.LVL11
ARM GAS  C:\Users\IDONNO~1\AppData\Local\Temp\cco0ioRR.s 			page 58


 3250 00e8 16000000 		.4byte	.LVL13
 3251 00ec 0100     		.2byte	0x1
 3252 00ee 50       		.byte	0x50
 3253 00ef 00000000 		.4byte	0
 3254 00f3 00000000 		.4byte	0
 3255              	.LLST8:
 3256 00f7 00000000 		.4byte	.LVL14
 3257 00fb 04000000 		.4byte	.LVL15
 3258 00ff 0100     		.2byte	0x1
 3259 0101 50       		.byte	0x50
 3260 0102 04000000 		.4byte	.LVL15
 3261 0106 18000000 		.4byte	.LFE224
 3262 010a 0400     		.2byte	0x4
 3263 010c F3       		.byte	0xf3
 3264 010d 01       		.uleb128 0x1
 3265 010e 50       		.byte	0x50
 3266 010f 9F       		.byte	0x9f
 3267 0110 00000000 		.4byte	0
 3268 0114 00000000 		.4byte	0
 3269              	.LLST9:
 3270 0118 00000000 		.4byte	.LVL14
 3271 011c 08000000 		.4byte	.LVL16
 3272 0120 0100     		.2byte	0x1
 3273 0122 51       		.byte	0x51
 3274 0123 08000000 		.4byte	.LVL16
 3275 0127 18000000 		.4byte	.LFE224
 3276 012b 0400     		.2byte	0x4
 3277 012d F3       		.byte	0xf3
 3278 012e 01       		.uleb128 0x1
 3279 012f 51       		.byte	0x51
 3280 0130 9F       		.byte	0x9f
 3281 0131 00000000 		.4byte	0
 3282 0135 00000000 		.4byte	0
 3283              	.LLST10:
 3284 0139 00000000 		.4byte	.LVL14
 3285 013d 0A000000 		.4byte	.LVL17
 3286 0141 0100     		.2byte	0x1
 3287 0143 52       		.byte	0x52
 3288 0144 0A000000 		.4byte	.LVL17
 3289 0148 0D000000 		.4byte	.LVL18-1
 3290 014c 0100     		.2byte	0x1
 3291 014e 50       		.byte	0x50
 3292 014f 0D000000 		.4byte	.LVL18-1
 3293 0153 18000000 		.4byte	.LFE224
 3294 0157 0100     		.2byte	0x1
 3295 0159 54       		.byte	0x54
 3296 015a 00000000 		.4byte	0
 3297 015e 00000000 		.4byte	0
 3298              	.LLST11:
 3299 0162 00000000 		.4byte	.LVL19
 3300 0166 02000000 		.4byte	.LVL20
 3301 016a 0100     		.2byte	0x1
 3302 016c 50       		.byte	0x50
 3303 016d 02000000 		.4byte	.LVL20
 3304 0171 04000000 		.4byte	.LFE225
 3305 0175 0400     		.2byte	0x4
 3306 0177 F3       		.byte	0xf3
ARM GAS  C:\Users\IDONNO~1\AppData\Local\Temp\cco0ioRR.s 			page 59


 3307 0178 01       		.uleb128 0x1
 3308 0179 50       		.byte	0x50
 3309 017a 9F       		.byte	0x9f
 3310 017b 00000000 		.4byte	0
 3311 017f 00000000 		.4byte	0
 3312              		.section	.debug_aranges,"",%progbits
 3313 0000 4C000000 		.4byte	0x4c
 3314 0004 0200     		.2byte	0x2
 3315 0006 00000000 		.4byte	.Ldebug_info0
 3316 000a 04       		.byte	0x4
 3317 000b 00       		.byte	0
 3318 000c 0000     		.2byte	0
 3319 000e 0000     		.2byte	0
 3320 0010 00000000 		.4byte	.LFB219
 3321 0014 0A000000 		.4byte	.LFE219-.LFB219
 3322 0018 00000000 		.4byte	.LFB220
 3323 001c 04000000 		.4byte	.LFE220-.LFB220
 3324 0020 00000000 		.4byte	.LFB221
 3325 0024 04000000 		.4byte	.LFE221-.LFB221
 3326 0028 00000000 		.4byte	.LFB222
 3327 002c 04000000 		.4byte	.LFE222-.LFB222
 3328 0030 00000000 		.4byte	.LFB223
 3329 0034 18000000 		.4byte	.LFE223-.LFB223
 3330 0038 00000000 		.4byte	.LFB224
 3331 003c 18000000 		.4byte	.LFE224-.LFB224
 3332 0040 00000000 		.4byte	.LFB225
 3333 0044 04000000 		.4byte	.LFE225-.LFB225
 3334 0048 00000000 		.4byte	0
 3335 004c 00000000 		.4byte	0
 3336              		.section	.debug_ranges,"",%progbits
 3337              	.Ldebug_ranges0:
 3338 0000 00000000 		.4byte	.LFB219
 3339 0004 0A000000 		.4byte	.LFE219
 3340 0008 00000000 		.4byte	.LFB220
 3341 000c 04000000 		.4byte	.LFE220
 3342 0010 00000000 		.4byte	.LFB221
 3343 0014 04000000 		.4byte	.LFE221
 3344 0018 00000000 		.4byte	.LFB222
 3345 001c 04000000 		.4byte	.LFE222
 3346 0020 00000000 		.4byte	.LFB223
 3347 0024 18000000 		.4byte	.LFE223
 3348 0028 00000000 		.4byte	.LFB224
 3349 002c 18000000 		.4byte	.LFE224
 3350 0030 00000000 		.4byte	.LFB225
 3351 0034 04000000 		.4byte	.LFE225
 3352 0038 00000000 		.4byte	0
 3353 003c 00000000 		.4byte	0
 3354              		.section	.debug_line,"",%progbits
 3355              	.Ldebug_line0:
 3356 0000 67030000 		.section	.debug_str,"MS",%progbits,1
 3356      0200D702 
 3356      00000201 
 3356      FB0E0D00 
 3356      01010101 
 3357              	.LASF2:
 3358 0000 73697A65 		.ascii	"size_t\000"
 3358      5F7400
ARM GAS  C:\Users\IDONNO~1\AppData\Local\Temp\cco0ioRR.s 			page 60


 3359              	.LASF28:
 3360 0007 73697A65 		.ascii	"sizetype\000"
 3360      74797065 
 3360      00
 3361              	.LASF262:
 3362 0010 5F5F6C6F 		.ascii	"__locale_t\000"
 3362      63616C65 
 3362      5F7400
 3363              	.LASF30:
 3364 001b 5F5F7661 		.ascii	"__value\000"
 3364      6C756500 
 3365              	.LASF173:
 3366 0023 73797374 		.ascii	"systime_t\000"
 3366      696D655F 
 3366      7400
 3367              	.LASF100:
 3368 002d 5F5F7366 		.ascii	"__sf\000"
 3368      00
 3369              	.LASF179:
 3370 0032 705F6374 		.ascii	"p_ctx\000"
 3370      7800
 3371              	.LASF67:
 3372 0038 5F726561 		.ascii	"_read\000"
 3372      6400
 3373              	.LASF169:
 3374 003e 74707269 		.ascii	"tprio_t\000"
 3374      6F5F7400 
 3375              	.LASF162:
 3376 0046 73745F62 		.ascii	"st_blocks\000"
 3376      6C6F636B 
 3376      7300
 3377              	.LASF89:
 3378 0050 5F5F636C 		.ascii	"__cleanup\000"
 3378      65616E75 
 3378      7000
 3379              	.LASF189:
 3380 005a 705F6D73 		.ascii	"p_msgqueue\000"
 3380      67717565 
 3380      756500
 3381              	.LASF68:
 3382 0065 5F777269 		.ascii	"_write\000"
 3382      746500
 3383              	.LASF204:
 3384 006c 725F6374 		.ascii	"r_ctx\000"
 3384      7800
 3385              	.LASF132:
 3386 0072 696E7433 		.ascii	"int32_t\000"
 3386      325F7400 
 3387              	.LASF111:
 3388 007a 5F617363 		.ascii	"_asctime_buf\000"
 3388      74696D65 
 3388      5F627566 
 3388      00
 3389              	.LASF94:
 3390 0087 5F637674 		.ascii	"_cvtlen\000"
 3390      6C656E00 
 3391              	.LASF208:
ARM GAS  C:\Users\IDONNO~1\AppData\Local\Temp\cco0ioRR.s 			page 61


 3392 008f 76746675 		.ascii	"vtfunc_t\000"
 3392      6E635F74 
 3392      00
 3393              	.LASF263:
 3394 0098 5F5F6675 		.ascii	"__func__\000"
 3394      6E635F5F 
 3394      00
 3395              	.LASF217:
 3396 00a1 63685F76 		.ascii	"ch_virtual_timers_list\000"
 3396      69727475 
 3396      616C5F74 
 3396      696D6572 
 3396      735F6C69 
 3397              	.LASF141:
 3398 00b8 6465765F 		.ascii	"dev_t\000"
 3398      7400
 3399              	.LASF145:
 3400 00be 6E6C696E 		.ascii	"nlink_t\000"
 3400      6B5F7400 
 3401              	.LASF20:
 3402 00c6 5F5F6769 		.ascii	"__gid_t\000"
 3402      645F7400 
 3403              	.LASF130:
 3404 00ce 5F756E75 		.ascii	"_unused\000"
 3404      73656400 
 3405              	.LASF41:
 3406 00d6 5F5F746D 		.ascii	"__tm\000"
 3406      00
 3407              	.LASF126:
 3408 00db 5F776373 		.ascii	"_wcsrtombs_state\000"
 3408      72746F6D 
 3408      62735F73 
 3408      74617465 
 3408      00
 3409              	.LASF72:
 3410 00ec 5F6E6275 		.ascii	"_nbuf\000"
 3410      6600
 3411              	.LASF42:
 3412 00f2 5F5F746D 		.ascii	"__tm_sec\000"
 3412      5F736563 
 3412      00
 3413              	.LASF119:
 3414 00fb 5F6C3634 		.ascii	"_l64a_buf\000"
 3414      615F6275 
 3414      6600
 3415              	.LASF135:
 3416 0105 74696D65 		.ascii	"time_t\000"
 3416      5F7400
 3417              	.LASF76:
 3418 010c 5F6C6F63 		.ascii	"_lock\000"
 3418      6B00
 3419              	.LASF107:
 3420 0112 5F6D756C 		.ascii	"_mult\000"
 3420      7400
 3421              	.LASF246:
 3422 0118 6D5F6F77 		.ascii	"m_owner\000"
 3422      6E657200 
ARM GAS  C:\Users\IDONNO~1\AppData\Local\Temp\cco0ioRR.s 			page 62


 3423              	.LASF215:
 3424 0120 76745F70 		.ascii	"vt_par\000"
 3424      617200
 3425              	.LASF184:
 3426 0127 705F666C 		.ascii	"p_flags\000"
 3426      61677300 
 3427              	.LASF26:
 3428 012f 5F5F7763 		.ascii	"__wch\000"
 3428      6800
 3429              	.LASF235:
 3430 0135 65786974 		.ascii	"exitcode\000"
 3430      636F6465 
 3430      00
 3431              	.LASF3:
 3432 013e 5F5F7569 		.ascii	"__uint8_t\000"
 3432      6E74385F 
 3432      7400
 3433              	.LASF18:
 3434 0148 5F5F6465 		.ascii	"__dev_t\000"
 3434      765F7400 
 3435              	.LASF240:
 3436 0150 65776D61 		.ascii	"ewmask\000"
 3436      736B00
 3437              	.LASF142:
 3438 0157 7569645F 		.ascii	"uid_t\000"
 3438      7400
 3439              	.LASF64:
 3440 015d 5F66696C 		.ascii	"_file\000"
 3440      6500
 3441              	.LASF51:
 3442 0163 5F6F6E5F 		.ascii	"_on_exit_args\000"
 3442      65786974 
 3442      5F617267 
 3442      7300
 3443              	.LASF180:
 3444 0171 705F6E65 		.ascii	"p_newer\000"
 3444      77657200 
 3445              	.LASF122:
 3446 0179 5F6D6272 		.ascii	"_mbrlen_state\000"
 3446      6C656E5F 
 3446      73746174 
 3446      6500
 3447              	.LASF8:
 3448 0187 6C6F6E67 		.ascii	"long int\000"
 3448      20696E74 
 3448      00
 3449              	.LASF176:
 3450 0190 705F6E65 		.ascii	"p_next\000"
 3450      787400
 3451              	.LASF91:
 3452 0197 5F726573 		.ascii	"_result_k\000"
 3452      756C745F 
 3452      6B00
 3453              	.LASF61:
 3454 01a1 5F73697A 		.ascii	"_size\000"
 3454      6500
 3455              	.LASF177:
ARM GAS  C:\Users\IDONNO~1\AppData\Local\Temp\cco0ioRR.s 			page 63


 3456 01a7 705F7072 		.ascii	"p_prev\000"
 3456      657600
 3457              	.LASF112:
 3458 01ae 5F6C6F63 		.ascii	"_localtime_buf\000"
 3458      616C7469 
 3458      6D655F62 
 3458      756600
 3459              	.LASF166:
 3460 01bd 74737461 		.ascii	"tstate_t\000"
 3460      74655F74 
 3460      00
 3461              	.LASF198:
 3462 01c6 74687265 		.ascii	"threads_queue_t\000"
 3462      6164735F 
 3462      71756575 
 3462      655F7400 
 3463              	.LASF192:
 3464 01d6 705F6D74 		.ascii	"p_mtxlist\000"
 3464      786C6973 
 3464      7400
 3465              	.LASF196:
 3466 01e0 74687265 		.ascii	"threads_list_t\000"
 3466      6164735F 
 3466      6C697374 
 3466      5F7400
 3467              	.LASF228:
 3468 01ef 72656761 		.ascii	"regarm_t\000"
 3468      726D5F74 
 3468      00
 3469              	.LASF260:
 3470 01f8 7372632F 		.ascii	"src/ChibiOS_3.0.2/os/various/syscalls.c\000"
 3470      43686962 
 3470      694F535F 
 3470      332E302E 
 3470      322F6F73 
 3471              	.LASF109:
 3472 0220 5F756E75 		.ascii	"_unused_rand\000"
 3472      7365645F 
 3472      72616E64 
 3472      00
 3473              	.LASF1:
 3474 022d 7369676E 		.ascii	"signed char\000"
 3474      65642063 
 3474      68617200 
 3475              	.LASF186:
 3476 0239 705F7072 		.ascii	"p_preempt\000"
 3476      65656D70 
 3476      7400
 3477              	.LASF16:
 3478 0243 5F5F626C 		.ascii	"__blksize_t\000"
 3478      6B73697A 
 3478      655F7400 
 3479              	.LASF131:
 3480 024f 75696E74 		.ascii	"uint8_t\000"
 3480      385F7400 
 3481              	.LASF156:
 3482 0257 73745F73 		.ascii	"st_spare1\000"
ARM GAS  C:\Users\IDONNO~1\AppData\Local\Temp\cco0ioRR.s 			page 64


 3482      70617265 
 3482      3100
 3483              	.LASF151:
 3484 0261 73745F75 		.ascii	"st_uid\000"
 3484      696400
 3485              	.LASF160:
 3486 0268 73745F73 		.ascii	"st_spare3\000"
 3486      70617265 
 3486      3300
 3487              	.LASF163:
 3488 0272 73745F73 		.ascii	"st_spare4\000"
 3488      70617265 
 3488      3400
 3489              	.LASF171:
 3490 027c 6576656E 		.ascii	"eventmask_t\000"
 3490      746D6173 
 3490      6B5F7400 
 3491              	.LASF230:
 3492 0288 636F6E74 		.ascii	"context\000"
 3492      65787400 
 3493              	.LASF237:
 3494 0290 77747472 		.ascii	"wttrp\000"
 3494      7000
 3495              	.LASF4:
 3496 0296 756E7369 		.ascii	"unsigned char\000"
 3496      676E6564 
 3496      20636861 
 3496      7200
 3497              	.LASF153:
 3498 02a4 73745F72 		.ascii	"st_rdev\000"
 3498      64657600 
 3499              	.LASF221:
 3500 02ac 70616E69 		.ascii	"panic_msg\000"
 3500      635F6D73 
 3500      6700
 3501              	.LASF254:
 3502 02b6 5F736272 		.ascii	"_sbrk_r\000"
 3502      6B5F7200 
 3503              	.LASF86:
 3504 02be 5F756E73 		.ascii	"_unspecified_locale_info\000"
 3504      70656369 
 3504      66696564 
 3504      5F6C6F63 
 3504      616C655F 
 3505              	.LASF79:
 3506 02d7 5F726565 		.ascii	"_reent\000"
 3506      6E7400
 3507              	.LASF205:
 3508 02de 725F6E65 		.ascii	"r_newer\000"
 3508      77657200 
 3509              	.LASF219:
 3510 02e6 73797374 		.ascii	"system_debug_t\000"
 3510      656D5F64 
 3510      65627567 
 3510      5F7400
 3511              	.LASF34:
 3512 02f5 63686172 		.ascii	"char\000"
ARM GAS  C:\Users\IDONNO~1\AppData\Local\Temp\cco0ioRR.s 			page 65


 3512      00
 3513              	.LASF265:
 3514 02fa 6D656D73 		.ascii	"memset\000"
 3514      657400
 3515              	.LASF58:
 3516 0301 5F666E73 		.ascii	"_fns\000"
 3516      00
 3517              	.LASF70:
 3518 0306 5F636C6F 		.ascii	"_close\000"
 3518      736500
 3519              	.LASF178:
 3520 030d 705F7072 		.ascii	"p_prio\000"
 3520      696F00
 3521              	.LASF236:
 3522 0314 77746F62 		.ascii	"wtobjp\000"
 3522      6A7000
 3523              	.LASF81:
 3524 031b 5F737464 		.ascii	"_stdin\000"
 3524      696E00
 3525              	.LASF22:
 3526 0322 5F5F6D6F 		.ascii	"__mode_t\000"
 3526      64655F74 
 3526      00
 3527              	.LASF257:
 3528 032b 5F697361 		.ascii	"_isatty_r\000"
 3528      7474795F 
 3528      7200
 3529              	.LASF229:
 3530 0335 73746B61 		.ascii	"stkalign_t\000"
 3530      6C69676E 
 3530      5F7400
 3531              	.LASF167:
 3532 0340 74726566 		.ascii	"trefs_t\000"
 3532      735F7400 
 3533              	.LASF159:
 3534 0348 73745F63 		.ascii	"st_ctime\000"
 3534      74696D65 
 3534      00
 3535              	.LASF249:
 3536 0351 66696C65 		.ascii	"file\000"
 3536      00
 3537              	.LASF172:
 3538 0356 636E745F 		.ascii	"cnt_t\000"
 3538      7400
 3539              	.LASF214:
 3540 035c 76745F66 		.ascii	"vt_func\000"
 3540      756E6300 
 3541              	.LASF66:
 3542 0364 5F636F6F 		.ascii	"_cookie\000"
 3542      6B696500 
 3543              	.LASF264:
 3544 036c 6368436F 		.ascii	"chCoreAlloc\000"
 3544      7265416C 
 3544      6C6F6300 
 3545              	.LASF191:
 3546 0378 705F6570 		.ascii	"p_epending\000"
 3546      656E6469 
ARM GAS  C:\Users\IDONNO~1\AppData\Local\Temp\cco0ioRR.s 			page 66


 3546      6E6700
 3547              	.LASF239:
 3548 0383 77746D74 		.ascii	"wtmtxp\000"
 3548      787000
 3549              	.LASF39:
 3550 038a 5F776473 		.ascii	"_wds\000"
 3550      00
 3551              	.LASF201:
 3552 038f 63685F72 		.ascii	"ch_ready_list\000"
 3552      65616479 
 3552      5F6C6973 
 3552      7400
 3553              	.LASF98:
 3554 039d 5F736967 		.ascii	"_sig_func\000"
 3554      5F66756E 
 3554      6300
 3555              	.LASF74:
 3556 03a7 5F6F6666 		.ascii	"_offset\000"
 3556      73657400 
 3557              	.LASF95:
 3558 03af 5F637674 		.ascii	"_cvtbuf\000"
 3558      62756600 
 3559              	.LASF152:
 3560 03b7 73745F67 		.ascii	"st_gid\000"
 3560      696400
 3561              	.LASF12:
 3562 03be 5F5F7569 		.ascii	"__uint64_t\000"
 3562      6E743634 
 3562      5F7400
 3563              	.LASF139:
 3564 03c9 696E6F5F 		.ascii	"ino_t\000"
 3564      7400
 3565              	.LASF92:
 3566 03cf 5F703573 		.ascii	"_p5s\000"
 3566      00
 3567              	.LASF10:
 3568 03d4 6C6F6E67 		.ascii	"long unsigned int\000"
 3568      20756E73 
 3568      69676E65 
 3568      6420696E 
 3568      7400
 3569              	.LASF62:
 3570 03e6 5F5F7346 		.ascii	"__sFILE\000"
 3570      494C4500 
 3571              	.LASF88:
 3572 03ee 5F5F7364 		.ascii	"__sdidinit\000"
 3572      6964696E 
 3572      697400
 3573              	.LASF78:
 3574 03f9 5F666C61 		.ascii	"_flags2\000"
 3574      67733200 
 3575              	.LASF154:
 3576 0401 73745F73 		.ascii	"st_size\000"
 3576      697A6500 
 3577              	.LASF241:
 3578 0409 63685F73 		.ascii	"ch_semaphore\000"
 3578      656D6170 
ARM GAS  C:\Users\IDONNO~1\AppData\Local\Temp\cco0ioRR.s 			page 67


 3578      686F7265 
 3578      00
 3579              	.LASF175:
 3580 0416 63685F74 		.ascii	"ch_thread\000"
 3580      68726561 
 3580      6400
 3581              	.LASF216:
 3582 0420 76697274 		.ascii	"virtual_timers_list_t\000"
 3582      75616C5F 
 3582      74696D65 
 3582      72735F6C 
 3582      6973745F 
 3583              	.LASF14:
 3584 0436 5F4C4F43 		.ascii	"_LOCK_RECURSIVE_T\000"
 3584      4B5F5245 
 3584      43555253 
 3584      4956455F 
 3584      5400
 3585              	.LASF80:
 3586 0448 5F657272 		.ascii	"_errno\000"
 3586      6E6F00
 3587              	.LASF209:
 3588 044f 76697274 		.ascii	"virtual_timer_t\000"
 3588      75616C5F 
 3588      74696D65 
 3588      725F7400 
 3589              	.LASF200:
 3590 045f 72656164 		.ascii	"ready_list_t\000"
 3590      795F6C69 
 3590      73745F74 
 3590      00
 3591              	.LASF158:
 3592 046c 73745F73 		.ascii	"st_spare2\000"
 3592      70617265 
 3592      3200
 3593              	.LASF120:
 3594 0476 5F736967 		.ascii	"_signal_buf\000"
 3594      6E616C5F 
 3594      62756600 
 3595              	.LASF253:
 3596 0482 5F636C6F 		.ascii	"_close_r\000"
 3596      73655F72 
 3596      00
 3597              	.LASF40:
 3598 048b 5F426967 		.ascii	"_Bigint\000"
 3598      696E7400 
 3599              	.LASF197:
 3600 0493 63685F74 		.ascii	"ch_threads_list\000"
 3600      68726561 
 3600      64735F6C 
 3600      69737400 
 3601              	.LASF37:
 3602 04a3 5F6D6178 		.ascii	"_maxwds\000"
 3602      77647300 
 3603              	.LASF15:
 3604 04ab 5F5F626C 		.ascii	"__blkcnt_t\000"
 3604      6B636E74 
ARM GAS  C:\Users\IDONNO~1\AppData\Local\Temp\cco0ioRR.s 			page 68


 3604      5F7400
 3605              	.LASF97:
 3606 04b6 5F617465 		.ascii	"_atexit0\000"
 3606      78697430 
 3606      00
 3607              	.LASF146:
 3608 04bf 73746174 		.ascii	"stat\000"
 3608      00
 3609              	.LASF161:
 3610 04c4 73745F62 		.ascii	"st_blksize\000"
 3610      6C6B7369 
 3610      7A6500
 3611              	.LASF21:
 3612 04cf 5F5F696E 		.ascii	"__ino_t\000"
 3612      6F5F7400 
 3613              	.LASF9:
 3614 04d7 5F5F7569 		.ascii	"__uint32_t\000"
 3614      6E743332 
 3614      5F7400
 3615              	.LASF85:
 3616 04e2 5F656D65 		.ascii	"_emergency\000"
 3616      7267656E 
 3616      637900
 3617              	.LASF11:
 3618 04ed 6C6F6E67 		.ascii	"long long int\000"
 3618      206C6F6E 
 3618      6720696E 
 3618      7400
 3619              	.LASF245:
 3620 04fb 6D5F7175 		.ascii	"m_queue\000"
 3620      65756500 
 3621              	.LASF103:
 3622 0503 5F6E696F 		.ascii	"_niobs\000"
 3622      627300
 3623              	.LASF211:
 3624 050a 76745F6E 		.ascii	"vt_next\000"
 3624      65787400 
 3625              	.LASF99:
 3626 0512 5F5F7367 		.ascii	"__sglue\000"
 3626      6C756500 
 3627              	.LASF129:
 3628 051a 5F6E6D61 		.ascii	"_nmalloc\000"
 3628      6C6C6F63 
 3628      00
 3629              	.LASF212:
 3630 0523 76745F70 		.ascii	"vt_prev\000"
 3630      72657600 
 3631              	.LASF113:
 3632 052b 5F67616D 		.ascii	"_gamma_signgam\000"
 3632      6D615F73 
 3632      69676E67 
 3632      616D00
 3633              	.LASF93:
 3634 053a 5F667265 		.ascii	"_freelist\000"
 3634      656C6973 
 3634      7400
 3635              	.LASF104:
ARM GAS  C:\Users\IDONNO~1\AppData\Local\Temp\cco0ioRR.s 			page 69


 3636 0544 5F696F62 		.ascii	"_iobs\000"
 3636      7300
 3637              	.LASF102:
 3638 054a 5F676C75 		.ascii	"_glue\000"
 3638      6500
 3639              	.LASF258:
 3640 0550 49544D5F 		.ascii	"ITM_RxBuffer\000"
 3640      52784275 
 3640      66666572 
 3640      00
 3641              	.LASF38:
 3642 055d 5F736967 		.ascii	"_sign\000"
 3642      6E00
 3643              	.LASF188:
 3644 0563 705F7761 		.ascii	"p_waiting\000"
 3644      6974696E 
 3644      6700
 3645              	.LASF227:
 3646 056d 69646C65 		.ascii	"idle_thread_wa\000"
 3646      5F746872 
 3646      6561645F 
 3646      776100
 3647              	.LASF0:
 3648 057c 756E7369 		.ascii	"unsigned int\000"
 3648      676E6564 
 3648      20696E74 
 3648      00
 3649              	.LASF252:
 3650 0589 5F777269 		.ascii	"_write_r\000"
 3650      74655F72 
 3650      00
 3651              	.LASF136:
 3652 0592 626C6B63 		.ascii	"blkcnt_t\000"
 3652      6E745F74 
 3652      00
 3653              	.LASF138:
 3654 059b 63616464 		.ascii	"caddr_t\000"
 3654      725F7400 
 3655              	.LASF164:
 3656 05a3 7274636E 		.ascii	"rtcnt_t\000"
 3656      745F7400 
 3657              	.LASF194:
 3658 05ab 705F6D70 		.ascii	"p_mpool\000"
 3658      6F6F6C00 
 3659              	.LASF127:
 3660 05b3 5F685F65 		.ascii	"_h_errno\000"
 3660      72726E6F 
 3660      00
 3661              	.LASF255:
 3662 05bc 696E6372 		.ascii	"incr\000"
 3662      00
 3663              	.LASF185:
 3664 05c1 705F7265 		.ascii	"p_refs\000"
 3664      667300
 3665              	.LASF125:
 3666 05c8 5F776372 		.ascii	"_wcrtomb_state\000"
 3666      746F6D62 
ARM GAS  C:\Users\IDONNO~1\AppData\Local\Temp\cco0ioRR.s 			page 70


 3666      5F737461 
 3666      746500
 3667              	.LASF45:
 3668 05d7 5F5F746D 		.ascii	"__tm_mday\000"
 3668      5F6D6461 
 3668      7900
 3669              	.LASF96:
 3670 05e1 5F6E6577 		.ascii	"_new\000"
 3670      00
 3671              	.LASF71:
 3672 05e6 5F756275 		.ascii	"_ubuf\000"
 3672      6600
 3673              	.LASF83:
 3674 05ec 5F737464 		.ascii	"_stderr\000"
 3674      65727200 
 3675              	.LASF118:
 3676 05f4 5F776374 		.ascii	"_wctomb_state\000"
 3676      6F6D625F 
 3676      73746174 
 3676      6500
 3677              	.LASF77:
 3678 0602 5F6D6273 		.ascii	"_mbstate\000"
 3678      74617465 
 3678      00
 3679              	.LASF114:
 3680 060b 5F72616E 		.ascii	"_rand_next\000"
 3680      645F6E65 
 3680      787400
 3681              	.LASF63:
 3682 0616 5F666C61 		.ascii	"_flags\000"
 3682      677300
 3683              	.LASF232:
 3684 061d 6F666673 		.ascii	"offset\000"
 3684      657400
 3685              	.LASF195:
 3686 0624 74687265 		.ascii	"thread_reference_t\000"
 3686      61645F72 
 3686      65666572 
 3686      656E6365 
 3686      5F7400
 3687              	.LASF56:
 3688 0637 5F617465 		.ascii	"_atexit\000"
 3688      78697400 
 3689              	.LASF187:
 3690 063f 705F7469 		.ascii	"p_time\000"
 3690      6D6500
 3691              	.LASF29:
 3692 0646 5F5F636F 		.ascii	"__count\000"
 3692      756E7400 
 3693              	.LASF150:
 3694 064e 73745F6E 		.ascii	"st_nlink\000"
 3694      6C696E6B 
 3694      00
 3695              	.LASF140:
 3696 0657 6F66665F 		.ascii	"off_t\000"
 3696      7400
 3697              	.LASF144:
ARM GAS  C:\Users\IDONNO~1\AppData\Local\Temp\cco0ioRR.s 			page 71


 3698 065d 6D6F6465 		.ascii	"mode_t\000"
 3698      5F7400
 3699              	.LASF48:
 3700 0664 5F5F746D 		.ascii	"__tm_wday\000"
 3700      5F776461 
 3700      7900
 3701              	.LASF174:
 3702 066e 74687265 		.ascii	"thread_t\000"
 3702      61645F74 
 3702      00
 3703              	.LASF155:
 3704 0677 73745F61 		.ascii	"st_atime\000"
 3704      74696D65 
 3704      00
 3705              	.LASF49:
 3706 0680 5F5F746D 		.ascii	"__tm_yday\000"
 3706      5F796461 
 3706      7900
 3707              	.LASF193:
 3708 068a 705F7265 		.ascii	"p_realprio\000"
 3708      616C7072 
 3708      696F00
 3709              	.LASF231:
 3710 0695 706F7274 		.ascii	"port_intctx\000"
 3710      5F696E74 
 3710      63747800 
 3711              	.LASF46:
 3712 06a1 5F5F746D 		.ascii	"__tm_mon\000"
 3712      5F6D6F6E 
 3712      00
 3713              	.LASF106:
 3714 06aa 5F736565 		.ascii	"_seed\000"
 3714      6400
 3715              	.LASF69:
 3716 06b0 5F736565 		.ascii	"_seek\000"
 3716      6B00
 3717              	.LASF147:
 3718 06b6 73745F64 		.ascii	"st_dev\000"
 3718      657600
 3719              	.LASF213:
 3720 06bd 76745F64 		.ascii	"vt_delta\000"
 3720      656C7461 
 3720      00
 3721              	.LASF24:
 3722 06c6 5F66706F 		.ascii	"_fpos_t\000"
 3722      735F7400 
 3723              	.LASF27:
 3724 06ce 5F5F7763 		.ascii	"__wchb\000"
 3724      686200
 3725              	.LASF210:
 3726 06d5 63685F76 		.ascii	"ch_virtual_timer\000"
 3726      69727475 
 3726      616C5F74 
 3726      696D6572 
 3726      00
 3727              	.LASF243:
 3728 06e6 735F636E 		.ascii	"s_cnt\000"
ARM GAS  C:\Users\IDONNO~1\AppData\Local\Temp\cco0ioRR.s 			page 72


 3728      7400
 3729              	.LASF117:
 3730 06ec 5F6D6274 		.ascii	"_mbtowc_state\000"
 3730      6F77635F 
 3730      73746174 
 3730      6500
 3731              	.LASF13:
 3732 06fa 6C6F6E67 		.ascii	"long long unsigned int\000"
 3732      206C6F6E 
 3732      6720756E 
 3732      7369676E 
 3732      65642069 
 3733              	.LASF181:
 3734 0711 705F6F6C 		.ascii	"p_older\000"
 3734      64657200 
 3735              	.LASF23:
 3736 0719 5F5F6F66 		.ascii	"__off_t\000"
 3736      665F7400 
 3737              	.LASF53:
 3738 0721 5F64736F 		.ascii	"_dso_handle\000"
 3738      5F68616E 
 3738      646C6500 
 3739              	.LASF170:
 3740 072d 6D73675F 		.ascii	"msg_t\000"
 3740      7400
 3741              	.LASF199:
 3742 0733 63685F74 		.ascii	"ch_threads_queue\000"
 3742      68726561 
 3742      64735F71 
 3742      75657565 
 3742      00
 3743              	.LASF105:
 3744 0744 5F72616E 		.ascii	"_rand48\000"
 3744      64343800 
 3745              	.LASF82:
 3746 074c 5F737464 		.ascii	"_stdout\000"
 3746      6F757400 
 3747              	.LASF168:
 3748 0754 74736C69 		.ascii	"tslices_t\000"
 3748      6365735F 
 3748      7400
 3749              	.LASF73:
 3750 075e 5F626C6B 		.ascii	"_blksize\000"
 3750      73697A65 
 3750      00
 3751              	.LASF60:
 3752 0767 5F626173 		.ascii	"_base\000"
 3752      6500
 3753              	.LASF256:
 3754 076d 5F667374 		.ascii	"_fstat_r\000"
 3754      61745F72 
 3754      00
 3755              	.LASF259:
 3756 0776 474E5520 		.ascii	"GNU C99 5.4.1 20160919 (release) [ARM/embedded-5-br"
 3756      43393920 
 3756      352E342E 
 3756      31203230 
ARM GAS  C:\Users\IDONNO~1\AppData\Local\Temp\cco0ioRR.s 			page 73


 3756      31363039 
 3757 07a9 616E6368 		.ascii	"anch revision 240496] -mcpu=cortex-m4 -mfloat-abi=h"
 3757      20726576 
 3757      6973696F 
 3757      6E203234 
 3757      30343936 
 3758 07dc 61726420 		.ascii	"ard -mfpu=fpv4-sp-d16 -mno-thumb-interwork -mthumb "
 3758      2D6D6670 
 3758      753D6670 
 3758      76342D73 
 3758      702D6431 
 3759 080f 2D676764 		.ascii	"-ggdb -O2 -std=gnu99 -fomit-frame-pointer -falign-f"
 3759      62202D4F 
 3759      32202D73 
 3759      74643D67 
 3759      6E753939 
 3760 0842 756E6374 		.ascii	"unctions=16 -ffunction-sections -fdata-sections -fn"
 3760      696F6E73 
 3760      3D313620 
 3760      2D666675 
 3760      6E637469 
 3761 0875 6F2D636F 		.ascii	"o-common -fsingle-precision-constant\000"
 3761      6D6D6F6E 
 3761      202D6673 
 3761      696E676C 
 3761      652D7072 
 3762              	.LASF110:
 3763 089a 5F737472 		.ascii	"_strtok_last\000"
 3763      746F6B5F 
 3763      6C617374 
 3763      00
 3764              	.LASF123:
 3765 08a7 5F6D6272 		.ascii	"_mbrtowc_state\000"
 3765      746F7763 
 3765      5F737461 
 3765      746500
 3766              	.LASF226:
 3767 08b6 6D61696E 		.ascii	"mainthread\000"
 3767      74687265 
 3767      616400
 3768              	.LASF32:
 3769 08c1 5F666C6F 		.ascii	"_flock_t\000"
 3769      636B5F74 
 3769      00
 3770              	.LASF101:
 3771 08ca 5F5F4649 		.ascii	"__FILE\000"
 3771      4C4500
 3772              	.LASF31:
 3773 08d1 5F6D6273 		.ascii	"_mbstate_t\000"
 3773      74617465 
 3773      5F7400
 3774              	.LASF202:
 3775 08dc 725F7175 		.ascii	"r_queue\000"
 3775      65756500 
 3776              	.LASF115:
 3777 08e4 5F723438 		.ascii	"_r48\000"
 3777      00
ARM GAS  C:\Users\IDONNO~1\AppData\Local\Temp\cco0ioRR.s 			page 74


 3778              	.LASF25:
 3779 08e9 77696E74 		.ascii	"wint_t\000"
 3779      5F7400
 3780              	.LASF261:
 3781 08f0 443A5C67 		.ascii	"D:\\git\\oroca_bldc_dev\\oroca_bldc_fw\\oroca_bldc_"
 3781      69745C6F 
 3781      726F6361 
 3781      5F626C64 
 3781      635F6465 
 3782 091f 63686962 		.ascii	"chibios\000"
 3782      696F7300 
 3783              	.LASF36:
 3784 0927 5F6E6578 		.ascii	"_next\000"
 3784      7400
 3785              	.LASF75:
 3786 092d 5F646174 		.ascii	"_data\000"
 3786      6100
 3787              	.LASF224:
 3788 0933 726C6973 		.ascii	"rlist\000"
 3788      7400
 3789              	.LASF165:
 3790 0939 746D6F64 		.ascii	"tmode_t\000"
 3790      655F7400 
 3791              	.LASF157:
 3792 0941 73745F6D 		.ascii	"st_mtime\000"
 3792      74696D65 
 3792      00
 3793              	.LASF218:
 3794 094a 76745F73 		.ascii	"vt_systime\000"
 3794      79737469 
 3794      6D6500
 3795              	.LASF206:
 3796 0955 725F6F6C 		.ascii	"r_older\000"
 3796      64657200 
 3797              	.LASF233:
 3798 095d 746D5F63 		.ascii	"tm_calibration_t\000"
 3798      616C6962 
 3798      72617469 
 3798      6F6E5F74 
 3798      00
 3799              	.LASF242:
 3800 096e 735F7175 		.ascii	"s_queue\000"
 3800      65756500 
 3801              	.LASF116:
 3802 0976 5F6D626C 		.ascii	"_mblen_state\000"
 3802      656E5F73 
 3802      74617465 
 3802      00
 3803              	.LASF5:
 3804 0983 73686F72 		.ascii	"short int\000"
 3804      7420696E 
 3804      7400
 3805              	.LASF134:
 3806 098d 75696E74 		.ascii	"uint64_t\000"
 3806      36345F74 
 3806      00
 3807              	.LASF244:
ARM GAS  C:\Users\IDONNO~1\AppData\Local\Temp\cco0ioRR.s 			page 75


 3808 0996 63685F6D 		.ascii	"ch_mutex\000"
 3808      75746578 
 3808      00
 3809              	.LASF54:
 3810 099f 5F666E74 		.ascii	"_fntypes\000"
 3810      79706573 
 3810      00
 3811              	.LASF203:
 3812 09a8 725F7072 		.ascii	"r_prio\000"
 3812      696F00
 3813              	.LASF220:
 3814 09af 63685F73 		.ascii	"ch_system_debug\000"
 3814      79737465 
 3814      6D5F6465 
 3814      62756700 
 3815              	.LASF47:
 3816 09bf 5F5F746D 		.ascii	"__tm_year\000"
 3816      5F796561 
 3816      7200
 3817              	.LASF65:
 3818 09c9 5F6C6266 		.ascii	"_lbfsize\000"
 3818      73697A65 
 3818      00
 3819              	.LASF225:
 3820 09d2 76746C69 		.ascii	"vtlist\000"
 3820      737400
 3821              	.LASF84:
 3822 09d9 5F696E63 		.ascii	"_inc\000"
 3822      00
 3823              	.LASF57:
 3824 09de 5F696E64 		.ascii	"_ind\000"
 3824      00
 3825              	.LASF59:
 3826 09e3 5F5F7362 		.ascii	"__sbuf\000"
 3826      756600
 3827              	.LASF251:
 3828 09ea 5F6C7365 		.ascii	"_lseek_r\000"
 3828      656B5F72 
 3828      00
 3829              	.LASF55:
 3830 09f3 5F69735F 		.ascii	"_is_cxa\000"
 3830      63786100 
 3831              	.LASF248:
 3832 09fb 6D757465 		.ascii	"mutex_t\000"
 3832      785F7400 
 3833              	.LASF149:
 3834 0a03 73745F6D 		.ascii	"st_mode\000"
 3834      6F646500 
 3835              	.LASF19:
 3836 0a0b 5F5F7569 		.ascii	"__uid_t\000"
 3836      645F7400 
 3837              	.LASF128:
 3838 0a13 5F6E6578 		.ascii	"_nextf\000"
 3838      746600
 3839              	.LASF137:
 3840 0a1a 626C6B73 		.ascii	"blksize_t\000"
 3840      697A655F 
ARM GAS  C:\Users\IDONNO~1\AppData\Local\Temp\cco0ioRR.s 			page 76


 3840      7400
 3841              	.LASF223:
 3842 0a24 63685F73 		.ascii	"ch_system\000"
 3842      79737465 
 3842      6D00
 3843              	.LASF87:
 3844 0a2e 5F6C6F63 		.ascii	"_locale\000"
 3844      616C6500 
 3845              	.LASF35:
 3846 0a36 5F5F554C 		.ascii	"__ULong\000"
 3846      6F6E6700 
 3847              	.LASF133:
 3848 0a3e 75696E74 		.ascii	"uint32_t\000"
 3848      33325F74 
 3848      00
 3849              	.LASF90:
 3850 0a47 5F726573 		.ascii	"_result\000"
 3850      756C7400 
 3851              	.LASF17:
 3852 0a4f 5F6F6666 		.ascii	"_off_t\000"
 3852      5F7400
 3853              	.LASF234:
 3854 0a56 7264796D 		.ascii	"rdymsg\000"
 3854      736700
 3855              	.LASF108:
 3856 0a5d 5F616464 		.ascii	"_add\000"
 3856      00
 3857              	.LASF6:
 3858 0a62 73686F72 		.ascii	"short unsigned int\000"
 3858      7420756E 
 3858      7369676E 
 3858      65642069 
 3858      6E7400
 3859              	.LASF44:
 3860 0a75 5F5F746D 		.ascii	"__tm_hour\000"
 3860      5F686F75 
 3860      7200
 3861              	.LASF222:
 3862 0a7f 63685F73 		.ascii	"ch_system_t\000"
 3862      79737465 
 3862      6D5F7400 
 3863              	.LASF124:
 3864 0a8b 5F6D6273 		.ascii	"_mbsrtowcs_state\000"
 3864      72746F77 
 3864      63735F73 
 3864      74617465 
 3864      00
 3865              	.LASF7:
 3866 0a9c 5F5F696E 		.ascii	"__int32_t\000"
 3866      7433325F 
 3866      7400
 3867              	.LASF250:
 3868 0aa6 5F726561 		.ascii	"_read_r\000"
 3868      645F7200 
 3869              	.LASF148:
 3870 0aae 73745F69 		.ascii	"st_ino\000"
 3870      6E6F00
ARM GAS  C:\Users\IDONNO~1\AppData\Local\Temp\cco0ioRR.s 			page 77


 3871              	.LASF207:
 3872 0ab5 725F6375 		.ascii	"r_current\000"
 3872      7272656E 
 3872      7400
 3873              	.LASF33:
 3874 0abf 5F5F6E6C 		.ascii	"__nlink_t\000"
 3874      696E6B5F 
 3874      7400
 3875              	.LASF52:
 3876 0ac9 5F666E61 		.ascii	"_fnargs\000"
 3876      72677300 
 3877              	.LASF50:
 3878 0ad1 5F5F746D 		.ascii	"__tm_isdst\000"
 3878      5F697364 
 3878      737400
 3879              	.LASF182:
 3880 0adc 705F6E61 		.ascii	"p_name\000"
 3880      6D6500
 3881              	.LASF143:
 3882 0ae3 6769645F 		.ascii	"gid_t\000"
 3882      7400
 3883              	.LASF247:
 3884 0ae9 6D5F6E65 		.ascii	"m_next\000"
 3884      787400
 3885              	.LASF43:
 3886 0af0 5F5F746D 		.ascii	"__tm_min\000"
 3886      5F6D696E 
 3886      00
 3887              	.LASF121:
 3888 0af9 5F676574 		.ascii	"_getdate_err\000"
 3888      64617465 
 3888      5F657272 
 3888      00
 3889              	.LASF238:
 3890 0b06 77747365 		.ascii	"wtsemp\000"
 3890      6D7000
 3891              	.LASF190:
 3892 0b0d 705F6D73 		.ascii	"p_msg\000"
 3892      6700
 3893              	.LASF183:
 3894 0b13 705F7374 		.ascii	"p_state\000"
 3894      61746500 
 3895              		.ident	"GCC: (GNU Tools for ARM Embedded Processors) 5.4.1 20160919 (release) [ARM/embedded-5-bran
ARM GAS  C:\Users\IDONNO~1\AppData\Local\Temp\cco0ioRR.s 			page 78


DEFINED SYMBOLS
                            *ABS*:00000000 syscalls.c
C:\Users\IDONNO~1\AppData\Local\Temp\cco0ioRR.s:22     .text._read_r:00000000 $t
C:\Users\IDONNO~1\AppData\Local\Temp\cco0ioRR.s:28     .text._read_r:00000000 _read_r
C:\Users\IDONNO~1\AppData\Local\Temp\cco0ioRR.s:49     .text._lseek_r:00000000 $t
C:\Users\IDONNO~1\AppData\Local\Temp\cco0ioRR.s:55     .text._lseek_r:00000000 _lseek_r
C:\Users\IDONNO~1\AppData\Local\Temp\cco0ioRR.s:71     .text._write_r:00000000 $t
C:\Users\IDONNO~1\AppData\Local\Temp\cco0ioRR.s:77     .text._write_r:00000000 _write_r
C:\Users\IDONNO~1\AppData\Local\Temp\cco0ioRR.s:93     .text._close_r:00000000 $t
C:\Users\IDONNO~1\AppData\Local\Temp\cco0ioRR.s:99     .text._close_r:00000000 _close_r
C:\Users\IDONNO~1\AppData\Local\Temp\cco0ioRR.s:115    .text._sbrk_r:00000000 $t
C:\Users\IDONNO~1\AppData\Local\Temp\cco0ioRR.s:121    .text._sbrk_r:00000000 _sbrk_r
C:\Users\IDONNO~1\AppData\Local\Temp\cco0ioRR.s:157    .text._fstat_r:00000000 $t
C:\Users\IDONNO~1\AppData\Local\Temp\cco0ioRR.s:163    .text._fstat_r:00000000 _fstat_r
C:\Users\IDONNO~1\AppData\Local\Temp\cco0ioRR.s:196    .text._isatty_r:00000000 $t
C:\Users\IDONNO~1\AppData\Local\Temp\cco0ioRR.s:202    .text._isatty_r:00000000 _isatty_r
                     .debug_frame:00000010 $d

UNDEFINED SYMBOLS
chCoreAlloc
memset
