ARM GAS  C:\Users\IDONNO~1\AppData\Local\Temp\ccKDU1Er.s 			page 1


   1              		.syntax unified
   2              		.cpu cortex-m4
   3              		.eabi_attribute 27, 1
   4              		.eabi_attribute 28, 1
   5              		.fpu fpv4-sp-d16
   6              		.eabi_attribute 20, 1
   7              		.eabi_attribute 21, 1
   8              		.eabi_attribute 23, 3
   9              		.eabi_attribute 24, 1
  10              		.eabi_attribute 25, 1
  11              		.eabi_attribute 26, 1
  12              		.eabi_attribute 30, 2
  13              		.eabi_attribute 34, 1
  14              		.eabi_attribute 18, 4
  15              		.thumb
  16              		.syntax unified
  17              		.file	"timeout.c"
  18              		.text
  19              	.Ltext0:
  20              		.cfi_sections	.debug_frame
  21              		.section	.text.timeout_thread,"ax",%progbits
  22              		.align	2
  23              		.p2align 4,,15
  24              		.thumb
  25              		.thumb_func
  26              		.type	timeout_thread, %function
  27              	timeout_thread:
  28              	.LFB260:
  29              		.file 1 "src/core/timeout.c"
  30              		.loc 1 59 0
  31              		.cfi_startproc
  32              		@ Volatile: function does not return.
  33              		@ args = 0, pretend = 0, frame = 0
  34              		@ frame_needed = 0, uses_anonymous_args = 0
  35              	.LVL0:
  36 0000 80B5     		push	{r7, lr}
  37              		.cfi_def_cfa_offset 8
  38              		.cfi_offset 7, -8
  39              		.cfi_offset 14, -4
  40              	.LBB12:
  41              	.LBB13:
  42              		.file 2 "src/ChibiOS_3.0.2/os/rt/include/chregistry.h"
  43              		.loc 2 135 0
  44 0002 144F     		ldr	r7, .L11
  45 0004 144C     		ldr	r4, .L11+4
  46 0006 BB69     		ldr	r3, [r7, #24]
  47 0008 144A     		ldr	r2, .L11+8
  48 000a DFF858A0 		ldr	r10, .L11+16
  49 000e 144D     		ldr	r5, .L11+12
  50              	.LBE13:
  51              	.LBE12:
  52              		.loc 1 66 0
  53 0010 DFF85490 		ldr	r9, .L11+20
  54              	.LBB15:
  55              	.LBB14:
  56              		.loc 2 135 0
  57 0014 9A61     		str	r2, [r3, #24]
ARM GAS  C:\Users\IDONNO~1\AppData\Local\Temp\ccKDU1Er.s 			page 2


  58              	.LBE14:
  59              	.LBE15:
  60              		.loc 1 66 0
  61 0016 A046     		mov	r8, r4
  62              		.loc 1 72 0
  63 0018 0026     		movs	r6, #0
  64 001a 14E0     		b	.L4
  65              	.LVL1:
  66              	.L10:
  67              		.loc 1 66 0 discriminator 1
  68 001c DAF80010 		ldr	r1, [r10]
  69              	.LVL2:
  70              	.LBB16:
  71              	.LBB17:
  72              	.LBB18:
  73              	.LBB19:
  74              		.file 3 "src/ChibiOS_3.0.2/os/rt/include/chvt.h"
  75              		.loc 3 231 0 discriminator 1
  76 0020 BA6A     		ldr	r2, [r7, #40]
  77              	.LVL3:
  78              	.LBE19:
  79              	.LBE18:
  80              	.LBE17:
  81              	.LBE16:
  82              		.loc 1 66 0 discriminator 1
  83 0022 D8F80000 		ldr	r0, [r8]
  84 0026 03FB00F3 		mul	r3, r3, r0
  85 002a 03F2E733 		addw	r3, r3, #999
  86 002e 521A     		subs	r2, r2, r1
  87 0030 A9FB0313 		umull	r1, r3, r9, r3
  88 0034 B2EB931F 		cmp	r2, r3, lsr #6
  89              		.loc 1 68 0 discriminator 1
  90 0038 4FF00103 		mov	r3, #1
  91              		.loc 1 66 0 discriminator 1
  92 003c 08D9     		bls	.L2
  93              		.loc 1 68 0
  94 003e 2B70     		strb	r3, [r5]
  95              	.L3:
  96              		.loc 1 75 0
  97 0040 6420     		movs	r0, #100
  98 0042 FFF7FEFF 		bl	chThdSleep
  99              	.LVL4:
 100              	.L4:
 101              		.loc 1 66 0
 102 0046 2268     		ldr	r2, [r4]
 103 0048 42F21073 		movw	r3, #10000
 104 004c 002A     		cmp	r2, #0
 105 004e E5D1     		bne	.L10
 106              	.L2:
 107              		.loc 1 72 0
 108 0050 2E70     		strb	r6, [r5]
 109 0052 F5E7     		b	.L3
 110              	.L12:
 111              		.align	2
 112              	.L11:
 113 0054 00000000 		.word	ch
 114 0058 00000000 		.word	.LANCHOR0
ARM GAS  C:\Users\IDONNO~1\AppData\Local\Temp\ccKDU1Er.s 			page 3


 115 005c 00000000 		.word	.LC0
 116 0060 00000000 		.word	.LANCHOR2
 117 0064 00000000 		.word	.LANCHOR1
 118 0068 D34D6210 		.word	274877907
 119              		.cfi_endproc
 120              	.LFE260:
 121              		.size	timeout_thread, .-timeout_thread
 122              		.section	.text.timeout_configure,"ax",%progbits
 123              		.align	2
 124              		.p2align 4,,15
 125              		.global	timeout_configure
 126              		.thumb
 127              		.thumb_func
 128              		.type	timeout_configure, %function
 129              	timeout_configure:
 130              	.LFB256:
 131              		.loc 1 42 0
 132              		.cfi_startproc
 133              		@ args = 0, pretend = 0, frame = 0
 134              		@ frame_needed = 0, uses_anonymous_args = 0
 135              		@ link register save eliminated.
 136              	.LVL5:
 137              		.loc 1 43 0
 138 0000 014B     		ldr	r3, .L14
 139 0002 1860     		str	r0, [r3]
 140 0004 7047     		bx	lr
 141              	.L15:
 142 0006 00BF     		.align	2
 143              	.L14:
 144 0008 00000000 		.word	.LANCHOR0
 145              		.cfi_endproc
 146              	.LFE256:
 147              		.size	timeout_configure, .-timeout_configure
 148              		.section	.text.timeout_reset,"ax",%progbits
 149              		.align	2
 150              		.p2align 4,,15
 151              		.global	timeout_reset
 152              		.thumb
 153              		.thumb_func
 154              		.type	timeout_reset, %function
 155              	timeout_reset:
 156              	.LFB257:
 157              		.loc 1 46 0
 158              		.cfi_startproc
 159              		@ args = 0, pretend = 0, frame = 0
 160              		@ frame_needed = 0, uses_anonymous_args = 0
 161              		@ link register save eliminated.
 162              	.LBB20:
 163              	.LBB21:
 164              		.loc 3 231 0
 165 0000 024A     		ldr	r2, .L17
 166              	.LBE21:
 167              	.LBE20:
 168              		.loc 1 47 0
 169 0002 034B     		ldr	r3, .L17+4
 170              	.LBB23:
 171              	.LBB22:
ARM GAS  C:\Users\IDONNO~1\AppData\Local\Temp\ccKDU1Er.s 			page 4


 172              		.loc 3 231 0
 173 0004 926A     		ldr	r2, [r2, #40]
 174              	.LBE22:
 175              	.LBE23:
 176              		.loc 1 47 0
 177 0006 1A60     		str	r2, [r3]
 178 0008 7047     		bx	lr
 179              	.L18:
 180 000a 00BF     		.align	2
 181              	.L17:
 182 000c 00000000 		.word	ch
 183 0010 00000000 		.word	.LANCHOR1
 184              		.cfi_endproc
 185              	.LFE257:
 186              		.size	timeout_reset, .-timeout_reset
 187              		.section	.text.timeout_has_timeout,"ax",%progbits
 188              		.align	2
 189              		.p2align 4,,15
 190              		.global	timeout_has_timeout
 191              		.thumb
 192              		.thumb_func
 193              		.type	timeout_has_timeout, %function
 194              	timeout_has_timeout:
 195              	.LFB258:
 196              		.loc 1 50 0
 197              		.cfi_startproc
 198              		@ args = 0, pretend = 0, frame = 0
 199              		@ frame_needed = 0, uses_anonymous_args = 0
 200              		@ link register save eliminated.
 201              		.loc 1 51 0
 202 0000 014B     		ldr	r3, .L20
 203 0002 1878     		ldrb	r0, [r3]	@ zero_extendqisi2
 204              		.loc 1 52 0
 205 0004 7047     		bx	lr
 206              	.L21:
 207 0006 00BF     		.align	2
 208              	.L20:
 209 0008 00000000 		.word	.LANCHOR2
 210              		.cfi_endproc
 211              	.LFE258:
 212              		.size	timeout_has_timeout, .-timeout_has_timeout
 213              		.section	.text.timeout_get_timeout_msec,"ax",%progbits
 214              		.align	2
 215              		.p2align 4,,15
 216              		.global	timeout_get_timeout_msec
 217              		.thumb
 218              		.thumb_func
 219              		.type	timeout_get_timeout_msec, %function
 220              	timeout_get_timeout_msec:
 221              	.LFB259:
 222              		.loc 1 54 0
 223              		.cfi_startproc
 224              		@ args = 0, pretend = 0, frame = 0
 225              		@ frame_needed = 0, uses_anonymous_args = 0
 226              		@ link register save eliminated.
 227              		.loc 1 55 0
 228 0000 014B     		ldr	r3, .L23
ARM GAS  C:\Users\IDONNO~1\AppData\Local\Temp\ccKDU1Er.s 			page 5


 229 0002 1868     		ldr	r0, [r3]
 230              		.loc 1 56 0
 231 0004 7047     		bx	lr
 232              	.L24:
 233 0006 00BF     		.align	2
 234              	.L23:
 235 0008 00000000 		.word	.LANCHOR0
 236              		.cfi_endproc
 237              	.LFE259:
 238              		.size	timeout_get_timeout_msec, .-timeout_get_timeout_msec
 239              		.section	.text.timeout_init,"ax",%progbits
 240              		.align	2
 241              		.p2align 4,,15
 242              		.global	timeout_init
 243              		.thumb
 244              		.thumb_func
 245              		.type	timeout_init, %function
 246              	timeout_init:
 247              	.LFB261:
 248              		.loc 1 80 0
 249              		.cfi_startproc
 250              		@ args = 0, pretend = 0, frame = 0
 251              		@ frame_needed = 0, uses_anonymous_args = 0
 252 0000 F0B5     		push	{r4, r5, r6, r7, lr}
 253              		.cfi_def_cfa_offset 20
 254              		.cfi_offset 4, -20
 255              		.cfi_offset 5, -16
 256              		.cfi_offset 6, -12
 257              		.cfi_offset 7, -8
 258              		.cfi_offset 14, -4
 259              		.loc 1 81 0
 260 0002 0A49     		ldr	r1, .L27
 261              		.loc 1 82 0
 262 0004 0A4E     		ldr	r6, .L27+4
 263              		.loc 1 83 0
 264 0006 0B4D     		ldr	r5, .L27+8
 265              		.loc 1 85 0
 266 0008 0B4B     		ldr	r3, .L27+12
 267 000a 0C48     		ldr	r0, .L27+16
 268              		.loc 1 80 0
 269 000c 83B0     		sub	sp, sp, #12
 270              		.cfi_def_cfa_offset 32
 271              		.loc 1 82 0
 272 000e 0024     		movs	r4, #0
 273              		.loc 1 81 0
 274 0010 4FF47A77 		mov	r7, #1000
 275              		.loc 1 85 0
 276 0014 0094     		str	r4, [sp]
 277 0016 4022     		movs	r2, #64
 278              		.loc 1 81 0
 279 0018 0F60     		str	r7, [r1]
 280              		.loc 1 85 0
 281 001a 4FF46671 		mov	r1, #920
 282              		.loc 1 82 0
 283 001e 3460     		str	r4, [r6]
 284              		.loc 1 83 0
 285 0020 2C70     		strb	r4, [r5]
ARM GAS  C:\Users\IDONNO~1\AppData\Local\Temp\ccKDU1Er.s 			page 6


 286              		.loc 1 85 0
 287 0022 FFF7FEFF 		bl	chThdCreateStatic
 288              	.LVL6:
 289              		.loc 1 86 0
 290 0026 03B0     		add	sp, sp, #12
 291              		.cfi_def_cfa_offset 20
 292              		@ sp needed
 293 0028 F0BD     		pop	{r4, r5, r6, r7, pc}
 294              	.L28:
 295 002a 00BF     		.align	2
 296              	.L27:
 297 002c 00000000 		.word	.LANCHOR0
 298 0030 00000000 		.word	.LANCHOR1
 299 0034 00000000 		.word	.LANCHOR2
 300 0038 00000000 		.word	timeout_thread
 301 003c 00000000 		.word	.LANCHOR3
 302              		.cfi_endproc
 303              	.LFE261:
 304              		.size	timeout_init, .-timeout_init
 305              		.section	.bss.timeout_thread_wa,"aw",%nobits
 306              		.align	3
 307              		.set	.LANCHOR3,. + 0
 308              		.type	timeout_thread_wa, %object
 309              		.size	timeout_thread_wa, 920
 310              	timeout_thread_wa:
 311 0000 00000000 		.space	920
 311      00000000 
 311      00000000 
 311      00000000 
 311      00000000 
 312              		.section	.bss.last_update_time,"aw",%nobits
 313              		.align	2
 314              		.set	.LANCHOR1,. + 0
 315              		.type	last_update_time, %object
 316              		.size	last_update_time, 4
 317              	last_update_time:
 318 0000 00000000 		.space	4
 319              		.section	.rodata.str1.4,"aMS",%progbits,1
 320              		.align	2
 321              	.LC0:
 322 0000 54696D65 		.ascii	"Timeout\000"
 322      6F757400 
 323              		.section	.bss.has_timeout,"aw",%nobits
 324              		.set	.LANCHOR2,. + 0
 325              		.type	has_timeout, %object
 326              		.size	has_timeout, 1
 327              	has_timeout:
 328 0000 00       		.space	1
 329              		.section	.bss.timeout_msec,"aw",%nobits
 330              		.align	2
 331              		.set	.LANCHOR0,. + 0
 332              		.type	timeout_msec, %object
 333              		.size	timeout_msec, 4
 334              	timeout_msec:
 335 0000 00000000 		.space	4
 336              		.text
 337              	.Letext0:
ARM GAS  C:\Users\IDONNO~1\AppData\Local\Temp\ccKDU1Er.s 			page 7


 338              		.file 4 "c:\\program files (x86)\\gnu tools arm embedded\\5.4 2016q3\\lib\\gcc\\arm-none-eabi\\5.4
 339              		.file 5 "c:\\program files (x86)\\gnu tools arm embedded\\5.4 2016q3\\arm-none-eabi\\include\\mach
 340              		.file 6 "c:\\program files (x86)\\gnu tools arm embedded\\5.4 2016q3\\arm-none-eabi\\include\\sys\
 341              		.file 7 "src/ChibiOS_3.0.2/os/rt/ports/ARMCMx/compilers/GCC/chtypes.h"
 342              		.file 8 "src/ChibiOS_3.0.2/os/rt/include/chsystypes.h"
 343              		.file 9 "src/ChibiOS_3.0.2/os/rt/include/chschd.h"
 344              		.file 10 "src/ChibiOS_3.0.2/os/rt/ports/ARMCMx/chcore.h"
 345              		.file 11 "src/ChibiOS_3.0.2/os/rt/ports/ARMCMx/chcore_v7m.h"
 346              		.file 12 "src/ChibiOS_3.0.2/os/rt/include/chtm.h"
 347              		.file 13 "src/ChibiOS_3.0.2/os/rt/include/chsem.h"
 348              		.file 14 "src/ChibiOS_3.0.2/os/rt/include/chmtx.h"
 349              		.file 15 "src/ChibiOS_3.0.2/os/rt/include/chthreads.h"
 350              		.file 16 "src/ChibiOS_3.0.2/os/ext/CMSIS/include/core_cm4.h"
 351              		.section	.debug_info,"",%progbits
 352              	.Ldebug_info0:
 353 0000 13090000 		.4byte	0x913
 354 0004 0400     		.2byte	0x4
 355 0006 00000000 		.4byte	.Ldebug_abbrev0
 356 000a 04       		.byte	0x4
 357 000b 01       		.uleb128 0x1
 358 000c 30050000 		.4byte	.LASF121
 359 0010 0C       		.byte	0xc
 360 0011 2B010000 		.4byte	.LASF122
 361 0015 C1040000 		.4byte	.LASF123
 362 0019 30000000 		.4byte	.Ldebug_ranges0+0x30
 363 001d 00000000 		.4byte	0
 364 0021 00000000 		.4byte	.Ldebug_line0
 365 0025 02       		.uleb128 0x2
 366 0026 04       		.byte	0x4
 367 0027 05       		.byte	0x5
 368 0028 696E7400 		.ascii	"int\000"
 369 002c 03       		.uleb128 0x3
 370 002d 0D000000 		.4byte	.LASF2
 371 0031 04       		.byte	0x4
 372 0032 D8       		.byte	0xd8
 373 0033 37000000 		.4byte	0x37
 374 0037 04       		.uleb128 0x4
 375 0038 04       		.byte	0x4
 376 0039 07       		.byte	0x7
 377 003a A4010000 		.4byte	.LASF0
 378 003e 04       		.uleb128 0x4
 379 003f 01       		.byte	0x1
 380 0040 06       		.byte	0x6
 381 0041 BD000000 		.4byte	.LASF1
 382 0045 03       		.uleb128 0x3
 383 0046 24000000 		.4byte	.LASF3
 384 004a 05       		.byte	0x5
 385 004b 1D       		.byte	0x1d
 386 004c 50000000 		.4byte	0x50
 387 0050 04       		.uleb128 0x4
 388 0051 01       		.byte	0x1
 389 0052 08       		.byte	0x8
 390 0053 80030000 		.4byte	.LASF4
 391 0057 04       		.uleb128 0x4
 392 0058 02       		.byte	0x2
 393 0059 05       		.byte	0x5
 394 005a A7030000 		.4byte	.LASF5
ARM GAS  C:\Users\IDONNO~1\AppData\Local\Temp\ccKDU1Er.s 			page 8


 395 005e 04       		.uleb128 0x4
 396 005f 02       		.byte	0x2
 397 0060 07       		.byte	0x7
 398 0061 07020000 		.4byte	.LASF6
 399 0065 03       		.uleb128 0x3
 400 0066 6A020000 		.4byte	.LASF7
 401 006a 05       		.byte	0x5
 402 006b 3F       		.byte	0x3f
 403 006c 70000000 		.4byte	0x70
 404 0070 04       		.uleb128 0x4
 405 0071 04       		.byte	0x4
 406 0072 05       		.byte	0x5
 407 0073 07010000 		.4byte	.LASF8
 408 0077 03       		.uleb128 0x3
 409 0078 95040000 		.4byte	.LASF9
 410 007c 05       		.byte	0x5
 411 007d 41       		.byte	0x41
 412 007e 82000000 		.4byte	0x82
 413 0082 04       		.uleb128 0x4
 414 0083 04       		.byte	0x4
 415 0084 07       		.byte	0x7
 416 0085 3C040000 		.4byte	.LASF10
 417 0089 04       		.uleb128 0x4
 418 008a 08       		.byte	0x8
 419 008b 05       		.byte	0x5
 420 008c AF000000 		.4byte	.LASF11
 421 0090 03       		.uleb128 0x3
 422 0091 1A030000 		.4byte	.LASF12
 423 0095 05       		.byte	0x5
 424 0096 5B       		.byte	0x5b
 425 0097 9B000000 		.4byte	0x9b
 426 009b 04       		.uleb128 0x4
 427 009c 08       		.byte	0x8
 428 009d 07       		.byte	0x7
 429 009e 49000000 		.4byte	.LASF13
 430 00a2 03       		.uleb128 0x3
 431 00a3 5A060000 		.4byte	.LASF14
 432 00a7 06       		.byte	0x6
 433 00a8 18       		.byte	0x18
 434 00a9 45000000 		.4byte	0x45
 435 00ad 03       		.uleb128 0x3
 436 00ae 78030000 		.4byte	.LASF15
 437 00b2 06       		.byte	0x6
 438 00b3 2C       		.byte	0x2c
 439 00b4 65000000 		.4byte	0x65
 440 00b8 03       		.uleb128 0x3
 441 00b9 14040000 		.4byte	.LASF16
 442 00bd 06       		.byte	0x6
 443 00be 30       		.byte	0x30
 444 00bf 77000000 		.4byte	0x77
 445 00c3 03       		.uleb128 0x3
 446 00c4 1B000000 		.4byte	.LASF17
 447 00c8 06       		.byte	0x6
 448 00c9 3C       		.byte	0x3c
 449 00ca 90000000 		.4byte	0x90
 450 00ce 05       		.uleb128 0x5
 451 00cf AD000000 		.4byte	0xad
ARM GAS  C:\Users\IDONNO~1\AppData\Local\Temp\ccKDU1Er.s 			page 9


 452 00d3 03       		.uleb128 0x3
 453 00d4 B9040000 		.4byte	.LASF18
 454 00d8 07       		.byte	0x7
 455 00d9 45       		.byte	0x45
 456 00da B8000000 		.4byte	0xb8
 457 00de 03       		.uleb128 0x3
 458 00df 48020000 		.4byte	.LASF19
 459 00e3 07       		.byte	0x7
 460 00e4 48       		.byte	0x48
 461 00e5 A2000000 		.4byte	0xa2
 462 00e9 03       		.uleb128 0x3
 463 00ea 22010000 		.4byte	.LASF20
 464 00ee 07       		.byte	0x7
 465 00ef 49       		.byte	0x49
 466 00f0 A2000000 		.4byte	0xa2
 467 00f4 03       		.uleb128 0x3
 468 00f5 25030000 		.4byte	.LASF21
 469 00f9 07       		.byte	0x7
 470 00fa 4A       		.byte	0x4a
 471 00fb A2000000 		.4byte	0xa2
 472 00ff 03       		.uleb128 0x3
 473 0100 E0000000 		.4byte	.LASF22
 474 0104 07       		.byte	0x7
 475 0105 4B       		.byte	0x4b
 476 0106 A2000000 		.4byte	0xa2
 477 010a 03       		.uleb128 0x3
 478 010b 44030000 		.4byte	.LASF23
 479 010f 07       		.byte	0x7
 480 0110 4C       		.byte	0x4c
 481 0111 B8000000 		.4byte	0xb8
 482 0115 03       		.uleb128 0x3
 483 0116 24020000 		.4byte	.LASF24
 484 011a 07       		.byte	0x7
 485 011b 4D       		.byte	0x4d
 486 011c AD000000 		.4byte	0xad
 487 0120 03       		.uleb128 0x3
 488 0121 5E020000 		.4byte	.LASF25
 489 0125 07       		.byte	0x7
 490 0126 4F       		.byte	0x4f
 491 0127 B8000000 		.4byte	0xb8
 492 012b 03       		.uleb128 0x3
 493 012c 8B010000 		.4byte	.LASF26
 494 0130 07       		.byte	0x7
 495 0131 51       		.byte	0x51
 496 0132 AD000000 		.4byte	0xad
 497 0136 03       		.uleb128 0x3
 498 0137 77040000 		.4byte	.LASF27
 499 013b 08       		.byte	0x8
 500 013c 33       		.byte	0x33
 501 013d B8000000 		.4byte	0xb8
 502 0141 03       		.uleb128 0x3
 503 0142 53040000 		.4byte	.LASF28
 504 0146 08       		.byte	0x8
 505 0147 3F       		.byte	0x3f
 506 0148 4C010000 		.4byte	0x14c
 507 014c 06       		.uleb128 0x6
 508 014d 1A020000 		.4byte	.LASF50
ARM GAS  C:\Users\IDONNO~1\AppData\Local\Temp\ccKDU1Er.s 			page 10


 509 0151 48       		.byte	0x48
 510 0152 09       		.byte	0x9
 511 0153 C2       		.byte	0xc2
 512 0154 51020000 		.4byte	0x251
 513 0158 07       		.uleb128 0x7
 514 0159 D1030000 		.4byte	.LASF29
 515 015d 09       		.byte	0x9
 516 015e C3       		.byte	0xc3
 517 015f 5C020000 		.4byte	0x25c
 518 0163 00       		.byte	0
 519 0164 07       		.uleb128 0x7
 520 0165 3D030000 		.4byte	.LASF30
 521 0169 09       		.byte	0x9
 522 016a C5       		.byte	0xc5
 523 016b 5C020000 		.4byte	0x25c
 524 016f 04       		.byte	0x4
 525 0170 07       		.uleb128 0x7
 526 0171 A8000000 		.4byte	.LASF31
 527 0175 09       		.byte	0x9
 528 0176 C7       		.byte	0xc7
 529 0177 0A010000 		.4byte	0x10a
 530 017b 08       		.byte	0x8
 531 017c 07       		.uleb128 0x7
 532 017d B0060000 		.4byte	.LASF32
 533 0181 09       		.byte	0x9
 534 0182 C8       		.byte	0xc8
 535 0183 8C040000 		.4byte	0x48c
 536 0187 0C       		.byte	0xc
 537 0188 07       		.uleb128 0x7
 538 0189 3E010000 		.4byte	.LASF33
 539 018d 09       		.byte	0x9
 540 018e CA       		.byte	0xca
 541 018f 5C020000 		.4byte	0x25c
 542 0193 10       		.byte	0x10
 543 0194 07       		.uleb128 0x7
 544 0195 DD020000 		.4byte	.LASF34
 545 0199 09       		.byte	0x9
 546 019a CB       		.byte	0xcb
 547 019b 5C020000 		.4byte	0x25c
 548 019f 14       		.byte	0x14
 549 01a0 07       		.uleb128 0x7
 550 01a1 77060000 		.4byte	.LASF35
 551 01a5 09       		.byte	0x9
 552 01a6 D2       		.byte	0xd2
 553 01a7 D1060000 		.4byte	0x6d1
 554 01ab 18       		.byte	0x18
 555 01ac 07       		.uleb128 0x7
 556 01ad B1030000 		.4byte	.LASF36
 557 01b1 09       		.byte	0x9
 558 01b2 DD       		.byte	0xdd
 559 01b3 E9000000 		.4byte	0xe9
 560 01b7 1C       		.byte	0x1c
 561 01b8 07       		.uleb128 0x7
 562 01b9 D8030000 		.4byte	.LASF37
 563 01bd 09       		.byte	0x9
 564 01be E1       		.byte	0xe1
 565 01bf DE000000 		.4byte	0xde
ARM GAS  C:\Users\IDONNO~1\AppData\Local\Temp\ccKDU1Er.s 			page 11


 566 01c3 1D       		.byte	0x1d
 567 01c4 07       		.uleb128 0x7
 568 01c5 29050000 		.4byte	.LASF38
 569 01c9 09       		.byte	0x9
 570 01ca E6       		.byte	0xe6
 571 01cb F4000000 		.4byte	0xf4
 572 01cf 1E       		.byte	0x1e
 573 01d0 07       		.uleb128 0x7
 574 01d1 B9030000 		.4byte	.LASF39
 575 01d5 09       		.byte	0x9
 576 01d6 EC       		.byte	0xec
 577 01d7 FF000000 		.4byte	0xff
 578 01db 1F       		.byte	0x1f
 579 01dc 07       		.uleb128 0x7
 580 01dd B9010000 		.4byte	.LASF40
 581 01e1 09       		.byte	0x9
 582 01e2 F3       		.byte	0xf3
 583 01e3 E3060000 		.4byte	0x6e3
 584 01e7 20       		.byte	0x20
 585 01e8 08       		.uleb128 0x8
 586 01e9 705F7500 		.ascii	"p_u\000"
 587 01ed 09       		.byte	0x9
 588 01ee 3101     		.2byte	0x131
 589 01f0 0C060000 		.4byte	0x60c
 590 01f4 24       		.byte	0x24
 591 01f5 09       		.uleb128 0x9
 592 01f6 A0020000 		.4byte	.LASF41
 593 01fa 09       		.byte	0x9
 594 01fb 3601     		.2byte	0x136
 595 01fd 62020000 		.4byte	0x262
 596 0201 28       		.byte	0x28
 597 0202 09       		.uleb128 0x9
 598 0203 D0010000 		.4byte	.LASF42
 599 0207 09       		.byte	0x9
 600 0208 3C01     		.2byte	0x13c
 601 020a 86020000 		.4byte	0x286
 602 020e 2C       		.byte	0x2c
 603 020f 09       		.uleb128 0x9
 604 0210 89060000 		.4byte	.LASF43
 605 0214 09       		.byte	0x9
 606 0215 4001     		.2byte	0x140
 607 0217 15010000 		.4byte	0x115
 608 021b 34       		.byte	0x34
 609 021c 09       		.uleb128 0x9
 610 021d FE030000 		.4byte	.LASF44
 611 0221 09       		.byte	0x9
 612 0222 4601     		.2byte	0x146
 613 0224 20010000 		.4byte	0x120
 614 0228 38       		.byte	0x38
 615 0229 09       		.uleb128 0x9
 616 022a 9D030000 		.4byte	.LASF45
 617 022e 09       		.byte	0x9
 618 022f 4D01     		.2byte	0x14d
 619 0231 CB060000 		.4byte	0x6cb
 620 0235 3C       		.byte	0x3c
 621 0236 09       		.uleb128 0x9
 622 0237 81040000 		.4byte	.LASF46
ARM GAS  C:\Users\IDONNO~1\AppData\Local\Temp\ccKDU1Er.s 			page 12


 623 023b 09       		.byte	0x9
 624 023c 5101     		.2byte	0x151
 625 023e 0A010000 		.4byte	0x10a
 626 0242 40       		.byte	0x40
 627 0243 09       		.uleb128 0x9
 628 0244 C9000000 		.4byte	.LASF47
 629 0248 09       		.byte	0x9
 630 0249 5801     		.2byte	0x158
 631 024b 39030000 		.4byte	0x339
 632 024f 44       		.byte	0x44
 633 0250 00       		.byte	0
 634 0251 03       		.uleb128 0x3
 635 0252 B3020000 		.4byte	.LASF48
 636 0256 08       		.byte	0x8
 637 0257 44       		.byte	0x44
 638 0258 5C020000 		.4byte	0x25c
 639 025c 0A       		.uleb128 0xa
 640 025d 04       		.byte	0x4
 641 025e 41010000 		.4byte	0x141
 642 0262 03       		.uleb128 0x3
 643 0263 91020000 		.4byte	.LASF49
 644 0267 08       		.byte	0x8
 645 0268 49       		.byte	0x49
 646 0269 6D020000 		.4byte	0x26d
 647 026d 06       		.uleb128 0x6
 648 026e 2C040000 		.4byte	.LASF51
 649 0272 04       		.byte	0x4
 650 0273 09       		.byte	0x9
 651 0274 B0       		.byte	0xb0
 652 0275 86020000 		.4byte	0x286
 653 0279 07       		.uleb128 0x7
 654 027a D1030000 		.4byte	.LASF29
 655 027e 09       		.byte	0x9
 656 027f B1       		.byte	0xb1
 657 0280 5C020000 		.4byte	0x25c
 658 0284 00       		.byte	0
 659 0285 00       		.byte	0
 660 0286 03       		.uleb128 0x3
 661 0287 10050000 		.4byte	.LASF52
 662 028b 08       		.byte	0x8
 663 028c 50       		.byte	0x50
 664 028d 91020000 		.4byte	0x291
 665 0291 06       		.uleb128 0x6
 666 0292 97000000 		.4byte	.LASF53
 667 0296 08       		.byte	0x8
 668 0297 09       		.byte	0x9
 669 0298 B7       		.byte	0xb7
 670 0299 B6020000 		.4byte	0x2b6
 671 029d 07       		.uleb128 0x7
 672 029e D1030000 		.4byte	.LASF29
 673 02a2 09       		.byte	0x9
 674 02a3 B8       		.byte	0xb8
 675 02a4 5C020000 		.4byte	0x25c
 676 02a8 00       		.byte	0
 677 02a9 07       		.uleb128 0x7
 678 02aa 3D030000 		.4byte	.LASF30
 679 02ae 09       		.byte	0x9
ARM GAS  C:\Users\IDONNO~1\AppData\Local\Temp\ccKDU1Er.s 			page 13


 680 02af B9       		.byte	0xb9
 681 02b0 5C020000 		.4byte	0x25c
 682 02b4 04       		.byte	0x4
 683 02b5 00       		.byte	0
 684 02b6 03       		.uleb128 0x3
 685 02b7 00000000 		.4byte	.LASF54
 686 02bb 08       		.byte	0x8
 687 02bc 57       		.byte	0x57
 688 02bd C1020000 		.4byte	0x2c1
 689 02c1 0B       		.uleb128 0xb
 690 02c2 50020000 		.4byte	.LASF55
 691 02c6 1C       		.byte	0x1c
 692 02c7 09       		.byte	0x9
 693 02c8 9001     		.2byte	0x190
 694 02ca 1D030000 		.4byte	0x31d
 695 02ce 09       		.uleb128 0x9
 696 02cf 24040000 		.4byte	.LASF56
 697 02d3 09       		.byte	0x9
 698 02d4 9101     		.2byte	0x191
 699 02d6 86020000 		.4byte	0x286
 700 02da 00       		.byte	0
 701 02db 09       		.uleb128 0x9
 702 02dc C3030000 		.4byte	.LASF57
 703 02e0 09       		.byte	0x9
 704 02e1 9201     		.2byte	0x192
 705 02e3 0A010000 		.4byte	0x10a
 706 02e7 08       		.byte	0x8
 707 02e8 09       		.uleb128 0x9
 708 02e9 E5020000 		.4byte	.LASF58
 709 02ed 09       		.byte	0x9
 710 02ee 9401     		.2byte	0x194
 711 02f0 8C040000 		.4byte	0x48c
 712 02f4 0C       		.byte	0xc
 713 02f5 09       		.uleb128 0x9
 714 02f6 4E010000 		.4byte	.LASF59
 715 02fa 09       		.byte	0x9
 716 02fb 9701     		.2byte	0x197
 717 02fd 5C020000 		.4byte	0x25c
 718 0301 10       		.byte	0x10
 719 0302 09       		.uleb128 0x9
 720 0303 06030000 		.4byte	.LASF60
 721 0307 09       		.byte	0x9
 722 0308 9801     		.2byte	0x198
 723 030a 5C020000 		.4byte	0x25c
 724 030e 14       		.byte	0x14
 725 030f 09       		.uleb128 0x9
 726 0310 FC020000 		.4byte	.LASF61
 727 0314 09       		.byte	0x9
 728 0315 9B01     		.2byte	0x19b
 729 0317 5C020000 		.4byte	0x25c
 730 031b 18       		.byte	0x18
 731 031c 00       		.byte	0
 732 031d 03       		.uleb128 0x3
 733 031e 8C040000 		.4byte	.LASF62
 734 0322 08       		.byte	0x8
 735 0323 5C       		.byte	0x5c
 736 0324 28030000 		.4byte	0x328
ARM GAS  C:\Users\IDONNO~1\AppData\Local\Temp\ccKDU1Er.s 			page 14


 737 0328 0A       		.uleb128 0xa
 738 0329 04       		.byte	0x4
 739 032a 2E030000 		.4byte	0x32e
 740 032e 0C       		.uleb128 0xc
 741 032f 39030000 		.4byte	0x339
 742 0333 0D       		.uleb128 0xd
 743 0334 39030000 		.4byte	0x339
 744 0338 00       		.byte	0
 745 0339 0E       		.uleb128 0xe
 746 033a 04       		.byte	0x4
 747 033b 03       		.uleb128 0x3
 748 033c 2D030000 		.4byte	.LASF63
 749 0340 08       		.byte	0x8
 750 0341 61       		.byte	0x61
 751 0342 46030000 		.4byte	0x346
 752 0346 0B       		.uleb128 0xb
 753 0347 E0030000 		.4byte	.LASF64
 754 034b 14       		.byte	0x14
 755 034c 09       		.byte	0x9
 756 034d 6B01     		.2byte	0x16b
 757 034f 95030000 		.4byte	0x395
 758 0353 09       		.uleb128 0x9
 759 0354 B1010000 		.4byte	.LASF65
 760 0358 09       		.byte	0x9
 761 0359 6C01     		.2byte	0x16c
 762 035b E8060000 		.4byte	0x6e8
 763 035f 00       		.byte	0
 764 0360 09       		.uleb128 0x9
 765 0361 6C010000 		.4byte	.LASF66
 766 0365 09       		.byte	0x9
 767 0366 6D01     		.2byte	0x16d
 768 0368 E8060000 		.4byte	0x6e8
 769 036c 04       		.byte	0x4
 770 036d 09       		.uleb128 0x9
 771 036e C7010000 		.4byte	.LASF67
 772 0372 09       		.byte	0x9
 773 0373 6E01     		.2byte	0x16e
 774 0375 36010000 		.4byte	0x136
 775 0379 08       		.byte	0x8
 776 037a 09       		.uleb128 0x9
 777 037b B6060000 		.4byte	.LASF68
 778 037f 09       		.byte	0x9
 779 0380 6F01     		.2byte	0x16f
 780 0382 1D030000 		.4byte	0x31d
 781 0386 0C       		.byte	0xc
 782 0387 09       		.uleb128 0x9
 783 0388 09050000 		.4byte	.LASF69
 784 038c 09       		.byte	0x9
 785 038d 7101     		.2byte	0x171
 786 038f 39030000 		.4byte	0x339
 787 0393 10       		.byte	0x10
 788 0394 00       		.byte	0
 789 0395 03       		.uleb128 0x3
 790 0396 74000000 		.4byte	.LASF70
 791 039a 08       		.byte	0x8
 792 039b 66       		.byte	0x66
 793 039c A0030000 		.4byte	0x3a0
ARM GAS  C:\Users\IDONNO~1\AppData\Local\Temp\ccKDU1Er.s 			page 15


 794 03a0 0B       		.uleb128 0xb
 795 03a1 C6020000 		.4byte	.LASF71
 796 03a5 10       		.byte	0x10
 797 03a6 09       		.byte	0x9
 798 03a7 7B01     		.2byte	0x17b
 799 03a9 E2030000 		.4byte	0x3e2
 800 03ad 09       		.uleb128 0x9
 801 03ae B1010000 		.4byte	.LASF65
 802 03b2 09       		.byte	0x9
 803 03b3 7C01     		.2byte	0x17c
 804 03b5 E8060000 		.4byte	0x6e8
 805 03b9 00       		.byte	0
 806 03ba 09       		.uleb128 0x9
 807 03bb 6C010000 		.4byte	.LASF66
 808 03bf 09       		.byte	0x9
 809 03c0 7E01     		.2byte	0x17e
 810 03c2 E8060000 		.4byte	0x6e8
 811 03c6 04       		.byte	0x4
 812 03c7 09       		.uleb128 0x9
 813 03c8 C7010000 		.4byte	.LASF67
 814 03cc 09       		.byte	0x9
 815 03cd 8001     		.2byte	0x180
 816 03cf 36010000 		.4byte	0x136
 817 03d3 08       		.byte	0x8
 818 03d4 09       		.uleb128 0x9
 819 03d5 7E060000 		.4byte	.LASF72
 820 03d9 09       		.byte	0x9
 821 03da 8201     		.2byte	0x182
 822 03dc E3060000 		.4byte	0x6e3
 823 03e0 0C       		.byte	0xc
 824 03e1 00       		.byte	0
 825 03e2 03       		.uleb128 0x3
 826 03e3 3A000000 		.4byte	.LASF73
 827 03e7 08       		.byte	0x8
 828 03e8 6B       		.byte	0x6b
 829 03e9 ED030000 		.4byte	0x3ed
 830 03ed 0B       		.uleb128 0xb
 831 03ee 62030000 		.4byte	.LASF74
 832 03f2 04       		.byte	0x4
 833 03f3 09       		.byte	0x9
 834 03f4 A201     		.2byte	0x1a2
 835 03f6 08040000 		.4byte	0x408
 836 03fa 09       		.uleb128 0x9
 837 03fb A0040000 		.4byte	.LASF75
 838 03ff 09       		.byte	0x9
 839 0400 AA01     		.2byte	0x1aa
 840 0402 EE060000 		.4byte	0x6ee
 841 0406 00       		.byte	0
 842 0407 00       		.byte	0
 843 0408 03       		.uleb128 0x3
 844 0409 3C020000 		.4byte	.LASF76
 845 040d 08       		.byte	0x8
 846 040e 70       		.byte	0x70
 847 040f 13040000 		.4byte	0x413
 848 0413 0F       		.uleb128 0xf
 849 0414 FD000000 		.4byte	.LASF77
 850 0418 5802     		.2byte	0x258
ARM GAS  C:\Users\IDONNO~1\AppData\Local\Temp\ccKDU1Er.s 			page 16


 851 041a 09       		.byte	0x9
 852 041b C201     		.2byte	0x1c2
 853 041d 6F040000 		.4byte	0x46f
 854 0421 09       		.uleb128 0x9
 855 0422 54060000 		.4byte	.LASF78
 856 0426 09       		.byte	0x9
 857 0427 C601     		.2byte	0x1c6
 858 0429 B6020000 		.4byte	0x2b6
 859 042d 00       		.byte	0
 860 042e 09       		.uleb128 0x9
 861 042f D9000000 		.4byte	.LASF79
 862 0433 09       		.byte	0x9
 863 0434 CA01     		.2byte	0x1ca
 864 0436 95030000 		.4byte	0x395
 865 043a 1C       		.byte	0x1c
 866 043b 08       		.uleb128 0x8
 867 043c 64626700 		.ascii	"dbg\000"
 868 0440 09       		.byte	0x9
 869 0441 CE01     		.2byte	0x1ce
 870 0443 E2030000 		.4byte	0x3e2
 871 0447 2C       		.byte	0x2c
 872 0448 09       		.uleb128 0x9
 873 0449 69000000 		.4byte	.LASF80
 874 044d 09       		.byte	0x9
 875 044e D201     		.2byte	0x1d2
 876 0450 41010000 		.4byte	0x141
 877 0454 30       		.byte	0x30
 878 0455 08       		.uleb128 0x8
 879 0456 746D00   		.ascii	"tm\000"
 880 0459 09       		.byte	0x9
 881 045a D701     		.2byte	0x1d7
 882 045c 01060000 		.4byte	0x601
 883 0460 78       		.byte	0x78
 884 0461 09       		.uleb128 0x9
 885 0462 7C010000 		.4byte	.LASF81
 886 0466 09       		.byte	0x9
 887 0467 E301     		.2byte	0x1e3
 888 0469 F3060000 		.4byte	0x6f3
 889 046d 80       		.byte	0x80
 890 046e 00       		.byte	0
 891 046f 04       		.uleb128 0x4
 892 0470 04       		.byte	0x4
 893 0471 07       		.byte	0x7
 894 0472 AA020000 		.4byte	.LASF82
 895 0476 03       		.uleb128 0x3
 896 0477 56010000 		.4byte	.LASF83
 897 047b 0A       		.byte	0xa
 898 047c 65       		.byte	0x65
 899 047d 39030000 		.4byte	0x339
 900 0481 03       		.uleb128 0x3
 901 0482 74020000 		.4byte	.LASF84
 902 0486 0A       		.byte	0xa
 903 0487 6D       		.byte	0x6d
 904 0488 C3000000 		.4byte	0xc3
 905 048c 06       		.uleb128 0x6
 906 048d B1040000 		.4byte	.LASF85
 907 0491 04       		.byte	0x4
ARM GAS  C:\Users\IDONNO~1\AppData\Local\Temp\ccKDU1Er.s 			page 17


 908 0492 0A       		.byte	0xa
 909 0493 89       		.byte	0x89
 910 0494 A5040000 		.4byte	0x4a5
 911 0498 10       		.uleb128 0x10
 912 0499 72313300 		.ascii	"r13\000"
 913 049d 0A       		.byte	0xa
 914 049e 8A       		.byte	0x8a
 915 049f E6050000 		.4byte	0x5e6
 916 04a3 00       		.byte	0
 917 04a4 00       		.byte	0
 918 04a5 06       		.uleb128 0x6
 919 04a6 2E000000 		.4byte	.LASF86
 920 04aa 64       		.byte	0x64
 921 04ab 0B       		.byte	0xb
 922 04ac F4       		.byte	0xf4
 923 04ad E6050000 		.4byte	0x5e6
 924 04b1 10       		.uleb128 0x10
 925 04b2 73313600 		.ascii	"s16\000"
 926 04b6 0B       		.byte	0xb
 927 04b7 F6       		.byte	0xf6
 928 04b8 76040000 		.4byte	0x476
 929 04bc 00       		.byte	0
 930 04bd 10       		.uleb128 0x10
 931 04be 73313700 		.ascii	"s17\000"
 932 04c2 0B       		.byte	0xb
 933 04c3 F7       		.byte	0xf7
 934 04c4 76040000 		.4byte	0x476
 935 04c8 04       		.byte	0x4
 936 04c9 10       		.uleb128 0x10
 937 04ca 73313800 		.ascii	"s18\000"
 938 04ce 0B       		.byte	0xb
 939 04cf F8       		.byte	0xf8
 940 04d0 76040000 		.4byte	0x476
 941 04d4 08       		.byte	0x8
 942 04d5 10       		.uleb128 0x10
 943 04d6 73313900 		.ascii	"s19\000"
 944 04da 0B       		.byte	0xb
 945 04db F9       		.byte	0xf9
 946 04dc 76040000 		.4byte	0x476
 947 04e0 0C       		.byte	0xc
 948 04e1 10       		.uleb128 0x10
 949 04e2 73323000 		.ascii	"s20\000"
 950 04e6 0B       		.byte	0xb
 951 04e7 FA       		.byte	0xfa
 952 04e8 76040000 		.4byte	0x476
 953 04ec 10       		.byte	0x10
 954 04ed 10       		.uleb128 0x10
 955 04ee 73323100 		.ascii	"s21\000"
 956 04f2 0B       		.byte	0xb
 957 04f3 FB       		.byte	0xfb
 958 04f4 76040000 		.4byte	0x476
 959 04f8 14       		.byte	0x14
 960 04f9 10       		.uleb128 0x10
 961 04fa 73323200 		.ascii	"s22\000"
 962 04fe 0B       		.byte	0xb
 963 04ff FC       		.byte	0xfc
 964 0500 76040000 		.4byte	0x476
ARM GAS  C:\Users\IDONNO~1\AppData\Local\Temp\ccKDU1Er.s 			page 18


 965 0504 18       		.byte	0x18
 966 0505 10       		.uleb128 0x10
 967 0506 73323300 		.ascii	"s23\000"
 968 050a 0B       		.byte	0xb
 969 050b FD       		.byte	0xfd
 970 050c 76040000 		.4byte	0x476
 971 0510 1C       		.byte	0x1c
 972 0511 10       		.uleb128 0x10
 973 0512 73323400 		.ascii	"s24\000"
 974 0516 0B       		.byte	0xb
 975 0517 FE       		.byte	0xfe
 976 0518 76040000 		.4byte	0x476
 977 051c 20       		.byte	0x20
 978 051d 10       		.uleb128 0x10
 979 051e 73323500 		.ascii	"s25\000"
 980 0522 0B       		.byte	0xb
 981 0523 FF       		.byte	0xff
 982 0524 76040000 		.4byte	0x476
 983 0528 24       		.byte	0x24
 984 0529 08       		.uleb128 0x8
 985 052a 73323600 		.ascii	"s26\000"
 986 052e 0B       		.byte	0xb
 987 052f 0001     		.2byte	0x100
 988 0531 76040000 		.4byte	0x476
 989 0535 28       		.byte	0x28
 990 0536 08       		.uleb128 0x8
 991 0537 73323700 		.ascii	"s27\000"
 992 053b 0B       		.byte	0xb
 993 053c 0101     		.2byte	0x101
 994 053e 76040000 		.4byte	0x476
 995 0542 2C       		.byte	0x2c
 996 0543 08       		.uleb128 0x8
 997 0544 73323800 		.ascii	"s28\000"
 998 0548 0B       		.byte	0xb
 999 0549 0201     		.2byte	0x102
 1000 054b 76040000 		.4byte	0x476
 1001 054f 30       		.byte	0x30
 1002 0550 08       		.uleb128 0x8
 1003 0551 73323900 		.ascii	"s29\000"
 1004 0555 0B       		.byte	0xb
 1005 0556 0301     		.2byte	0x103
 1006 0558 76040000 		.4byte	0x476
 1007 055c 34       		.byte	0x34
 1008 055d 08       		.uleb128 0x8
 1009 055e 73333000 		.ascii	"s30\000"
 1010 0562 0B       		.byte	0xb
 1011 0563 0401     		.2byte	0x104
 1012 0565 76040000 		.4byte	0x476
 1013 0569 38       		.byte	0x38
 1014 056a 08       		.uleb128 0x8
 1015 056b 73333100 		.ascii	"s31\000"
 1016 056f 0B       		.byte	0xb
 1017 0570 0501     		.2byte	0x105
 1018 0572 76040000 		.4byte	0x476
 1019 0576 3C       		.byte	0x3c
 1020 0577 08       		.uleb128 0x8
 1021 0578 723400   		.ascii	"r4\000"
ARM GAS  C:\Users\IDONNO~1\AppData\Local\Temp\ccKDU1Er.s 			page 19


 1022 057b 0B       		.byte	0xb
 1023 057c 0701     		.2byte	0x107
 1024 057e 76040000 		.4byte	0x476
 1025 0582 40       		.byte	0x40
 1026 0583 08       		.uleb128 0x8
 1027 0584 723500   		.ascii	"r5\000"
 1028 0587 0B       		.byte	0xb
 1029 0588 0801     		.2byte	0x108
 1030 058a 76040000 		.4byte	0x476
 1031 058e 44       		.byte	0x44
 1032 058f 08       		.uleb128 0x8
 1033 0590 723600   		.ascii	"r6\000"
 1034 0593 0B       		.byte	0xb
 1035 0594 0901     		.2byte	0x109
 1036 0596 76040000 		.4byte	0x476
 1037 059a 48       		.byte	0x48
 1038 059b 08       		.uleb128 0x8
 1039 059c 723700   		.ascii	"r7\000"
 1040 059f 0B       		.byte	0xb
 1041 05a0 0A01     		.2byte	0x10a
 1042 05a2 76040000 		.4byte	0x476
 1043 05a6 4C       		.byte	0x4c
 1044 05a7 08       		.uleb128 0x8
 1045 05a8 723800   		.ascii	"r8\000"
 1046 05ab 0B       		.byte	0xb
 1047 05ac 0B01     		.2byte	0x10b
 1048 05ae 76040000 		.4byte	0x476
 1049 05b2 50       		.byte	0x50
 1050 05b3 08       		.uleb128 0x8
 1051 05b4 723900   		.ascii	"r9\000"
 1052 05b7 0B       		.byte	0xb
 1053 05b8 0C01     		.2byte	0x10c
 1054 05ba 76040000 		.4byte	0x476
 1055 05be 54       		.byte	0x54
 1056 05bf 08       		.uleb128 0x8
 1057 05c0 72313000 		.ascii	"r10\000"
 1058 05c4 0B       		.byte	0xb
 1059 05c5 0D01     		.2byte	0x10d
 1060 05c7 76040000 		.4byte	0x476
 1061 05cb 58       		.byte	0x58
 1062 05cc 08       		.uleb128 0x8
 1063 05cd 72313100 		.ascii	"r11\000"
 1064 05d1 0B       		.byte	0xb
 1065 05d2 0E01     		.2byte	0x10e
 1066 05d4 76040000 		.4byte	0x476
 1067 05d8 5C       		.byte	0x5c
 1068 05d9 08       		.uleb128 0x8
 1069 05da 6C7200   		.ascii	"lr\000"
 1070 05dd 0B       		.byte	0xb
 1071 05de 0F01     		.2byte	0x10f
 1072 05e0 76040000 		.4byte	0x476
 1073 05e4 60       		.byte	0x60
 1074 05e5 00       		.byte	0
 1075 05e6 0A       		.uleb128 0xa
 1076 05e7 04       		.byte	0x4
 1077 05e8 A5040000 		.4byte	0x4a5
 1078 05ec 11       		.uleb128 0x11
ARM GAS  C:\Users\IDONNO~1\AppData\Local\Temp\ccKDU1Er.s 			page 20


 1079 05ed 04       		.byte	0x4
 1080 05ee 0C       		.byte	0xc
 1081 05ef 38       		.byte	0x38
 1082 05f0 01060000 		.4byte	0x601
 1083 05f4 07       		.uleb128 0x7
 1084 05f5 AA040000 		.4byte	.LASF87
 1085 05f9 0C       		.byte	0xc
 1086 05fa 3C       		.byte	0x3c
 1087 05fb D3000000 		.4byte	0xd3
 1088 05ff 00       		.byte	0
 1089 0600 00       		.byte	0
 1090 0601 03       		.uleb128 0x3
 1091 0602 EB020000 		.4byte	.LASF88
 1092 0606 0C       		.byte	0xc
 1093 0607 3D       		.byte	0x3d
 1094 0608 EC050000 		.4byte	0x5ec
 1095 060c 12       		.uleb128 0x12
 1096 060d 04       		.byte	0x4
 1097 060e 09       		.byte	0x9
 1098 060f FA       		.byte	0xfa
 1099 0610 69060000 		.4byte	0x669
 1100 0614 13       		.uleb128 0x13
 1101 0615 14000000 		.4byte	.LASF89
 1102 0619 09       		.byte	0x9
 1103 061a 0101     		.2byte	0x101
 1104 061c 15010000 		.4byte	0x115
 1105 0620 13       		.uleb128 0x13
 1106 0621 60000000 		.4byte	.LASF90
 1107 0625 09       		.byte	0x9
 1108 0626 0801     		.2byte	0x108
 1109 0628 15010000 		.4byte	0x115
 1110 062c 13       		.uleb128 0x13
 1111 062d 62060000 		.4byte	.LASF91
 1112 0631 09       		.byte	0x9
 1113 0632 0F01     		.2byte	0x10f
 1114 0634 39030000 		.4byte	0x339
 1115 0638 13       		.uleb128 0x13
 1116 0639 F7000000 		.4byte	.LASF92
 1117 063d 09       		.byte	0x9
 1118 063e 1601     		.2byte	0x116
 1119 0640 69060000 		.4byte	0x669
 1120 0644 13       		.uleb128 0x13
 1121 0645 C0010000 		.4byte	.LASF93
 1122 0649 09       		.byte	0x9
 1123 064a 1E01     		.2byte	0x11e
 1124 064c 94060000 		.4byte	0x694
 1125 0650 13       		.uleb128 0x13
 1126 0651 1D040000 		.4byte	.LASF94
 1127 0655 09       		.byte	0x9
 1128 0656 2701     		.2byte	0x127
 1129 0658 CB060000 		.4byte	0x6cb
 1130 065c 13       		.uleb128 0x13
 1131 065d CA030000 		.4byte	.LASF95
 1132 0661 09       		.byte	0x9
 1133 0662 2F01     		.2byte	0x12f
 1134 0664 20010000 		.4byte	0x120
 1135 0668 00       		.byte	0
ARM GAS  C:\Users\IDONNO~1\AppData\Local\Temp\ccKDU1Er.s 			page 21


 1136 0669 0A       		.uleb128 0xa
 1137 066a 04       		.byte	0x4
 1138 066b 51020000 		.4byte	0x251
 1139 066f 06       		.uleb128 0x6
 1140 0670 F1030000 		.4byte	.LASF96
 1141 0674 0C       		.byte	0xc
 1142 0675 0D       		.byte	0xd
 1143 0676 34       		.byte	0x34
 1144 0677 94060000 		.4byte	0x694
 1145 067b 07       		.uleb128 0x7
 1146 067c 46010000 		.4byte	.LASF97
 1147 0680 0D       		.byte	0xd
 1148 0681 35       		.byte	0x35
 1149 0682 86020000 		.4byte	0x286
 1150 0686 00       		.byte	0
 1151 0687 07       		.uleb128 0x7
 1152 0688 E8010000 		.4byte	.LASF98
 1153 068c 0D       		.byte	0xd
 1154 068d 37       		.byte	0x37
 1155 068e 2B010000 		.4byte	0x12b
 1156 0692 08       		.byte	0x8
 1157 0693 00       		.byte	0
 1158 0694 0A       		.uleb128 0xa
 1159 0695 04       		.byte	0x4
 1160 0696 6F060000 		.4byte	0x66f
 1161 069a 06       		.uleb128 0x6
 1162 069b 20050000 		.4byte	.LASF99
 1163 069f 10       		.byte	0x10
 1164 06a0 0E       		.byte	0xe
 1165 06a1 39       		.byte	0x39
 1166 06a2 CB060000 		.4byte	0x6cb
 1167 06a6 07       		.uleb128 0x7
 1168 06a7 D1000000 		.4byte	.LASF100
 1169 06ab 0E       		.byte	0xe
 1170 06ac 3A       		.byte	0x3a
 1171 06ad 86020000 		.4byte	0x286
 1172 06b1 00       		.byte	0
 1173 06b2 07       		.uleb128 0x7
 1174 06b3 A8060000 		.4byte	.LASF101
 1175 06b7 0E       		.byte	0xe
 1176 06b8 3C       		.byte	0x3c
 1177 06b9 5C020000 		.4byte	0x25c
 1178 06bd 08       		.byte	0x8
 1179 06be 07       		.uleb128 0x7
 1180 06bf 70040000 		.4byte	.LASF102
 1181 06c3 0E       		.byte	0xe
 1182 06c4 3E       		.byte	0x3e
 1183 06c5 0E070000 		.4byte	0x70e
 1184 06c9 0C       		.byte	0xc
 1185 06ca 00       		.byte	0
 1186 06cb 0A       		.uleb128 0xa
 1187 06cc 04       		.byte	0x4
 1188 06cd 9A060000 		.4byte	0x69a
 1189 06d1 0A       		.uleb128 0xa
 1190 06d2 04       		.byte	0x4
 1191 06d3 DE060000 		.4byte	0x6de
 1192 06d7 04       		.uleb128 0x4
ARM GAS  C:\Users\IDONNO~1\AppData\Local\Temp\ccKDU1Er.s 			page 22


 1193 06d8 01       		.byte	0x1
 1194 06d9 08       		.byte	0x8
 1195 06da 4E040000 		.4byte	.LASF103
 1196 06de 14       		.uleb128 0x14
 1197 06df D7060000 		.4byte	0x6d7
 1198 06e3 05       		.uleb128 0x5
 1199 06e4 36010000 		.4byte	0x136
 1200 06e8 0A       		.uleb128 0xa
 1201 06e9 04       		.byte	0x4
 1202 06ea 3B030000 		.4byte	0x33b
 1203 06ee 05       		.uleb128 0x5
 1204 06ef D1060000 		.4byte	0x6d1
 1205 06f3 15       		.uleb128 0x15
 1206 06f4 81040000 		.4byte	0x481
 1207 06f8 03070000 		.4byte	0x703
 1208 06fc 16       		.uleb128 0x16
 1209 06fd 6F040000 		.4byte	0x46f
 1210 0701 3A       		.byte	0x3a
 1211 0702 00       		.byte	0
 1212 0703 03       		.uleb128 0x3
 1213 0704 74010000 		.4byte	.LASF104
 1214 0708 0E       		.byte	0xe
 1215 0709 34       		.byte	0x34
 1216 070a 9A060000 		.4byte	0x69a
 1217 070e 0A       		.uleb128 0xa
 1218 070f 04       		.byte	0x4
 1219 0710 03070000 		.4byte	0x703
 1220 0714 04       		.uleb128 0x4
 1221 0715 01       		.byte	0x1
 1222 0716 02       		.byte	0x2
 1223 0717 72030000 		.4byte	.LASF105
 1224 071b 17       		.uleb128 0x17
 1225 071c 91010000 		.4byte	.LASF124
 1226 0720 03       		.byte	0x3
 1227 0721 E4       		.byte	0xe4
 1228 0722 36010000 		.4byte	0x136
 1229 0726 03       		.byte	0x3
 1230 0727 18       		.uleb128 0x18
 1231 0728 95060000 		.4byte	.LASF125
 1232 072c 02       		.byte	0x2
 1233 072d 84       		.byte	0x84
 1234 072e 03       		.byte	0x3
 1235 072f 3F070000 		.4byte	0x73f
 1236 0733 19       		.uleb128 0x19
 1237 0734 E3010000 		.4byte	.LASF106
 1238 0738 02       		.byte	0x2
 1239 0739 84       		.byte	0x84
 1240 073a D1060000 		.4byte	0x6d1
 1241 073e 00       		.byte	0
 1242 073f 1A       		.uleb128 0x1a
 1243 0740 4C030000 		.4byte	.LASF126
 1244 0744 03       		.byte	0x3
 1245 0745 0901     		.2byte	0x109
 1246 0747 36010000 		.4byte	0x136
 1247 074b 03       		.byte	0x3
 1248 074c 5D070000 		.4byte	0x75d
 1249 0750 1B       		.uleb128 0x1b
ARM GAS  C:\Users\IDONNO~1\AppData\Local\Temp\ccKDU1Er.s 			page 23


 1250 0751 8F060000 		.4byte	.LASF107
 1251 0755 03       		.byte	0x3
 1252 0756 0901     		.2byte	0x109
 1253 0758 36010000 		.4byte	0x136
 1254 075c 00       		.byte	0
 1255 075d 1C       		.uleb128 0x1c
 1256 075e 8E030000 		.4byte	.LASF127
 1257 0762 01       		.byte	0x1
 1258 0763 3A       		.byte	0x3a
 1259 0764 00000000 		.4byte	.LFB260
 1260 0768 6C000000 		.4byte	.LFE260-.LFB260
 1261 076c 01       		.uleb128 0x1
 1262 076d 9C       		.byte	0x9c
 1263 076e DF070000 		.4byte	0x7df
 1264 0772 1D       		.uleb128 0x1d
 1265 0773 61726700 		.ascii	"arg\000"
 1266 0777 01       		.byte	0x1
 1267 0778 3A       		.byte	0x3a
 1268 0779 39030000 		.4byte	0x339
 1269 077d 00000000 		.4byte	.LLST0
 1270 0781 1E       		.uleb128 0x1e
 1271 0782 27070000 		.4byte	0x727
 1272 0786 02000000 		.4byte	.LBB12
 1273 078a 00000000 		.4byte	.Ldebug_ranges0+0
 1274 078e 01       		.byte	0x1
 1275 078f 3E       		.byte	0x3e
 1276 0790 A1070000 		.4byte	0x7a1
 1277 0794 1F       		.uleb128 0x1f
 1278 0795 33070000 		.4byte	0x733
 1279 0799 06       		.uleb128 0x6
 1280 079a 03       		.byte	0x3
 1281 079b 00000000 		.4byte	.LC0
 1282 079f 9F       		.byte	0x9f
 1283 07a0 00       		.byte	0
 1284 07a1 20       		.uleb128 0x20
 1285 07a2 3F070000 		.4byte	0x73f
 1286 07a6 20000000 		.4byte	.LBB16
 1287 07aa 02000000 		.4byte	.LBE16-.LBB16
 1288 07ae 01       		.byte	0x1
 1289 07af 42       		.byte	0x42
 1290 07b0 CE070000 		.4byte	0x7ce
 1291 07b4 21       		.uleb128 0x21
 1292 07b5 50070000 		.4byte	0x750
 1293 07b9 21000000 		.4byte	.LLST1
 1294 07bd 22       		.uleb128 0x22
 1295 07be 1B070000 		.4byte	0x71b
 1296 07c2 20000000 		.4byte	.LBB18
 1297 07c6 02000000 		.4byte	.LBE18-.LBB18
 1298 07ca 03       		.byte	0x3
 1299 07cb 0B01     		.2byte	0x10b
 1300 07cd 00       		.byte	0
 1301 07ce 23       		.uleb128 0x23
 1302 07cf 46000000 		.4byte	.LVL4
 1303 07d3 00090000 		.4byte	0x900
 1304 07d7 24       		.uleb128 0x24
 1305 07d8 01       		.uleb128 0x1
 1306 07d9 50       		.byte	0x50
ARM GAS  C:\Users\IDONNO~1\AppData\Local\Temp\ccKDU1Er.s 			page 24


 1307 07da 02       		.uleb128 0x2
 1308 07db 08       		.byte	0x8
 1309 07dc 64       		.byte	0x64
 1310 07dd 00       		.byte	0
 1311 07de 00       		.byte	0
 1312 07df 25       		.uleb128 0x25
 1313 07e0 10010000 		.4byte	.LASF109
 1314 07e4 01       		.byte	0x1
 1315 07e5 2A       		.byte	0x2a
 1316 07e6 00000000 		.4byte	.LFB256
 1317 07ea 0C000000 		.4byte	.LFE256-.LFB256
 1318 07ee 01       		.uleb128 0x1
 1319 07ef 9C       		.byte	0x9c
 1320 07f0 02080000 		.4byte	0x802
 1321 07f4 26       		.uleb128 0x26
 1322 07f5 DB010000 		.4byte	.LASF108
 1323 07f9 01       		.byte	0x1
 1324 07fa 2A       		.byte	0x2a
 1325 07fb 36010000 		.4byte	0x136
 1326 07ff 01       		.uleb128 0x1
 1327 0800 50       		.byte	0x50
 1328 0801 00       		.byte	0
 1329 0802 25       		.uleb128 0x25
 1330 0803 69060000 		.4byte	.LASF110
 1331 0807 01       		.byte	0x1
 1332 0808 2E       		.byte	0x2e
 1333 0809 00000000 		.4byte	.LFB257
 1334 080d 14000000 		.4byte	.LFE257-.LFB257
 1335 0811 01       		.uleb128 0x1
 1336 0812 9C       		.byte	0x9c
 1337 0813 27080000 		.4byte	0x827
 1338 0817 27       		.uleb128 0x27
 1339 0818 1B070000 		.4byte	0x71b
 1340 081c 00000000 		.4byte	.LBB20
 1341 0820 18000000 		.4byte	.Ldebug_ranges0+0x18
 1342 0824 01       		.byte	0x1
 1343 0825 2F       		.byte	0x2f
 1344 0826 00       		.byte	0
 1345 0827 28       		.uleb128 0x28
 1346 0828 5C040000 		.4byte	.LASF111
 1347 082c 01       		.byte	0x1
 1348 082d 32       		.byte	0x32
 1349 082e 14070000 		.4byte	0x714
 1350 0832 00000000 		.4byte	.LFB258
 1351 0836 0C000000 		.4byte	.LFE258-.LFB258
 1352 083a 01       		.uleb128 0x1
 1353 083b 9C       		.byte	0x9c
 1354 083c 28       		.uleb128 0x28
 1355 083d EE010000 		.4byte	.LASF112
 1356 0841 01       		.byte	0x1
 1357 0842 36       		.byte	0x36
 1358 0843 36010000 		.4byte	0x136
 1359 0847 00000000 		.4byte	.LFB259
 1360 084b 0C000000 		.4byte	.LFE259-.LFB259
 1361 084f 01       		.uleb128 0x1
 1362 0850 9C       		.byte	0x9c
 1363 0851 25       		.uleb128 0x25
ARM GAS  C:\Users\IDONNO~1\AppData\Local\Temp\ccKDU1Er.s 			page 25


 1364 0852 EA000000 		.4byte	.LASF113
 1365 0856 01       		.byte	0x1
 1366 0857 50       		.byte	0x50
 1367 0858 00000000 		.4byte	.LFB261
 1368 085c 40000000 		.4byte	.LFE261-.LFB261
 1369 0860 01       		.uleb128 0x1
 1370 0861 9C       		.byte	0x9c
 1371 0862 90080000 		.4byte	0x890
 1372 0866 23       		.uleb128 0x23
 1373 0867 26000000 		.4byte	.LVL6
 1374 086b 0B090000 		.4byte	0x90b
 1375 086f 24       		.uleb128 0x24
 1376 0870 01       		.uleb128 0x1
 1377 0871 50       		.byte	0x50
 1378 0872 05       		.uleb128 0x5
 1379 0873 03       		.byte	0x3
 1380 0874 00000000 		.4byte	.LANCHOR3
 1381 0878 24       		.uleb128 0x24
 1382 0879 01       		.uleb128 0x1
 1383 087a 51       		.byte	0x51
 1384 087b 03       		.uleb128 0x3
 1385 087c 0A       		.byte	0xa
 1386 087d 9803     		.2byte	0x398
 1387 087f 24       		.uleb128 0x24
 1388 0880 01       		.uleb128 0x1
 1389 0881 52       		.byte	0x52
 1390 0882 02       		.uleb128 0x2
 1391 0883 08       		.byte	0x8
 1392 0884 40       		.byte	0x40
 1393 0885 24       		.uleb128 0x24
 1394 0886 01       		.uleb128 0x1
 1395 0887 53       		.byte	0x53
 1396 0888 05       		.uleb128 0x5
 1397 0889 03       		.byte	0x3
 1398 088a 00000000 		.4byte	timeout_thread
 1399 088e 00       		.byte	0
 1400 088f 00       		.byte	0
 1401 0890 29       		.uleb128 0x29
 1402 0891 5F010000 		.4byte	.LASF114
 1403 0895 01       		.byte	0x1
 1404 0896 21       		.byte	0x21
 1405 0897 E3060000 		.4byte	0x6e3
 1406 089b 05       		.uleb128 0x5
 1407 089c 03       		.byte	0x3
 1408 089d 00000000 		.4byte	timeout_msec
 1409 08a1 29       		.uleb128 0x29
 1410 08a2 F8040000 		.4byte	.LASF115
 1411 08a6 01       		.byte	0x1
 1412 08a7 22       		.byte	0x22
 1413 08a8 E3060000 		.4byte	0x6e3
 1414 08ac 05       		.uleb128 0x5
 1415 08ad 03       		.byte	0x3
 1416 08ae 00000000 		.4byte	last_update_time
 1417 08b2 29       		.uleb128 0x29
 1418 08b3 0E030000 		.4byte	.LASF116
 1419 08b7 01       		.byte	0x1
 1420 08b8 23       		.byte	0x23
ARM GAS  C:\Users\IDONNO~1\AppData\Local\Temp\ccKDU1Er.s 			page 26


 1421 08b9 C3080000 		.4byte	0x8c3
 1422 08bd 05       		.uleb128 0x5
 1423 08be 03       		.byte	0x3
 1424 08bf 00000000 		.4byte	has_timeout
 1425 08c3 05       		.uleb128 0x5
 1426 08c4 14070000 		.4byte	0x714
 1427 08c8 15       		.uleb128 0x15
 1428 08c9 81040000 		.4byte	0x481
 1429 08cd D8080000 		.4byte	0x8d8
 1430 08d1 16       		.uleb128 0x16
 1431 08d2 6F040000 		.4byte	0x46f
 1432 08d6 72       		.byte	0x72
 1433 08d7 00       		.byte	0
 1434 08d8 29       		.uleb128 0x29
 1435 08d9 2A020000 		.4byte	.LASF117
 1436 08dd 01       		.byte	0x1
 1437 08de 26       		.byte	0x26
 1438 08df C8080000 		.4byte	0x8c8
 1439 08e3 05       		.uleb128 0x5
 1440 08e4 03       		.byte	0x3
 1441 08e5 00000000 		.4byte	timeout_thread_wa
 1442 08e9 2A       		.uleb128 0x2a
 1443 08ea 8A000000 		.4byte	.LASF118
 1444 08ee 10       		.byte	0x10
 1445 08ef A706     		.2byte	0x6a7
 1446 08f1 CE000000 		.4byte	0xce
 1447 08f5 2B       		.uleb128 0x2b
 1448 08f6 636800   		.ascii	"ch\000"
 1449 08f9 09       		.byte	0x9
 1450 08fa 0902     		.2byte	0x209
 1451 08fc 08040000 		.4byte	0x408
 1452 0900 2C       		.uleb128 0x2c
 1453 0901 09040000 		.4byte	.LASF119
 1454 0905 09040000 		.4byte	.LASF119
 1455 0909 0F       		.byte	0xf
 1456 090a 96       		.byte	0x96
 1457 090b 2C       		.uleb128 0x2c
 1458 090c 7F020000 		.4byte	.LASF120
 1459 0910 7F020000 		.4byte	.LASF120
 1460 0914 0F       		.byte	0xf
 1461 0915 89       		.byte	0x89
 1462 0916 00       		.byte	0
 1463              		.section	.debug_abbrev,"",%progbits
 1464              	.Ldebug_abbrev0:
 1465 0000 01       		.uleb128 0x1
 1466 0001 11       		.uleb128 0x11
 1467 0002 01       		.byte	0x1
 1468 0003 25       		.uleb128 0x25
 1469 0004 0E       		.uleb128 0xe
 1470 0005 13       		.uleb128 0x13
 1471 0006 0B       		.uleb128 0xb
 1472 0007 03       		.uleb128 0x3
 1473 0008 0E       		.uleb128 0xe
 1474 0009 1B       		.uleb128 0x1b
 1475 000a 0E       		.uleb128 0xe
 1476 000b 55       		.uleb128 0x55
 1477 000c 17       		.uleb128 0x17
ARM GAS  C:\Users\IDONNO~1\AppData\Local\Temp\ccKDU1Er.s 			page 27


 1478 000d 11       		.uleb128 0x11
 1479 000e 01       		.uleb128 0x1
 1480 000f 10       		.uleb128 0x10
 1481 0010 17       		.uleb128 0x17
 1482 0011 00       		.byte	0
 1483 0012 00       		.byte	0
 1484 0013 02       		.uleb128 0x2
 1485 0014 24       		.uleb128 0x24
 1486 0015 00       		.byte	0
 1487 0016 0B       		.uleb128 0xb
 1488 0017 0B       		.uleb128 0xb
 1489 0018 3E       		.uleb128 0x3e
 1490 0019 0B       		.uleb128 0xb
 1491 001a 03       		.uleb128 0x3
 1492 001b 08       		.uleb128 0x8
 1493 001c 00       		.byte	0
 1494 001d 00       		.byte	0
 1495 001e 03       		.uleb128 0x3
 1496 001f 16       		.uleb128 0x16
 1497 0020 00       		.byte	0
 1498 0021 03       		.uleb128 0x3
 1499 0022 0E       		.uleb128 0xe
 1500 0023 3A       		.uleb128 0x3a
 1501 0024 0B       		.uleb128 0xb
 1502 0025 3B       		.uleb128 0x3b
 1503 0026 0B       		.uleb128 0xb
 1504 0027 49       		.uleb128 0x49
 1505 0028 13       		.uleb128 0x13
 1506 0029 00       		.byte	0
 1507 002a 00       		.byte	0
 1508 002b 04       		.uleb128 0x4
 1509 002c 24       		.uleb128 0x24
 1510 002d 00       		.byte	0
 1511 002e 0B       		.uleb128 0xb
 1512 002f 0B       		.uleb128 0xb
 1513 0030 3E       		.uleb128 0x3e
 1514 0031 0B       		.uleb128 0xb
 1515 0032 03       		.uleb128 0x3
 1516 0033 0E       		.uleb128 0xe
 1517 0034 00       		.byte	0
 1518 0035 00       		.byte	0
 1519 0036 05       		.uleb128 0x5
 1520 0037 35       		.uleb128 0x35
 1521 0038 00       		.byte	0
 1522 0039 49       		.uleb128 0x49
 1523 003a 13       		.uleb128 0x13
 1524 003b 00       		.byte	0
 1525 003c 00       		.byte	0
 1526 003d 06       		.uleb128 0x6
 1527 003e 13       		.uleb128 0x13
 1528 003f 01       		.byte	0x1
 1529 0040 03       		.uleb128 0x3
 1530 0041 0E       		.uleb128 0xe
 1531 0042 0B       		.uleb128 0xb
 1532 0043 0B       		.uleb128 0xb
 1533 0044 3A       		.uleb128 0x3a
 1534 0045 0B       		.uleb128 0xb
ARM GAS  C:\Users\IDONNO~1\AppData\Local\Temp\ccKDU1Er.s 			page 28


 1535 0046 3B       		.uleb128 0x3b
 1536 0047 0B       		.uleb128 0xb
 1537 0048 01       		.uleb128 0x1
 1538 0049 13       		.uleb128 0x13
 1539 004a 00       		.byte	0
 1540 004b 00       		.byte	0
 1541 004c 07       		.uleb128 0x7
 1542 004d 0D       		.uleb128 0xd
 1543 004e 00       		.byte	0
 1544 004f 03       		.uleb128 0x3
 1545 0050 0E       		.uleb128 0xe
 1546 0051 3A       		.uleb128 0x3a
 1547 0052 0B       		.uleb128 0xb
 1548 0053 3B       		.uleb128 0x3b
 1549 0054 0B       		.uleb128 0xb
 1550 0055 49       		.uleb128 0x49
 1551 0056 13       		.uleb128 0x13
 1552 0057 38       		.uleb128 0x38
 1553 0058 0B       		.uleb128 0xb
 1554 0059 00       		.byte	0
 1555 005a 00       		.byte	0
 1556 005b 08       		.uleb128 0x8
 1557 005c 0D       		.uleb128 0xd
 1558 005d 00       		.byte	0
 1559 005e 03       		.uleb128 0x3
 1560 005f 08       		.uleb128 0x8
 1561 0060 3A       		.uleb128 0x3a
 1562 0061 0B       		.uleb128 0xb
 1563 0062 3B       		.uleb128 0x3b
 1564 0063 05       		.uleb128 0x5
 1565 0064 49       		.uleb128 0x49
 1566 0065 13       		.uleb128 0x13
 1567 0066 38       		.uleb128 0x38
 1568 0067 0B       		.uleb128 0xb
 1569 0068 00       		.byte	0
 1570 0069 00       		.byte	0
 1571 006a 09       		.uleb128 0x9
 1572 006b 0D       		.uleb128 0xd
 1573 006c 00       		.byte	0
 1574 006d 03       		.uleb128 0x3
 1575 006e 0E       		.uleb128 0xe
 1576 006f 3A       		.uleb128 0x3a
 1577 0070 0B       		.uleb128 0xb
 1578 0071 3B       		.uleb128 0x3b
 1579 0072 05       		.uleb128 0x5
 1580 0073 49       		.uleb128 0x49
 1581 0074 13       		.uleb128 0x13
 1582 0075 38       		.uleb128 0x38
 1583 0076 0B       		.uleb128 0xb
 1584 0077 00       		.byte	0
 1585 0078 00       		.byte	0
 1586 0079 0A       		.uleb128 0xa
 1587 007a 0F       		.uleb128 0xf
 1588 007b 00       		.byte	0
 1589 007c 0B       		.uleb128 0xb
 1590 007d 0B       		.uleb128 0xb
 1591 007e 49       		.uleb128 0x49
ARM GAS  C:\Users\IDONNO~1\AppData\Local\Temp\ccKDU1Er.s 			page 29


 1592 007f 13       		.uleb128 0x13
 1593 0080 00       		.byte	0
 1594 0081 00       		.byte	0
 1595 0082 0B       		.uleb128 0xb
 1596 0083 13       		.uleb128 0x13
 1597 0084 01       		.byte	0x1
 1598 0085 03       		.uleb128 0x3
 1599 0086 0E       		.uleb128 0xe
 1600 0087 0B       		.uleb128 0xb
 1601 0088 0B       		.uleb128 0xb
 1602 0089 3A       		.uleb128 0x3a
 1603 008a 0B       		.uleb128 0xb
 1604 008b 3B       		.uleb128 0x3b
 1605 008c 05       		.uleb128 0x5
 1606 008d 01       		.uleb128 0x1
 1607 008e 13       		.uleb128 0x13
 1608 008f 00       		.byte	0
 1609 0090 00       		.byte	0
 1610 0091 0C       		.uleb128 0xc
 1611 0092 15       		.uleb128 0x15
 1612 0093 01       		.byte	0x1
 1613 0094 27       		.uleb128 0x27
 1614 0095 19       		.uleb128 0x19
 1615 0096 01       		.uleb128 0x1
 1616 0097 13       		.uleb128 0x13
 1617 0098 00       		.byte	0
 1618 0099 00       		.byte	0
 1619 009a 0D       		.uleb128 0xd
 1620 009b 05       		.uleb128 0x5
 1621 009c 00       		.byte	0
 1622 009d 49       		.uleb128 0x49
 1623 009e 13       		.uleb128 0x13
 1624 009f 00       		.byte	0
 1625 00a0 00       		.byte	0
 1626 00a1 0E       		.uleb128 0xe
 1627 00a2 0F       		.uleb128 0xf
 1628 00a3 00       		.byte	0
 1629 00a4 0B       		.uleb128 0xb
 1630 00a5 0B       		.uleb128 0xb
 1631 00a6 00       		.byte	0
 1632 00a7 00       		.byte	0
 1633 00a8 0F       		.uleb128 0xf
 1634 00a9 13       		.uleb128 0x13
 1635 00aa 01       		.byte	0x1
 1636 00ab 03       		.uleb128 0x3
 1637 00ac 0E       		.uleb128 0xe
 1638 00ad 0B       		.uleb128 0xb
 1639 00ae 05       		.uleb128 0x5
 1640 00af 3A       		.uleb128 0x3a
 1641 00b0 0B       		.uleb128 0xb
 1642 00b1 3B       		.uleb128 0x3b
 1643 00b2 05       		.uleb128 0x5
 1644 00b3 01       		.uleb128 0x1
 1645 00b4 13       		.uleb128 0x13
 1646 00b5 00       		.byte	0
 1647 00b6 00       		.byte	0
 1648 00b7 10       		.uleb128 0x10
ARM GAS  C:\Users\IDONNO~1\AppData\Local\Temp\ccKDU1Er.s 			page 30


 1649 00b8 0D       		.uleb128 0xd
 1650 00b9 00       		.byte	0
 1651 00ba 03       		.uleb128 0x3
 1652 00bb 08       		.uleb128 0x8
 1653 00bc 3A       		.uleb128 0x3a
 1654 00bd 0B       		.uleb128 0xb
 1655 00be 3B       		.uleb128 0x3b
 1656 00bf 0B       		.uleb128 0xb
 1657 00c0 49       		.uleb128 0x49
 1658 00c1 13       		.uleb128 0x13
 1659 00c2 38       		.uleb128 0x38
 1660 00c3 0B       		.uleb128 0xb
 1661 00c4 00       		.byte	0
 1662 00c5 00       		.byte	0
 1663 00c6 11       		.uleb128 0x11
 1664 00c7 13       		.uleb128 0x13
 1665 00c8 01       		.byte	0x1
 1666 00c9 0B       		.uleb128 0xb
 1667 00ca 0B       		.uleb128 0xb
 1668 00cb 3A       		.uleb128 0x3a
 1669 00cc 0B       		.uleb128 0xb
 1670 00cd 3B       		.uleb128 0x3b
 1671 00ce 0B       		.uleb128 0xb
 1672 00cf 01       		.uleb128 0x1
 1673 00d0 13       		.uleb128 0x13
 1674 00d1 00       		.byte	0
 1675 00d2 00       		.byte	0
 1676 00d3 12       		.uleb128 0x12
 1677 00d4 17       		.uleb128 0x17
 1678 00d5 01       		.byte	0x1
 1679 00d6 0B       		.uleb128 0xb
 1680 00d7 0B       		.uleb128 0xb
 1681 00d8 3A       		.uleb128 0x3a
 1682 00d9 0B       		.uleb128 0xb
 1683 00da 3B       		.uleb128 0x3b
 1684 00db 0B       		.uleb128 0xb
 1685 00dc 01       		.uleb128 0x1
 1686 00dd 13       		.uleb128 0x13
 1687 00de 00       		.byte	0
 1688 00df 00       		.byte	0
 1689 00e0 13       		.uleb128 0x13
 1690 00e1 0D       		.uleb128 0xd
 1691 00e2 00       		.byte	0
 1692 00e3 03       		.uleb128 0x3
 1693 00e4 0E       		.uleb128 0xe
 1694 00e5 3A       		.uleb128 0x3a
 1695 00e6 0B       		.uleb128 0xb
 1696 00e7 3B       		.uleb128 0x3b
 1697 00e8 05       		.uleb128 0x5
 1698 00e9 49       		.uleb128 0x49
 1699 00ea 13       		.uleb128 0x13
 1700 00eb 00       		.byte	0
 1701 00ec 00       		.byte	0
 1702 00ed 14       		.uleb128 0x14
 1703 00ee 26       		.uleb128 0x26
 1704 00ef 00       		.byte	0
 1705 00f0 49       		.uleb128 0x49
ARM GAS  C:\Users\IDONNO~1\AppData\Local\Temp\ccKDU1Er.s 			page 31


 1706 00f1 13       		.uleb128 0x13
 1707 00f2 00       		.byte	0
 1708 00f3 00       		.byte	0
 1709 00f4 15       		.uleb128 0x15
 1710 00f5 01       		.uleb128 0x1
 1711 00f6 01       		.byte	0x1
 1712 00f7 49       		.uleb128 0x49
 1713 00f8 13       		.uleb128 0x13
 1714 00f9 01       		.uleb128 0x1
 1715 00fa 13       		.uleb128 0x13
 1716 00fb 00       		.byte	0
 1717 00fc 00       		.byte	0
 1718 00fd 16       		.uleb128 0x16
 1719 00fe 21       		.uleb128 0x21
 1720 00ff 00       		.byte	0
 1721 0100 49       		.uleb128 0x49
 1722 0101 13       		.uleb128 0x13
 1723 0102 2F       		.uleb128 0x2f
 1724 0103 0B       		.uleb128 0xb
 1725 0104 00       		.byte	0
 1726 0105 00       		.byte	0
 1727 0106 17       		.uleb128 0x17
 1728 0107 2E       		.uleb128 0x2e
 1729 0108 00       		.byte	0
 1730 0109 03       		.uleb128 0x3
 1731 010a 0E       		.uleb128 0xe
 1732 010b 3A       		.uleb128 0x3a
 1733 010c 0B       		.uleb128 0xb
 1734 010d 3B       		.uleb128 0x3b
 1735 010e 0B       		.uleb128 0xb
 1736 010f 27       		.uleb128 0x27
 1737 0110 19       		.uleb128 0x19
 1738 0111 49       		.uleb128 0x49
 1739 0112 13       		.uleb128 0x13
 1740 0113 20       		.uleb128 0x20
 1741 0114 0B       		.uleb128 0xb
 1742 0115 00       		.byte	0
 1743 0116 00       		.byte	0
 1744 0117 18       		.uleb128 0x18
 1745 0118 2E       		.uleb128 0x2e
 1746 0119 01       		.byte	0x1
 1747 011a 03       		.uleb128 0x3
 1748 011b 0E       		.uleb128 0xe
 1749 011c 3A       		.uleb128 0x3a
 1750 011d 0B       		.uleb128 0xb
 1751 011e 3B       		.uleb128 0x3b
 1752 011f 0B       		.uleb128 0xb
 1753 0120 27       		.uleb128 0x27
 1754 0121 19       		.uleb128 0x19
 1755 0122 20       		.uleb128 0x20
 1756 0123 0B       		.uleb128 0xb
 1757 0124 01       		.uleb128 0x1
 1758 0125 13       		.uleb128 0x13
 1759 0126 00       		.byte	0
 1760 0127 00       		.byte	0
 1761 0128 19       		.uleb128 0x19
 1762 0129 05       		.uleb128 0x5
ARM GAS  C:\Users\IDONNO~1\AppData\Local\Temp\ccKDU1Er.s 			page 32


 1763 012a 00       		.byte	0
 1764 012b 03       		.uleb128 0x3
 1765 012c 0E       		.uleb128 0xe
 1766 012d 3A       		.uleb128 0x3a
 1767 012e 0B       		.uleb128 0xb
 1768 012f 3B       		.uleb128 0x3b
 1769 0130 0B       		.uleb128 0xb
 1770 0131 49       		.uleb128 0x49
 1771 0132 13       		.uleb128 0x13
 1772 0133 00       		.byte	0
 1773 0134 00       		.byte	0
 1774 0135 1A       		.uleb128 0x1a
 1775 0136 2E       		.uleb128 0x2e
 1776 0137 01       		.byte	0x1
 1777 0138 03       		.uleb128 0x3
 1778 0139 0E       		.uleb128 0xe
 1779 013a 3A       		.uleb128 0x3a
 1780 013b 0B       		.uleb128 0xb
 1781 013c 3B       		.uleb128 0x3b
 1782 013d 05       		.uleb128 0x5
 1783 013e 27       		.uleb128 0x27
 1784 013f 19       		.uleb128 0x19
 1785 0140 49       		.uleb128 0x49
 1786 0141 13       		.uleb128 0x13
 1787 0142 20       		.uleb128 0x20
 1788 0143 0B       		.uleb128 0xb
 1789 0144 01       		.uleb128 0x1
 1790 0145 13       		.uleb128 0x13
 1791 0146 00       		.byte	0
 1792 0147 00       		.byte	0
 1793 0148 1B       		.uleb128 0x1b
 1794 0149 05       		.uleb128 0x5
 1795 014a 00       		.byte	0
 1796 014b 03       		.uleb128 0x3
 1797 014c 0E       		.uleb128 0xe
 1798 014d 3A       		.uleb128 0x3a
 1799 014e 0B       		.uleb128 0xb
 1800 014f 3B       		.uleb128 0x3b
 1801 0150 05       		.uleb128 0x5
 1802 0151 49       		.uleb128 0x49
 1803 0152 13       		.uleb128 0x13
 1804 0153 00       		.byte	0
 1805 0154 00       		.byte	0
 1806 0155 1C       		.uleb128 0x1c
 1807 0156 2E       		.uleb128 0x2e
 1808 0157 01       		.byte	0x1
 1809 0158 03       		.uleb128 0x3
 1810 0159 0E       		.uleb128 0xe
 1811 015a 3A       		.uleb128 0x3a
 1812 015b 0B       		.uleb128 0xb
 1813 015c 3B       		.uleb128 0x3b
 1814 015d 0B       		.uleb128 0xb
 1815 015e 27       		.uleb128 0x27
 1816 015f 19       		.uleb128 0x19
 1817 0160 8701     		.uleb128 0x87
 1818 0162 19       		.uleb128 0x19
 1819 0163 11       		.uleb128 0x11
ARM GAS  C:\Users\IDONNO~1\AppData\Local\Temp\ccKDU1Er.s 			page 33


 1820 0164 01       		.uleb128 0x1
 1821 0165 12       		.uleb128 0x12
 1822 0166 06       		.uleb128 0x6
 1823 0167 40       		.uleb128 0x40
 1824 0168 18       		.uleb128 0x18
 1825 0169 9742     		.uleb128 0x2117
 1826 016b 19       		.uleb128 0x19
 1827 016c 01       		.uleb128 0x1
 1828 016d 13       		.uleb128 0x13
 1829 016e 00       		.byte	0
 1830 016f 00       		.byte	0
 1831 0170 1D       		.uleb128 0x1d
 1832 0171 05       		.uleb128 0x5
 1833 0172 00       		.byte	0
 1834 0173 03       		.uleb128 0x3
 1835 0174 08       		.uleb128 0x8
 1836 0175 3A       		.uleb128 0x3a
 1837 0176 0B       		.uleb128 0xb
 1838 0177 3B       		.uleb128 0x3b
 1839 0178 0B       		.uleb128 0xb
 1840 0179 49       		.uleb128 0x49
 1841 017a 13       		.uleb128 0x13
 1842 017b 02       		.uleb128 0x2
 1843 017c 17       		.uleb128 0x17
 1844 017d 00       		.byte	0
 1845 017e 00       		.byte	0
 1846 017f 1E       		.uleb128 0x1e
 1847 0180 1D       		.uleb128 0x1d
 1848 0181 01       		.byte	0x1
 1849 0182 31       		.uleb128 0x31
 1850 0183 13       		.uleb128 0x13
 1851 0184 52       		.uleb128 0x52
 1852 0185 01       		.uleb128 0x1
 1853 0186 55       		.uleb128 0x55
 1854 0187 17       		.uleb128 0x17
 1855 0188 58       		.uleb128 0x58
 1856 0189 0B       		.uleb128 0xb
 1857 018a 59       		.uleb128 0x59
 1858 018b 0B       		.uleb128 0xb
 1859 018c 01       		.uleb128 0x1
 1860 018d 13       		.uleb128 0x13
 1861 018e 00       		.byte	0
 1862 018f 00       		.byte	0
 1863 0190 1F       		.uleb128 0x1f
 1864 0191 05       		.uleb128 0x5
 1865 0192 00       		.byte	0
 1866 0193 31       		.uleb128 0x31
 1867 0194 13       		.uleb128 0x13
 1868 0195 02       		.uleb128 0x2
 1869 0196 18       		.uleb128 0x18
 1870 0197 00       		.byte	0
 1871 0198 00       		.byte	0
 1872 0199 20       		.uleb128 0x20
 1873 019a 1D       		.uleb128 0x1d
 1874 019b 01       		.byte	0x1
 1875 019c 31       		.uleb128 0x31
 1876 019d 13       		.uleb128 0x13
ARM GAS  C:\Users\IDONNO~1\AppData\Local\Temp\ccKDU1Er.s 			page 34


 1877 019e 11       		.uleb128 0x11
 1878 019f 01       		.uleb128 0x1
 1879 01a0 12       		.uleb128 0x12
 1880 01a1 06       		.uleb128 0x6
 1881 01a2 58       		.uleb128 0x58
 1882 01a3 0B       		.uleb128 0xb
 1883 01a4 59       		.uleb128 0x59
 1884 01a5 0B       		.uleb128 0xb
 1885 01a6 01       		.uleb128 0x1
 1886 01a7 13       		.uleb128 0x13
 1887 01a8 00       		.byte	0
 1888 01a9 00       		.byte	0
 1889 01aa 21       		.uleb128 0x21
 1890 01ab 05       		.uleb128 0x5
 1891 01ac 00       		.byte	0
 1892 01ad 31       		.uleb128 0x31
 1893 01ae 13       		.uleb128 0x13
 1894 01af 02       		.uleb128 0x2
 1895 01b0 17       		.uleb128 0x17
 1896 01b1 00       		.byte	0
 1897 01b2 00       		.byte	0
 1898 01b3 22       		.uleb128 0x22
 1899 01b4 1D       		.uleb128 0x1d
 1900 01b5 00       		.byte	0
 1901 01b6 31       		.uleb128 0x31
 1902 01b7 13       		.uleb128 0x13
 1903 01b8 11       		.uleb128 0x11
 1904 01b9 01       		.uleb128 0x1
 1905 01ba 12       		.uleb128 0x12
 1906 01bb 06       		.uleb128 0x6
 1907 01bc 58       		.uleb128 0x58
 1908 01bd 0B       		.uleb128 0xb
 1909 01be 59       		.uleb128 0x59
 1910 01bf 05       		.uleb128 0x5
 1911 01c0 00       		.byte	0
 1912 01c1 00       		.byte	0
 1913 01c2 23       		.uleb128 0x23
 1914 01c3 898201   		.uleb128 0x4109
 1915 01c6 01       		.byte	0x1
 1916 01c7 11       		.uleb128 0x11
 1917 01c8 01       		.uleb128 0x1
 1918 01c9 31       		.uleb128 0x31
 1919 01ca 13       		.uleb128 0x13
 1920 01cb 00       		.byte	0
 1921 01cc 00       		.byte	0
 1922 01cd 24       		.uleb128 0x24
 1923 01ce 8A8201   		.uleb128 0x410a
 1924 01d1 00       		.byte	0
 1925 01d2 02       		.uleb128 0x2
 1926 01d3 18       		.uleb128 0x18
 1927 01d4 9142     		.uleb128 0x2111
 1928 01d6 18       		.uleb128 0x18
 1929 01d7 00       		.byte	0
 1930 01d8 00       		.byte	0
 1931 01d9 25       		.uleb128 0x25
 1932 01da 2E       		.uleb128 0x2e
 1933 01db 01       		.byte	0x1
ARM GAS  C:\Users\IDONNO~1\AppData\Local\Temp\ccKDU1Er.s 			page 35


 1934 01dc 3F       		.uleb128 0x3f
 1935 01dd 19       		.uleb128 0x19
 1936 01de 03       		.uleb128 0x3
 1937 01df 0E       		.uleb128 0xe
 1938 01e0 3A       		.uleb128 0x3a
 1939 01e1 0B       		.uleb128 0xb
 1940 01e2 3B       		.uleb128 0x3b
 1941 01e3 0B       		.uleb128 0xb
 1942 01e4 27       		.uleb128 0x27
 1943 01e5 19       		.uleb128 0x19
 1944 01e6 11       		.uleb128 0x11
 1945 01e7 01       		.uleb128 0x1
 1946 01e8 12       		.uleb128 0x12
 1947 01e9 06       		.uleb128 0x6
 1948 01ea 40       		.uleb128 0x40
 1949 01eb 18       		.uleb128 0x18
 1950 01ec 9742     		.uleb128 0x2117
 1951 01ee 19       		.uleb128 0x19
 1952 01ef 01       		.uleb128 0x1
 1953 01f0 13       		.uleb128 0x13
 1954 01f1 00       		.byte	0
 1955 01f2 00       		.byte	0
 1956 01f3 26       		.uleb128 0x26
 1957 01f4 05       		.uleb128 0x5
 1958 01f5 00       		.byte	0
 1959 01f6 03       		.uleb128 0x3
 1960 01f7 0E       		.uleb128 0xe
 1961 01f8 3A       		.uleb128 0x3a
 1962 01f9 0B       		.uleb128 0xb
 1963 01fa 3B       		.uleb128 0x3b
 1964 01fb 0B       		.uleb128 0xb
 1965 01fc 49       		.uleb128 0x49
 1966 01fd 13       		.uleb128 0x13
 1967 01fe 02       		.uleb128 0x2
 1968 01ff 18       		.uleb128 0x18
 1969 0200 00       		.byte	0
 1970 0201 00       		.byte	0
 1971 0202 27       		.uleb128 0x27
 1972 0203 1D       		.uleb128 0x1d
 1973 0204 00       		.byte	0
 1974 0205 31       		.uleb128 0x31
 1975 0206 13       		.uleb128 0x13
 1976 0207 52       		.uleb128 0x52
 1977 0208 01       		.uleb128 0x1
 1978 0209 55       		.uleb128 0x55
 1979 020a 17       		.uleb128 0x17
 1980 020b 58       		.uleb128 0x58
 1981 020c 0B       		.uleb128 0xb
 1982 020d 59       		.uleb128 0x59
 1983 020e 0B       		.uleb128 0xb
 1984 020f 00       		.byte	0
 1985 0210 00       		.byte	0
 1986 0211 28       		.uleb128 0x28
 1987 0212 2E       		.uleb128 0x2e
 1988 0213 00       		.byte	0
 1989 0214 3F       		.uleb128 0x3f
 1990 0215 19       		.uleb128 0x19
ARM GAS  C:\Users\IDONNO~1\AppData\Local\Temp\ccKDU1Er.s 			page 36


 1991 0216 03       		.uleb128 0x3
 1992 0217 0E       		.uleb128 0xe
 1993 0218 3A       		.uleb128 0x3a
 1994 0219 0B       		.uleb128 0xb
 1995 021a 3B       		.uleb128 0x3b
 1996 021b 0B       		.uleb128 0xb
 1997 021c 27       		.uleb128 0x27
 1998 021d 19       		.uleb128 0x19
 1999 021e 49       		.uleb128 0x49
 2000 021f 13       		.uleb128 0x13
 2001 0220 11       		.uleb128 0x11
 2002 0221 01       		.uleb128 0x1
 2003 0222 12       		.uleb128 0x12
 2004 0223 06       		.uleb128 0x6
 2005 0224 40       		.uleb128 0x40
 2006 0225 18       		.uleb128 0x18
 2007 0226 9742     		.uleb128 0x2117
 2008 0228 19       		.uleb128 0x19
 2009 0229 00       		.byte	0
 2010 022a 00       		.byte	0
 2011 022b 29       		.uleb128 0x29
 2012 022c 34       		.uleb128 0x34
 2013 022d 00       		.byte	0
 2014 022e 03       		.uleb128 0x3
 2015 022f 0E       		.uleb128 0xe
 2016 0230 3A       		.uleb128 0x3a
 2017 0231 0B       		.uleb128 0xb
 2018 0232 3B       		.uleb128 0x3b
 2019 0233 0B       		.uleb128 0xb
 2020 0234 49       		.uleb128 0x49
 2021 0235 13       		.uleb128 0x13
 2022 0236 02       		.uleb128 0x2
 2023 0237 18       		.uleb128 0x18
 2024 0238 00       		.byte	0
 2025 0239 00       		.byte	0
 2026 023a 2A       		.uleb128 0x2a
 2027 023b 34       		.uleb128 0x34
 2028 023c 00       		.byte	0
 2029 023d 03       		.uleb128 0x3
 2030 023e 0E       		.uleb128 0xe
 2031 023f 3A       		.uleb128 0x3a
 2032 0240 0B       		.uleb128 0xb
 2033 0241 3B       		.uleb128 0x3b
 2034 0242 05       		.uleb128 0x5
 2035 0243 49       		.uleb128 0x49
 2036 0244 13       		.uleb128 0x13
 2037 0245 3F       		.uleb128 0x3f
 2038 0246 19       		.uleb128 0x19
 2039 0247 3C       		.uleb128 0x3c
 2040 0248 19       		.uleb128 0x19
 2041 0249 00       		.byte	0
 2042 024a 00       		.byte	0
 2043 024b 2B       		.uleb128 0x2b
 2044 024c 34       		.uleb128 0x34
 2045 024d 00       		.byte	0
 2046 024e 03       		.uleb128 0x3
 2047 024f 08       		.uleb128 0x8
ARM GAS  C:\Users\IDONNO~1\AppData\Local\Temp\ccKDU1Er.s 			page 37


 2048 0250 3A       		.uleb128 0x3a
 2049 0251 0B       		.uleb128 0xb
 2050 0252 3B       		.uleb128 0x3b
 2051 0253 05       		.uleb128 0x5
 2052 0254 49       		.uleb128 0x49
 2053 0255 13       		.uleb128 0x13
 2054 0256 3F       		.uleb128 0x3f
 2055 0257 19       		.uleb128 0x19
 2056 0258 3C       		.uleb128 0x3c
 2057 0259 19       		.uleb128 0x19
 2058 025a 00       		.byte	0
 2059 025b 00       		.byte	0
 2060 025c 2C       		.uleb128 0x2c
 2061 025d 2E       		.uleb128 0x2e
 2062 025e 00       		.byte	0
 2063 025f 3F       		.uleb128 0x3f
 2064 0260 19       		.uleb128 0x19
 2065 0261 3C       		.uleb128 0x3c
 2066 0262 19       		.uleb128 0x19
 2067 0263 6E       		.uleb128 0x6e
 2068 0264 0E       		.uleb128 0xe
 2069 0265 03       		.uleb128 0x3
 2070 0266 0E       		.uleb128 0xe
 2071 0267 3A       		.uleb128 0x3a
 2072 0268 0B       		.uleb128 0xb
 2073 0269 3B       		.uleb128 0x3b
 2074 026a 0B       		.uleb128 0xb
 2075 026b 00       		.byte	0
 2076 026c 00       		.byte	0
 2077 026d 00       		.byte	0
 2078              		.section	.debug_loc,"",%progbits
 2079              	.Ldebug_loc0:
 2080              	.LLST0:
 2081 0000 00000000 		.4byte	.LVL0
 2082 0004 1C000000 		.4byte	.LVL1
 2083 0008 0100     		.2byte	0x1
 2084 000a 50       		.byte	0x50
 2085 000b 1C000000 		.4byte	.LVL1
 2086 000f 6C000000 		.4byte	.LFE260
 2087 0013 0400     		.2byte	0x4
 2088 0015 F3       		.byte	0xf3
 2089 0016 01       		.uleb128 0x1
 2090 0017 50       		.byte	0x50
 2091 0018 9F       		.byte	0x9f
 2092 0019 00000000 		.4byte	0
 2093 001d 00000000 		.4byte	0
 2094              	.LLST1:
 2095 0021 20000000 		.4byte	.LVL2
 2096 0025 22000000 		.4byte	.LVL3
 2097 0029 0100     		.2byte	0x1
 2098 002b 51       		.byte	0x51
 2099 002c 00000000 		.4byte	0
 2100 0030 00000000 		.4byte	0
 2101              		.section	.debug_aranges,"",%progbits
 2102 0000 44000000 		.4byte	0x44
 2103 0004 0200     		.2byte	0x2
 2104 0006 00000000 		.4byte	.Ldebug_info0
ARM GAS  C:\Users\IDONNO~1\AppData\Local\Temp\ccKDU1Er.s 			page 38


 2105 000a 04       		.byte	0x4
 2106 000b 00       		.byte	0
 2107 000c 0000     		.2byte	0
 2108 000e 0000     		.2byte	0
 2109 0010 00000000 		.4byte	.LFB260
 2110 0014 6C000000 		.4byte	.LFE260-.LFB260
 2111 0018 00000000 		.4byte	.LFB256
 2112 001c 0C000000 		.4byte	.LFE256-.LFB256
 2113 0020 00000000 		.4byte	.LFB257
 2114 0024 14000000 		.4byte	.LFE257-.LFB257
 2115 0028 00000000 		.4byte	.LFB258
 2116 002c 0C000000 		.4byte	.LFE258-.LFB258
 2117 0030 00000000 		.4byte	.LFB259
 2118 0034 0C000000 		.4byte	.LFE259-.LFB259
 2119 0038 00000000 		.4byte	.LFB261
 2120 003c 40000000 		.4byte	.LFE261-.LFB261
 2121 0040 00000000 		.4byte	0
 2122 0044 00000000 		.4byte	0
 2123              		.section	.debug_ranges,"",%progbits
 2124              	.Ldebug_ranges0:
 2125 0000 02000000 		.4byte	.LBB12
 2126 0004 10000000 		.4byte	.LBE12
 2127 0008 14000000 		.4byte	.LBB15
 2128 000c 16000000 		.4byte	.LBE15
 2129 0010 00000000 		.4byte	0
 2130 0014 00000000 		.4byte	0
 2131 0018 00000000 		.4byte	.LBB20
 2132 001c 02000000 		.4byte	.LBE20
 2133 0020 04000000 		.4byte	.LBB23
 2134 0024 06000000 		.4byte	.LBE23
 2135 0028 00000000 		.4byte	0
 2136 002c 00000000 		.4byte	0
 2137 0030 00000000 		.4byte	.LFB260
 2138 0034 6C000000 		.4byte	.LFE260
 2139 0038 00000000 		.4byte	.LFB256
 2140 003c 0C000000 		.4byte	.LFE256
 2141 0040 00000000 		.4byte	.LFB257
 2142 0044 14000000 		.4byte	.LFE257
 2143 0048 00000000 		.4byte	.LFB258
 2144 004c 0C000000 		.4byte	.LFE258
 2145 0050 00000000 		.4byte	.LFB259
 2146 0054 0C000000 		.4byte	.LFE259
 2147 0058 00000000 		.4byte	.LFB261
 2148 005c 40000000 		.4byte	.LFE261
 2149 0060 00000000 		.4byte	0
 2150 0064 00000000 		.4byte	0
 2151              		.section	.debug_line,"",%progbits
 2152              	.Ldebug_line0:
 2153 0000 68030000 		.section	.debug_str,"MS",%progbits,1
 2153      02009802 
 2153      00000201 
 2153      FB0E0D00 
 2153      01010101 
 2154              	.LASF54:
 2155 0000 72656164 		.ascii	"ready_list_t\000"
 2155      795F6C69 
 2155      73745F74 
ARM GAS  C:\Users\IDONNO~1\AppData\Local\Temp\ccKDU1Er.s 			page 39


 2155      00
 2156              	.LASF2:
 2157 000d 73697A65 		.ascii	"size_t\000"
 2157      5F7400
 2158              	.LASF89:
 2159 0014 7264796D 		.ascii	"rdymsg\000"
 2159      736700
 2160              	.LASF17:
 2161 001b 75696E74 		.ascii	"uint64_t\000"
 2161      36345F74 
 2161      00
 2162              	.LASF3:
 2163 0024 5F5F7569 		.ascii	"__uint8_t\000"
 2163      6E74385F 
 2163      7400
 2164              	.LASF86:
 2165 002e 706F7274 		.ascii	"port_intctx\000"
 2165      5F696E74 
 2165      63747800 
 2166              	.LASF73:
 2167 003a 73797374 		.ascii	"system_debug_t\000"
 2167      656D5F64 
 2167      65627567 
 2167      5F7400
 2168              	.LASF13:
 2169 0049 6C6F6E67 		.ascii	"long long unsigned int\000"
 2169      206C6F6E 
 2169      6720756E 
 2169      7369676E 
 2169      65642069 
 2170              	.LASF90:
 2171 0060 65786974 		.ascii	"exitcode\000"
 2171      636F6465 
 2171      00
 2172              	.LASF80:
 2173 0069 6D61696E 		.ascii	"mainthread\000"
 2173      74687265 
 2173      616400
 2174              	.LASF70:
 2175 0074 76697274 		.ascii	"virtual_timers_list_t\000"
 2175      75616C5F 
 2175      74696D65 
 2175      72735F6C 
 2175      6973745F 
 2176              	.LASF118:
 2177 008a 49544D5F 		.ascii	"ITM_RxBuffer\000"
 2177      52784275 
 2177      66666572 
 2177      00
 2178              	.LASF53:
 2179 0097 63685F74 		.ascii	"ch_threads_queue\000"
 2179      68726561 
 2179      64735F71 
 2179      75657565 
 2179      00
 2180              	.LASF31:
 2181 00a8 705F7072 		.ascii	"p_prio\000"
ARM GAS  C:\Users\IDONNO~1\AppData\Local\Temp\ccKDU1Er.s 			page 40


 2181      696F00
 2182              	.LASF11:
 2183 00af 6C6F6E67 		.ascii	"long long int\000"
 2183      206C6F6E 
 2183      6720696E 
 2183      7400
 2184              	.LASF1:
 2185 00bd 7369676E 		.ascii	"signed char\000"
 2185      65642063 
 2185      68617200 
 2186              	.LASF47:
 2187 00c9 705F6D70 		.ascii	"p_mpool\000"
 2187      6F6F6C00 
 2188              	.LASF100:
 2189 00d1 6D5F7175 		.ascii	"m_queue\000"
 2189      65756500 
 2190              	.LASF79:
 2191 00d9 76746C69 		.ascii	"vtlist\000"
 2191      737400
 2192              	.LASF22:
 2193 00e0 74736C69 		.ascii	"tslices_t\000"
 2193      6365735F 
 2193      7400
 2194              	.LASF113:
 2195 00ea 74696D65 		.ascii	"timeout_init\000"
 2195      6F75745F 
 2195      696E6974 
 2195      00
 2196              	.LASF92:
 2197 00f7 77747472 		.ascii	"wttrp\000"
 2197      7000
 2198              	.LASF77:
 2199 00fd 63685F73 		.ascii	"ch_system\000"
 2199      79737465 
 2199      6D00
 2200              	.LASF8:
 2201 0107 6C6F6E67 		.ascii	"long int\000"
 2201      20696E74 
 2201      00
 2202              	.LASF109:
 2203 0110 74696D65 		.ascii	"timeout_configure\000"
 2203      6F75745F 
 2203      636F6E66 
 2203      69677572 
 2203      6500
 2204              	.LASF20:
 2205 0122 74737461 		.ascii	"tstate_t\000"
 2205      74655F74 
 2205      00
 2206              	.LASF122:
 2207 012b 7372632F 		.ascii	"src/core/timeout.c\000"
 2207      636F7265 
 2207      2F74696D 
 2207      656F7574 
 2207      2E6300
 2208              	.LASF33:
 2209 013e 705F6E65 		.ascii	"p_newer\000"
ARM GAS  C:\Users\IDONNO~1\AppData\Local\Temp\ccKDU1Er.s 			page 41


 2209      77657200 
 2210              	.LASF97:
 2211 0146 735F7175 		.ascii	"s_queue\000"
 2211      65756500 
 2212              	.LASF59:
 2213 014e 725F6E65 		.ascii	"r_newer\000"
 2213      77657200 
 2214              	.LASF83:
 2215 0156 72656761 		.ascii	"regarm_t\000"
 2215      726D5F74 
 2215      00
 2216              	.LASF114:
 2217 015f 74696D65 		.ascii	"timeout_msec\000"
 2217      6F75745F 
 2217      6D736563 
 2217      00
 2218              	.LASF66:
 2219 016c 76745F70 		.ascii	"vt_prev\000"
 2219      72657600 
 2220              	.LASF104:
 2221 0174 6D757465 		.ascii	"mutex_t\000"
 2221      785F7400 
 2222              	.LASF81:
 2223 017c 69646C65 		.ascii	"idle_thread_wa\000"
 2223      5F746872 
 2223      6561645F 
 2223      776100
 2224              	.LASF26:
 2225 018b 636E745F 		.ascii	"cnt_t\000"
 2225      7400
 2226              	.LASF124:
 2227 0191 63685654 		.ascii	"chVTGetSystemTimeX\000"
 2227      47657453 
 2227      79737465 
 2227      6D54696D 
 2227      655800
 2228              	.LASF0:
 2229 01a4 756E7369 		.ascii	"unsigned int\000"
 2229      676E6564 
 2229      20696E74 
 2229      00
 2230              	.LASF65:
 2231 01b1 76745F6E 		.ascii	"vt_next\000"
 2231      65787400 
 2232              	.LASF40:
 2233 01b9 705F7469 		.ascii	"p_time\000"
 2233      6D6500
 2234              	.LASF93:
 2235 01c0 77747365 		.ascii	"wtsemp\000"
 2235      6D7000
 2236              	.LASF67:
 2237 01c7 76745F64 		.ascii	"vt_delta\000"
 2237      656C7461 
 2237      00
 2238              	.LASF42:
 2239 01d0 705F6D73 		.ascii	"p_msgqueue\000"
 2239      67717565 
ARM GAS  C:\Users\IDONNO~1\AppData\Local\Temp\ccKDU1Er.s 			page 42


 2239      756500
 2240              	.LASF108:
 2241 01db 74696D65 		.ascii	"timeout\000"
 2241      6F757400 
 2242              	.LASF106:
 2243 01e3 6E616D65 		.ascii	"name\000"
 2243      00
 2244              	.LASF98:
 2245 01e8 735F636E 		.ascii	"s_cnt\000"
 2245      7400
 2246              	.LASF112:
 2247 01ee 74696D65 		.ascii	"timeout_get_timeout_msec\000"
 2247      6F75745F 
 2247      6765745F 
 2247      74696D65 
 2247      6F75745F 
 2248              	.LASF6:
 2249 0207 73686F72 		.ascii	"short unsigned int\000"
 2249      7420756E 
 2249      7369676E 
 2249      65642069 
 2249      6E7400
 2250              	.LASF50:
 2251 021a 63685F74 		.ascii	"ch_thread\000"
 2251      68726561 
 2251      6400
 2252              	.LASF24:
 2253 0224 6D73675F 		.ascii	"msg_t\000"
 2253      7400
 2254              	.LASF117:
 2255 022a 74696D65 		.ascii	"timeout_thread_wa\000"
 2255      6F75745F 
 2255      74687265 
 2255      61645F77 
 2255      6100
 2256              	.LASF76:
 2257 023c 63685F73 		.ascii	"ch_system_t\000"
 2257      79737465 
 2257      6D5F7400 
 2258              	.LASF19:
 2259 0248 746D6F64 		.ascii	"tmode_t\000"
 2259      655F7400 
 2260              	.LASF55:
 2261 0250 63685F72 		.ascii	"ch_ready_list\000"
 2261      65616479 
 2261      5F6C6973 
 2261      7400
 2262              	.LASF25:
 2263 025e 6576656E 		.ascii	"eventmask_t\000"
 2263      746D6173 
 2263      6B5F7400 
 2264              	.LASF7:
 2265 026a 5F5F696E 		.ascii	"__int32_t\000"
 2265      7433325F 
 2265      7400
 2266              	.LASF84:
 2267 0274 73746B61 		.ascii	"stkalign_t\000"
ARM GAS  C:\Users\IDONNO~1\AppData\Local\Temp\ccKDU1Er.s 			page 43


 2267      6C69676E 
 2267      5F7400
 2268              	.LASF120:
 2269 027f 63685468 		.ascii	"chThdCreateStatic\000"
 2269      64437265 
 2269      61746553 
 2269      74617469 
 2269      6300
 2270              	.LASF49:
 2271 0291 74687265 		.ascii	"threads_list_t\000"
 2271      6164735F 
 2271      6C697374 
 2271      5F7400
 2272              	.LASF41:
 2273 02a0 705F7761 		.ascii	"p_waiting\000"
 2273      6974696E 
 2273      6700
 2274              	.LASF82:
 2275 02aa 73697A65 		.ascii	"sizetype\000"
 2275      74797065 
 2275      00
 2276              	.LASF48:
 2277 02b3 74687265 		.ascii	"thread_reference_t\000"
 2277      61645F72 
 2277      65666572 
 2277      656E6365 
 2277      5F7400
 2278              	.LASF71:
 2279 02c6 63685F76 		.ascii	"ch_virtual_timers_list\000"
 2279      69727475 
 2279      616C5F74 
 2279      696D6572 
 2279      735F6C69 
 2280              	.LASF34:
 2281 02dd 705F6F6C 		.ascii	"p_older\000"
 2281      64657200 
 2282              	.LASF58:
 2283 02e5 725F6374 		.ascii	"r_ctx\000"
 2283      7800
 2284              	.LASF88:
 2285 02eb 746D5F63 		.ascii	"tm_calibration_t\000"
 2285      616C6962 
 2285      72617469 
 2285      6F6E5F74 
 2285      00
 2286              	.LASF61:
 2287 02fc 725F6375 		.ascii	"r_current\000"
 2287      7272656E 
 2287      7400
 2288              	.LASF60:
 2289 0306 725F6F6C 		.ascii	"r_older\000"
 2289      64657200 
 2290              	.LASF116:
 2291 030e 6861735F 		.ascii	"has_timeout\000"
 2291      74696D65 
 2291      6F757400 
 2292              	.LASF12:
ARM GAS  C:\Users\IDONNO~1\AppData\Local\Temp\ccKDU1Er.s 			page 44


 2293 031a 5F5F7569 		.ascii	"__uint64_t\000"
 2293      6E743634 
 2293      5F7400
 2294              	.LASF21:
 2295 0325 74726566 		.ascii	"trefs_t\000"
 2295      735F7400 
 2296              	.LASF63:
 2297 032d 76697274 		.ascii	"virtual_timer_t\000"
 2297      75616C5F 
 2297      74696D65 
 2297      725F7400 
 2298              	.LASF30:
 2299 033d 705F7072 		.ascii	"p_prev\000"
 2299      657600
 2300              	.LASF23:
 2301 0344 74707269 		.ascii	"tprio_t\000"
 2301      6F5F7400 
 2302              	.LASF126:
 2303 034c 63685654 		.ascii	"chVTTimeElapsedSinceX\000"
 2303      54696D65 
 2303      456C6170 
 2303      73656453 
 2303      696E6365 
 2304              	.LASF74:
 2305 0362 63685F73 		.ascii	"ch_system_debug\000"
 2305      79737465 
 2305      6D5F6465 
 2305      62756700 
 2306              	.LASF105:
 2307 0372 5F426F6F 		.ascii	"_Bool\000"
 2307      6C00
 2308              	.LASF15:
 2309 0378 696E7433 		.ascii	"int32_t\000"
 2309      325F7400 
 2310              	.LASF4:
 2311 0380 756E7369 		.ascii	"unsigned char\000"
 2311      676E6564 
 2311      20636861 
 2311      7200
 2312              	.LASF127:
 2313 038e 74696D65 		.ascii	"timeout_thread\000"
 2313      6F75745F 
 2313      74687265 
 2313      616400
 2314              	.LASF45:
 2315 039d 705F6D74 		.ascii	"p_mtxlist\000"
 2315      786C6973 
 2315      7400
 2316              	.LASF5:
 2317 03a7 73686F72 		.ascii	"short int\000"
 2317      7420696E 
 2317      7400
 2318              	.LASF36:
 2319 03b1 705F7374 		.ascii	"p_state\000"
 2319      61746500 
 2320              	.LASF39:
 2321 03b9 705F7072 		.ascii	"p_preempt\000"
ARM GAS  C:\Users\IDONNO~1\AppData\Local\Temp\ccKDU1Er.s 			page 45


 2321      65656D70 
 2321      7400
 2322              	.LASF57:
 2323 03c3 725F7072 		.ascii	"r_prio\000"
 2323      696F00
 2324              	.LASF95:
 2325 03ca 65776D61 		.ascii	"ewmask\000"
 2325      736B00
 2326              	.LASF29:
 2327 03d1 705F6E65 		.ascii	"p_next\000"
 2327      787400
 2328              	.LASF37:
 2329 03d8 705F666C 		.ascii	"p_flags\000"
 2329      61677300 
 2330              	.LASF64:
 2331 03e0 63685F76 		.ascii	"ch_virtual_timer\000"
 2331      69727475 
 2331      616C5F74 
 2331      696D6572 
 2331      00
 2332              	.LASF96:
 2333 03f1 63685F73 		.ascii	"ch_semaphore\000"
 2333      656D6170 
 2333      686F7265 
 2333      00
 2334              	.LASF44:
 2335 03fe 705F6570 		.ascii	"p_epending\000"
 2335      656E6469 
 2335      6E6700
 2336              	.LASF119:
 2337 0409 63685468 		.ascii	"chThdSleep\000"
 2337      64536C65 
 2337      657000
 2338              	.LASF16:
 2339 0414 75696E74 		.ascii	"uint32_t\000"
 2339      33325F74 
 2339      00
 2340              	.LASF94:
 2341 041d 77746D74 		.ascii	"wtmtxp\000"
 2341      787000
 2342              	.LASF56:
 2343 0424 725F7175 		.ascii	"r_queue\000"
 2343      65756500 
 2344              	.LASF51:
 2345 042c 63685F74 		.ascii	"ch_threads_list\000"
 2345      68726561 
 2345      64735F6C 
 2345      69737400 
 2346              	.LASF10:
 2347 043c 6C6F6E67 		.ascii	"long unsigned int\000"
 2347      20756E73 
 2347      69676E65 
 2347      6420696E 
 2347      7400
 2348              	.LASF103:
 2349 044e 63686172 		.ascii	"char\000"
 2349      00
ARM GAS  C:\Users\IDONNO~1\AppData\Local\Temp\ccKDU1Er.s 			page 46


 2350              	.LASF28:
 2351 0453 74687265 		.ascii	"thread_t\000"
 2351      61645F74 
 2351      00
 2352              	.LASF111:
 2353 045c 74696D65 		.ascii	"timeout_has_timeout\000"
 2353      6F75745F 
 2353      6861735F 
 2353      74696D65 
 2353      6F757400 
 2354              	.LASF102:
 2355 0470 6D5F6E65 		.ascii	"m_next\000"
 2355      787400
 2356              	.LASF27:
 2357 0477 73797374 		.ascii	"systime_t\000"
 2357      696D655F 
 2357      7400
 2358              	.LASF46:
 2359 0481 705F7265 		.ascii	"p_realprio\000"
 2359      616C7072 
 2359      696F00
 2360              	.LASF62:
 2361 048c 76746675 		.ascii	"vtfunc_t\000"
 2361      6E635F74 
 2361      00
 2362              	.LASF9:
 2363 0495 5F5F7569 		.ascii	"__uint32_t\000"
 2363      6E743332 
 2363      5F7400
 2364              	.LASF75:
 2365 04a0 70616E69 		.ascii	"panic_msg\000"
 2365      635F6D73 
 2365      6700
 2366              	.LASF87:
 2367 04aa 6F666673 		.ascii	"offset\000"
 2367      657400
 2368              	.LASF85:
 2369 04b1 636F6E74 		.ascii	"context\000"
 2369      65787400 
 2370              	.LASF18:
 2371 04b9 7274636E 		.ascii	"rtcnt_t\000"
 2371      745F7400 
 2372              	.LASF123:
 2373 04c1 443A5C67 		.ascii	"D:\\git\\oroca_bldc_dev\\oroca_bldc_fw\\oroca_bldc_"
 2373      69745C6F 
 2373      726F6361 
 2373      5F626C64 
 2373      635F6465 
 2374 04f0 63686962 		.ascii	"chibios\000"
 2374      696F7300 
 2375              	.LASF115:
 2376 04f8 6C617374 		.ascii	"last_update_time\000"
 2376      5F757064 
 2376      6174655F 
 2376      74696D65 
 2376      00
 2377              	.LASF69:
ARM GAS  C:\Users\IDONNO~1\AppData\Local\Temp\ccKDU1Er.s 			page 47


 2378 0509 76745F70 		.ascii	"vt_par\000"
 2378      617200
 2379              	.LASF52:
 2380 0510 74687265 		.ascii	"threads_queue_t\000"
 2380      6164735F 
 2380      71756575 
 2380      655F7400 
 2381              	.LASF99:
 2382 0520 63685F6D 		.ascii	"ch_mutex\000"
 2382      75746578 
 2382      00
 2383              	.LASF38:
 2384 0529 705F7265 		.ascii	"p_refs\000"
 2384      667300
 2385              	.LASF121:
 2386 0530 474E5520 		.ascii	"GNU C99 5.4.1 20160919 (release) [ARM/embedded-5-br"
 2386      43393920 
 2386      352E342E 
 2386      31203230 
 2386      31363039 
 2387 0563 616E6368 		.ascii	"anch revision 240496] -mcpu=cortex-m4 -mfloat-abi=h"
 2387      20726576 
 2387      6973696F 
 2387      6E203234 
 2387      30343936 
 2388 0596 61726420 		.ascii	"ard -mfpu=fpv4-sp-d16 -mno-thumb-interwork -mthumb "
 2388      2D6D6670 
 2388      753D6670 
 2388      76342D73 
 2388      702D6431 
 2389 05c9 2D676764 		.ascii	"-ggdb -O2 -std=gnu99 -fomit-frame-pointer -falign-f"
 2389      62202D4F 
 2389      32202D73 
 2389      74643D67 
 2389      6E753939 
 2390 05fc 756E6374 		.ascii	"unctions=16 -ffunction-sections -fdata-sections -fn"
 2390      696F6E73 
 2390      3D313620 
 2390      2D666675 
 2390      6E637469 
 2391 062f 6F2D636F 		.ascii	"o-common -fsingle-precision-constant\000"
 2391      6D6D6F6E 
 2391      202D6673 
 2391      696E676C 
 2391      652D7072 
 2392              	.LASF78:
 2393 0654 726C6973 		.ascii	"rlist\000"
 2393      7400
 2394              	.LASF14:
 2395 065a 75696E74 		.ascii	"uint8_t\000"
 2395      385F7400 
 2396              	.LASF91:
 2397 0662 77746F62 		.ascii	"wtobjp\000"
 2397      6A7000
 2398              	.LASF110:
 2399 0669 74696D65 		.ascii	"timeout_reset\000"
 2399      6F75745F 
ARM GAS  C:\Users\IDONNO~1\AppData\Local\Temp\ccKDU1Er.s 			page 48


 2399      72657365 
 2399      7400
 2400              	.LASF35:
 2401 0677 705F6E61 		.ascii	"p_name\000"
 2401      6D6500
 2402              	.LASF72:
 2403 067e 76745F73 		.ascii	"vt_systime\000"
 2403      79737469 
 2403      6D6500
 2404              	.LASF43:
 2405 0689 705F6D73 		.ascii	"p_msg\000"
 2405      6700
 2406              	.LASF107:
 2407 068f 73746172 		.ascii	"start\000"
 2407      7400
 2408              	.LASF125:
 2409 0695 63685265 		.ascii	"chRegSetThreadName\000"
 2409      67536574 
 2409      54687265 
 2409      61644E61 
 2409      6D6500
 2410              	.LASF101:
 2411 06a8 6D5F6F77 		.ascii	"m_owner\000"
 2411      6E657200 
 2412              	.LASF32:
 2413 06b0 705F6374 		.ascii	"p_ctx\000"
 2413      7800
 2414              	.LASF68:
 2415 06b6 76745F66 		.ascii	"vt_func\000"
 2415      756E6300 
 2416              		.ident	"GCC: (GNU Tools for ARM Embedded Processors) 5.4.1 20160919 (release) [ARM/embedded-5-bran
ARM GAS  C:\Users\IDONNO~1\AppData\Local\Temp\ccKDU1Er.s 			page 49


DEFINED SYMBOLS
                            *ABS*:00000000 timeout.c
C:\Users\IDONNO~1\AppData\Local\Temp\ccKDU1Er.s:22     .text.timeout_thread:00000000 $t
C:\Users\IDONNO~1\AppData\Local\Temp\ccKDU1Er.s:27     .text.timeout_thread:00000000 timeout_thread
C:\Users\IDONNO~1\AppData\Local\Temp\ccKDU1Er.s:113    .text.timeout_thread:00000054 $d
C:\Users\IDONNO~1\AppData\Local\Temp\ccKDU1Er.s:123    .text.timeout_configure:00000000 $t
C:\Users\IDONNO~1\AppData\Local\Temp\ccKDU1Er.s:129    .text.timeout_configure:00000000 timeout_configure
C:\Users\IDONNO~1\AppData\Local\Temp\ccKDU1Er.s:144    .text.timeout_configure:00000008 $d
C:\Users\IDONNO~1\AppData\Local\Temp\ccKDU1Er.s:149    .text.timeout_reset:00000000 $t
C:\Users\IDONNO~1\AppData\Local\Temp\ccKDU1Er.s:155    .text.timeout_reset:00000000 timeout_reset
C:\Users\IDONNO~1\AppData\Local\Temp\ccKDU1Er.s:182    .text.timeout_reset:0000000c $d
C:\Users\IDONNO~1\AppData\Local\Temp\ccKDU1Er.s:188    .text.timeout_has_timeout:00000000 $t
C:\Users\IDONNO~1\AppData\Local\Temp\ccKDU1Er.s:194    .text.timeout_has_timeout:00000000 timeout_has_timeout
C:\Users\IDONNO~1\AppData\Local\Temp\ccKDU1Er.s:209    .text.timeout_has_timeout:00000008 $d
C:\Users\IDONNO~1\AppData\Local\Temp\ccKDU1Er.s:214    .text.timeout_get_timeout_msec:00000000 $t
C:\Users\IDONNO~1\AppData\Local\Temp\ccKDU1Er.s:220    .text.timeout_get_timeout_msec:00000000 timeout_get_timeout_msec
C:\Users\IDONNO~1\AppData\Local\Temp\ccKDU1Er.s:235    .text.timeout_get_timeout_msec:00000008 $d
C:\Users\IDONNO~1\AppData\Local\Temp\ccKDU1Er.s:240    .text.timeout_init:00000000 $t
C:\Users\IDONNO~1\AppData\Local\Temp\ccKDU1Er.s:246    .text.timeout_init:00000000 timeout_init
C:\Users\IDONNO~1\AppData\Local\Temp\ccKDU1Er.s:297    .text.timeout_init:0000002c $d
C:\Users\IDONNO~1\AppData\Local\Temp\ccKDU1Er.s:306    .bss.timeout_thread_wa:00000000 $d
C:\Users\IDONNO~1\AppData\Local\Temp\ccKDU1Er.s:310    .bss.timeout_thread_wa:00000000 timeout_thread_wa
C:\Users\IDONNO~1\AppData\Local\Temp\ccKDU1Er.s:313    .bss.last_update_time:00000000 $d
C:\Users\IDONNO~1\AppData\Local\Temp\ccKDU1Er.s:317    .bss.last_update_time:00000000 last_update_time
C:\Users\IDONNO~1\AppData\Local\Temp\ccKDU1Er.s:320    .rodata.str1.4:00000000 $d
C:\Users\IDONNO~1\AppData\Local\Temp\ccKDU1Er.s:327    .bss.has_timeout:00000000 has_timeout
C:\Users\IDONNO~1\AppData\Local\Temp\ccKDU1Er.s:328    .bss.has_timeout:00000000 $d
C:\Users\IDONNO~1\AppData\Local\Temp\ccKDU1Er.s:330    .bss.timeout_msec:00000000 $d
C:\Users\IDONNO~1\AppData\Local\Temp\ccKDU1Er.s:334    .bss.timeout_msec:00000000 timeout_msec
                     .debug_frame:00000010 $d

UNDEFINED SYMBOLS
chThdSleep
ch
chThdCreateStatic
