ARM GAS  C:\Users\USER\AppData\Local\Temp\ccFCUmwf.s 			page 1


   1              		.cpu cortex-m4
   2              		.eabi_attribute 27, 1
   3              		.eabi_attribute 28, 1
   4              		.eabi_attribute 20, 1
   5              		.eabi_attribute 21, 1
   6              		.eabi_attribute 23, 3
   7              		.eabi_attribute 24, 1
   8              		.eabi_attribute 25, 1
   9              		.eabi_attribute 26, 1
  10              		.eabi_attribute 30, 2
  11              		.eabi_attribute 34, 1
  12              		.eabi_attribute 18, 4
  13              		.file	"timeout.c"
  14              		.text
  15              	.Ltext0:
  16              		.cfi_sections	.debug_frame
  17              		.section	.text.timeout_thread,"ax",%progbits
  18              		.align	1
  19              		.p2align 4,,15
  20              		.arch armv7e-m
  21              		.syntax unified
  22              		.thumb
  23              		.thumb_func
  24              		.fpu fpv4-sp-d16
  25              		.type	timeout_thread, %function
  26              	timeout_thread:
  27              	.LVL0:
  28              	.LFB260:
  29              		.file 1 "src/core/timeout.c"
  30              		.loc 1 59 1 view -0
  31              		.cfi_startproc
  32              		@ Volatile: function does not return.
  33              		@ args = 0, pretend = 0, frame = 0
  34              		@ frame_needed = 0, uses_anonymous_args = 0
  35              		.loc 1 60 2 view .LVU1
  36              		.loc 1 62 2 view .LVU2
  37              	.LBB12:
  38              	.LBI12:
  39              		.file 2 "src/ChibiOS_3.0.2/os/rt/include/chregistry.h"
  40              		.loc 2 132 20 view .LVU3
  41              	.LBB13:
  42              		.loc 2 135 3 view .LVU4
  43              	.LBE13:
  44              	.LBE12:
  45              		.loc 1 59 1 is_stmt 0 view .LVU5
  46 0000 80B5     		push	{r7, lr}
  47              		.cfi_def_cfa_offset 8
  48              		.cfi_offset 7, -8
  49              		.cfi_offset 14, -4
  50              	.LBB16:
  51              	.LBB14:
  52              		.loc 2 135 11 view .LVU6
  53 0002 134F     		ldr	r7, .L11
  54              		.loc 2 135 30 view .LVU7
  55 0004 134A     		ldr	r2, .L11+4
  56 0006 BB69     		ldr	r3, [r7, #24]
  57 0008 134C     		ldr	r4, .L11+8
ARM GAS  C:\Users\USER\AppData\Local\Temp\ccFCUmwf.s 			page 2


  58 000a DFF854A0 		ldr	r10, .L11+16
  59 000e 134D     		ldr	r5, .L11+12
  60              	.LBE14:
  61              	.LBE16:
  62              		.loc 1 66 70 view .LVU8
  63 0010 DFF85090 		ldr	r9, .L11+20
  64              	.LBB17:
  65              	.LBB15:
  66              		.loc 2 135 30 view .LVU9
  67 0014 9A61     		str	r2, [r3, #24]
  68              	.LBE15:
  69              	.LBE17:
  70              		.loc 1 72 16 view .LVU10
  71 0016 0026     		movs	r6, #0
  72              		.loc 1 66 70 view .LVU11
  73 0018 42F21078 		movw	r8, #10000
  74 001c 13E0     		b	.L4
  75              	.LVL1:
  76              	.L10:
  77              		.loc 1 68 4 is_stmt 1 discriminator 1 view .LVU12
  78              		.loc 1 66 28 is_stmt 0 discriminator 1 view .LVU13
  79 001e DAF80010 		ldr	r1, [r10]
  80              	.LVL2:
  81              	.LBB18:
  82              	.LBI18:
  83              		.file 3 "src/ChibiOS_3.0.2/os/rt/include/chvt.h"
  84              		.loc 3 265 25 is_stmt 1 discriminator 1 view .LVU14
  85              	.LBB19:
  86              		.loc 3 267 3 discriminator 1 view .LVU15
  87              	.LBB20:
  88              	.LBI20:
  89              		.loc 3 228 25 discriminator 1 view .LVU16
  90              	.LBB21:
  91              		.loc 3 231 3 discriminator 1 view .LVU17
  92              		.loc 3 231 19 is_stmt 0 discriminator 1 view .LVU18
  93 0022 BA6A     		ldr	r2, [r7, #40]
  94              	.LVL3:
  95              		.loc 3 231 19 discriminator 1 view .LVU19
  96              	.LBE21:
  97              	.LBE20:
  98              	.LBE19:
  99              	.LBE18:
 100              		.loc 1 66 70 discriminator 1 view .LVU20
 101 0024 2368     		ldr	r3, [r4]
 102 0026 08FB03F3 		mul	r3, r8, r3
 103 002a 03F2E733 		addw	r3, r3, #999
 104              	.LBB23:
 105              	.LBB22:
 106              		.loc 3 267 31 discriminator 1 view .LVU21
 107 002e 521A     		subs	r2, r2, r1
 108              	.LBE22:
 109              	.LBE23:
 110              		.loc 1 66 70 discriminator 1 view .LVU22
 111 0030 A9FB0313 		umull	r1, r3, r9, r3
 112              		.loc 1 66 25 discriminator 1 view .LVU23
 113 0034 B2EB931F 		cmp	r2, r3, lsr #6
 114              		.loc 1 68 16 discriminator 1 view .LVU24
ARM GAS  C:\Users\USER\AppData\Local\Temp\ccFCUmwf.s 			page 3


 115 0038 4FF00103 		mov	r3, #1
 116              		.loc 1 66 25 discriminator 1 view .LVU25
 117 003c 06D9     		bls	.L2
 118              		.loc 1 68 16 view .LVU26
 119 003e 2B70     		strb	r3, [r5]
 120              	.L3:
 121              		.loc 1 75 3 is_stmt 1 view .LVU27
 122 0040 6420     		movs	r0, #100
 123 0042 FFF7FEFF 		bl	chThdSleep
 124              	.LVL4:
 125              	.L4:
 126              		.loc 1 64 2 view .LVU28
 127              		.loc 1 66 3 view .LVU29
 128              		.loc 1 72 4 view .LVU30
 129              		.loc 1 66 20 is_stmt 0 view .LVU31
 130 0046 2368     		ldr	r3, [r4]
 131              		.loc 1 66 6 view .LVU32
 132 0048 002B     		cmp	r3, #0
 133 004a E8D1     		bne	.L10
 134              	.L2:
 135              		.loc 1 72 16 view .LVU33
 136 004c 2E70     		strb	r6, [r5]
 137 004e F7E7     		b	.L3
 138              	.L12:
 139              		.align	2
 140              	.L11:
 141 0050 00000000 		.word	ch
 142 0054 00000000 		.word	.LC0
 143 0058 00000000 		.word	.LANCHOR0
 144 005c 00000000 		.word	.LANCHOR2
 145 0060 00000000 		.word	.LANCHOR1
 146 0064 D34D6210 		.word	274877907
 147              		.cfi_endproc
 148              	.LFE260:
 149              		.size	timeout_thread, .-timeout_thread
 150              		.section	.text.timeout_configure,"ax",%progbits
 151              		.align	1
 152              		.p2align 4,,15
 153              		.global	timeout_configure
 154              		.syntax unified
 155              		.thumb
 156              		.thumb_func
 157              		.fpu fpv4-sp-d16
 158              		.type	timeout_configure, %function
 159              	timeout_configure:
 160              	.LVL5:
 161              	.LFB256:
 162              		.loc 1 42 43 is_stmt 1 view -0
 163              		.cfi_startproc
 164              		@ args = 0, pretend = 0, frame = 0
 165              		@ frame_needed = 0, uses_anonymous_args = 0
 166              		@ link register save eliminated.
 167              		.loc 1 43 2 view .LVU35
 168              		.loc 1 43 15 is_stmt 0 view .LVU36
 169 0000 014B     		ldr	r3, .L14
 170 0002 1860     		str	r0, [r3]
 171              		.loc 1 44 1 view .LVU37
ARM GAS  C:\Users\USER\AppData\Local\Temp\ccFCUmwf.s 			page 4


 172 0004 7047     		bx	lr
 173              	.L15:
 174 0006 00BF     		.align	2
 175              	.L14:
 176 0008 00000000 		.word	.LANCHOR0
 177              		.cfi_endproc
 178              	.LFE256:
 179              		.size	timeout_configure, .-timeout_configure
 180              		.section	.text.timeout_reset,"ax",%progbits
 181              		.align	1
 182              		.p2align 4,,15
 183              		.global	timeout_reset
 184              		.syntax unified
 185              		.thumb
 186              		.thumb_func
 187              		.fpu fpv4-sp-d16
 188              		.type	timeout_reset, %function
 189              	timeout_reset:
 190              	.LFB257:
 191              		.loc 1 46 26 is_stmt 1 view -0
 192              		.cfi_startproc
 193              		@ args = 0, pretend = 0, frame = 0
 194              		@ frame_needed = 0, uses_anonymous_args = 0
 195              		@ link register save eliminated.
 196              		.loc 1 47 2 view .LVU39
 197              	.LBB24:
 198              	.LBI24:
 199              		.loc 3 228 25 view .LVU40
 200              	.LBB25:
 201              		.loc 3 231 3 view .LVU41
 202              		.loc 3 231 19 is_stmt 0 view .LVU42
 203 0000 024A     		ldr	r2, .L17
 204              	.LBE25:
 205              	.LBE24:
 206              		.loc 1 47 19 view .LVU43
 207 0002 034B     		ldr	r3, .L17+4
 208              	.LBB27:
 209              	.LBB26:
 210              		.loc 3 231 19 view .LVU44
 211 0004 926A     		ldr	r2, [r2, #40]
 212              	.LBE26:
 213              	.LBE27:
 214              		.loc 1 47 19 view .LVU45
 215 0006 1A60     		str	r2, [r3]
 216              		.loc 1 48 1 view .LVU46
 217 0008 7047     		bx	lr
 218              	.L18:
 219 000a 00BF     		.align	2
 220              	.L17:
 221 000c 00000000 		.word	ch
 222 0010 00000000 		.word	.LANCHOR1
 223              		.cfi_endproc
 224              	.LFE257:
 225              		.size	timeout_reset, .-timeout_reset
 226              		.section	.text.timeout_has_timeout,"ax",%progbits
 227              		.align	1
 228              		.p2align 4,,15
ARM GAS  C:\Users\USER\AppData\Local\Temp\ccFCUmwf.s 			page 5


 229              		.global	timeout_has_timeout
 230              		.syntax unified
 231              		.thumb
 232              		.thumb_func
 233              		.fpu fpv4-sp-d16
 234              		.type	timeout_has_timeout, %function
 235              	timeout_has_timeout:
 236              	.LFB258:
 237              		.loc 1 50 32 is_stmt 1 view -0
 238              		.cfi_startproc
 239              		@ args = 0, pretend = 0, frame = 0
 240              		@ frame_needed = 0, uses_anonymous_args = 0
 241              		@ link register save eliminated.
 242              		.loc 1 51 2 view .LVU48
 243              		.loc 1 51 9 is_stmt 0 view .LVU49
 244 0000 014B     		ldr	r3, .L20
 245 0002 1878     		ldrb	r0, [r3]	@ zero_extendqisi2
 246              		.loc 1 52 1 view .LVU50
 247 0004 7047     		bx	lr
 248              	.L21:
 249 0006 00BF     		.align	2
 250              	.L20:
 251 0008 00000000 		.word	.LANCHOR2
 252              		.cfi_endproc
 253              	.LFE258:
 254              		.size	timeout_has_timeout, .-timeout_has_timeout
 255              		.section	.text.timeout_get_timeout_msec,"ax",%progbits
 256              		.align	1
 257              		.p2align 4,,15
 258              		.global	timeout_get_timeout_msec
 259              		.syntax unified
 260              		.thumb
 261              		.thumb_func
 262              		.fpu fpv4-sp-d16
 263              		.type	timeout_get_timeout_msec, %function
 264              	timeout_get_timeout_msec:
 265              	.LFB259:
 266              		.loc 1 54 42 is_stmt 1 view -0
 267              		.cfi_startproc
 268              		@ args = 0, pretend = 0, frame = 0
 269              		@ frame_needed = 0, uses_anonymous_args = 0
 270              		@ link register save eliminated.
 271              		.loc 1 55 2 view .LVU52
 272              		.loc 1 55 9 is_stmt 0 view .LVU53
 273 0000 014B     		ldr	r3, .L23
 274 0002 1868     		ldr	r0, [r3]
 275              		.loc 1 56 1 view .LVU54
 276 0004 7047     		bx	lr
 277              	.L24:
 278 0006 00BF     		.align	2
 279              	.L23:
 280 0008 00000000 		.word	.LANCHOR0
 281              		.cfi_endproc
 282              	.LFE259:
 283              		.size	timeout_get_timeout_msec, .-timeout_get_timeout_msec
 284              		.section	.text.timeout_init,"ax",%progbits
 285              		.align	1
ARM GAS  C:\Users\USER\AppData\Local\Temp\ccFCUmwf.s 			page 6


 286              		.p2align 4,,15
 287              		.global	timeout_init
 288              		.syntax unified
 289              		.thumb
 290              		.thumb_func
 291              		.fpu fpv4-sp-d16
 292              		.type	timeout_init, %function
 293              	timeout_init:
 294              	.LFB261:
 295              		.loc 1 80 25 is_stmt 1 view -0
 296              		.cfi_startproc
 297              		@ args = 0, pretend = 0, frame = 0
 298              		@ frame_needed = 0, uses_anonymous_args = 0
 299              		.loc 1 81 2 view .LVU56
 300              		.loc 1 80 25 is_stmt 0 view .LVU57
 301 0000 30B5     		push	{r4, r5, lr}
 302              		.cfi_def_cfa_offset 12
 303              		.cfi_offset 4, -12
 304              		.cfi_offset 5, -8
 305              		.cfi_offset 14, -4
 306              		.loc 1 81 15 view .LVU58
 307 0002 0A4A     		ldr	r2, .L27
 308              		.loc 1 82 19 view .LVU59
 309 0004 0A49     		ldr	r1, .L27+4
 310              		.loc 1 83 14 view .LVU60
 311 0006 0B4D     		ldr	r5, .L27+8
 312              		.loc 1 85 2 view .LVU61
 313 0008 0B4B     		ldr	r3, .L27+12
 314 000a 0C48     		ldr	r0, .L27+16
 315              		.loc 1 80 25 view .LVU62
 316 000c 83B0     		sub	sp, sp, #12
 317              		.cfi_def_cfa_offset 24
 318              		.loc 1 81 15 view .LVU63
 319 000e 4FF47A74 		mov	r4, #1000
 320 0012 1460     		str	r4, [r2]
 321              		.loc 1 82 2 is_stmt 1 view .LVU64
 322              		.loc 1 82 19 is_stmt 0 view .LVU65
 323 0014 0024     		movs	r4, #0
 324              		.loc 1 85 2 view .LVU66
 325 0016 0094     		str	r4, [sp]
 326 0018 4022     		movs	r2, #64
 327              		.loc 1 82 19 view .LVU67
 328 001a 0C60     		str	r4, [r1]
 329              		.loc 1 83 2 is_stmt 1 view .LVU68
 330              		.loc 1 85 2 is_stmt 0 view .LVU69
 331 001c 4FF46671 		mov	r1, #920
 332              		.loc 1 83 14 view .LVU70
 333 0020 2C70     		strb	r4, [r5]
 334              		.loc 1 85 2 is_stmt 1 view .LVU71
 335 0022 FFF7FEFF 		bl	chThdCreateStatic
 336              	.LVL6:
 337              		.loc 1 86 1 is_stmt 0 view .LVU72
 338 0026 03B0     		add	sp, sp, #12
 339              		.cfi_def_cfa_offset 12
 340              		@ sp needed
 341 0028 30BD     		pop	{r4, r5, pc}
 342              	.L28:
ARM GAS  C:\Users\USER\AppData\Local\Temp\ccFCUmwf.s 			page 7


 343 002a 00BF     		.align	2
 344              	.L27:
 345 002c 00000000 		.word	.LANCHOR0
 346 0030 00000000 		.word	.LANCHOR1
 347 0034 00000000 		.word	.LANCHOR2
 348 0038 00000000 		.word	timeout_thread
 349 003c 00000000 		.word	.LANCHOR3
 350              		.cfi_endproc
 351              	.LFE261:
 352              		.size	timeout_init, .-timeout_init
 353              		.section	.bss.has_timeout,"aw",%nobits
 354              		.set	.LANCHOR2,. + 0
 355              		.type	has_timeout, %object
 356              		.size	has_timeout, 1
 357              	has_timeout:
 358 0000 00       		.space	1
 359              		.section	.bss.last_update_time,"aw",%nobits
 360              		.align	2
 361              		.set	.LANCHOR1,. + 0
 362              		.type	last_update_time, %object
 363              		.size	last_update_time, 4
 364              	last_update_time:
 365 0000 00000000 		.space	4
 366              		.section	.bss.timeout_msec,"aw",%nobits
 367              		.align	2
 368              		.set	.LANCHOR0,. + 0
 369              		.type	timeout_msec, %object
 370              		.size	timeout_msec, 4
 371              	timeout_msec:
 372 0000 00000000 		.space	4
 373              		.section	.bss.timeout_thread_wa,"aw",%nobits
 374              		.align	3
 375              		.set	.LANCHOR3,. + 0
 376              		.type	timeout_thread_wa, %object
 377              		.size	timeout_thread_wa, 920
 378              	timeout_thread_wa:
 379 0000 00000000 		.space	920
 379      00000000 
 379      00000000 
 379      00000000 
 379      00000000 
 380              		.section	.rodata.timeout_thread.str1.4,"aMS",%progbits,1
 381              		.align	2
 382              	.LC0:
 383 0000 54696D65 		.ascii	"Timeout\000"
 383      6F757400 
 384              		.text
 385              	.Letext0:
 386              		.file 4 "c:\\program files (x86)\\gnu tools arm embedded\\8 2018-q4-major\\lib\\gcc\\arm-none-eabi
 387              		.file 5 "c:\\program files (x86)\\gnu tools arm embedded\\8 2018-q4-major\\arm-none-eabi\\include\
 388              		.file 6 "c:\\program files (x86)\\gnu tools arm embedded\\8 2018-q4-major\\arm-none-eabi\\include\
 389              		.file 7 "src/ChibiOS_3.0.2/os/rt/ports/ARMCMx/compilers/GCC/chtypes.h"
 390              		.file 8 "src/ChibiOS_3.0.2/os/rt/include/chsystypes.h"
 391              		.file 9 "src/ChibiOS_3.0.2/os/rt/include/chschd.h"
 392              		.file 10 "src/ChibiOS_3.0.2/os/ext/CMSIS/include/core_cm4.h"
 393              		.file 11 "src/ChibiOS_3.0.2/os/ext/CMSIS/ST/system_stm32f4xx.h"
 394              		.file 12 "src/ChibiOS_3.0.2/os/ext/CMSIS/ST/stm32f407xx.h"
ARM GAS  C:\Users\USER\AppData\Local\Temp\ccFCUmwf.s 			page 8


 395              		.file 13 "src/ChibiOS_3.0.2/os/rt/ports/ARMCMx/chcore.h"
 396              		.file 14 "src/ChibiOS_3.0.2/os/rt/ports/ARMCMx/chcore_v7m.h"
 397              		.file 15 "src/ChibiOS_3.0.2/os/rt/include/chtm.h"
 398              		.file 16 "src/ChibiOS_3.0.2/os/rt/include/chsem.h"
 399              		.file 17 "src/ChibiOS_3.0.2/os/rt/include/chmtx.h"
 400              		.file 18 "src/ChibiOS_3.0.2/os/rt/include/chevents.h"
 401              		.file 19 "src/ChibiOS_3.0.2/os/rt/include/chqueues.h"
 402              		.file 20 "src/ChibiOS_3.0.2/os/hal/ports/STM32/STM32F4xx/stm32_dma.h"
 403              		.file 21 "src/ChibiOS_3.0.2/os/hal/ports/STM32/LLD/GPIOv2/pal_lld.h"
 404              		.file 22 "src/ChibiOS_3.0.2/os/hal/include/can.h"
 405              		.file 23 "src/ChibiOS_3.0.2/os/hal/ports/STM32/LLD/can_lld.h"
 406              		.file 24 "src/ChibiOS_3.0.2/os/hal/include/i2c.h"
 407              		.file 25 "src/ChibiOS_3.0.2/os/hal/ports/STM32/LLD/I2Cv1/i2c_lld.h"
 408              		.file 26 "src/ChibiOS_3.0.2/os/hal/include/icu.h"
 409              		.file 27 "src/ChibiOS_3.0.2/os/hal/ports/STM32/LLD/TIMv1/icu_lld.h"
 410              		.file 28 "src/ChibiOS_3.0.2/os/hal/ports/STM32/LLD/TIMv1/stm32_tim.h"
 411              		.file 29 "src/ChibiOS_3.0.2/os/hal/include/serial.h"
 412              		.file 30 "src/ChibiOS_3.0.2/os/hal/ports/STM32/LLD/USARTv1/serial_lld.h"
 413              		.file 31 "src/ChibiOS_3.0.2/os/hal/include/spi.h"
 414              		.file 32 "src/ChibiOS_3.0.2/os/hal/ports/STM32/LLD/SPIv1/spi_lld.h"
 415              		.file 33 "src/ChibiOS_3.0.2/os/hal/include/uart.h"
 416              		.file 34 "src/ChibiOS_3.0.2/os/hal/ports/STM32/LLD/USARTv1/uart_lld.h"
 417              		.file 35 "src/ChibiOS_3.0.2/os/hal/include/usb.h"
 418              		.file 36 "src/ChibiOS_3.0.2/os/hal/ports/STM32/LLD/OTGv1/usb_lld.h"
 419              		.file 37 "src/ChibiOS_3.0.2/os/hal/ports/STM32/LLD/OTGv1/stm32_otg.h"
 420              		.file 38 "src/ChibiOS_3.0.2/os/rt/include/chthreads.h"