ARM GAS  C:\Users\IDONNO~1\AppData\Local\Temp\ccUPcY7r.s 			page 1


   1              		.syntax unified
   2              		.cpu cortex-m4
   3              		.eabi_attribute 27, 1
   4              		.eabi_attribute 28, 1
   5              		.fpu fpv4-sp-d16
   6              		.eabi_attribute 20, 1
   7              		.eabi_attribute 21, 1
   8              		.eabi_attribute 23, 3
   9              		.eabi_attribute 24, 1
  10              		.eabi_attribute 25, 1
  11              		.eabi_attribute 26, 1
  12              		.eabi_attribute 30, 2
  13              		.eabi_attribute 34, 1
  14              		.eabi_attribute 18, 4
  15              		.thumb
  16              		.syntax unified
  17              		.file	"usart1_print.c"
  18              		.text
  19              	.Ltext0:
  20              		.cfi_sections	.debug_frame
  21              		.section	.text.chprintf,"ax",%progbits
  22              		.align	2
  23              		.p2align 4,,15
  24              		.thumb
  25              		.thumb_func
  26              		.type	chprintf, %function
  27              	chprintf:
  28              	.LFB257:
  29              		.file 1 "src/ChibiOS_3.0.2/os/hal/lib/streams/chprintf.h"
  30              		.loc 1 69 0
  31              		.cfi_startproc
  32              		@ args = 4, pretend = 12, frame = 8
  33              		@ frame_needed = 0, uses_anonymous_args = 1
  34              	.LVL0:
  35 0000 0EB4     		push	{r1, r2, r3}
  36              		.cfi_def_cfa_offset 12
  37              		.cfi_offset 1, -12
  38              		.cfi_offset 2, -8
  39              		.cfi_offset 3, -4
  40 0002 00B5     		push	{lr}
  41              		.cfi_def_cfa_offset 16
  42              		.cfi_offset 14, -16
  43 0004 82B0     		sub	sp, sp, #8
  44              		.cfi_def_cfa_offset 24
  45              		.loc 1 69 0
  46 0006 03AA     		add	r2, sp, #12
  47 0008 52F8041B 		ldr	r1, [r2], #4
  48              		.loc 1 73 0
  49 000c 0192     		str	r2, [sp, #4]
  50              		.loc 1 74 0
  51 000e FFF7FEFF 		bl	chvprintf
  52              	.LVL1:
  53              		.loc 1 78 0
  54 0012 02B0     		add	sp, sp, #8
  55              		.cfi_def_cfa_offset 16
  56              		@ sp needed
  57 0014 5DF804EB 		ldr	lr, [sp], #4
ARM GAS  C:\Users\IDONNO~1\AppData\Local\Temp\ccUPcY7r.s 			page 2


  58              		.cfi_restore 14
  59              		.cfi_def_cfa_offset 12
  60 0018 03B0     		add	sp, sp, #12
  61              		.cfi_restore 3
  62              		.cfi_restore 2
  63              		.cfi_restore 1
  64              		.cfi_def_cfa_offset 0
  65 001a 7047     		bx	lr
  66              		.cfi_endproc
  67              	.LFE257:
  68              		.size	chprintf, .-chprintf
  69              		.section	.text.Usart1_print_init,"ax",%progbits
  70              		.align	2
  71              		.p2align 4,,15
  72              		.global	Usart1_print_init
  73              		.thumb
  74              		.thumb_func
  75              		.type	Usart1_print_init, %function
  76              	Usart1_print_init:
  77              	.LFB258:
  78              		.file 2 "usart1_print.c"
  79              		.loc 2 31 0
  80              		.cfi_startproc
  81              		@ args = 0, pretend = 0, frame = 0
  82              		@ frame_needed = 0, uses_anonymous_args = 0
  83 0000 10B5     		push	{r4, lr}
  84              		.cfi_def_cfa_offset 8
  85              		.cfi_offset 4, -8
  86              		.cfi_offset 14, -4
  87              		.loc 2 40 0
  88 0002 094C     		ldr	r4, .L5
  89              		.loc 2 39 0
  90 0004 0949     		ldr	r1, .L5+4
  91 0006 0A48     		ldr	r0, .L5+8
  92 0008 FFF7FEFF 		bl	sdStart
  93              	.LVL2:
  94              		.loc 2 40 0
  95 000c 2046     		mov	r0, r4
  96 000e 40F28232 		movw	r2, #898
  97 0012 4021     		movs	r1, #64
  98 0014 FFF7FEFF 		bl	_pal_lld_setgroupmode
  99              	.LVL3:
 100              		.loc 2 41 0
 101 0018 2046     		mov	r0, r4
 102 001a 40F28232 		movw	r2, #898
 103 001e 8021     		movs	r1, #128
 104              		.loc 2 43 0
 105 0020 BDE81040 		pop	{r4, lr}
 106              		.cfi_restore 14
 107              		.cfi_restore 4
 108              		.cfi_def_cfa_offset 0
 109              		.loc 2 41 0
 110 0024 FFF7FEBF 		b	_pal_lld_setgroupmode
 111              	.LVL4:
 112              	.L6:
 113              		.align	2
 114              	.L5:
ARM GAS  C:\Users\IDONNO~1\AppData\Local\Temp\ccUPcY7r.s 			page 3


 115 0028 00040240 		.word	1073873920
 116 002c 00000000 		.word	.LANCHOR0
 117 0030 00000000 		.word	SD1
 118              		.cfi_endproc
 119              	.LFE258:
 120              		.size	Usart1_print_init, .-Usart1_print_init
 121              		.section	.text.Usart1_print,"ax",%progbits
 122              		.align	2
 123              		.p2align 4,,15
 124              		.global	Usart1_print
 125              		.thumb
 126              		.thumb_func
 127              		.type	Usart1_print, %function
 128              	Usart1_print:
 129              	.LFB259:
 130              		.loc 2 48 0
 131              		.cfi_startproc
 132              		@ args = 0, pretend = 0, frame = 0
 133              		@ frame_needed = 0, uses_anonymous_args = 0
 134              	.LVL5:
 135              		.loc 2 49 0
 136 0000 0178     		ldrb	r1, [r0]	@ zero_extendqisi2
 137 0002 59B1     		cbz	r1, .L13
 138              		.loc 2 48 0 discriminator 2
 139 0004 38B5     		push	{r3, r4, r5, lr}
 140              		.cfi_def_cfa_offset 16
 141              		.cfi_offset 3, -16
 142              		.cfi_offset 4, -12
 143              		.cfi_offset 5, -8
 144              		.cfi_offset 14, -4
 145 0006 064D     		ldr	r5, .L15
 146 0008 0446     		mov	r4, r0
 147              	.LVL6:
 148              	.L9:
 149              		.loc 2 49 0 discriminator 2
 150 000a 2B68     		ldr	r3, [r5]
 151 000c 0448     		ldr	r0, .L15
 152 000e 9B68     		ldr	r3, [r3, #8]
 153 0010 9847     		blx	r3
 154              	.LVL7:
 155 0012 14F8011F 		ldrb	r1, [r4, #1]!	@ zero_extendqisi2
 156              	.LVL8:
 157 0016 0029     		cmp	r1, #0
 158 0018 F7D1     		bne	.L9
 159 001a 38BD     		pop	{r3, r4, r5, pc}
 160              	.LVL9:
 161              	.L13:
 162              		.cfi_def_cfa_offset 0
 163              		.cfi_restore 3
 164              		.cfi_restore 4
 165              		.cfi_restore 5
 166              		.cfi_restore 14
 167 001c 7047     		bx	lr
 168              	.L16:
 169 001e 00BF     		.align	2
 170              	.L15:
 171 0020 00000000 		.word	SD1
ARM GAS  C:\Users\IDONNO~1\AppData\Local\Temp\ccUPcY7r.s 			page 4


 172              		.cfi_endproc
 173              	.LFE259:
 174              		.size	Usart1_print, .-Usart1_print
 175              		.section	.text.Usart1_println,"ax",%progbits
 176              		.align	2
 177              		.p2align 4,,15
 178              		.global	Usart1_println
 179              		.thumb
 180              		.thumb_func
 181              		.type	Usart1_println, %function
 182              	Usart1_println:
 183              	.LFB260:
 184              		.loc 2 53 0
 185              		.cfi_startproc
 186              		@ args = 0, pretend = 0, frame = 0
 187              		@ frame_needed = 0, uses_anonymous_args = 0
 188              	.LVL10:
 189 0000 70B5     		push	{r4, r5, r6, lr}
 190              		.cfi_def_cfa_offset 16
 191              		.cfi_offset 4, -16
 192              		.cfi_offset 5, -12
 193              		.cfi_offset 6, -8
 194              		.cfi_offset 14, -4
 195              		.loc 2 54 0
 196 0002 0178     		ldrb	r1, [r0]	@ zero_extendqisi2
 197 0004 89B1     		cbz	r1, .L23
 198 0006 0A4D     		ldr	r5, .L24
 199 0008 0446     		mov	r4, r0
 200              	.LVL11:
 201              	.L19:
 202              		.loc 2 54 0 is_stmt 0 discriminator 2
 203 000a 2B68     		ldr	r3, [r5]
 204 000c 0848     		ldr	r0, .L24
 205 000e 9B68     		ldr	r3, [r3, #8]
 206 0010 9847     		blx	r3
 207              	.LVL12:
 208 0012 14F8011F 		ldrb	r1, [r4, #1]!	@ zero_extendqisi2
 209              	.LVL13:
 210 0016 0029     		cmp	r1, #0
 211 0018 F7D1     		bne	.L19
 212              	.LVL14:
 213              	.L20:
 214              		.loc 2 55 0 is_stmt 1
 215 001a 2B68     		ldr	r3, [r5]
 216 001c 0549     		ldr	r1, .L24+4
 217 001e 1B68     		ldr	r3, [r3]
 218 0020 0348     		ldr	r0, .L24
 219 0022 0222     		movs	r2, #2
 220              		.loc 2 56 0
 221 0024 BDE87040 		pop	{r4, r5, r6, lr}
 222              		.cfi_remember_state
 223              		.cfi_restore 14
 224              		.cfi_restore 6
 225              		.cfi_restore 5
 226              		.cfi_restore 4
 227              		.cfi_def_cfa_offset 0
 228              		.loc 2 55 0
ARM GAS  C:\Users\IDONNO~1\AppData\Local\Temp\ccUPcY7r.s 			page 5


 229 0028 1847     		bx	r3
 230              	.LVL15:
 231              	.L23:
 232              		.cfi_restore_state
 233 002a 014D     		ldr	r5, .L24
 234 002c F5E7     		b	.L20
 235              	.L25:
 236 002e 00BF     		.align	2
 237              	.L24:
 238 0030 00000000 		.word	SD1
 239 0034 00000000 		.word	.LC0
 240              		.cfi_endproc
 241              	.LFE260:
 242              		.size	Usart1_println, .-Usart1_println
 243              		.section	.text.Usart1_printn,"ax",%progbits
 244              		.align	2
 245              		.p2align 4,,15
 246              		.global	Usart1_printn
 247              		.thumb
 248              		.thumb_func
 249              		.type	Usart1_printn, %function
 250              	Usart1_printn:
 251              	.LFB261:
 252              		.loc 2 59 0
 253              		.cfi_startproc
 254              		@ args = 0, pretend = 0, frame = 16
 255              		@ frame_needed = 0, uses_anonymous_args = 0
 256              	.LVL16:
 257              		.loc 2 62 0
 258 0000 10B3     		cbz	r0, .L34
 259              		.loc 2 59 0
 260 0002 70B5     		push	{r4, r5, r6, lr}
 261              		.cfi_def_cfa_offset 16
 262              		.cfi_offset 4, -16
 263              		.cfi_offset 5, -12
 264              		.cfi_offset 6, -8
 265              		.cfi_offset 14, -4
 266              		.loc 2 66 0
 267 0004 134A     		ldr	r2, .L36
 268              		.loc 2 59 0
 269 0006 84B0     		sub	sp, sp, #16
 270              		.cfi_def_cfa_offset 32
 271 0008 6D46     		mov	r5, sp
 272 000a 6C46     		mov	r4, sp
 273              	.L28:
 274              	.LVL17:
 275              		.loc 2 66 0
 276 000c A2FB0013 		umull	r1, r3, r2, r0
 277 0010 DB08     		lsrs	r3, r3, #3
 278 0012 03EB8301 		add	r1, r3, r3, lsl #2
 279 0016 A0EB4100 		sub	r0, r0, r1, lsl #1
 280              	.LVL18:
 281 001a 00F13001 		add	r1, r0, #48
 282 001e C9B2     		uxtb	r1, r1
 283 0020 04F8011B 		strb	r1, [r4], #1
 284              	.LVL19:
 285              		.loc 2 65 0
ARM GAS  C:\Users\IDONNO~1\AppData\Local\Temp\ccUPcY7r.s 			page 6


 286 0024 1846     		mov	r0, r3
 287 0026 002B     		cmp	r3, #0
 288 0028 F0D1     		bne	.L28
 289              		.loc 2 67 0
 290 002a AC42     		cmp	r4, r5
 291 002c 0AD9     		bls	.L26
 292 002e 0A4E     		ldr	r6, .L36+4
 293 0030 013C     		subs	r4, r4, #1
 294              	.LVL20:
 295 0032 01E0     		b	.L30
 296              	.LVL21:
 297              	.L35:
 298 0034 14F8011D 		ldrb	r1, [r4, #-1]!	@ zero_extendqisi2
 299              	.LVL22:
 300              	.L30:
 301              		.loc 2 68 0
 302 0038 3368     		ldr	r3, [r6]
 303 003a 0748     		ldr	r0, .L36+4
 304 003c 9B68     		ldr	r3, [r3, #8]
 305 003e 9847     		blx	r3
 306              	.LVL23:
 307              		.loc 2 67 0
 308 0040 AC42     		cmp	r4, r5
 309 0042 F7D1     		bne	.L35
 310              	.LVL24:
 311              	.L26:
 312              		.loc 2 70 0
 313 0044 04B0     		add	sp, sp, #16
 314              		.cfi_def_cfa_offset 16
 315              		@ sp needed
 316 0046 70BD     		pop	{r4, r5, r6, pc}
 317              	.LVL25:
 318              	.L34:
 319              		.cfi_def_cfa_offset 0
 320              		.cfi_restore 4
 321              		.cfi_restore 5
 322              		.cfi_restore 6
 323              		.cfi_restore 14
 324              		.loc 2 62 0 discriminator 1
 325 0048 0348     		ldr	r0, .L36+4
 326              	.LVL26:
 327 004a 0368     		ldr	r3, [r0]
 328 004c 3021     		movs	r1, #48
 329 004e 9B68     		ldr	r3, [r3, #8]
 330 0050 1847     		bx	r3
 331              	.LVL27:
 332              	.L37:
 333 0052 00BF     		.align	2
 334              	.L36:
 335 0054 CDCCCCCC 		.word	-858993459
 336 0058 00000000 		.word	SD1
 337              		.cfi_endproc
 338              	.LFE261:
 339              		.size	Usart1_printn, .-Usart1_printn
 340              		.section	.text.Usart1_SendString,"ax",%progbits
 341              		.align	2
 342              		.p2align 4,,15
ARM GAS  C:\Users\IDONNO~1\AppData\Local\Temp\ccUPcY7r.s 			page 7


 343              		.global	Usart1_SendString
 344              		.thumb
 345              		.thumb_func
 346              		.type	Usart1_SendString, %function
 347              	Usart1_SendString:
 348              	.LFB262:
 349              		.loc 2 73 0
 350              		.cfi_startproc
 351              		@ args = 0, pretend = 0, frame = 0
 352              		@ frame_needed = 0, uses_anonymous_args = 0
 353              	.LVL28:
 354 0000 70B5     		push	{r4, r5, r6, lr}
 355              		.cfi_def_cfa_offset 16
 356              		.cfi_offset 4, -16
 357              		.cfi_offset 5, -12
 358              		.cfi_offset 6, -8
 359              		.cfi_offset 14, -4
 360              		.loc 2 73 0
 361 0002 0E46     		mov	r6, r1
 362              		.loc 2 75 0
 363 0004 0978     		ldrb	r1, [r1]	@ zero_extendqisi2
 364              	.LVL29:
 365 0006 61B1     		cbz	r1, .L38
 366 0008 00F13005 		add	r5, r0, #48
 367 000c 0024     		movs	r4, #0
 368              	.LVL30:
 369              	.L40:
 370              		.loc 2 75 0 is_stmt 0 discriminator 3
 371 000e 0134     		adds	r4, r4, #1
 372              	.LVL31:
 373 0010 E4B2     		uxtb	r4, r4
 374              	.LBB4:
 375              	.LBB5:
 376              		.file 3 "src/ChibiOS_3.0.2/os/rt/include/chqueues.h"
 377              		.loc 3 426 0 is_stmt 1 discriminator 3
 378 0012 4FF0FF32 		mov	r2, #-1
 379 0016 2846     		mov	r0, r5
 380 0018 FFF7FEFF 		bl	chOQPutTimeout
 381              	.LVL32:
 382              	.LBE5:
 383              	.LBE4:
 384              		.loc 2 75 0 discriminator 3
 385 001c 315D     		ldrb	r1, [r6, r4]	@ zero_extendqisi2
 386 001e 0029     		cmp	r1, #0
 387 0020 F5D1     		bne	.L40
 388              	.LVL33:
 389              	.L38:
 390 0022 70BD     		pop	{r4, r5, r6, pc}
 391              		.cfi_endproc
 392              	.LFE262:
 393              		.size	Usart1_SendString, .-Usart1_SendString
 394              		.section	.text.Usart1_printf,"ax",%progbits
 395              		.align	2
 396              		.p2align 4,,15
 397              		.global	Usart1_printf
 398              		.thumb
 399              		.thumb_func
ARM GAS  C:\Users\IDONNO~1\AppData\Local\Temp\ccUPcY7r.s 			page 8


 400              		.type	Usart1_printf, %function
 401              	Usart1_printf:
 402              	.LFB263:
 403              		.loc 2 80 0
 404              		.cfi_startproc
 405              		@ args = 4, pretend = 12, frame = 0
 406              		@ frame_needed = 0, uses_anonymous_args = 1
 407              	.LVL34:
 408 0000 0EB4     		push	{r1, r2, r3}
 409              		.cfi_def_cfa_offset 12
 410              		.cfi_offset 1, -12
 411              		.cfi_offset 2, -8
 412              		.cfi_offset 3, -4
 413 0002 00B5     		push	{lr}
 414              		.cfi_def_cfa_offset 16
 415              		.cfi_offset 14, -16
 416              		.loc 2 82 0
 417 0004 0199     		ldr	r1, [sp, #4]
 418 0006 FFF7FEFF 		bl	chprintf
 419              	.LVL35:
 420              		.loc 2 83 0
 421 000a 5DF804EB 		ldr	lr, [sp], #4
 422              		.cfi_restore 14
 423              		.cfi_def_cfa_offset 12
 424 000e 03B0     		add	sp, sp, #12
 425              		.cfi_restore 3
 426              		.cfi_restore 2
 427              		.cfi_restore 1
 428              		.cfi_def_cfa_offset 0
 429 0010 7047     		bx	lr
 430              		.cfi_endproc
 431              	.LFE263:
 432              		.size	Usart1_printf, .-Usart1_printf
 433 0012 00BF     		.section	.data.sdcfg,"aw",%progbits
 434              		.align	2
 435              		.set	.LANCHOR0,. + 0
 436              		.type	sdcfg, %object
 437              		.size	sdcfg, 12
 438              	sdcfg:
 439 0000 00C20100 		.word	115200
 440 0004 0014     		.short	5120
 441 0006 0040     		.short	16384
 442 0008 0000     		.short	0
 443 000a 0000     		.space	2
 444              		.section	.rodata.str1.4,"aMS",%progbits,1
 445              		.align	2
 446              	.LC0:
 447 0000 0D0A00   		.ascii	"\015\012\000"
 448              		.text
 449              	.Letext0:
 450              		.file 4 "c:\\program files (x86)\\gnu tools arm embedded\\5.4 2016q3\\lib\\gcc\\arm-none-eabi\\5.4
 451              		.file 5 "c:\\program files (x86)\\gnu tools arm embedded\\5.4 2016q3\\arm-none-eabi\\include\\mach
 452              		.file 6 "c:\\program files (x86)\\gnu tools arm embedded\\5.4 2016q3\\arm-none-eabi\\include\\sys\
 453              		.file 7 "src/ChibiOS_3.0.2/os/rt/ports/ARMCMx/compilers/GCC/chtypes.h"
 454              		.file 8 "src/ChibiOS_3.0.2/os/rt/include/chsystypes.h"
 455              		.file 9 "src/ChibiOS_3.0.2/os/rt/include/chschd.h"
 456              		.file 10 "src/ChibiOS_3.0.2/os/ext/CMSIS/ST/stm32f407xx.h"
ARM GAS  C:\Users\IDONNO~1\AppData\Local\Temp\ccUPcY7r.s 			page 9


 457              		.file 11 "src/ChibiOS_3.0.2/os/rt/ports/ARMCMx/chcore.h"
 458              		.file 12 "src/ChibiOS_3.0.2/os/rt/ports/ARMCMx/chcore_v7m.h"
 459              		.file 13 "src/ChibiOS_3.0.2/os/rt/include/chtm.h"
 460              		.file 14 "src/ChibiOS_3.0.2/os/rt/include/chsem.h"
 461              		.file 15 "src/ChibiOS_3.0.2/os/rt/include/chmtx.h"
 462              		.file 16 "src/ChibiOS_3.0.2/os/rt/include/chevents.h"
 463              		.file 17 "src/ChibiOS_3.0.2/os/rt/include/chstreams.h"
 464              		.file 18 "src/ChibiOS_3.0.2/os/hal/ports/STM32/LLD/GPIOv2/pal_lld.h"
 465              		.file 19 "src/ChibiOS_3.0.2/os/hal/include/serial.h"
 466              		.file 20 "src/ChibiOS_3.0.2/os/hal/ports/STM32/LLD/USARTv1/serial_lld.h"
 467              		.file 21 "c:\\program files (x86)\\gnu tools arm embedded\\5.4 2016q3\\lib\\gcc\\arm-none-eabi\\5.
 468              		.file 22 "<built-in>"
 469              		.file 23 "src/ChibiOS_3.0.2/os/ext/CMSIS/include/core_cm4.h"