ARM GAS  C:\Users\USER\AppData\Local\Temp\cc3DDGj6.s 			page 1


   1              		.cpu cortex-m4
   2              		.eabi_attribute 27, 1
   3              		.eabi_attribute 28, 1
   4              		.eabi_attribute 20, 1
   5              		.eabi_attribute 21, 1
   6              		.eabi_attribute 23, 3
   7              		.eabi_attribute 24, 1
   8              		.eabi_attribute 25, 1
   9              		.eabi_attribute 26, 1
  10              		.eabi_attribute 30, 2
  11              		.eabi_attribute 34, 1
  12              		.eabi_attribute 18, 4
  13              		.file	"usb.c"
  14              		.text
  15              	.Ltext0:
  16              		.cfi_sections	.debug_frame
  17              		.section	.text.usbInit,"ax",%progbits
  18              		.align	1
  19              		.p2align 4,,15
  20              		.global	usbInit
  21              		.arch armv7e-m
  22              		.syntax unified
  23              		.thumb
  24              		.thumb_func
  25              		.fpu fpv4-sp-d16
  26              		.type	usbInit, %function
  27              	usbInit:
  28              	.LFB259:
  29              		.file 1 "src/ChibiOS_3.0.2/os/hal/src/usb.c"
  30              		.loc 1 254 20 view -0
  31              		.cfi_startproc
  32              		@ args = 0, pretend = 0, frame = 0
  33              		@ frame_needed = 0, uses_anonymous_args = 0
  34              		@ link register save eliminated.
  35              		.loc 1 256 3 view .LVU1
  36 0000 FFF7FEBF 		b	usb_lld_init
  37              	.LVL0:
  38              		.cfi_endproc
  39              	.LFE259:
  40              		.size	usbInit, .-usbInit
  41              		.section	.text.usbObjectInit,"ax",%progbits
  42              		.align	1
  43              		.p2align 4,,15
  44              		.global	usbObjectInit
  45              		.syntax unified
  46              		.thumb
  47              		.thumb_func
  48              		.fpu fpv4-sp-d16
  49              		.type	usbObjectInit, %function
  50              	usbObjectInit:
  51              	.LVL1:
  52              	.LFB260:
  53              		.loc 1 266 37 view -0
  54              		.cfi_startproc
  55              		@ args = 0, pretend = 0, frame = 0
  56              		@ frame_needed = 0, uses_anonymous_args = 0
  57              		@ link register save eliminated.
ARM GAS  C:\Users\USER\AppData\Local\Temp\cc3DDGj6.s 			page 2


  58              		.loc 1 267 3 view .LVU3
  59              		.loc 1 269 3 view .LVU4
  60              		.loc 1 272 25 is_stmt 0 view .LVU5
  61 0000 0023     		movs	r3, #0
  62              		.loc 1 269 22 view .LVU6
  63 0002 0122     		movs	r2, #1
  64 0004 0270     		strb	r2, [r0]
  65              		.loc 1 270 3 is_stmt 1 view .LVU7
  66              		.loc 1 271 3 view .LVU8
  67              	.LVL2:
  68              		.loc 1 272 5 view .LVU9
  69              		.loc 1 272 25 is_stmt 0 view .LVU10
  70 0006 C361     		str	r3, [r0, #28]
  71              		.loc 1 273 5 is_stmt 1 view .LVU11
  72              		.loc 1 273 25 is_stmt 0 view .LVU12
  73 0008 8362     		str	r3, [r0, #40]
  74              	.LVL3:
  75              		.loc 1 272 5 is_stmt 1 view .LVU13
  76              		.loc 1 272 25 is_stmt 0 view .LVU14
  77 000a 0362     		str	r3, [r0, #32]
  78              		.loc 1 273 5 is_stmt 1 view .LVU15
  79              		.loc 1 273 25 is_stmt 0 view .LVU16
  80 000c C362     		str	r3, [r0, #44]
  81              	.LVL4:
  82              		.loc 1 272 5 is_stmt 1 view .LVU17
  83              		.loc 1 272 25 is_stmt 0 view .LVU18
  84 000e 4362     		str	r3, [r0, #36]
  85              		.loc 1 273 5 is_stmt 1 view .LVU19
  86              		.loc 1 273 25 is_stmt 0 view .LVU20
  87 0010 0363     		str	r3, [r0, #48]
  88              	.LVL5:
  89              		.loc 1 275 3 is_stmt 1 view .LVU21
  90              		.loc 1 276 3 view .LVU22
  91              		.loc 1 275 22 is_stmt 0 view .LVU23
  92 0012 C0E90133 		strd	r3, r3, [r0, #4]
  93              		.loc 1 277 1 view .LVU24
  94 0016 7047     		bx	lr
  95              		.cfi_endproc
  96              	.LFE260:
  97              		.size	usbObjectInit, .-usbObjectInit
  98              		.section	.text.usbStart,"ax",%progbits
  99              		.align	1
 100              		.p2align 4,,15
 101              		.global	usbStart
 102              		.syntax unified
 103              		.thumb
 104              		.thumb_func
 105              		.fpu fpv4-sp-d16
 106              		.type	usbStart, %function
 107              	usbStart:
 108              	.LVL6:
 109              	.LFB261:
 110              		.loc 1 287 57 is_stmt 1 view -0
 111              		.cfi_startproc
 112              		@ args = 0, pretend = 0, frame = 0
 113              		@ frame_needed = 0, uses_anonymous_args = 0
 114              		.loc 1 288 3 view .LVU26
ARM GAS  C:\Users\USER\AppData\Local\Temp\cc3DDGj6.s 			page 3


 115              		.loc 1 290 3 view .LVU27
 116              		.loc 1 290 3 view .LVU28
 117              		.loc 1 292 3 view .LVU29
 118              	.LBB212:
 119              	.LBI212:
 120              		.file 2 "src/ChibiOS_3.0.2/os/hal/osal/rt/osal.h"
 121              		.loc 2 491 20 view .LVU30
 122              	.LBE212:
 123              		.loc 2 493 3 view .LVU31
 124              	.LBB224:
 125              	.LBB213:
 126              	.LBI213:
 127              		.file 3 "src/ChibiOS_3.0.2/os/rt/include/chsys.h"
 128              		.loc 3 346 20 view .LVU32
 129              	.LBE213:
 130              	.LBE224:
 131              		.loc 3 348 3 view .LVU33
 132              	.LBB225:
 133              	.LBB221:
 134              	.LBB214:
 135              	.LBI214:
 136              		.file 4 "src/ChibiOS_3.0.2/os/rt/ports/ARMCMx/chcore_v7m.h"
 137              		.loc 4 444 20 view .LVU34
 138              	.LBE214:
 139              	.LBE221:
 140              	.LBE225:
 141              		.loc 4 447 3 view .LVU35
 142              	.LBB226:
 143              	.LBB222:
 144              	.LBB219:
 145              	.LBB215:
 146              	.LBI215:
 147              		.file 5 "src/ChibiOS_3.0.2/os/ext/CMSIS/include/core_cmFunc.h"
 148              		.loc 5 544 57 view .LVU36
 149              	.LBB216:
 150              		.loc 5 546 3 view .LVU37
 151              	.LBE216:
 152              	.LBE215:
 153              	.LBE219:
 154              	.LBE222:
 155              	.LBE226:
 156              		.loc 1 287 57 is_stmt 0 view .LVU38
 157 0000 38B5     		push	{r3, r4, r5, lr}
 158              		.cfi_def_cfa_offset 16
 159              		.cfi_offset 3, -16
 160              		.cfi_offset 4, -12
 161              		.cfi_offset 5, -8
 162              		.cfi_offset 14, -4
 163              		.loc 1 287 57 view .LVU39
 164 0002 0446     		mov	r4, r0
 165              	.LBB227:
 166              	.LBB223:
 167              	.LBB220:
 168              	.LBB218:
 169              	.LBB217:
 170              		.loc 5 546 3 view .LVU40
 171 0004 2023     		movs	r3, #32
ARM GAS  C:\Users\USER\AppData\Local\Temp\cc3DDGj6.s 			page 4


 172              		.syntax unified
 173              	@ 546 "src/ChibiOS_3.0.2/os/ext/CMSIS/include/core_cmFunc.h" 1
 174 0006 83F31188 		MSR basepri, r3
 175              	@ 0 "" 2
 176              	.LVL7:
 177              		.loc 5 546 3 view .LVU41
 178              		.thumb
 179              		.syntax unified
 180              	.LBE217:
 181              	.LBE218:
 182              	.LBE220:
 183              	.LBE223:
 184              	.LBE227:
 185              		.loc 3 349 34 is_stmt 1 view .LVU42
 186              		.loc 3 350 20 view .LVU43
 187              		.loc 1 293 3 view .LVU44
 188              		.loc 1 293 3 view .LVU45
 189              		.loc 1 295 3 view .LVU46
 190              		.loc 1 297 18 is_stmt 0 view .LVU47
 191 000a 0025     		movs	r5, #0
 192              		.loc 1 295 16 view .LVU48
 193 000c 4160     		str	r1, [r0, #4]
 194              		.loc 1 296 3 is_stmt 1 view .LVU49
 195              	.LVL8:
 196              		.loc 1 297 5 view .LVU50
 197              		.loc 1 297 18 is_stmt 0 view .LVU51
 198 000e C0E90355 		strd	r5, r5, [r0, #12]
 199              	.LVL9:
 200              		.loc 1 297 5 is_stmt 1 view .LVU52
 201              		.loc 1 297 18 is_stmt 0 view .LVU53
 202 0012 C0E90555 		strd	r5, r5, [r0, #20]
 203              	.LVL10:
 204              		.loc 1 299 3 is_stmt 1 view .LVU54
 205 0016 FFF7FEFF 		bl	usb_lld_start
 206              	.LVL11:
 207              		.loc 1 300 3 view .LVU55
 208              		.loc 1 300 15 is_stmt 0 view .LVU56
 209 001a 0223     		movs	r3, #2
 210 001c 2370     		strb	r3, [r4]
 211              		.loc 1 301 3 is_stmt 1 view .LVU57
 212              	.LBB228:
 213              	.LBI228:
 214              		.loc 2 502 20 view .LVU58
 215              	.LBE228:
 216              		.loc 2 504 3 view .LVU59
 217              	.LBB237:
 218              	.LBB229:
 219              	.LBI229:
 220              		.loc 3 358 20 view .LVU60
 221              	.LBB230:
 222              		.loc 3 360 22 view .LVU61
 223              		.loc 3 361 33 view .LVU62
 224              		.loc 3 367 3 view .LVU63
 225              		.loc 3 367 3 view .LVU64
 226              		.loc 3 371 3 view .LVU65
 227              	.LBB231:
 228              	.LBI231:
ARM GAS  C:\Users\USER\AppData\Local\Temp\cc3DDGj6.s 			page 5


 229              		.loc 4 458 20 view .LVU66
 230              	.LBE231:
 231              	.LBE230:
 232              	.LBE229:
 233              	.LBE237:
 234              		.loc 4 461 3 view .LVU67
 235              	.LVL12:
 236              	.LBB238:
 237              	.LBB236:
 238              	.LBB235:
 239              	.LBB234:
 240              	.LBB232:
 241              	.LBI232:
 242              		.loc 5 544 57 view .LVU68
 243              	.LBB233:
 244              		.loc 5 546 3 view .LVU69
 245              		.syntax unified
 246              	@ 546 "src/ChibiOS_3.0.2/os/ext/CMSIS/include/core_cmFunc.h" 1
 247 001e 85F31188 		MSR basepri, r5
 248              	@ 0 "" 2
 249              	.LVL13:
 250              		.loc 5 546 3 is_stmt 0 view .LVU70
 251              		.thumb
 252              		.syntax unified
 253              	.LBE233:
 254              	.LBE232:
 255              	.LBE234:
 256              	.LBE235:
 257              	.LBE236:
 258              	.LBE238:
 259              		.loc 1 302 1 view .LVU71
 260 0022 38BD     		pop	{r3, r4, r5, pc}
 261              		.loc 1 302 1 view .LVU72
 262              		.cfi_endproc
 263              	.LFE261:
 264              		.size	usbStart, .-usbStart
 265              		.section	.text.usbStop,"ax",%progbits
 266              		.align	1
 267              		.p2align 4,,15
 268              		.global	usbStop
 269              		.syntax unified
 270              		.thumb
 271              		.thumb_func
 272              		.fpu fpv4-sp-d16
 273              		.type	usbStop, %function
 274              	usbStop:
 275              	.LVL14:
 276              	.LFB262:
 277              		.loc 1 311 31 is_stmt 1 view -0
 278              		.cfi_startproc
 279              		@ args = 0, pretend = 0, frame = 0
 280              		@ frame_needed = 0, uses_anonymous_args = 0
 281              		.loc 1 313 3 view .LVU74
 282              		.loc 1 313 3 view .LVU75
 283              		.loc 1 315 3 view .LVU76
 284              	.LBB239:
 285              	.LBI239:
ARM GAS  C:\Users\USER\AppData\Local\Temp\cc3DDGj6.s 			page 6


 286              		.loc 2 491 20 view .LVU77
 287              	.LBE239:
 288              		.loc 2 493 3 view .LVU78
 289              	.LBB255:
 290              	.LBB240:
 291              	.LBI240:
 292              		.loc 3 346 20 view .LVU79
 293              	.LBE240:
 294              	.LBE255:
 295              		.loc 3 348 3 view .LVU80
 296              	.LBB256:
 297              	.LBB251:
 298              	.LBB241:
 299              	.LBI241:
 300              		.loc 4 444 20 view .LVU81
 301              	.LBE241:
 302              	.LBE251:
 303              	.LBE256:
 304              		.loc 4 447 3 view .LVU82
 305              	.LBB257:
 306              	.LBB252:
 307              	.LBB248:
 308              	.LBB242:
 309              	.LBI242:
 310              		.loc 5 544 57 view .LVU83
 311              	.LBB243:
 312              		.loc 5 546 3 view .LVU84
 313              	.LBE243:
 314              	.LBE242:
 315              	.LBE248:
 316              	.LBE252:
 317              	.LBE257:
 318              		.loc 1 311 31 is_stmt 0 view .LVU85
 319 0000 10B5     		push	{r4, lr}
 320              		.cfi_def_cfa_offset 8
 321              		.cfi_offset 4, -8
 322              		.cfi_offset 14, -4
 323              	.LBB258:
 324              	.LBB253:
 325              	.LBB249:
 326              	.LBB246:
 327              	.LBB244:
 328              		.loc 5 546 3 view .LVU86
 329 0002 2023     		movs	r3, #32
 330              	.LBE244:
 331              	.LBE246:
 332              	.LBE249:
 333              	.LBE253:
 334              	.LBE258:
 335              		.loc 1 311 31 view .LVU87
 336 0004 0446     		mov	r4, r0
 337              	.LBB259:
 338              	.LBB254:
 339              	.LBB250:
 340              	.LBB247:
 341              	.LBB245:
 342              		.loc 5 546 3 view .LVU88
ARM GAS  C:\Users\USER\AppData\Local\Temp\cc3DDGj6.s 			page 7


 343              		.syntax unified
 344              	@ 546 "src/ChibiOS_3.0.2/os/ext/CMSIS/include/core_cmFunc.h" 1
 345 0006 83F31188 		MSR basepri, r3
 346              	@ 0 "" 2
 347              	.LVL15:
 348              		.loc 5 546 3 view .LVU89
 349              		.thumb
 350              		.syntax unified
 351              	.LBE245:
 352              	.LBE247:
 353              	.LBE250:
 354              	.LBE254:
 355              	.LBE259:
 356              		.loc 3 349 34 is_stmt 1 view .LVU90
 357              		.loc 3 350 20 view .LVU91
 358              		.loc 1 316 3 view .LVU92
 359              		.loc 1 316 3 view .LVU93
 360              		.loc 1 319 3 view .LVU94
 361 000a FFF7FEFF 		bl	usb_lld_stop
 362              	.LVL16:
 363              		.loc 1 320 3 view .LVU95
 364              		.loc 1 320 15 is_stmt 0 view .LVU96
 365 000e 0123     		movs	r3, #1
 366 0010 2370     		strb	r3, [r4]
 367              		.loc 1 321 3 is_stmt 1 view .LVU97
 368              	.LBB260:
 369              	.LBI260:
 370              		.loc 2 502 20 view .LVU98
 371              	.LBE260:
 372              		.loc 2 504 3 view .LVU99
 373              	.LBB269:
 374              	.LBB261:
 375              	.LBI261:
 376              		.loc 3 358 20 view .LVU100
 377              	.LBB262:
 378              		.loc 3 360 22 view .LVU101
 379              		.loc 3 361 33 view .LVU102
 380              		.loc 3 367 3 view .LVU103
 381              		.loc 3 367 3 view .LVU104
 382              		.loc 3 371 3 view .LVU105
 383              	.LBB263:
 384              	.LBI263:
 385              		.loc 4 458 20 view .LVU106
 386              	.LBE263:
 387              	.LBE262:
 388              	.LBE261:
 389              	.LBE269:
 390              		.loc 4 461 3 view .LVU107
 391              	.LVL17:
 392              	.LBB270:
 393              	.LBB268:
 394              	.LBB267:
 395              	.LBB266:
 396              	.LBB264:
 397              	.LBI264:
 398              		.loc 5 544 57 view .LVU108
 399              	.LBB265:
ARM GAS  C:\Users\USER\AppData\Local\Temp\cc3DDGj6.s 			page 8


 400              		.loc 5 546 3 view .LVU109
 401 0012 0023     		movs	r3, #0
 402              		.syntax unified
 403              	@ 546 "src/ChibiOS_3.0.2/os/ext/CMSIS/include/core_cmFunc.h" 1
 404 0014 83F31188 		MSR basepri, r3
 405              	@ 0 "" 2
 406              	.LVL18:
 407              		.loc 5 546 3 is_stmt 0 view .LVU110
 408              		.thumb
 409              		.syntax unified
 410              	.LBE265:
 411              	.LBE264:
 412              	.LBE266:
 413              	.LBE267:
 414              	.LBE268:
 415              	.LBE270:
 416              		.loc 1 322 1 view .LVU111
 417 0018 10BD     		pop	{r4, pc}
 418              		.loc 1 322 1 view .LVU112
 419              		.cfi_endproc
 420              	.LFE262:
 421              		.size	usbStop, .-usbStop
 422 001a 00BF     		.section	.text.usbInitEndpointI,"ax",%progbits
 423              		.align	1
 424              		.p2align 4,,15
 425              		.global	usbInitEndpointI
 426              		.syntax unified
 427              		.thumb
 428              		.thumb_func
 429              		.fpu fpv4-sp-d16
 430              		.type	usbInitEndpointI, %function
 431              	usbInitEndpointI:
 432              	.LVL19:
 433              	.LFB263:
 434              		.loc 1 338 54 is_stmt 1 view -0
 435              		.cfi_startproc
 436              		@ args = 0, pretend = 0, frame = 0
 437              		@ frame_needed = 0, uses_anonymous_args = 0
 438              		@ link register save eliminated.
 439              		.loc 1 340 23 view .LVU114
 440              		.loc 1 341 3 view .LVU115
 441              		.loc 1 341 3 view .LVU116
 442              		.loc 1 342 3 view .LVU117
 443              		.loc 1 342 3 view .LVU118
 444              		.loc 1 344 3 view .LVU119
 445              		.loc 1 344 3 view .LVU120
 446              		.loc 1 347 3 view .LVU121
 447              		.loc 1 347 11 is_stmt 0 view .LVU122
 448 0000 5369     		ldr	r3, [r2, #20]
 449              		.loc 1 338 54 view .LVU123
 450 0002 10B4     		push	{r4}
 451              		.cfi_def_cfa_offset 4
 452              		.cfi_offset 4, -4
 453              		.loc 1 347 6 view .LVU124
 454 0004 2BB1     		cbz	r3, .L9
 455              		.loc 1 348 5 is_stmt 1 view .LVU125
 456 0006 0024     		movs	r4, #0
ARM GAS  C:\Users\USER\AppData\Local\Temp\cc3DDGj6.s 			page 9


 457 0008 1C60     		str	r4, [r3]	@ unaligned
 458 000a 5C60     		str	r4, [r3, #4]	@ unaligned
 459 000c 9C60     		str	r4, [r3, #8]	@ unaligned
 460 000e DC60     		str	r4, [r3, #12]	@ unaligned
 461 0010 1C61     		str	r4, [r3, #16]	@ unaligned
 462              	.L9:
 463              		.loc 1 350 3 view .LVU126
 464              		.loc 1 350 11 is_stmt 0 view .LVU127
 465 0012 9369     		ldr	r3, [r2, #24]
 466              		.loc 1 350 6 view .LVU128
 467 0014 2BB1     		cbz	r3, .L10
 468              		.loc 1 351 5 is_stmt 1 view .LVU129
 469 0016 0024     		movs	r4, #0
 470 0018 1C60     		str	r4, [r3]	@ unaligned
 471 001a 5C60     		str	r4, [r3, #4]	@ unaligned
 472 001c 9C60     		str	r4, [r3, #8]	@ unaligned
 473 001e DC60     		str	r4, [r3, #12]	@ unaligned
 474 0020 1C61     		str	r4, [r3, #16]	@ unaligned
 475              	.L10:
 476              		.loc 1 354 3 view .LVU130
 477              		.loc 1 354 17 is_stmt 0 view .LVU131
 478 0022 00EB8103 		add	r3, r0, r1, lsl #2
 479              		.loc 1 358 1 view .LVU132
 480 0026 5DF8044B 		ldr	r4, [sp], #4
 481              		.cfi_restore 4
 482              		.cfi_def_cfa_offset 0
 483              		.loc 1 354 17 view .LVU133
 484 002a DA60     		str	r2, [r3, #12]
 485              		.loc 1 357 3 is_stmt 1 view .LVU134
 486 002c FFF7FEBF 		b	usb_lld_init_endpoint
 487              	.LVL20:
 488              		.loc 1 357 3 is_stmt 0 view .LVU135
 489              		.cfi_endproc
 490              	.LFE263:
 491              		.size	usbInitEndpointI, .-usbInitEndpointI
 492              		.section	.text.usbDisableEndpointsI,"ax",%progbits
 493              		.align	1
 494              		.p2align 4,,15
 495              		.global	usbDisableEndpointsI
 496              		.syntax unified
 497              		.thumb
 498              		.thumb_func
 499              		.fpu fpv4-sp-d16
 500              		.type	usbDisableEndpointsI, %function
 501              	usbDisableEndpointsI:
 502              	.LVL21:
 503              	.LFB264:
 504              		.loc 1 371 44 is_stmt 1 view -0
 505              		.cfi_startproc
 506              		@ args = 0, pretend = 0, frame = 0
 507              		@ frame_needed = 0, uses_anonymous_args = 0
 508              		@ link register save eliminated.
 509              		.loc 1 372 3 view .LVU137
 510              		.loc 1 374 23 view .LVU138
 511              		.loc 1 375 3 view .LVU139
 512              		.loc 1 375 3 view .LVU140
 513              		.loc 1 376 3 view .LVU141
ARM GAS  C:\Users\USER\AppData\Local\Temp\cc3DDGj6.s 			page 10


 514              		.loc 1 376 3 view .LVU142
 515              		.loc 1 378 3 view .LVU143
 516              		.loc 1 379 3 view .LVU144
 517              		.loc 1 378 22 is_stmt 0 view .LVU145
 518 0000 8168     		ldr	r1, [r0, #8]
 519              		.loc 1 381 18 view .LVU146
 520 0002 0022     		movs	r2, #0
 521              		.loc 1 378 22 view .LVU147
 522 0004 21F00111 		bic	r1, r1, #65537
 523              		.loc 1 381 18 view .LVU148
 524 0008 0261     		str	r2, [r0, #16]
 525              		.loc 1 378 22 view .LVU149
 526 000a 8160     		str	r1, [r0, #8]
 527              		.loc 1 380 3 is_stmt 1 view .LVU150
 528              	.LVL22:
 529              		.loc 1 381 5 view .LVU151
 530              		.loc 1 381 5 view .LVU152
 531              		.loc 1 381 18 is_stmt 0 view .LVU153
 532 000c C0E90522 		strd	r2, r2, [r0, #20]
 533              	.LVL23:
 534              		.loc 1 385 3 is_stmt 1 view .LVU154
 535 0010 FFF7FEBF 		b	usb_lld_disable_endpoints
 536              	.LVL24:
 537              		.loc 1 385 3 is_stmt 0 view .LVU155
 538              		.cfi_endproc
 539              	.LFE264:
 540              		.size	usbDisableEndpointsI, .-usbDisableEndpointsI
 541              		.section	.text.usbPrepareReceive,"ax",%progbits
 542              		.align	1
 543              		.p2align 4,,15
 544              		.global	usbPrepareReceive
 545              		.syntax unified
 546              		.thumb
 547              		.thumb_func
 548              		.fpu fpv4-sp-d16
 549              		.type	usbPrepareReceive, %function
 550              	usbPrepareReceive:
 551              	.LVL25:
 552              	.LFB265:
 553              		.loc 1 400 77 is_stmt 1 view -0
 554              		.cfi_startproc
 555              		@ args = 0, pretend = 0, frame = 0
 556              		@ frame_needed = 0, uses_anonymous_args = 0
 557              		@ link register save eliminated.
 558              		.loc 1 401 3 view .LVU157
 559              		.loc 1 400 77 is_stmt 0 view .LVU158
 560 0000 30B4     		push	{r4, r5}
 561              		.cfi_def_cfa_offset 8
 562              		.cfi_offset 4, -8
 563              		.cfi_offset 5, -4
 564              		.loc 1 401 39 view .LVU159
 565 0002 00EB8104 		add	r4, r0, r1, lsl #2
 566              		.loc 1 403 27 view .LVU160
 567 0006 0025     		movs	r5, #0
 568              		.loc 1 401 24 view .LVU161
 569 0008 E468     		ldr	r4, [r4, #12]
 570 000a A469     		ldr	r4, [r4, #24]
ARM GAS  C:\Users\USER\AppData\Local\Temp\cc3DDGj6.s 			page 11


 571              	.LVL26:
 572              		.loc 1 403 3 is_stmt 1 view .LVU162
 573              		.loc 1 404 27 is_stmt 0 view .LVU163
 574 000c E260     		str	r2, [r4, #12]
 575              		.loc 1 405 27 view .LVU164
 576 000e 6360     		str	r3, [r4, #4]
 577              		.loc 1 403 27 view .LVU165
 578 0010 2570     		strb	r5, [r4]
 579              		.loc 1 404 3 is_stmt 1 view .LVU166
 580              		.loc 1 405 3 view .LVU167
 581              		.loc 1 406 3 view .LVU168
 582              		.loc 1 406 27 is_stmt 0 view .LVU169
 583 0012 A560     		str	r5, [r4, #8]
 584              		.loc 1 408 3 is_stmt 1 view .LVU170
 585              		.loc 1 409 1 is_stmt 0 view .LVU171
 586 0014 30BC     		pop	{r4, r5}
 587              		.cfi_restore 5
 588              		.cfi_restore 4
 589              		.cfi_def_cfa_offset 0
 590              	.LVL27:
 591              		.loc 1 408 3 view .LVU172
 592 0016 FFF7FEBF 		b	usb_lld_prepare_receive
 593              	.LVL28:
 594              		.loc 1 408 3 view .LVU173
 595              		.cfi_endproc
 596              	.LFE265:
 597              		.size	usbPrepareReceive, .-usbPrepareReceive
 598 001a 00BF     		.section	.text.usbPrepareTransmit,"ax",%progbits
 599              		.align	1
 600              		.p2align 4,,15
 601              		.global	usbPrepareTransmit
 602              		.syntax unified
 603              		.thumb
 604              		.thumb_func
 605              		.fpu fpv4-sp-d16
 606              		.type	usbPrepareTransmit, %function
 607              	usbPrepareTransmit:
 608              	.LVL29:
 609              	.LFB266:
 610              		.loc 1 426 55 is_stmt 1 view -0
 611              		.cfi_startproc
 612              		@ args = 0, pretend = 0, frame = 0
 613              		@ frame_needed = 0, uses_anonymous_args = 0
 614              		@ link register save eliminated.
 615              		.loc 1 427 3 view .LVU175
 616              		.loc 1 426 55 is_stmt 0 view .LVU176
 617 0000 30B4     		push	{r4, r5}
 618              		.cfi_def_cfa_offset 8
 619              		.cfi_offset 4, -8
 620              		.cfi_offset 5, -4
 621              		.loc 1 427 38 view .LVU177
 622 0002 00EB8104 		add	r4, r0, r1, lsl #2
 623              		.loc 1 429 27 view .LVU178
 624 0006 0025     		movs	r5, #0
 625              		.loc 1 427 23 view .LVU179
 626 0008 E468     		ldr	r4, [r4, #12]
 627 000a 6469     		ldr	r4, [r4, #20]
ARM GAS  C:\Users\USER\AppData\Local\Temp\cc3DDGj6.s 			page 12


 628              	.LVL30:
 629              		.loc 1 429 3 is_stmt 1 view .LVU180
 630              		.loc 1 430 27 is_stmt 0 view .LVU181
 631 000c E260     		str	r2, [r4, #12]
 632              		.loc 1 431 27 view .LVU182
 633 000e 6360     		str	r3, [r4, #4]
 634              		.loc 1 429 27 view .LVU183
 635 0010 2570     		strb	r5, [r4]
 636              		.loc 1 430 3 is_stmt 1 view .LVU184
 637              		.loc 1 431 3 view .LVU185
 638              		.loc 1 432 3 view .LVU186
 639              		.loc 1 432 27 is_stmt 0 view .LVU187
 640 0012 A560     		str	r5, [r4, #8]
 641              		.loc 1 434 3 is_stmt 1 view .LVU188
 642              		.loc 1 435 1 is_stmt 0 view .LVU189
 643 0014 30BC     		pop	{r4, r5}
 644              		.cfi_restore 5
 645              		.cfi_restore 4
 646              		.cfi_def_cfa_offset 0
 647              	.LVL31:
 648              		.loc 1 434 3 view .LVU190
 649 0016 FFF7FEBF 		b	usb_lld_prepare_transmit
 650              	.LVL32:
 651              		.loc 1 434 3 view .LVU191
 652              		.cfi_endproc
 653              	.LFE266:
 654              		.size	usbPrepareTransmit, .-usbPrepareTransmit
 655 001a 00BF     		.section	.text.usbPrepareQueuedReceive,"ax",%progbits
 656              		.align	1
 657              		.p2align 4,,15
 658              		.global	usbPrepareQueuedReceive
 659              		.syntax unified
 660              		.thumb
 661              		.thumb_func
 662              		.fpu fpv4-sp-d16
 663              		.type	usbPrepareQueuedReceive, %function
 664              	usbPrepareQueuedReceive:
 665              	.LVL33:
 666              	.LFB267:
 667              		.loc 1 455 60 is_stmt 1 view -0
 668              		.cfi_startproc
 669              		@ args = 0, pretend = 0, frame = 0
 670              		@ frame_needed = 0, uses_anonymous_args = 0
 671              		@ link register save eliminated.
 672              		.loc 1 456 3 view .LVU193
 673              		.loc 1 455 60 is_stmt 0 view .LVU194
 674 0000 30B4     		push	{r4, r5}
 675              		.cfi_def_cfa_offset 8
 676              		.cfi_offset 4, -8
 677              		.cfi_offset 5, -4
 678              		.loc 1 456 39 view .LVU195
 679 0002 00EB8104 		add	r4, r0, r1, lsl #2
 680              		.loc 1 458 27 view .LVU196
 681 0006 0125     		movs	r5, #1
 682              		.loc 1 456 24 view .LVU197
 683 0008 E468     		ldr	r4, [r4, #12]
 684 000a A469     		ldr	r4, [r4, #24]
ARM GAS  C:\Users\USER\AppData\Local\Temp\cc3DDGj6.s 			page 13


 685              	.LVL34:
 686              		.loc 1 458 3 is_stmt 1 view .LVU198
 687              		.loc 1 459 27 is_stmt 0 view .LVU199
 688 000c E260     		str	r2, [r4, #12]
 689              		.loc 1 461 27 view .LVU200
 690 000e 0022     		movs	r2, #0
 691              	.LVL35:
 692              		.loc 1 460 27 view .LVU201
 693 0010 6360     		str	r3, [r4, #4]
 694              		.loc 1 458 27 view .LVU202
 695 0012 2570     		strb	r5, [r4]
 696              		.loc 1 459 3 is_stmt 1 view .LVU203
 697              		.loc 1 460 3 view .LVU204
 698              		.loc 1 461 3 view .LVU205
 699              		.loc 1 461 27 is_stmt 0 view .LVU206
 700 0014 A260     		str	r2, [r4, #8]
 701              		.loc 1 463 3 is_stmt 1 view .LVU207
 702              		.loc 1 464 1 is_stmt 0 view .LVU208
 703 0016 30BC     		pop	{r4, r5}
 704              		.cfi_restore 5
 705              		.cfi_restore 4
 706              		.cfi_def_cfa_offset 0
 707              	.LVL36:
 708              		.loc 1 463 3 view .LVU209
 709 0018 FFF7FEBF 		b	usb_lld_prepare_receive
 710              	.LVL37:
 711              		.loc 1 463 3 view .LVU210
 712              		.cfi_endproc
 713              	.LFE267:
 714              		.size	usbPrepareQueuedReceive, .-usbPrepareQueuedReceive
 715              		.section	.text.usbPrepareQueuedTransmit,"ax",%progbits
 716              		.align	1
 717              		.p2align 4,,15
 718              		.global	usbPrepareQueuedTransmit
 719              		.syntax unified
 720              		.thumb
 721              		.thumb_func
 722              		.fpu fpv4-sp-d16
 723              		.type	usbPrepareQueuedTransmit, %function
 724              	usbPrepareQueuedTransmit:
 725              	.LVL38:
 726              	.LFB268:
 727              		.loc 1 481 62 is_stmt 1 view -0
 728              		.cfi_startproc
 729              		@ args = 0, pretend = 0, frame = 0
 730              		@ frame_needed = 0, uses_anonymous_args = 0
 731              		@ link register save eliminated.
 732              		.loc 1 482 3 view .LVU212
 733              		.loc 1 481 62 is_stmt 0 view .LVU213
 734 0000 30B4     		push	{r4, r5}
 735              		.cfi_def_cfa_offset 8
 736              		.cfi_offset 4, -8
 737              		.cfi_offset 5, -4
 738              		.loc 1 482 38 view .LVU214
 739 0002 00EB8104 		add	r4, r0, r1, lsl #2
 740              		.loc 1 484 27 view .LVU215
 741 0006 0125     		movs	r5, #1
ARM GAS  C:\Users\USER\AppData\Local\Temp\cc3DDGj6.s 			page 14


 742              		.loc 1 482 23 view .LVU216
 743 0008 E468     		ldr	r4, [r4, #12]
 744 000a 6469     		ldr	r4, [r4, #20]
 745              	.LVL39:
 746              		.loc 1 484 3 is_stmt 1 view .LVU217
 747              		.loc 1 485 27 is_stmt 0 view .LVU218
 748 000c E260     		str	r2, [r4, #12]
 749              		.loc 1 487 27 view .LVU219
 750 000e 0022     		movs	r2, #0
 751              	.LVL40:
 752              		.loc 1 486 27 view .LVU220
 753 0010 6360     		str	r3, [r4, #4]
 754              		.loc 1 484 27 view .LVU221
 755 0012 2570     		strb	r5, [r4]
 756              		.loc 1 485 3 is_stmt 1 view .LVU222
 757              		.loc 1 486 3 view .LVU223
 758              		.loc 1 487 3 view .LVU224
 759              		.loc 1 487 27 is_stmt 0 view .LVU225
 760 0014 A260     		str	r2, [r4, #8]
 761              		.loc 1 489 3 is_stmt 1 view .LVU226
 762              		.loc 1 490 1 is_stmt 0 view .LVU227
 763 0016 30BC     		pop	{r4, r5}
 764              		.cfi_restore 5
 765              		.cfi_restore 4
 766              		.cfi_def_cfa_offset 0
 767              	.LVL41:
 768              		.loc 1 489 3 view .LVU228
 769 0018 FFF7FEBF 		b	usb_lld_prepare_transmit
 770              	.LVL42:
 771              		.loc 1 489 3 view .LVU229
 772              		.cfi_endproc
 773              	.LFE268:
 774              		.size	usbPrepareQueuedTransmit, .-usbPrepareQueuedTransmit
 775              		.section	.text.usbStartReceiveI,"ax",%progbits
 776              		.align	1
 777              		.p2align 4,,15
 778              		.global	usbStartReceiveI
 779              		.syntax unified
 780              		.thumb
 781              		.thumb_func
 782              		.fpu fpv4-sp-d16
 783              		.type	usbStartReceiveI, %function
 784              	usbStartReceiveI:
 785              	.LVL43:
 786              	.LFB269:
 787              		.loc 1 506 52 is_stmt 1 view -0
 788              		.cfi_startproc
 789              		@ args = 0, pretend = 0, frame = 0
 790              		@ frame_needed = 0, uses_anonymous_args = 0
 791              		.loc 1 508 23 view .LVU231
 792              		.loc 1 509 3 view .LVU232
 793              		.loc 1 509 3 view .LVU233
 794              		.loc 1 511 3 view .LVU234
 795              		.loc 1 511 7 is_stmt 0 view .LVU235
 796 0000 0122     		movs	r2, #1
 797              		.loc 1 506 52 view .LVU236
 798 0002 70B5     		push	{r4, r5, r6, lr}
ARM GAS  C:\Users\USER\AppData\Local\Temp\cc3DDGj6.s 			page 15


 799              		.cfi_def_cfa_offset 16
 800              		.cfi_offset 4, -16
 801              		.cfi_offset 5, -12
 802              		.cfi_offset 6, -8
 803              		.cfi_offset 14, -4
 804              		.loc 1 511 7 view .LVU237
 805 0004 02FA01F3 		lsl	r3, r2, r1
 806 0008 4489     		ldrh	r4, [r0, #10]
 807 000a 9BB2     		uxth	r3, r3
 808              		.loc 1 511 6 view .LVU238
 809 000c 14EA0306 		ands	r6, r4, r3
 810 0010 01D0     		beq	.L31
 811              		.loc 1 512 12 view .LVU239
 812 0012 1046     		mov	r0, r2
 813              	.LVL44:
 814              		.loc 1 518 1 view .LVU240
 815 0014 70BD     		pop	{r4, r5, r6, pc}
 816              	.LVL45:
 817              	.L31:
 818              		.loc 1 515 3 is_stmt 1 view .LVU241
 819              		.loc 1 515 19 is_stmt 0 view .LVU242
 820 0016 2343     		orrs	r3, r3, r4
 821 0018 4381     		strh	r3, [r0, #10]	@ movhi
 822              		.loc 1 516 3 is_stmt 1 view .LVU243
 823 001a FFF7FEFF 		bl	usb_lld_start_out
 824              	.LVL46:
 825              		.loc 1 517 3 view .LVU244
 826              		.loc 1 517 10 is_stmt 0 view .LVU245
 827 001e 3046     		mov	r0, r6
 828              		.loc 1 518 1 view .LVU246
 829 0020 70BD     		pop	{r4, r5, r6, pc}
 830              		.cfi_endproc
 831              	.LFE269:
 832              		.size	usbStartReceiveI, .-usbStartReceiveI
 833 0022 00BF     		.section	.text.usbStartTransmitI,"ax",%progbits
 834              		.align	1
 835              		.p2align 4,,15
 836              		.global	usbStartTransmitI
 837              		.syntax unified
 838              		.thumb
 839              		.thumb_func
 840              		.fpu fpv4-sp-d16
 841              		.type	usbStartTransmitI, %function
 842              	usbStartTransmitI:
 843              	.LVL47:
 844              	.LFB270:
 845              		.loc 1 534 53 is_stmt 1 view -0
 846              		.cfi_startproc
 847              		@ args = 0, pretend = 0, frame = 0
 848              		@ frame_needed = 0, uses_anonymous_args = 0
 849              		.loc 1 536 23 view .LVU248
 850              		.loc 1 537 3 view .LVU249
 851              		.loc 1 537 3 view .LVU250
 852              		.loc 1 539 3 view .LVU251
 853              		.loc 1 539 7 is_stmt 0 view .LVU252
 854 0000 0122     		movs	r2, #1
 855              		.loc 1 534 53 view .LVU253
ARM GAS  C:\Users\USER\AppData\Local\Temp\cc3DDGj6.s 			page 16


 856 0002 70B5     		push	{r4, r5, r6, lr}
 857              		.cfi_def_cfa_offset 16
 858              		.cfi_offset 4, -16
 859              		.cfi_offset 5, -12
 860              		.cfi_offset 6, -8
 861              		.cfi_offset 14, -4
 862              		.loc 1 539 7 view .LVU254
 863 0004 02FA01F3 		lsl	r3, r2, r1
 864 0008 0489     		ldrh	r4, [r0, #8]
 865 000a 9BB2     		uxth	r3, r3
 866              		.loc 1 539 6 view .LVU255
 867 000c 14EA0306 		ands	r6, r4, r3
 868 0010 01D0     		beq	.L36
 869              		.loc 1 540 12 view .LVU256
 870 0012 1046     		mov	r0, r2
 871              	.LVL48:
 872              		.loc 1 546 1 view .LVU257
 873 0014 70BD     		pop	{r4, r5, r6, pc}
 874              	.LVL49:
 875              	.L36:
 876              		.loc 1 543 3 is_stmt 1 view .LVU258
 877              		.loc 1 543 22 is_stmt 0 view .LVU259
 878 0016 2343     		orrs	r3, r3, r4
 879 0018 0381     		strh	r3, [r0, #8]	@ movhi
 880              		.loc 1 544 3 is_stmt 1 view .LVU260
 881 001a FFF7FEFF 		bl	usb_lld_start_in
 882              	.LVL50:
 883              		.loc 1 545 3 view .LVU261
 884              		.loc 1 545 10 is_stmt 0 view .LVU262
 885 001e 3046     		mov	r0, r6
 886              		.loc 1 546 1 view .LVU263
 887 0020 70BD     		pop	{r4, r5, r6, pc}
 888              		.cfi_endproc
 889              	.LFE270:
 890              		.size	usbStartTransmitI, .-usbStartTransmitI
 891 0022 00BF     		.section	.text.usbStallReceiveI,"ax",%progbits
 892              		.align	1
 893              		.p2align 4,,15
 894              		.global	usbStallReceiveI
 895              		.syntax unified
 896              		.thumb
 897              		.thumb_func
 898              		.fpu fpv4-sp-d16
 899              		.type	usbStallReceiveI, %function
 900              	usbStallReceiveI:
 901              	.LVL51:
 902              	.LFB271:
 903              		.loc 1 560 52 is_stmt 1 view -0
 904              		.cfi_startproc
 905              		@ args = 0, pretend = 0, frame = 0
 906              		@ frame_needed = 0, uses_anonymous_args = 0
 907              		.loc 1 562 23 view .LVU265
 908              		.loc 1 563 3 view .LVU266
 909              		.loc 1 563 3 view .LVU267
 910              		.loc 1 565 3 view .LVU268
 911              		.loc 1 560 52 is_stmt 0 view .LVU269
 912 0000 10B5     		push	{r4, lr}
ARM GAS  C:\Users\USER\AppData\Local\Temp\cc3DDGj6.s 			page 17


 913              		.cfi_def_cfa_offset 8
 914              		.cfi_offset 4, -8
 915              		.cfi_offset 14, -4
 916              		.loc 1 565 7 view .LVU270
 917 0002 0123     		movs	r3, #1
 918 0004 4489     		ldrh	r4, [r0, #10]
 919 0006 03FA01F2 		lsl	r2, r3, r1
 920              		.loc 1 565 6 view .LVU271
 921 000a 1440     		ands	r4, r2, r4
 922 000c 01D0     		beq	.L41
 923              		.loc 1 566 12 view .LVU272
 924 000e 1846     		mov	r0, r3
 925              	.LVL52:
 926              		.loc 1 571 1 view .LVU273
 927 0010 10BD     		pop	{r4, pc}
 928              	.LVL53:
 929              	.L41:
 930              		.loc 1 569 3 is_stmt 1 view .LVU274
 931 0012 FFF7FEFF 		bl	usb_lld_stall_out
 932              	.LVL54:
 933              		.loc 1 570 3 view .LVU275
 934              		.loc 1 570 10 is_stmt 0 view .LVU276
 935 0016 2046     		mov	r0, r4
 936              		.loc 1 571 1 view .LVU277
 937 0018 10BD     		pop	{r4, pc}
 938              		.cfi_endproc
 939              	.LFE271:
 940              		.size	usbStallReceiveI, .-usbStallReceiveI
 941 001a 00BF     		.section	.text.usbStallTransmitI,"ax",%progbits
 942              		.align	1
 943              		.p2align 4,,15
 944              		.global	usbStallTransmitI
 945              		.syntax unified
 946              		.thumb
 947              		.thumb_func
 948              		.fpu fpv4-sp-d16
 949              		.type	usbStallTransmitI, %function
 950              	usbStallTransmitI:
 951              	.LVL55:
 952              	.LFB272:
 953              		.loc 1 585 53 is_stmt 1 view -0
 954              		.cfi_startproc
 955              		@ args = 0, pretend = 0, frame = 0
 956              		@ frame_needed = 0, uses_anonymous_args = 0
 957              		.loc 1 587 23 view .LVU279
 958              		.loc 1 588 3 view .LVU280
 959              		.loc 1 588 3 view .LVU281
 960              		.loc 1 590 3 view .LVU282
 961              		.loc 1 585 53 is_stmt 0 view .LVU283
 962 0000 10B5     		push	{r4, lr}
 963              		.cfi_def_cfa_offset 8
 964              		.cfi_offset 4, -8
 965              		.cfi_offset 14, -4
 966              		.loc 1 590 7 view .LVU284
 967 0002 0123     		movs	r3, #1
 968 0004 0489     		ldrh	r4, [r0, #8]
 969 0006 03FA01F2 		lsl	r2, r3, r1
ARM GAS  C:\Users\USER\AppData\Local\Temp\cc3DDGj6.s 			page 18


 970              		.loc 1 590 6 view .LVU285
 971 000a 1440     		ands	r4, r2, r4
 972 000c 01D0     		beq	.L46
 973              		.loc 1 591 12 view .LVU286
 974 000e 1846     		mov	r0, r3
 975              	.LVL56:
 976              		.loc 1 596 1 view .LVU287
 977 0010 10BD     		pop	{r4, pc}
 978              	.LVL57:
 979              	.L46:
 980              		.loc 1 594 3 is_stmt 1 view .LVU288
 981 0012 FFF7FEFF 		bl	usb_lld_stall_in
 982              	.LVL58:
 983              		.loc 1 595 3 view .LVU289
 984              		.loc 1 595 10 is_stmt 0 view .LVU290
 985 0016 2046     		mov	r0, r4
 986              		.loc 1 596 1 view .LVU291
 987 0018 10BD     		pop	{r4, pc}
 988              		.cfi_endproc
 989              	.LFE272:
 990              		.size	usbStallTransmitI, .-usbStallTransmitI
 991 001a 00BF     		.section	.text._usb_reset,"ax",%progbits
 992              		.align	1
 993              		.p2align 4,,15
 994              		.global	_usb_reset
 995              		.syntax unified
 996              		.thumb
 997              		.thumb_func
 998              		.fpu fpv4-sp-d16
 999              		.type	_usb_reset, %function
 1000              	_usb_reset:
 1001              	.LVL59:
 1002              	.LFB273:
 1003              		.loc 1 607 34 is_stmt 1 view -0
 1004              		.cfi_startproc
 1005              		@ args = 0, pretend = 0, frame = 0
 1006              		@ frame_needed = 0, uses_anonymous_args = 0
 1007              		@ link register save eliminated.
 1008              		.loc 1 608 3 view .LVU293
 1009              		.loc 1 610 3 view .LVU294
 1010              		.loc 1 611 23 is_stmt 0 view .LVU295
 1011 0000 0022     		movs	r2, #0
 1012              		.loc 1 610 23 view .LVU296
 1013 0002 0221     		movs	r1, #2
 1014 0004 0170     		strb	r1, [r0]
 1015              		.loc 1 611 3 is_stmt 1 view .LVU297
 1016              		.loc 1 612 3 view .LVU298
 1017              		.loc 1 613 3 view .LVU299
 1018              		.loc 1 611 23 is_stmt 0 view .LVU300
 1019 0006 C264     		str	r2, [r0, #76]
 1020              		.loc 1 614 3 is_stmt 1 view .LVU301
 1021              		.loc 1 615 3 view .LVU302
 1022              		.loc 1 618 3 view .LVU303
 1023              	.LVL60:
 1024              		.loc 1 619 5 view .LVU304
 1025              		.loc 1 619 5 view .LVU305
 1026              		.loc 1 619 5 view .LVU306
ARM GAS  C:\Users\USER\AppData\Local\Temp\cc3DDGj6.s 			page 19


 1027              		.loc 1 619 5 view .LVU307
 1028              		.loc 1 619 18 is_stmt 0 view .LVU308
 1029 0008 C0E90222 		strd	r2, r2, [r0, #8]
 1030 000c C0E90422 		strd	r2, r2, [r0, #16]
 1031 0010 8261     		str	r2, [r0, #24]
 1032              	.LVL61:
 1033              		.loc 1 623 3 is_stmt 1 view .LVU309
 1034              		.loc 1 623 18 is_stmt 0 view .LVU310
 1035 0012 80F83420 		strb	r2, [r0, #52]
 1036              		.loc 1 626 3 is_stmt 1 view .LVU311
 1037 0016 FFF7FEBF 		b	usb_lld_reset
 1038              	.LVL62:
 1039              		.loc 1 626 3 is_stmt 0 view .LVU312
 1040              		.cfi_endproc
 1041              	.LFE273:
 1042              		.size	_usb_reset, .-_usb_reset
 1043 001a 00BF     		.section	.text._usb_ep0setup,"ax",%progbits
 1044              		.align	1
 1045              		.p2align 4,,15
 1046              		.global	_usb_ep0setup
 1047              		.syntax unified
 1048              		.thumb
 1049              		.thumb_func
 1050              		.fpu fpv4-sp-d16
 1051              		.type	_usb_ep0setup, %function
 1052              	_usb_ep0setup:
 1053              	.LVL63:
 1054              	.LFB274:
 1055              		.loc 1 639 49 is_stmt 1 view -0
 1056              		.cfi_startproc
 1057              		@ args = 0, pretend = 0, frame = 0
 1058              		@ frame_needed = 0, uses_anonymous_args = 0
 1059              		.loc 1 640 3 view .LVU314
 1060              		.loc 1 642 3 view .LVU315
 1061              		.loc 1 639 49 is_stmt 0 view .LVU316
 1062 0000 F8B5     		push	{r3, r4, r5, r6, r7, lr}
 1063              		.cfi_def_cfa_offset 24
 1064              		.cfi_offset 3, -24
 1065              		.cfi_offset 4, -20
 1066              		.cfi_offset 5, -16
 1067              		.cfi_offset 6, -12
 1068              		.cfi_offset 7, -8
 1069              		.cfi_offset 14, -4
 1070              		.loc 1 642 18 view .LVU317
 1071 0002 0023     		movs	r3, #0
 1072              		.loc 1 639 49 view .LVU318
 1073 0004 0446     		mov	r4, r0
 1074              		.loc 1 642 18 view .LVU319
 1075 0006 80F83430 		strb	r3, [r0, #52]
 1076              		.loc 1 643 3 is_stmt 1 view .LVU320
 1077 000a 00F14402 		add	r2, r0, #68
 1078 000e FFF7FEFF 		bl	usb_lld_read_setup
 1079              	.LVL64:
 1080              		.loc 1 648 3 view .LVU321
 1081              		.loc 1 648 20 is_stmt 0 view .LVU322
 1082 0012 6368     		ldr	r3, [r4, #4]
 1083 0014 9B68     		ldr	r3, [r3, #8]
ARM GAS  C:\Users\USER\AppData\Local\Temp\cc3DDGj6.s 			page 20


 1084              		.loc 1 648 6 view .LVU323
 1085 0016 002B     		cmp	r3, #0
 1086 0018 33D0     		beq	.L53
 1087              		.loc 1 649 9 discriminator 1 view .LVU324
 1088 001a 2046     		mov	r0, r4
 1089 001c 9847     		blx	r3
 1090              	.LVL65:
 1091              		.loc 1 648 48 discriminator 1 view .LVU325
 1092 001e 80B3     		cbz	r0, .L53
 1093 0020 E56B     		ldr	r5, [r4, #60]
 1094 0022 94F84460 		ldrb	r6, [r4, #68]	@ zero_extendqisi2
 1095              	.L70:
 1096              		.loc 1 676 3 is_stmt 1 view .LVU326
 1097              	.LVL66:
 1098              	.LBB343:
 1099              	.LBI343:
 1100              		.loc 1 51 17 view .LVU327
 1101              	.LBB344:
 1102              		.loc 1 52 3 view .LVU328
 1103              		.loc 1 54 3 view .LVU329
 1104              		.loc 1 55 3 view .LVU330
 1105              		.loc 1 56 3 view .LVU331
 1106              		.loc 1 55 9 is_stmt 0 view .LVU332
 1107 0026 94F84B20 		ldrb	r2, [r4, #75]	@ zero_extendqisi2
 1108              		.loc 1 55 6 view .LVU333
 1109 002a 94F84A30 		ldrb	r3, [r4, #74]	@ zero_extendqisi2
 1110              	.LBE344:
 1111              	.LBE343:
 1112              		.loc 1 676 7 view .LVU334
 1113 002e 43EA0223 		orr	r3, r3, r2, lsl #8
 1114              	.LVL67:
 1115              		.loc 1 678 3 is_stmt 1 view .LVU335
 1116              		.loc 1 678 6 is_stmt 0 view .LVU336
 1117 0032 AB42     		cmp	r3, r5
 1118              		.loc 1 679 5 is_stmt 1 view .LVU337
 1119              		.loc 1 681 3 view .LVU338
 1120              		.loc 1 679 16 is_stmt 0 view .LVU339
 1121 0034 3CBF     		itt	cc
 1122 0036 E363     		strcc	r3, [r4, #60]
 1123 0038 1D46     		movcc	r5, r3
 1124              		.loc 1 681 6 view .LVU340
 1125 003a 3106     		lsls	r1, r6, #24
 1126 003c E368     		ldr	r3, [r4, #12]
 1127              	.LVL68:
 1128              		.loc 1 681 6 view .LVU341
 1129 003e 00F19980 		bmi	.L131
 1130              		.loc 1 707 5 is_stmt 1 view .LVU342
 1131              		.loc 1 707 8 is_stmt 0 view .LVU343
 1132 0042 002D     		cmp	r5, #0
 1133 0044 79D0     		beq	.L92
 1134              		.loc 1 709 7 is_stmt 1 view .LVU344
 1135              	.LBB346:
 1136              	.LBB347:
 1137              		.loc 1 401 24 is_stmt 0 view .LVU345
 1138 0046 9B69     		ldr	r3, [r3, #24]
 1139              	.LBE347:
 1140              	.LBE346:
ARM GAS  C:\Users\USER\AppData\Local\Temp\cc3DDGj6.s 			page 21


 1141              		.loc 1 710 7 view .LVU346
 1142 0048 A26B     		ldr	r2, [r4, #56]
 1143              	.LVL69:
 1144              	.LBB350:
 1145              	.LBB348:
 1146              		.loc 1 403 27 view .LVU347
 1147 004a 0021     		movs	r1, #0
 1148              	.LBE348:
 1149              	.LBE350:
 1150              		.loc 1 709 22 view .LVU348
 1151 004c 0420     		movs	r0, #4
 1152 004e 84F83400 		strb	r0, [r4, #52]
 1153              		.loc 1 710 7 is_stmt 1 view .LVU349
 1154              	.LVL70:
 1155              	.LBB351:
 1156              	.LBI346:
 1157              		.loc 1 400 6 view .LVU350
 1158              	.LBB349:
 1159              		.loc 1 401 3 view .LVU351
 1160              		.loc 1 403 3 view .LVU352
 1161              		.loc 1 404 27 is_stmt 0 view .LVU353
 1162 0052 DA60     		str	r2, [r3, #12]
 1163              	.LVL71:
 1164              		.loc 1 405 27 view .LVU354
 1165 0054 5D60     		str	r5, [r3, #4]
 1166              		.loc 1 403 27 view .LVU355
 1167 0056 1970     		strb	r1, [r3]
 1168              		.loc 1 404 3 is_stmt 1 view .LVU356
 1169              		.loc 1 405 3 view .LVU357
 1170              		.loc 1 406 3 view .LVU358
 1171              		.loc 1 406 27 is_stmt 0 view .LVU359
 1172 0058 9960     		str	r1, [r3, #8]
 1173              	.LVL72:
 1174              	.L127:
 1175              		.loc 1 408 3 is_stmt 1 view .LVU360
 1176 005a 2046     		mov	r0, r4
 1177 005c FFF7FEFF 		bl	usb_lld_prepare_receive
 1178              	.LVL73:
 1179              	.LBE349:
 1180              	.LBE351:
 1181              		.loc 1 711 7 view .LVU361
 1182              	.LBB352:
 1183              	.LBI352:
 1184              		.loc 2 513 20 view .LVU362
 1185              	.LBE352:
 1186              		.loc 2 515 3 view .LVU363
 1187              	.LBB364:
 1188              	.LBB353:
 1189              	.LBI353:
 1190              		.loc 3 386 20 view .LVU364
 1191              	.LBE353:
 1192              	.LBE364:
 1193              		.loc 3 388 3 view .LVU365
 1194              	.LBB365:
 1195              	.LBB361:
 1196              	.LBB354:
 1197              	.LBI354:
ARM GAS  C:\Users\USER\AppData\Local\Temp\cc3DDGj6.s 			page 22


 1198              		.loc 4 473 20 view .LVU366
 1199              	.LBE354:
 1200              	.LBE361:
 1201              	.LBE365:
 1202              		.loc 4 475 3 view .LVU367
 1203              	.LBB366:
 1204              	.LBB362:
 1205              	.LBB359:
 1206              	.LBB355:
 1207              	.LBI355:
 1208              		.loc 4 444 20 view .LVU368
 1209              	.LBE355:
 1210              	.LBE359:
 1211              	.LBE362:
 1212              	.LBE366:
 1213              		.loc 4 447 3 view .LVU369
 1214              	.LBB367:
 1215              	.LBB363:
 1216              	.LBB360:
 1217              	.LBB358:
 1218              	.LBB356:
 1219              	.LBI356:
 1220              		.loc 5 544 57 view .LVU370
 1221              	.LBB357:
 1222              		.loc 5 546 3 view .LVU371
 1223 0060 2023     		movs	r3, #32
 1224              		.syntax unified
 1225              	@ 546 "src/ChibiOS_3.0.2/os/ext/CMSIS/include/core_cmFunc.h" 1
 1226 0062 83F31188 		MSR basepri, r3
 1227              	@ 0 "" 2
 1228              	.LVL74:
 1229              		.loc 5 546 3 is_stmt 0 view .LVU372
 1230              		.thumb
 1231              		.syntax unified
 1232              	.LBE357:
 1233              	.LBE356:
 1234              	.LBE358:
 1235              	.LBE360:
 1236              	.LBE363:
 1237              	.LBE367:
 1238              		.loc 3 389 34 is_stmt 1 view .LVU373
 1239              		.loc 3 390 29 view .LVU374
 1240              		.loc 1 712 7 view .LVU375
 1241              	.LBB368:
 1242              	.LBI368:
 1243              		.loc 1 506 6 view .LVU376
 1244              	.LBB369:
 1245              		.loc 1 508 23 view .LVU377
 1246              		.loc 1 509 3 view .LVU378
 1247              		.loc 1 509 3 view .LVU379
 1248              		.loc 1 511 3 view .LVU380
 1249              		.loc 1 511 7 is_stmt 0 view .LVU381
 1250 0066 6389     		ldrh	r3, [r4, #10]
 1251              		.loc 1 511 6 view .LVU382
 1252 0068 13F00101 		ands	r1, r3, #1
 1253 006c 05D1     		bne	.L94
 1254              		.loc 1 515 3 is_stmt 1 view .LVU383
ARM GAS  C:\Users\USER\AppData\Local\Temp\cc3DDGj6.s 			page 23


 1255              		.loc 1 515 19 is_stmt 0 view .LVU384
 1256 006e 43F00103 		orr	r3, r3, #1
 1257 0072 6381     		strh	r3, [r4, #10]	@ movhi
 1258              		.loc 1 516 3 is_stmt 1 view .LVU385
 1259 0074 2046     		mov	r0, r4
 1260 0076 FFF7FEFF 		bl	usb_lld_start_out
 1261              	.LVL75:
 1262              		.loc 1 517 3 view .LVU386
 1263              		.loc 1 517 3 is_stmt 0 view .LVU387
 1264              	.LBE369:
 1265              	.LBE368:
 1266              		.loc 1 713 7 is_stmt 1 view .LVU388
 1267              	.LBB370:
 1268              	.LBI370:
 1269              		.loc 2 524 20 view .LVU389
 1270              	.LBE370:
 1271              		.loc 2 526 3 view .LVU390
 1272              	.LBB382:
 1273              	.LBB371:
 1274              	.LBI371:
 1275              		.loc 3 406 20 view .LVU391
 1276              	.LBE371:
 1277              	.LBE382:
 1278              		.loc 3 408 31 view .LVU392
 1279              		.loc 3 409 33 view .LVU393
 1280              		.loc 3 410 3 view .LVU394
 1281              	.LBB383:
 1282              	.LBB379:
 1283              	.LBB372:
 1284              	.LBI372:
 1285              		.loc 4 484 20 view .LVU395
 1286              	.LBE372:
 1287              	.LBE379:
 1288              	.LBE383:
 1289              		.loc 4 486 3 view .LVU396
 1290              	.LBB384:
 1291              	.LBB380:
 1292              	.LBB377:
 1293              	.LBB373:
 1294              	.LBI373:
 1295              		.loc 4 458 20 view .LVU397
 1296              	.LBE373:
 1297              	.LBE377:
 1298              	.LBE380:
 1299              	.LBE384:
 1300              		.loc 4 461 3 view .LVU398
 1301              	.LBB385:
 1302              	.LBB381:
 1303              	.LBB378:
 1304              	.LBB376:
 1305              	.LBB374:
 1306              	.LBI374:
 1307              		.loc 5 544 57 view .LVU399
 1308              	.LBB375:
 1309              		.loc 5 546 3 view .LVU400
 1310              	.L94:
 1311              		.loc 5 546 3 is_stmt 0 view .LVU401
ARM GAS  C:\Users\USER\AppData\Local\Temp\cc3DDGj6.s 			page 24


 1312              	.LBE375:
 1313              	.LBE374:
 1314              	.LBE376:
 1315              	.LBE378:
 1316              	.LBE381:
 1317              	.LBE385:
 1318              		.loc 1 723 7 is_stmt 1 view .LVU402
 1319              	.LBB386:
 1320              	.LBI386:
 1321              		.loc 2 524 20 view .LVU403
 1322              	.LBE386:
 1323              		.loc 2 526 3 view .LVU404
 1324              	.LBB398:
 1325              	.LBB387:
 1326              	.LBI387:
 1327              		.loc 3 406 20 view .LVU405
 1328              	.LBE387:
 1329              	.LBE398:
 1330              		.loc 3 408 31 view .LVU406
 1331              		.loc 3 409 33 view .LVU407
 1332              		.loc 3 410 3 view .LVU408
 1333              	.LBB399:
 1334              	.LBB395:
 1335              	.LBB388:
 1336              	.LBI388:
 1337              		.loc 4 484 20 view .LVU409
 1338              	.LBE388:
 1339              	.LBE395:
 1340              	.LBE399:
 1341              		.loc 4 486 3 view .LVU410
 1342              	.LBB400:
 1343              	.LBB396:
 1344              	.LBB393:
 1345              	.LBB389:
 1346              	.LBI389:
 1347              		.loc 4 458 20 view .LVU411
 1348              	.LBE389:
 1349              	.LBE393:
 1350              	.LBE396:
 1351              	.LBE400:
 1352              		.loc 4 461 3 view .LVU412
 1353              	.LBB401:
 1354              	.LBB397:
 1355              	.LBB394:
 1356              	.LBB392:
 1357              	.LBB390:
 1358              	.LBI390:
 1359              		.loc 5 544 57 view .LVU413
 1360              	.LBB391:
 1361              		.loc 5 546 3 view .LVU414
 1362 007a 0023     		movs	r3, #0
 1363              		.syntax unified
 1364              	@ 546 "src/ChibiOS_3.0.2/os/ext/CMSIS/include/core_cmFunc.h" 1
 1365 007c 83F31188 		MSR basepri, r3
 1366              	@ 0 "" 2
 1367              	.LVL76:
 1368              		.loc 5 546 3 is_stmt 0 view .LVU415
ARM GAS  C:\Users\USER\AppData\Local\Temp\cc3DDGj6.s 			page 25


 1369              		.thumb
 1370              		.syntax unified
 1371              	.LBE391:
 1372              	.LBE390:
 1373              	.LBE392:
 1374              	.LBE394:
 1375              	.LBE397:
 1376              	.LBE401:
 1377              		.loc 1 729 1 view .LVU416
 1378 0080 F8BD     		pop	{r3, r4, r5, r6, r7, pc}
 1379              	.LVL77:
 1380              	.L53:
 1381              		.loc 1 654 5 is_stmt 1 view .LVU417
 1382              		.loc 1 654 22 is_stmt 0 view .LVU418
 1383 0082 94F84460 		ldrb	r6, [r4, #68]	@ zero_extendqisi2
 1384              		.loc 1 654 8 view .LVU419
 1385 0086 16F06007 		ands	r7, r6, #96
 1386 008a 30D1     		bne	.L69
 1387              	.LVL78:
 1388              	.LBB402:
 1389              	.LBI402:
 1390              		.loc 1 84 13 is_stmt 1 view .LVU420
 1391              	.LBB403:
 1392              		.loc 1 85 3 view .LVU421
 1393              		.loc 1 88 3 view .LVU422
 1394              		.loc 1 90 13 is_stmt 0 view .LVU423
 1395 008c 94F84530 		ldrb	r3, [r4, #69]	@ zero_extendqisi2
 1396              		.loc 1 88 38 view .LVU424
 1397 0090 06F07F05 		and	r5, r6, #127
 1398              		.loc 1 89 63 view .LVU425
 1399 0094 45EA0325 		orr	r5, r5, r3, lsl #8
 1400              		.loc 1 88 3 view .LVU426
 1401 0098 B5F5407F 		cmp	r5, #768
 1402 009c 00F0B280 		beq	.L54
 1403 00a0 16D9     		bls	.L132
 1404 00a2 B5F5C06F 		cmp	r5, #1536
 1405 00a6 00F0BC80 		beq	.L63
 1406 00aa 32D9     		bls	.L133
 1407 00ac B5F5106F 		cmp	r5, #2304
 1408 00b0 00F0F280 		beq	.L67
 1409 00b4 40F60243 		movw	r3, #3074
 1410 00b8 9D42     		cmp	r5, r3
 1411 00ba 54D0     		beq	.L59
 1412 00bc B5F5006F 		cmp	r5, #2048
 1413 00c0 15D1     		bne	.L69
 1414              		.loc 1 141 5 is_stmt 1 view .LVU427
 1415 00c2 04F14F03 		add	r3, r4, #79
 1416 00c6 0125     		movs	r5, #1
 1417 00c8 2764     		str	r7, [r4, #64]
 1418 00ca C4E90E35 		strd	r3, r5, [r4, #56]
 1419              		.loc 1 141 5 view .LVU428
 1420              		.loc 1 141 58 view .LVU429
 1421              		.loc 1 142 5 view .LVU430
 1422              	.LVL79:
 1423              		.loc 1 142 5 is_stmt 0 view .LVU431
 1424 00ce AAE7     		b	.L70
 1425              	.LVL80:
ARM GAS  C:\Users\USER\AppData\Local\Temp\cc3DDGj6.s 			page 26


 1426              	.L132:
 1427              		.loc 1 88 3 view .LVU432
 1428 00d0 022D     		cmp	r5, #2
 1429 00d2 00F0F580 		beq	.L56
 1430 00d6 3BD9     		bls	.L134
 1431 00d8 B5F5807F 		cmp	r5, #256
 1432 00dc 00F0CD80 		beq	.L61
 1433 00e0 B5F5817F 		cmp	r5, #258
 1434 00e4 03D1     		bne	.L69
 1435              		.loc 1 201 5 is_stmt 1 view .LVU433
 1436              		.loc 1 201 8 is_stmt 0 view .LVU434
 1437 00e6 94F84630 		ldrb	r3, [r4, #70]	@ zero_extendqisi2
 1438 00ea 002B     		cmp	r3, #0
 1439 00ec 6AD0     		beq	.L135
 1440              	.LVL81:
 1441              	.L69:
 1442              		.loc 1 201 8 view .LVU435
 1443              	.LBE403:
 1444              	.LBE402:
 1445              		.loc 1 660 7 is_stmt 1 view .LVU436
 1446 00ee 0021     		movs	r1, #0
 1447 00f0 2046     		mov	r0, r4
 1448 00f2 FFF7FEFF 		bl	usb_lld_stall_in
 1449              	.LVL82:
 1450              		.loc 1 661 7 view .LVU437
 1451 00f6 0021     		movs	r1, #0
 1452 00f8 2046     		mov	r0, r4
 1453 00fa FFF7FEFF 		bl	usb_lld_stall_out
 1454              	.LVL83:
 1455              		.loc 1 662 7 view .LVU438
 1456 00fe 6368     		ldr	r3, [r4, #4]
 1457 0100 1B68     		ldr	r3, [r3]
 1458 0102 13B1     		cbz	r3, .L85
 1459              		.loc 1 662 7 discriminator 1 view .LVU439
 1460 0104 0521     		movs	r1, #5
 1461 0106 2046     		mov	r0, r4
 1462 0108 9847     		blx	r3
 1463              	.LVL84:
 1464              	.L85:
 1465              		.loc 1 662 56 discriminator 3 view .LVU440
 1466              		.loc 1 663 7 discriminator 3 view .LVU441
 1467              		.loc 1 663 22 is_stmt 0 discriminator 3 view .LVU442
 1468 010a 0623     		movs	r3, #6
 1469 010c 84F83430 		strb	r3, [r4, #52]
 1470              		.loc 1 664 7 is_stmt 1 discriminator 3 view .LVU443
 1471              		.loc 1 729 1 is_stmt 0 discriminator 3 view .LVU444
 1472 0110 F8BD     		pop	{r3, r4, r5, r6, r7, pc}
 1473              	.LVL85:
 1474              	.L133:
 1475              	.LBB413:
 1476              	.LBB410:
 1477              		.loc 1 88 3 view .LVU445
 1478 0112 40F20233 		movw	r3, #770
 1479 0116 9D42     		cmp	r5, r3
 1480 0118 00F09C80 		beq	.L65
 1481 011c B5F5A06F 		cmp	r5, #1280
 1482 0120 E5D1     		bne	.L69
ARM GAS  C:\Users\USER\AppData\Local\Temp\cc3DDGj6.s 			page 27


 1483              		.loc 1 118 5 is_stmt 1 view .LVU446
 1484              		.loc 1 118 8 is_stmt 0 view .LVU447
 1485 0122 B4F84430 		ldrh	r3, [r4, #68]
 1486 0126 B3F5A06F 		cmp	r3, #1280
 1487 012a 59D0     		beq	.L136
 1488              	.L83:
 1489              		.loc 1 229 5 is_stmt 1 view .LVU448
 1490 012c 0023     		movs	r3, #0
 1491 012e C4E90E33 		strd	r3, r3, [r4, #56]
 1492              		.loc 1 229 5 view .LVU449
 1493 0132 2364     		str	r3, [r4, #64]
 1494              		.loc 1 229 42 view .LVU450
 1495              		.loc 1 230 5 view .LVU451
 1496              	.LVL86:
 1497              	.L71:
 1498              		.loc 1 230 5 is_stmt 0 view .LVU452
 1499              	.LBE410:
 1500              	.LBE413:
 1501              		.loc 1 676 3 is_stmt 1 view .LVU453
 1502              	.LBB414:
 1503              		.loc 1 51 17 view .LVU454
 1504              	.LBB345:
 1505              		.loc 1 52 3 view .LVU455
 1506              		.loc 1 54 3 view .LVU456
 1507              		.loc 1 55 3 view .LVU457
 1508              		.loc 1 56 3 view .LVU458
 1509              		.loc 1 56 3 is_stmt 0 view .LVU459
 1510              	.LBE345:
 1511              	.LBE414:
 1512              		.loc 1 678 3 is_stmt 1 view .LVU460
 1513              		.loc 1 681 3 view .LVU461
 1514              		.loc 1 681 6 is_stmt 0 view .LVU462
 1515 0134 3206     		lsls	r2, r6, #24
 1516 0136 E368     		ldr	r3, [r4, #12]
 1517 0138 39D4     		bmi	.L89
 1518              	.LVL87:
 1519              	.L92:
 1520              		.loc 1 718 7 is_stmt 1 view .LVU463
 1521              	.LBB415:
 1522              	.LBB416:
 1523              		.loc 1 427 23 is_stmt 0 view .LVU464
 1524 013a 5A69     		ldr	r2, [r3, #20]
 1525              	.LBE416:
 1526              	.LBE415:
 1527              		.loc 1 718 22 view .LVU465
 1528 013c 0521     		movs	r1, #5
 1529              	.LBB420:
 1530              	.LBB417:
 1531              		.loc 1 429 27 view .LVU466
 1532 013e 0023     		movs	r3, #0
 1533              	.LBE417:
 1534              	.LBE420:
 1535              		.loc 1 718 22 view .LVU467
 1536 0140 84F83410 		strb	r1, [r4, #52]
 1537              		.loc 1 720 7 is_stmt 1 view .LVU468
 1538              	.LVL88:
 1539              	.LBB421:
ARM GAS  C:\Users\USER\AppData\Local\Temp\cc3DDGj6.s 			page 28


 1540              	.LBI415:
 1541              		.loc 1 425 6 view .LVU469
 1542              	.LBB418:
 1543              		.loc 1 427 3 view .LVU470
 1544              		.loc 1 429 3 view .LVU471
 1545              		.loc 1 434 3 is_stmt 0 view .LVU472
 1546 0144 1946     		mov	r1, r3
 1547              		.loc 1 429 27 view .LVU473
 1548 0146 1370     		strb	r3, [r2]
 1549              		.loc 1 430 3 is_stmt 1 view .LVU474
 1550              		.loc 1 430 27 is_stmt 0 view .LVU475
 1551 0148 D360     		str	r3, [r2, #12]
 1552              		.loc 1 431 3 is_stmt 1 view .LVU476
 1553              		.loc 1 432 27 is_stmt 0 view .LVU477
 1554 014a C2E90133 		strd	r3, r3, [r2, #4]
 1555 014e 1CE0     		b	.L128
 1556              	.LVL89:
 1557              	.L134:
 1558              		.loc 1 432 27 view .LVU478
 1559              	.LBE418:
 1560              	.LBE421:
 1561              	.LBB422:
 1562              	.LBB411:
 1563              		.loc 1 88 3 view .LVU479
 1564 0150 3DB9     		cbnz	r5, .L137
 1565              		.loc 1 93 5 is_stmt 1 view .LVU480
 1566 0152 0220     		movs	r0, #2
 1567 0154 04F14C03 		add	r3, r4, #76
 1568 0158 2564     		str	r5, [r4, #64]
 1569 015a C4E90E30 		strd	r3, r0, [r4, #56]
 1570              		.loc 1 93 5 view .LVU481
 1571              		.loc 1 93 62 view .LVU482
 1572              		.loc 1 94 5 view .LVU483
 1573              	.LVL90:
 1574              		.loc 1 93 5 is_stmt 0 view .LVU484
 1575 015e 0546     		mov	r5, r0
 1576 0160 61E7     		b	.L70
 1577              	.LVL91:
 1578              	.L137:
 1579              		.loc 1 88 3 view .LVU485
 1580 0162 012D     		cmp	r5, #1
 1581 0164 C3D1     		bne	.L69
 1582              	.L59:
 1583              		.loc 1 160 5 is_stmt 1 view .LVU486
 1584 0166 6C4B     		ldr	r3, .L141
 1585 0168 A363     		str	r3, [r4, #56]
 1586              		.loc 1 160 5 view .LVU487
 1587 016a 0225     		movs	r5, #2
 1588 016c 0023     		movs	r3, #0
 1589 016e C4E90F53 		strd	r5, r3, [r4, #60]
 1590              		.loc 1 160 60 view .LVU488
 1591              		.loc 1 162 5 view .LVU489
 1592              	.LVL92:
 1593              		.loc 1 162 5 is_stmt 0 view .LVU490
 1594 0172 58E7     		b	.L70
 1595              	.LVL93:
 1596              	.L131:
ARM GAS  C:\Users\USER\AppData\Local\Temp\cc3DDGj6.s 			page 29


 1597              		.loc 1 162 5 view .LVU491
 1598              	.LBE411:
 1599              	.LBE422:
 1600              		.loc 1 683 5 is_stmt 1 view .LVU492
 1601              		.loc 1 683 8 is_stmt 0 view .LVU493
 1602 0174 DDB1     		cbz	r5, .L89
 1603              		.loc 1 685 7 is_stmt 1 view .LVU494
 1604              	.LBB423:
 1605              	.LBB424:
 1606              		.loc 1 427 23 is_stmt 0 view .LVU495
 1607 0176 5B69     		ldr	r3, [r3, #20]
 1608              	.LBE424:
 1609              	.LBE423:
 1610              		.loc 1 686 39 view .LVU496
 1611 0178 A26B     		ldr	r2, [r4, #56]
 1612              	.LVL94:
 1613              	.LBB427:
 1614              	.LBB425:
 1615              		.loc 1 429 27 view .LVU497
 1616 017a 0021     		movs	r1, #0
 1617              	.LBE425:
 1618              	.LBE427:
 1619              		.loc 1 685 22 view .LVU498
 1620 017c 0120     		movs	r0, #1
 1621 017e 84F83400 		strb	r0, [r4, #52]
 1622              		.loc 1 686 7 is_stmt 1 view .LVU499
 1623              	.LVL95:
 1624              	.LBB428:
 1625              	.LBI423:
 1626              		.loc 1 425 6 view .LVU500
 1627              	.LBB426:
 1628              		.loc 1 427 3 view .LVU501
 1629              		.loc 1 429 3 view .LVU502
 1630              		.loc 1 430 27 is_stmt 0 view .LVU503
 1631 0182 DA60     		str	r2, [r3, #12]
 1632              	.LVL96:
 1633              		.loc 1 431 27 view .LVU504
 1634 0184 5D60     		str	r5, [r3, #4]
 1635              		.loc 1 429 27 view .LVU505
 1636 0186 1970     		strb	r1, [r3]
 1637              		.loc 1 430 3 is_stmt 1 view .LVU506
 1638              		.loc 1 431 3 view .LVU507
 1639              		.loc 1 432 3 view .LVU508
 1640              		.loc 1 432 27 is_stmt 0 view .LVU509
 1641 0188 9960     		str	r1, [r3, #8]
 1642              		.loc 1 434 3 is_stmt 1 view .LVU510
 1643              	.LVL97:
 1644              	.L128:
 1645              		.loc 1 434 3 is_stmt 0 view .LVU511
 1646              	.LBE426:
 1647              	.LBE428:
 1648              	.LBB429:
 1649              	.LBB419:
 1650              		.loc 1 434 3 is_stmt 1 view .LVU512
 1651 018a 2046     		mov	r0, r4
 1652 018c FFF7FEFF 		bl	usb_lld_prepare_transmit
 1653              	.LVL98:
ARM GAS  C:\Users\USER\AppData\Local\Temp\cc3DDGj6.s 			page 30


 1654              	.LBE419:
 1655              	.LBE429:
 1656              		.loc 1 721 7 view .LVU513
 1657              	.LBB430:
 1658              	.LBI430:
 1659              		.loc 2 513 20 view .LVU514
 1660              	.LBE430:
 1661              		.loc 2 515 3 view .LVU515
 1662              	.LBB442:
 1663              	.LBB431:
 1664              	.LBI431:
 1665              		.loc 3 386 20 view .LVU516
 1666              	.LBE431:
 1667              	.LBE442:
 1668              		.loc 3 388 3 view .LVU517
 1669              	.LBB443:
 1670              	.LBB439:
 1671              	.LBB432:
 1672              	.LBI432:
 1673              		.loc 4 473 20 view .LVU518
 1674              	.LBE432:
 1675              	.LBE439:
 1676              	.LBE443:
 1677              		.loc 4 475 3 view .LVU519
 1678              	.LBB444:
 1679              	.LBB440:
 1680              	.LBB437:
 1681              	.LBB433:
 1682              	.LBI433:
 1683              		.loc 4 444 20 view .LVU520
 1684              	.LBE433:
 1685              	.LBE437:
 1686              	.LBE440:
 1687              	.LBE444:
 1688              		.loc 4 447 3 view .LVU521
 1689              	.LBB445:
 1690              	.LBB441:
 1691              	.LBB438:
 1692              	.LBB436:
 1693              	.LBB434:
 1694              	.LBI434:
 1695              		.loc 5 544 57 view .LVU522
 1696              	.LBB435:
 1697              		.loc 5 546 3 view .LVU523
 1698 0190 2023     		movs	r3, #32
 1699              		.syntax unified
 1700              	@ 546 "src/ChibiOS_3.0.2/os/ext/CMSIS/include/core_cmFunc.h" 1
 1701 0192 83F31188 		MSR basepri, r3
 1702              	@ 0 "" 2
 1703              	.LVL99:
 1704              		.loc 5 546 3 is_stmt 0 view .LVU524
 1705              		.thumb
 1706              		.syntax unified
 1707              	.LBE435:
 1708              	.LBE434:
 1709              	.LBE436:
 1710              	.LBE438:
ARM GAS  C:\Users\USER\AppData\Local\Temp\cc3DDGj6.s 			page 31


 1711              	.LBE441:
 1712              	.LBE445:
 1713              		.loc 3 389 34 is_stmt 1 view .LVU525
 1714              		.loc 3 390 29 view .LVU526
 1715              		.loc 1 722 7 view .LVU527
 1716              	.LBB446:
 1717              	.LBI446:
 1718              		.loc 1 534 6 view .LVU528
 1719              	.LBB447:
 1720              		.loc 1 536 23 view .LVU529
 1721              		.loc 1 537 3 view .LVU530
 1722              		.loc 1 537 3 view .LVU531
 1723              		.loc 1 539 3 view .LVU532
 1724              		.loc 1 539 7 is_stmt 0 view .LVU533
 1725 0196 2389     		ldrh	r3, [r4, #8]
 1726              		.loc 1 539 6 view .LVU534
 1727 0198 13F00101 		ands	r1, r3, #1
 1728 019c 7FF46DAF 		bne	.L94
 1729              		.loc 1 543 3 is_stmt 1 view .LVU535
 1730              		.loc 1 543 22 is_stmt 0 view .LVU536
 1731 01a0 43F00103 		orr	r3, r3, #1
 1732 01a4 2381     		strh	r3, [r4, #8]	@ movhi
 1733              		.loc 1 544 3 is_stmt 1 view .LVU537
 1734 01a6 2046     		mov	r0, r4
 1735 01a8 FFF7FEFF 		bl	usb_lld_start_in
 1736              	.LVL100:
 1737              		.loc 1 545 3 view .LVU538
 1738 01ac 65E7     		b	.L94
 1739              	.LVL101:
 1740              	.L89:
 1741              		.loc 1 545 3 is_stmt 0 view .LVU539
 1742              	.LBE447:
 1743              	.LBE446:
 1744              		.loc 1 694 7 is_stmt 1 view .LVU540
 1745              	.LBB448:
 1746              	.LBB449:
 1747              		.loc 1 401 24 is_stmt 0 view .LVU541
 1748 01ae 9A69     		ldr	r2, [r3, #24]
 1749              	.LBE449:
 1750              	.LBE448:
 1751              		.loc 1 694 22 view .LVU542
 1752 01b0 0321     		movs	r1, #3
 1753              	.LBB452:
 1754              	.LBB450:
 1755              		.loc 1 403 27 view .LVU543
 1756 01b2 0023     		movs	r3, #0
 1757              	.LBE450:
 1758              	.LBE452:
 1759              		.loc 1 694 22 view .LVU544
 1760 01b4 84F83410 		strb	r1, [r4, #52]
 1761              		.loc 1 696 7 is_stmt 1 view .LVU545
 1762              	.LVL102:
 1763              	.LBB453:
 1764              	.LBI448:
 1765              		.loc 1 400 6 view .LVU546
 1766              	.LBB451:
 1767              		.loc 1 401 3 view .LVU547
ARM GAS  C:\Users\USER\AppData\Local\Temp\cc3DDGj6.s 			page 32


 1768              		.loc 1 403 3 view .LVU548
 1769              		.loc 1 408 3 is_stmt 0 view .LVU549
 1770 01b8 1946     		mov	r1, r3
 1771              		.loc 1 403 27 view .LVU550
 1772 01ba 1370     		strb	r3, [r2]
 1773              		.loc 1 404 3 is_stmt 1 view .LVU551
 1774              		.loc 1 404 27 is_stmt 0 view .LVU552
 1775 01bc D360     		str	r3, [r2, #12]
 1776              		.loc 1 405 3 is_stmt 1 view .LVU553
 1777              		.loc 1 406 27 is_stmt 0 view .LVU554
 1778 01be C2E90133 		strd	r3, r3, [r2, #4]
 1779              		.loc 1 408 3 is_stmt 1 view .LVU555
 1780 01c2 4AE7     		b	.L127
 1781              	.LVL103:
 1782              	.L135:
 1783              		.loc 1 408 3 is_stmt 0 view .LVU556
 1784              	.LBE451:
 1785              	.LBE453:
 1786              	.LBB454:
 1787              	.LBB412:
 1788              		.loc 1 205 5 is_stmt 1 view .LVU557
 1789              		.loc 1 205 21 is_stmt 0 view .LVU558
 1790 01c4 94F84830 		ldrb	r3, [r4, #72]	@ zero_extendqisi2
 1791              		.loc 1 205 8 view .LVU559
 1792 01c8 13F00F01 		ands	r1, r3, #15
 1793 01cc AED0     		beq	.L83
 1794              		.loc 1 206 7 is_stmt 1 view .LVU560
 1795              		.loc 1 206 10 is_stmt 0 view .LVU561
 1796 01ce 1E06     		lsls	r6, r3, #24
 1797              		.loc 1 207 9 view .LVU562
 1798 01d0 2046     		mov	r0, r4
 1799              		.loc 1 206 10 view .LVU563
 1800 01d2 00F19680 		bmi	.L138
 1801              	.LVL104:
 1802              		.loc 1 210 9 is_stmt 1 view .LVU564
 1803 01d6 FFF7FEFF 		bl	usb_lld_clear_out
 1804              	.LVL105:
 1805              		.loc 1 210 9 is_stmt 0 view .LVU565
 1806 01da 94F84460 		ldrb	r6, [r4, #68]	@ zero_extendqisi2
 1807              		.loc 1 213 5 is_stmt 1 view .LVU566
 1808 01de A5E7     		b	.L83
 1809              	.L136:
 1810              		.loc 1 120 7 view .LVU567
 1811              	.LVL106:
 1812              	.LBB404:
 1813              	.LBI404:
 1814              		.loc 1 64 13 view .LVU568
 1815              	.LBB405:
 1816              		.loc 1 66 3 view .LVU569
 1817              		.loc 1 66 17 is_stmt 0 view .LVU570
 1818 01e0 94F84630 		ldrb	r3, [r4, #70]	@ zero_extendqisi2
 1819 01e4 84F84E30 		strb	r3, [r4, #78]
 1820              		.loc 1 67 3 is_stmt 1 view .LVU571
 1821 01e8 2046     		mov	r0, r4
 1822 01ea FFF7FEFF 		bl	usb_lld_set_address
 1823              	.LVL107:
 1824              		.loc 1 68 3 view .LVU572
ARM GAS  C:\Users\USER\AppData\Local\Temp\cc3DDGj6.s 			page 33


 1825 01ee 6368     		ldr	r3, [r4, #4]
 1826 01f0 1B68     		ldr	r3, [r3]
 1827 01f2 13B1     		cbz	r3, .L73
 1828              		.loc 1 68 3 view .LVU573
 1829 01f4 0121     		movs	r1, #1
 1830 01f6 2046     		mov	r0, r4
 1831 01f8 9847     		blx	r3
 1832              	.LVL108:
 1833              	.L73:
 1834              		.loc 1 68 52 view .LVU574
 1835              		.loc 1 69 3 view .LVU575
 1836              		.loc 1 69 15 is_stmt 0 view .LVU576
 1837 01fa 0323     		movs	r3, #3
 1838 01fc 94F84460 		ldrb	r6, [r4, #68]	@ zero_extendqisi2
 1839 0200 2370     		strb	r3, [r4]
 1840              	.LBE405:
 1841              	.LBE404:
 1842              		.loc 1 122 5 is_stmt 1 view .LVU577
 1843 0202 93E7     		b	.L83
 1844              	.LVL109:
 1845              	.L54:
 1846              		.loc 1 107 5 view .LVU578
 1847              		.loc 1 107 8 is_stmt 0 view .LVU579
 1848 0204 94F84630 		ldrb	r3, [r4, #70]	@ zero_extendqisi2
 1849 0208 012B     		cmp	r3, #1
 1850 020a 7FF470AF 		bne	.L69
 1851              		.loc 1 108 7 is_stmt 1 view .LVU580
 1852              		.loc 1 108 20 is_stmt 0 view .LVU581
 1853 020e B4F84C30 		ldrh	r3, [r4, #76]
 1854              		.loc 1 109 7 view .LVU582
 1855 0212 A763     		str	r7, [r4, #56]
 1856              		.loc 1 108 20 view .LVU583
 1857 0214 43F00203 		orr	r3, r3, #2
 1858              		.loc 1 109 7 view .LVU584
 1859 0218 C4E90F77 		strd	r7, r7, [r4, #60]
 1860              		.loc 1 108 20 view .LVU585
 1861 021c A4F84C30 		strh	r3, [r4, #76]	@ movhi
 1862              		.loc 1 109 7 is_stmt 1 view .LVU586
 1863              		.loc 1 109 7 view .LVU587
 1864              		.loc 1 109 7 view .LVU588
 1865              		.loc 1 109 44 view .LVU589
 1866              		.loc 1 110 7 view .LVU590
 1867              	.LVL110:
 1868              		.loc 1 110 7 is_stmt 0 view .LVU591
 1869 0220 88E7     		b	.L71
 1870              	.LVL111:
 1871              	.L63:
 1872              		.loc 1 129 5 is_stmt 1 view .LVU592
 1873              	.LBB406:
 1874              	.LBI406:
 1875              		.loc 1 51 17 view .LVU593
 1876              	.LBB407:
 1877              		.loc 1 52 3 view .LVU594
 1878              		.loc 1 54 3 view .LVU595
 1879              		.loc 1 55 3 view .LVU596
 1880              		.loc 1 56 3 view .LVU597
 1881              		.loc 1 55 9 is_stmt 0 view .LVU598
ARM GAS  C:\Users\USER\AppData\Local\Temp\cc3DDGj6.s 			page 34


 1882 0222 94F84900 		ldrb	r0, [r4, #73]	@ zero_extendqisi2
 1883              	.LBE407:
 1884              	.LBE406:
 1885              		.loc 1 129 22 view .LVU599
 1886 0226 6168     		ldr	r1, [r4, #4]
 1887              	.LBB409:
 1888              	.LBB408:
 1889              		.loc 1 55 6 view .LVU600
 1890 0228 94F84830 		ldrb	r3, [r4, #72]	@ zero_extendqisi2
 1891              	.LBE408:
 1892              	.LBE409:
 1893              		.loc 1 129 10 view .LVU601
 1894 022c 4D68     		ldr	r5, [r1, #4]
 1895 022e 94F84620 		ldrb	r2, [r4, #70]	@ zero_extendqisi2
 1896 0232 94F84710 		ldrb	r1, [r4, #71]	@ zero_extendqisi2
 1897 0236 43EA0023 		orr	r3, r3, r0, lsl #8
 1898 023a 2046     		mov	r0, r4
 1899 023c A847     		blx	r5
 1900              	.LVL112:
 1901              		.loc 1 132 5 is_stmt 1 view .LVU602
 1902              		.loc 1 132 8 is_stmt 0 view .LVU603
 1903 023e 0028     		cmp	r0, #0
 1904 0240 3FF455AF 		beq	.L69
 1905              		.loc 1 136 5 is_stmt 1 view .LVU604
 1906 0244 D0E90053 		ldrd	r5, r3, [r0]
 1907 0248 94F84460 		ldrb	r6, [r4, #68]	@ zero_extendqisi2
 1908 024c 2764     		str	r7, [r4, #64]
 1909 024e C4E90E35 		strd	r3, r5, [r4, #56]
 1910              		.loc 1 136 5 view .LVU605
 1911              		.loc 1 136 72 view .LVU606
 1912              		.loc 1 138 5 view .LVU607
 1913              	.LVL113:
 1914              		.loc 1 138 5 is_stmt 0 view .LVU608
 1915 0252 E8E6     		b	.L70
 1916              	.LVL114:
 1917              	.L65:
 1918              		.loc 1 217 5 is_stmt 1 view .LVU609
 1919              		.loc 1 217 8 is_stmt 0 view .LVU610
 1920 0254 94F84630 		ldrb	r3, [r4, #70]	@ zero_extendqisi2
 1921 0258 002B     		cmp	r3, #0
 1922 025a 7FF448AF 		bne	.L69
 1923              		.loc 1 221 5 is_stmt 1 view .LVU611
 1924              		.loc 1 221 21 is_stmt 0 view .LVU612
 1925 025e 94F84830 		ldrb	r3, [r4, #72]	@ zero_extendqisi2
 1926              		.loc 1 221 8 view .LVU613
 1927 0262 13F00F01 		ands	r1, r3, #15
 1928 0266 3FF461AF 		beq	.L83
 1929              		.loc 1 222 7 is_stmt 1 view .LVU614
 1930              		.loc 1 222 10 is_stmt 0 view .LVU615
 1931 026a 1D06     		lsls	r5, r3, #24
 1932              		.loc 1 223 9 view .LVU616
 1933 026c 2046     		mov	r0, r4
 1934              		.loc 1 222 10 view .LVU617
 1935 026e 4DD4     		bmi	.L139
 1936              	.LVL115:
 1937              		.loc 1 226 9 is_stmt 1 view .LVU618
 1938 0270 FFF7FEFF 		bl	usb_lld_stall_out
ARM GAS  C:\Users\USER\AppData\Local\Temp\cc3DDGj6.s 			page 35


 1939              	.LVL116:
 1940              		.loc 1 226 9 is_stmt 0 view .LVU619
 1941 0274 94F84460 		ldrb	r6, [r4, #68]	@ zero_extendqisi2
 1942 0278 58E7     		b	.L83
 1943              	.L61:
 1944              		.loc 1 98 5 is_stmt 1 view .LVU620
 1945              		.loc 1 98 8 is_stmt 0 view .LVU621
 1946 027a 94F84630 		ldrb	r3, [r4, #70]	@ zero_extendqisi2
 1947 027e 012B     		cmp	r3, #1
 1948 0280 7FF435AF 		bne	.L69
 1949              		.loc 1 99 7 is_stmt 1 view .LVU622
 1950              		.loc 1 99 20 is_stmt 0 view .LVU623
 1951 0284 B4F84C30 		ldrh	r3, [r4, #76]
 1952              		.loc 1 100 7 view .LVU624
 1953 0288 A763     		str	r7, [r4, #56]
 1954              		.loc 1 99 20 view .LVU625
 1955 028a 23F00203 		bic	r3, r3, #2
 1956              		.loc 1 100 7 view .LVU626
 1957 028e C4E90F77 		strd	r7, r7, [r4, #60]
 1958              		.loc 1 99 20 view .LVU627
 1959 0292 A4F84C30 		strh	r3, [r4, #76]	@ movhi
 1960              		.loc 1 100 7 is_stmt 1 view .LVU628
 1961              		.loc 1 100 7 view .LVU629
 1962              		.loc 1 100 7 view .LVU630
 1963              		.loc 1 100 44 view .LVU631
 1964              		.loc 1 101 7 view .LVU632
 1965              	.LVL117:
 1966              		.loc 1 101 7 is_stmt 0 view .LVU633
 1967 0296 4DE7     		b	.L71
 1968              	.LVL118:
 1969              	.L67:
 1970              		.loc 1 145 5 is_stmt 1 view .LVU634
 1971              		.loc 1 152 5 is_stmt 0 view .LVU635
 1972 0298 6268     		ldr	r2, [r4, #4]
 1973              		.loc 1 145 38 view .LVU636
 1974 029a 94F84630 		ldrb	r3, [r4, #70]	@ zero_extendqisi2
 1975              		.loc 1 145 25 view .LVU637
 1976 029e 84F84F30 		strb	r3, [r4, #79]
 1977              		.loc 1 146 5 is_stmt 1 view .LVU638
 1978              		.loc 1 150 19 is_stmt 0 view .LVU639
 1979 02a2 002B     		cmp	r3, #0
 1980              		.loc 1 152 5 view .LVU640
 1981 02a4 1368     		ldr	r3, [r2]
 1982              		.loc 1 150 19 view .LVU641
 1983 02a6 0CBF     		ite	eq
 1984 02a8 0322     		moveq	r2, #3
 1985 02aa 0422     		movne	r2, #4
 1986 02ac 2270     		strb	r2, [r4]
 1987              		.loc 1 152 5 is_stmt 1 view .LVU642
 1988 02ae 002B     		cmp	r3, #0
 1989 02b0 3FF43CAF 		beq	.L83
 1990              		.loc 1 152 5 view .LVU643
 1991 02b4 0221     		movs	r1, #2
 1992 02b6 2046     		mov	r0, r4
 1993 02b8 9847     		blx	r3
 1994              	.LVL119:
 1995 02ba 94F84460 		ldrb	r6, [r4, #68]	@ zero_extendqisi2
ARM GAS  C:\Users\USER\AppData\Local\Temp\cc3DDGj6.s 			page 36


 1996              		.loc 1 152 57 view .LVU644
 1997              		.loc 1 153 5 view .LVU645
 1998 02be 35E7     		b	.L83
 1999              	.L56:
 2000              		.loc 1 165 5 view .LVU646
 2001              		.loc 1 165 21 is_stmt 0 view .LVU647
 2002 02c0 94F84830 		ldrb	r3, [r4, #72]	@ zero_extendqisi2
 2003 02c4 03F00F01 		and	r1, r3, #15
 2004              		.loc 1 165 8 view .LVU648
 2005 02c8 1B06     		lsls	r3, r3, #24
 2006              		.loc 1 166 15 view .LVU649
 2007 02ca 2046     		mov	r0, r4
 2008              		.loc 1 165 8 view .LVU650
 2009 02cc 0ED4     		bmi	.L140
 2010              	.LVL120:
 2011              		.loc 1 183 7 is_stmt 1 view .LVU651
 2012              		.loc 1 183 15 is_stmt 0 view .LVU652
 2013 02ce FFF7FEFF 		bl	usb_lld_get_status_out
 2014              	.LVL121:
 2015              		.loc 1 183 7 view .LVU653
 2016 02d2 0128     		cmp	r0, #1
 2017 02d4 0ED0     		beq	.L79
 2018              	.L130:
 2019              		.loc 1 183 7 view .LVU654
 2020 02d6 0228     		cmp	r0, #2
 2021 02d8 7FF409AF 		bne	.L69
 2022              		.loc 1 191 9 is_stmt 1 view .LVU655
 2023 02dc 0F4B     		ldr	r3, .L141+4
 2024 02de A363     		str	r3, [r4, #56]
 2025              		.loc 1 191 9 view .LVU656
 2026              		.loc 1 191 9 view .LVU657
 2027              		.loc 1 191 66 view .LVU658
 2028              		.loc 1 193 9 view .LVU659
 2029              	.LVL122:
 2030              		.loc 1 191 9 is_stmt 0 view .LVU660
 2031 02e0 C4E90F07 		strd	r0, r7, [r4, #60]
 2032 02e4 0546     		mov	r5, r0
 2033 02e6 94F84460 		ldrb	r6, [r4, #68]	@ zero_extendqisi2
 2034 02ea 9CE6     		b	.L70
 2035              	.LVL123:
 2036              	.L140:
 2037              		.loc 1 166 7 is_stmt 1 view .LVU661
 2038              		.loc 1 166 15 is_stmt 0 view .LVU662
 2039 02ec FFF7FEFF 		bl	usb_lld_get_status_in
 2040              	.LVL124:
 2041              		.loc 1 166 7 view .LVU663
 2042 02f0 0128     		cmp	r0, #1
 2043 02f2 F0D1     		bne	.L130
 2044              	.L79:
 2045              		.loc 1 186 9 is_stmt 1 view .LVU664
 2046 02f4 0A4B     		ldr	r3, .L141+8
 2047 02f6 A363     		str	r3, [r4, #56]
 2048              		.loc 1 186 9 view .LVU665
 2049              		.loc 1 186 9 view .LVU666
 2050              		.loc 1 186 66 view .LVU667
 2051              		.loc 1 188 9 view .LVU668
 2052              	.LVL125:
ARM GAS  C:\Users\USER\AppData\Local\Temp\cc3DDGj6.s 			page 37


 2053              		.loc 1 186 9 is_stmt 0 view .LVU669
 2054 02f8 C4E90F57 		strd	r5, r7, [r4, #60]
 2055 02fc 94F84460 		ldrb	r6, [r4, #68]	@ zero_extendqisi2
 2056 0300 91E6     		b	.L70
 2057              	.LVL126:
 2058              	.L138:
 2059              		.loc 1 207 9 is_stmt 1 view .LVU670
 2060 0302 FFF7FEFF 		bl	usb_lld_clear_in
 2061              	.LVL127:
 2062              		.loc 1 207 9 is_stmt 0 view .LVU671
 2063 0306 94F84460 		ldrb	r6, [r4, #68]	@ zero_extendqisi2
 2064 030a 0FE7     		b	.L83
 2065              	.LVL128:
 2066              	.L139:
 2067              		.loc 1 223 9 is_stmt 1 view .LVU672
 2068 030c FFF7FEFF 		bl	usb_lld_stall_in
 2069              	.LVL129:
 2070              		.loc 1 223 9 is_stmt 0 view .LVU673
 2071 0310 94F84460 		ldrb	r6, [r4, #68]	@ zero_extendqisi2
 2072 0314 0AE7     		b	.L83
 2073              	.L142:
 2074 0316 00BF     		.align	2
 2075              	.L141:
 2076 0318 00000000 		.word	.LANCHOR0
 2077 031c 00000000 		.word	.LANCHOR2
 2078 0320 00000000 		.word	.LANCHOR1
 2079              	.LBE412:
 2080              	.LBE454:
 2081              		.cfi_endproc
 2082              	.LFE274:
 2083              		.size	_usb_ep0setup, .-_usb_ep0setup
 2084              		.section	.text._usb_ep0in,"ax",%progbits
 2085              		.align	1
 2086              		.p2align 4,,15
 2087              		.global	_usb_ep0in
 2088              		.syntax unified
 2089              		.thumb
 2090              		.thumb_func
 2091              		.fpu fpv4-sp-d16
 2092              		.type	_usb_ep0in, %function
 2093              	_usb_ep0in:
 2094              	.LVL130:
 2095              	.LFB275:
 2096              		.loc 1 741 46 is_stmt 1 view -0
 2097              		.cfi_startproc
 2098              		@ args = 0, pretend = 0, frame = 0
 2099              		@ frame_needed = 0, uses_anonymous_args = 0
 2100              		.loc 1 742 3 view .LVU675
 2101              		.loc 1 744 3 view .LVU676
 2102              		.loc 1 745 3 view .LVU677
 2103 0000 90F83430 		ldrb	r3, [r0, #52]	@ zero_extendqisi2
 2104              		.loc 1 741 46 is_stmt 0 view .LVU678
 2105 0004 10B5     		push	{r4, lr}
 2106              		.cfi_def_cfa_offset 8
 2107              		.cfi_offset 4, -8
 2108              		.cfi_offset 14, -4
 2109              		.loc 1 741 46 view .LVU679
ARM GAS  C:\Users\USER\AppData\Local\Temp\cc3DDGj6.s 			page 38


 2110 0006 0446     		mov	r4, r0
 2111              		.loc 1 745 3 view .LVU680
 2112 0008 062B     		cmp	r3, #6
 2113 000a 31D8     		bhi	.L143
 2114 000c DFE803F0 		tbb	[pc, r3]
 2115              	.L146:
 2116 0010 51       		.byte	(.L145-.L146)/2
 2117 0011 04       		.byte	(.L149-.L146)/2
 2118 0012 38       		.byte	(.L148-.L146)/2
 2119 0013 51       		.byte	(.L145-.L146)/2
 2120 0014 51       		.byte	(.L145-.L146)/2
 2121 0015 31       		.byte	(.L147-.L146)/2
 2122 0016 51       		.byte	(.L145-.L146)/2
 2123 0017 00       		.p2align 1
 2124              	.L149:
 2125              		.loc 1 747 5 is_stmt 1 view .LVU681
 2126              	.LVL131:
 2127              	.LBB455:
 2128              	.LBI455:
 2129              		.loc 1 51 17 view .LVU682
 2130              	.LBB456:
 2131              		.loc 1 52 3 view .LVU683
 2132              		.loc 1 54 3 view .LVU684
 2133              		.loc 1 55 3 view .LVU685
 2134              		.loc 1 56 3 view .LVU686
 2135              		.loc 1 56 3 is_stmt 0 view .LVU687
 2136              	.LBE456:
 2137              	.LBE455:
 2138              		.loc 1 751 5 is_stmt 1 view .LVU688
 2139              	.LBB458:
 2140              	.LBB457:
 2141              		.loc 1 55 9 is_stmt 0 view .LVU689
 2142 0018 90F84B00 		ldrb	r0, [r0, #75]	@ zero_extendqisi2
 2143              	.LVL132:
 2144              		.loc 1 55 6 view .LVU690
 2145 001c 94F84A20 		ldrb	r2, [r4, #74]	@ zero_extendqisi2
 2146              	.LBE457:
 2147              	.LBE458:
 2148              		.loc 1 751 14 view .LVU691
 2149 0020 E16B     		ldr	r1, [r4, #60]
 2150              	.LVL133:
 2151              		.loc 1 751 14 view .LVU692
 2152 0022 E368     		ldr	r3, [r4, #12]
 2153              		.loc 1 747 9 view .LVU693
 2154 0024 42EA0022 		orr	r2, r2, r0, lsl #8
 2155              		.loc 1 751 8 view .LVU694
 2156 0028 9142     		cmp	r1, r2
 2157 002a 2AD2     		bcs	.L150
 2158              		.loc 1 752 36 discriminator 1 view .LVU695
 2159 002c 188A     		ldrh	r0, [r3, #16]
 2160              	.LVL134:
 2161              		.loc 1 752 22 discriminator 1 view .LVU696
 2162 002e B1FBF0F2 		udiv	r2, r1, r0
 2163 0032 00FB1212 		mls	r2, r0, r2, r1
 2164              		.loc 1 751 28 discriminator 1 view .LVU697
 2165 0036 22BB     		cbnz	r2, .L150
 2166              		.loc 1 753 7 is_stmt 1 view .LVU698
ARM GAS  C:\Users\USER\AppData\Local\Temp\cc3DDGj6.s 			page 39


 2167              	.LVL135:
 2168              	.LBB459:
 2169              	.LBI459:
 2170              		.loc 1 425 6 view .LVU699
 2171              	.LBB460:
 2172              		.loc 1 427 3 view .LVU700
 2173              		.loc 1 427 23 is_stmt 0 view .LVU701
 2174 0038 5B69     		ldr	r3, [r3, #20]
 2175              	.LVL136:
 2176              		.loc 1 429 3 is_stmt 1 view .LVU702
 2177              		.loc 1 434 3 is_stmt 0 view .LVU703
 2178 003a 1146     		mov	r1, r2
 2179              		.loc 1 429 27 view .LVU704
 2180 003c 1A70     		strb	r2, [r3]
 2181              	.LVL137:
 2182              		.loc 1 430 3 is_stmt 1 view .LVU705
 2183              		.loc 1 430 27 is_stmt 0 view .LVU706
 2184 003e DA60     		str	r2, [r3, #12]
 2185              		.loc 1 431 3 is_stmt 1 view .LVU707
 2186              		.loc 1 432 27 is_stmt 0 view .LVU708
 2187 0040 C3E90122 		strd	r2, r2, [r3, #4]
 2188              		.loc 1 434 3 is_stmt 1 view .LVU709
 2189 0044 2046     		mov	r0, r4
 2190 0046 FFF7FEFF 		bl	usb_lld_prepare_transmit
 2191              	.LVL138:
 2192              		.loc 1 434 3 is_stmt 0 view .LVU710
 2193              	.LBE460:
 2194              	.LBE459:
 2195              		.loc 1 754 7 is_stmt 1 view .LVU711
 2196              	.LBB461:
 2197              	.LBI461:
 2198              		.loc 2 513 20 view .LVU712
 2199              	.LBE461:
 2200              		.loc 2 515 3 view .LVU713
 2201              	.LBB473:
 2202              	.LBB462:
 2203              	.LBI462:
 2204              		.loc 3 386 20 view .LVU714
 2205              	.LBE462:
 2206              	.LBE473:
 2207              		.loc 3 388 3 view .LVU715
 2208              	.LBB474:
 2209              	.LBB470:
 2210              	.LBB463:
 2211              	.LBI463:
 2212              		.loc 4 473 20 view .LVU716
 2213              	.LBE463:
 2214              	.LBE470:
 2215              	.LBE474:
 2216              		.loc 4 475 3 view .LVU717
 2217              	.LBB475:
 2218              	.LBB471:
 2219              	.LBB468:
 2220              	.LBB464:
 2221              	.LBI464:
 2222              		.loc 4 444 20 view .LVU718
 2223              	.LBE464:
ARM GAS  C:\Users\USER\AppData\Local\Temp\cc3DDGj6.s 			page 40


 2224              	.LBE468:
 2225              	.LBE471:
 2226              	.LBE475:
 2227              		.loc 4 447 3 view .LVU719
 2228              	.LBB476:
 2229              	.LBB472:
 2230              	.LBB469:
 2231              	.LBB467:
 2232              	.LBB465:
 2233              	.LBI465:
 2234              		.loc 5 544 57 view .LVU720
 2235              	.LBB466:
 2236              		.loc 5 546 3 view .LVU721
 2237 004a 2023     		movs	r3, #32
 2238              		.syntax unified
 2239              	@ 546 "src/ChibiOS_3.0.2/os/ext/CMSIS/include/core_cmFunc.h" 1
 2240 004c 83F31188 		MSR basepri, r3
 2241              	@ 0 "" 2
 2242              	.LVL139:
 2243              		.loc 5 546 3 is_stmt 0 view .LVU722
 2244              		.thumb
 2245              		.syntax unified
 2246              	.LBE466:
 2247              	.LBE465:
 2248              	.LBE467:
 2249              	.LBE469:
 2250              	.LBE472:
 2251              	.LBE476:
 2252              		.loc 3 389 34 is_stmt 1 view .LVU723
 2253              		.loc 3 390 29 view .LVU724
 2254              		.loc 1 755 7 view .LVU725
 2255              	.LBB477:
 2256              	.LBI477:
 2257              		.loc 1 534 6 view .LVU726
 2258              	.LBB478:
 2259              		.loc 1 536 23 view .LVU727
 2260              		.loc 1 537 3 view .LVU728
 2261              		.loc 1 537 3 view .LVU729
 2262              		.loc 1 539 3 view .LVU730
 2263              		.loc 1 539 7 is_stmt 0 view .LVU731
 2264 0050 2389     		ldrh	r3, [r4, #8]
 2265              		.loc 1 539 6 view .LVU732
 2266 0052 13F00101 		ands	r1, r3, #1
 2267 0056 05D1     		bne	.L151
 2268              		.loc 1 543 3 is_stmt 1 view .LVU733
 2269              		.loc 1 543 22 is_stmt 0 view .LVU734
 2270 0058 43F00103 		orr	r3, r3, #1
 2271 005c 2381     		strh	r3, [r4, #8]	@ movhi
 2272              		.loc 1 544 3 is_stmt 1 view .LVU735
 2273 005e 2046     		mov	r0, r4
 2274 0060 FFF7FEFF 		bl	usb_lld_start_in
 2275              	.LVL140:
 2276              		.loc 1 545 3 view .LVU736
 2277              	.L151:
 2278              		.loc 1 545 3 is_stmt 0 view .LVU737
 2279              	.LBE478:
 2280              	.LBE477:
ARM GAS  C:\Users\USER\AppData\Local\Temp\cc3DDGj6.s 			page 41


 2281              		.loc 1 756 7 is_stmt 1 view .LVU738
 2282              	.LBB479:
 2283              	.LBI479:
 2284              		.loc 2 524 20 view .LVU739
 2285              	.LBE479:
 2286              		.loc 2 526 3 view .LVU740
 2287              	.LBB491:
 2288              	.LBB480:
 2289              	.LBI480:
 2290              		.loc 3 406 20 view .LVU741
 2291              	.LBE480:
 2292              	.LBE491:
 2293              		.loc 3 408 31 view .LVU742
 2294              		.loc 3 409 33 view .LVU743
 2295              		.loc 3 410 3 view .LVU744
 2296              	.LBB492:
 2297              	.LBB488:
 2298              	.LBB481:
 2299              	.LBI481:
 2300              		.loc 4 484 20 view .LVU745
 2301              	.LBE481:
 2302              	.LBE488:
 2303              	.LBE492:
 2304              		.loc 4 486 3 view .LVU746
 2305              	.LBB493:
 2306              	.LBB489:
 2307              	.LBB486:
 2308              	.LBB482:
 2309              	.LBI482:
 2310              		.loc 4 458 20 view .LVU747
 2311              	.LBE482:
 2312              	.LBE486:
 2313              	.LBE489:
 2314              	.LBE493:
 2315              		.loc 4 461 3 view .LVU748
 2316              	.LBB494:
 2317              	.LBB490:
 2318              	.LBB487:
 2319              	.LBB485:
 2320              	.LBB483:
 2321              	.LBI483:
 2322              		.loc 5 544 57 view .LVU749
 2323              	.LBB484:
 2324              		.loc 5 546 3 view .LVU750
 2325 0064 0023     		movs	r3, #0
 2326              		.syntax unified
 2327              	@ 546 "src/ChibiOS_3.0.2/os/ext/CMSIS/include/core_cmFunc.h" 1
 2328 0066 83F31188 		MSR basepri, r3
 2329              	@ 0 "" 2
 2330              	.LVL141:
 2331              		.loc 5 546 3 is_stmt 0 view .LVU751
 2332              		.thumb
 2333              		.syntax unified
 2334              	.LBE484:
 2335              	.LBE483:
 2336              	.LBE485:
 2337              	.LBE487:
ARM GAS  C:\Users\USER\AppData\Local\Temp\cc3DDGj6.s 			page 42


 2338              	.LBE490:
 2339              	.LBE494:
 2340              		.loc 1 757 7 is_stmt 1 view .LVU752
 2341              		.loc 1 757 22 is_stmt 0 view .LVU753
 2342 006a 0223     		movs	r3, #2
 2343 006c 84F83430 		strb	r3, [r4, #52]
 2344              		.loc 1 758 7 is_stmt 1 view .LVU754
 2345              	.L143:
 2346              		.loc 1 798 1 is_stmt 0 view .LVU755
 2347 0070 10BD     		pop	{r4, pc}
 2348              	.LVL142:
 2349              	.L147:
 2350              		.loc 1 775 5 is_stmt 1 view .LVU756
 2351              		.loc 1 775 13 is_stmt 0 view .LVU757
 2352 0072 036C     		ldr	r3, [r0, #64]
 2353              		.loc 1 775 8 view .LVU758
 2354 0074 03B1     		cbz	r3, .L153
 2355              		.loc 1 776 7 is_stmt 1 view .LVU759
 2356 0076 9847     		blx	r3
 2357              	.LVL143:
 2358              	.L153:
 2359              		.loc 1 778 5 view .LVU760
 2360              		.loc 1 778 20 is_stmt 0 view .LVU761
 2361 0078 0023     		movs	r3, #0
 2362 007a 84F83430 		strb	r3, [r4, #52]
 2363              		.loc 1 779 5 is_stmt 1 view .LVU762
 2364              		.loc 1 798 1 is_stmt 0 view .LVU763
 2365 007e 10BD     		pop	{r4, pc}
 2366              	.LVL144:
 2367              	.L148:
 2368              		.loc 1 798 1 view .LVU764
 2369 0080 C368     		ldr	r3, [r0, #12]
 2370              	.LVL145:
 2371              	.L150:
 2372              		.loc 1 763 5 is_stmt 1 view .LVU765
 2373              	.LBB495:
 2374              	.LBB496:
 2375              		.loc 1 401 24 is_stmt 0 view .LVU766
 2376 0082 9A69     		ldr	r2, [r3, #24]
 2377              	.LBE496:
 2378              	.LBE495:
 2379              		.loc 1 763 20 view .LVU767
 2380 0084 0321     		movs	r1, #3
 2381              	.LBB499:
 2382              	.LBB497:
 2383              		.loc 1 403 27 view .LVU768
 2384 0086 0023     		movs	r3, #0
 2385              	.LBE497:
 2386              	.LBE499:
 2387              		.loc 1 763 20 view .LVU769
 2388 0088 84F83410 		strb	r1, [r4, #52]
 2389              		.loc 1 765 5 is_stmt 1 view .LVU770
 2390              	.LVL146:
 2391              	.LBB500:
 2392              	.LBI495:
 2393              		.loc 1 400 6 view .LVU771
 2394              	.LBB498:
ARM GAS  C:\Users\USER\AppData\Local\Temp\cc3DDGj6.s 			page 43


 2395              		.loc 1 401 3 view .LVU772
 2396              		.loc 1 403 3 view .LVU773
 2397              		.loc 1 408 3 is_stmt 0 view .LVU774
 2398 008c 2046     		mov	r0, r4
 2399 008e 1946     		mov	r1, r3
 2400              		.loc 1 403 27 view .LVU775
 2401 0090 1370     		strb	r3, [r2]
 2402              		.loc 1 404 3 is_stmt 1 view .LVU776
 2403              		.loc 1 404 27 is_stmt 0 view .LVU777
 2404 0092 D360     		str	r3, [r2, #12]
 2405              		.loc 1 405 3 is_stmt 1 view .LVU778
 2406              		.loc 1 406 27 is_stmt 0 view .LVU779
 2407 0094 C2E90133 		strd	r3, r3, [r2, #4]
 2408              		.loc 1 408 3 is_stmt 1 view .LVU780
 2409 0098 FFF7FEFF 		bl	usb_lld_prepare_receive
 2410              	.LVL147:
 2411              		.loc 1 408 3 is_stmt 0 view .LVU781
 2412              	.LBE498:
 2413              	.LBE500:
 2414              		.loc 1 766 5 is_stmt 1 view .LVU782
 2415              	.LBB501:
 2416              	.LBI501:
 2417              		.loc 2 513 20 view .LVU783
 2418              	.LBE501:
 2419              		.loc 2 515 3 view .LVU784
 2420              	.LBB513:
 2421              	.LBB502:
 2422              	.LBI502:
 2423              		.loc 3 386 20 view .LVU785
 2424              	.LBE502:
 2425              	.LBE513:
 2426              		.loc 3 388 3 view .LVU786
 2427              	.LBB514:
 2428              	.LBB510:
 2429              	.LBB503:
 2430              	.LBI503:
 2431              		.loc 4 473 20 view .LVU787
 2432              	.LBE503:
 2433              	.LBE510:
 2434              	.LBE514:
 2435              		.loc 4 475 3 view .LVU788
 2436              	.LBB515:
 2437              	.LBB511:
 2438              	.LBB508:
 2439              	.LBB504:
 2440              	.LBI504:
 2441              		.loc 4 444 20 view .LVU789
 2442              	.LBE504:
 2443              	.LBE508:
 2444              	.LBE511:
 2445              	.LBE515:
 2446              		.loc 4 447 3 view .LVU790
 2447              	.LBB516:
 2448              	.LBB512:
 2449              	.LBB509:
 2450              	.LBB507:
 2451              	.LBB505:
ARM GAS  C:\Users\USER\AppData\Local\Temp\cc3DDGj6.s 			page 44


 2452              	.LBI505:
 2453              		.loc 5 544 57 view .LVU791
 2454              	.LBB506:
 2455              		.loc 5 546 3 view .LVU792
 2456 009c 2023     		movs	r3, #32
 2457              		.syntax unified
 2458              	@ 546 "src/ChibiOS_3.0.2/os/ext/CMSIS/include/core_cmFunc.h" 1
 2459 009e 83F31188 		MSR basepri, r3
 2460              	@ 0 "" 2
 2461              	.LVL148:
 2462              		.loc 5 546 3 is_stmt 0 view .LVU793
 2463              		.thumb
 2464              		.syntax unified
 2465              	.LBE506:
 2466              	.LBE505:
 2467              	.LBE507:
 2468              	.LBE509:
 2469              	.LBE512:
 2470              	.LBE516:
 2471              		.loc 3 389 34 is_stmt 1 view .LVU794
 2472              		.loc 3 390 29 view .LVU795
 2473              		.loc 1 767 5 view .LVU796
 2474              	.LBB517:
 2475              	.LBI517:
 2476              		.loc 1 506 6 view .LVU797
 2477              	.LBB518:
 2478              		.loc 1 508 23 view .LVU798
 2479              		.loc 1 509 3 view .LVU799
 2480              		.loc 1 509 3 view .LVU800
 2481              		.loc 1 511 3 view .LVU801
 2482              		.loc 1 511 7 is_stmt 0 view .LVU802
 2483 00a2 6389     		ldrh	r3, [r4, #10]
 2484              		.loc 1 511 6 view .LVU803
 2485 00a4 13F00101 		ands	r1, r3, #1
 2486 00a8 14D0     		beq	.L162
 2487              	.LVL149:
 2488              		.loc 1 511 6 view .LVU804
 2489              	.LBE518:
 2490              	.LBE517:
 2491              		.loc 1 768 5 is_stmt 1 view .LVU805
 2492              	.LBB520:
 2493              	.LBI520:
 2494              		.loc 2 524 20 view .LVU806
 2495              	.LBE520:
 2496              		.loc 2 526 3 view .LVU807
 2497              	.LBB543:
 2498              	.LBB521:
 2499              	.LBI521:
 2500              		.loc 3 406 20 view .LVU808
 2501              	.LBE521:
 2502              	.LBE543:
 2503              		.loc 3 408 31 view .LVU809
 2504              		.loc 3 409 33 view .LVU810
 2505              		.loc 3 410 3 view .LVU811
 2506              	.LBB544:
 2507              	.LBB536:
 2508              	.LBB522:
ARM GAS  C:\Users\USER\AppData\Local\Temp\cc3DDGj6.s 			page 45


 2509              	.LBI522:
 2510              		.loc 4 484 20 view .LVU812
 2511              	.LBE522:
 2512              	.LBE536:
 2513              	.LBE544:
 2514              		.loc 4 486 3 view .LVU813
 2515              	.LBB545:
 2516              	.LBB537:
 2517              	.LBB531:
 2518              	.LBB523:
 2519              	.LBI523:
 2520              		.loc 4 458 20 view .LVU814
 2521              	.LBE523:
 2522              	.LBE531:
 2523              	.LBE537:
 2524              	.LBE545:
 2525              		.loc 4 461 3 view .LVU815
 2526              	.LBB546:
 2527              	.LBB538:
 2528              	.LBB532:
 2529              	.LBB528:
 2530              	.LBB524:
 2531              	.LBI524:
 2532              		.loc 5 544 57 view .LVU816
 2533              	.LBB525:
 2534              		.loc 5 546 3 view .LVU817
 2535 00aa 0023     		movs	r3, #0
 2536              		.syntax unified
 2537              	@ 546 "src/ChibiOS_3.0.2/os/ext/CMSIS/include/core_cmFunc.h" 1
 2538 00ac 83F31188 		MSR basepri, r3
 2539              	@ 0 "" 2
 2540              	.LVL150:
 2541              		.thumb
 2542              		.syntax unified
 2543              	.L163:
 2544              		.loc 5 546 3 is_stmt 0 view .LVU818
 2545              	.LBE525:
 2546              	.LBE524:
 2547              	.LBE528:
 2548              	.LBE532:
 2549              	.LBE538:
 2550              	.LBE546:
 2551              		.loc 1 798 1 view .LVU819
 2552 00b0 10BD     		pop	{r4, pc}
 2553              	.LVL151:
 2554              	.L145:
 2555              		.loc 1 790 5 is_stmt 1 view .LVU820
 2556 00b2 0021     		movs	r1, #0
 2557              	.LVL152:
 2558              		.loc 1 790 5 is_stmt 0 view .LVU821
 2559 00b4 FFF7FEFF 		bl	usb_lld_stall_in
 2560              	.LVL153:
 2561              		.loc 1 791 5 is_stmt 1 view .LVU822
 2562 00b8 0021     		movs	r1, #0
 2563 00ba 2046     		mov	r0, r4
 2564 00bc FFF7FEFF 		bl	usb_lld_stall_out
 2565              	.LVL154:
ARM GAS  C:\Users\USER\AppData\Local\Temp\cc3DDGj6.s 			page 46


 2566              		.loc 1 792 5 view .LVU823
 2567 00c0 6368     		ldr	r3, [r4, #4]
 2568 00c2 1B68     		ldr	r3, [r3]
 2569 00c4 13B1     		cbz	r3, .L154
 2570              		.loc 1 792 5 discriminator 1 view .LVU824
 2571 00c6 0521     		movs	r1, #5
 2572 00c8 2046     		mov	r0, r4
 2573 00ca 9847     		blx	r3
 2574              	.LVL155:
 2575              	.L154:
 2576              		.loc 1 792 54 discriminator 3 view .LVU825
 2577              		.loc 1 793 5 discriminator 3 view .LVU826
 2578              		.loc 1 793 20 is_stmt 0 discriminator 3 view .LVU827
 2579 00cc 0623     		movs	r3, #6
 2580 00ce 84F83430 		strb	r3, [r4, #52]
 2581              		.loc 1 794 5 is_stmt 1 discriminator 3 view .LVU828
 2582              		.loc 1 798 1 is_stmt 0 discriminator 3 view .LVU829
 2583 00d2 10BD     		pop	{r4, pc}
 2584              	.LVL156:
 2585              	.L162:
 2586              	.LBB547:
 2587              	.LBB519:
 2588              		.loc 1 515 3 is_stmt 1 view .LVU830
 2589              		.loc 1 515 19 is_stmt 0 view .LVU831
 2590 00d4 43F00103 		orr	r3, r3, #1
 2591 00d8 6381     		strh	r3, [r4, #10]	@ movhi
 2592              		.loc 1 516 3 is_stmt 1 view .LVU832
 2593 00da 2046     		mov	r0, r4
 2594 00dc FFF7FEFF 		bl	usb_lld_start_out
 2595              	.LVL157:
 2596              		.loc 1 517 3 view .LVU833
 2597              		.loc 1 517 3 is_stmt 0 view .LVU834
 2598              	.LBE519:
 2599              	.LBE547:
 2600              		.loc 1 768 5 is_stmt 1 view .LVU835
 2601              	.LBB548:
 2602              		.loc 2 524 20 view .LVU836
 2603              	.LBE548:
 2604              		.loc 2 526 3 view .LVU837
 2605              	.LBB549:
 2606              	.LBB539:
 2607              		.loc 3 406 20 view .LVU838
 2608              	.LBE539:
 2609              	.LBE549:
 2610              		.loc 3 408 31 view .LVU839
 2611              		.loc 3 409 33 view .LVU840
 2612              		.loc 3 410 3 view .LVU841
 2613              	.LBB550:
 2614              	.LBB540:
 2615              	.LBB533:
 2616              		.loc 4 484 20 view .LVU842
 2617              	.LBE533:
 2618              	.LBE540:
 2619              	.LBE550:
 2620              		.loc 4 486 3 view .LVU843
 2621              	.LBB551:
 2622              	.LBB541:
ARM GAS  C:\Users\USER\AppData\Local\Temp\cc3DDGj6.s 			page 47


 2623              	.LBB534:
 2624              	.LBB529:
 2625              		.loc 4 458 20 view .LVU844
 2626              	.LBE529:
 2627              	.LBE534:
 2628              	.LBE541:
 2629              	.LBE551:
 2630              		.loc 4 461 3 view .LVU845
 2631              	.LBB552:
 2632              	.LBB542:
 2633              	.LBB535:
 2634              	.LBB530:
 2635              	.LBB527:
 2636              		.loc 5 544 57 view .LVU846
 2637              	.LBB526:
 2638              		.loc 5 546 3 view .LVU847
 2639 00e0 0023     		movs	r3, #0
 2640              		.syntax unified
 2641              	@ 546 "src/ChibiOS_3.0.2/os/ext/CMSIS/include/core_cmFunc.h" 1
 2642 00e2 83F31188 		MSR basepri, r3
 2643              	@ 0 "" 2
 2644              	.LVL158:
 2645              		.loc 5 546 3 is_stmt 0 view .LVU848
 2646              		.thumb
 2647              		.syntax unified
 2648 00e6 E3E7     		b	.L163
 2649              	.LBE526:
 2650              	.LBE527:
 2651              	.LBE530:
 2652              	.LBE535:
 2653              	.LBE542:
 2654              	.LBE552:
 2655              		.cfi_endproc
 2656              	.LFE275:
 2657              		.size	_usb_ep0in, .-_usb_ep0in
 2658              		.section	.text._usb_ep0out,"ax",%progbits
 2659              		.align	1
 2660              		.p2align 4,,15
 2661              		.global	_usb_ep0out
 2662              		.syntax unified
 2663              		.thumb
 2664              		.thumb_func
 2665              		.fpu fpv4-sp-d16
 2666              		.type	_usb_ep0out, %function
 2667              	_usb_ep0out:
 2668              	.LVL159:
 2669              	.LFB276:
 2670              		.loc 1 810 47 is_stmt 1 view -0
 2671              		.cfi_startproc
 2672              		@ args = 0, pretend = 0, frame = 0
 2673              		@ frame_needed = 0, uses_anonymous_args = 0
 2674              		.loc 1 812 3 view .LVU850
 2675              		.loc 1 813 3 view .LVU851
 2676              		.loc 1 813 15 is_stmt 0 view .LVU852
 2677 0000 90F83420 		ldrb	r2, [r0, #52]	@ zero_extendqisi2
 2678 0004 062A     		cmp	r2, #6
 2679 0006 14D8     		bhi	.L181
ARM GAS  C:\Users\USER\AppData\Local\Temp\cc3DDGj6.s 			page 48


 2680 0008 0123     		movs	r3, #1
 2681 000a 9340     		lsls	r3, r3, r2
 2682 000c 13F0670F 		tst	r3, #103
 2683              		.loc 1 810 47 view .LVU853
 2684 0010 10B5     		push	{r4, lr}
 2685              		.cfi_def_cfa_offset 8
 2686              		.cfi_offset 4, -8
 2687              		.cfi_offset 14, -4
 2688 0012 0446     		mov	r4, r0
 2689 0014 27D1     		bne	.L166
 2690 0016 13F00802 		ands	r2, r3, #8
 2691 001a 0BD0     		beq	.L184
 2692              		.loc 1 830 5 is_stmt 1 view .LVU854
 2693              		.loc 1 830 9 is_stmt 0 view .LVU855
 2694 001c C368     		ldr	r3, [r0, #12]
 2695 001e 9B69     		ldr	r3, [r3, #24]
 2696              		.loc 1 830 8 view .LVU856
 2697 0020 9B68     		ldr	r3, [r3, #8]
 2698 0022 2BB9     		cbnz	r3, .L164
 2699              		.loc 1 834 5 is_stmt 1 view .LVU857
 2700              		.loc 1 834 13 is_stmt 0 view .LVU858
 2701 0024 036C     		ldr	r3, [r0, #64]
 2702              		.loc 1 834 8 view .LVU859
 2703 0026 03B1     		cbz	r3, .L169
 2704              		.loc 1 835 7 is_stmt 1 view .LVU860
 2705 0028 9847     		blx	r3
 2706              	.LVL160:
 2707              	.L169:
 2708              		.loc 1 837 5 view .LVU861
 2709              		.loc 1 837 20 is_stmt 0 view .LVU862
 2710 002a 0023     		movs	r3, #0
 2711 002c 84F83430 		strb	r3, [r4, #52]
 2712              		.loc 1 838 5 is_stmt 1 view .LVU863
 2713              	.L164:
 2714              		.loc 1 858 1 is_stmt 0 view .LVU864
 2715 0030 10BD     		pop	{r4, pc}
 2716              	.LVL161:
 2717              	.L181:
 2718              		.cfi_def_cfa_offset 0
 2719              		.cfi_restore 4
 2720              		.cfi_restore 14
 2721              		.loc 1 858 1 view .LVU865
 2722 0032 7047     		bx	lr
 2723              	.L184:
 2724              		.cfi_def_cfa_offset 8
 2725              		.cfi_offset 4, -8
 2726              		.cfi_offset 14, -4
 2727              		.loc 1 858 1 view .LVU866
 2728 0034 DB06     		lsls	r3, r3, #27
 2729 0036 FBD5     		bpl	.L164
 2730              		.loc 1 816 5 is_stmt 1 view .LVU867
 2731              	.LBB553:
 2732              	.LBB554:
 2733              		.loc 1 427 23 is_stmt 0 view .LVU868
 2734 0038 C368     		ldr	r3, [r0, #12]
 2735 003a 5B69     		ldr	r3, [r3, #20]
 2736              	.LBE554:
ARM GAS  C:\Users\USER\AppData\Local\Temp\cc3DDGj6.s 			page 49


 2737              	.LBE553:
 2738              		.loc 1 816 20 view .LVU869
 2739 003c 0521     		movs	r1, #5
 2740              	.LVL162:
 2741              		.loc 1 816 20 view .LVU870
 2742 003e 80F83410 		strb	r1, [r0, #52]
 2743              		.loc 1 818 5 is_stmt 1 view .LVU871
 2744              	.LVL163:
 2745              	.LBB556:
 2746              	.LBI553:
 2747              		.loc 1 425 6 view .LVU872
 2748              	.LBB555:
 2749              		.loc 1 427 3 view .LVU873
 2750              		.loc 1 429 3 view .LVU874
 2751              		.loc 1 429 27 is_stmt 0 view .LVU875
 2752 0042 1A70     		strb	r2, [r3]
 2753              		.loc 1 430 3 is_stmt 1 view .LVU876
 2754              		.loc 1 430 27 is_stmt 0 view .LVU877
 2755 0044 DA60     		str	r2, [r3, #12]
 2756              		.loc 1 431 3 is_stmt 1 view .LVU878
 2757              		.loc 1 432 27 is_stmt 0 view .LVU879
 2758 0046 C3E90122 		strd	r2, r2, [r3, #4]
 2759              		.loc 1 434 3 is_stmt 1 view .LVU880
 2760 004a 1146     		mov	r1, r2
 2761 004c FFF7FEFF 		bl	usb_lld_prepare_transmit
 2762              	.LVL164:
 2763              		.loc 1 434 3 is_stmt 0 view .LVU881
 2764              	.LBE555:
 2765              	.LBE556:
 2766              		.loc 1 819 5 is_stmt 1 view .LVU882
 2767              	.LBB557:
 2768              	.LBI557:
 2769              		.loc 2 513 20 view .LVU883
 2770              	.LBE557:
 2771              		.loc 2 515 3 view .LVU884
 2772              	.LBB569:
 2773              	.LBB558:
 2774              	.LBI558:
 2775              		.loc 3 386 20 view .LVU885
 2776              	.LBE558:
 2777              	.LBE569:
 2778              		.loc 3 388 3 view .LVU886
 2779              	.LBB570:
 2780              	.LBB566:
 2781              	.LBB559:
 2782              	.LBI559:
 2783              		.loc 4 473 20 view .LVU887
 2784              	.LBE559:
 2785              	.LBE566:
 2786              	.LBE570:
 2787              		.loc 4 475 3 view .LVU888
 2788              	.LBB571:
 2789              	.LBB567:
 2790              	.LBB564:
 2791              	.LBB560:
 2792              	.LBI560:
 2793              		.loc 4 444 20 view .LVU889
ARM GAS  C:\Users\USER\AppData\Local\Temp\cc3DDGj6.s 			page 50


 2794              	.LBE560:
 2795              	.LBE564:
 2796              	.LBE567:
 2797              	.LBE571:
 2798              		.loc 4 447 3 view .LVU890
 2799              	.LBB572:
 2800              	.LBB568:
 2801              	.LBB565:
 2802              	.LBB563:
 2803              	.LBB561:
 2804              	.LBI561:
 2805              		.loc 5 544 57 view .LVU891
 2806              	.LBB562:
 2807              		.loc 5 546 3 view .LVU892
 2808 0050 2023     		movs	r3, #32
 2809              		.syntax unified
 2810              	@ 546 "src/ChibiOS_3.0.2/os/ext/CMSIS/include/core_cmFunc.h" 1
 2811 0052 83F31188 		MSR basepri, r3
 2812              	@ 0 "" 2
 2813              	.LVL165:
 2814              		.loc 5 546 3 is_stmt 0 view .LVU893
 2815              		.thumb
 2816              		.syntax unified
 2817              	.LBE562:
 2818              	.LBE561:
 2819              	.LBE563:
 2820              	.LBE565:
 2821              	.LBE568:
 2822              	.LBE572:
 2823              		.loc 3 389 34 is_stmt 1 view .LVU894
 2824              		.loc 3 390 29 view .LVU895
 2825              		.loc 1 820 5 view .LVU896
 2826              	.LBB573:
 2827              	.LBI573:
 2828              		.loc 1 534 6 view .LVU897
 2829              	.LBB574:
 2830              		.loc 1 536 23 view .LVU898
 2831              		.loc 1 537 3 view .LVU899
 2832              		.loc 1 537 3 view .LVU900
 2833              		.loc 1 539 3 view .LVU901
 2834              		.loc 1 539 7 is_stmt 0 view .LVU902
 2835 0056 2389     		ldrh	r3, [r4, #8]
 2836              		.loc 1 539 6 view .LVU903
 2837 0058 13F00101 		ands	r1, r3, #1
 2838 005c 14D0     		beq	.L185
 2839              	.L168:
 2840              	.LVL166:
 2841              		.loc 1 539 6 view .LVU904
 2842              	.LBE574:
 2843              	.LBE573:
 2844              		.loc 1 821 5 is_stmt 1 view .LVU905
 2845              	.LBB576:
 2846              	.LBI576:
 2847              		.loc 2 524 20 view .LVU906
 2848              	.LBE576:
 2849              		.loc 2 526 3 view .LVU907
 2850              	.LBB588:
ARM GAS  C:\Users\USER\AppData\Local\Temp\cc3DDGj6.s 			page 51


 2851              	.LBB577:
 2852              	.LBI577:
 2853              		.loc 3 406 20 view .LVU908
 2854              	.LBE577:
 2855              	.LBE588:
 2856              		.loc 3 408 31 view .LVU909
 2857              		.loc 3 409 33 view .LVU910
 2858              		.loc 3 410 3 view .LVU911
 2859              	.LBB589:
 2860              	.LBB585:
 2861              	.LBB578:
 2862              	.LBI578:
 2863              		.loc 4 484 20 view .LVU912
 2864              	.LBE578:
 2865              	.LBE585:
 2866              	.LBE589:
 2867              		.loc 4 486 3 view .LVU913
 2868              	.LBB590:
 2869              	.LBB586:
 2870              	.LBB583:
 2871              	.LBB579:
 2872              	.LBI579:
 2873              		.loc 4 458 20 view .LVU914
 2874              	.LBE579:
 2875              	.LBE583:
 2876              	.LBE586:
 2877              	.LBE590:
 2878              		.loc 4 461 3 view .LVU915
 2879              	.LBB591:
 2880              	.LBB587:
 2881              	.LBB584:
 2882              	.LBB582:
 2883              	.LBB580:
 2884              	.LBI580:
 2885              		.loc 5 544 57 view .LVU916
 2886              	.LBB581:
 2887              		.loc 5 546 3 view .LVU917
 2888 005e 0023     		movs	r3, #0
 2889              		.syntax unified
 2890              	@ 546 "src/ChibiOS_3.0.2/os/ext/CMSIS/include/core_cmFunc.h" 1
 2891 0060 83F31188 		MSR basepri, r3
 2892              	@ 0 "" 2
 2893              	.LVL167:
 2894              		.loc 5 546 3 is_stmt 0 view .LVU918
 2895              		.thumb
 2896              		.syntax unified
 2897              	.LBE581:
 2898              	.LBE580:
 2899              	.LBE582:
 2900              	.LBE584:
 2901              	.LBE587:
 2902              	.LBE591:
 2903              		.loc 1 858 1 view .LVU919
 2904 0064 10BD     		pop	{r4, pc}
 2905              	.LVL168:
 2906              	.L166:
 2907              		.loc 1 850 5 is_stmt 1 view .LVU920
ARM GAS  C:\Users\USER\AppData\Local\Temp\cc3DDGj6.s 			page 52


 2908 0066 0021     		movs	r1, #0
 2909              	.LVL169:
 2910              		.loc 1 850 5 is_stmt 0 view .LVU921
 2911 0068 FFF7FEFF 		bl	usb_lld_stall_in
 2912              	.LVL170:
 2913              		.loc 1 851 5 is_stmt 1 view .LVU922
 2914 006c 0021     		movs	r1, #0
 2915 006e 2046     		mov	r0, r4
 2916 0070 FFF7FEFF 		bl	usb_lld_stall_out
 2917              	.LVL171:
 2918              		.loc 1 852 5 view .LVU923
 2919 0074 6368     		ldr	r3, [r4, #4]
 2920 0076 1B68     		ldr	r3, [r3]
 2921 0078 13B1     		cbz	r3, .L170
 2922              		.loc 1 852 5 discriminator 1 view .LVU924
 2923 007a 0521     		movs	r1, #5
 2924 007c 2046     		mov	r0, r4
 2925 007e 9847     		blx	r3
 2926              	.LVL172:
 2927              	.L170:
 2928              		.loc 1 852 54 discriminator 3 view .LVU925
 2929              		.loc 1 853 5 discriminator 3 view .LVU926
 2930              		.loc 1 853 20 is_stmt 0 discriminator 3 view .LVU927
 2931 0080 0623     		movs	r3, #6
 2932 0082 84F83430 		strb	r3, [r4, #52]
 2933              		.loc 1 854 5 is_stmt 1 discriminator 3 view .LVU928
 2934              		.loc 1 858 1 is_stmt 0 discriminator 3 view .LVU929
 2935 0086 10BD     		pop	{r4, pc}
 2936              	.LVL173:
 2937              	.L185:
 2938              	.LBB592:
 2939              	.LBB575:
 2940              		.loc 1 543 3 is_stmt 1 view .LVU930
 2941              		.loc 1 543 22 is_stmt 0 view .LVU931
 2942 0088 43F00103 		orr	r3, r3, #1
 2943 008c 2381     		strh	r3, [r4, #8]	@ movhi
 2944              		.loc 1 544 3 is_stmt 1 view .LVU932
 2945 008e 2046     		mov	r0, r4
 2946 0090 FFF7FEFF 		bl	usb_lld_start_in
 2947              	.LVL174:
 2948              		.loc 1 545 3 view .LVU933
 2949 0094 E3E7     		b	.L168
 2950              	.LBE575:
 2951              	.LBE592:
 2952              		.cfi_endproc
 2953              	.LFE276:
 2954              		.size	_usb_ep0out, .-_usb_ep0out
 2955 0096 00BF     		.section	.rodata.active_status,"a"
 2956              		.align	2
 2957              		.set	.LANCHOR2,. + 0
 2958              		.type	active_status, %object
 2959              		.size	active_status, 2
 2960              	active_status:
 2961 0000 0000     		.space	2
 2962              		.section	.rodata.halted_status,"a"
 2963              		.align	2
 2964              		.set	.LANCHOR1,. + 0
ARM GAS  C:\Users\USER\AppData\Local\Temp\cc3DDGj6.s 			page 53


 2965              		.type	halted_status, %object
 2966              		.size	halted_status, 2
 2967              	halted_status:
 2968 0000 01       		.byte	1
 2969 0001 00       		.byte	0
 2970              		.section	.rodata.zero_status,"a"
 2971              		.align	2
 2972              		.set	.LANCHOR0,. + 0
 2973              		.type	zero_status, %object
 2974              		.size	zero_status, 2
 2975              	zero_status:
 2976 0000 0000     		.space	2
 2977              		.text
 2978              	.Letext0:
 2979              		.file 6 "c:\\program files (x86)\\gnu tools arm embedded\\8 2018-q4-major\\lib\\gcc\\arm-none-eabi
 2980              		.file 7 "c:\\program files (x86)\\gnu tools arm embedded\\8 2018-q4-major\\arm-none-eabi\\include\
 2981              		.file 8 "c:\\program files (x86)\\gnu tools arm embedded\\8 2018-q4-major\\arm-none-eabi\\include\
 2982              		.file 9 "c:\\program files (x86)\\gnu tools arm embedded\\8 2018-q4-major\\arm-none-eabi\\include\
 2983              		.file 10 "c:\\program files (x86)\\gnu tools arm embedded\\8 2018-q4-major\\arm-none-eabi\\include
 2984              		.file 11 "c:\\program files (x86)\\gnu tools arm embedded\\8 2018-q4-major\\arm-none-eabi\\include
 2985              		.file 12 "src/ChibiOS_3.0.2/os/rt/ports/ARMCMx/compilers/GCC/chtypes.h"
 2986              		.file 13 "src/ChibiOS_3.0.2/os/rt/include/chsystypes.h"
 2987              		.file 14 "src/ChibiOS_3.0.2/os/rt/include/chschd.h"
 2988              		.file 15 "src/ChibiOS_3.0.2/os/ext/CMSIS/include/core_cm4.h"
 2989              		.file 16 "src/ChibiOS_3.0.2/os/ext/CMSIS/ST/system_stm32f4xx.h"
 2990              		.file 17 "src/ChibiOS_3.0.2/os/ext/CMSIS/ST/stm32f407xx.h"
 2991              		.file 18 "src/ChibiOS_3.0.2/os/rt/ports/ARMCMx/chcore.h"
 2992              		.file 19 "src/ChibiOS_3.0.2/os/rt/include/chtm.h"
 2993              		.file 20 "src/ChibiOS_3.0.2/os/rt/include/chsem.h"
 2994              		.file 21 "src/ChibiOS_3.0.2/os/rt/include/chmtx.h"
 2995              		.file 22 "src/ChibiOS_3.0.2/os/rt/include/chregistry.h"
 2996              		.file 23 "src/ChibiOS_3.0.2/os/rt/include/chevents.h"
 2997              		.file 24 "src/ChibiOS_3.0.2/os/rt/include/chqueues.h"
 2998              		.file 25 "src/ChibiOS_3.0.2/os/hal/ports/STM32/STM32F4xx/stm32_dma.h"
 2999              		.file 26 "src/ChibiOS_3.0.2/os/hal/ports/STM32/LLD/GPIOv2/pal_lld.h"
 3000              		.file 27 "src/ChibiOS_3.0.2/os/hal/include/can.h"
 3001              		.file 28 "src/ChibiOS_3.0.2/os/hal/ports/STM32/LLD/can_lld.h"
 3002              		.file 29 "src/ChibiOS_3.0.2/os/hal/include/i2c.h"
 3003              		.file 30 "src/ChibiOS_3.0.2/os/hal/ports/STM32/LLD/I2Cv1/i2c_lld.h"
 3004              		.file 31 "src/ChibiOS_3.0.2/os/hal/include/icu.h"
 3005              		.file 32 "src/ChibiOS_3.0.2/os/hal/ports/STM32/LLD/TIMv1/icu_lld.h"
 3006              		.file 33 "src/ChibiOS_3.0.2/os/hal/ports/STM32/LLD/TIMv1/stm32_tim.h"
 3007              		.file 34 "src/ChibiOS_3.0.2/os/hal/include/serial.h"
 3008              		.file 35 "src/ChibiOS_3.0.2/os/hal/ports/STM32/LLD/USARTv1/serial_lld.h"
 3009              		.file 36 "src/ChibiOS_3.0.2/os/hal/include/spi.h"
 3010              		.file 37 "src/ChibiOS_3.0.2/os/hal/ports/STM32/LLD/SPIv1/spi_lld.h"
 3011              		.file 38 "src/ChibiOS_3.0.2/os/hal/include/uart.h"
 3012              		.file 39 "src/ChibiOS_3.0.2/os/hal/ports/STM32/LLD/USARTv1/uart_lld.h"
 3013              		.file 40 "src/ChibiOS_3.0.2/os/hal/include/usb.h"
 3014              		.file 41 "src/ChibiOS_3.0.2/os/hal/ports/STM32/LLD/OTGv1/usb_lld.h"
 3015              		.file 42 "src/ChibiOS_3.0.2/os/hal/ports/STM32/LLD/OTGv1/stm32_otg.h"