ARM GAS  C:\Users\USER\AppData\Local\Temp\ccRejSya.s 			page 1


   1              		.cpu cortex-m4
   2              		.eabi_attribute 27, 1
   3              		.eabi_attribute 28, 1
   4              		.eabi_attribute 20, 1
   5              		.eabi_attribute 21, 1
   6              		.eabi_attribute 23, 3
   7              		.eabi_attribute 24, 1
   8              		.eabi_attribute 25, 1
   9              		.eabi_attribute 26, 1
  10              		.eabi_attribute 30, 2
  11              		.eabi_attribute 34, 1
  12              		.eabi_attribute 18, 4
  13              		.file	"usb_lld.c"
  14              		.text
  15              	.Ltext0:
  16              		.cfi_sections	.debug_frame
  17              		.section	.text.usb_lld_pump,"ax",%progbits
  18              		.align	1
  19              		.p2align 4,,15
  20              		.global	usb_lld_pump
  21              		.arch armv7e-m
  22              		.syntax unified
  23              		.thumb
  24              		.thumb_func
  25              		.fpu fpv4-sp-d16
  26              		.type	usb_lld_pump, %function
  27              	usb_lld_pump:
  28              	.LVL0:
  29              	.LFB292:
  30              		.file 1 "src/ChibiOS_3.0.2/os/hal/ports/STM32/LLD/OTGv1/usb_lld.c"
  31              		.loc 1 1294 28 view -0
  32              		.cfi_startproc
  33              		@ args = 0, pretend = 0, frame = 16
  34              		@ frame_needed = 0, uses_anonymous_args = 0
  35              		.loc 1 1295 3 view .LVU1
  36              		.loc 1 1294 28 is_stmt 0 view .LVU2
  37 0000 2DE9F04F 		push	{r4, r5, r6, r7, r8, r9, r10, fp, lr}
  38              		.cfi_def_cfa_offset 36
  39              		.cfi_offset 4, -36
  40              		.cfi_offset 5, -32
  41              		.cfi_offset 6, -28
  42              		.cfi_offset 7, -24
  43              		.cfi_offset 8, -20
  44              		.cfi_offset 9, -16
  45              		.cfi_offset 10, -12
  46              		.cfi_offset 11, -8
  47              		.cfi_offset 14, -4
  48              	.LBB422:
  49              	.LBB423:
  50              		.file 2 "src/ChibiOS_3.0.2/os/rt/include/chregistry.h"
  51              		.loc 2 135 11 view .LVU3
  52 0004 B74B     		ldr	r3, .L106
  53              		.loc 2 135 30 view .LVU4
  54 0006 B849     		ldr	r1, .L106+4
  55 0008 9A69     		ldr	r2, [r3, #24]
  56              	.LVL1:
  57              		.loc 2 135 30 view .LVU5
ARM GAS  C:\Users\USER\AppData\Local\Temp\ccRejSya.s 			page 2


  58              	.LBE423:
  59              	.LBE422:
  60              		.loc 1 1296 3 is_stmt 1 view .LVU6
  61              		.loc 1 1296 16 is_stmt 0 view .LVU7
  62 000a 056D     		ldr	r5, [r0, #80]
  63              	.LVL2:
  64              		.loc 1 1299 3 is_stmt 1 view .LVU8
  65              	.LBB425:
  66              	.LBI422:
  67              		.loc 2 132 20 view .LVU9
  68              	.LBB424:
  69              		.loc 2 135 3 view .LVU10
  70              		.loc 2 135 30 is_stmt 0 view .LVU11
  71 000c 9161     		str	r1, [r2, #24]
  72              	.LVL3:
  73              		.loc 2 135 30 view .LVU12
  74              	.LBE424:
  75              	.LBE425:
  76              		.loc 1 1301 3 is_stmt 1 view .LVU13
  77              	.LBB426:
  78              	.LBI426:
  79              		.file 3 "src/ChibiOS_3.0.2/os/hal/osal/rt/osal.h"
  80              		.loc 3 491 20 view .LVU14
  81              	.LBE426:
  82              		.loc 3 493 3 view .LVU15
  83              	.LBB438:
  84              	.LBB427:
  85              	.LBI427:
  86              		.file 4 "src/ChibiOS_3.0.2/os/rt/include/chsys.h"
  87              		.loc 4 346 20 view .LVU16
  88              	.LBE427:
  89              	.LBE438:
  90              		.loc 4 348 3 view .LVU17
  91              	.LBB439:
  92              	.LBB435:
  93              	.LBB428:
  94              	.LBI428:
  95              		.file 5 "src/ChibiOS_3.0.2/os/rt/ports/ARMCMx/chcore_v7m.h"
  96              		.loc 5 444 20 view .LVU18
  97              	.LBE428:
  98              	.LBE435:
  99              	.LBE439:
 100              		.loc 5 447 3 view .LVU19
 101              	.LBB440:
 102              	.LBB436:
 103              	.LBB433:
 104              	.LBB429:
 105              	.LBI429:
 106              		.file 6 "src/ChibiOS_3.0.2/os/ext/CMSIS/include/core_cmFunc.h"
 107              		.loc 6 544 57 view .LVU20
 108              	.LBB430:
 109              		.loc 6 546 3 view .LVU21
 110              	.LBE430:
 111              	.LBE429:
 112              	.LBE433:
 113              	.LBE436:
 114              	.LBE440:
ARM GAS  C:\Users\USER\AppData\Local\Temp\ccRejSya.s 			page 3


 115              		.loc 1 1294 28 is_stmt 0 view .LVU22
 116 000e 85B0     		sub	sp, sp, #20
 117              		.cfi_def_cfa_offset 56
 118              	.LBB441:
 119              	.LBB437:
 120              	.LBB434:
 121              	.LBB432:
 122              	.LBB431:
 123              		.loc 6 546 3 view .LVU23
 124 0010 2023     		movs	r3, #32
 125              		.syntax unified
 126              	@ 546 "src/ChibiOS_3.0.2/os/ext/CMSIS/include/core_cmFunc.h" 1
 127 0012 83F31188 		MSR basepri, r3
 128              	@ 0 "" 2
 129              	.LVL4:
 130              		.loc 6 546 3 view .LVU24
 131              		.thumb
 132              		.syntax unified
 133              	.LBE431:
 134              	.LBE432:
 135              	.LBE434:
 136              	.LBE437:
 137              	.LBE441:
 138              		.loc 4 349 34 is_stmt 1 view .LVU25
 139              		.loc 4 350 20 view .LVU26
 140              	.LBB442:
 141              	.LBB443:
 142              	.LBB444:
 143              	.LBB445:
 144              	.LBB446:
 145              	.LBB447:
 146              	.LBB448:
 147              	.LBB449:
 148              	.LBB450:
 149              	.LBB451:
 150              		.loc 6 546 3 is_stmt 0 view .LVU27
 151 0016 0093     		str	r3, [sp]
 152 0018 00F16003 		add	r3, r0, #96
 153 001c A946     		mov	r9, r5
 154 001e 0393     		str	r3, [sp, #12]
 155 0020 0546     		mov	r5, r0
 156              	.LVL5:
 157              	.L51:
 158              		.loc 6 546 3 view .LVU28
 159              	.LBE451:
 160              	.LBE450:
 161              	.LBE449:
 162              	.LBE448:
 163              	.LBE447:
 164              	.LBE446:
 165              	.LBE445:
 166              	.LBE444:
 167              	.LBE443:
 168              	.LBE442:
 169              		.loc 1 1302 3 is_stmt 1 view .LVU29
 170              	.LBB732:
 171              		.loc 1 1303 5 view .LVU30
ARM GAS  C:\Users\USER\AppData\Local\Temp\ccRejSya.s 			page 4


 172              		.loc 1 1304 5 view .LVU31
 173              		.loc 1 1307 5 view .LVU32
 174              		.loc 1 1307 8 is_stmt 0 view .LVU33
 175 0022 2B78     		ldrb	r3, [r5]	@ zero_extendqisi2
 176 0024 012B     		cmp	r3, #1
 177 0026 05D0     		beq	.L2
 178              		.loc 1 1307 35 discriminator 1 view .LVU34
 179 0028 EB6D     		ldr	r3, [r5, #92]
 180 002a 63B9     		cbnz	r3, .L3
 181              		.loc 1 1308 42 view .LVU35
 182 002c D9F81430 		ldr	r3, [r9, #20]
 183              		.loc 1 1308 33 view .LVU36
 184 0030 DB06     		lsls	r3, r3, #27
 185 0032 08D4     		bmi	.L3
 186              	.L2:
 187              		.loc 1 1309 7 is_stmt 1 view .LVU37
 188              		.loc 1 1309 21 is_stmt 0 view .LVU38
 189 0034 D9F81830 		ldr	r3, [r9, #24]
 190              	.LBB523:
 191              	.LBB524:
 192              		.loc 3 688 10 view .LVU39
 193 0038 0398     		ldr	r0, [sp, #12]
 194              	.LBE524:
 195              	.LBE523:
 196              		.loc 1 1309 21 view .LVU40
 197 003a 43F01003 		orr	r3, r3, #16
 198 003e C9F81830 		str	r3, [r9, #24]
 199              		.loc 1 1310 7 is_stmt 1 view .LVU41
 200              	.LBB526:
 201              	.LBI523:
 202              		.loc 3 686 21 view .LVU42
 203              	.LBB525:
 204              		.loc 3 688 3 view .LVU43
 205              		.loc 3 688 10 is_stmt 0 view .LVU44
 206 0042 FFF7FEFF 		bl	chThdSuspendS
 207              	.LVL6:
 208              	.L3:
 209              		.loc 3 688 10 view .LVU45
 210              	.LBE525:
 211              	.LBE526:
 212              		.loc 1 1312 5 is_stmt 1 view .LVU46
 213              	.LBB527:
 214              	.LBI527:
 215              		.loc 3 502 20 view .LVU47
 216              	.LBE527:
 217              	.LBE732:
 218              		.loc 3 504 3 view .LVU48
 219              	.LBB733:
 220              	.LBB536:
 221              	.LBB528:
 222              	.LBI528:
 223              		.loc 4 358 20 view .LVU49
 224              	.LBB529:
 225              		.loc 4 360 22 view .LVU50
 226              		.loc 4 361 33 view .LVU51
 227              		.loc 4 367 3 view .LVU52
 228              		.loc 4 367 3 view .LVU53
ARM GAS  C:\Users\USER\AppData\Local\Temp\ccRejSya.s 			page 5


 229              		.loc 4 371 3 view .LVU54
 230              	.LBB530:
 231              	.LBI530:
 232              		.loc 5 458 20 view .LVU55
 233              	.LBE530:
 234              	.LBE529:
 235              	.LBE528:
 236              	.LBE536:
 237              	.LBE733:
 238              		.loc 5 461 3 view .LVU56
 239              	.LBB734:
 240              	.LBB537:
 241              	.LBB535:
 242              	.LBB534:
 243              	.LBB533:
 244              	.LBB531:
 245              	.LBI531:
 246              		.loc 6 544 57 view .LVU57
 247              	.LBB532:
 248              		.loc 6 546 3 view .LVU58
 249 0046 0023     		movs	r3, #0
 250              		.syntax unified
 251              	@ 546 "src/ChibiOS_3.0.2/os/ext/CMSIS/include/core_cmFunc.h" 1
 252 0048 83F31188 		MSR basepri, r3
 253              	@ 0 "" 2
 254              	.LVL7:
 255              		.loc 6 546 3 is_stmt 0 view .LVU59
 256              		.thumb
 257              		.syntax unified
 258              	.LBE532:
 259              	.LBE531:
 260              	.LBE533:
 261              	.LBE534:
 262              	.LBE535:
 263              	.LBE537:
 264              		.loc 1 1315 5 is_stmt 1 view .LVU60
 265              		.loc 1 1315 13 is_stmt 0 view .LVU61
 266 004c 9A46     		mov	r10, r3
 267              	.LVL8:
 268              	.L6:
 269              		.loc 1 1318 18 view .LVU62
 270 004e D9F81430 		ldr	r3, [r9, #20]
 271              		.loc 1 1318 13 view .LVU63
 272 0052 13F01003 		ands	r3, r3, #16
 273 0056 58D0     		beq	.L99
 274              	.L23:
 275              		.loc 1 1319 9 is_stmt 1 view .LVU64
 276              	.LVL9:
 277              	.LBB538:
 278              	.LBI443:
 279              		.loc 1 434 13 view .LVU65
 280              	.LBB512:
 281              		.loc 1 435 3 view .LVU66
 282              		.loc 1 437 3 view .LVU67
 283              		.loc 1 437 13 is_stmt 0 view .LVU68
 284 0058 2A6D     		ldr	r2, [r5, #80]
 285              		.loc 1 437 7 view .LVU69
ARM GAS  C:\Users\USER\AppData\Local\Temp\ccRejSya.s 			page 6


 286 005a 136A     		ldr	r3, [r2, #32]
 287              	.LVL10:
 288              		.loc 1 438 3 is_stmt 1 view .LVU70
 289              		.loc 1 438 15 is_stmt 0 view .LVU71
 290 005c 03F4F011 		and	r1, r3, #1966080
 291              		.loc 1 438 3 view .LVU72
 292 0060 B1F5802F 		cmp	r1, #262144
 293 0064 24D0     		beq	.L5
 294 0066 B1F5402F 		cmp	r1, #786432
 295 006a F0D1     		bne	.L6
 296              		.loc 1 442 5 is_stmt 1 view .LVU73
 297              	.LVL11:
 298              		.loc 1 443 5 view .LVU74
 299              		.loc 1 444 5 view .LVU75
 300              		.loc 1 443 9 is_stmt 0 view .LVU76
 301 006c 03F00F01 		and	r1, r3, #15
 302              	.LVL12:
 303              		.loc 1 444 58 view .LVU77
 304 0070 05EB8101 		add	r1, r5, r1, lsl #2
 305              	.LVL13:
 306              		.loc 1 442 9 view .LVU78
 307 0074 C3F30A13 		ubfx	r3, r3, #4, #11
 308              	.LVL14:
 309              		.loc 1 444 5 view .LVU79
 310 0078 C968     		ldr	r1, [r1, #12]
 311              	.LBB490:
 312              	.LBB491:
 313              		.loc 1 356 10 view .LVU80
 314 007a 0333     		adds	r3, r3, #3
 315              		.loc 1 358 9 view .LVU81
 316 007c 9B08     		lsrs	r3, r3, #2
 317              	.LBE491:
 318              	.LBE490:
 319              		.loc 1 444 5 view .LVU82
 320 007e 0C6A     		ldr	r4, [r1, #32]
 321              	.LVL15:
 322              	.LBB496:
 323              	.LBI490:
 324              		.loc 1 351 13 is_stmt 1 view .LVU83
 325              	.LBB495:
 326              		.loc 1 356 3 view .LVU84
 327              		.loc 1 357 3 view .LVU85
 328              		.loc 1 358 3 view .LVU86
 329              		.loc 1 358 9 is_stmt 0 view .LVU87
 330 0080 E5D0     		beq	.L6
 331 0082 02F58052 		add	r2, r2, #4096
 332              	.LVL16:
 333              		.loc 1 357 7 view .LVU88
 334 0086 0221     		movs	r1, #2
 335              	.LVL17:
 336              	.LBB492:
 337              		.loc 1 359 5 is_stmt 1 view .LVU89
 338              		.loc 1 359 14 is_stmt 0 view .LVU90
 339 0088 1668     		ldr	r6, [r2]
 340              	.LVL18:
 341              		.loc 1 360 5 is_stmt 1 view .LVU91
 342              		.loc 1 363 7 view .LVU92
ARM GAS  C:\Users\USER\AppData\Local\Temp\ccRejSya.s 			page 7


 343 008a 581E     		subs	r0, r3, #1
 344              		.loc 1 360 8 is_stmt 0 view .LVU93
 345 008c 49B1     		cbz	r1, .L100
 346              	.L9:
 347              		.loc 1 365 10 view .LVU94
 348 008e 0346     		mov	r3, r0
 349              		.loc 1 363 37 view .LVU95
 350 0090 44F8046B 		str	r6, [r4], #4
 351              	.LVL19:
 352              		.loc 1 364 7 is_stmt 1 view .LVU96
 353              		.loc 1 365 7 view .LVU97
 354              		.loc 1 365 10 is_stmt 0 view .LVU98
 355 0094 0139     		subs	r1, r1, #1
 356              	.LVL20:
 357              		.loc 1 367 5 is_stmt 1 view .LVU99
 358              		.loc 1 367 5 is_stmt 0 view .LVU100
 359              	.LBE492:
 360              		.loc 1 358 9 view .LVU101
 361 0096 002B     		cmp	r3, #0
 362 0098 D9D0     		beq	.L6
 363              	.LVL21:
 364              	.L98:
 365              	.LBB493:
 366              		.loc 1 359 5 is_stmt 1 view .LVU102
 367              		.loc 1 359 14 is_stmt 0 view .LVU103
 368 009a 1668     		ldr	r6, [r2]
 369              	.LVL22:
 370              		.loc 1 360 5 is_stmt 1 view .LVU104
 371              		.loc 1 363 7 view .LVU105
 372 009c 581E     		subs	r0, r3, #1
 373              		.loc 1 360 8 is_stmt 0 view .LVU106
 374 009e 0029     		cmp	r1, #0
 375 00a0 F5D1     		bne	.L9
 376              	.L100:
 377              	.LVL23:
 378              		.loc 1 367 5 is_stmt 1 view .LVU107
 379              		.loc 1 359 5 view .LVU108
 380              	.LBE493:
 381              		.loc 1 358 9 is_stmt 0 view .LVU109
 382 00a2 0028     		cmp	r0, #0
 383 00a4 D3D0     		beq	.L6
 384              		.loc 1 358 9 view .LVU110
 385 00a6 023B     		subs	r3, r3, #2
 386              	.LBB494:
 387              		.loc 1 359 14 view .LVU111
 388 00a8 1068     		ldr	r0, [r2]
 389              	.LVL24:
 390              		.loc 1 360 5 is_stmt 1 view .LVU112
 391              		.loc 1 367 5 view .LVU113
 392              		.loc 1 367 5 is_stmt 0 view .LVU114
 393              	.LBE494:
 394              		.loc 1 358 9 view .LVU115
 395 00aa 002B     		cmp	r3, #0
 396 00ac F5D1     		bne	.L98
 397              		.loc 1 358 9 view .LVU116
 398 00ae CEE7     		b	.L6
 399              	.LVL25:
ARM GAS  C:\Users\USER\AppData\Local\Temp\ccRejSya.s 			page 8


 400              	.L5:
 401              		.loc 1 358 9 view .LVU117
 402              	.LBE495:
 403              	.LBE496:
 404              		.loc 1 448 5 is_stmt 1 view .LVU118
 405              		.loc 1 449 9 is_stmt 0 view .LVU119
 406 00b0 03F00F06 		and	r6, r3, #15
 407 00b4 05EB8606 		add	r6, r5, r6, lsl #2
 408              		.loc 1 448 9 view .LVU120
 409 00b8 C3F30A14 		ubfx	r4, r3, #4, #11
 410              	.LVL26:
 411              		.loc 1 449 5 is_stmt 1 view .LVU121
 412              		.loc 1 450 5 view .LVU122
 413              		.loc 1 450 22 is_stmt 0 view .LVU123
 414 00bc F368     		ldr	r3, [r6, #12]
 415              	.LVL27:
 416              		.loc 1 450 22 view .LVU124
 417 00be 9F69     		ldr	r7, [r3, #24]
 418              		.loc 1 450 8 view .LVU125
 419 00c0 3B78     		ldrb	r3, [r7]	@ zero_extendqisi2
 420 00c2 F868     		ldr	r0, [r7, #12]
 421 00c4 002B     		cmp	r3, #0
 422 00c6 3CD1     		bne	.L101
 423              		.loc 1 457 7 is_stmt 1 view .LVU126
 424              		.loc 1 461 55 is_stmt 0 view .LVU127
 425 00c8 D7E9013E 		ldrd	r3, lr, [r7, #4]
 426              	.LVL28:
 427              	.LBB497:
 428              	.LBI497:
 429              		.loc 1 351 13 is_stmt 1 view .LVU128
 430              	.LBB498:
 431              		.loc 1 356 3 view .LVU129
 432              		.loc 1 357 14 is_stmt 0 view .LVU130
 433 00cc D91C     		adds	r1, r3, #3
 434              		.loc 1 356 10 view .LVU131
 435 00ce E31C     		adds	r3, r4, #3
 436              	.LVL29:
 437              		.loc 1 357 3 is_stmt 1 view .LVU132
 438              		.loc 1 357 14 is_stmt 0 view .LVU133
 439 00d0 A1EB0E01 		sub	r1, r1, lr
 440              		.loc 1 358 9 view .LVU134
 441 00d4 9B08     		lsrs	r3, r3, #2
 442              		.loc 1 357 7 view .LVU135
 443 00d6 4FEA9101 		lsr	r1, r1, #2
 444              	.LVL30:
 445              		.loc 1 358 3 is_stmt 1 view .LVU136
 446              		.loc 1 358 9 is_stmt 0 view .LVU137
 447 00da 0DD0     		beq	.L21
 448 00dc 02F58052 		add	r2, r2, #4096
 449              	.LVL31:
 450              		.loc 1 358 9 view .LVU138
 451 00e0 8446     		mov	ip, r0
 452 00e2 9046     		mov	r8, r2
 453              	.LVL32:
 454              	.L19:
 455              	.LBB499:
 456              		.loc 1 359 5 is_stmt 1 view .LVU139
ARM GAS  C:\Users\USER\AppData\Local\Temp\ccRejSya.s 			page 9


 457              		.loc 1 363 7 view .LVU140
 458              		.loc 1 359 14 is_stmt 0 view .LVU141
 459 00e4 D8F80020 		ldr	r2, [r8]
 460              	.LVL33:
 461              		.loc 1 360 5 is_stmt 1 view .LVU142
 462 00e8 5E1E     		subs	r6, r3, #1
 463              		.loc 1 360 8 is_stmt 0 view .LVU143
 464 00ea 11B3     		cbz	r1, .L102
 465              		.loc 1 365 10 view .LVU144
 466 00ec 3346     		mov	r3, r6
 467              	.LVL34:
 468              		.loc 1 363 37 view .LVU145
 469 00ee 4CF8042B 		str	r2, [ip], #4
 470              	.LVL35:
 471              		.loc 1 364 7 is_stmt 1 view .LVU146
 472              		.loc 1 365 7 view .LVU147
 473              		.loc 1 365 10 is_stmt 0 view .LVU148
 474 00f2 0139     		subs	r1, r1, #1
 475              	.LVL36:
 476              		.loc 1 367 5 is_stmt 1 view .LVU149
 477              		.loc 1 367 5 is_stmt 0 view .LVU150
 478              	.LBE499:
 479              		.loc 1 358 9 view .LVU151
 480 00f4 002B     		cmp	r3, #0
 481 00f6 F5D1     		bne	.L19
 482              	.LVL37:
 483              	.L21:
 484              		.loc 1 358 9 view .LVU152
 485              	.LBE498:
 486              	.LBE497:
 487              		.loc 1 462 7 is_stmt 1 view .LVU153
 488              		.loc 1 462 51 is_stmt 0 view .LVU154
 489 00f8 2044     		add	r0, r0, r4
 490 00fa F860     		str	r0, [r7, #12]
 491              	.L18:
 492              		.loc 1 464 5 is_stmt 1 view .LVU155
 493              	.LBE512:
 494              	.LBE538:
 495              		.loc 1 1318 18 is_stmt 0 view .LVU156
 496 00fc D9F81430 		ldr	r3, [r9, #20]
 497              	.LBB539:
 498              	.LBB513:
 499              		.loc 1 464 37 view .LVU157
 500 0100 7444     		add	r4, r4, lr
 501              	.LVL38:
 502              		.loc 1 464 37 view .LVU158
 503              	.LBE513:
 504              	.LBE539:
 505              		.loc 1 1318 13 view .LVU159
 506 0102 13F01003 		ands	r3, r3, #16
 507              	.LBB540:
 508              	.LBB514:
 509              		.loc 1 464 37 view .LVU160
 510 0106 BC60     		str	r4, [r7, #8]
 511              		.loc 1 465 5 is_stmt 1 view .LVU161
 512              	.LBE514:
 513              	.LBE540:
ARM GAS  C:\Users\USER\AppData\Local\Temp\ccRejSya.s 			page 10


 514              		.loc 1 1318 13 is_stmt 0 view .LVU162
 515 0108 A6D1     		bne	.L23
 516              	.LVL39:
 517              	.L99:
 518              		.loc 1 1322 7 is_stmt 1 view .LVU163
 519              		.loc 1 1322 19 is_stmt 0 view .LVU164
 520 010a 0121     		movs	r1, #1
 521              		.loc 1 1323 27 view .LVU165
 522 010c EA6D     		ldr	r2, [r5, #92]
 523              		.loc 1 1322 19 view .LVU166
 524 010e 01FA0AF1 		lsl	r1, r1, r10
 525              		.loc 1 1323 10 view .LVU167
 526 0112 1142     		tst	r1, r2
 527              		.loc 1 1322 19 view .LVU168
 528 0114 0291     		str	r1, [sp, #8]
 529              	.LVL40:
 530              		.loc 1 1323 7 is_stmt 1 view .LVU169
 531              		.loc 1 1323 10 is_stmt 0 view .LVU170
 532 0116 50D1     		bne	.L91
 533 0118 0AF10103 		add	r3, r10, #1
 534 011c 0193     		str	r3, [sp, #4]
 535              	.LVL41:
 536              	.L24:
 537              		.loc 1 1315 39 discriminator 2 view .LVU171
 538 011e 6B6D     		ldr	r3, [r5, #84]
 539              		.loc 1 1315 58 discriminator 2 view .LVU172
 540 0120 9DF804A0 		ldrb	r10, [sp, #4]	@ zero_extendqisi2
 541              	.LVL42:
 542              		.loc 1 1315 5 discriminator 2 view .LVU173
 543 0124 9B68     		ldr	r3, [r3, #8]
 544 0126 9A45     		cmp	r10, r3
 545 0128 91D9     		bls	.L6
 546              		.loc 1 1347 5 is_stmt 1 view .LVU174
 547              	.LBB541:
 548              	.LBI541:
 549              		.loc 3 491 20 view .LVU175
 550              	.LBE541:
 551              	.LBE734:
 552              		.loc 3 493 3 view .LVU176
 553              	.LBB735:
 554              	.LBB549:
 555              	.LBB542:
 556              	.LBI542:
 557              		.loc 4 346 20 view .LVU177
 558              	.LBE542:
 559              	.LBE549:
 560              	.LBE735:
 561              		.loc 4 348 3 view .LVU178
 562              	.LBB736:
 563              	.LBB550:
 564              	.LBB547:
 565              	.LBB543:
 566              	.LBI543:
 567              		.loc 5 444 20 view .LVU179
 568              	.LBE543:
 569              	.LBE547:
 570              	.LBE550:
ARM GAS  C:\Users\USER\AppData\Local\Temp\ccRejSya.s 			page 11


 571              	.LBE736:
 572              		.loc 5 447 3 view .LVU180
 573              	.LVL43:
 574              	.LBB737:
 575              	.LBB551:
 576              	.LBB548:
 577              	.LBB546:
 578              	.LBB544:
 579              	.LBI544:
 580              		.loc 6 544 57 view .LVU181
 581              	.LBB545:
 582              		.loc 6 546 3 view .LVU182
 583 012a 009B     		ldr	r3, [sp]
 584              		.syntax unified
 585              	@ 546 "src/ChibiOS_3.0.2/os/ext/CMSIS/include/core_cmFunc.h" 1
 586 012c 83F31188 		MSR basepri, r3
 587              	@ 0 "" 2
 588              	.LVL44:
 589              		.loc 6 546 3 is_stmt 0 view .LVU183
 590              		.thumb
 591              		.syntax unified
 592              	.LBE545:
 593              	.LBE544:
 594              	.LBE546:
 595              	.LBE548:
 596              	.LBE551:
 597              	.LBE737:
 598              		.loc 4 349 34 is_stmt 1 view .LVU184
 599              		.loc 4 350 20 view .LVU185
 600 0130 77E7     		b	.L51
 601              	.LVL45:
 602              	.L102:
 603              	.LBB738:
 604              	.LBB552:
 605              	.LBB515:
 606              	.LBB503:
 607              	.LBB502:
 608              	.LBB500:
 609              		.loc 1 367 5 view .LVU186
 610              		.loc 1 359 5 view .LVU187
 611              	.LBE500:
 612              		.loc 1 358 9 is_stmt 0 view .LVU188
 613 0132 002E     		cmp	r6, #0
 614 0134 E0D0     		beq	.L21
 615 0136 023B     		subs	r3, r3, #2
 616              	.LVL46:
 617              	.LBB501:
 618              		.loc 1 359 14 view .LVU189
 619 0138 D8F80020 		ldr	r2, [r8]
 620              	.LVL47:
 621              		.loc 1 360 5 is_stmt 1 view .LVU190
 622              		.loc 1 367 5 view .LVU191
 623              		.loc 1 367 5 is_stmt 0 view .LVU192
 624              	.LBE501:
 625              		.loc 1 358 9 view .LVU193
 626 013c 002B     		cmp	r3, #0
 627 013e D1D1     		bne	.L19
ARM GAS  C:\Users\USER\AppData\Local\Temp\ccRejSya.s 			page 12


 628 0140 DAE7     		b	.L21
 629              	.LVL48:
 630              	.L101:
 631              		.loc 1 358 9 view .LVU194
 632              	.LBE502:
 633              	.LBE503:
 634              		.loc 1 452 7 is_stmt 1 view .LVU195
 635              	.LBB504:
 636              	.LBI445:
 637              		.loc 1 380 13 view .LVU196
 638              	.LBB482:
 639              		.loc 1 383 3 view .LVU197
 640              		.loc 1 385 3 view .LVU198
 641              		.loc 1 386 3 view .LVU199
 642              		.loc 1 386 9 is_stmt 0 view .LVU200
 643 0142 3CB3     		cbz	r4, .L13
 644 0144 4169     		ldr	r1, [r0, #20]
 645 0146 02F58052 		add	r2, r2, #4096
 646              	.LVL49:
 647              		.loc 1 386 9 view .LVU201
 648 014a A446     		mov	ip, r4
 649              	.LVL50:
 650              	.L52:
 651              	.LBB459:
 652              		.loc 1 387 5 is_stmt 1 view .LVU202
 653              		.loc 1 388 5 view .LVU203
 654              		.loc 1 390 5 view .LVU204
 655              		.loc 1 390 8 is_stmt 0 view .LVU205
 656 014c BCF1030F 		cmp	ip, #3
 657 0150 07D9     		bls	.L14
 658              	.LVL51:
 659              	.L103:
 660              	.LBB460:
 661              		.loc 1 391 7 is_stmt 1 view .LVU206
 662              		.loc 1 392 7 view .LVU207
 663              		.loc 1 394 7 view .LVU208
 664              		.loc 1 395 7 view .LVU209
 665              		.loc 1 395 7 is_stmt 0 view .LVU210
 666              	.LBE460:
 667              	.LBE459:
 668              	.LBE482:
 669              	.LBE504:
 670              	.LBE515:
 671              	.LBE552:
 672              	.LBE738:
 673              		.loc 1 330 3 is_stmt 1 view .LVU211
 674              		.loc 1 338 3 view .LVU212
 675              	.LBB739:
 676              	.LBB553:
 677              	.LBB516:
 678              	.LBB505:
 679              	.LBB483:
 680              	.LBB462:
 681              	.LBB461:
 682              		.loc 1 396 7 view .LVU213
 683              		.loc 1 396 10 is_stmt 0 view .LVU214
 684 0152 0369     		ldr	r3, [r0, #16]
ARM GAS  C:\Users\USER\AppData\Local\Temp\ccRejSya.s 			page 13


 685 0154 8B42     		cmp	r3, r1
 686 0156 04D8     		bhi	.L14
 687              		.loc 1 397 9 is_stmt 1 view .LVU215
 688              		.loc 1 397 27 is_stmt 0 view .LVU216
 689 0158 C168     		ldr	r1, [r0, #12]
 690              		.loc 1 397 22 view .LVU217
 691 015a 4161     		str	r1, [r0, #20]
 692              		.loc 1 398 9 is_stmt 1 view .LVU218
 693              		.loc 1 398 9 is_stmt 0 view .LVU219
 694              	.LBE461:
 695              		.loc 1 387 5 is_stmt 1 view .LVU220
 696              		.loc 1 388 5 view .LVU221
 697              	.LVL52:
 698              		.loc 1 390 5 view .LVU222
 699              		.loc 1 390 8 is_stmt 0 view .LVU223
 700 015c BCF1030F 		cmp	ip, #3
 701 0160 F7D8     		bhi	.L103
 702              	.LVL53:
 703              	.L14:
 704              		.loc 1 404 5 is_stmt 1 view .LVU224
 705              		.loc 1 408 5 view .LVU225
 706              		.loc 1 408 7 is_stmt 0 view .LVU226
 707 0162 D2F800E0 		ldr	lr, [r2]
 708              	.LVL54:
 709              		.loc 1 409 5 is_stmt 1 view .LVU227
 710              		.loc 1 410 5 view .LVU228
 711              		.loc 1 408 7 is_stmt 0 view .LVU229
 712 0166 0023     		movs	r3, #0
 713              	.LVL55:
 714              	.L17:
 715              		.loc 1 411 7 is_stmt 1 view .LVU230
 716              		.loc 1 413 9 view .LVU231
 717              		.loc 1 414 7 view .LVU232
 718              		.loc 1 415 7 view .LVU233
 719              		.loc 1 411 37 is_stmt 0 view .LVU234
 720 0168 2EFA03F7 		lsr	r7, lr, r3
 721              		.loc 1 411 20 view .LVU235
 722 016c 01F10108 		add	r8, r1, #1
 723 0170 C0F81480 		str	r8, [r0, #20]
 724              		.loc 1 411 25 view .LVU236
 725 0174 0F70     		strb	r7, [r1]
 726              		.loc 1 412 7 is_stmt 1 view .LVU237
 727              		.loc 1 412 10 is_stmt 0 view .LVU238
 728 0176 D0E90417 		ldrd	r1, r7, [r0, #16]
 729 017a 8F42     		cmp	r7, r1
 730              		.loc 1 413 22 view .LVU239
 731 017c 24BF     		itt	cs
 732 017e C168     		ldrcs	r1, [r0, #12]
 733 0180 4161     		strcs	r1, [r0, #20]
 734              		.loc 1 410 11 view .LVU240
 735 0182 BCF1010C 		subs	ip, ip, #1
 736              	.LVL56:
 737              		.loc 1 410 11 view .LVU241
 738 0186 03F10803 		add	r3, r3, #8
 739 018a 03D0     		beq	.L13
 740              		.loc 1 410 24 view .LVU242
 741 018c 202B     		cmp	r3, #32
ARM GAS  C:\Users\USER\AppData\Local\Temp\ccRejSya.s 			page 14


 742 018e 4169     		ldr	r1, [r0, #20]
 743 0190 EAD1     		bne	.L17
 744 0192 DBE7     		b	.L52
 745              	.LVL57:
 746              	.L13:
 747              		.loc 1 410 24 view .LVU243
 748              	.LBE462:
 749              		.loc 1 420 3 is_stmt 1 view .LVU244
 750              	.LBB463:
 751              	.LBI447:
 752              		.loc 3 491 20 view .LVU245
 753              	.LBE463:
 754              	.LBE483:
 755              	.LBE505:
 756              	.LBE516:
 757              	.LBE553:
 758              	.LBE739:
 759              		.loc 3 493 3 view .LVU246
 760              	.LBB740:
 761              	.LBB554:
 762              	.LBB517:
 763              	.LBB506:
 764              	.LBB484:
 765              	.LBB464:
 766              	.LBB456:
 767              	.LBI448:
 768              		.loc 4 346 20 view .LVU247
 769              	.LBE456:
 770              	.LBE464:
 771              	.LBE484:
 772              	.LBE506:
 773              	.LBE517:
 774              	.LBE554:
 775              	.LBE740:
 776              		.loc 4 348 3 view .LVU248
 777              	.LBB741:
 778              	.LBB555:
 779              	.LBB518:
 780              	.LBB507:
 781              	.LBB485:
 782              	.LBB465:
 783              	.LBB457:
 784              	.LBB454:
 785              	.LBI449:
 786              		.loc 5 444 20 view .LVU249
 787              	.LBE454:
 788              	.LBE457:
 789              	.LBE465:
 790              	.LBE485:
 791              	.LBE507:
 792              	.LBE518:
 793              	.LBE555:
 794              	.LBE741:
 795              		.loc 5 447 3 view .LVU250
 796              	.LBB742:
 797              	.LBB556:
 798              	.LBB519:
ARM GAS  C:\Users\USER\AppData\Local\Temp\ccRejSya.s 			page 15


 799              	.LBB508:
 800              	.LBB486:
 801              	.LBB466:
 802              	.LBB458:
 803              	.LBB455:
 804              	.LBB453:
 805              	.LBI450:
 806              		.loc 6 544 57 view .LVU251
 807              	.LBB452:
 808              		.loc 6 546 3 view .LVU252
 809 0194 009B     		ldr	r3, [sp]
 810              		.syntax unified
 811              	@ 546 "src/ChibiOS_3.0.2/os/ext/CMSIS/include/core_cmFunc.h" 1
 812 0196 83F31188 		MSR basepri, r3
 813              	@ 0 "" 2
 814              	.LVL58:
 815              		.loc 6 546 3 is_stmt 0 view .LVU253
 816              		.thumb
 817              		.syntax unified
 818              	.LBE452:
 819              	.LBE453:
 820              	.LBE455:
 821              	.LBE458:
 822              	.LBE466:
 823              	.LBE486:
 824              	.LBE508:
 825              	.LBE519:
 826              	.LBE556:
 827              	.LBE742:
 828              		.loc 4 349 34 is_stmt 1 view .LVU254
 829              		.loc 4 350 20 view .LVU255
 830              	.LBB743:
 831              	.LBB557:
 832              	.LBB520:
 833              	.LBB509:
 834              	.LBB487:
 835              		.loc 1 421 3 view .LVU256
 836              		.loc 1 421 18 is_stmt 0 view .LVU257
 837 019a 8368     		ldr	r3, [r0, #8]
 838 019c 2344     		add	r3, r3, r4
 839 019e 8360     		str	r3, [r0, #8]
 840              		.loc 1 422 3 is_stmt 1 view .LVU258
 841              	.LVL59:
 842              	.LBB467:
 843              	.LBI467:
 844              		.loc 3 808 20 view .LVU259
 845              	.LBB468:
 846              		.loc 3 810 3 view .LVU260
 847 01a0 0021     		movs	r1, #0
 848 01a2 FFF7FEFF 		bl	chThdDequeueAllI
 849              	.LVL60:
 850              		.loc 3 810 3 is_stmt 0 view .LVU261
 851              	.LBE468:
 852              	.LBE467:
 853              		.loc 1 423 3 is_stmt 1 view .LVU262
 854              	.LBB469:
 855              	.LBI469:
ARM GAS  C:\Users\USER\AppData\Local\Temp\ccRejSya.s 			page 16


 856              		.loc 3 598 20 view .LVU263
 857              	.LBB470:
 858              		.loc 3 600 3 view .LVU264
 859 01a6 FFF7FEFF 		bl	chSchRescheduleS
 860              	.LVL61:
 861              	.LBE470:
 862              	.LBE469:
 863              		.loc 1 424 3 view .LVU265
 864              	.LBB471:
 865              	.LBI471:
 866              		.loc 3 502 20 view .LVU266
 867              	.LBE471:
 868              	.LBE487:
 869              	.LBE509:
 870              	.LBE520:
 871              	.LBE557:
 872              	.LBE743:
 873              		.loc 3 504 3 view .LVU267
 874              	.LBB744:
 875              	.LBB558:
 876              	.LBB521:
 877              	.LBB510:
 878              	.LBB488:
 879              	.LBB480:
 880              	.LBB472:
 881              	.LBI472:
 882              		.loc 4 358 20 view .LVU268
 883              	.LBB473:
 884              		.loc 4 360 22 view .LVU269
 885              		.loc 4 361 33 view .LVU270
 886              		.loc 4 367 3 view .LVU271
 887              		.loc 4 367 3 view .LVU272
 888              		.loc 4 371 3 view .LVU273
 889              	.LBB474:
 890              	.LBI474:
 891              		.loc 5 458 20 view .LVU274
 892              	.LBE474:
 893              	.LBE473:
 894              	.LBE472:
 895              	.LBE480:
 896              	.LBE488:
 897              	.LBE510:
 898              	.LBE521:
 899              	.LBE558:
 900              	.LBE744:
 901              		.loc 5 461 3 view .LVU275
 902              	.LBB745:
 903              	.LBB559:
 904              	.LBB522:
 905              	.LBB511:
 906              	.LBB489:
 907              	.LBB481:
 908              	.LBB479:
 909              	.LBB478:
 910              	.LBB477:
 911              	.LBB475:
 912              	.LBI475:
ARM GAS  C:\Users\USER\AppData\Local\Temp\ccRejSya.s 			page 17


 913              		.loc 6 544 57 view .LVU276
 914              	.LBB476:
 915              		.loc 6 546 3 view .LVU277
 916 01aa 0023     		movs	r3, #0
 917              		.syntax unified
 918              	@ 546 "src/ChibiOS_3.0.2/os/ext/CMSIS/include/core_cmFunc.h" 1
 919 01ac 83F31188 		MSR basepri, r3
 920              	@ 0 "" 2
 921              	.LVL62:
 922              		.loc 6 546 3 is_stmt 0 view .LVU278
 923              		.thumb
 924              		.syntax unified
 925 01b0 F368     		ldr	r3, [r6, #12]
 926 01b2 9F69     		ldr	r7, [r3, #24]
 927 01b4 D7F808E0 		ldr	lr, [r7, #8]
 928 01b8 A0E7     		b	.L18
 929              	.LVL63:
 930              	.L91:
 931              		.loc 6 546 3 view .LVU279
 932              	.LBE476:
 933              	.LBE475:
 934              	.LBE477:
 935              	.LBE478:
 936              	.LBE479:
 937              	.LBE481:
 938              	.LBE489:
 939              	.LBE511:
 940              	.LBE522:
 941              	.LBE559:
 942              	.LBB560:
 943              		.loc 1 1324 9 is_stmt 1 view .LVU280
 944              		.loc 1 1326 9 view .LVU281
 945              	.LBB561:
 946              	.LBI561:
 947              		.loc 3 491 20 view .LVU282
 948              	.LBE561:
 949              	.LBE560:
 950              	.LBE745:
 951              		.loc 3 493 3 view .LVU283
 952              	.LBB746:
 953              	.LBB704:
 954              	.LBB569:
 955              	.LBB562:
 956              	.LBI562:
 957              		.loc 4 346 20 view .LVU284
 958              	.LBE562:
 959              	.LBE569:
 960              	.LBE704:
 961              	.LBE746:
 962              		.loc 4 348 3 view .LVU285
 963              	.LBB747:
 964              	.LBB705:
 965              	.LBB570:
 966              	.LBB567:
 967              	.LBB563:
 968              	.LBI563:
 969              		.loc 5 444 20 view .LVU286
ARM GAS  C:\Users\USER\AppData\Local\Temp\ccRejSya.s 			page 18


 970              	.LBE563:
 971              	.LBE567:
 972              	.LBE570:
 973              	.LBE705:
 974              	.LBE747:
 975              		.loc 5 447 3 view .LVU287
 976              	.LBB748:
 977              	.LBB706:
 978              	.LBB571:
 979              	.LBB568:
 980              	.LBB566:
 981              	.LBB564:
 982              	.LBI564:
 983              		.loc 6 544 57 view .LVU288
 984              	.LBB565:
 985              		.loc 6 546 3 view .LVU289
 986 01ba 009A     		ldr	r2, [sp]
 987              		.syntax unified
 988              	@ 546 "src/ChibiOS_3.0.2/os/ext/CMSIS/include/core_cmFunc.h" 1
 989 01bc 82F31188 		MSR basepri, r2
 990              	@ 0 "" 2
 991              	.LVL64:
 992              		.loc 6 546 3 is_stmt 0 view .LVU290
 993              		.thumb
 994              		.syntax unified
 995              	.LBE565:
 996              	.LBE564:
 997              	.LBE566:
 998              	.LBE568:
 999              	.LBE571:
 1000              	.LBE706:
 1001              	.LBE748:
 1002              		.loc 4 349 34 is_stmt 1 view .LVU291
 1003              		.loc 4 350 20 view .LVU292
 1004              	.LBB749:
 1005              	.LBB707:
 1006              		.loc 1 1334 9 view .LVU293
 1007              		.loc 1 1334 23 is_stmt 0 view .LVU294
 1008 01c0 D9F80810 		ldr	r1, [r9, #8]
 1009              	.LVL65:
 1010              		.loc 1 1335 25 view .LVU295
 1011 01c4 EA6D     		ldr	r2, [r5, #92]
 1012 01c6 0298     		ldr	r0, [sp, #8]
 1013              		.loc 1 1334 23 view .LVU296
 1014 01c8 21F00101 		bic	r1, r1, #1
 1015              		.loc 1 1335 25 view .LVU297
 1016 01cc 22EA0002 		bic	r2, r2, r0
 1017              		.loc 1 1334 23 view .LVU298
 1018 01d0 C9F80810 		str	r1, [r9, #8]
 1019              		.loc 1 1335 9 is_stmt 1 view .LVU299
 1020              		.loc 1 1335 25 is_stmt 0 view .LVU300
 1021 01d4 EA65     		str	r2, [r5, #92]
 1022              		.loc 1 1336 9 is_stmt 1 view .LVU301
 1023              	.LBB572:
 1024              	.LBI572:
 1025              		.loc 3 502 20 view .LVU302
 1026              	.LBE572:
ARM GAS  C:\Users\USER\AppData\Local\Temp\ccRejSya.s 			page 19


 1027              	.LBE707:
 1028              	.LBE749:
 1029              		.loc 3 504 3 view .LVU303
 1030              	.LBB750:
 1031              	.LBB708:
 1032              	.LBB581:
 1033              	.LBB573:
 1034              	.LBI573:
 1035              		.loc 4 358 20 view .LVU304
 1036              	.LBB574:
 1037              		.loc 4 360 22 view .LVU305
 1038              		.loc 4 361 33 view .LVU306
 1039              		.loc 4 367 3 view .LVU307
 1040              		.loc 4 367 3 view .LVU308
 1041              		.loc 4 371 3 view .LVU309
 1042              	.LBB575:
 1043              	.LBI575:
 1044              		.loc 5 458 20 view .LVU310
 1045              	.LBE575:
 1046              	.LBE574:
 1047              	.LBE573:
 1048              	.LBE581:
 1049              	.LBE708:
 1050              	.LBE750:
 1051              		.loc 5 461 3 view .LVU311
 1052              	.LVL66:
 1053              	.LBB751:
 1054              	.LBB709:
 1055              	.LBB582:
 1056              	.LBB580:
 1057              	.LBB579:
 1058              	.LBB578:
 1059              	.LBB576:
 1060              	.LBI576:
 1061              		.loc 6 544 57 view .LVU312
 1062              	.LBB577:
 1063              		.loc 6 546 3 view .LVU313
 1064              		.syntax unified
 1065              	@ 546 "src/ChibiOS_3.0.2/os/ext/CMSIS/include/core_cmFunc.h" 1
 1066 01d6 83F31188 		MSR basepri, r3
 1067              	@ 0 "" 2
 1068              	.LVL67:
 1069              		.loc 6 546 3 is_stmt 0 view .LVU314
 1070              		.thumb
 1071              		.syntax unified
 1072              	.LBE577:
 1073              	.LBE576:
 1074              	.LBE578:
 1075              	.LBE579:
 1076              	.LBE580:
 1077              	.LBE582:
 1078              		.loc 1 1338 9 is_stmt 1 view .LVU315
 1079              	.LBB583:
 1080              	.LBI583:
 1081              		.loc 1 481 13 view .LVU316
 1082              	.LBE583:
 1083              	.LBE709:
ARM GAS  C:\Users\USER\AppData\Local\Temp\ccRejSya.s 			page 20


 1084              	.LBE751:
 1085              		.loc 1 484 3 view .LVU317
 1086              	.LBB752:
 1087              	.LBB710:
 1088              	.LBB651:
 1089              	.LBB584:
 1090              		.loc 1 485 5 view .LVU318
 1091              		.loc 1 488 5 view .LVU319
 1092 01da 05EB8A07 		add	r7, r5, r10, lsl #2
 1093              		.loc 1 488 18 is_stmt 0 view .LVU320
 1094 01de F968     		ldr	r1, [r7, #12]
 1095              		.loc 1 488 22 view .LVU321
 1096 01e0 4A69     		ldr	r2, [r1, #20]
 1097              		.loc 1 488 66 view .LVU322
 1098 01e2 D2E90130 		ldrd	r3, r0, [r2, #4]
 1099              		.loc 1 488 8 view .LVU323
 1100 01e6 9842     		cmp	r0, r3
 1101 01e8 80F0C080 		bcs	.L104
 1102              		.loc 1 492 5 is_stmt 1 view .LVU324
 1103              		.loc 1 498 15 is_stmt 0 view .LVU325
 1104 01ec D5F850E0 		ldr	lr, [r5, #80]
 1105              		.loc 1 493 26 view .LVU326
 1106 01f0 0C8A     		ldrh	r4, [r1, #16]
 1107              		.loc 1 498 28 view .LVU327
 1108 01f2 4FEA4A18 		lsl	r8, r10, #5
 1109 01f6 0EEB0806 		add	r6, lr, r8
 1110              		.loc 1 492 7 view .LVU328
 1111 01fa 1B1A     		subs	r3, r3, r0
 1112              	.LVL68:
 1113              		.loc 1 493 5 is_stmt 1 view .LVU329
 1114              		.loc 1 498 28 is_stmt 0 view .LVU330
 1115 01fc D6F81809 		ldr	r0, [r6, #2328]
 1116 0200 9C42     		cmp	r4, r3
 1117 0202 28BF     		it	cs
 1118 0204 1C46     		movcs	r4, r3
 1119              	.LVL69:
 1120              		.loc 1 498 5 is_stmt 1 view .LVU331
 1121              		.loc 1 498 37 is_stmt 0 view .LVU332
 1122 0206 83B2     		uxth	r3, r0
 1123              		.loc 1 498 8 view .LVU333
 1124 0208 B4EB830F 		cmp	r4, r3, lsl #2
 1125 020c 00F2A180 		bhi	.L27
 1126 0210 0AF10103 		add	r3, r10, #1
 1127 0214 0193     		str	r3, [sp, #4]
 1128 0216 1B03     		lsls	r3, r3, #12
 1129 0218 9B46     		mov	fp, r3
 1130              	.L28:
 1131              		.loc 1 505 5 is_stmt 1 view .LVU334
 1132              		.loc 1 505 8 is_stmt 0 view .LVU335
 1133 021a 1378     		ldrb	r3, [r2]	@ zero_extendqisi2
 1134 021c D068     		ldr	r0, [r2, #12]
 1135 021e 0EEB0B0C 		add	ip, lr, fp
 1136 0222 002B     		cmp	r3, #0
 1137 0224 7FD0     		beq	.L31
 1138              		.loc 1 507 7 is_stmt 1 view .LVU336
 1139              	.LVL70:
 1140              	.LBB585:
ARM GAS  C:\Users\USER\AppData\Local\Temp\ccRejSya.s 			page 21


 1141              	.LBI585:
 1142              		.loc 1 268 13 view .LVU337
 1143              	.LBB586:
 1144              		.loc 1 271 3 view .LVU338
 1145              		.loc 1 273 3 view .LVU339
 1146              		.loc 1 274 3 view .LVU340
 1147              		.loc 1 274 9 is_stmt 0 view .LVU341
 1148 0226 14B3     		cbz	r4, .L40
 1149 0228 D0F810E0 		ldr	lr, [r0, #16]
 1150              		.loc 1 274 9 view .LVU342
 1151 022c 2246     		mov	r2, r4
 1152              	.LVL71:
 1153              		.loc 1 274 9 view .LVU343
 1154 022e A246     		mov	r10, r4
 1155              	.LVL72:
 1156              	.L44:
 1157              	.LBB587:
 1158              		.loc 1 275 5 is_stmt 1 view .LVU344
 1159              		.loc 1 276 5 view .LVU345
 1160              		.loc 1 278 5 view .LVU346
 1161              		.loc 1 278 8 is_stmt 0 view .LVU347
 1162 0230 032A     		cmp	r2, #3
 1163 0232 8369     		ldr	r3, [r0, #24]
 1164 0234 5DD9     		bls	.L34
 1165              	.LBB588:
 1166              		.loc 1 279 7 is_stmt 1 view .LVU348
 1167              		.loc 1 280 7 view .LVU349
 1168              	.LVL73:
 1169              		.loc 1 282 7 view .LVU350
 1170              		.loc 1 280 53 is_stmt 0 view .LVU351
 1171 0236 BEEB0301 		subs	r1, lr, r3
 1172 023a 48BF     		it	mi
 1173 023c 0331     		addmi	r1, r1, #3
 1174              	.LBE588:
 1175              		.loc 1 276 12 view .LVU352
 1176 023e 9608     		lsrs	r6, r2, #2
 1177              	.LVL74:
 1178              	.LBB593:
 1179              		.loc 1 280 53 view .LVU353
 1180 0240 8910     		asrs	r1, r1, #2
 1181              		.loc 1 282 24 view .LVU354
 1182 0242 B142     		cmp	r1, r6
 1183 0244 28BF     		it	cs
 1184 0246 3146     		movcs	r1, r6
 1185              	.LVL75:
 1186              		.loc 1 282 54 view .LVU355
 1187 0248 8E00     		lsls	r6, r1, #2
 1188              	.LVL76:
 1189              		.loc 1 282 13 view .LVU356
 1190 024a 921B     		subs	r2, r2, r6
 1191              	.LVL77:
 1192              		.loc 1 283 7 is_stmt 1 view .LVU357
 1193              	.LBB589:
 1194              	.LBI589:
 1195              		.loc 1 231 17 view .LVU358
 1196              	.LBB590:
 1197              		.loc 1 233 3 view .LVU359
ARM GAS  C:\Users\USER\AppData\Local\Temp\ccRejSya.s 			page 22


 1198              		.loc 1 233 9 is_stmt 0 view .LVU360
 1199 024c 0029     		cmp	r1, #0
 1200 024e 7CD0     		beq	.L56
 1201 0250 1E44     		add	r6, r6, r3
 1202              	.LVL78:
 1203              	.L37:
 1204              		.loc 1 236 5 is_stmt 1 view .LVU361
 1205              		.loc 1 236 14 is_stmt 0 view .LVU362
 1206 0252 53F8041B 		ldr	r1, [r3], #4
 1207              	.LVL79:
 1208              		.loc 1 236 12 view .LVU363
 1209 0256 CCF80010 		str	r1, [ip]
 1210              		.loc 1 237 5 is_stmt 1 view .LVU364
 1211              	.LVL80:
 1212              		.loc 1 238 5 view .LVU365
 1213              		.loc 1 233 9 is_stmt 0 view .LVU366
 1214 025a B342     		cmp	r3, r6
 1215 025c F9D1     		bne	.L37
 1216              	.LVL81:
 1217              	.L36:
 1218              		.loc 1 240 3 is_stmt 1 view .LVU367
 1219              		.loc 1 240 3 is_stmt 0 view .LVU368
 1220              	.LBE590:
 1221              	.LBE589:
 1222              		.loc 1 284 10 view .LVU369
 1223 025e B645     		cmp	lr, r6
 1224              		.loc 1 283 20 view .LVU370
 1225 0260 8661     		str	r6, [r0, #24]
 1226              	.LVL82:
 1227              		.loc 1 284 7 is_stmt 1 view .LVU371
 1228              		.loc 1 284 10 is_stmt 0 view .LVU372
 1229 0262 43D8     		bhi	.L38
 1230              		.loc 1 285 9 is_stmt 1 view .LVU373
 1231              		.loc 1 285 22 is_stmt 0 view .LVU374
 1232 0264 C368     		ldr	r3, [r0, #12]
 1233 0266 8361     		str	r3, [r0, #24]
 1234              		.loc 1 286 9 is_stmt 1 view .LVU375
 1235              		.loc 1 286 9 is_stmt 0 view .LVU376
 1236              	.LBE593:
 1237              	.LBE587:
 1238              		.loc 1 274 9 view .LVU377
 1239 0268 002A     		cmp	r2, #0
 1240 026a E1D1     		bne	.L44
 1241              	.L95:
 1242              		.loc 1 274 9 view .LVU378
 1243 026c 5446     		mov	r4, r10
 1244              	.LVL83:
 1245              	.L40:
 1246              		.loc 1 309 3 is_stmt 1 view .LVU379
 1247              	.LBB595:
 1248              	.LBI595:
 1249              		.loc 3 491 20 view .LVU380
 1250              	.LBE595:
 1251              	.LBE586:
 1252              	.LBE585:
 1253              	.LBE584:
 1254              	.LBE651:
ARM GAS  C:\Users\USER\AppData\Local\Temp\ccRejSya.s 			page 23


 1255              	.LBE710:
 1256              	.LBE752:
 1257              		.loc 3 493 3 view .LVU381
 1258              	.LBB753:
 1259              	.LBB711:
 1260              	.LBB652:
 1261              	.LBB643:
 1262              	.LBB631:
 1263              	.LBB623:
 1264              	.LBB603:
 1265              	.LBB596:
 1266              	.LBI596:
 1267              		.loc 4 346 20 view .LVU382
 1268              	.LBE596:
 1269              	.LBE603:
 1270              	.LBE623:
 1271              	.LBE631:
 1272              	.LBE643:
 1273              	.LBE652:
 1274              	.LBE711:
 1275              	.LBE753:
 1276              		.loc 4 348 3 view .LVU383
 1277              	.LBB754:
 1278              	.LBB712:
 1279              	.LBB653:
 1280              	.LBB644:
 1281              	.LBB632:
 1282              	.LBB624:
 1283              	.LBB604:
 1284              	.LBB601:
 1285              	.LBB597:
 1286              	.LBI597:
 1287              		.loc 5 444 20 view .LVU384
 1288              	.LBE597:
 1289              	.LBE601:
 1290              	.LBE604:
 1291              	.LBE624:
 1292              	.LBE632:
 1293              	.LBE644:
 1294              	.LBE653:
 1295              	.LBE712:
 1296              	.LBE754:
 1297              		.loc 5 447 3 view .LVU385
 1298              	.LBB755:
 1299              	.LBB713:
 1300              	.LBB654:
 1301              	.LBB645:
 1302              	.LBB633:
 1303              	.LBB625:
 1304              	.LBB605:
 1305              	.LBB602:
 1306              	.LBB600:
 1307              	.LBB598:
 1308              	.LBI598:
 1309              		.loc 6 544 57 view .LVU386
 1310              	.LBB599:
 1311              		.loc 6 546 3 view .LVU387
ARM GAS  C:\Users\USER\AppData\Local\Temp\ccRejSya.s 			page 24


 1312 026e 009B     		ldr	r3, [sp]
 1313              		.syntax unified
 1314              	@ 546 "src/ChibiOS_3.0.2/os/ext/CMSIS/include/core_cmFunc.h" 1
 1315 0270 83F31188 		MSR basepri, r3
 1316              	@ 0 "" 2
 1317              	.LVL84:
 1318              		.loc 6 546 3 is_stmt 0 view .LVU388
 1319              		.thumb
 1320              		.syntax unified
 1321              	.LBE599:
 1322              	.LBE598:
 1323              	.LBE600:
 1324              	.LBE602:
 1325              	.LBE605:
 1326              	.LBE625:
 1327              	.LBE633:
 1328              	.LBE645:
 1329              	.LBE654:
 1330              	.LBE713:
 1331              	.LBE755:
 1332              		.loc 4 349 34 is_stmt 1 view .LVU389
 1333              		.loc 4 350 20 view .LVU390
 1334              	.LBB756:
 1335              	.LBB714:
 1336              	.LBB655:
 1337              	.LBB646:
 1338              	.LBB634:
 1339              	.LBB626:
 1340              		.loc 1 310 3 view .LVU391
 1341              		.loc 1 310 18 is_stmt 0 view .LVU392
 1342 0274 8368     		ldr	r3, [r0, #8]
 1343 0276 2344     		add	r3, r3, r4
 1344 0278 8360     		str	r3, [r0, #8]
 1345              		.loc 1 311 3 is_stmt 1 view .LVU393
 1346              	.LVL85:
 1347              	.LBB606:
 1348              	.LBI606:
 1349              		.loc 3 808 20 view .LVU394
 1350              	.LBB607:
 1351              		.loc 3 810 3 view .LVU395
 1352 027a 0021     		movs	r1, #0
 1353 027c FFF7FEFF 		bl	chThdDequeueAllI
 1354              	.LVL86:
 1355              		.loc 3 810 3 is_stmt 0 view .LVU396
 1356              	.LBE607:
 1357              	.LBE606:
 1358              		.loc 1 312 3 is_stmt 1 view .LVU397
 1359              	.LBB608:
 1360              	.LBI608:
 1361              		.loc 3 598 20 view .LVU398
 1362              	.LBB609:
 1363              		.loc 3 600 3 view .LVU399
 1364 0280 FFF7FEFF 		bl	chSchRescheduleS
 1365              	.LVL87:
 1366              	.LBE609:
 1367              	.LBE608:
 1368              		.loc 1 313 3 view .LVU400
ARM GAS  C:\Users\USER\AppData\Local\Temp\ccRejSya.s 			page 25


 1369              	.LBB610:
 1370              	.LBI610:
 1371              		.loc 3 502 20 view .LVU401
 1372              	.LBE610:
 1373              	.LBE626:
 1374              	.LBE634:
 1375              	.LBE646:
 1376              	.LBE655:
 1377              	.LBE714:
 1378              	.LBE756:
 1379              		.loc 3 504 3 view .LVU402
 1380              	.LBB757:
 1381              	.LBB715:
 1382              	.LBB656:
 1383              	.LBB647:
 1384              	.LBB635:
 1385              	.LBB627:
 1386              	.LBB619:
 1387              	.LBB611:
 1388              	.LBI611:
 1389              		.loc 4 358 20 view .LVU403
 1390              	.LBB612:
 1391              		.loc 4 360 22 view .LVU404
 1392              		.loc 4 361 33 view .LVU405
 1393              		.loc 4 367 3 view .LVU406
 1394              		.loc 4 367 3 view .LVU407
 1395              		.loc 4 371 3 view .LVU408
 1396              	.LBB613:
 1397              	.LBI613:
 1398              		.loc 5 458 20 view .LVU409
 1399              	.LBE613:
 1400              	.LBE612:
 1401              	.LBE611:
 1402              	.LBE619:
 1403              	.LBE627:
 1404              	.LBE635:
 1405              	.LBE647:
 1406              	.LBE656:
 1407              	.LBE715:
 1408              	.LBE757:
 1409              		.loc 5 461 3 view .LVU410
 1410              	.LBB758:
 1411              	.LBB716:
 1412              	.LBB657:
 1413              	.LBB648:
 1414              	.LBB636:
 1415              	.LBB628:
 1416              	.LBB620:
 1417              	.LBB618:
 1418              	.LBB617:
 1419              	.LBB616:
 1420              	.LBB614:
 1421              	.LBI614:
 1422              		.loc 6 544 57 view .LVU411
 1423              	.LBB615:
 1424              		.loc 6 546 3 view .LVU412
 1425 0284 0023     		movs	r3, #0
ARM GAS  C:\Users\USER\AppData\Local\Temp\ccRejSya.s 			page 26


 1426              		.syntax unified
 1427              	@ 546 "src/ChibiOS_3.0.2/os/ext/CMSIS/include/core_cmFunc.h" 1
 1428 0286 83F31188 		MSR basepri, r3
 1429              	@ 0 "" 2
 1430              	.LVL88:
 1431              		.loc 6 546 3 is_stmt 0 view .LVU413
 1432              		.thumb
 1433              		.syntax unified
 1434 028a F968     		ldr	r1, [r7, #12]
 1435              	.LVL89:
 1436              	.L33:
 1437              		.loc 6 546 3 view .LVU414
 1438              	.LBE615:
 1439              	.LBE614:
 1440              	.LBE616:
 1441              	.LBE617:
 1442              	.LBE618:
 1443              	.LBE620:
 1444              	.LBE628:
 1445              	.LBE636:
 1446              		.loc 1 521 5 is_stmt 1 view .LVU415
 1447              		.loc 1 521 18 is_stmt 0 view .LVU416
 1448 028c 4A69     		ldr	r2, [r1, #20]
 1449              		.loc 1 488 66 view .LVU417
 1450 028e D2E90103 		ldrd	r0, r3, [r2, #4]
 1451              		.loc 1 521 36 view .LVU418
 1452 0292 1C44     		add	r4, r4, r3
 1453              	.LVL90:
 1454              		.loc 1 488 8 view .LVU419
 1455 0294 A042     		cmp	r0, r4
 1456              		.loc 1 521 36 view .LVU420
 1457 0296 9460     		str	r4, [r2, #8]
 1458              	.LBE648:
 1459              	.LBE657:
 1460              	.LBE716:
 1461              	.LBE758:
 1462              		.loc 1 484 3 is_stmt 1 view .LVU421
 1463              	.LBB759:
 1464              	.LBB717:
 1465              	.LBB658:
 1466              	.LBB649:
 1467              		.loc 1 485 5 view .LVU422
 1468              		.loc 1 488 5 view .LVU423
 1469              		.loc 1 488 8 is_stmt 0 view .LVU424
 1470 0298 59D9     		bls	.L105
 1471              		.loc 1 492 5 is_stmt 1 view .LVU425
 1472              		.loc 1 498 15 is_stmt 0 view .LVU426
 1473 029a D5F850E0 		ldr	lr, [r5, #80]
 1474              		.loc 1 493 26 view .LVU427
 1475 029e B1F810C0 		ldrh	ip, [r1, #16]
 1476              		.loc 1 498 28 view .LVU428
 1477 02a2 0EEB080A 		add	r10, lr, r8
 1478              		.loc 1 492 7 view .LVU429
 1479 02a6 041B     		subs	r4, r0, r4
 1480              	.LVL91:
 1481              		.loc 1 493 5 is_stmt 1 view .LVU430
 1482              		.loc 1 498 28 is_stmt 0 view .LVU431
ARM GAS  C:\Users\USER\AppData\Local\Temp\ccRejSya.s 			page 27


 1483 02a8 DAF81839 		ldr	r3, [r10, #2328]
 1484 02ac 6445     		cmp	r4, ip
 1485 02ae 28BF     		it	cs
 1486 02b0 6446     		movcs	r4, ip
 1487              	.LVL92:
 1488              		.loc 1 498 5 is_stmt 1 view .LVU432
 1489              		.loc 1 498 37 is_stmt 0 view .LVU433
 1490 02b2 9BB2     		uxth	r3, r3
 1491              		.loc 1 498 8 view .LVU434
 1492 02b4 B4EB830F 		cmp	r4, r3, lsl #2
 1493 02b8 AFD9     		bls	.L28
 1494              		.loc 1 499 14 view .LVU435
 1495 02ba 0022     		movs	r2, #0
 1496              	.LVL93:
 1497              	.L30:
 1498              		.loc 1 499 14 view .LVU436
 1499              	.LBE649:
 1500              	.LBE658:
 1501              		.loc 1 1340 9 is_stmt 1 view .LVU437
 1502              	.LBB659:
 1503              	.LBI659:
 1504              		.loc 3 491 20 view .LVU438
 1505              	.LBE659:
 1506              	.LBE717:
 1507              	.LBE759:
 1508              		.loc 3 493 3 view .LVU439
 1509              	.LBB760:
 1510              	.LBB718:
 1511              	.LBB681:
 1512              	.LBB660:
 1513              	.LBI660:
 1514              		.loc 4 346 20 view .LVU440
 1515              	.LBE660:
 1516              	.LBE681:
 1517              	.LBE718:
 1518              	.LBE760:
 1519              		.loc 4 348 3 view .LVU441
 1520              	.LBB761:
 1521              	.LBB719:
 1522              	.LBB682:
 1523              	.LBB673:
 1524              	.LBB661:
 1525              	.LBI661:
 1526              		.loc 5 444 20 view .LVU442
 1527              	.LBE661:
 1528              	.LBE673:
 1529              	.LBE682:
 1530              	.LBE719:
 1531              	.LBE761:
 1532              		.loc 5 447 3 view .LVU443
 1533              	.LBB762:
 1534              	.LBB720:
 1535              	.LBB683:
 1536              	.LBB674:
 1537              	.LBB668:
 1538              	.LBB662:
 1539              	.LBI662:
ARM GAS  C:\Users\USER\AppData\Local\Temp\ccRejSya.s 			page 28


 1540              		.loc 6 544 57 view .LVU444
 1541              	.LBB663:
 1542              		.loc 6 546 3 view .LVU445
 1543 02bc 009B     		ldr	r3, [sp]
 1544              		.syntax unified
 1545              	@ 546 "src/ChibiOS_3.0.2/os/ext/CMSIS/include/core_cmFunc.h" 1
 1546 02be 83F31188 		MSR basepri, r3
 1547              	@ 0 "" 2
 1548              	.LVL94:
 1549              		.loc 6 546 3 is_stmt 0 view .LVU446
 1550              		.thumb
 1551              		.syntax unified
 1552              	.LBE663:
 1553              	.LBE662:
 1554              	.LBE668:
 1555              	.LBE674:
 1556              	.LBE683:
 1557              	.LBE720:
 1558              	.LBE762:
 1559              		.loc 4 349 34 is_stmt 1 view .LVU447
 1560              		.loc 4 350 20 view .LVU448
 1561              	.LBB763:
 1562              	.LBB721:
 1563              		.loc 1 1341 9 view .LVU449
 1564              		.loc 1 1341 23 is_stmt 0 view .LVU450
 1565 02c2 D9F80830 		ldr	r3, [r9, #8]
 1566 02c6 43F00103 		orr	r3, r3, #1
 1567 02ca C9F80830 		str	r3, [r9, #8]
 1568              		.loc 1 1342 9 is_stmt 1 view .LVU451
 1569              		.loc 1 1342 12 is_stmt 0 view .LVU452
 1570 02ce 2AB9     		cbnz	r2, .L26
 1571              	.LVL95:
 1572              	.L29:
 1573              		.loc 1 1343 11 is_stmt 1 view .LVU453
 1574              		.loc 1 1343 28 is_stmt 0 view .LVU454
 1575 02d0 D9F83438 		ldr	r3, [r9, #2100]
 1576 02d4 029A     		ldr	r2, [sp, #8]
 1577 02d6 1343     		orrs	r3, r3, r2
 1578 02d8 C9F83438 		str	r3, [r9, #2100]
 1579              	.L26:
 1580              		.loc 1 1344 9 is_stmt 1 view .LVU455
 1581              	.LBB684:
 1582              	.LBI684:
 1583              		.loc 3 502 20 view .LVU456
 1584              	.LBE684:
 1585              	.LBE721:
 1586              	.LBE763:
 1587              		.loc 3 504 3 view .LVU457
 1588              	.LBB764:
 1589              	.LBB722:
 1590              	.LBB693:
 1591              	.LBB685:
 1592              	.LBI685:
 1593              		.loc 4 358 20 view .LVU458
 1594              	.LBB686:
 1595              		.loc 4 360 22 view .LVU459
 1596              		.loc 4 361 33 view .LVU460
ARM GAS  C:\Users\USER\AppData\Local\Temp\ccRejSya.s 			page 29


 1597              		.loc 4 367 3 view .LVU461
 1598              		.loc 4 367 3 view .LVU462
 1599              		.loc 4 371 3 view .LVU463
 1600              	.LBB687:
 1601              	.LBI687:
 1602              		.loc 5 458 20 view .LVU464
 1603              	.LBE687:
 1604              	.LBE686:
 1605              	.LBE685:
 1606              	.LBE693:
 1607              	.LBE722:
 1608              	.LBE764:
 1609              		.loc 5 461 3 view .LVU465
 1610              	.LVL96:
 1611              	.LBB765:
 1612              	.LBB723:
 1613              	.LBB694:
 1614              	.LBB692:
 1615              	.LBB691:
 1616              	.LBB690:
 1617              	.LBB688:
 1618              	.LBI688:
 1619              		.loc 6 544 57 view .LVU466
 1620              	.LBB689:
 1621              		.loc 6 546 3 view .LVU467
 1622 02dc 0023     		movs	r3, #0
 1623              		.syntax unified
 1624              	@ 546 "src/ChibiOS_3.0.2/os/ext/CMSIS/include/core_cmFunc.h" 1
 1625 02de 83F31188 		MSR basepri, r3
 1626              	@ 0 "" 2
 1627              	.LVL97:
 1628              		.loc 6 546 3 is_stmt 0 view .LVU468
 1629              		.thumb
 1630              		.syntax unified
 1631 02e2 1CE7     		b	.L24
 1632              	.L107:
 1633              		.align	2
 1634              	.L106:
 1635 02e4 00000000 		.word	ch
 1636 02e8 00000000 		.word	.LC0
 1637              	.LVL98:
 1638              	.L38:
 1639              		.loc 6 546 3 view .LVU469
 1640              	.LBE689:
 1641              	.LBE688:
 1642              	.LBE690:
 1643              	.LBE691:
 1644              	.LBE692:
 1645              	.LBE694:
 1646              	.LBB695:
 1647              	.LBB650:
 1648              	.LBB637:
 1649              	.LBB629:
 1650              	.LBB621:
 1651              		.loc 1 292 5 is_stmt 1 view .LVU470
 1652              		.loc 1 292 8 is_stmt 0 view .LVU471
 1653 02ec 002A     		cmp	r2, #0
ARM GAS  C:\Users\USER\AppData\Local\Temp\ccRejSya.s 			page 30


 1654 02ee BDD0     		beq	.L95
 1655 02f0 3346     		mov	r3, r6
 1656              	.L34:
 1657              		.loc 1 292 8 view .LVU472
 1658 02f2 0021     		movs	r1, #0
 1659 02f4 0E46     		mov	r6, r1
 1660              	.L43:
 1661              	.LVL99:
 1662              		.loc 1 299 7 is_stmt 1 view .LVU473
 1663              		.loc 1 301 9 view .LVU474
 1664              		.loc 1 302 7 view .LVU475
 1665              		.loc 1 303 7 view .LVU476
 1666              		.loc 1 299 35 is_stmt 0 view .LVU477
 1667 02f6 5C1C     		adds	r4, r3, #1
 1668 02f8 8461     		str	r4, [r0, #24]
 1669              		.loc 1 299 12 view .LVU478
 1670 02fa 1B78     		ldrb	r3, [r3]	@ zero_extendqisi2
 1671              		.loc 1 300 10 view .LVU479
 1672 02fc A645     		cmp	lr, r4
 1673              		.loc 1 299 38 view .LVU480
 1674 02fe 03FA01F3 		lsl	r3, r3, r1
 1675              		.loc 1 299 9 view .LVU481
 1676 0302 46EA0306 		orr	r6, r6, r3
 1677              	.LVL100:
 1678              		.loc 1 301 22 view .LVU482
 1679 0306 9CBF     		itt	ls
 1680 0308 C368     		ldrls	r3, [r0, #12]
 1681 030a 8361     		strls	r3, [r0, #24]
 1682              		.loc 1 298 11 view .LVU483
 1683 030c 013A     		subs	r2, r2, #1
 1684              	.LVL101:
 1685              		.loc 1 299 9 view .LVU484
 1686 030e 01F10801 		add	r1, r1, #8
 1687              	.LVL102:
 1688              		.loc 1 300 7 is_stmt 1 view .LVU485
 1689              		.loc 1 298 11 is_stmt 0 view .LVU486
 1690 0312 03D0     		beq	.L42
 1691              		.loc 1 298 24 view .LVU487
 1692 0314 2029     		cmp	r1, #32
 1693 0316 01D0     		beq	.L42
 1694 0318 8369     		ldr	r3, [r0, #24]
 1695 031a ECE7     		b	.L43
 1696              	.L42:
 1697              		.loc 1 305 5 is_stmt 1 view .LVU488
 1698              		.loc 1 305 12 is_stmt 0 view .LVU489
 1699 031c CCF80060 		str	r6, [ip]
 1700              		.loc 1 305 12 view .LVU490
 1701              	.LBE621:
 1702              		.loc 1 274 9 view .LVU491
 1703 0320 002A     		cmp	r2, #0
 1704 0322 85D1     		bne	.L44
 1705              		.loc 1 274 9 view .LVU492
 1706 0324 A2E7     		b	.L95
 1707              	.LVL103:
 1708              	.L31:
 1709              		.loc 1 274 9 view .LVU493
 1710              	.LBE629:
ARM GAS  C:\Users\USER\AppData\Local\Temp\ccRejSya.s 			page 31


 1711              	.LBE637:
 1712              		.loc 1 513 7 is_stmt 1 view .LVU494
 1713              	.LBB638:
 1714              	.LBI638:
 1715              		.loc 1 252 13 view .LVU495
 1716              	.LBB639:
 1717              		.loc 1 256 3 view .LVU496
 1718              		.loc 1 256 41 is_stmt 0 view .LVU497
 1719 0326 04F1030E 		add	lr, r4, #3
 1720              	.LVL104:
 1721              	.LBB640:
 1722              	.LBI640:
 1723              		.loc 1 231 17 is_stmt 1 view .LVU498
 1724              	.LBB641:
 1725              		.loc 1 233 3 view .LVU499
 1726              		.loc 1 233 9 is_stmt 0 view .LVU500
 1727 032a 5FEA9E0E 		lsrs	lr, lr, #2
 1728              	.LVL105:
 1729              		.loc 1 233 9 view .LVU501
 1730 032e 09D0     		beq	.L47
 1731 0330 00EB8E0E 		add	lr, r0, lr, lsl #2
 1732              	.LVL106:
 1733              		.loc 1 233 9 view .LVU502
 1734 0334 0346     		mov	r3, r0
 1735              	.LVL107:
 1736              	.L46:
 1737              		.loc 1 236 5 is_stmt 1 view .LVU503
 1738              		.loc 1 236 14 is_stmt 0 view .LVU504
 1739 0336 53F8041B 		ldr	r1, [r3], #4
 1740              	.LVL108:
 1741              		.loc 1 236 12 view .LVU505
 1742 033a CCF80010 		str	r1, [ip]
 1743              		.loc 1 237 5 is_stmt 1 view .LVU506
 1744              	.LVL109:
 1745              		.loc 1 238 5 view .LVU507
 1746              		.loc 1 233 9 is_stmt 0 view .LVU508
 1747 033e 7345     		cmp	r3, lr
 1748 0340 F9D1     		bne	.L46
 1749 0342 F968     		ldr	r1, [r7, #12]
 1750              	.LVL110:
 1751              	.L47:
 1752              		.loc 1 240 3 is_stmt 1 view .LVU509
 1753              		.loc 1 240 3 is_stmt 0 view .LVU510
 1754              	.LBE641:
 1755              	.LBE640:
 1756              	.LBE639:
 1757              	.LBE638:
 1758              		.loc 1 516 7 is_stmt 1 view .LVU511
 1759              		.loc 1 516 50 is_stmt 0 view .LVU512
 1760 0344 2044     		add	r0, r0, r4
 1761 0346 D060     		str	r0, [r2, #12]
 1762 0348 A0E7     		b	.L33
 1763              	.LVL111:
 1764              	.L56:
 1765              	.LBB642:
 1766              	.LBB630:
 1767              	.LBB622:
ARM GAS  C:\Users\USER\AppData\Local\Temp\ccRejSya.s 			page 32


 1768              	.LBB594:
 1769              	.LBB592:
 1770              	.LBB591:
 1771              		.loc 1 233 9 view .LVU513
 1772 034a 1E46     		mov	r6, r3
 1773 034c 87E7     		b	.L36
 1774              	.LVL112:
 1775              	.L105:
 1776              		.loc 1 233 9 view .LVU514
 1777              	.LBE591:
 1778              	.LBE592:
 1779              	.LBE594:
 1780              	.LBE622:
 1781              	.LBE630:
 1782              	.LBE642:
 1783              		.loc 1 489 14 view .LVU515
 1784 034e 0122     		movs	r2, #1
 1785 0350 B4E7     		b	.L30
 1786              	.LVL113:
 1787              	.L27:
 1788              		.loc 1 489 14 view .LVU516
 1789              	.LBE650:
 1790              	.LBE695:
 1791              		.loc 1 1340 9 is_stmt 1 view .LVU517
 1792              	.LBB696:
 1793              		.loc 3 491 20 view .LVU518
 1794              	.LBE696:
 1795              	.LBE723:
 1796              	.LBE765:
 1797              		.loc 3 493 3 view .LVU519
 1798              	.LBB766:
 1799              	.LBB724:
 1800              	.LBB697:
 1801              	.LBB675:
 1802              		.loc 4 346 20 view .LVU520
 1803              	.LBE675:
 1804              	.LBE697:
 1805              	.LBE724:
 1806              	.LBE766:
 1807              		.loc 4 348 3 view .LVU521
 1808              	.LBB767:
 1809              	.LBB725:
 1810              	.LBB698:
 1811              	.LBB676:
 1812              	.LBB669:
 1813              		.loc 5 444 20 view .LVU522
 1814              	.LBE669:
 1815              	.LBE676:
 1816              	.LBE698:
 1817              	.LBE725:
 1818              	.LBE767:
 1819              		.loc 5 447 3 view .LVU523
 1820              	.LBB768:
 1821              	.LBB726:
 1822              	.LBB699:
 1823              	.LBB677:
 1824              	.LBB670:
ARM GAS  C:\Users\USER\AppData\Local\Temp\ccRejSya.s 			page 33


 1825              	.LBB666:
 1826              		.loc 6 544 57 view .LVU524
 1827              	.LBB664:
 1828              		.loc 6 546 3 view .LVU525
 1829 0352 009B     		ldr	r3, [sp]
 1830              		.syntax unified
 1831              	@ 546 "src/ChibiOS_3.0.2/os/ext/CMSIS/include/core_cmFunc.h" 1
 1832 0354 83F31188 		MSR basepri, r3
 1833              	@ 0 "" 2
 1834              	.LVL114:
 1835              		.loc 6 546 3 is_stmt 0 view .LVU526
 1836              		.thumb
 1837              		.syntax unified
 1838              	.LBE664:
 1839              	.LBE666:
 1840              	.LBE670:
 1841              	.LBE677:
 1842              	.LBE699:
 1843              	.LBE726:
 1844              	.LBE768:
 1845              		.loc 4 349 34 is_stmt 1 view .LVU527
 1846              		.loc 4 350 20 view .LVU528
 1847              	.LBB769:
 1848              	.LBB727:
 1849              		.loc 1 1341 9 view .LVU529
 1850              		.loc 1 1341 23 is_stmt 0 view .LVU530
 1851 0358 D9F80830 		ldr	r3, [r9, #8]
 1852 035c 0AF10102 		add	r2, r10, #1
 1853 0360 43F00103 		orr	r3, r3, #1
 1854 0364 0192     		str	r2, [sp, #4]
 1855 0366 C9F80830 		str	r3, [r9, #8]
 1856              		.loc 1 1342 9 is_stmt 1 view .LVU531
 1857 036a B1E7     		b	.L29
 1858              	.LVL115:
 1859              	.L104:
 1860              		.loc 1 1340 9 view .LVU532
 1861              	.LBB700:
 1862              		.loc 3 491 20 view .LVU533
 1863              	.LBE700:
 1864              	.LBE727:
 1865              	.LBE769:
 1866              		.loc 3 493 3 view .LVU534
 1867              	.LBB770:
 1868              	.LBB728:
 1869              	.LBB701:
 1870              	.LBB678:
 1871              		.loc 4 346 20 view .LVU535
 1872              	.LBE678:
 1873              	.LBE701:
 1874              	.LBE728:
 1875              	.LBE770:
 1876              		.loc 4 348 3 view .LVU536
 1877              	.LBB771:
 1878              	.LBB729:
 1879              	.LBB702:
 1880              	.LBB679:
 1881              	.LBB671:
ARM GAS  C:\Users\USER\AppData\Local\Temp\ccRejSya.s 			page 34


 1882              		.loc 5 444 20 view .LVU537
 1883              	.LBE671:
 1884              	.LBE679:
 1885              	.LBE702:
 1886              	.LBE729:
 1887              	.LBE771:
 1888              		.loc 5 447 3 view .LVU538
 1889              	.LBB772:
 1890              	.LBB730:
 1891              	.LBB703:
 1892              	.LBB680:
 1893              	.LBB672:
 1894              	.LBB667:
 1895              		.loc 6 544 57 view .LVU539
 1896              	.LBB665:
 1897              		.loc 6 546 3 view .LVU540
 1898 036c 009B     		ldr	r3, [sp]
 1899              		.syntax unified
 1900              	@ 546 "src/ChibiOS_3.0.2/os/ext/CMSIS/include/core_cmFunc.h" 1
 1901 036e 83F31188 		MSR basepri, r3
 1902              	@ 0 "" 2
 1903              	.LVL116:
 1904              		.loc 6 546 3 is_stmt 0 view .LVU541
 1905              		.thumb
 1906              		.syntax unified
 1907              	.LBE665:
 1908              	.LBE667:
 1909              	.LBE672:
 1910              	.LBE680:
 1911              	.LBE703:
 1912              	.LBE730:
 1913              	.LBE772:
 1914              		.loc 4 349 34 is_stmt 1 view .LVU542
 1915              		.loc 4 350 20 view .LVU543
 1916              	.LBB773:
 1917              	.LBB731:
 1918              		.loc 1 1341 9 view .LVU544
 1919              		.loc 1 1341 23 is_stmt 0 view .LVU545
 1920 0372 D9F80830 		ldr	r3, [r9, #8]
 1921 0376 0AF10102 		add	r2, r10, #1
 1922 037a 43F00103 		orr	r3, r3, #1
 1923 037e 0192     		str	r2, [sp, #4]
 1924 0380 C9F80830 		str	r3, [r9, #8]
 1925              		.loc 1 1342 9 is_stmt 1 view .LVU546
 1926 0384 AAE7     		b	.L26
 1927              	.LBE731:
 1928              	.LBE773:
 1929              		.cfi_endproc
 1930              	.LFE292:
 1931              		.size	usb_lld_pump, .-usb_lld_pump
 1932 0386 00BF     		.section	.text.otg_disable_ep.isra.0,"ax",%progbits
 1933              		.align	1
 1934              		.p2align 4,,15
 1935              		.syntax unified
 1936              		.thumb
 1937              		.thumb_func
 1938              		.fpu fpv4-sp-d16
ARM GAS  C:\Users\USER\AppData\Local\Temp\ccRejSya.s 			page 35


 1939              		.type	otg_disable_ep.isra.0, %function
 1940              	otg_disable_ep.isra.0:
 1941              	.LFB293:
 1942              		.loc 1 132 13 view -0
 1943              		.cfi_startproc
 1944              		@ args = 0, pretend = 0, frame = 0
 1945              		@ frame_needed = 0, uses_anonymous_args = 0
 1946              	.LVL117:
 1947              		.loc 1 132 13 is_stmt 0 view .LVU548
 1948 0000 F0B5     		push	{r4, r5, r6, r7, lr}
 1949              		.cfi_def_cfa_offset 20
 1950              		.cfi_offset 4, -20
 1951              		.cfi_offset 5, -16
 1952              		.cfi_offset 6, -12
 1953              		.cfi_offset 7, -8
 1954              		.cfi_offset 14, -4
 1955              		.loc 1 136 10 view .LVU549
 1956 0002 0024     		movs	r4, #0
 1957 0004 D1F808C0 		ldr	ip, [r1, #8]
 1958              		.loc 1 147 27 view .LVU550
 1959 0008 2546     		mov	r5, r4
 1960              		.loc 1 141 27 view .LVU551
 1961 000a 4FF0804E 		mov	lr, #1073741824
 1962              		.loc 1 149 25 view .LVU552
 1963 000e 4FF0FF36 		mov	r6, #-1
 1964 0012 14E0     		b	.L115
 1965              	.LVL118:
 1966              	.L109:
 1967              		.loc 1 147 7 is_stmt 1 view .LVU553
 1968              		.loc 1 147 27 is_stmt 0 view .LVU554
 1969 0014 C1F80059 		str	r5, [r1, #2304]
 1970              	.L111:
 1971              		.loc 1 148 5 is_stmt 1 view .LVU555
 1972              		.loc 1 148 26 is_stmt 0 view .LVU556
 1973 0018 C218     		adds	r2, r0, r3
 1974 001a C2F81059 		str	r5, [r2, #2320]
 1975              		.loc 1 149 5 is_stmt 1 view .LVU557
 1976              		.loc 1 149 25 is_stmt 0 view .LVU558
 1977 001e C2F80869 		str	r6, [r2, #2312]
 1978              		.loc 1 155 5 is_stmt 1 view .LVU559
 1979              		.loc 1 155 21 is_stmt 0 view .LVU560
 1980 0022 D1F8007B 		ldr	r7, [r1, #2816]
 1981              		.loc 1 155 8 view .LVU561
 1982 0026 002F     		cmp	r7, #0
 1983 0028 17DB     		blt	.L122
 1984              		.loc 1 162 7 is_stmt 1 view .LVU562
 1985              		.loc 1 162 27 is_stmt 0 view .LVU563
 1986 002a C1F8005B 		str	r5, [r1, #2816]
 1987              	.L114:
 1988              		.loc 1 163 5 is_stmt 1 view .LVU564
 1989              		.loc 1 163 26 is_stmt 0 view .LVU565
 1990 002e 0344     		add	r3, r3, r0
 1991              		.loc 1 136 53 view .LVU566
 1992 0030 0134     		adds	r4, r4, #1
 1993              	.LVL119:
 1994              		.loc 1 136 3 view .LVU567
 1995 0032 6445     		cmp	r4, ip
ARM GAS  C:\Users\USER\AppData\Local\Temp\ccRejSya.s 			page 36


 1996              		.loc 1 163 26 view .LVU568
 1997 0034 C3F8105B 		str	r5, [r3, #2832]
 1998              		.loc 1 164 5 is_stmt 1 view .LVU569
 1999              	.LVL120:
 2000              		.loc 1 164 25 is_stmt 0 view .LVU570
 2001 0038 C3F8086B 		str	r6, [r3, #2824]
 2002              		.loc 1 136 3 view .LVU571
 2003 003c 14D8     		bhi	.L123
 2004              	.LVL121:
 2005              	.L115:
 2006              		.loc 1 140 5 is_stmt 1 view .LVU572
 2007 003e 6301     		lsls	r3, r4, #5
 2008 0040 C118     		adds	r1, r0, r3
 2009              		.loc 1 140 21 is_stmt 0 view .LVU573
 2010 0042 D1F80029 		ldr	r2, [r1, #2304]
 2011              		.loc 1 140 8 view .LVU574
 2012 0046 002A     		cmp	r2, #0
 2013 0048 E4DA     		bge	.L109
 2014              		.loc 1 141 7 is_stmt 1 view .LVU575
 2015              		.loc 1 141 27 is_stmt 0 view .LVU576
 2016 004a C1F800E9 		str	lr, [r1, #2304]
 2017              		.loc 1 143 7 is_stmt 1 view .LVU577
 2018              		.loc 1 143 27 is_stmt 0 view .LVU578
 2019 004e 0F46     		mov	r7, r1
 2020              	.L110:
 2021              		.loc 1 144 9 is_stmt 1 view .LVU579
 2022              		.loc 1 143 27 is_stmt 0 view .LVU580
 2023 0050 D7F80829 		ldr	r2, [r7, #2312]
 2024              		.loc 1 143 13 view .LVU581
 2025 0054 9207     		lsls	r2, r2, #30
 2026 0056 FBD5     		bpl	.L110
 2027 0058 DEE7     		b	.L111
 2028              	.L122:
 2029              		.loc 1 156 7 is_stmt 1 view .LVU582
 2030              		.loc 1 156 27 is_stmt 0 view .LVU583
 2031 005a C1F800EB 		str	lr, [r1, #2816]
 2032              		.loc 1 158 7 is_stmt 1 view .LVU584
 2033              	.L113:
 2034              		.loc 1 159 9 view .LVU585
 2035              		.loc 1 158 27 is_stmt 0 view .LVU586
 2036 005e D2F8081B 		ldr	r1, [r2, #2824]
 2037              		.loc 1 158 13 view .LVU587
 2038 0062 C906     		lsls	r1, r1, #27
 2039 0064 FBD5     		bpl	.L113
 2040 0066 E2E7     		b	.L114
 2041              	.L123:
 2042              		.loc 1 166 3 is_stmt 1 view .LVU588
 2043              		.loc 1 166 18 is_stmt 0 view .LVU589
 2044 0068 4FF00113 		mov	r3, #65537
 2045 006c C0F81C38 		str	r3, [r0, #2076]
 2046              		.loc 1 167 1 view .LVU590
 2047 0070 F0BD     		pop	{r4, r5, r6, r7, pc}
 2048              		.loc 1 167 1 view .LVU591
 2049              		.cfi_endproc
 2050              	.LFE293:
 2051              		.size	otg_disable_ep.isra.0, .-otg_disable_ep.isra.0
 2052 0072 00BF     		.section	.text.usb_lld_init,"ax",%progbits
ARM GAS  C:\Users\USER\AppData\Local\Temp\ccRejSya.s 			page 37


 2053              		.align	1
 2054              		.p2align 4,,15
 2055              		.global	usb_lld_init
 2056              		.syntax unified
 2057              		.thumb
 2058              		.thumb_func
 2059              		.fpu fpv4-sp-d16
 2060              		.type	usb_lld_init, %function
 2061              	usb_lld_init:
 2062              	.LFB274:
 2063              		.loc 1 744 25 is_stmt 1 view -0
 2064              		.cfi_startproc
 2065              		@ args = 0, pretend = 0, frame = 0
 2066              		@ frame_needed = 0, uses_anonymous_args = 0
 2067              		.loc 1 748 3 view .LVU593
 2068              		.loc 1 744 25 is_stmt 0 view .LVU594
 2069 0000 10B5     		push	{r4, lr}
 2070              		.cfi_def_cfa_offset 8
 2071              		.cfi_offset 4, -8
 2072              		.cfi_offset 14, -4
 2073              		.loc 1 748 3 view .LVU595
 2074 0002 064C     		ldr	r4, .L126
 2075 0004 2046     		mov	r0, r4
 2076 0006 FFF7FEFF 		bl	usbObjectInit
 2077              	.LVL122:
 2078              		.loc 1 749 3 is_stmt 1 view .LVU596
 2079              		.loc 1 750 19 is_stmt 0 view .LVU597
 2080 000a 4FF0A043 		mov	r3, #1342177280
 2081              		.loc 1 751 19 view .LVU598
 2082 000e 044A     		ldr	r2, .L126+4
 2083              		.loc 1 750 19 view .LVU599
 2084 0010 2365     		str	r3, [r4, #80]
 2085              		.loc 1 749 19 view .LVU600
 2086 0012 0023     		movs	r3, #0
 2087              		.loc 1 751 19 view .LVU601
 2088 0014 6265     		str	r2, [r4, #84]
 2089              		.loc 1 754 12 view .LVU602
 2090 0016 C4E91833 		strd	r3, r3, [r4, #96]
 2091              		.loc 1 794 1 view .LVU603
 2092 001a 10BD     		pop	{r4, pc}
 2093              	.L127:
 2094              		.align	2
 2095              	.L126:
 2096 001c 00000000 		.word	.LANCHOR0
 2097 0020 00000000 		.word	.LANCHOR1
 2098              		.cfi_endproc
 2099              	.LFE274:
 2100              		.size	usb_lld_init, .-usb_lld_init
 2101              		.section	.text.usb_lld_start,"ax",%progbits
 2102              		.align	1
 2103              		.p2align 4,,15
 2104              		.global	usb_lld_start
 2105              		.syntax unified
 2106              		.thumb
 2107              		.thumb_func
 2108              		.fpu fpv4-sp-d16
 2109              		.type	usb_lld_start, %function
ARM GAS  C:\Users\USER\AppData\Local\Temp\ccRejSya.s 			page 38


 2110              	usb_lld_start:
 2111              	.LVL123:
 2112              	.LFB275:
 2113              		.loc 1 806 37 is_stmt 1 view -0
 2114              		.cfi_startproc
 2115              		@ args = 0, pretend = 0, frame = 0
 2116              		@ frame_needed = 0, uses_anonymous_args = 0
 2117              		.loc 1 807 3 view .LVU605
 2118              		.loc 1 809 3 view .LVU606
 2119              		.loc 1 809 6 is_stmt 0 view .LVU607
 2120 0000 0378     		ldrb	r3, [r0]	@ zero_extendqisi2
 2121 0002 012B     		cmp	r3, #1
 2122 0004 00D0     		beq	.L143
 2123 0006 7047     		bx	lr
 2124              	.L143:
 2125              		.loc 1 806 37 view .LVU608
 2126 0008 70B5     		push	{r4, r5, r6, lr}
 2127              		.cfi_def_cfa_offset 16
 2128              		.cfi_offset 4, -16
 2129              		.cfi_offset 5, -12
 2130              		.cfi_offset 6, -8
 2131              		.cfi_offset 14, -4
 2132              		.loc 1 812 8 view .LVU609
 2133 000a 314B     		ldr	r3, .L147
 2134              		.loc 1 807 16 view .LVU610
 2135 000c 066D     		ldr	r6, [r0, #80]
 2136              		.loc 1 812 5 is_stmt 1 view .LVU611
 2137              		.loc 1 812 8 is_stmt 0 view .LVU612
 2138 000e 9842     		cmp	r0, r3
 2139              		.loc 1 806 37 view .LVU613
 2140 0010 82B0     		sub	sp, sp, #8
 2141              		.cfi_def_cfa_offset 24
 2142 0012 0446     		mov	r4, r0
 2143              		.loc 1 812 8 view .LVU614
 2144 0014 3BD0     		beq	.L144
 2145              		.loc 1 807 16 view .LVU615
 2146 0016 3546     		mov	r5, r6
 2147              	.LVL124:
 2148              	.L130:
 2149              		.loc 1 836 5 is_stmt 1 view .LVU616
 2150              		.loc 1 836 21 is_stmt 0 view .LVU617
 2151 0018 0023     		movs	r3, #0
 2152              		.loc 1 841 19 view .LVU618
 2153 001a 2E4A     		ldr	r2, .L147+4
 2154              		.loc 1 836 21 view .LVU619
 2155 001c E365     		str	r3, [r4, #92]
 2156              		.loc 1 841 5 is_stmt 1 view .LVU620
 2157              		.loc 1 844 16 is_stmt 0 view .LVU621
 2158 001e 2E49     		ldr	r1, .L147+8
 2159              		.loc 1 841 19 view .LVU622
 2160 0020 F260     		str	r2, [r6, #12]
 2161              		.loc 1 844 5 is_stmt 1 view .LVU623
 2162              		.loc 1 851 17 is_stmt 0 view .LVU624
 2163 0022 4FF43412 		mov	r2, #2949120
 2164              		.loc 1 844 16 view .LVU625
 2165 0026 C6F80018 		str	r1, [r6, #2048]
 2166              		.loc 1 847 5 is_stmt 1 view .LVU626
ARM GAS  C:\Users\USER\AppData\Local\Temp\ccRejSya.s 			page 39


 2167              	.LBB782:
 2168              	.LBB783:
 2169              	.LBB784:
 2170              	.LBB785:
 2171              		.loc 3 573 3 is_stmt 0 view .LVU627
 2172 002a 2020     		movs	r0, #32
 2173              	.LBE785:
 2174              	.LBE784:
 2175              	.LBE783:
 2176              	.LBE782:
 2177              		.loc 1 847 19 view .LVU628
 2178 002c C6F8003E 		str	r3, [r6, #3584]
 2179              		.loc 1 851 5 is_stmt 1 view .LVU629
 2180              		.loc 1 851 17 is_stmt 0 view .LVU630
 2181 0030 B263     		str	r2, [r6, #56]
 2182              		.loc 1 858 5 is_stmt 1 view .LVU631
 2183              	.LBB791:
 2184              	.LBI782:
 2185              		.loc 1 115 13 view .LVU632
 2186              	.LVL125:
 2187              	.LBB790:
 2188              		.loc 1 116 3 view .LVU633
 2189              		.loc 1 118 3 view .LVU634
 2190              	.LBB787:
 2191              	.LBI784:
 2192              		.loc 3 571 20 view .LVU635
 2193              	.LBB786:
 2194              		.loc 3 573 3 view .LVU636
 2195 0032 FFF7FEFF 		bl	chSysPolledDelayX
 2196              	.LVL126:
 2197              		.loc 3 573 3 is_stmt 0 view .LVU637
 2198              	.LBE786:
 2199              	.LBE787:
 2200              		.loc 1 121 3 is_stmt 1 view .LVU638
 2201              		.loc 1 121 17 is_stmt 0 view .LVU639
 2202 0036 0123     		movs	r3, #1
 2203 0038 2B61     		str	r3, [r5, #16]
 2204              		.loc 1 122 3 is_stmt 1 view .LVU640
 2205              	.L131:
 2206              		.loc 1 123 5 view .LVU641
 2207              		.loc 1 122 15 is_stmt 0 view .LVU642
 2208 003a 2B69     		ldr	r3, [r5, #16]
 2209              		.loc 1 122 9 view .LVU643
 2210 003c DB07     		lsls	r3, r3, #31
 2211 003e FCD4     		bmi	.L131
 2212              		.loc 1 125 3 is_stmt 1 view .LVU644
 2213              	.LVL127:
 2214              	.LBB788:
 2215              	.LBI788:
 2216              		.loc 3 571 20 view .LVU645
 2217              	.LBB789:
 2218              		.loc 3 573 3 view .LVU646
 2219 0040 0C20     		movs	r0, #12
 2220 0042 FFF7FEFF 		bl	chSysPolledDelayX
 2221              	.LVL128:
 2222              	.L132:
 2223              	.LBE789:
ARM GAS  C:\Users\USER\AppData\Local\Temp\ccRejSya.s 			page 40


 2224              	.LBE788:
 2225              		.loc 1 129 5 view .LVU647
 2226              		.loc 1 128 15 is_stmt 0 view .LVU648
 2227 0046 2B69     		ldr	r3, [r5, #16]
 2228              		.loc 1 128 9 view .LVU649
 2229 0048 002B     		cmp	r3, #0
 2230 004a FCDA     		bge	.L132
 2231              		.loc 1 128 9 view .LVU650
 2232              	.LBE790:
 2233              	.LBE791:
 2234              		.loc 1 861 5 is_stmt 1 view .LVU651
 2235              		.loc 1 861 19 is_stmt 0 view .LVU652
 2236 004c 0025     		movs	r5, #0
 2237 004e B560     		str	r5, [r6, #8]
 2238              		.loc 1 864 5 is_stmt 1 view .LVU653
 2239 0050 D4E91401 		ldrd	r0, r1, [r4, #80]
 2240 0054 FFF7FEFF 		bl	otg_disable_ep.isra.0
 2241              	.LVL129:
 2242              		.loc 1 868 5 view .LVU654
 2243              		.loc 1 871 21 is_stmt 0 view .LVU655
 2244 0058 6368     		ldr	r3, [r4, #4]
 2245              		.loc 1 868 20 view .LVU656
 2246 005a C6F81058 		str	r5, [r6, #2064]
 2247              		.loc 1 869 5 is_stmt 1 view .LVU657
 2248              		.loc 1 871 8 is_stmt 0 view .LVU658
 2249 005e DB68     		ldr	r3, [r3, #12]
 2250              		.loc 1 869 20 view .LVU659
 2251 0060 C6F81458 		str	r5, [r6, #2068]
 2252              		.loc 1 870 5 is_stmt 1 view .LVU660
 2253              		.loc 1 870 20 is_stmt 0 view .LVU661
 2254 0064 C6F81C58 		str	r5, [r6, #2076]
 2255              		.loc 1 871 5 is_stmt 1 view .LVU662
 2256              		.loc 1 871 8 is_stmt 0 view .LVU663
 2257 0068 6BB1     		cbz	r3, .L145
 2258              		.loc 1 875 7 is_stmt 1 view .LVU664
 2259              		.loc 1 875 22 is_stmt 0 view .LVU665
 2260 006a 43F20803 		movw	r3, #12296
 2261 006e B361     		str	r3, [r6, #24]
 2262              	.L134:
 2263              		.loc 1 877 5 is_stmt 1 view .LVU666
 2264              		.loc 1 881 8 is_stmt 0 view .LVU667
 2265 0070 636E     		ldr	r3, [r4, #100]
 2266              		.loc 1 877 20 view .LVU668
 2267 0072 4FF0FF32 		mov	r2, #-1
 2268 0076 7261     		str	r2, [r6, #20]
 2269              		.loc 1 881 5 is_stmt 1 view .LVU669
 2270              		.loc 1 881 8 is_stmt 0 view .LVU670
 2271 0078 D3B1     		cbz	r3, .L146
 2272              	.L135:
 2273              		.loc 1 891 5 is_stmt 1 view .LVU671
 2274              		.loc 1 891 19 is_stmt 0 view .LVU672
 2275 007a B368     		ldr	r3, [r6, #8]
 2276 007c 43F00103 		orr	r3, r3, #1
 2277 0080 B360     		str	r3, [r6, #8]
 2278              		.loc 1 893 1 view .LVU673
 2279 0082 02B0     		add	sp, sp, #8
 2280              		.cfi_remember_state
ARM GAS  C:\Users\USER\AppData\Local\Temp\ccRejSya.s 			page 41


 2281              		.cfi_def_cfa_offset 16
 2282              		@ sp needed
 2283 0084 70BD     		pop	{r4, r5, r6, pc}
 2284              	.LVL130:
 2285              	.L145:
 2286              		.cfi_restore_state
 2287              		.loc 1 872 7 is_stmt 1 view .LVU674
 2288              		.loc 1 872 22 is_stmt 0 view .LVU675
 2289 0086 4FF44053 		mov	r3, #12288
 2290 008a B361     		str	r3, [r6, #24]
 2291 008c F0E7     		b	.L134
 2292              	.LVL131:
 2293              	.L144:
 2294              		.loc 1 814 7 is_stmt 1 view .LVU676
 2295 008e 134B     		ldr	r3, .L147+12
 2296 0090 5A6B     		ldr	r2, [r3, #52]
 2297 0092 42F08002 		orr	r2, r2, #128
 2298 0096 5A63     		str	r2, [r3, #52]
 2299              		.loc 1 814 7 view .LVU677
 2300              		.loc 1 814 29 view .LVU678
 2301              		.loc 1 815 7 view .LVU679
 2302 0098 5A69     		ldr	r2, [r3, #20]
 2303 009a 0020     		movs	r0, #0
 2304              	.LVL132:
 2305              		.loc 1 815 7 is_stmt 0 view .LVU680
 2306 009c 42F08002 		orr	r2, r2, #128
 2307 00a0 5A61     		str	r2, [r3, #20]
 2308              		.loc 1 815 7 is_stmt 1 view .LVU681
 2309              		.loc 1 818 7 is_stmt 0 view .LVU682
 2310 00a2 0E21     		movs	r1, #14
 2311              		.loc 1 815 7 view .LVU683
 2312 00a4 5861     		str	r0, [r3, #20]
 2313              		.loc 1 815 23 is_stmt 1 view .LVU684
 2314              		.loc 1 818 7 view .LVU685
 2315 00a6 4320     		movs	r0, #67
 2316 00a8 FFF7FEFF 		bl	nvicEnableVector
 2317              	.LVL133:
 2318              		.loc 1 818 7 is_stmt 0 view .LVU686
 2319 00ac 256D     		ldr	r5, [r4, #80]
 2320 00ae B3E7     		b	.L130
 2321              	.LVL134:
 2322              	.L146:
 2323              		.loc 1 882 7 is_stmt 1 view .LVU687
 2324              		.loc 1 882 18 is_stmt 0 view .LVU688
 2325 00b0 0B4B     		ldr	r3, .L147+16
 2326 00b2 0094     		str	r4, [sp]
 2327 00b4 0222     		movs	r2, #2
 2328 00b6 4FF40671 		mov	r1, #536
 2329 00ba 04F16800 		add	r0, r4, #104
 2330 00be FFF7FEFF 		bl	chThdCreateI
 2331              	.LVL135:
 2332              		.loc 1 882 16 view .LVU689
 2333 00c2 6066     		str	r0, [r4, #100]
 2334              		.loc 1 885 7 is_stmt 1 view .LVU690
 2335              	.LVL136:
 2336              	.LBB792:
 2337              	.LBI792:
ARM GAS  C:\Users\USER\AppData\Local\Temp\ccRejSya.s 			page 42


 2338              		.file 7 "src/ChibiOS_3.0.2/os/rt/include/chthreads.h"
 2339              		.loc 7 245 25 view .LVU691
 2340              	.LBB793:
 2341              		.loc 7 247 3 view .LVU692
 2342              		.loc 7 247 3 view .LVU693
 2343              		.loc 7 249 3 view .LVU694
 2344              		.loc 7 249 10 is_stmt 0 view .LVU695
 2345 00c4 FFF7FEFF 		bl	chSchReadyI
 2346              	.LVL137:
 2347              		.loc 7 249 10 view .LVU696
 2348              	.LBE793:
 2349              	.LBE792:
 2350              		.loc 1 886 7 is_stmt 1 view .LVU697
 2351 00c8 FFF7FEFF 		bl	chSchRescheduleS
 2352              	.LVL138:
 2353 00cc D5E7     		b	.L135
 2354              	.L148:
 2355 00ce 00BF     		.align	2
 2356              	.L147:
 2357 00d0 00000000 		.word	.LANCHOR0
 2358 00d4 40140040 		.word	1073747008
 2359 00d8 03002002 		.word	35651587
 2360 00dc 00380240 		.word	1073887232
 2361 00e0 00000000 		.word	usb_lld_pump
 2362              		.cfi_endproc
 2363              	.LFE275:
 2364              		.size	usb_lld_start, .-usb_lld_start
 2365              		.section	.text.usb_lld_stop,"ax",%progbits
 2366              		.align	1
 2367              		.p2align 4,,15
 2368              		.global	usb_lld_stop
 2369              		.syntax unified
 2370              		.thumb
 2371              		.thumb_func
 2372              		.fpu fpv4-sp-d16
 2373              		.type	usb_lld_stop, %function
 2374              	usb_lld_stop:
 2375              	.LVL139:
 2376              	.LFB276:
 2377              		.loc 1 902 36 view -0
 2378              		.cfi_startproc
 2379              		@ args = 0, pretend = 0, frame = 0
 2380              		@ frame_needed = 0, uses_anonymous_args = 0
 2381              		.loc 1 903 3 view .LVU699
 2382              		.loc 1 906 3 view .LVU700
 2383              		.loc 1 902 36 is_stmt 0 view .LVU701
 2384 0000 38B5     		push	{r3, r4, r5, lr}
 2385              		.cfi_def_cfa_offset 16
 2386              		.cfi_offset 3, -16
 2387              		.cfi_offset 4, -12
 2388              		.cfi_offset 5, -8
 2389              		.cfi_offset 14, -4
 2390              		.loc 1 906 6 view .LVU702
 2391 0002 0378     		ldrb	r3, [r0]	@ zero_extendqisi2
 2392 0004 012B     		cmp	r3, #1
 2393 0006 00D1     		bne	.L154
 2394              	.LVL140:
ARM GAS  C:\Users\USER\AppData\Local\Temp\ccRejSya.s 			page 43


 2395              	.L149:
 2396              		.loc 1 932 1 view .LVU703
 2397 0008 38BD     		pop	{r3, r4, r5, pc}
 2398              	.LVL141:
 2399              	.L154:
 2400              		.loc 1 910 5 view .LVU704
 2401 000a D0E91451 		ldrd	r5, r1, [r0, #80]
 2402 000e 0446     		mov	r4, r0
 2403 0010 2846     		mov	r0, r5
 2404              	.LVL142:
 2405              		.loc 1 910 5 view .LVU705
 2406 0012 FFF7FEFF 		bl	otg_disable_ep.isra.0
 2407              	.LVL143:
 2408              		.loc 1 912 5 is_stmt 1 view .LVU706
 2409              		.loc 1 919 8 is_stmt 0 view .LVU707
 2410 0016 094A     		ldr	r2, .L155
 2411              		.loc 1 912 21 view .LVU708
 2412 0018 0023     		movs	r3, #0
 2413              		.loc 1 919 8 view .LVU709
 2414 001a 9442     		cmp	r4, r2
 2415              		.loc 1 912 21 view .LVU710
 2416 001c E365     		str	r3, [r4, #92]
 2417              		.loc 1 914 5 is_stmt 1 view .LVU711
 2418              		.loc 1 914 22 is_stmt 0 view .LVU712
 2419 001e C5F81C38 		str	r3, [r5, #2076]
 2420              		.loc 1 915 5 is_stmt 1 view .LVU713
 2421              		.loc 1 915 22 is_stmt 0 view .LVU714
 2422 0022 AB60     		str	r3, [r5, #8]
 2423              		.loc 1 916 5 is_stmt 1 view .LVU715
 2424              		.loc 1 916 22 is_stmt 0 view .LVU716
 2425 0024 AB63     		str	r3, [r5, #56]
 2426              		.loc 1 919 5 is_stmt 1 view .LVU717
 2427              		.loc 1 919 8 is_stmt 0 view .LVU718
 2428 0026 EFD1     		bne	.L149
 2429              		.loc 1 920 7 is_stmt 1 view .LVU719
 2430 0028 4320     		movs	r0, #67
 2431 002a FFF7FEFF 		bl	nvicDisableVector
 2432              	.LVL144:
 2433              		.loc 1 921 7 view .LVU720
 2434 002e 044A     		ldr	r2, .L155+4
 2435 0030 536B     		ldr	r3, [r2, #52]
 2436 0032 23F08003 		bic	r3, r3, #128
 2437 0036 5363     		str	r3, [r2, #52]
 2438              		.loc 1 921 7 view .LVU721
 2439              		.loc 1 921 30 view .LVU722
 2440              		.loc 1 932 1 is_stmt 0 view .LVU723
 2441 0038 38BD     		pop	{r3, r4, r5, pc}
 2442              	.LVL145:
 2443              	.L156:
 2444              		.loc 1 932 1 view .LVU724
 2445 003a 00BF     		.align	2
 2446              	.L155:
 2447 003c 00000000 		.word	.LANCHOR0
 2448 0040 00380240 		.word	1073887232
 2449              		.cfi_endproc
 2450              	.LFE276:
 2451              		.size	usb_lld_stop, .-usb_lld_stop
ARM GAS  C:\Users\USER\AppData\Local\Temp\ccRejSya.s 			page 44


 2452              		.section	.text.usb_lld_reset,"ax",%progbits
 2453              		.align	1
 2454              		.p2align 4,,15
 2455              		.global	usb_lld_reset
 2456              		.syntax unified
 2457              		.thumb
 2458              		.thumb_func
 2459              		.fpu fpv4-sp-d16
 2460              		.type	usb_lld_reset, %function
 2461              	usb_lld_reset:
 2462              	.LVL146:
 2463              	.LFB277:
 2464              		.loc 1 941 37 is_stmt 1 view -0
 2465              		.cfi_startproc
 2466              		@ args = 0, pretend = 0, frame = 0
 2467              		@ frame_needed = 0, uses_anonymous_args = 0
 2468              		.loc 1 942 3 view .LVU726
 2469              		.loc 1 943 3 view .LVU727
 2470              		.loc 1 941 37 is_stmt 0 view .LVU728
 2471 0000 F8B5     		push	{r3, r4, r5, r6, r7, lr}
 2472              		.cfi_def_cfa_offset 24
 2473              		.cfi_offset 3, -24
 2474              		.cfi_offset 4, -20
 2475              		.cfi_offset 5, -16
 2476              		.cfi_offset 6, -12
 2477              		.cfi_offset 7, -8
 2478              		.cfi_offset 14, -4
 2479              		.loc 1 943 16 view .LVU729
 2480 0002 056D     		ldr	r5, [r0, #80]
 2481              	.LVL147:
 2482              		.loc 1 946 3 is_stmt 1 view .LVU730
 2483              	.LBB794:
 2484              	.LBB795:
 2485              		.loc 1 182 17 is_stmt 0 view .LVU731
 2486 0004 2023     		movs	r3, #32
 2487              	.LBE795:
 2488              	.LBE794:
 2489              		.loc 1 941 37 view .LVU732
 2490 0006 0646     		mov	r6, r0
 2491              	.LVL148:
 2492              	.LBB799:
 2493              	.LBI794:
 2494              		.loc 1 179 13 is_stmt 1 view .LVU733
 2495              	.LBB798:
 2496              		.loc 1 180 3 view .LVU734
 2497              		.loc 1 182 3 view .LVU735
 2498              		.loc 1 182 17 is_stmt 0 view .LVU736
 2499 0008 2B61     		str	r3, [r5, #16]
 2500              		.loc 1 183 3 is_stmt 1 view .LVU737
 2501              	.L158:
 2502              		.loc 1 184 5 view .LVU738
 2503              		.loc 1 183 15 is_stmt 0 view .LVU739
 2504 000a 2C69     		ldr	r4, [r5, #16]
 2505              		.loc 1 183 9 view .LVU740
 2506 000c 14F02004 		ands	r4, r4, #32
 2507 0010 FBD1     		bne	.L158
 2508              		.loc 1 186 3 is_stmt 1 view .LVU741
ARM GAS  C:\Users\USER\AppData\Local\Temp\ccRejSya.s 			page 45


 2509              	.LVL149:
 2510              	.LBB796:
 2511              	.LBI796:
 2512              		.loc 3 571 20 view .LVU742
 2513              	.LBB797:
 2514              		.loc 3 573 3 view .LVU743
 2515 0012 0C20     		movs	r0, #12
 2516              	.LVL150:
 2517              		.loc 3 573 3 is_stmt 0 view .LVU744
 2518 0014 FFF7FEFF 		bl	chSysPolledDelayX
 2519              	.LVL151:
 2520              		.loc 3 573 3 view .LVU745
 2521              	.LBE797:
 2522              	.LBE796:
 2523              	.LBE798:
 2524              	.LBE799:
 2525              		.loc 1 949 3 is_stmt 1 view .LVU746
 2526              		.loc 1 949 24 is_stmt 0 view .LVU747
 2527 0018 D6F854C0 		ldr	ip, [r6, #84]
 2528              		.loc 1 949 10 view .LVU748
 2529 001c 2346     		mov	r3, r4
 2530              		.loc 1 949 35 view .LVU749
 2531 001e DCF80870 		ldr	r7, [ip, #8]
 2532              		.loc 1 950 25 view .LVU750
 2533 0022 4FF00060 		mov	r0, #134217728
 2534              		.loc 1 952 25 view .LVU751
 2535 0026 FF21     		movs	r1, #255
 2536 0028 00E0     		b	.L159
 2537              	.LVL152:
 2538              	.L161:
 2539              		.loc 1 952 25 view .LVU752
 2540 002a 2346     		mov	r3, r4
 2541              	.LVL153:
 2542              	.L159:
 2543              		.loc 1 950 5 is_stmt 1 discriminator 3 view .LVU753
 2544 002c 05EB4312 		add	r2, r5, r3, lsl #5
 2545              		.loc 1 949 3 is_stmt 0 discriminator 3 view .LVU754
 2546 0030 BB42     		cmp	r3, r7
 2547              		.loc 1 950 25 discriminator 3 view .LVU755
 2548 0032 C2F80009 		str	r0, [r2, #2304]
 2549              		.loc 1 951 5 is_stmt 1 discriminator 3 view .LVU756
 2550              		.loc 1 949 53 is_stmt 0 discriminator 3 view .LVU757
 2551 0036 03F10104 		add	r4, r3, #1
 2552              		.loc 1 951 25 discriminator 3 view .LVU758
 2553 003a C2F8000B 		str	r0, [r2, #2816]
 2554              		.loc 1 952 5 is_stmt 1 discriminator 3 view .LVU759
 2555              		.loc 1 952 25 is_stmt 0 discriminator 3 view .LVU760
 2556 003e C2F80819 		str	r1, [r2, #2312]
 2557              		.loc 1 953 5 is_stmt 1 discriminator 3 view .LVU761
 2558              	.LVL154:
 2559              		.loc 1 953 25 is_stmt 0 discriminator 3 view .LVU762
 2560 0042 C2F8081B 		str	r1, [r2, #2824]
 2561              		.loc 1 949 3 discriminator 3 view .LVU763
 2562 0046 F0D1     		bne	.L161
 2563              		.loc 1 957 3 is_stmt 1 view .LVU764
 2564              	.LBB800:
 2565              	.LBB801:
ARM GAS  C:\Users\USER\AppData\Local\Temp\ccRejSya.s 			page 46


 2566              		.loc 1 198 33 is_stmt 0 view .LVU765
 2567 0048 DCF80030 		ldr	r3, [ip]
 2568              	.LBE801:
 2569              	.LBE800:
 2570              		.loc 1 958 18 view .LVU766
 2571 004c 4FF00112 		mov	r2, #65537
 2572              		.loc 1 957 15 view .LVU767
 2573 0050 4FF0FF31 		mov	r1, #-1
 2574 0054 C5F81818 		str	r1, [r5, #2072]
 2575              		.loc 1 958 3 is_stmt 1 view .LVU768
 2576              		.loc 1 958 18 is_stmt 0 view .LVU769
 2577 0058 C5F81C28 		str	r2, [r5, #2076]
 2578              		.loc 1 961 3 is_stmt 1 view .LVU770
 2579              	.LBB803:
 2580              	.LBI800:
 2581              		.loc 1 196 13 view .LVU771
 2582              	.LVL155:
 2583              	.LBB802:
 2584              		.loc 1 198 3 view .LVU772
 2585              		.loc 1 198 16 is_stmt 0 view .LVU773
 2586 005c B365     		str	r3, [r6, #88]
 2587              	.LBE802:
 2588              	.LBE803:
 2589              		.loc 1 964 3 is_stmt 1 view .LVU774
 2590              		.loc 1 964 34 is_stmt 0 view .LVU775
 2591 005e DCF80030 		ldr	r3, [ip]
 2592              		.loc 1 965 3 view .LVU776
 2593 0062 326D     		ldr	r2, [r6, #80]
 2594              		.loc 1 964 17 view .LVU777
 2595 0064 6B62     		str	r3, [r5, #36]
 2596              		.loc 1 965 3 is_stmt 1 view .LVU778
 2597              	.LBB804:
 2598              	.LBI804:
 2599              		.loc 1 169 13 view .LVU779
 2600              	.LVL156:
 2601              	.LBB805:
 2602              		.loc 1 170 3 view .LVU780
 2603              		.loc 1 172 3 view .LVU781
 2604              		.loc 1 172 17 is_stmt 0 view .LVU782
 2605 0066 1023     		movs	r3, #16
 2606 0068 1361     		str	r3, [r2, #16]
 2607              		.loc 1 173 3 is_stmt 1 view .LVU783
 2608              	.LVL157:
 2609              	.L160:
 2610              		.loc 1 174 5 view .LVU784
 2611              		.loc 1 173 15 is_stmt 0 view .LVU785
 2612 006a 1469     		ldr	r4, [r2, #16]
 2613              		.loc 1 173 9 view .LVU786
 2614 006c 14F01004 		ands	r4, r4, #16
 2615 0070 FBD1     		bne	.L160
 2616              		.loc 1 176 3 is_stmt 1 view .LVU787
 2617              	.LVL158:
 2618              	.LBB806:
 2619              	.LBI806:
 2620              		.loc 3 571 20 view .LVU788
 2621              	.LBB807:
 2622              		.loc 3 573 3 view .LVU789
ARM GAS  C:\Users\USER\AppData\Local\Temp\ccRejSya.s 			page 47


 2623 0072 0C20     		movs	r0, #12
 2624 0074 FFF7FEFF 		bl	chSysPolledDelayX
 2625              	.LVL159:
 2626              		.loc 3 573 3 is_stmt 0 view .LVU790
 2627              	.LBE807:
 2628              	.LBE806:
 2629              	.LBE805:
 2630              	.LBE804:
 2631              		.loc 1 968 3 is_stmt 1 view .LVU791
 2632              		.loc 1 968 21 is_stmt 0 view .LVU792
 2633 0078 D5F80038 		ldr	r3, [r5, #2048]
 2634              		.loc 1 978 23 view .LVU793
 2635 007c 104A     		ldr	r2, .L165
 2636              		.loc 1 976 16 view .LVU794
 2637 007e 1149     		ldr	r1, .L165+4
 2638              		.loc 1 968 46 view .LVU795
 2639 0080 23F4FE63 		bic	r3, r3, #2032
 2640              		.loc 1 968 14 view .LVU796
 2641 0084 C5F80038 		str	r3, [r5, #2048]
 2642              		.loc 1 971 3 is_stmt 1 view .LVU797
 2643              		.loc 1 971 18 is_stmt 0 view .LVU798
 2644 0088 AB69     		ldr	r3, [r5, #24]
 2645 008a 43F44023 		orr	r3, r3, #786432
 2646 008e 43F01003 		orr	r3, r3, #16
 2647 0092 AB61     		str	r3, [r5, #24]
 2648              		.loc 1 972 3 is_stmt 1 view .LVU799
 2649              		.loc 1 972 19 is_stmt 0 view .LVU800
 2650 0094 0923     		movs	r3, #9
 2651 0096 C5F81038 		str	r3, [r5, #2064]
 2652              		.loc 1 973 3 is_stmt 1 view .LVU801
 2653              		.loc 1 973 19 is_stmt 0 view .LVU802
 2654 009a C5F81438 		str	r3, [r5, #2068]
 2655              		.loc 1 976 3 is_stmt 1 view .LVU803
 2656              		.loc 1 976 16 is_stmt 0 view .LVU804
 2657 009e F160     		str	r1, [r6, #12]
 2658              		.loc 1 977 3 is_stmt 1 view .LVU805
 2659              		.loc 1 977 24 is_stmt 0 view .LVU806
 2660 00a0 C5F8104B 		str	r4, [r5, #2832]
 2661              		.loc 1 978 3 is_stmt 1 view .LVU807
 2662              		.loc 1 978 23 is_stmt 0 view .LVU808
 2663 00a4 C5F8002B 		str	r2, [r5, #2816]
 2664              		.loc 1 980 3 is_stmt 1 view .LVU809
 2665              		.loc 1 980 24 is_stmt 0 view .LVU810
 2666 00a8 C5F81049 		str	r4, [r5, #2320]
 2667              		.loc 1 981 3 is_stmt 1 view .LVU811
 2668              		.loc 1 981 23 is_stmt 0 view .LVU812
 2669 00ac C5F80029 		str	r2, [r5, #2304]
 2670              		.loc 1 983 3 is_stmt 1 view .LVU813
 2671              	.LVL160:
 2672              	.LBB808:
 2673              	.LBI808:
 2674              		.loc 1 209 17 view .LVU814
 2675              	.LBB809:
 2676              		.loc 1 210 3 view .LVU815
 2677              		.loc 1 212 3 view .LVU816
 2678              		.loc 1 212 8 is_stmt 0 view .LVU817
 2679 00b0 B36D     		ldr	r3, [r6, #88]
ARM GAS  C:\Users\USER\AppData\Local\Temp\ccRejSya.s 			page 48


 2680              	.LVL161:
 2681              		.loc 1 213 3 is_stmt 1 view .LVU818
 2682              		.loc 1 213 16 is_stmt 0 view .LVU819
 2683 00b2 03F11002 		add	r2, r3, #16
 2684              	.LBE809:
 2685              	.LBE808:
 2686              		.loc 1 983 63 view .LVU820
 2687 00b6 43F48013 		orr	r3, r3, #1048576
 2688              	.LVL162:
 2689              	.LBB811:
 2690              	.LBB810:
 2691              		.loc 1 213 16 view .LVU821
 2692 00ba B265     		str	r2, [r6, #88]
 2693              	.LVL163:
 2694              		.loc 1 214 3 is_stmt 1 view .LVU822
 2695              		.loc 1 214 3 view .LVU823
 2696              		.loc 1 216 3 view .LVU824
 2697              		.loc 1 216 3 is_stmt 0 view .LVU825
 2698              	.LBE810:
 2699              	.LBE811:
 2700              		.loc 1 983 18 view .LVU826
 2701 00bc AB62     		str	r3, [r5, #40]
 2702              		.loc 1 986 1 view .LVU827
 2703 00be F8BD     		pop	{r3, r4, r5, r6, r7, pc}
 2704              	.LVL164:
 2705              	.L166:
 2706              		.loc 1 986 1 view .LVU828
 2707              		.align	2
 2708              	.L165:
 2709 00c0 40800010 		.word	268468288
 2710 00c4 00000000 		.word	.LANCHOR2
 2711              		.cfi_endproc
 2712              	.LFE277:
 2713              		.size	usb_lld_reset, .-usb_lld_reset
 2714              		.section	.text.usb_lld_set_address,"ax",%progbits
 2715              		.align	1
 2716              		.p2align 4,,15
 2717              		.global	usb_lld_set_address
 2718              		.syntax unified
 2719              		.thumb
 2720              		.thumb_func
 2721              		.fpu fpv4-sp-d16
 2722              		.type	usb_lld_set_address, %function
 2723              	usb_lld_set_address:
 2724              	.LVL165:
 2725              	.LFB278:
 2726              		.loc 1 995 43 is_stmt 1 view -0
 2727              		.cfi_startproc
 2728              		@ args = 0, pretend = 0, frame = 0
 2729              		@ frame_needed = 0, uses_anonymous_args = 0
 2730              		@ link register save eliminated.
 2731              		.loc 1 996 3 view .LVU830
 2732              		.loc 1 996 16 is_stmt 0 view .LVU831
 2733 0000 026D     		ldr	r2, [r0, #80]
 2734              	.LVL166:
 2735              		.loc 1 998 3 is_stmt 1 view .LVU832
 2736              		.loc 1 998 48 is_stmt 0 view .LVU833
ARM GAS  C:\Users\USER\AppData\Local\Temp\ccRejSya.s 			page 49


 2737 0002 90F84E10 		ldrb	r1, [r0, #78]	@ zero_extendqisi2
 2738              		.loc 1 998 21 view .LVU834
 2739 0006 D2F80038 		ldr	r3, [r2, #2048]
 2740              		.loc 1 998 28 view .LVU835
 2741 000a 23F4FE63 		bic	r3, r3, #2032
 2742              		.loc 1 998 46 view .LVU836
 2743 000e 43EA0113 		orr	r3, r3, r1, lsl #4
 2744              		.loc 1 998 14 view .LVU837
 2745 0012 C2F80038 		str	r3, [r2, #2048]
 2746              		.loc 1 999 1 view .LVU838
 2747 0016 7047     		bx	lr
 2748              		.cfi_endproc
 2749              	.LFE278:
 2750              		.size	usb_lld_set_address, .-usb_lld_set_address
 2751              		.section	.text.usb_lld_init_endpoint,"ax",%progbits
 2752              		.align	1
 2753              		.p2align 4,,15
 2754              		.global	usb_lld_init_endpoint
 2755              		.syntax unified
 2756              		.thumb
 2757              		.thumb_func
 2758              		.fpu fpv4-sp-d16
 2759              		.type	usb_lld_init_endpoint, %function
 2760              	usb_lld_init_endpoint:
 2761              	.LVL167:
 2762              	.LFB279:
 2763              		.loc 1 1009 57 is_stmt 1 view -0
 2764              		.cfi_startproc
 2765              		@ args = 0, pretend = 0, frame = 0
 2766              		@ frame_needed = 0, uses_anonymous_args = 0
 2767              		.loc 1 1009 57 is_stmt 0 view .LVU840
 2768 0000 2DE9F843 		push	{r3, r4, r5, r6, r7, r8, r9, lr}
 2769              		.cfi_def_cfa_offset 32
 2770              		.cfi_offset 3, -32
 2771              		.cfi_offset 4, -28
 2772              		.cfi_offset 5, -24
 2773              		.cfi_offset 6, -20
 2774              		.cfi_offset 7, -16
 2775              		.cfi_offset 8, -12
 2776              		.cfi_offset 9, -8
 2777              		.cfi_offset 14, -4
 2778 0004 0EB2     		sxth	r6, r1
 2779 0006 00EB8607 		add	r7, r0, r6, lsl #2
 2780              		.loc 1 1011 16 view .LVU841
 2781 000a 046D     		ldr	r4, [r0, #80]
 2782              		.loc 1 1014 20 view .LVU842
 2783 000c FB68     		ldr	r3, [r7, #12]
 2784 000e DFF82C81 		ldr	r8, .L179+4
 2785              		.loc 1 1014 34 view .LVU843
 2786 0012 1A68     		ldr	r2, [r3]
 2787              		.loc 1 1033 6 view .LVU844
 2788 0014 D3F80CE0 		ldr	lr, [r3, #12]
 2789              		.loc 1 1009 57 view .LVU845
 2790 0018 0D46     		mov	r5, r1
 2791              		.loc 1 1010 3 is_stmt 1 view .LVU846
 2792              		.loc 1 1011 3 view .LVU847
 2793              	.LVL168:
ARM GAS  C:\Users\USER\AppData\Local\Temp\ccRejSya.s 			page 50


 2794              		.loc 1 1014 3 view .LVU848
 2795              		.loc 1 1032 25 is_stmt 0 view .LVU849
 2796 001a 4901     		lsls	r1, r1, #5
 2797              	.LVL169:
 2798              		.loc 1 1014 34 view .LVU850
 2799 001c 02F00302 		and	r2, r2, #3
 2800              		.loc 1 1032 25 view .LVU851
 2801 0020 04EB010C 		add	ip, r4, r1
 2802 0024 4FF00009 		mov	r9, #0
 2803 0028 58F82280 		ldr	r8, [r8, r2, lsl #2]
 2804              	.LVL170:
 2805              		.loc 1 1032 3 is_stmt 1 view .LVU852
 2806              		.loc 1 1032 25 is_stmt 0 view .LVU853
 2807 002c CCF8109B 		str	r9, [ip, #2832]
 2808              		.loc 1 1033 3 is_stmt 1 view .LVU854
 2809 0030 05F11002 		add	r2, r5, #16
 2810 0034 4FF0010C 		mov	ip, #1
 2811 0038 0CFA02F2 		lsl	r2, ip, r2
 2812              		.loc 1 1033 6 is_stmt 0 view .LVU855
 2813 003c BEF1000F 		cmp	lr, #0
 2814 0040 6AD0     		beq	.L169
 2815              		.loc 1 1034 5 is_stmt 1 view .LVU856
 2816              		.loc 1 1034 34 is_stmt 0 view .LVU857
 2817 0042 B3F812E0 		ldrh	lr, [r3, #18]
 2818              		.loc 1 1034 26 view .LVU858
 2819 0046 05F1580C 		add	ip, r5, #88
 2820 004a 4FEA4C1C 		lsl	ip, ip, #5
 2821              		.loc 1 1034 32 view .LVU859
 2822 004e 4EEA080E 		orr	lr, lr, r8
 2823              		.loc 1 1034 26 view .LVU860
 2824 0052 44F80CE0 		str	lr, [r4, ip]
 2825              		.loc 1 1035 5 is_stmt 1 view .LVU861
 2826              		.loc 1 1035 20 is_stmt 0 view .LVU862
 2827 0056 D4F81CC8 		ldr	ip, [r4, #2076]
 2828 005a 4CEA0202 		orr	r2, ip, r2
 2829 005e C4F81C28 		str	r2, [r4, #2076]
 2830              	.L170:
 2831              		.loc 1 1043 3 is_stmt 1 view .LVU863
 2832              		.loc 1 1043 25 is_stmt 0 view .LVU864
 2833 0062 2144     		add	r1, r1, r4
 2834              		.loc 1 1044 6 view .LVU865
 2835 0064 D3F808E0 		ldr	lr, [r3, #8]
 2836              		.loc 1 1043 25 view .LVU866
 2837 0068 4FF0000C 		mov	ip, #0
 2838 006c AA01     		lsls	r2, r5, #6
 2839 006e C1F810C9 		str	ip, [r1, #2320]
 2840              		.loc 1 1044 3 is_stmt 1 view .LVU867
 2841 0072 42F0200C 		orr	ip, r2, #32
 2842 0076 6A1E     		subs	r2, r5, #1
 2843              		.loc 1 1044 6 is_stmt 0 view .LVU868
 2844 0078 BEF1000F 		cmp	lr, #0
 2845 007c 2BD0     		beq	.L171
 2846              		.loc 1 1046 5 is_stmt 1 view .LVU869
 2847              		.loc 1 1047 22 is_stmt 0 view .LVU870
 2848 007e 9E8B     		ldrh	r6, [r3, #28]
 2849              		.loc 1 1046 39 view .LVU871
 2850 0080 198A     		ldrh	r1, [r3, #16]
ARM GAS  C:\Users\USER\AppData\Local\Temp\ccRejSya.s 			page 51


 2851              		.loc 1 1047 8 view .LVU872
 2852 0082 012E     		cmp	r6, #1
 2853              		.loc 1 1046 11 view .LVU873
 2854 0084 4FEA9103 		lsr	r3, r1, #2
 2855              	.LVL171:
 2856              		.loc 1 1047 5 is_stmt 1 view .LVU874
 2857              		.loc 1 1048 7 view .LVU875
 2858              		.loc 1 1049 27 is_stmt 0 view .LVU876
 2859 0088 02F14002 		add	r2, r2, #64
 2860              	.LBB812:
 2861              	.LBB813:
 2862              		.loc 1 212 8 view .LVU877
 2863 008c 816D     		ldr	r1, [r0, #88]
 2864              	.LBE813:
 2865              	.LBE812:
 2866              		.loc 1 1048 13 view .LVU878
 2867 008e 88BF     		it	hi
 2868 0090 7343     		mulhi	r3, r6, r3
 2869              	.LVL172:
 2870              		.loc 1 1049 5 is_stmt 1 view .LVU879
 2871              	.LBB817:
 2872              	.LBI812:
 2873              		.loc 1 209 17 view .LVU880
 2874              	.LBB814:
 2875              		.loc 1 210 3 view .LVU881
 2876              		.loc 1 212 3 view .LVU882
 2877              		.loc 1 213 3 view .LVU883
 2878              	.LBE814:
 2879              	.LBE817:
 2880              		.loc 1 1049 27 is_stmt 0 view .LVU884
 2881 0092 04EB8202 		add	r2, r4, r2, lsl #2
 2882              	.LBB818:
 2883              	.LBB815:
 2884              		.loc 1 213 16 view .LVU885
 2885 0096 5E18     		adds	r6, r3, r1
 2886              	.LBE815:
 2887              	.LBE818:
 2888              		.loc 1 1049 53 view .LVU886
 2889 0098 41EA0343 		orr	r3, r1, r3, lsl #16
 2890              	.LVL173:
 2891              	.LBB819:
 2892              	.LBB816:
 2893              		.loc 1 213 16 view .LVU887
 2894 009c 8665     		str	r6, [r0, #88]
 2895              		.loc 1 214 3 is_stmt 1 view .LVU888
 2896              		.loc 1 214 3 view .LVU889
 2897              		.loc 1 216 3 view .LVU890
 2898              	.LVL174:
 2899              		.loc 1 216 3 is_stmt 0 view .LVU891
 2900              	.LBE816:
 2901              	.LBE819:
 2902              		.loc 1 1049 27 view .LVU892
 2903 009e 5360     		str	r3, [r2, #4]
 2904              		.loc 1 1051 5 is_stmt 1 view .LVU893
 2905              	.LVL175:
 2906              	.LBB820:
 2907              	.LBI820:
ARM GAS  C:\Users\USER\AppData\Local\Temp\ccRejSya.s 			page 52


 2908              		.loc 1 179 13 view .LVU894
 2909              	.LBB821:
 2910              		.loc 1 180 3 view .LVU895
 2911              		.loc 1 182 3 view .LVU896
 2912              		.loc 1 182 17 is_stmt 0 view .LVU897
 2913 00a0 C4F810C0 		str	ip, [r4, #16]
 2914              		.loc 1 183 3 is_stmt 1 view .LVU898
 2915              	.L173:
 2916              		.loc 1 184 5 view .LVU899
 2917              		.loc 1 183 15 is_stmt 0 view .LVU900
 2918 00a4 2369     		ldr	r3, [r4, #16]
 2919              		.loc 1 183 9 view .LVU901
 2920 00a6 9A06     		lsls	r2, r3, #26
 2921 00a8 FCD4     		bmi	.L173
 2922              		.loc 1 186 3 is_stmt 1 view .LVU902
 2923              	.LVL176:
 2924              	.LBB822:
 2925              	.LBI822:
 2926              		.loc 3 571 20 view .LVU903
 2927              	.LBB823:
 2928              		.loc 3 573 3 view .LVU904
 2929 00aa 0C20     		movs	r0, #12
 2930              	.LVL177:
 2931              		.loc 3 573 3 is_stmt 0 view .LVU905
 2932 00ac FFF7FEFF 		bl	chSysPolledDelayX
 2933              	.LVL178:
 2934              		.loc 3 573 3 view .LVU906
 2935              	.LBE823:
 2936              	.LBE822:
 2937              	.LBE821:
 2938              	.LBE820:
 2939              		.loc 1 1053 5 is_stmt 1 view .LVU907
 2940              		.loc 1 1055 28 is_stmt 0 view .LVU908
 2941 00b0 FB68     		ldr	r3, [r7, #12]
 2942 00b2 1B8A     		ldrh	r3, [r3, #16]
 2943              		.loc 1 1053 26 view .LVU909
 2944 00b4 05F14802 		add	r2, r5, #72
 2945              		.loc 1 1054 47 view .LVU910
 2946 00b8 43EA8553 		orr	r3, r3, r5, lsl #22
 2947              		.loc 1 1053 26 view .LVU911
 2948 00bc 5201     		lsls	r2, r2, #5
 2949              		.loc 1 1054 47 view .LVU912
 2950 00be 43EA0803 		orr	r3, r3, r8
 2951              		.loc 1 1053 26 view .LVU913
 2952 00c2 A350     		str	r3, [r4, r2]
 2953              		.loc 1 1056 5 is_stmt 1 view .LVU914
 2954              		.loc 1 1056 23 is_stmt 0 view .LVU915
 2955 00c4 0121     		movs	r1, #1
 2956              		.loc 1 1056 20 view .LVU916
 2957 00c6 D4F81C38 		ldr	r3, [r4, #2076]
 2958              		.loc 1 1056 23 view .LVU917
 2959 00ca A940     		lsls	r1, r1, r5
 2960              		.loc 1 1056 20 view .LVU918
 2961 00cc 1943     		orrs	r1, r1, r3
 2962 00ce C4F81C18 		str	r1, [r4, #2076]
 2963              		.loc 1 1064 1 view .LVU919
 2964 00d2 BDE8F883 		pop	{r3, r4, r5, r6, r7, r8, r9, pc}
ARM GAS  C:\Users\USER\AppData\Local\Temp\ccRejSya.s 			page 53


 2965              	.LVL179:
 2966              	.L171:
 2967              		.loc 1 1059 5 is_stmt 1 view .LVU920
 2968              		.loc 1 1059 27 is_stmt 0 view .LVU921
 2969 00d6 05F13F03 		add	r3, r5, #63
 2970 00da 04EB8303 		add	r3, r4, r3, lsl #2
 2971 00de 164A     		ldr	r2, .L179
 2972 00e0 5A60     		str	r2, [r3, #4]
 2973              		.loc 1 1060 5 is_stmt 1 view .LVU922
 2974              	.LVL180:
 2975              	.LBB824:
 2976              	.LBI824:
 2977              		.loc 1 179 13 view .LVU923
 2978              	.LBB825:
 2979              		.loc 1 180 3 view .LVU924
 2980              		.loc 1 182 3 view .LVU925
 2981              		.loc 1 182 17 is_stmt 0 view .LVU926
 2982 00e2 C4F810C0 		str	ip, [r4, #16]
 2983              		.loc 1 183 3 is_stmt 1 view .LVU927
 2984              	.L175:
 2985              		.loc 1 184 5 view .LVU928
 2986              		.loc 1 183 15 is_stmt 0 view .LVU929
 2987 00e6 2369     		ldr	r3, [r4, #16]
 2988              		.loc 1 183 9 view .LVU930
 2989 00e8 9B06     		lsls	r3, r3, #26
 2990 00ea FCD4     		bmi	.L175
 2991              		.loc 1 186 3 is_stmt 1 view .LVU931
 2992              	.LVL181:
 2993              	.LBB826:
 2994              	.LBI826:
 2995              		.loc 3 571 20 view .LVU932
 2996              	.LBB827:
 2997              		.loc 3 573 3 view .LVU933
 2998 00ec 04EB4616 		add	r6, r4, r6, lsl #5
 2999 00f0 0C20     		movs	r0, #12
 3000              	.LVL182:
 3001              		.loc 3 573 3 is_stmt 0 view .LVU934
 3002 00f2 FFF7FEFF 		bl	chSysPolledDelayX
 3003              	.LVL183:
 3004              		.loc 3 573 3 view .LVU935
 3005              	.LBE827:
 3006              	.LBE826:
 3007              	.LBE825:
 3008              	.LBE824:
 3009              		.loc 1 1061 5 is_stmt 1 view .LVU936
 3010              		.loc 1 1061 26 is_stmt 0 view .LVU937
 3011 00f6 D6F80039 		ldr	r3, [r6, #2304]
 3012 00fa 23F40043 		bic	r3, r3, #32768
 3013 00fe C6F80039 		str	r3, [r6, #2304]
 3014              		.loc 1 1062 5 is_stmt 1 view .LVU938
 3015              		.loc 1 1062 20 is_stmt 0 view .LVU939
 3016 0102 D4F81C38 		ldr	r3, [r4, #2076]
 3017              		.loc 1 1062 24 view .LVU940
 3018 0106 0122     		movs	r2, #1
 3019 0108 02FA05F5 		lsl	r5, r2, r5
 3020              		.loc 1 1062 20 view .LVU941
 3021 010c 23EA0503 		bic	r3, r3, r5
ARM GAS  C:\Users\USER\AppData\Local\Temp\ccRejSya.s 			page 54


 3022 0110 C4F81C38 		str	r3, [r4, #2076]
 3023              		.loc 1 1064 1 view .LVU942
 3024 0114 BDE8F883 		pop	{r3, r4, r5, r6, r7, r8, r9, pc}
 3025              	.LVL184:
 3026              	.L169:
 3027              		.loc 1 1038 5 is_stmt 1 view .LVU943
 3028 0118 04EB461E 		add	lr, r4, r6, lsl #5
 3029              		.loc 1 1038 26 is_stmt 0 view .LVU944
 3030 011c DEF800CB 		ldr	ip, [lr, #2816]
 3031 0120 2CF4004C 		bic	ip, ip, #32768
 3032 0124 CEF800CB 		str	ip, [lr, #2816]
 3033              		.loc 1 1039 5 is_stmt 1 view .LVU945
 3034              		.loc 1 1039 20 is_stmt 0 view .LVU946
 3035 0128 D4F81CC8 		ldr	ip, [r4, #2076]
 3036 012c 2CEA0202 		bic	r2, ip, r2
 3037 0130 C4F81C28 		str	r2, [r4, #2076]
 3038 0134 95E7     		b	.L170
 3039              	.L180:
 3040 0136 00BF     		.align	2
 3041              	.L179:
 3042 0138 00040002 		.word	33555456
 3043 013c 00000000 		.word	.LANCHOR3
 3044              		.cfi_endproc
 3045              	.LFE279:
 3046              		.size	usb_lld_init_endpoint, .-usb_lld_init_endpoint
 3047              		.section	.text.usb_lld_disable_endpoints,"ax",%progbits
 3048              		.align	1
 3049              		.p2align 4,,15
 3050              		.global	usb_lld_disable_endpoints
 3051              		.syntax unified
 3052              		.thumb
 3053              		.thumb_func
 3054              		.fpu fpv4-sp-d16
 3055              		.type	usb_lld_disable_endpoints, %function
 3056              	usb_lld_disable_endpoints:
 3057              	.LVL185:
 3058              	.LFB280:
 3059              		.loc 1 1073 49 is_stmt 1 view -0
 3060              		.cfi_startproc
 3061              		@ args = 0, pretend = 0, frame = 0
 3062              		@ frame_needed = 0, uses_anonymous_args = 0
 3063              		@ link register save eliminated.
 3064              		.loc 1 1076 3 view .LVU948
 3065              		.loc 1 1073 49 is_stmt 0 view .LVU949
 3066 0000 0346     		mov	r3, r0
 3067              		.loc 1 1079 3 view .LVU950
 3068 0002 D0E91401 		ldrd	r0, r1, [r0, #80]
 3069              	.LVL186:
 3070              	.LBB828:
 3071              	.LBB829:
 3072              		.loc 1 198 33 view .LVU951
 3073 0006 0A68     		ldr	r2, [r1]
 3074              		.loc 1 198 16 view .LVU952
 3075 0008 9A65     		str	r2, [r3, #88]
 3076              	.LBE829:
 3077              	.LBE828:
 3078              		.loc 1 1079 3 is_stmt 1 view .LVU953
ARM GAS  C:\Users\USER\AppData\Local\Temp\ccRejSya.s 			page 55


 3079 000a FFF7FEBF 		b	otg_disable_ep.isra.0
 3080              	.LVL187:
 3081              		.loc 1 1079 3 is_stmt 0 view .LVU954
 3082              		.cfi_endproc
 3083              	.LFE280:
 3084              		.size	usb_lld_disable_endpoints, .-usb_lld_disable_endpoints
 3085 000e 00BF     		.section	.text.usb_lld_get_status_out,"ax",%progbits
 3086              		.align	1
 3087              		.p2align 4,,15
 3088              		.global	usb_lld_get_status_out
 3089              		.syntax unified
 3090              		.thumb
 3091              		.thumb_func
 3092              		.fpu fpv4-sp-d16
 3093              		.type	usb_lld_get_status_out, %function
 3094              	usb_lld_get_status_out:
 3095              	.LVL188:
 3096              	.LFB281:
 3097              		.loc 1 1094 67 is_stmt 1 view -0
 3098              		.cfi_startproc
 3099              		@ args = 0, pretend = 0, frame = 0
 3100              		@ frame_needed = 0, uses_anonymous_args = 0
 3101              		@ link register save eliminated.
 3102              		.loc 1 1095 3 view .LVU956
 3103              		.loc 1 1097 3 view .LVU957
 3104              		.loc 1 1099 3 view .LVU958
 3105              		.loc 1 1099 7 is_stmt 0 view .LVU959
 3106 0000 5831     		adds	r1, r1, #88
 3107              	.LVL189:
 3108              		.loc 1 1099 13 view .LVU960
 3109 0002 036D     		ldr	r3, [r0, #80]
 3110              		.loc 1 1099 7 view .LVU961
 3111 0004 4901     		lsls	r1, r1, #5
 3112 0006 5B58     		ldr	r3, [r3, r1]
 3113              	.LVL190:
 3114              		.loc 1 1100 3 is_stmt 1 view .LVU962
 3115              		.loc 1 1100 6 is_stmt 0 view .LVU963
 3116 0008 13F40040 		ands	r0, r3, #32768
 3117              	.LVL191:
 3118              		.loc 1 1100 6 view .LVU964
 3119 000c 04D0     		beq	.L183
 3120              		.loc 1 1102 3 is_stmt 1 view .LVU965
 3121              		.loc 1 1102 6 is_stmt 0 view .LVU966
 3122 000e 13F4001F 		tst	r3, #2097152
 3123              		.loc 1 1103 12 view .LVU967
 3124 0012 0CBF     		ite	eq
 3125 0014 0220     		moveq	r0, #2
 3126 0016 0120     		movne	r0, #1
 3127              	.L183:
 3128              		.loc 1 1105 1 view .LVU968
 3129 0018 7047     		bx	lr
 3130              		.cfi_endproc
 3131              	.LFE281:
 3132              		.size	usb_lld_get_status_out, .-usb_lld_get_status_out
 3133 001a 00BF     		.section	.text.usb_lld_get_status_in,"ax",%progbits
 3134              		.align	1
 3135              		.p2align 4,,15
ARM GAS  C:\Users\USER\AppData\Local\Temp\ccRejSya.s 			page 56


 3136              		.global	usb_lld_get_status_in
 3137              		.syntax unified
 3138              		.thumb
 3139              		.thumb_func
 3140              		.fpu fpv4-sp-d16
 3141              		.type	usb_lld_get_status_in, %function
 3142              	usb_lld_get_status_in:
 3143              	.LVL192:
 3144              	.LFB282:
 3145              		.loc 1 1119 66 is_stmt 1 view -0
 3146              		.cfi_startproc
 3147              		@ args = 0, pretend = 0, frame = 0
 3148              		@ frame_needed = 0, uses_anonymous_args = 0
 3149              		@ link register save eliminated.
 3150              		.loc 1 1120 3 view .LVU970
 3151              		.loc 1 1122 3 view .LVU971
 3152              		.loc 1 1124 3 view .LVU972
 3153              		.loc 1 1124 7 is_stmt 0 view .LVU973
 3154 0000 4831     		adds	r1, r1, #72
 3155              	.LVL193:
 3156              		.loc 1 1124 13 view .LVU974
 3157 0002 036D     		ldr	r3, [r0, #80]
 3158              		.loc 1 1124 7 view .LVU975
 3159 0004 4901     		lsls	r1, r1, #5
 3160 0006 5B58     		ldr	r3, [r3, r1]
 3161              	.LVL194:
 3162              		.loc 1 1125 3 is_stmt 1 view .LVU976
 3163              		.loc 1 1125 6 is_stmt 0 view .LVU977
 3164 0008 13F40040 		ands	r0, r3, #32768
 3165              	.LVL195:
 3166              		.loc 1 1125 6 view .LVU978
 3167 000c 04D0     		beq	.L187
 3168              		.loc 1 1127 3 is_stmt 1 view .LVU979
 3169              		.loc 1 1127 6 is_stmt 0 view .LVU980
 3170 000e 13F4001F 		tst	r3, #2097152
 3171              		.loc 1 1128 12 view .LVU981
 3172 0012 0CBF     		ite	eq
 3173 0014 0220     		moveq	r0, #2
 3174 0016 0120     		movne	r0, #1
 3175              	.L187:
 3176              		.loc 1 1130 1 view .LVU982
 3177 0018 7047     		bx	lr
 3178              		.cfi_endproc
 3179              	.LFE282:
 3180              		.size	usb_lld_get_status_in, .-usb_lld_get_status_in
 3181 001a 00BF     		.section	.text.usb_lld_read_setup,"ax",%progbits
 3182              		.align	1
 3183              		.p2align 4,,15
 3184              		.global	usb_lld_read_setup
 3185              		.syntax unified
 3186              		.thumb
 3187              		.thumb_func
 3188              		.fpu fpv4-sp-d16
 3189              		.type	usb_lld_read_setup, %function
 3190              	usb_lld_read_setup:
 3191              	.LVL196:
 3192              	.LFB283:
ARM GAS  C:\Users\USER\AppData\Local\Temp\ccRejSya.s 			page 57


 3193              		.loc 1 1146 68 is_stmt 1 view -0
 3194              		.cfi_startproc
 3195              		@ args = 0, pretend = 0, frame = 0
 3196              		@ frame_needed = 0, uses_anonymous_args = 0
 3197              		@ link register save eliminated.
 3198              		.loc 1 1148 3 view .LVU984
 3199              		.loc 1 1148 24 is_stmt 0 view .LVU985
 3200 0000 00EB8101 		add	r1, r0, r1, lsl #2
 3201              	.LVL197:
 3202              		.loc 1 1148 28 view .LVU986
 3203 0004 CB68     		ldr	r3, [r1, #12]
 3204              		.loc 1 1148 3 view .LVU987
 3205 0006 1B6A     		ldr	r3, [r3, #32]
 3206 0008 1968     		ldr	r1, [r3]	@ unaligned
 3207 000a 5B68     		ldr	r3, [r3, #4]	@ unaligned
 3208 000c 5360     		str	r3, [r2, #4]	@ unaligned
 3209 000e 1160     		str	r1, [r2]	@ unaligned
 3210              		.loc 1 1149 1 view .LVU988
 3211 0010 7047     		bx	lr
 3212              		.cfi_endproc
 3213              	.LFE283:
 3214              		.size	usb_lld_read_setup, .-usb_lld_read_setup
 3215 0012 00BF     		.section	.text.usb_lld_prepare_receive,"ax",%progbits
 3216              		.align	1
 3217              		.p2align 4,,15
 3218              		.global	usb_lld_prepare_receive
 3219              		.syntax unified
 3220              		.thumb
 3221              		.thumb_func
 3222              		.fpu fpv4-sp-d16
 3223              		.type	usb_lld_prepare_receive, %function
 3224              	usb_lld_prepare_receive:
 3225              	.LVL198:
 3226              	.LFB284:
 3227              		.loc 1 1159 59 is_stmt 1 view -0
 3228              		.cfi_startproc
 3229              		@ args = 0, pretend = 0, frame = 0
 3230              		@ frame_needed = 0, uses_anonymous_args = 0
 3231              		@ link register save eliminated.
 3232              		.loc 1 1160 3 view .LVU990
 3233              		.loc 1 1161 3 view .LVU991
 3234              		.loc 1 1161 39 is_stmt 0 view .LVU992
 3235 0000 00EB8103 		add	r3, r0, r1, lsl #2
 3236              		.loc 1 1159 59 view .LVU993
 3237 0004 10B4     		push	{r4}
 3238              		.cfi_def_cfa_offset 4
 3239              		.cfi_offset 4, -4
 3240              		.loc 1 1161 39 view .LVU994
 3241 0006 DC68     		ldr	r4, [r3, #12]
 3242              		.loc 1 1161 24 view .LVU995
 3243 0008 A269     		ldr	r2, [r4, #24]
 3244              	.LVL199:
 3245              		.loc 1 1164 3 is_stmt 1 view .LVU996
 3246              		.loc 1 1164 21 is_stmt 0 view .LVU997
 3247 000a 5368     		ldr	r3, [r2, #4]
 3248              		.loc 1 1164 16 view .LVU998
 3249 000c 1361     		str	r3, [r2, #16]
ARM GAS  C:\Users\USER\AppData\Local\Temp\ccRejSya.s 			page 58


 3250              		.loc 1 1165 3 is_stmt 1 view .LVU999
 3251              		.loc 1 1165 6 is_stmt 0 view .LVU1000
 3252 000e 19B9     		cbnz	r1, .L192
 3253              		.loc 1 1165 17 discriminator 1 view .LVU1001
 3254 0010 402B     		cmp	r3, #64
 3255              		.loc 1 1166 7 is_stmt 1 discriminator 1 view .LVU1002
 3256              		.loc 1 1166 19 is_stmt 0 discriminator 1 view .LVU1003
 3257 0012 84BF     		itt	hi
 3258 0014 4023     		movhi	r3, #64
 3259 0016 5360     		strhi	r3, [r2, #4]
 3260              	.L192:
 3261              		.loc 1 1168 3 is_stmt 1 view .LVU1004
 3262              		.loc 1 1168 38 is_stmt 0 view .LVU1005
 3263 0018 648A     		ldrh	r4, [r4, #18]
 3264              	.LVL200:
 3265              		.loc 1 1170 3 is_stmt 1 view .LVU1006
 3266              		.loc 1 1170 7 is_stmt 0 view .LVU1007
 3267 001a 006D     		ldr	r0, [r0, #80]
 3268              	.LVL201:
 3269              		.loc 1 1168 52 view .LVU1008
 3270 001c 621E     		subs	r2, r4, #1
 3271              	.LVL202:
 3272              		.loc 1 1168 52 view .LVU1009
 3273 001e 1A44     		add	r2, r2, r3
 3274              		.loc 1 1170 30 view .LVU1010
 3275 0020 00EB4110 		add	r0, r0, r1, lsl #5
 3276              		.loc 1 1168 8 view .LVU1011
 3277 0024 B2FBF4F2 		udiv	r2, r2, r4
 3278              		.loc 1 1170 76 view .LVU1012
 3279 0028 43EAC243 		orr	r3, r3, r2, lsl #19
 3280              	.LVL203:
 3281              		.loc 1 1170 76 view .LVU1013
 3282 002c 43F0C043 		orr	r3, r3, #1610612736
 3283              		.loc 1 1170 30 view .LVU1014
 3284 0030 C0F8103B 		str	r3, [r0, #2832]
 3285              		.loc 1 1173 1 view .LVU1015
 3286 0034 5DF8044B 		ldr	r4, [sp], #4
 3287              		.cfi_restore 4
 3288              		.cfi_def_cfa_offset 0
 3289 0038 7047     		bx	lr
 3290              		.cfi_endproc
 3291              	.LFE284:
 3292              		.size	usb_lld_prepare_receive, .-usb_lld_prepare_receive
 3293 003a 00BF     		.section	.text.otg_epout_handler.constprop.7,"ax",%progbits
 3294              		.align	1
 3295              		.p2align 4,,15
 3296              		.syntax unified
 3297              		.thumb
 3298              		.thumb_func
 3299              		.fpu fpv4-sp-d16
 3300              		.type	otg_epout_handler.constprop.7, %function
 3301              	otg_epout_handler.constprop.7:
 3302              	.LVL204:
 3303              	.LFB300:
 3304              		.loc 1 581 13 is_stmt 1 view -0
 3305              		.cfi_startproc
 3306              		@ args = 0, pretend = 0, frame = 0
ARM GAS  C:\Users\USER\AppData\Local\Temp\ccRejSya.s 			page 59


 3307              		@ frame_needed = 0, uses_anonymous_args = 0
 3308              		.loc 1 582 3 view .LVU1017
 3309              		.loc 1 581 13 is_stmt 0 view .LVU1018
 3310 0000 2DE9F041 		push	{r4, r5, r6, r7, r8, lr}
 3311              		.cfi_def_cfa_offset 24
 3312              		.cfi_offset 4, -24
 3313              		.cfi_offset 5, -20
 3314              		.cfi_offset 6, -16
 3315              		.cfi_offset 7, -12
 3316              		.cfi_offset 8, -8
 3317              		.cfi_offset 14, -4
 3318              		.loc 1 582 16 view .LVU1019
 3319 0004 244E     		ldr	r6, .L213
 3320 0006 376D     		ldr	r7, [r6, #80]
 3321              	.LVL205:
 3322              		.loc 1 583 3 is_stmt 1 view .LVU1020
 3323              		.loc 1 583 12 is_stmt 0 view .LVU1021
 3324 0008 07EB4013 		add	r3, r7, r0, lsl #5
 3325              		.loc 1 581 13 view .LVU1022
 3326 000c 0546     		mov	r5, r0
 3327              		.loc 1 583 12 view .LVU1023
 3328 000e D3F8084B 		ldr	r4, [r3, #2824]
 3329              	.LVL206:
 3330              		.loc 1 586 3 is_stmt 1 view .LVU1024
 3331              		.loc 1 586 24 is_stmt 0 view .LVU1025
 3332 0012 C3F8084B 		str	r4, [r3, #2824]
 3333              		.loc 1 588 3 is_stmt 1 view .LVU1026
 3334              		.loc 1 588 6 is_stmt 0 view .LVU1027
 3335 0016 2007     		lsls	r0, r4, #28
 3336              	.LVL207:
 3337              		.loc 1 588 6 view .LVU1028
 3338 0018 03D5     		bpl	.L195
 3339              		.loc 1 588 38 view .LVU1029
 3340 001a D7F81438 		ldr	r3, [r7, #2068]
 3341              		.loc 1 588 30 view .LVU1030
 3342 001e 1907     		lsls	r1, r3, #28
 3343 0020 32D4     		bmi	.L211
 3344              	.L195:
 3345              		.loc 1 591 39 is_stmt 1 view .LVU1031
 3346              		.loc 1 594 3 view .LVU1032
 3347              		.loc 1 594 6 is_stmt 0 view .LVU1033
 3348 0022 E207     		lsls	r2, r4, #31
 3349 0024 2ED5     		bpl	.L194
 3350              		.loc 1 594 38 view .LVU1034
 3351 0026 D7F81438 		ldr	r3, [r7, #2068]
 3352              		.loc 1 594 30 view .LVU1035
 3353 002a DB07     		lsls	r3, r3, #31
 3354 002c 2AD5     		bpl	.L194
 3355              	.LBB830:
 3356              		.loc 1 596 5 is_stmt 1 view .LVU1036
 3357              		.loc 1 596 41 is_stmt 0 view .LVU1037
 3358 002e 06EB8503 		add	r3, r6, r5, lsl #2
 3359 0032 D968     		ldr	r1, [r3, #12]
 3360              		.loc 1 596 26 view .LVU1038
 3361 0034 8B69     		ldr	r3, [r1, #24]
 3362              	.LVL208:
 3363              		.loc 1 598 5 is_stmt 1 view .LVU1039
ARM GAS  C:\Users\USER\AppData\Local\Temp\ccRejSya.s 			page 60


 3364              		.loc 1 598 12 is_stmt 0 view .LVU1040
 3365 0036 5868     		ldr	r0, [r3, #4]
 3366              		.loc 1 598 26 view .LVU1041
 3367 0038 1A69     		ldr	r2, [r3, #16]
 3368              		.loc 1 598 8 view .LVU1042
 3369 003a 9042     		cmp	r0, r2
 3370 003c 0CD3     		bcc	.L212
 3371              		.loc 1 611 7 is_stmt 1 view .LVU1043
 3372 003e 7389     		ldrh	r3, [r6, #10]
 3373              	.LVL209:
 3374              		.loc 1 611 7 is_stmt 0 view .LVU1044
 3375 0040 CC68     		ldr	r4, [r1, #12]
 3376              	.LVL210:
 3377              		.loc 1 611 7 view .LVU1045
 3378 0042 1548     		ldr	r0, .L213
 3379 0044 0122     		movs	r2, #1
 3380 0046 AA40     		lsls	r2, r2, r5
 3381 0048 23EA0203 		bic	r3, r3, r2
 3382 004c 7381     		strh	r3, [r6, #10]	@ movhi
 3383              		.loc 1 611 7 is_stmt 1 view .LVU1046
 3384 004e 2946     		mov	r1, r5
 3385              	.LVL211:
 3386              		.loc 1 611 7 is_stmt 0 view .LVU1047
 3387 0050 2346     		mov	r3, r4
 3388              	.LBE830:
 3389              		.loc 1 614 1 view .LVU1048
 3390 0052 BDE8F041 		pop	{r4, r5, r6, r7, r8, lr}
 3391              		.cfi_remember_state
 3392              		.cfi_restore 14
 3393              		.cfi_restore 8
 3394              		.cfi_restore 7
 3395              		.cfi_restore 6
 3396              		.cfi_restore 5
 3397              		.cfi_restore 4
 3398              		.cfi_def_cfa_offset 0
 3399              	.LVL212:
 3400              	.LBB855:
 3401              		.loc 1 611 7 view .LVU1049
 3402 0056 1847     		bx	r3	@ indirect register sibling call
 3403              	.LVL213:
 3404              	.L212:
 3405              		.cfi_restore_state
 3406              		.loc 1 602 7 is_stmt 1 view .LVU1050
 3407              		.loc 1 602 34 is_stmt 0 view .LVU1051
 3408 0058 121A     		subs	r2, r2, r0
 3409              		.loc 1 603 19 view .LVU1052
 3410 005a 0024     		movs	r4, #0
 3411              	.LVL214:
 3412              		.loc 1 603 19 view .LVU1053
 3413 005c C3E90124 		strd	r2, r4, [r3, #4]
 3414              		.loc 1 604 7 is_stmt 1 view .LVU1054
 3415 0060 2946     		mov	r1, r5
 3416 0062 0D48     		ldr	r0, .L213
 3417 0064 FFF7FEFF 		bl	usb_lld_prepare_receive
 3418              	.LVL215:
 3419              		.loc 1 605 7 view .LVU1055
 3420              	.LBB831:
ARM GAS  C:\Users\USER\AppData\Local\Temp\ccRejSya.s 			page 61


 3421              	.LBI831:
 3422              		.loc 4 386 20 view .LVU1056
 3423              	.LBE831:
 3424              	.LBE855:
 3425              		.loc 4 388 3 view .LVU1057
 3426              	.LBB856:
 3427              	.LBB839:
 3428              	.LBB832:
 3429              	.LBI832:
 3430              		.loc 5 473 20 view .LVU1058
 3431              	.LBE832:
 3432              	.LBE839:
 3433              	.LBE856:
 3434              		.loc 5 475 3 view .LVU1059
 3435              	.LBB857:
 3436              	.LBB840:
 3437              	.LBB837:
 3438              	.LBB833:
 3439              	.LBI833:
 3440              		.loc 5 444 20 view .LVU1060
 3441              	.LBE833:
 3442              	.LBE837:
 3443              	.LBE840:
 3444              	.LBE857:
 3445              		.loc 5 447 3 view .LVU1061
 3446              	.LBB858:
 3447              	.LBB841:
 3448              	.LBB838:
 3449              	.LBB836:
 3450              	.LBB834:
 3451              	.LBI834:
 3452              		.loc 6 544 57 view .LVU1062
 3453              	.LBB835:
 3454              		.loc 6 546 3 view .LVU1063
 3455 0068 2023     		movs	r3, #32
 3456              		.syntax unified
 3457              	@ 546 "src/ChibiOS_3.0.2/os/ext/CMSIS/include/core_cmFunc.h" 1
 3458 006a 83F31188 		MSR basepri, r3
 3459              	@ 0 "" 2
 3460              	.LVL216:
 3461              		.loc 6 546 3 is_stmt 0 view .LVU1064
 3462              		.thumb
 3463              		.syntax unified
 3464              	.LBE835:
 3465              	.LBE834:
 3466              	.LBE836:
 3467              	.LBE838:
 3468              	.LBE841:
 3469              	.LBE858:
 3470              		.loc 4 389 34 is_stmt 1 view .LVU1065
 3471              		.loc 4 390 29 view .LVU1066
 3472              	.LBB859:
 3473              		.loc 1 606 7 view .LVU1067
 3474              	.LBB842:
 3475              	.LBI842:
 3476              		.loc 1 1212 6 view .LVU1068
 3477              	.LBB843:
ARM GAS  C:\Users\USER\AppData\Local\Temp\ccRejSya.s 			page 62


 3478              		.loc 1 1214 3 view .LVU1069
 3479 006e 336D     		ldr	r3, [r6, #80]
 3480 0070 03EB4515 		add	r5, r3, r5, lsl #5
 3481              	.LVL217:
 3482              		.loc 1 1214 29 is_stmt 0 view .LVU1070
 3483 0074 D5F8003B 		ldr	r3, [r5, #2816]
 3484 0078 43F08063 		orr	r3, r3, #67108864
 3485 007c C5F8003B 		str	r3, [r5, #2816]
 3486              	.LVL218:
 3487              		.loc 1 1214 29 view .LVU1071
 3488              	.LBE843:
 3489              	.LBE842:
 3490              		.loc 1 607 7 is_stmt 1 view .LVU1072
 3491              	.LBB844:
 3492              	.LBI844:
 3493              		.loc 4 406 20 view .LVU1073
 3494              	.LBE844:
 3495              	.LBE859:
 3496              		.loc 4 408 31 view .LVU1074
 3497              		.loc 4 409 33 view .LVU1075
 3498              		.loc 4 410 3 view .LVU1076
 3499              	.LBB860:
 3500              	.LBB852:
 3501              	.LBB845:
 3502              	.LBI845:
 3503              		.loc 5 484 20 view .LVU1077
 3504              	.LBE845:
 3505              	.LBE852:
 3506              	.LBE860:
 3507              		.loc 5 486 3 view .LVU1078
 3508              	.LBB861:
 3509              	.LBB853:
 3510              	.LBB850:
 3511              	.LBB846:
 3512              	.LBI846:
 3513              		.loc 5 458 20 view .LVU1079
 3514              	.LBE846:
 3515              	.LBE850:
 3516              	.LBE853:
 3517              	.LBE861:
 3518              		.loc 5 461 3 view .LVU1080
 3519              	.LBB862:
 3520              	.LBB854:
 3521              	.LBB851:
 3522              	.LBB849:
 3523              	.LBB847:
 3524              	.LBI847:
 3525              		.loc 6 544 57 view .LVU1081
 3526              	.LBB848:
 3527              		.loc 6 546 3 view .LVU1082
 3528              		.syntax unified
 3529              	@ 546 "src/ChibiOS_3.0.2/os/ext/CMSIS/include/core_cmFunc.h" 1
 3530 0080 84F31188 		MSR basepri, r4
 3531              	@ 0 "" 2
 3532              	.LVL219:
 3533              		.thumb
 3534              		.syntax unified
ARM GAS  C:\Users\USER\AppData\Local\Temp\ccRejSya.s 			page 63


 3535              	.L194:
 3536              		.loc 6 546 3 is_stmt 0 view .LVU1083
 3537              	.LBE848:
 3538              	.LBE847:
 3539              	.LBE849:
 3540              	.LBE851:
 3541              	.LBE854:
 3542              	.LBE862:
 3543              		.loc 1 614 1 view .LVU1084
 3544 0084 BDE8F081 		pop	{r4, r5, r6, r7, r8, pc}
 3545              	.LVL220:
 3546              	.L211:
 3547              		.loc 1 591 5 is_stmt 1 view .LVU1085
 3548 0088 06EB8503 		add	r3, r6, r5, lsl #2
 3549 008c 2946     		mov	r1, r5
 3550 008e DB68     		ldr	r3, [r3, #12]
 3551 0090 3046     		mov	r0, r6
 3552 0092 5B68     		ldr	r3, [r3, #4]
 3553 0094 9847     		blx	r3
 3554              	.LVL221:
 3555 0096 C4E7     		b	.L195
 3556              	.L214:
 3557              		.align	2
 3558              	.L213:
 3559 0098 00000000 		.word	.LANCHOR0
 3560              		.cfi_endproc
 3561              	.LFE300:
 3562              		.size	otg_epout_handler.constprop.7, .-otg_epout_handler.constprop.7
 3563              		.section	.text.usb_lld_prepare_transmit,"ax",%progbits
 3564              		.align	1
 3565              		.p2align 4,,15
 3566              		.global	usb_lld_prepare_transmit
 3567              		.syntax unified
 3568              		.thumb
 3569              		.thumb_func
 3570              		.fpu fpv4-sp-d16
 3571              		.type	usb_lld_prepare_transmit, %function
 3572              	usb_lld_prepare_transmit:
 3573              	.LVL222:
 3574              	.LFB285:
 3575              		.loc 1 1183 60 view -0
 3576              		.cfi_startproc
 3577              		@ args = 0, pretend = 0, frame = 0
 3578              		@ frame_needed = 0, uses_anonymous_args = 0
 3579              		@ link register save eliminated.
 3580              		.loc 1 1184 3 view .LVU1087
 3581              		.loc 1 1184 38 is_stmt 0 view .LVU1088
 3582 0000 00EB8103 		add	r3, r0, r1, lsl #2
 3583              		.loc 1 1183 60 view .LVU1089
 3584 0004 10B4     		push	{r4}
 3585              		.cfi_def_cfa_offset 4
 3586              		.cfi_offset 4, -4
 3587              		.loc 1 1184 38 view .LVU1090
 3588 0006 DC68     		ldr	r4, [r3, #12]
 3589 0008 026D     		ldr	r2, [r0, #80]
 3590              		.loc 1 1184 23 view .LVU1091
 3591 000a 6069     		ldr	r0, [r4, #20]
ARM GAS  C:\Users\USER\AppData\Local\Temp\ccRejSya.s 			page 64


 3592              	.LVL223:
 3593              		.loc 1 1187 3 is_stmt 1 view .LVU1092
 3594              		.loc 1 1187 21 is_stmt 0 view .LVU1093
 3595 000c 4368     		ldr	r3, [r0, #4]
 3596              		.loc 1 1187 16 view .LVU1094
 3597 000e 0361     		str	r3, [r0, #16]
 3598              		.loc 1 1188 3 is_stmt 1 view .LVU1095
 3599              		.loc 1 1188 6 is_stmt 0 view .LVU1096
 3600 0010 43B9     		cbnz	r3, .L216
 3601              		.loc 1 1190 5 is_stmt 1 view .LVU1097
 3602              		.loc 1 1190 32 is_stmt 0 view .LVU1098
 3603 0012 02EB4112 		add	r2, r2, r1, lsl #5
 3604 0016 4FF40023 		mov	r3, #524288
 3605 001a C2F81039 		str	r3, [r2, #2320]
 3606              		.loc 1 1202 1 view .LVU1099
 3607 001e 5DF8044B 		ldr	r4, [sp], #4
 3608              		.cfi_remember_state
 3609              		.cfi_restore 4
 3610              		.cfi_def_cfa_offset 0
 3611 0022 7047     		bx	lr
 3612              	.L216:
 3613              		.cfi_restore_state
 3614              	.LBB863:
 3615              		.loc 1 1193 5 is_stmt 1 view .LVU1100
 3616              		.loc 1 1193 8 is_stmt 0 view .LVU1101
 3617 0024 19B9     		cbnz	r1, .L218
 3618              		.loc 1 1193 19 discriminator 1 view .LVU1102
 3619 0026 402B     		cmp	r3, #64
 3620              		.loc 1 1194 7 is_stmt 1 discriminator 1 view .LVU1103
 3621              		.loc 1 1194 19 is_stmt 0 discriminator 1 view .LVU1104
 3622 0028 84BF     		itt	hi
 3623 002a 4023     		movhi	r3, #64
 3624 002c 4360     		strhi	r3, [r0, #4]
 3625              	.L218:
 3626              		.loc 1 1197 5 is_stmt 1 view .LVU1105
 3627              		.loc 1 1197 49 is_stmt 0 view .LVU1106
 3628 002e 208A     		ldrh	r0, [r4, #16]
 3629              	.LVL224:
 3630              		.loc 1 1199 5 is_stmt 1 view .LVU1107
 3631              	.LBE863:
 3632              		.loc 1 1202 1 is_stmt 0 view .LVU1108
 3633 0030 5DF8044B 		ldr	r4, [sp], #4
 3634              		.cfi_restore 4
 3635              		.cfi_def_cfa_offset 0
 3636              	.LVL225:
 3637              	.LBB864:
 3638              		.loc 1 1199 32 view .LVU1109
 3639 0034 02EB4112 		add	r2, r2, r1, lsl #5
 3640              		.loc 1 1197 62 view .LVU1110
 3641 0038 411E     		subs	r1, r0, #1
 3642              	.LVL226:
 3643              		.loc 1 1197 62 view .LVU1111
 3644 003a 1944     		add	r1, r1, r3
 3645              		.loc 1 1197 14 view .LVU1112
 3646 003c B1FBF0F1 		udiv	r1, r1, r0
 3647              		.loc 1 1199 56 view .LVU1113
 3648 0040 43EAC143 		orr	r3, r3, r1, lsl #19
ARM GAS  C:\Users\USER\AppData\Local\Temp\ccRejSya.s 			page 65


 3649              	.LVL227:
 3650              		.loc 1 1199 32 view .LVU1114
 3651 0044 C2F81039 		str	r3, [r2, #2320]
 3652              	.LBE864:
 3653              		.loc 1 1202 1 view .LVU1115
 3654 0048 7047     		bx	lr
 3655              		.cfi_endproc
 3656              	.LFE285:
 3657              		.size	usb_lld_prepare_transmit, .-usb_lld_prepare_transmit
 3658 004a 00BF     		.section	.text.otg_epin_handler.constprop.8,"ax",%progbits
 3659              		.align	1
 3660              		.p2align 4,,15
 3661              		.syntax unified
 3662              		.thumb
 3663              		.thumb_func
 3664              		.fpu fpv4-sp-d16
 3665              		.type	otg_epin_handler.constprop.8, %function
 3666              	otg_epin_handler.constprop.8:
 3667              	.LVL228:
 3668              	.LFB299:
 3669              		.loc 1 533 13 is_stmt 1 view -0
 3670              		.cfi_startproc
 3671              		@ args = 0, pretend = 0, frame = 0
 3672              		@ frame_needed = 0, uses_anonymous_args = 0
 3673              		.loc 1 534 3 view .LVU1117
 3674              		.loc 1 533 13 is_stmt 0 view .LVU1118
 3675 0000 2DE9F041 		push	{r4, r5, r6, r7, r8, lr}
 3676              		.cfi_def_cfa_offset 24
 3677              		.cfi_offset 4, -24
 3678              		.cfi_offset 5, -20
 3679              		.cfi_offset 6, -16
 3680              		.cfi_offset 7, -12
 3681              		.cfi_offset 8, -8
 3682              		.cfi_offset 14, -4
 3683              		.loc 1 534 16 view .LVU1119
 3684 0004 304F     		ldr	r7, .L240
 3685 0006 3D6D     		ldr	r5, [r7, #80]
 3686              	.LVL229:
 3687              		.loc 1 535 3 is_stmt 1 view .LVU1120
 3688              		.loc 1 535 12 is_stmt 0 view .LVU1121
 3689 0008 05EB4013 		add	r3, r5, r0, lsl #5
 3690              		.loc 1 533 13 view .LVU1122
 3691 000c 0646     		mov	r6, r0
 3692              		.loc 1 535 12 view .LVU1123
 3693 000e D3F80849 		ldr	r4, [r3, #2312]
 3694              	.LVL230:
 3695              		.loc 1 537 3 is_stmt 1 view .LVU1124
 3696              		.loc 1 537 24 is_stmt 0 view .LVU1125
 3697 0012 C3F80849 		str	r4, [r3, #2312]
 3698              		.loc 1 539 3 is_stmt 1 view .LVU1126
 3699              		.loc 1 541 3 view .LVU1127
 3700              		.loc 1 542 3 view .LVU1128
 3701              		.loc 1 542 6 is_stmt 0 view .LVU1129
 3702 0016 E107     		lsls	r1, r4, #31
 3703 0018 03D5     		bpl	.L221
 3704              		.loc 1 542 38 view .LVU1130
 3705 001a D5F81038 		ldr	r3, [r5, #2064]
ARM GAS  C:\Users\USER\AppData\Local\Temp\ccRejSya.s 			page 66


 3706              		.loc 1 542 30 view .LVU1131
 3707 001e DA07     		lsls	r2, r3, #31
 3708 0020 0AD4     		bmi	.L237
 3709              	.LVL231:
 3710              	.L221:
 3711              	.LBB865:
 3712              		.loc 1 559 38 is_stmt 1 view .LVU1132
 3713              	.LBE865:
 3714              		.loc 1 562 3 view .LVU1133
 3715              		.loc 1 562 6 is_stmt 0 view .LVU1134
 3716 0022 2306     		lsls	r3, r4, #24
 3717 0024 06D5     		bpl	.L220
 3718              		.loc 1 563 27 view .LVU1135
 3719 0026 0123     		movs	r3, #1
 3720              		.loc 1 563 12 view .LVU1136
 3721 0028 D5F83428 		ldr	r2, [r5, #2100]
 3722              		.loc 1 563 27 view .LVU1137
 3723 002c 03FA06F6 		lsl	r6, r3, r6
 3724              		.loc 1 562 30 view .LVU1138
 3725 0030 1642     		tst	r6, r2
 3726 0032 15D1     		bne	.L238
 3727              	.L220:
 3728              		.loc 1 571 1 view .LVU1139
 3729 0034 BDE8F081 		pop	{r4, r5, r6, r7, r8, pc}
 3730              	.LVL232:
 3731              	.L237:
 3732              	.LBB900:
 3733              		.loc 1 544 5 is_stmt 1 view .LVU1140
 3734              		.loc 1 544 40 is_stmt 0 view .LVU1141
 3735 0038 07EB8003 		add	r3, r7, r0, lsl #2
 3736 003c D968     		ldr	r1, [r3, #12]
 3737              		.loc 1 544 25 view .LVU1142
 3738 003e 4B69     		ldr	r3, [r1, #20]
 3739              	.LVL233:
 3740              		.loc 1 546 5 is_stmt 1 view .LVU1143
 3741              		.loc 1 546 12 is_stmt 0 view .LVU1144
 3742 0040 5868     		ldr	r0, [r3, #4]
 3743              	.LVL234:
 3744              		.loc 1 546 26 view .LVU1145
 3745 0042 1A69     		ldr	r2, [r3, #16]
 3746              		.loc 1 546 8 view .LVU1146
 3747 0044 9042     		cmp	r0, r2
 3748 0046 20D3     		bcc	.L239
 3749              		.loc 1 559 7 is_stmt 1 view .LVU1147
 3750 0048 3B89     		ldrh	r3, [r7, #8]
 3751              	.LVL235:
 3752              		.loc 1 559 7 is_stmt 0 view .LVU1148
 3753 004a D1F80880 		ldr	r8, [r1, #8]
 3754 004e 0122     		movs	r2, #1
 3755 0050 B240     		lsls	r2, r2, r6
 3756 0052 23EA0203 		bic	r3, r3, r2
 3757 0056 3B81     		strh	r3, [r7, #8]	@ movhi
 3758              		.loc 1 559 7 is_stmt 1 view .LVU1149
 3759 0058 3146     		mov	r1, r6
 3760              	.LVL236:
 3761              		.loc 1 559 7 is_stmt 0 view .LVU1150
 3762 005a 3846     		mov	r0, r7
ARM GAS  C:\Users\USER\AppData\Local\Temp\ccRejSya.s 			page 67


 3763 005c C047     		blx	r8
 3764              	.LVL237:
 3765              		.loc 1 559 7 view .LVU1151
 3766 005e E0E7     		b	.L221
 3767              	.L238:
 3768              		.loc 1 559 7 view .LVU1152
 3769              	.LBE900:
 3770              		.loc 1 565 5 is_stmt 1 view .LVU1153
 3771              	.LBB901:
 3772              	.LBI901:
 3773              		.loc 3 513 20 view .LVU1154
 3774              	.LBE901:
 3775              		.loc 3 515 3 view .LVU1155
 3776              	.LBB913:
 3777              	.LBB902:
 3778              	.LBI902:
 3779              		.loc 4 386 20 view .LVU1156
 3780              	.LBE902:
 3781              	.LBE913:
 3782              		.loc 4 388 3 view .LVU1157
 3783              	.LBB914:
 3784              	.LBB910:
 3785              	.LBB903:
 3786              	.LBI903:
 3787              		.loc 5 473 20 view .LVU1158
 3788              	.LBE903:
 3789              	.LBE910:
 3790              	.LBE914:
 3791              		.loc 5 475 3 view .LVU1159
 3792              	.LBB915:
 3793              	.LBB911:
 3794              	.LBB908:
 3795              	.LBB904:
 3796              	.LBI904:
 3797              		.loc 5 444 20 view .LVU1160
 3798              	.LBE904:
 3799              	.LBE908:
 3800              	.LBE911:
 3801              	.LBE915:
 3802              		.loc 5 447 3 view .LVU1161
 3803              	.LVL238:
 3804              	.LBB916:
 3805              	.LBB912:
 3806              	.LBB909:
 3807              	.LBB907:
 3808              	.LBB905:
 3809              	.LBI905:
 3810              		.loc 6 544 57 view .LVU1162
 3811              	.LBB906:
 3812              		.loc 6 546 3 view .LVU1163
 3813 0060 2023     		movs	r3, #32
 3814              		.syntax unified
 3815              	@ 546 "src/ChibiOS_3.0.2/os/ext/CMSIS/include/core_cmFunc.h" 1
 3816 0062 83F31188 		MSR basepri, r3
 3817              	@ 0 "" 2
 3818              	.LVL239:
 3819              		.loc 6 546 3 is_stmt 0 view .LVU1164
ARM GAS  C:\Users\USER\AppData\Local\Temp\ccRejSya.s 			page 68


 3820              		.thumb
 3821              		.syntax unified
 3822              	.LBE906:
 3823              	.LBE905:
 3824              	.LBE907:
 3825              	.LBE909:
 3826              	.LBE912:
 3827              	.LBE916:
 3828              		.loc 4 389 34 is_stmt 1 view .LVU1165
 3829              		.loc 4 390 29 view .LVU1166
 3830              		.loc 1 566 5 view .LVU1167
 3831              		.loc 1 567 22 is_stmt 0 view .LVU1168
 3832 0066 D5F83428 		ldr	r2, [r5, #2100]
 3833              		.loc 1 566 21 view .LVU1169
 3834 006a FB6D     		ldr	r3, [r7, #92]
 3835              	.LBB917:
 3836              	.LBB918:
 3837              		.loc 3 728 3 view .LVU1170
 3838 006c 1748     		ldr	r0, .L240+4
 3839              	.LBE918:
 3840              	.LBE917:
 3841              		.loc 1 567 22 view .LVU1171
 3842 006e 22EA0602 		bic	r2, r2, r6
 3843 0072 C5F83428 		str	r2, [r5, #2100]
 3844              		.loc 1 566 21 view .LVU1172
 3845 0076 1E43     		orrs	r6, r6, r3
 3846              	.LBB921:
 3847              	.LBB919:
 3848              		.loc 3 728 3 view .LVU1173
 3849 0078 0021     		movs	r1, #0
 3850              	.LBE919:
 3851              	.LBE921:
 3852              		.loc 1 566 21 view .LVU1174
 3853 007a FE65     		str	r6, [r7, #92]
 3854              		.loc 1 567 5 is_stmt 1 view .LVU1175
 3855              		.loc 1 568 5 view .LVU1176
 3856              	.LVL240:
 3857              	.LBB922:
 3858              	.LBI917:
 3859              		.loc 3 726 20 view .LVU1177
 3860              	.LBB920:
 3861              		.loc 3 728 3 view .LVU1178
 3862 007c FFF7FEFF 		bl	chThdResumeI
 3863              	.LVL241:
 3864              		.loc 3 728 3 is_stmt 0 view .LVU1179
 3865              	.LBE920:
 3866              	.LBE922:
 3867              		.loc 1 569 5 is_stmt 1 view .LVU1180
 3868              	.LBB923:
 3869              	.LBI923:
 3870              		.loc 3 524 20 view .LVU1181
 3871              	.LBE923:
 3872              		.loc 3 526 3 view .LVU1182
 3873              	.LBB935:
 3874              	.LBB924:
 3875              	.LBI924:
 3876              		.loc 4 406 20 view .LVU1183
ARM GAS  C:\Users\USER\AppData\Local\Temp\ccRejSya.s 			page 69


 3877              	.LBE924:
 3878              	.LBE935:
 3879              		.loc 4 408 31 view .LVU1184
 3880              		.loc 4 409 33 view .LVU1185
 3881              		.loc 4 410 3 view .LVU1186
 3882              	.LBB936:
 3883              	.LBB932:
 3884              	.LBB925:
 3885              	.LBI925:
 3886              		.loc 5 484 20 view .LVU1187
 3887              	.LBE925:
 3888              	.LBE932:
 3889              	.LBE936:
 3890              		.loc 5 486 3 view .LVU1188
 3891              	.LBB937:
 3892              	.LBB933:
 3893              	.LBB930:
 3894              	.LBB926:
 3895              	.LBI926:
 3896              		.loc 5 458 20 view .LVU1189
 3897              	.LBE926:
 3898              	.LBE930:
 3899              	.LBE933:
 3900              	.LBE937:
 3901              		.loc 5 461 3 view .LVU1190
 3902              	.LBB938:
 3903              	.LBB934:
 3904              	.LBB931:
 3905              	.LBB929:
 3906              	.LBB927:
 3907              	.LBI927:
 3908              		.loc 6 544 57 view .LVU1191
 3909              	.LBB928:
 3910              		.loc 6 546 3 view .LVU1192
 3911 0080 0023     		movs	r3, #0
 3912              		.syntax unified
 3913              	@ 546 "src/ChibiOS_3.0.2/os/ext/CMSIS/include/core_cmFunc.h" 1
 3914 0082 83F31188 		MSR basepri, r3
 3915              	@ 0 "" 2
 3916              	.LVL242:
 3917              		.loc 6 546 3 is_stmt 0 view .LVU1193
 3918              		.thumb
 3919              		.syntax unified
 3920              	.LBE928:
 3921              	.LBE927:
 3922              	.LBE929:
 3923              	.LBE931:
 3924              	.LBE934:
 3925              	.LBE938:
 3926              		.loc 1 571 1 view .LVU1194
 3927 0086 BDE8F081 		pop	{r4, r5, r6, r7, r8, pc}
 3928              	.LVL243:
 3929              	.L239:
 3930              	.LBB939:
 3931              		.loc 1 550 7 is_stmt 1 view .LVU1195
 3932              		.loc 1 550 34 is_stmt 0 view .LVU1196
 3933 008a 121A     		subs	r2, r2, r0
ARM GAS  C:\Users\USER\AppData\Local\Temp\ccRejSya.s 			page 70


 3934              		.loc 1 551 19 view .LVU1197
 3935 008c 4FF00008 		mov	r8, #0
 3936 0090 C3E90128 		strd	r2, r8, [r3, #4]
 3937              		.loc 1 552 7 is_stmt 1 view .LVU1198
 3938 0094 3146     		mov	r1, r6
 3939 0096 3846     		mov	r0, r7
 3940 0098 FFF7FEFF 		bl	usb_lld_prepare_transmit
 3941              	.LVL244:
 3942              		.loc 1 553 7 view .LVU1199
 3943              	.LBB866:
 3944              	.LBI866:
 3945              		.loc 3 513 20 view .LVU1200
 3946              	.LBE866:
 3947              	.LBE939:
 3948              		.loc 3 515 3 view .LVU1201
 3949              	.LBB940:
 3950              	.LBB878:
 3951              	.LBB867:
 3952              	.LBI867:
 3953              		.loc 4 386 20 view .LVU1202
 3954              	.LBE867:
 3955              	.LBE878:
 3956              	.LBE940:
 3957              		.loc 4 388 3 view .LVU1203
 3958              	.LBB941:
 3959              	.LBB879:
 3960              	.LBB875:
 3961              	.LBB868:
 3962              	.LBI868:
 3963              		.loc 5 473 20 view .LVU1204
 3964              	.LBE868:
 3965              	.LBE875:
 3966              	.LBE879:
 3967              	.LBE941:
 3968              		.loc 5 475 3 view .LVU1205
 3969              	.LBB942:
 3970              	.LBB880:
 3971              	.LBB876:
 3972              	.LBB873:
 3973              	.LBB869:
 3974              	.LBI869:
 3975              		.loc 5 444 20 view .LVU1206
 3976              	.LBE869:
 3977              	.LBE873:
 3978              	.LBE876:
 3979              	.LBE880:
 3980              	.LBE942:
 3981              		.loc 5 447 3 view .LVU1207
 3982              	.LBB943:
 3983              	.LBB881:
 3984              	.LBB877:
 3985              	.LBB874:
 3986              	.LBB872:
 3987              	.LBB870:
 3988              	.LBI870:
 3989              		.loc 6 544 57 view .LVU1208
 3990              	.LBB871:
ARM GAS  C:\Users\USER\AppData\Local\Temp\ccRejSya.s 			page 71


 3991              		.loc 6 546 3 view .LVU1209
 3992 009c 2023     		movs	r3, #32
 3993              		.syntax unified
 3994              	@ 546 "src/ChibiOS_3.0.2/os/ext/CMSIS/include/core_cmFunc.h" 1
 3995 009e 83F31188 		MSR basepri, r3
 3996              	@ 0 "" 2
 3997              	.LVL245:
 3998              		.loc 6 546 3 is_stmt 0 view .LVU1210
 3999              		.thumb
 4000              		.syntax unified
 4001              	.LBE871:
 4002              	.LBE870:
 4003              	.LBE872:
 4004              	.LBE874:
 4005              	.LBE877:
 4006              	.LBE881:
 4007              	.LBE943:
 4008              		.loc 4 389 34 is_stmt 1 view .LVU1211
 4009              		.loc 4 390 29 view .LVU1212
 4010              	.LBB944:
 4011              		.loc 1 554 7 view .LVU1213
 4012              	.LBB882:
 4013              	.LBI882:
 4014              		.loc 1 1225 6 view .LVU1214
 4015              	.LBB883:
 4016              		.loc 1 1227 3 view .LVU1215
 4017              		.loc 1 1227 7 is_stmt 0 view .LVU1216
 4018 00a2 3A6D     		ldr	r2, [r7, #80]
 4019 00a4 02EB4610 		add	r0, r2, r6, lsl #5
 4020              		.loc 1 1228 28 view .LVU1217
 4021 00a8 0123     		movs	r3, #1
 4022              		.loc 1 1227 29 view .LVU1218
 4023 00aa D0F80019 		ldr	r1, [r0, #2304]
 4024 00ae 41F00441 		orr	r1, r1, #-2080374784
 4025 00b2 C0F80019 		str	r1, [r0, #2304]
 4026              		.loc 1 1228 3 is_stmt 1 view .LVU1219
 4027              		.loc 1 1228 25 is_stmt 0 view .LVU1220
 4028 00b6 D2F83418 		ldr	r1, [r2, #2100]
 4029              		.loc 1 1228 28 view .LVU1221
 4030 00ba B340     		lsls	r3, r3, r6
 4031              		.loc 1 1228 25 view .LVU1222
 4032 00bc 0B43     		orrs	r3, r3, r1
 4033 00be C2F83438 		str	r3, [r2, #2100]
 4034              	.LVL246:
 4035              		.loc 1 1228 25 view .LVU1223
 4036              	.LBE883:
 4037              	.LBE882:
 4038              		.loc 1 555 7 is_stmt 1 view .LVU1224
 4039              	.LBB884:
 4040              	.LBI884:
 4041              		.loc 3 524 20 view .LVU1225
 4042              	.LBE884:
 4043              	.LBE944:
 4044              		.loc 3 526 3 view .LVU1226
 4045              	.LBB945:
 4046              	.LBB896:
 4047              	.LBB885:
ARM GAS  C:\Users\USER\AppData\Local\Temp\ccRejSya.s 			page 72


 4048              	.LBI885:
 4049              		.loc 4 406 20 view .LVU1227
 4050              	.LBE885:
 4051              	.LBE896:
 4052              	.LBE945:
 4053              		.loc 4 408 31 view .LVU1228
 4054              		.loc 4 409 33 view .LVU1229
 4055              		.loc 4 410 3 view .LVU1230
 4056              	.LBB946:
 4057              	.LBB897:
 4058              	.LBB893:
 4059              	.LBB886:
 4060              	.LBI886:
 4061              		.loc 5 484 20 view .LVU1231
 4062              	.LBE886:
 4063              	.LBE893:
 4064              	.LBE897:
 4065              	.LBE946:
 4066              		.loc 5 486 3 view .LVU1232
 4067              	.LBB947:
 4068              	.LBB898:
 4069              	.LBB894:
 4070              	.LBB891:
 4071              	.LBB887:
 4072              	.LBI887:
 4073              		.loc 5 458 20 view .LVU1233
 4074              	.LBE887:
 4075              	.LBE891:
 4076              	.LBE894:
 4077              	.LBE898:
 4078              	.LBE947:
 4079              		.loc 5 461 3 view .LVU1234
 4080              	.LBB948:
 4081              	.LBB899:
 4082              	.LBB895:
 4083              	.LBB892:
 4084              	.LBB890:
 4085              	.LBB888:
 4086              	.LBI888:
 4087              		.loc 6 544 57 view .LVU1235
 4088              	.LBB889:
 4089              		.loc 6 546 3 view .LVU1236
 4090              		.syntax unified
 4091              	@ 546 "src/ChibiOS_3.0.2/os/ext/CMSIS/include/core_cmFunc.h" 1
 4092 00c2 88F31188 		MSR basepri, r8
 4093              	@ 0 "" 2
 4094              	.LVL247:
 4095              		.loc 6 546 3 is_stmt 0 view .LVU1237
 4096              		.thumb
 4097              		.syntax unified
 4098 00c6 ACE7     		b	.L221
 4099              	.L241:
 4100              		.align	2
 4101              	.L240:
 4102 00c8 00000000 		.word	.LANCHOR0
 4103 00cc 60000000 		.word	.LANCHOR0+96
 4104              	.LBE889:
ARM GAS  C:\Users\USER\AppData\Local\Temp\ccRejSya.s 			page 73


 4105              	.LBE888:
 4106              	.LBE890:
 4107              	.LBE892:
 4108              	.LBE895:
 4109              	.LBE899:
 4110              	.LBE948:
 4111              		.cfi_endproc
 4112              	.LFE299:
 4113              		.size	otg_epin_handler.constprop.8, .-otg_epin_handler.constprop.8
 4114              		.section	.text.Vector14C,"ax",%progbits
 4115              		.align	1
 4116              		.p2align 4,,15
 4117              		.global	Vector14C
 4118              		.syntax unified
 4119              		.thumb
 4120              		.thumb_func
 4121              		.fpu fpv4-sp-d16
 4122              		.type	Vector14C, %function
 4123              	Vector14C:
 4124              	.LFB273:
 4125              		.loc 1 706 38 is_stmt 1 view -0
 4126              		.cfi_startproc
 4127              		@ args = 0, pretend = 0, frame = 0
 4128              		@ frame_needed = 0, uses_anonymous_args = 0
 4129              		.loc 1 708 3 view .LVU1239
 4130              		.loc 1 708 3 view .LVU1240
 4131              		.loc 1 708 22 view .LVU1241
 4132              		.loc 1 710 3 view .LVU1242
 4133              	.LBB965:
 4134              	.LBI965:
 4135              		.loc 1 623 13 view .LVU1243
 4136              	.LVL248:
 4137              	.LBB966:
 4138              		.loc 1 624 3 view .LVU1244
 4139              	.LBE966:
 4140              	.LBE965:
 4141              		.loc 1 706 38 is_stmt 0 view .LVU1245
 4142 0000 70B5     		push	{r4, r5, r6, lr}
 4143              		.cfi_def_cfa_offset 16
 4144              		.cfi_offset 4, -16
 4145              		.cfi_offset 5, -12
 4146              		.cfi_offset 6, -8
 4147              		.cfi_offset 14, -4
 4148              	.LBB1015:
 4149              	.LBB1003:
 4150              		.loc 1 624 16 view .LVU1246
 4151 0002 374D     		ldr	r5, .L312
 4152 0004 2E6D     		ldr	r6, [r5, #80]
 4153              	.LVL249:
 4154              		.loc 1 625 3 is_stmt 1 view .LVU1247
 4155              		.loc 1 627 3 view .LVU1248
 4156              		.loc 1 627 8 is_stmt 0 view .LVU1249
 4157 0006 7469     		ldr	r4, [r6, #20]
 4158              	.LVL250:
 4159              		.loc 1 628 3 is_stmt 1 view .LVU1250
 4160              		.loc 1 628 14 is_stmt 0 view .LVU1251
 4161 0008 B369     		ldr	r3, [r6, #24]
ARM GAS  C:\Users\USER\AppData\Local\Temp\ccRejSya.s 			page 74


 4162              		.loc 1 628 7 view .LVU1252
 4163 000a 1C40     		ands	r4, r4, r3
 4164              	.LVL251:
 4165              		.loc 1 629 3 is_stmt 1 view .LVU1253
 4166              		.loc 1 632 6 is_stmt 0 view .LVU1254
 4167 000c E104     		lsls	r1, r4, #19
 4168              		.loc 1 629 17 view .LVU1255
 4169 000e 7461     		str	r4, [r6, #20]
 4170              		.loc 1 632 3 is_stmt 1 view .LVU1256
 4171              		.loc 1 632 6 is_stmt 0 view .LVU1257
 4172 0010 35D4     		bmi	.L301
 4173              	.L244:
 4174              		.loc 1 634 52 is_stmt 1 view .LVU1258
 4175              		.loc 1 638 3 view .LVU1259
 4176              		.loc 1 638 6 is_stmt 0 view .LVU1260
 4177 0012 A204     		lsls	r2, r4, #18
 4178              		.loc 1 639 5 is_stmt 1 view .LVU1261
 4179              		.loc 1 643 3 view .LVU1262
 4180              		.loc 1 639 5 is_stmt 0 view .LVU1263
 4181 0014 48BF     		it	mi
 4182 0016 D6F80838 		ldrmi	r3, [r6, #2056]
 4183              		.loc 1 643 6 view .LVU1264
 4184 001a 2307     		lsls	r3, r4, #28
 4185 001c 04D5     		bpl	.L247
 4186              		.loc 1 644 5 is_stmt 1 view .LVU1265
 4187 001e 6B68     		ldr	r3, [r5, #4]
 4188 0020 DB68     		ldr	r3, [r3, #12]
 4189 0022 0BB1     		cbz	r3, .L247
 4190              		.loc 1 644 5 view .LVU1266
 4191 0024 2E48     		ldr	r0, .L312
 4192 0026 9847     		blx	r3
 4193              	.LVL252:
 4194              	.L247:
 4195              		.loc 1 644 33 view .LVU1267
 4196              		.loc 1 648 3 view .LVU1268
 4197              		.loc 1 648 6 is_stmt 0 view .LVU1269
 4198 0028 E506     		lsls	r5, r4, #27
 4199 002a 19D4     		bmi	.L302
 4200              	.L248:
 4201              		.loc 1 658 3 is_stmt 1 view .LVU1270
 4202              		.loc 1 659 6 is_stmt 0 view .LVU1271
 4203 002c 6003     		lsls	r0, r4, #13
 4204              		.loc 1 658 7 view .LVU1272
 4205 002e D6F81858 		ldr	r5, [r6, #2072]
 4206              	.LVL253:
 4207              		.loc 1 659 3 is_stmt 1 view .LVU1273
 4208              		.loc 1 659 6 is_stmt 0 view .LVU1274
 4209 0032 07D5     		bpl	.L250
 4210              		.loc 1 660 5 is_stmt 1 view .LVU1275
 4211              		.loc 1 660 8 is_stmt 0 view .LVU1276
 4212 0034 E907     		lsls	r1, r5, #31
 4213 0036 43D4     		bmi	.L303
 4214              	.L251:
 4215              		.loc 1 662 5 is_stmt 1 view .LVU1277
 4216              		.loc 1 662 8 is_stmt 0 view .LVU1278
 4217 0038 AA07     		lsls	r2, r5, #30
 4218 003a 38D4     		bmi	.L304
ARM GAS  C:\Users\USER\AppData\Local\Temp\ccRejSya.s 			page 75


 4219              		.loc 1 664 5 is_stmt 1 view .LVU1279
 4220              		.loc 1 664 8 is_stmt 0 view .LVU1280
 4221 003c 6B07     		lsls	r3, r5, #29
 4222 003e 3BD4     		bmi	.L305
 4223              	.L253:
 4224              		.loc 1 666 5 is_stmt 1 view .LVU1281
 4225              		.loc 1 666 8 is_stmt 0 view .LVU1282
 4226 0040 2E07     		lsls	r6, r5, #28
 4227              	.LVL254:
 4228              		.loc 1 666 8 view .LVU1283
 4229 0042 27D4     		bmi	.L306
 4230              	.L250:
 4231              		.loc 1 675 3 is_stmt 1 view .LVU1284
 4232              		.loc 1 675 6 is_stmt 0 view .LVU1285
 4233 0044 2403     		lsls	r4, r4, #12
 4234              	.LVL255:
 4235              		.loc 1 675 6 view .LVU1286
 4236 0046 07D5     		bpl	.L256
 4237              	.L311:
 4238              		.loc 1 676 5 is_stmt 1 view .LVU1287
 4239              		.loc 1 676 8 is_stmt 0 view .LVU1288
 4240 0048 E803     		lsls	r0, r5, #15
 4241 004a 45D4     		bmi	.L307
 4242              	.L257:
 4243              		.loc 1 678 5 is_stmt 1 view .LVU1289
 4244              		.loc 1 678 8 is_stmt 0 view .LVU1290
 4245 004c A903     		lsls	r1, r5, #14
 4246 004e 3FD4     		bmi	.L308
 4247              	.L258:
 4248              		.loc 1 680 5 is_stmt 1 view .LVU1291
 4249              		.loc 1 680 8 is_stmt 0 view .LVU1292
 4250 0050 6A03     		lsls	r2, r5, #13
 4251 0052 39D4     		bmi	.L309
 4252              	.L259:
 4253              		.loc 1 682 5 is_stmt 1 view .LVU1293
 4254              		.loc 1 682 8 is_stmt 0 view .LVU1294
 4255 0054 2B03     		lsls	r3, r5, #12
 4256 0056 23D4     		bmi	.L310
 4257              	.L256:
 4258              	.LVL256:
 4259              		.loc 1 682 8 view .LVU1295
 4260              	.LBE1003:
 4261              	.LBE1015:
 4262              		.loc 1 712 3 is_stmt 1 view .LVU1296
 4263              		.loc 1 712 3 view .LVU1297
 4264              		.loc 1 713 1 is_stmt 0 view .LVU1298
 4265 0058 BDE87040 		pop	{r4, r5, r6, lr}
 4266              		.cfi_remember_state
 4267              		.cfi_restore 14
 4268              		.cfi_restore 6
 4269              		.cfi_restore 5
 4270              		.cfi_restore 4
 4271              		.cfi_def_cfa_offset 0
 4272              		.loc 1 712 3 view .LVU1299
 4273 005c FFF7FEBF 		b	_port_irq_epilogue
 4274              	.LVL257:
 4275              	.L302:
ARM GAS  C:\Users\USER\AppData\Local\Temp\ccRejSya.s 			page 76


 4276              		.cfi_restore_state
 4277              	.LBB1016:
 4278              	.LBB1004:
 4279              		.loc 1 651 5 is_stmt 1 view .LVU1300
 4280              	.LBB967:
 4281              	.LBI967:
 4282              		.loc 3 513 20 view .LVU1301
 4283              	.LBE967:
 4284              	.LBE1004:
 4285              	.LBE1016:
 4286              		.loc 3 515 3 view .LVU1302
 4287              	.LBB1017:
 4288              	.LBB1005:
 4289              	.LBB979:
 4290              	.LBB968:
 4291              	.LBI968:
 4292              		.loc 4 386 20 view .LVU1303
 4293              	.LBE968:
 4294              	.LBE979:
 4295              	.LBE1005:
 4296              	.LBE1017:
 4297              		.loc 4 388 3 view .LVU1304
 4298              	.LBB1018:
 4299              	.LBB1006:
 4300              	.LBB980:
 4301              	.LBB976:
 4302              	.LBB969:
 4303              	.LBI969:
 4304              		.loc 5 473 20 view .LVU1305
 4305              	.LBE969:
 4306              	.LBE976:
 4307              	.LBE980:
 4308              	.LBE1006:
 4309              	.LBE1018:
 4310              		.loc 5 475 3 view .LVU1306
 4311              	.LBB1019:
 4312              	.LBB1007:
 4313              	.LBB981:
 4314              	.LBB977:
 4315              	.LBB974:
 4316              	.LBB970:
 4317              	.LBI970:
 4318              		.loc 5 444 20 view .LVU1307
 4319              	.LBE970:
 4320              	.LBE974:
 4321              	.LBE977:
 4322              	.LBE981:
 4323              	.LBE1007:
 4324              	.LBE1019:
 4325              		.loc 5 447 3 view .LVU1308
 4326              	.LBB1020:
 4327              	.LBB1008:
 4328              	.LBB982:
 4329              	.LBB978:
 4330              	.LBB975:
 4331              	.LBB973:
 4332              	.LBB971:
ARM GAS  C:\Users\USER\AppData\Local\Temp\ccRejSya.s 			page 77


 4333              	.LBI971:
 4334              		.loc 6 544 57 view .LVU1309
 4335              	.LBB972:
 4336              		.loc 6 546 3 view .LVU1310
 4337 0060 2023     		movs	r3, #32
 4338              		.syntax unified
 4339              	@ 546 "src/ChibiOS_3.0.2/os/ext/CMSIS/include/core_cmFunc.h" 1
 4340 0062 83F31188 		MSR basepri, r3
 4341              	@ 0 "" 2
 4342              	.LVL258:
 4343              		.loc 6 546 3 is_stmt 0 view .LVU1311
 4344              		.thumb
 4345              		.syntax unified
 4346              	.LBE972:
 4347              	.LBE971:
 4348              	.LBE973:
 4349              	.LBE975:
 4350              	.LBE978:
 4351              	.LBE982:
 4352              	.LBE1008:
 4353              	.LBE1020:
 4354              		.loc 4 389 34 is_stmt 1 view .LVU1312
 4355              		.loc 4 390 29 view .LVU1313
 4356              	.LBB1021:
 4357              	.LBB1009:
 4358              		.loc 1 652 5 view .LVU1314
 4359              		.loc 1 652 19 is_stmt 0 view .LVU1315
 4360 0066 B369     		ldr	r3, [r6, #24]
 4361              	.LBB983:
 4362              	.LBB984:
 4363              		.loc 3 728 3 view .LVU1316
 4364 0068 1E48     		ldr	r0, .L312+4
 4365              	.LBE984:
 4366              	.LBE983:
 4367              		.loc 1 652 19 view .LVU1317
 4368 006a 23F01003 		bic	r3, r3, #16
 4369 006e B361     		str	r3, [r6, #24]
 4370              		.loc 1 653 5 is_stmt 1 view .LVU1318
 4371              	.LVL259:
 4372              	.LBB986:
 4373              	.LBI983:
 4374              		.loc 3 726 20 view .LVU1319
 4375              	.LBB985:
 4376              		.loc 3 728 3 view .LVU1320
 4377 0070 0021     		movs	r1, #0
 4378 0072 FFF7FEFF 		bl	chThdResumeI
 4379              	.LVL260:
 4380              		.loc 3 728 3 is_stmt 0 view .LVU1321
 4381              	.LBE985:
 4382              	.LBE986:
 4383              		.loc 1 654 5 is_stmt 1 view .LVU1322
 4384              	.LBB987:
 4385              	.LBI987:
 4386              		.loc 3 524 20 view .LVU1323
 4387              	.LBE987:
 4388              	.LBE1009:
 4389              	.LBE1021:
ARM GAS  C:\Users\USER\AppData\Local\Temp\ccRejSya.s 			page 78


 4390              		.loc 3 526 3 view .LVU1324
 4391              	.LBB1022:
 4392              	.LBB1010:
 4393              	.LBB999:
 4394              	.LBB988:
 4395              	.LBI988:
 4396              		.loc 4 406 20 view .LVU1325
 4397              	.LBE988:
 4398              	.LBE999:
 4399              	.LBE1010:
 4400              	.LBE1022:
 4401              		.loc 4 408 31 view .LVU1326
 4402              		.loc 4 409 33 view .LVU1327
 4403              		.loc 4 410 3 view .LVU1328
 4404              	.LBB1023:
 4405              	.LBB1011:
 4406              	.LBB1000:
 4407              	.LBB996:
 4408              	.LBB989:
 4409              	.LBI989:
 4410              		.loc 5 484 20 view .LVU1329
 4411              	.LBE989:
 4412              	.LBE996:
 4413              	.LBE1000:
 4414              	.LBE1011:
 4415              	.LBE1023:
 4416              		.loc 5 486 3 view .LVU1330
 4417              	.LBB1024:
 4418              	.LBB1012:
 4419              	.LBB1001:
 4420              	.LBB997:
 4421              	.LBB994:
 4422              	.LBB990:
 4423              	.LBI990:
 4424              		.loc 5 458 20 view .LVU1331
 4425              	.LBE990:
 4426              	.LBE994:
 4427              	.LBE997:
 4428              	.LBE1001:
 4429              	.LBE1012:
 4430              	.LBE1024:
 4431              		.loc 5 461 3 view .LVU1332
 4432              	.LBB1025:
 4433              	.LBB1013:
 4434              	.LBB1002:
 4435              	.LBB998:
 4436              	.LBB995:
 4437              	.LBB993:
 4438              	.LBB991:
 4439              	.LBI991:
 4440              		.loc 6 544 57 view .LVU1333
 4441              	.LBB992:
 4442              		.loc 6 546 3 view .LVU1334
 4443 0076 0023     		movs	r3, #0
 4444              		.syntax unified
 4445              	@ 546 "src/ChibiOS_3.0.2/os/ext/CMSIS/include/core_cmFunc.h" 1
 4446 0078 83F31188 		MSR basepri, r3
ARM GAS  C:\Users\USER\AppData\Local\Temp\ccRejSya.s 			page 79


 4447              	@ 0 "" 2
 4448              	.LVL261:
 4449              		.loc 6 546 3 is_stmt 0 view .LVU1335
 4450              		.thumb
 4451              		.syntax unified
 4452 007c D6E7     		b	.L248
 4453              	.L301:
 4454              		.loc 6 546 3 view .LVU1336
 4455              	.LBE992:
 4456              	.LBE991:
 4457              	.LBE993:
 4458              	.LBE995:
 4459              	.LBE998:
 4460              	.LBE1002:
 4461              		.loc 1 633 5 is_stmt 1 view .LVU1337
 4462 007e 2846     		mov	r0, r5
 4463 0080 FFF7FEFF 		bl	_usb_reset
 4464              	.LVL262:
 4465              		.loc 1 634 5 view .LVU1338
 4466 0084 6B68     		ldr	r3, [r5, #4]
 4467 0086 1B68     		ldr	r3, [r3]
 4468 0088 002B     		cmp	r3, #0
 4469 008a C2D0     		beq	.L244
 4470              		.loc 1 634 5 view .LVU1339
 4471 008c 0021     		movs	r1, #0
 4472 008e 2846     		mov	r0, r5
 4473 0090 9847     		blx	r3
 4474              	.LVL263:
 4475 0092 BEE7     		b	.L244
 4476              	.LVL264:
 4477              	.L306:
 4478              		.loc 1 667 7 view .LVU1340
 4479 0094 0320     		movs	r0, #3
 4480 0096 FFF7FEFF 		bl	otg_epin_handler.constprop.8
 4481              	.LVL265:
 4482              		.loc 1 675 3 view .LVU1341
 4483              		.loc 1 675 6 is_stmt 0 view .LVU1342
 4484 009a 2403     		lsls	r4, r4, #12
 4485              	.LVL266:
 4486              		.loc 1 675 6 view .LVU1343
 4487 009c DCD5     		bpl	.L256
 4488 009e D3E7     		b	.L311
 4489              	.L310:
 4490              		.loc 1 683 7 is_stmt 1 view .LVU1344
 4491 00a0 0320     		movs	r0, #3
 4492 00a2 FFF7FEFF 		bl	otg_epout_handler.constprop.7
 4493              	.LVL267:
 4494              		.loc 1 683 7 is_stmt 0 view .LVU1345
 4495              	.LBE1013:
 4496              	.LBE1025:
 4497              		.loc 1 712 3 is_stmt 1 view .LVU1346
 4498              		.loc 1 712 3 view .LVU1347
 4499              		.loc 1 713 1 is_stmt 0 view .LVU1348
 4500 00a6 BDE87040 		pop	{r4, r5, r6, lr}
 4501              		.cfi_remember_state
 4502              		.cfi_restore 14
 4503              		.cfi_restore 6
ARM GAS  C:\Users\USER\AppData\Local\Temp\ccRejSya.s 			page 80


 4504              		.cfi_restore 5
 4505              		.cfi_restore 4
 4506              		.cfi_def_cfa_offset 0
 4507              		.loc 1 712 3 view .LVU1349
 4508 00aa FFF7FEBF 		b	_port_irq_epilogue
 4509              	.LVL268:
 4510              	.L304:
 4511              		.cfi_restore_state
 4512              	.LBB1026:
 4513              	.LBB1014:
 4514              		.loc 1 663 7 is_stmt 1 view .LVU1350
 4515 00ae 0120     		movs	r0, #1
 4516 00b0 FFF7FEFF 		bl	otg_epin_handler.constprop.8
 4517              	.LVL269:
 4518              		.loc 1 664 5 view .LVU1351
 4519              		.loc 1 664 8 is_stmt 0 view .LVU1352
 4520 00b4 6B07     		lsls	r3, r5, #29
 4521 00b6 C3D5     		bpl	.L253
 4522              	.L305:
 4523              		.loc 1 665 7 is_stmt 1 view .LVU1353
 4524 00b8 0220     		movs	r0, #2
 4525 00ba FFF7FEFF 		bl	otg_epin_handler.constprop.8
 4526              	.LVL270:
 4527 00be BFE7     		b	.L253
 4528              	.L303:
 4529              		.loc 1 661 7 view .LVU1354
 4530 00c0 0020     		movs	r0, #0
 4531 00c2 FFF7FEFF 		bl	otg_epin_handler.constprop.8
 4532              	.LVL271:
 4533 00c6 B7E7     		b	.L251
 4534              	.LVL272:
 4535              	.L309:
 4536              		.loc 1 681 7 view .LVU1355
 4537 00c8 0220     		movs	r0, #2
 4538 00ca FFF7FEFF 		bl	otg_epout_handler.constprop.7
 4539              	.LVL273:
 4540 00ce C1E7     		b	.L259
 4541              	.L308:
 4542              		.loc 1 679 7 view .LVU1356
 4543 00d0 0120     		movs	r0, #1
 4544 00d2 FFF7FEFF 		bl	otg_epout_handler.constprop.7
 4545              	.LVL274:
 4546 00d6 BBE7     		b	.L258
 4547              	.L307:
 4548              		.loc 1 677 7 view .LVU1357
 4549 00d8 0020     		movs	r0, #0
 4550 00da FFF7FEFF 		bl	otg_epout_handler.constprop.7
 4551              	.LVL275:
 4552 00de B5E7     		b	.L257
 4553              	.L313:
 4554              		.align	2
 4555              	.L312:
 4556 00e0 00000000 		.word	.LANCHOR0
 4557 00e4 60000000 		.word	.LANCHOR0+96
 4558              	.LBE1014:
 4559              	.LBE1026:
 4560              		.cfi_endproc
ARM GAS  C:\Users\USER\AppData\Local\Temp\ccRejSya.s 			page 81


 4561              	.LFE273:
 4562              		.size	Vector14C, .-Vector14C
 4563              		.section	.text.usb_lld_start_out,"ax",%progbits
 4564              		.align	1
 4565              		.p2align 4,,15
 4566              		.global	usb_lld_start_out
 4567              		.syntax unified
 4568              		.thumb
 4569              		.thumb_func
 4570              		.fpu fpv4-sp-d16
 4571              		.type	usb_lld_start_out, %function
 4572              	usb_lld_start_out:
 4573              	.LVL276:
 4574              	.LFB286:
 4575              		.loc 1 1212 53 view -0
 4576              		.cfi_startproc
 4577              		@ args = 0, pretend = 0, frame = 0
 4578              		@ frame_needed = 0, uses_anonymous_args = 0
 4579              		@ link register save eliminated.
 4580              		.loc 1 1214 3 view .LVU1359
 4581 0000 036D     		ldr	r3, [r0, #80]
 4582 0002 03EB4111 		add	r1, r3, r1, lsl #5
 4583              	.LVL277:
 4584              		.loc 1 1214 29 is_stmt 0 view .LVU1360
 4585 0006 D1F8003B 		ldr	r3, [r1, #2816]
 4586 000a 43F08063 		orr	r3, r3, #67108864
 4587 000e C1F8003B 		str	r3, [r1, #2816]
 4588              		.loc 1 1215 1 view .LVU1361
 4589 0012 7047     		bx	lr
 4590              		.cfi_endproc
 4591              	.LFE286:
 4592              		.size	usb_lld_start_out, .-usb_lld_start_out
 4593              		.section	.text.usb_lld_start_in,"ax",%progbits
 4594              		.align	1
 4595              		.p2align 4,,15
 4596              		.global	usb_lld_start_in
 4597              		.syntax unified
 4598              		.thumb
 4599              		.thumb_func
 4600              		.fpu fpv4-sp-d16
 4601              		.type	usb_lld_start_in, %function
 4602              	usb_lld_start_in:
 4603              	.LVL278:
 4604              	.LFB287:
 4605              		.loc 1 1225 52 is_stmt 1 view -0
 4606              		.cfi_startproc
 4607              		@ args = 0, pretend = 0, frame = 0
 4608              		@ frame_needed = 0, uses_anonymous_args = 0
 4609              		@ link register save eliminated.
 4610              		.loc 1 1227 3 view .LVU1363
 4611              		.loc 1 1227 7 is_stmt 0 view .LVU1364
 4612 0000 026D     		ldr	r2, [r0, #80]
 4613              		.loc 1 1225 52 view .LVU1365
 4614 0002 10B4     		push	{r4}
 4615              		.cfi_def_cfa_offset 4
 4616              		.cfi_offset 4, -4
 4617 0004 02EB4114 		add	r4, r2, r1, lsl #5
ARM GAS  C:\Users\USER\AppData\Local\Temp\ccRejSya.s 			page 82


 4618              		.loc 1 1228 28 view .LVU1366
 4619 0008 0123     		movs	r3, #1
 4620              		.loc 1 1227 29 view .LVU1367
 4621 000a D4F80009 		ldr	r0, [r4, #2304]
 4622              	.LVL279:
 4623              		.loc 1 1227 29 view .LVU1368
 4624 000e 40F00440 		orr	r0, r0, #-2080374784
 4625 0012 C4F80009 		str	r0, [r4, #2304]
 4626              		.loc 1 1228 3 is_stmt 1 view .LVU1369
 4627              		.loc 1 1228 25 is_stmt 0 view .LVU1370
 4628 0016 D2F83408 		ldr	r0, [r2, #2100]
 4629              		.loc 1 1229 1 view .LVU1371
 4630 001a 5DF8044B 		ldr	r4, [sp], #4
 4631              		.cfi_restore 4
 4632              		.cfi_def_cfa_offset 0
 4633              		.loc 1 1228 28 view .LVU1372
 4634 001e 8B40     		lsls	r3, r3, r1
 4635              		.loc 1 1228 25 view .LVU1373
 4636 0020 0343     		orrs	r3, r3, r0
 4637 0022 C2F83438 		str	r3, [r2, #2100]
 4638              		.loc 1 1229 1 view .LVU1374
 4639 0026 7047     		bx	lr
 4640              		.cfi_endproc
 4641              	.LFE287:
 4642              		.size	usb_lld_start_in, .-usb_lld_start_in
 4643              		.section	.text.usb_lld_stall_out,"ax",%progbits
 4644              		.align	1
 4645              		.p2align 4,,15
 4646              		.global	usb_lld_stall_out
 4647              		.syntax unified
 4648              		.thumb
 4649              		.thumb_func
 4650              		.fpu fpv4-sp-d16
 4651              		.type	usb_lld_stall_out, %function
 4652              	usb_lld_stall_out:
 4653              	.LVL280:
 4654              	.LFB288:
 4655              		.loc 1 1239 53 is_stmt 1 view -0
 4656              		.cfi_startproc
 4657              		@ args = 0, pretend = 0, frame = 0
 4658              		@ frame_needed = 0, uses_anonymous_args = 0
 4659              		@ link register save eliminated.
 4660              		.loc 1 1241 3 view .LVU1376
 4661 0000 036D     		ldr	r3, [r0, #80]
 4662 0002 03EB4111 		add	r1, r3, r1, lsl #5
 4663              	.LVL281:
 4664              		.loc 1 1241 29 is_stmt 0 view .LVU1377
 4665 0006 D1F8003B 		ldr	r3, [r1, #2816]
 4666 000a 43F40013 		orr	r3, r3, #2097152
 4667 000e C1F8003B 		str	r3, [r1, #2816]
 4668              		.loc 1 1242 1 view .LVU1378
 4669 0012 7047     		bx	lr
 4670              		.cfi_endproc
 4671              	.LFE288:
 4672              		.size	usb_lld_stall_out, .-usb_lld_stall_out
 4673              		.section	.text.usb_lld_stall_in,"ax",%progbits
 4674              		.align	1
ARM GAS  C:\Users\USER\AppData\Local\Temp\ccRejSya.s 			page 83


 4675              		.p2align 4,,15
 4676              		.global	usb_lld_stall_in
 4677              		.syntax unified
 4678              		.thumb
 4679              		.thumb_func
 4680              		.fpu fpv4-sp-d16
 4681              		.type	usb_lld_stall_in, %function
 4682              	usb_lld_stall_in:
 4683              	.LVL282:
 4684              	.LFB289:
 4685              		.loc 1 1252 52 is_stmt 1 view -0
 4686              		.cfi_startproc
 4687              		@ args = 0, pretend = 0, frame = 0
 4688              		@ frame_needed = 0, uses_anonymous_args = 0
 4689              		@ link register save eliminated.
 4690              		.loc 1 1254 3 view .LVU1380
 4691 0000 036D     		ldr	r3, [r0, #80]
 4692 0002 03EB4111 		add	r1, r3, r1, lsl #5
 4693              	.LVL283:
 4694              		.loc 1 1254 29 is_stmt 0 view .LVU1381
 4695 0006 D1F80039 		ldr	r3, [r1, #2304]
 4696 000a 43F40013 		orr	r3, r3, #2097152
 4697 000e C1F80039 		str	r3, [r1, #2304]
 4698              		.loc 1 1255 1 view .LVU1382
 4699 0012 7047     		bx	lr
 4700              		.cfi_endproc
 4701              	.LFE289:
 4702              		.size	usb_lld_stall_in, .-usb_lld_stall_in
 4703              		.section	.text.usb_lld_clear_out,"ax",%progbits
 4704              		.align	1
 4705              		.p2align 4,,15
 4706              		.global	usb_lld_clear_out
 4707              		.syntax unified
 4708              		.thumb
 4709              		.thumb_func
 4710              		.fpu fpv4-sp-d16
 4711              		.type	usb_lld_clear_out, %function
 4712              	usb_lld_clear_out:
 4713              	.LVL284:
 4714              	.LFB290:
 4715              		.loc 1 1265 53 is_stmt 1 view -0
 4716              		.cfi_startproc
 4717              		@ args = 0, pretend = 0, frame = 0
 4718              		@ frame_needed = 0, uses_anonymous_args = 0
 4719              		@ link register save eliminated.
 4720              		.loc 1 1267 3 view .LVU1384
 4721 0000 036D     		ldr	r3, [r0, #80]
 4722 0002 03EB4111 		add	r1, r3, r1, lsl #5
 4723              	.LVL285:
 4724              		.loc 1 1267 29 is_stmt 0 view .LVU1385
 4725 0006 D1F8003B 		ldr	r3, [r1, #2816]
 4726 000a 23F40013 		bic	r3, r3, #2097152
 4727 000e C1F8003B 		str	r3, [r1, #2816]
 4728              		.loc 1 1268 1 view .LVU1386
 4729 0012 7047     		bx	lr
 4730              		.cfi_endproc
 4731              	.LFE290:
ARM GAS  C:\Users\USER\AppData\Local\Temp\ccRejSya.s 			page 84


 4732              		.size	usb_lld_clear_out, .-usb_lld_clear_out
 4733              		.section	.text.usb_lld_clear_in,"ax",%progbits
 4734              		.align	1
 4735              		.p2align 4,,15
 4736              		.global	usb_lld_clear_in
 4737              		.syntax unified
 4738              		.thumb
 4739              		.thumb_func
 4740              		.fpu fpv4-sp-d16
 4741              		.type	usb_lld_clear_in, %function
 4742              	usb_lld_clear_in:
 4743              	.LVL286:
 4744              	.LFB291:
 4745              		.loc 1 1278 52 is_stmt 1 view -0
 4746              		.cfi_startproc
 4747              		@ args = 0, pretend = 0, frame = 0
 4748              		@ frame_needed = 0, uses_anonymous_args = 0
 4749              		@ link register save eliminated.
 4750              		.loc 1 1280 3 view .LVU1388
 4751 0000 036D     		ldr	r3, [r0, #80]
 4752 0002 03EB4111 		add	r1, r3, r1, lsl #5
 4753              	.LVL287:
 4754              		.loc 1 1280 29 is_stmt 0 view .LVU1389
 4755 0006 D1F80039 		ldr	r3, [r1, #2304]
 4756 000a 23F40013 		bic	r3, r3, #2097152
 4757 000e C1F80039 		str	r3, [r1, #2304]
 4758              		.loc 1 1281 1 view .LVU1390
 4759 0012 7047     		bx	lr
 4760              		.cfi_endproc
 4761              	.LFE291:
 4762              		.size	usb_lld_clear_in, .-usb_lld_clear_in
 4763              		.global	USBD1
 4764              		.section	.bss.USBD1,"aw",%nobits
 4765              		.align	3
 4766              		.set	.LANCHOR0,. + 0
 4767              		.type	USBD1, %object
 4768              		.size	USBD1, 640
 4769              	USBD1:
 4770 0000 00000000 		.space	640
 4770      00000000 
 4770      00000000 
 4770      00000000 
 4770      00000000 
 4771              		.section	.bss.ep0_state,"aw",%nobits
 4772              		.align	2
 4773              		.type	ep0_state, %object
 4774              		.size	ep0_state, 20
 4775              	ep0_state:
 4776 0000 00000000 		.space	20
 4776      00000000 
 4776      00000000 
 4776      00000000 
 4776      00000000 
 4777              		.section	.bss.ep0setup_buffer,"aw",%nobits
 4778              		.align	2
 4779              		.type	ep0setup_buffer, %object
 4780              		.size	ep0setup_buffer, 8
ARM GAS  C:\Users\USER\AppData\Local\Temp\ccRejSya.s 			page 85


 4781              	ep0setup_buffer:
 4782 0000 00000000 		.space	8
 4782      00000000 
 4783              		.section	.rodata.CSWTCH.10,"a"
 4784              		.align	2
 4785              		.set	.LANCHOR3,. + 0
 4786              		.type	CSWTCH.10, %object
 4787              		.size	CSWTCH.10, 16
 4788              	CSWTCH.10:
 4789 0000 00800010 		.word	268468224
 4790 0004 00800410 		.word	268730368
 4791 0008 00800810 		.word	268992512
 4792 000c 00800C10 		.word	269254656
 4793              		.section	.rodata.ep0config,"a"
 4794              		.align	2
 4795              		.set	.LANCHOR2,. + 0
 4796              		.type	ep0config, %object
 4797              		.size	ep0config, 36
 4798              	ep0config:
 4799 0000 00000000 		.word	0
 4800 0004 00000000 		.word	_usb_ep0setup
 4801 0008 00000000 		.word	_usb_ep0in
 4802 000c 00000000 		.word	_usb_ep0out
 4803 0010 4000     		.short	64
 4804 0012 4000     		.short	64
 4805 0014 00000000 		.word	ep0_state
 4806 0018 00000000 		.word	ep0_state
 4807 001c 0100     		.short	1
 4808 001e 0000     		.space	2
 4809 0020 00000000 		.word	ep0setup_buffer
 4810              		.section	.rodata.fsparams,"a"
 4811              		.align	2
 4812              		.set	.LANCHOR1,. + 0
 4813              		.type	fsparams, %object
 4814              		.size	fsparams, 12
 4815              	fsparams:
 4816 0000 80000000 		.word	128
 4817 0004 40010000 		.word	320
 4818 0008 03000000 		.word	3
 4819              		.section	.rodata.usb_lld_pump.str1.4,"aMS",%progbits,1
 4820              		.align	2
 4821              	.LC0:
 4822 0000 7573625F 		.ascii	"usb_lld_pump\000"
 4822      6C6C645F 
 4822      70756D70 
 4822      00
 4823              		.text
 4824              	.Letext0:
 4825              		.file 8 "c:\\program files (x86)\\gnu tools arm embedded\\8 2018-q4-major\\lib\\gcc\\arm-none-eabi
 4826              		.file 9 "c:\\program files (x86)\\gnu tools arm embedded\\8 2018-q4-major\\arm-none-eabi\\include\
 4827              		.file 10 "c:\\program files (x86)\\gnu tools arm embedded\\8 2018-q4-major\\arm-none-eabi\\include
 4828              		.file 11 "c:\\program files (x86)\\gnu tools arm embedded\\8 2018-q4-major\\arm-none-eabi\\include
 4829              		.file 12 "c:\\program files (x86)\\gnu tools arm embedded\\8 2018-q4-major\\arm-none-eabi\\include
 4830              		.file 13 "c:\\program files (x86)\\gnu tools arm embedded\\8 2018-q4-major\\arm-none-eabi\\include
 4831              		.file 14 "src/ChibiOS_3.0.2/os/rt/ports/ARMCMx/compilers/GCC/chtypes.h"
 4832              		.file 15 "src/ChibiOS_3.0.2/os/rt/include/chsystypes.h"
 4833              		.file 16 "src/ChibiOS_3.0.2/os/rt/include/chschd.h"
ARM GAS  C:\Users\USER\AppData\Local\Temp\ccRejSya.s 			page 86


 4834              		.file 17 "src/ChibiOS_3.0.2/os/ext/CMSIS/include/core_cm4.h"
 4835              		.file 18 "src/ChibiOS_3.0.2/os/ext/CMSIS/ST/system_stm32f4xx.h"
 4836              		.file 19 "src/ChibiOS_3.0.2/os/ext/CMSIS/ST/stm32f407xx.h"
 4837              		.file 20 "src/ChibiOS_3.0.2/os/rt/ports/ARMCMx/chcore.h"
 4838              		.file 21 "src/ChibiOS_3.0.2/os/rt/include/chtm.h"
 4839              		.file 22 "src/ChibiOS_3.0.2/os/rt/include/chsem.h"
 4840              		.file 23 "src/ChibiOS_3.0.2/os/rt/include/chmtx.h"
 4841              		.file 24 "src/ChibiOS_3.0.2/os/rt/include/chevents.h"
 4842              		.file 25 "src/ChibiOS_3.0.2/os/rt/include/chqueues.h"
 4843              		.file 26 "src/ChibiOS_3.0.2/os/hal/ports/STM32/STM32F4xx/stm32_dma.h"
 4844              		.file 27 "src/ChibiOS_3.0.2/os/hal/ports/STM32/LLD/GPIOv2/pal_lld.h"
 4845              		.file 28 "src/ChibiOS_3.0.2/os/hal/include/can.h"
 4846              		.file 29 "src/ChibiOS_3.0.2/os/hal/ports/STM32/LLD/can_lld.h"
 4847              		.file 30 "src/ChibiOS_3.0.2/os/hal/include/i2c.h"
 4848              		.file 31 "src/ChibiOS_3.0.2/os/hal/ports/STM32/LLD/I2Cv1/i2c_lld.h"
 4849              		.file 32 "src/ChibiOS_3.0.2/os/hal/include/icu.h"
 4850              		.file 33 "src/ChibiOS_3.0.2/os/hal/ports/STM32/LLD/TIMv1/icu_lld.h"
 4851              		.file 34 "src/ChibiOS_3.0.2/os/hal/ports/STM32/LLD/TIMv1/stm32_tim.h"
 4852              		.file 35 "src/ChibiOS_3.0.2/os/hal/include/serial.h"
 4853              		.file 36 "src/ChibiOS_3.0.2/os/hal/ports/STM32/LLD/USARTv1/serial_lld.h"
 4854              		.file 37 "src/ChibiOS_3.0.2/os/hal/include/spi.h"
 4855              		.file 38 "src/ChibiOS_3.0.2/os/hal/ports/STM32/LLD/SPIv1/spi_lld.h"
 4856              		.file 39 "src/ChibiOS_3.0.2/os/hal/include/uart.h"
 4857              		.file 40 "src/ChibiOS_3.0.2/os/hal/ports/STM32/LLD/USARTv1/uart_lld.h"
 4858              		.file 41 "src/ChibiOS_3.0.2/os/hal/include/usb.h"
 4859              		.file 42 "src/ChibiOS_3.0.2/os/hal/ports/STM32/LLD/OTGv1/usb_lld.h"
 4860              		.file 43 "src/ChibiOS_3.0.2/os/hal/ports/STM32/LLD/OTGv1/stm32_otg.h"
 4861              		.file 44 "src/ChibiOS_3.0.2/os/hal/ports/common/ARMCMx/nvic.h"
 4862              		.section	.debug_info,"",%progbits
 4863              	.Ldebug_info0:
 4864 0000 26550000 		.4byte	0x5526
 4865 0004 0400     		.2byte	0x4
 4866 0006 00000000 		.4byte	.Ldebug_abbrev0
 4867 000a 04       		.byte	0x4
 4868 000b 01       		.uleb128 0x1
 4869 000c 7C130000 		.4byte	.LASF758
 4870 0010 0C       		.byte	0xc
 4871 0011 6B100000 		.4byte	.LASF759
 4872 0015 54080000 		.4byte	.LASF760
 4873 0019 480B0000 		.4byte	.Ldebug_ranges0+0xb48
 4874 001d 00000000 		.4byte	0
 4875 0021 00000000 		.4byte	.Ldebug_line0
 4876 0025 02       		.uleb128 0x2
 4877 0026 04       		.byte	0x4
 4878 0027 07       		.byte	0x7
 4879 0028 391F0000 		.4byte	.LASF0
 4880 002c 03       		.uleb128 0x3
 4881 002d 04       		.byte	0x4
 4882 002e 05       		.byte	0x5
 4883 002f 696E7400 		.ascii	"int\000"
 4884 0033 04       		.uleb128 0x4
 4885 0034 B10A0000 		.4byte	.LASF2
 4886 0038 08       		.byte	0x8
 4887 0039 D8       		.byte	0xd8
 4888 003a 17       		.byte	0x17
 4889 003b 25000000 		.4byte	0x25
 4890 003f 05       		.uleb128 0x5
ARM GAS  C:\Users\USER\AppData\Local\Temp\ccRejSya.s 			page 87


 4891 0040 33000000 		.4byte	0x33
 4892 0044 02       		.uleb128 0x2
 4893 0045 01       		.byte	0x1
 4894 0046 06       		.byte	0x6
 4895 0047 52110000 		.4byte	.LASF1
 4896 004b 04       		.uleb128 0x4
 4897 004c A8000000 		.4byte	.LASF3
 4898 0050 09       		.byte	0x9
 4899 0051 2B       		.byte	0x2b
 4900 0052 18       		.byte	0x18
 4901 0053 57000000 		.4byte	0x57
 4902 0057 02       		.uleb128 0x2
 4903 0058 01       		.byte	0x1
 4904 0059 08       		.byte	0x8
 4905 005a 8D070000 		.4byte	.LASF4
 4906 005e 02       		.uleb128 0x2
 4907 005f 02       		.byte	0x2
 4908 0060 05       		.byte	0x5
 4909 0061 8D1F0000 		.4byte	.LASF5
 4910 0065 04       		.uleb128 0x4
 4911 0066 34060000 		.4byte	.LASF6
 4912 006a 09       		.byte	0x9
 4913 006b 39       		.byte	0x39
 4914 006c 19       		.byte	0x19
 4915 006d 71000000 		.4byte	0x71
 4916 0071 02       		.uleb128 0x2
 4917 0072 02       		.byte	0x2
 4918 0073 07       		.byte	0x7
 4919 0074 3F110000 		.4byte	.LASF7
 4920 0078 04       		.uleb128 0x4
 4921 0079 3F190000 		.4byte	.LASF8
 4922 007d 09       		.byte	0x9
 4923 007e 4D       		.byte	0x4d
 4924 007f 18       		.byte	0x18
 4925 0080 84000000 		.4byte	0x84
 4926 0084 02       		.uleb128 0x2
 4927 0085 04       		.byte	0x4
 4928 0086 05       		.byte	0x5
 4929 0087 42130000 		.4byte	.LASF9
 4930 008b 04       		.uleb128 0x4
 4931 008c 49190000 		.4byte	.LASF10
 4932 0090 09       		.byte	0x9
 4933 0091 4F       		.byte	0x4f
 4934 0092 19       		.byte	0x19
 4935 0093 97000000 		.4byte	0x97
 4936 0097 02       		.uleb128 0x2
 4937 0098 04       		.byte	0x4
 4938 0099 07       		.byte	0x7
 4939 009a C7150000 		.4byte	.LASF11
 4940 009e 02       		.uleb128 0x2
 4941 009f 08       		.byte	0x8
 4942 00a0 05       		.byte	0x5
 4943 00a1 681D0000 		.4byte	.LASF12
 4944 00a5 04       		.uleb128 0x4
 4945 00a6 9F0D0000 		.4byte	.LASF13
 4946 00aa 09       		.byte	0x9
 4947 00ab 69       		.byte	0x69
ARM GAS  C:\Users\USER\AppData\Local\Temp\ccRejSya.s 			page 88


 4948 00ac 19       		.byte	0x19
 4949 00ad B1000000 		.4byte	0xb1
 4950 00b1 02       		.uleb128 0x2
 4951 00b2 08       		.byte	0x8
 4952 00b3 07       		.byte	0x7
 4953 00b4 EF1A0000 		.4byte	.LASF14
 4954 00b8 04       		.uleb128 0x4
 4955 00b9 0A060000 		.4byte	.LASF15
 4956 00bd 0A       		.byte	0xa
 4957 00be 22       		.byte	0x22
 4958 00bf 19       		.byte	0x19
 4959 00c0 C4000000 		.4byte	0xc4
 4960 00c4 06       		.uleb128 0x6
 4961 00c5 04       		.byte	0x4
 4962 00c6 CA000000 		.4byte	0xca
 4963 00ca 07       		.uleb128 0x7
 4964 00cb B7040000 		.4byte	.LASF122
 4965 00cf 04       		.uleb128 0x4
 4966 00d0 940A0000 		.4byte	.LASF16
 4967 00d4 0B       		.byte	0xb
 4968 00d5 2C       		.byte	0x2c
 4969 00d6 0E       		.byte	0xe
 4970 00d7 84000000 		.4byte	0x84
 4971 00db 04       		.uleb128 0x4
 4972 00dc 93180000 		.4byte	.LASF17
 4973 00e0 0B       		.byte	0xb
 4974 00e1 72       		.byte	0x72
 4975 00e2 0E       		.byte	0xe
 4976 00e3 84000000 		.4byte	0x84
 4977 00e7 08       		.uleb128 0x8
 4978 00e8 6C0C0000 		.4byte	.LASF18
 4979 00ec 08       		.byte	0x8
 4980 00ed 6501     		.2byte	0x165
 4981 00ef 17       		.byte	0x17
 4982 00f0 25000000 		.4byte	0x25
 4983 00f4 09       		.uleb128 0x9
 4984 00f5 04       		.byte	0x4
 4985 00f6 0B       		.byte	0xb
 4986 00f7 A6       		.byte	0xa6
 4987 00f8 03       		.byte	0x3
 4988 00f9 16010000 		.4byte	0x116
 4989 00fd 0A       		.uleb128 0xa
 4990 00fe C6120000 		.4byte	.LASF19
 4991 0102 0B       		.byte	0xb
 4992 0103 A8       		.byte	0xa8
 4993 0104 0C       		.byte	0xc
 4994 0105 E7000000 		.4byte	0xe7
 4995 0109 0A       		.uleb128 0xa
 4996 010a 1A0C0000 		.4byte	.LASF20
 4997 010e 0B       		.byte	0xb
 4998 010f A9       		.byte	0xa9
 4999 0110 13       		.byte	0x13
 5000 0111 16010000 		.4byte	0x116
 5001 0115 00       		.byte	0
 5002 0116 0B       		.uleb128 0xb
 5003 0117 57000000 		.4byte	0x57
 5004 011b 26010000 		.4byte	0x126
ARM GAS  C:\Users\USER\AppData\Local\Temp\ccRejSya.s 			page 89


 5005 011f 0C       		.uleb128 0xc
 5006 0120 25000000 		.4byte	0x25
 5007 0124 03       		.byte	0x3
 5008 0125 00       		.byte	0
 5009 0126 0D       		.uleb128 0xd
 5010 0127 08       		.byte	0x8
 5011 0128 0B       		.byte	0xb
 5012 0129 A3       		.byte	0xa3
 5013 012a 09       		.byte	0x9
 5014 012b 4A010000 		.4byte	0x14a
 5015 012f 0E       		.uleb128 0xe
 5016 0130 D00A0000 		.4byte	.LASF21
 5017 0134 0B       		.byte	0xb
 5018 0135 A5       		.byte	0xa5
 5019 0136 07       		.byte	0x7
 5020 0137 2C000000 		.4byte	0x2c
 5021 013b 00       		.byte	0
 5022 013c 0E       		.uleb128 0xe
 5023 013d 73190000 		.4byte	.LASF22
 5024 0141 0B       		.byte	0xb
 5025 0142 AA       		.byte	0xaa
 5026 0143 05       		.byte	0x5
 5027 0144 F4000000 		.4byte	0xf4
 5028 0148 04       		.byte	0x4
 5029 0149 00       		.byte	0
 5030 014a 04       		.uleb128 0x4
 5031 014b E6180000 		.4byte	.LASF23
 5032 014f 0B       		.byte	0xb
 5033 0150 AB       		.byte	0xab
 5034 0151 03       		.byte	0x3
 5035 0152 26010000 		.4byte	0x126
 5036 0156 04       		.uleb128 0x4
 5037 0157 EE1C0000 		.4byte	.LASF24
 5038 015b 0B       		.byte	0xb
 5039 015c AF       		.byte	0xaf
 5040 015d 1B       		.byte	0x1b
 5041 015e B8000000 		.4byte	0xb8
 5042 0162 0F       		.uleb128 0xf
 5043 0163 04       		.byte	0x4
 5044 0164 06       		.uleb128 0x6
 5045 0165 04       		.byte	0x4
 5046 0166 6A010000 		.4byte	0x16a
 5047 016a 02       		.uleb128 0x2
 5048 016b 01       		.byte	0x1
 5049 016c 08       		.byte	0x8
 5050 016d 53160000 		.4byte	.LASF25
 5051 0171 10       		.uleb128 0x10
 5052 0172 6A010000 		.4byte	0x16a
 5053 0176 04       		.uleb128 0x4
 5054 0177 B10F0000 		.4byte	.LASF26
 5055 017b 0C       		.byte	0xc
 5056 017c 16       		.byte	0x16
 5057 017d 19       		.byte	0x19
 5058 017e 97000000 		.4byte	0x97
 5059 0182 11       		.uleb128 0x11
 5060 0183 C9160000 		.4byte	.LASF31
 5061 0187 18       		.byte	0x18
ARM GAS  C:\Users\USER\AppData\Local\Temp\ccRejSya.s 			page 90


 5062 0188 0C       		.byte	0xc
 5063 0189 2F       		.byte	0x2f
 5064 018a 08       		.byte	0x8
 5065 018b DC010000 		.4byte	0x1dc
 5066 018f 0E       		.uleb128 0xe
 5067 0190 BB0D0000 		.4byte	.LASF27
 5068 0194 0C       		.byte	0xc
 5069 0195 31       		.byte	0x31
 5070 0196 13       		.byte	0x13
 5071 0197 DC010000 		.4byte	0x1dc
 5072 019b 00       		.byte	0
 5073 019c 12       		.uleb128 0x12
 5074 019d 5F6B00   		.ascii	"_k\000"
 5075 01a0 0C       		.byte	0xc
 5076 01a1 32       		.byte	0x32
 5077 01a2 07       		.byte	0x7
 5078 01a3 2C000000 		.4byte	0x2c
 5079 01a7 04       		.byte	0x4
 5080 01a8 0E       		.uleb128 0xe
 5081 01a9 48150000 		.4byte	.LASF28
 5082 01ad 0C       		.byte	0xc
 5083 01ae 32       		.byte	0x32
 5084 01af 0B       		.byte	0xb
 5085 01b0 2C000000 		.4byte	0x2c
 5086 01b4 08       		.byte	0x8
 5087 01b5 0E       		.uleb128 0xe
 5088 01b6 D71E0000 		.4byte	.LASF29
 5089 01ba 0C       		.byte	0xc
 5090 01bb 32       		.byte	0x32
 5091 01bc 14       		.byte	0x14
 5092 01bd 2C000000 		.4byte	0x2c
 5093 01c1 0C       		.byte	0xc
 5094 01c2 0E       		.uleb128 0xe
 5095 01c3 14080000 		.4byte	.LASF30
 5096 01c7 0C       		.byte	0xc
 5097 01c8 32       		.byte	0x32
 5098 01c9 1B       		.byte	0x1b
 5099 01ca 2C000000 		.4byte	0x2c
 5100 01ce 10       		.byte	0x10
 5101 01cf 12       		.uleb128 0x12
 5102 01d0 5F7800   		.ascii	"_x\000"
 5103 01d3 0C       		.byte	0xc
 5104 01d4 33       		.byte	0x33
 5105 01d5 0B       		.byte	0xb
 5106 01d6 E2010000 		.4byte	0x1e2
 5107 01da 14       		.byte	0x14
 5108 01db 00       		.byte	0
 5109 01dc 06       		.uleb128 0x6
 5110 01dd 04       		.byte	0x4
 5111 01de 82010000 		.4byte	0x182
 5112 01e2 0B       		.uleb128 0xb
 5113 01e3 76010000 		.4byte	0x176
 5114 01e7 F2010000 		.4byte	0x1f2
 5115 01eb 0C       		.uleb128 0xc
 5116 01ec 25000000 		.4byte	0x25
 5117 01f0 00       		.byte	0
 5118 01f1 00       		.byte	0
ARM GAS  C:\Users\USER\AppData\Local\Temp\ccRejSya.s 			page 91


 5119 01f2 11       		.uleb128 0x11
 5120 01f3 92050000 		.4byte	.LASF32
 5121 01f7 24       		.byte	0x24
 5122 01f8 0C       		.byte	0xc
 5123 01f9 37       		.byte	0x37
 5124 01fa 08       		.byte	0x8
 5125 01fb 75020000 		.4byte	0x275
 5126 01ff 0E       		.uleb128 0xe
 5127 0200 C10E0000 		.4byte	.LASF33
 5128 0204 0C       		.byte	0xc
 5129 0205 39       		.byte	0x39
 5130 0206 09       		.byte	0x9
 5131 0207 2C000000 		.4byte	0x2c
 5132 020b 00       		.byte	0
 5133 020c 0E       		.uleb128 0xe
 5134 020d E61E0000 		.4byte	.LASF34
 5135 0211 0C       		.byte	0xc
 5136 0212 3A       		.byte	0x3a
 5137 0213 09       		.byte	0x9
 5138 0214 2C000000 		.4byte	0x2c
 5139 0218 04       		.byte	0x4
 5140 0219 0E       		.uleb128 0xe
 5141 021a 440C0000 		.4byte	.LASF35
 5142 021e 0C       		.byte	0xc
 5143 021f 3B       		.byte	0x3b
 5144 0220 09       		.byte	0x9
 5145 0221 2C000000 		.4byte	0x2c
 5146 0225 08       		.byte	0x8
 5147 0226 0E       		.uleb128 0xe
 5148 0227 E60C0000 		.4byte	.LASF36
 5149 022b 0C       		.byte	0xc
 5150 022c 3C       		.byte	0x3c
 5151 022d 09       		.byte	0x9
 5152 022e 2C000000 		.4byte	0x2c
 5153 0232 0C       		.byte	0xc
 5154 0233 0E       		.uleb128 0xe
 5155 0234 35010000 		.4byte	.LASF37
 5156 0238 0C       		.byte	0xc
 5157 0239 3D       		.byte	0x3d
 5158 023a 09       		.byte	0x9
 5159 023b 2C000000 		.4byte	0x2c
 5160 023f 10       		.byte	0x10
 5161 0240 0E       		.uleb128 0xe
 5162 0241 23090000 		.4byte	.LASF38
 5163 0245 0C       		.byte	0xc
 5164 0246 3E       		.byte	0x3e
 5165 0247 09       		.byte	0x9
 5166 0248 2C000000 		.4byte	0x2c
 5167 024c 14       		.byte	0x14
 5168 024d 0E       		.uleb128 0xe
 5169 024e 22070000 		.4byte	.LASF39
 5170 0252 0C       		.byte	0xc
 5171 0253 3F       		.byte	0x3f
 5172 0254 09       		.byte	0x9
 5173 0255 2C000000 		.4byte	0x2c
 5174 0259 18       		.byte	0x18
 5175 025a 0E       		.uleb128 0xe
ARM GAS  C:\Users\USER\AppData\Local\Temp\ccRejSya.s 			page 92


 5176 025b ED050000 		.4byte	.LASF40
 5177 025f 0C       		.byte	0xc
 5178 0260 40       		.byte	0x40
 5179 0261 09       		.byte	0x9
 5180 0262 2C000000 		.4byte	0x2c
 5181 0266 1C       		.byte	0x1c
 5182 0267 0E       		.uleb128 0xe
 5183 0268 2C070000 		.4byte	.LASF41
 5184 026c 0C       		.byte	0xc
 5185 026d 41       		.byte	0x41
 5186 026e 09       		.byte	0x9
 5187 026f 2C000000 		.4byte	0x2c
 5188 0273 20       		.byte	0x20
 5189 0274 00       		.byte	0
 5190 0275 13       		.uleb128 0x13
 5191 0276 D80E0000 		.4byte	.LASF42
 5192 027a 0801     		.2byte	0x108
 5193 027c 0C       		.byte	0xc
 5194 027d 4A       		.byte	0x4a
 5195 027e 08       		.byte	0x8
 5196 027f BA020000 		.4byte	0x2ba
 5197 0283 0E       		.uleb128 0xe
 5198 0284 1F0D0000 		.4byte	.LASF43
 5199 0288 0C       		.byte	0xc
 5200 0289 4B       		.byte	0x4b
 5201 028a 0A       		.byte	0xa
 5202 028b BA020000 		.4byte	0x2ba
 5203 028f 00       		.byte	0
 5204 0290 0E       		.uleb128 0xe
 5205 0291 06070000 		.4byte	.LASF44
 5206 0295 0C       		.byte	0xc
 5207 0296 4C       		.byte	0x4c
 5208 0297 09       		.byte	0x9
 5209 0298 BA020000 		.4byte	0x2ba
 5210 029c 80       		.byte	0x80
 5211 029d 14       		.uleb128 0x14
 5212 029e 3E010000 		.4byte	.LASF45
 5213 02a2 0C       		.byte	0xc
 5214 02a3 4E       		.byte	0x4e
 5215 02a4 0A       		.byte	0xa
 5216 02a5 76010000 		.4byte	0x176
 5217 02a9 0001     		.2byte	0x100
 5218 02ab 14       		.uleb128 0x14
 5219 02ac 91190000 		.4byte	.LASF46
 5220 02b0 0C       		.byte	0xc
 5221 02b1 51       		.byte	0x51
 5222 02b2 0A       		.byte	0xa
 5223 02b3 76010000 		.4byte	0x176
 5224 02b7 0401     		.2byte	0x104
 5225 02b9 00       		.byte	0
 5226 02ba 0B       		.uleb128 0xb
 5227 02bb 62010000 		.4byte	0x162
 5228 02bf CA020000 		.4byte	0x2ca
 5229 02c3 0C       		.uleb128 0xc
 5230 02c4 25000000 		.4byte	0x25
 5231 02c8 1F       		.byte	0x1f
 5232 02c9 00       		.byte	0
ARM GAS  C:\Users\USER\AppData\Local\Temp\ccRejSya.s 			page 93


 5233 02ca 13       		.uleb128 0x13
 5234 02cb CE000000 		.4byte	.LASF47
 5235 02cf 9001     		.2byte	0x190
 5236 02d1 0C       		.byte	0xc
 5237 02d2 5D       		.byte	0x5d
 5238 02d3 08       		.byte	0x8
 5239 02d4 0D030000 		.4byte	0x30d
 5240 02d8 0E       		.uleb128 0xe
 5241 02d9 BB0D0000 		.4byte	.LASF27
 5242 02dd 0C       		.byte	0xc
 5243 02de 5E       		.byte	0x5e
 5244 02df 12       		.byte	0x12
 5245 02e0 0D030000 		.4byte	0x30d
 5246 02e4 00       		.byte	0
 5247 02e5 0E       		.uleb128 0xe
 5248 02e6 5A010000 		.4byte	.LASF48
 5249 02ea 0C       		.byte	0xc
 5250 02eb 5F       		.byte	0x5f
 5251 02ec 06       		.byte	0x6
 5252 02ed 2C000000 		.4byte	0x2c
 5253 02f1 04       		.byte	0x4
 5254 02f2 0E       		.uleb128 0xe
 5255 02f3 C4180000 		.4byte	.LASF49
 5256 02f7 0C       		.byte	0xc
 5257 02f8 61       		.byte	0x61
 5258 02f9 09       		.byte	0x9
 5259 02fa 13030000 		.4byte	0x313
 5260 02fe 08       		.byte	0x8
 5261 02ff 0E       		.uleb128 0xe
 5262 0300 D80E0000 		.4byte	.LASF42
 5263 0304 0C       		.byte	0xc
 5264 0305 62       		.byte	0x62
 5265 0306 1E       		.byte	0x1e
 5266 0307 75020000 		.4byte	0x275
 5267 030b 88       		.byte	0x88
 5268 030c 00       		.byte	0
 5269 030d 06       		.uleb128 0x6
 5270 030e 04       		.byte	0x4
 5271 030f CA020000 		.4byte	0x2ca
 5272 0313 0B       		.uleb128 0xb
 5273 0314 23030000 		.4byte	0x323
 5274 0318 23030000 		.4byte	0x323
 5275 031c 0C       		.uleb128 0xc
 5276 031d 25000000 		.4byte	0x25
 5277 0321 1F       		.byte	0x1f
 5278 0322 00       		.byte	0
 5279 0323 06       		.uleb128 0x6
 5280 0324 04       		.byte	0x4
 5281 0325 29030000 		.4byte	0x329
 5282 0329 15       		.uleb128 0x15
 5283 032a 11       		.uleb128 0x11
 5284 032b 43120000 		.4byte	.LASF50
 5285 032f 08       		.byte	0x8
 5286 0330 0C       		.byte	0xc
 5287 0331 75       		.byte	0x75
 5288 0332 08       		.byte	0x8
 5289 0333 52030000 		.4byte	0x352
ARM GAS  C:\Users\USER\AppData\Local\Temp\ccRejSya.s 			page 94


 5290 0337 0E       		.uleb128 0xe
 5291 0338 20050000 		.4byte	.LASF51
 5292 033c 0C       		.byte	0xc
 5293 033d 76       		.byte	0x76
 5294 033e 11       		.byte	0x11
 5295 033f 52030000 		.4byte	0x352
 5296 0343 00       		.byte	0
 5297 0344 0E       		.uleb128 0xe
 5298 0345 23080000 		.4byte	.LASF52
 5299 0349 0C       		.byte	0xc
 5300 034a 77       		.byte	0x77
 5301 034b 06       		.byte	0x6
 5302 034c 2C000000 		.4byte	0x2c
 5303 0350 04       		.byte	0x4
 5304 0351 00       		.byte	0
 5305 0352 06       		.uleb128 0x6
 5306 0353 04       		.byte	0x4
 5307 0354 57000000 		.4byte	0x57
 5308 0358 11       		.uleb128 0x11
 5309 0359 BC180000 		.4byte	.LASF53
 5310 035d 68       		.byte	0x68
 5311 035e 0C       		.byte	0xc
 5312 035f B5       		.byte	0xb5
 5313 0360 08       		.byte	0x8
 5314 0361 9B040000 		.4byte	0x49b
 5315 0365 12       		.uleb128 0x12
 5316 0366 5F7000   		.ascii	"_p\000"
 5317 0369 0C       		.byte	0xc
 5318 036a B6       		.byte	0xb6
 5319 036b 12       		.byte	0x12
 5320 036c 52030000 		.4byte	0x352
 5321 0370 00       		.byte	0
 5322 0371 12       		.uleb128 0x12
 5323 0372 5F7200   		.ascii	"_r\000"
 5324 0375 0C       		.byte	0xc
 5325 0376 B7       		.byte	0xb7
 5326 0377 07       		.byte	0x7
 5327 0378 2C000000 		.4byte	0x2c
 5328 037c 04       		.byte	0x4
 5329 037d 12       		.uleb128 0x12
 5330 037e 5F7700   		.ascii	"_w\000"
 5331 0381 0C       		.byte	0xc
 5332 0382 B8       		.byte	0xb8
 5333 0383 07       		.byte	0x7
 5334 0384 2C000000 		.4byte	0x2c
 5335 0388 08       		.byte	0x8
 5336 0389 0E       		.uleb128 0xe
 5337 038a A1010000 		.4byte	.LASF54
 5338 038e 0C       		.byte	0xc
 5339 038f B9       		.byte	0xb9
 5340 0390 09       		.byte	0x9
 5341 0391 5E000000 		.4byte	0x5e
 5342 0395 0C       		.byte	0xc
 5343 0396 0E       		.uleb128 0xe
 5344 0397 9B180000 		.4byte	.LASF55
 5345 039b 0C       		.byte	0xc
 5346 039c BA       		.byte	0xba
ARM GAS  C:\Users\USER\AppData\Local\Temp\ccRejSya.s 			page 95


 5347 039d 09       		.byte	0x9
 5348 039e 5E000000 		.4byte	0x5e
 5349 03a2 0E       		.byte	0xe
 5350 03a3 12       		.uleb128 0x12
 5351 03a4 5F626600 		.ascii	"_bf\000"
 5352 03a8 0C       		.byte	0xc
 5353 03a9 BB       		.byte	0xbb
 5354 03aa 11       		.byte	0x11
 5355 03ab 2A030000 		.4byte	0x32a
 5356 03af 10       		.byte	0x10
 5357 03b0 0E       		.uleb128 0xe
 5358 03b1 CD030000 		.4byte	.LASF56
 5359 03b5 0C       		.byte	0xc
 5360 03b6 BC       		.byte	0xbc
 5361 03b7 07       		.byte	0x7
 5362 03b8 2C000000 		.4byte	0x2c
 5363 03bc 18       		.byte	0x18
 5364 03bd 0E       		.uleb128 0xe
 5365 03be F60D0000 		.4byte	.LASF57
 5366 03c2 0C       		.byte	0xc
 5367 03c3 C3       		.byte	0xc3
 5368 03c4 0A       		.byte	0xa
 5369 03c5 62010000 		.4byte	0x162
 5370 03c9 1C       		.byte	0x1c
 5371 03ca 0E       		.uleb128 0xe
 5372 03cb A51F0000 		.4byte	.LASF58
 5373 03cf 0C       		.byte	0xc
 5374 03d0 C5       		.byte	0xc5
 5375 03d1 1D       		.byte	0x1d
 5376 03d2 0D060000 		.4byte	0x60d
 5377 03d6 20       		.byte	0x20
 5378 03d7 0E       		.uleb128 0xe
 5379 03d8 9A080000 		.4byte	.LASF59
 5380 03dc 0C       		.byte	0xc
 5381 03dd C7       		.byte	0xc7
 5382 03de 1D       		.byte	0x1d
 5383 03df 3C060000 		.4byte	0x63c
 5384 03e3 24       		.byte	0x24
 5385 03e4 0E       		.uleb128 0xe
 5386 03e5 1F110000 		.4byte	.LASF60
 5387 03e9 0C       		.byte	0xc
 5388 03ea CA       		.byte	0xca
 5389 03eb 0D       		.byte	0xd
 5390 03ec 60060000 		.4byte	0x660
 5391 03f0 28       		.byte	0x28
 5392 03f1 0E       		.uleb128 0xe
 5393 03f2 47160000 		.4byte	.LASF61
 5394 03f6 0C       		.byte	0xc
 5395 03f7 CB       		.byte	0xcb
 5396 03f8 09       		.byte	0x9
 5397 03f9 7A060000 		.4byte	0x67a
 5398 03fd 2C       		.byte	0x2c
 5399 03fe 12       		.uleb128 0x12
 5400 03ff 5F756200 		.ascii	"_ub\000"
 5401 0403 0C       		.byte	0xc
 5402 0404 CE       		.byte	0xce
 5403 0405 11       		.byte	0x11
ARM GAS  C:\Users\USER\AppData\Local\Temp\ccRejSya.s 			page 96


 5404 0406 2A030000 		.4byte	0x32a
 5405 040a 30       		.byte	0x30
 5406 040b 12       		.uleb128 0x12
 5407 040c 5F757000 		.ascii	"_up\000"
 5408 0410 0C       		.byte	0xc
 5409 0411 CF       		.byte	0xcf
 5410 0412 12       		.byte	0x12
 5411 0413 52030000 		.4byte	0x352
 5412 0417 38       		.byte	0x38
 5413 0418 12       		.uleb128 0x12
 5414 0419 5F757200 		.ascii	"_ur\000"
 5415 041d 0C       		.byte	0xc
 5416 041e D0       		.byte	0xd0
 5417 041f 07       		.byte	0x7
 5418 0420 2C000000 		.4byte	0x2c
 5419 0424 3C       		.byte	0x3c
 5420 0425 0E       		.uleb128 0xe
 5421 0426 0D180000 		.4byte	.LASF62
 5422 042a 0C       		.byte	0xc
 5423 042b D3       		.byte	0xd3
 5424 042c 11       		.byte	0x11
 5425 042d 80060000 		.4byte	0x680
 5426 0431 40       		.byte	0x40
 5427 0432 0E       		.uleb128 0xe
 5428 0433 3D020000 		.4byte	.LASF63
 5429 0437 0C       		.byte	0xc
 5430 0438 D4       		.byte	0xd4
 5431 0439 11       		.byte	0x11
 5432 043a 90060000 		.4byte	0x690
 5433 043e 43       		.byte	0x43
 5434 043f 12       		.uleb128 0x12
 5435 0440 5F6C6200 		.ascii	"_lb\000"
 5436 0444 0C       		.byte	0xc
 5437 0445 D7       		.byte	0xd7
 5438 0446 11       		.byte	0x11
 5439 0447 2A030000 		.4byte	0x32a
 5440 044b 44       		.byte	0x44
 5441 044c 0E       		.uleb128 0xe
 5442 044d FB170000 		.4byte	.LASF64
 5443 0451 0C       		.byte	0xc
 5444 0452 DA       		.byte	0xda
 5445 0453 07       		.byte	0x7
 5446 0454 2C000000 		.4byte	0x2c
 5447 0458 4C       		.byte	0x4c
 5448 0459 0E       		.uleb128 0xe
 5449 045a F9110000 		.4byte	.LASF65
 5450 045e 0C       		.byte	0xc
 5451 045f DB       		.byte	0xdb
 5452 0460 0A       		.byte	0xa
 5453 0461 CF000000 		.4byte	0xcf
 5454 0465 50       		.byte	0x50
 5455 0466 0E       		.uleb128 0xe
 5456 0467 2D040000 		.4byte	.LASF66
 5457 046b 0C       		.byte	0xc
 5458 046c DE       		.byte	0xde
 5459 046d 12       		.byte	0x12
 5460 046e B9040000 		.4byte	0x4b9
ARM GAS  C:\Users\USER\AppData\Local\Temp\ccRejSya.s 			page 97


 5461 0472 54       		.byte	0x54
 5462 0473 0E       		.uleb128 0xe
 5463 0474 37020000 		.4byte	.LASF67
 5464 0478 0C       		.byte	0xc
 5465 0479 E2       		.byte	0xe2
 5466 047a 0C       		.byte	0xc
 5467 047b 56010000 		.4byte	0x156
 5468 047f 58       		.byte	0x58
 5469 0480 0E       		.uleb128 0xe
 5470 0481 C5000000 		.4byte	.LASF68
 5471 0485 0C       		.byte	0xc
 5472 0486 E4       		.byte	0xe4
 5473 0487 0E       		.byte	0xe
 5474 0488 4A010000 		.4byte	0x14a
 5475 048c 5C       		.byte	0x5c
 5476 048d 0E       		.uleb128 0xe
 5477 048e 9D1D0000 		.4byte	.LASF69
 5478 0492 0C       		.byte	0xc
 5479 0493 E5       		.byte	0xe5
 5480 0494 09       		.byte	0x9
 5481 0495 2C000000 		.4byte	0x2c
 5482 0499 64       		.byte	0x64
 5483 049a 00       		.byte	0
 5484 049b 16       		.uleb128 0x16
 5485 049c 2C000000 		.4byte	0x2c
 5486 04a0 B9040000 		.4byte	0x4b9
 5487 04a4 17       		.uleb128 0x17
 5488 04a5 B9040000 		.4byte	0x4b9
 5489 04a9 17       		.uleb128 0x17
 5490 04aa 62010000 		.4byte	0x162
 5491 04ae 17       		.uleb128 0x17
 5492 04af 64010000 		.4byte	0x164
 5493 04b3 17       		.uleb128 0x17
 5494 04b4 2C000000 		.4byte	0x2c
 5495 04b8 00       		.byte	0
 5496 04b9 06       		.uleb128 0x6
 5497 04ba 04       		.byte	0x4
 5498 04bb C4040000 		.4byte	0x4c4
 5499 04bf 10       		.uleb128 0x10
 5500 04c0 B9040000 		.4byte	0x4b9
 5501 04c4 18       		.uleb128 0x18
 5502 04c5 CD040000 		.4byte	.LASF70
 5503 04c9 2804     		.2byte	0x428
 5504 04cb 0C       		.byte	0xc
 5505 04cc 6002     		.2byte	0x260
 5506 04ce 08       		.byte	0x8
 5507 04cf 0D060000 		.4byte	0x60d
 5508 04d3 19       		.uleb128 0x19
 5509 04d4 CB0C0000 		.4byte	.LASF71
 5510 04d8 0C       		.byte	0xc
 5511 04d9 6202     		.2byte	0x262
 5512 04db 07       		.byte	0x7
 5513 04dc 2C000000 		.4byte	0x2c
 5514 04e0 00       		.byte	0
 5515 04e1 19       		.uleb128 0x19
 5516 04e2 1E0A0000 		.4byte	.LASF72
 5517 04e6 0C       		.byte	0xc
ARM GAS  C:\Users\USER\AppData\Local\Temp\ccRejSya.s 			page 98


 5518 04e7 6702     		.2byte	0x267
 5519 04e9 0B       		.byte	0xb
 5520 04ea EC060000 		.4byte	0x6ec
 5521 04ee 04       		.byte	0x4
 5522 04ef 19       		.uleb128 0x19
 5523 04f0 9B070000 		.4byte	.LASF73
 5524 04f4 0C       		.byte	0xc
 5525 04f5 6702     		.2byte	0x267
 5526 04f7 14       		.byte	0x14
 5527 04f8 EC060000 		.4byte	0x6ec
 5528 04fc 08       		.byte	0x8
 5529 04fd 19       		.uleb128 0x19
 5530 04fe E0060000 		.4byte	.LASF74
 5531 0502 0C       		.byte	0xc
 5532 0503 6702     		.2byte	0x267
 5533 0505 1E       		.byte	0x1e
 5534 0506 EC060000 		.4byte	0x6ec
 5535 050a 0C       		.byte	0xc
 5536 050b 19       		.uleb128 0x19
 5537 050c 55010000 		.4byte	.LASF75
 5538 0510 0C       		.byte	0xc
 5539 0511 6902     		.2byte	0x269
 5540 0513 08       		.byte	0x8
 5541 0514 2C000000 		.4byte	0x2c
 5542 0518 10       		.byte	0x10
 5543 0519 19       		.uleb128 0x19
 5544 051a D9140000 		.4byte	.LASF76
 5545 051e 0C       		.byte	0xc
 5546 051f 6A02     		.2byte	0x26a
 5547 0521 08       		.byte	0x8
 5548 0522 EC080000 		.4byte	0x8ec
 5549 0526 14       		.byte	0x14
 5550 0527 19       		.uleb128 0x19
 5551 0528 1E1C0000 		.4byte	.LASF77
 5552 052c 0C       		.byte	0xc
 5553 052d 6D02     		.2byte	0x26d
 5554 052f 07       		.byte	0x7
 5555 0530 2C000000 		.4byte	0x2c
 5556 0534 30       		.byte	0x30
 5557 0535 19       		.uleb128 0x19
 5558 0536 E91D0000 		.4byte	.LASF78
 5559 053a 0C       		.byte	0xc
 5560 053b 6E02     		.2byte	0x26e
 5561 053d 16       		.byte	0x16
 5562 053e 01090000 		.4byte	0x901
 5563 0542 34       		.byte	0x34
 5564 0543 19       		.uleb128 0x19
 5565 0544 681C0000 		.4byte	.LASF79
 5566 0548 0C       		.byte	0xc
 5567 0549 7002     		.2byte	0x270
 5568 054b 07       		.byte	0x7
 5569 054c 2C000000 		.4byte	0x2c
 5570 0550 38       		.byte	0x38
 5571 0551 19       		.uleb128 0x19
 5572 0552 46180000 		.4byte	.LASF80
 5573 0556 0C       		.byte	0xc
 5574 0557 7202     		.2byte	0x272
ARM GAS  C:\Users\USER\AppData\Local\Temp\ccRejSya.s 			page 99


 5575 0559 0A       		.byte	0xa
 5576 055a 12090000 		.4byte	0x912
 5577 055e 3C       		.byte	0x3c
 5578 055f 19       		.uleb128 0x19
 5579 0560 E8060000 		.4byte	.LASF81
 5580 0564 0C       		.byte	0xc
 5581 0565 7502     		.2byte	0x275
 5582 0567 13       		.byte	0x13
 5583 0568 DC010000 		.4byte	0x1dc
 5584 056c 40       		.byte	0x40
 5585 056d 19       		.uleb128 0x19
 5586 056e D1060000 		.4byte	.LASF82
 5587 0572 0C       		.byte	0xc
 5588 0573 7602     		.2byte	0x276
 5589 0575 07       		.byte	0x7
 5590 0576 2C000000 		.4byte	0x2c
 5591 057a 44       		.byte	0x44
 5592 057b 19       		.uleb128 0x19
 5593 057c CD190000 		.4byte	.LASF83
 5594 0580 0C       		.byte	0xc
 5595 0581 7702     		.2byte	0x277
 5596 0583 13       		.byte	0x13
 5597 0584 DC010000 		.4byte	0x1dc
 5598 0588 48       		.byte	0x48
 5599 0589 19       		.uleb128 0x19
 5600 058a A6110000 		.4byte	.LASF84
 5601 058e 0C       		.byte	0xc
 5602 058f 7802     		.2byte	0x278
 5603 0591 14       		.byte	0x14
 5604 0592 18090000 		.4byte	0x918
 5605 0596 4C       		.byte	0x4c
 5606 0597 19       		.uleb128 0x19
 5607 0598 CF010000 		.4byte	.LASF85
 5608 059c 0C       		.byte	0xc
 5609 059d 7B02     		.2byte	0x27b
 5610 059f 07       		.byte	0x7
 5611 05a0 2C000000 		.4byte	0x2c
 5612 05a4 50       		.byte	0x50
 5613 05a5 19       		.uleb128 0x19
 5614 05a6 970B0000 		.4byte	.LASF86
 5615 05aa 0C       		.byte	0xc
 5616 05ab 7C02     		.2byte	0x27c
 5617 05ad 09       		.byte	0x9
 5618 05ae 64010000 		.4byte	0x164
 5619 05b2 54       		.byte	0x54
 5620 05b3 19       		.uleb128 0x19
 5621 05b4 730C0000 		.4byte	.LASF87
 5622 05b8 0C       		.byte	0xc
 5623 05b9 9F02     		.2byte	0x29f
 5624 05bb 07       		.byte	0x7
 5625 05bc C7080000 		.4byte	0x8c7
 5626 05c0 58       		.byte	0x58
 5627 05c1 1A       		.uleb128 0x1a
 5628 05c2 CE000000 		.4byte	.LASF47
 5629 05c6 0C       		.byte	0xc
 5630 05c7 A302     		.2byte	0x2a3
 5631 05c9 13       		.byte	0x13
ARM GAS  C:\Users\USER\AppData\Local\Temp\ccRejSya.s 			page 100


 5632 05ca 0D030000 		.4byte	0x30d
 5633 05ce 4801     		.2byte	0x148
 5634 05d0 1A       		.uleb128 0x1a
 5635 05d1 06170000 		.4byte	.LASF88
 5636 05d5 0C       		.byte	0xc
 5637 05d6 A402     		.2byte	0x2a4
 5638 05d8 12       		.byte	0x12
 5639 05d9 CA020000 		.4byte	0x2ca
 5640 05dd 4C01     		.2byte	0x14c
 5641 05df 1A       		.uleb128 0x1a
 5642 05e0 FB010000 		.4byte	.LASF89
 5643 05e4 0C       		.byte	0xc
 5644 05e5 A802     		.2byte	0x2a8
 5645 05e7 0C       		.byte	0xc
 5646 05e8 29090000 		.4byte	0x929
 5647 05ec DC02     		.2byte	0x2dc
 5648 05ee 1A       		.uleb128 0x1a
 5649 05ef 27180000 		.4byte	.LASF90
 5650 05f3 0C       		.byte	0xc
 5651 05f4 AD02     		.2byte	0x2ad
 5652 05f6 10       		.byte	0x10
 5653 05f7 AD060000 		.4byte	0x6ad
 5654 05fb E002     		.2byte	0x2e0
 5655 05fd 1A       		.uleb128 0x1a
 5656 05fe 12050000 		.4byte	.LASF91
 5657 0602 0C       		.byte	0xc
 5658 0603 AF02     		.2byte	0x2af
 5659 0605 0A       		.byte	0xa
 5660 0606 35090000 		.4byte	0x935
 5661 060a EC02     		.2byte	0x2ec
 5662 060c 00       		.byte	0
 5663 060d 06       		.uleb128 0x6
 5664 060e 04       		.byte	0x4
 5665 060f 9B040000 		.4byte	0x49b
 5666 0613 16       		.uleb128 0x16
 5667 0614 2C000000 		.4byte	0x2c
 5668 0618 31060000 		.4byte	0x631
 5669 061c 17       		.uleb128 0x17
 5670 061d B9040000 		.4byte	0x4b9
 5671 0621 17       		.uleb128 0x17
 5672 0622 62010000 		.4byte	0x162
 5673 0626 17       		.uleb128 0x17
 5674 0627 31060000 		.4byte	0x631
 5675 062b 17       		.uleb128 0x17
 5676 062c 2C000000 		.4byte	0x2c
 5677 0630 00       		.byte	0
 5678 0631 06       		.uleb128 0x6
 5679 0632 04       		.byte	0x4
 5680 0633 71010000 		.4byte	0x171
 5681 0637 05       		.uleb128 0x5
 5682 0638 31060000 		.4byte	0x631
 5683 063c 06       		.uleb128 0x6
 5684 063d 04       		.byte	0x4
 5685 063e 13060000 		.4byte	0x613
 5686 0642 16       		.uleb128 0x16
 5687 0643 DB000000 		.4byte	0xdb
 5688 0647 60060000 		.4byte	0x660
ARM GAS  C:\Users\USER\AppData\Local\Temp\ccRejSya.s 			page 101


 5689 064b 17       		.uleb128 0x17
 5690 064c B9040000 		.4byte	0x4b9
 5691 0650 17       		.uleb128 0x17
 5692 0651 62010000 		.4byte	0x162
 5693 0655 17       		.uleb128 0x17
 5694 0656 DB000000 		.4byte	0xdb
 5695 065a 17       		.uleb128 0x17
 5696 065b 2C000000 		.4byte	0x2c
 5697 065f 00       		.byte	0
 5698 0660 06       		.uleb128 0x6
 5699 0661 04       		.byte	0x4
 5700 0662 42060000 		.4byte	0x642
 5701 0666 16       		.uleb128 0x16
 5702 0667 2C000000 		.4byte	0x2c
 5703 066b 7A060000 		.4byte	0x67a
 5704 066f 17       		.uleb128 0x17
 5705 0670 B9040000 		.4byte	0x4b9
 5706 0674 17       		.uleb128 0x17
 5707 0675 62010000 		.4byte	0x162
 5708 0679 00       		.byte	0
 5709 067a 06       		.uleb128 0x6
 5710 067b 04       		.byte	0x4
 5711 067c 66060000 		.4byte	0x666
 5712 0680 0B       		.uleb128 0xb
 5713 0681 57000000 		.4byte	0x57
 5714 0685 90060000 		.4byte	0x690
 5715 0689 0C       		.uleb128 0xc
 5716 068a 25000000 		.4byte	0x25
 5717 068e 02       		.byte	0x2
 5718 068f 00       		.byte	0
 5719 0690 0B       		.uleb128 0xb
 5720 0691 57000000 		.4byte	0x57
 5721 0695 A0060000 		.4byte	0x6a0
 5722 0699 0C       		.uleb128 0xc
 5723 069a 25000000 		.4byte	0x25
 5724 069e 00       		.byte	0
 5725 069f 00       		.byte	0
 5726 06a0 08       		.uleb128 0x8
 5727 06a1 B21E0000 		.4byte	.LASF92
 5728 06a5 0C       		.byte	0xc
 5729 06a6 1F01     		.2byte	0x11f
 5730 06a8 1A       		.byte	0x1a
 5731 06a9 58030000 		.4byte	0x358
 5732 06ad 1B       		.uleb128 0x1b
 5733 06ae 71160000 		.4byte	.LASF93
 5734 06b2 0C       		.byte	0xc
 5735 06b3 0C       		.byte	0xc
 5736 06b4 2301     		.2byte	0x123
 5737 06b6 08       		.byte	0x8
 5738 06b7 E6060000 		.4byte	0x6e6
 5739 06bb 19       		.uleb128 0x19
 5740 06bc BB0D0000 		.4byte	.LASF27
 5741 06c0 0C       		.byte	0xc
 5742 06c1 2501     		.2byte	0x125
 5743 06c3 11       		.byte	0x11
 5744 06c4 E6060000 		.4byte	0x6e6
 5745 06c8 00       		.byte	0
ARM GAS  C:\Users\USER\AppData\Local\Temp\ccRejSya.s 			page 102


 5746 06c9 19       		.uleb128 0x19
 5747 06ca 970C0000 		.4byte	.LASF94
 5748 06ce 0C       		.byte	0xc
 5749 06cf 2601     		.2byte	0x126
 5750 06d1 07       		.byte	0x7
 5751 06d2 2C000000 		.4byte	0x2c
 5752 06d6 04       		.byte	0x4
 5753 06d7 19       		.uleb128 0x19
 5754 06d8 D3140000 		.4byte	.LASF95
 5755 06dc 0C       		.byte	0xc
 5756 06dd 2701     		.2byte	0x127
 5757 06df 0B       		.byte	0xb
 5758 06e0 EC060000 		.4byte	0x6ec
 5759 06e4 08       		.byte	0x8
 5760 06e5 00       		.byte	0
 5761 06e6 06       		.uleb128 0x6
 5762 06e7 04       		.byte	0x4
 5763 06e8 AD060000 		.4byte	0x6ad
 5764 06ec 06       		.uleb128 0x6
 5765 06ed 04       		.byte	0x4
 5766 06ee A0060000 		.4byte	0x6a0
 5767 06f2 1B       		.uleb128 0x1b
 5768 06f3 D81F0000 		.4byte	.LASF96
 5769 06f7 0E       		.byte	0xe
 5770 06f8 0C       		.byte	0xc
 5771 06f9 3F01     		.2byte	0x13f
 5772 06fb 08       		.byte	0x8
 5773 06fc 2B070000 		.4byte	0x72b
 5774 0700 19       		.uleb128 0x19
 5775 0701 19110000 		.4byte	.LASF97
 5776 0705 0C       		.byte	0xc
 5777 0706 4001     		.2byte	0x140
 5778 0708 12       		.byte	0x12
 5779 0709 2B070000 		.4byte	0x72b
 5780 070d 00       		.byte	0
 5781 070e 19       		.uleb128 0x19
 5782 070f 83090000 		.4byte	.LASF98
 5783 0713 0C       		.byte	0xc
 5784 0714 4101     		.2byte	0x141
 5785 0716 12       		.byte	0x12
 5786 0717 2B070000 		.4byte	0x72b
 5787 071b 06       		.byte	0x6
 5788 071c 19       		.uleb128 0x19
 5789 071d 25030000 		.4byte	.LASF99
 5790 0721 0C       		.byte	0xc
 5791 0722 4201     		.2byte	0x142
 5792 0724 12       		.byte	0x12
 5793 0725 71000000 		.4byte	0x71
 5794 0729 0C       		.byte	0xc
 5795 072a 00       		.byte	0
 5796 072b 0B       		.uleb128 0xb
 5797 072c 71000000 		.4byte	0x71
 5798 0730 3B070000 		.4byte	0x73b
 5799 0734 0C       		.uleb128 0xc
 5800 0735 25000000 		.4byte	0x25
 5801 0739 02       		.byte	0x2
 5802 073a 00       		.byte	0
ARM GAS  C:\Users\USER\AppData\Local\Temp\ccRejSya.s 			page 103


 5803 073b 1C       		.uleb128 0x1c
 5804 073c D0       		.byte	0xd0
 5805 073d 0C       		.byte	0xc
 5806 073e 8002     		.2byte	0x280
 5807 0740 07       		.byte	0x7
 5808 0741 50080000 		.4byte	0x850
 5809 0745 19       		.uleb128 0x19
 5810 0746 4E060000 		.4byte	.LASF100
 5811 074a 0C       		.byte	0xc
 5812 074b 8202     		.2byte	0x282
 5813 074d 18       		.byte	0x18
 5814 074e 25000000 		.4byte	0x25
 5815 0752 00       		.byte	0
 5816 0753 19       		.uleb128 0x19
 5817 0754 AE100000 		.4byte	.LASF101
 5818 0758 0C       		.byte	0xc
 5819 0759 8302     		.2byte	0x283
 5820 075b 12       		.byte	0x12
 5821 075c 64010000 		.4byte	0x164
 5822 0760 04       		.byte	0x4
 5823 0761 19       		.uleb128 0x19
 5824 0762 94120000 		.4byte	.LASF102
 5825 0766 0C       		.byte	0xc
 5826 0767 8402     		.2byte	0x284
 5827 0769 10       		.byte	0x10
 5828 076a 50080000 		.4byte	0x850
 5829 076e 08       		.byte	0x8
 5830 076f 19       		.uleb128 0x19
 5831 0770 B80A0000 		.4byte	.LASF103
 5832 0774 0C       		.byte	0xc
 5833 0775 8502     		.2byte	0x285
 5834 0777 17       		.byte	0x17
 5835 0778 F2010000 		.4byte	0x1f2
 5836 077c 24       		.byte	0x24
 5837 077d 19       		.uleb128 0x19
 5838 077e 3F1B0000 		.4byte	.LASF104
 5839 0782 0C       		.byte	0xc
 5840 0783 8602     		.2byte	0x286
 5841 0785 0F       		.byte	0xf
 5842 0786 2C000000 		.4byte	0x2c
 5843 078a 48       		.byte	0x48
 5844 078b 19       		.uleb128 0x19
 5845 078c 10150000 		.4byte	.LASF105
 5846 0790 0C       		.byte	0xc
 5847 0791 8702     		.2byte	0x287
 5848 0793 2C       		.byte	0x2c
 5849 0794 B1000000 		.4byte	0xb1
 5850 0798 50       		.byte	0x50
 5851 0799 19       		.uleb128 0x19
 5852 079a 461F0000 		.4byte	.LASF106
 5853 079e 0C       		.byte	0xc
 5854 079f 8802     		.2byte	0x288
 5855 07a1 1A       		.byte	0x1a
 5856 07a2 F2060000 		.4byte	0x6f2
 5857 07a6 58       		.byte	0x58
 5858 07a7 19       		.uleb128 0x19
 5859 07a8 1A180000 		.4byte	.LASF107
ARM GAS  C:\Users\USER\AppData\Local\Temp\ccRejSya.s 			page 104


 5860 07ac 0C       		.byte	0xc
 5861 07ad 8902     		.2byte	0x289
 5862 07af 16       		.byte	0x16
 5863 07b0 4A010000 		.4byte	0x14a
 5864 07b4 68       		.byte	0x68
 5865 07b5 19       		.uleb128 0x19
 5866 07b6 38050000 		.4byte	.LASF108
 5867 07ba 0C       		.byte	0xc
 5868 07bb 8A02     		.2byte	0x28a
 5869 07bd 16       		.byte	0x16
 5870 07be 4A010000 		.4byte	0x14a
 5871 07c2 70       		.byte	0x70
 5872 07c3 19       		.uleb128 0x19
 5873 07c4 65130000 		.4byte	.LASF109
 5874 07c8 0C       		.byte	0xc
 5875 07c9 8B02     		.2byte	0x28b
 5876 07cb 16       		.byte	0x16
 5877 07cc 4A010000 		.4byte	0x14a
 5878 07d0 78       		.byte	0x78
 5879 07d1 19       		.uleb128 0x19
 5880 07d2 5E120000 		.4byte	.LASF110
 5881 07d6 0C       		.byte	0xc
 5882 07d7 8C02     		.2byte	0x28c
 5883 07d9 10       		.byte	0x10
 5884 07da 60080000 		.4byte	0x860
 5885 07de 80       		.byte	0x80
 5886 07df 19       		.uleb128 0x19
 5887 07e0 D50D0000 		.4byte	.LASF111
 5888 07e4 0C       		.byte	0xc
 5889 07e5 8D02     		.2byte	0x28d
 5890 07e7 10       		.byte	0x10
 5891 07e8 70080000 		.4byte	0x870
 5892 07ec 88       		.byte	0x88
 5893 07ed 19       		.uleb128 0x19
 5894 07ee 5A170000 		.4byte	.LASF112
 5895 07f2 0C       		.byte	0xc
 5896 07f3 8E02     		.2byte	0x28e
 5897 07f5 0F       		.byte	0xf
 5898 07f6 2C000000 		.4byte	0x2c
 5899 07fa A0       		.byte	0xa0
 5900 07fb 19       		.uleb128 0x19
 5901 07fc B5090000 		.4byte	.LASF113
 5902 0800 0C       		.byte	0xc
 5903 0801 8F02     		.2byte	0x28f
 5904 0803 16       		.byte	0x16
 5905 0804 4A010000 		.4byte	0x14a
 5906 0808 A4       		.byte	0xa4
 5907 0809 19       		.uleb128 0x19
 5908 080a 210C0000 		.4byte	.LASF114
 5909 080e 0C       		.byte	0xc
 5910 080f 9002     		.2byte	0x290
 5911 0811 16       		.byte	0x16
 5912 0812 4A010000 		.4byte	0x14a
 5913 0816 AC       		.byte	0xac
 5914 0817 19       		.uleb128 0x19
 5915 0818 E9070000 		.4byte	.LASF115
 5916 081c 0C       		.byte	0xc
ARM GAS  C:\Users\USER\AppData\Local\Temp\ccRejSya.s 			page 105


 5917 081d 9102     		.2byte	0x291
 5918 081f 16       		.byte	0x16
 5919 0820 4A010000 		.4byte	0x14a
 5920 0824 B4       		.byte	0xb4
 5921 0825 19       		.uleb128 0x19
 5922 0826 420F0000 		.4byte	.LASF116
 5923 082a 0C       		.byte	0xc
 5924 082b 9202     		.2byte	0x292
 5925 082d 16       		.byte	0x16
 5926 082e 4A010000 		.4byte	0x14a
 5927 0832 BC       		.byte	0xbc
 5928 0833 19       		.uleb128 0x19
 5929 0834 D9120000 		.4byte	.LASF117
 5930 0838 0C       		.byte	0xc
 5931 0839 9302     		.2byte	0x293
 5932 083b 16       		.byte	0x16
 5933 083c 4A010000 		.4byte	0x14a
 5934 0840 C4       		.byte	0xc4
 5935 0841 19       		.uleb128 0x19
 5936 0842 F1180000 		.4byte	.LASF118
 5937 0846 0C       		.byte	0xc
 5938 0847 9402     		.2byte	0x294
 5939 0849 08       		.byte	0x8
 5940 084a 2C000000 		.4byte	0x2c
 5941 084e CC       		.byte	0xcc
 5942 084f 00       		.byte	0
 5943 0850 0B       		.uleb128 0xb
 5944 0851 6A010000 		.4byte	0x16a
 5945 0855 60080000 		.4byte	0x860
 5946 0859 0C       		.uleb128 0xc
 5947 085a 25000000 		.4byte	0x25
 5948 085e 19       		.byte	0x19
 5949 085f 00       		.byte	0
 5950 0860 0B       		.uleb128 0xb
 5951 0861 6A010000 		.4byte	0x16a
 5952 0865 70080000 		.4byte	0x870
 5953 0869 0C       		.uleb128 0xc
 5954 086a 25000000 		.4byte	0x25
 5955 086e 07       		.byte	0x7
 5956 086f 00       		.byte	0
 5957 0870 0B       		.uleb128 0xb
 5958 0871 6A010000 		.4byte	0x16a
 5959 0875 80080000 		.4byte	0x880
 5960 0879 0C       		.uleb128 0xc
 5961 087a 25000000 		.4byte	0x25
 5962 087e 17       		.byte	0x17
 5963 087f 00       		.byte	0
 5964 0880 1C       		.uleb128 0x1c
 5965 0881 F0       		.byte	0xf0
 5966 0882 0C       		.byte	0xc
 5967 0883 9902     		.2byte	0x299
 5968 0885 07       		.byte	0x7
 5969 0886 A7080000 		.4byte	0x8a7
 5970 088a 19       		.uleb128 0x19
 5971 088b 03150000 		.4byte	.LASF119
 5972 088f 0C       		.byte	0xc
 5973 0890 9C02     		.2byte	0x29c
ARM GAS  C:\Users\USER\AppData\Local\Temp\ccRejSya.s 			page 106


 5974 0892 1B       		.byte	0x1b
 5975 0893 A7080000 		.4byte	0x8a7
 5976 0897 00       		.byte	0
 5977 0898 19       		.uleb128 0x19
 5978 0899 250A0000 		.4byte	.LASF120
 5979 089d 0C       		.byte	0xc
 5980 089e 9D02     		.2byte	0x29d
 5981 08a0 18       		.byte	0x18
 5982 08a1 B7080000 		.4byte	0x8b7
 5983 08a5 78       		.byte	0x78
 5984 08a6 00       		.byte	0
 5985 08a7 0B       		.uleb128 0xb
 5986 08a8 52030000 		.4byte	0x352
 5987 08ac B7080000 		.4byte	0x8b7
 5988 08b0 0C       		.uleb128 0xc
 5989 08b1 25000000 		.4byte	0x25
 5990 08b5 1D       		.byte	0x1d
 5991 08b6 00       		.byte	0
 5992 08b7 0B       		.uleb128 0xb
 5993 08b8 25000000 		.4byte	0x25
 5994 08bc C7080000 		.4byte	0x8c7
 5995 08c0 0C       		.uleb128 0xc
 5996 08c1 25000000 		.4byte	0x25
 5997 08c5 1D       		.byte	0x1d
 5998 08c6 00       		.byte	0
 5999 08c7 1D       		.uleb128 0x1d
 6000 08c8 F0       		.byte	0xf0
 6001 08c9 0C       		.byte	0xc
 6002 08ca 7E02     		.2byte	0x27e
 6003 08cc 03       		.byte	0x3
 6004 08cd EC080000 		.4byte	0x8ec
 6005 08d1 1E       		.uleb128 0x1e
 6006 08d2 CD040000 		.4byte	.LASF70
 6007 08d6 0C       		.byte	0xc
 6008 08d7 9502     		.2byte	0x295
 6009 08d9 0B       		.byte	0xb
 6010 08da 3B070000 		.4byte	0x73b
 6011 08de 1E       		.uleb128 0x1e
 6012 08df 53020000 		.4byte	.LASF121
 6013 08e3 0C       		.byte	0xc
 6014 08e4 9E02     		.2byte	0x29e
 6015 08e6 0B       		.byte	0xb
 6016 08e7 80080000 		.4byte	0x880
 6017 08eb 00       		.byte	0
 6018 08ec 0B       		.uleb128 0xb
 6019 08ed 6A010000 		.4byte	0x16a
 6020 08f1 FC080000 		.4byte	0x8fc
 6021 08f5 0C       		.uleb128 0xc
 6022 08f6 25000000 		.4byte	0x25
 6023 08fa 18       		.byte	0x18
 6024 08fb 00       		.byte	0
 6025 08fc 07       		.uleb128 0x7
 6026 08fd 2F180000 		.4byte	.LASF123
 6027 0901 06       		.uleb128 0x6
 6028 0902 04       		.byte	0x4
 6029 0903 FC080000 		.4byte	0x8fc
 6030 0907 1F       		.uleb128 0x1f
ARM GAS  C:\Users\USER\AppData\Local\Temp\ccRejSya.s 			page 107


 6031 0908 12090000 		.4byte	0x912
 6032 090c 17       		.uleb128 0x17
 6033 090d B9040000 		.4byte	0x4b9
 6034 0911 00       		.byte	0
 6035 0912 06       		.uleb128 0x6
 6036 0913 04       		.byte	0x4
 6037 0914 07090000 		.4byte	0x907
 6038 0918 06       		.uleb128 0x6
 6039 0919 04       		.byte	0x4
 6040 091a DC010000 		.4byte	0x1dc
 6041 091e 1F       		.uleb128 0x1f
 6042 091f 29090000 		.4byte	0x929
 6043 0923 17       		.uleb128 0x17
 6044 0924 2C000000 		.4byte	0x2c
 6045 0928 00       		.byte	0
 6046 0929 06       		.uleb128 0x6
 6047 092a 04       		.byte	0x4
 6048 092b 2F090000 		.4byte	0x92f
 6049 092f 06       		.uleb128 0x6
 6050 0930 04       		.byte	0x4
 6051 0931 1E090000 		.4byte	0x91e
 6052 0935 0B       		.uleb128 0xb
 6053 0936 A0060000 		.4byte	0x6a0
 6054 093a 45090000 		.4byte	0x945
 6055 093e 0C       		.uleb128 0xc
 6056 093f 25000000 		.4byte	0x25
 6057 0943 02       		.byte	0x2
 6058 0944 00       		.byte	0
 6059 0945 20       		.uleb128 0x20
 6060 0946 E0170000 		.4byte	.LASF124
 6061 094a 0C       		.byte	0xc
 6062 094b 2E03     		.2byte	0x32e
 6063 094d 17       		.byte	0x17
 6064 094e B9040000 		.4byte	0x4b9
 6065 0952 20       		.uleb128 0x20
 6066 0953 FB1B0000 		.4byte	.LASF125
 6067 0957 0C       		.byte	0xc
 6068 0958 2F03     		.2byte	0x32f
 6069 095a 1D       		.byte	0x1d
 6070 095b BF040000 		.4byte	0x4bf
 6071 095f 04       		.uleb128 0x4
 6072 0960 D80A0000 		.4byte	.LASF126
 6073 0964 0D       		.byte	0xd
 6074 0965 18       		.byte	0x18
 6075 0966 13       		.byte	0x13
 6076 0967 4B000000 		.4byte	0x4b
 6077 096b 10       		.uleb128 0x10
 6078 096c 5F090000 		.4byte	0x95f
 6079 0970 04       		.uleb128 0x4
 6080 0971 8B010000 		.4byte	.LASF127
 6081 0975 0D       		.byte	0xd
 6082 0976 24       		.byte	0x24
 6083 0977 14       		.byte	0x14
 6084 0978 65000000 		.4byte	0x65
 6085 097c 05       		.uleb128 0x5
 6086 097d 70090000 		.4byte	0x970
 6087 0981 04       		.uleb128 0x4
ARM GAS  C:\Users\USER\AppData\Local\Temp\ccRejSya.s 			page 108


 6088 0982 FD020000 		.4byte	.LASF128
 6089 0986 0D       		.byte	0xd
 6090 0987 2C       		.byte	0x2c
 6091 0988 13       		.byte	0x13
 6092 0989 78000000 		.4byte	0x78
 6093 098d 05       		.uleb128 0x5
 6094 098e 81090000 		.4byte	0x981
 6095 0992 04       		.uleb128 0x4
 6096 0993 3F150000 		.4byte	.LASF129
 6097 0997 0D       		.byte	0xd
 6098 0998 30       		.byte	0x30
 6099 0999 14       		.byte	0x14
 6100 099a 8B000000 		.4byte	0x8b
 6101 099e 05       		.uleb128 0x5
 6102 099f 92090000 		.4byte	0x992
 6103 09a3 04       		.uleb128 0x4
 6104 09a4 F5080000 		.4byte	.LASF130
 6105 09a8 0D       		.byte	0xd
 6106 09a9 3C       		.byte	0x3c
 6107 09aa 14       		.byte	0x14
 6108 09ab A5000000 		.4byte	0xa5
 6109 09af 04       		.uleb128 0x4
 6110 09b0 5A0A0000 		.4byte	.LASF131
 6111 09b4 0E       		.byte	0xe
 6112 09b5 45       		.byte	0x45
 6113 09b6 1D       		.byte	0x1d
 6114 09b7 92090000 		.4byte	0x992
 6115 09bb 04       		.uleb128 0x4
 6116 09bc EE0E0000 		.4byte	.LASF132
 6117 09c0 0E       		.byte	0xe
 6118 09c1 48       		.byte	0x48
 6119 09c2 1D       		.byte	0x1d
 6120 09c3 5F090000 		.4byte	0x95f
 6121 09c7 04       		.uleb128 0x4
 6122 09c8 F21B0000 		.4byte	.LASF133
 6123 09cc 0E       		.byte	0xe
 6124 09cd 49       		.byte	0x49
 6125 09ce 1D       		.byte	0x1d
 6126 09cf 5F090000 		.4byte	0x95f
 6127 09d3 04       		.uleb128 0x4
 6128 09d4 940E0000 		.4byte	.LASF134
 6129 09d8 0E       		.byte	0xe
 6130 09d9 4A       		.byte	0x4a
 6131 09da 1D       		.byte	0x1d
 6132 09db 5F090000 		.4byte	0x95f
 6133 09df 04       		.uleb128 0x4
 6134 09e0 A4100000 		.4byte	.LASF135
 6135 09e4 0E       		.byte	0xe
 6136 09e5 4B       		.byte	0x4b
 6137 09e6 1D       		.byte	0x1d
 6138 09e7 5F090000 		.4byte	0x95f
 6139 09eb 04       		.uleb128 0x4
 6140 09ec 79050000 		.4byte	.LASF136
 6141 09f0 0E       		.byte	0xe
 6142 09f1 4C       		.byte	0x4c
 6143 09f2 1D       		.byte	0x1d
 6144 09f3 92090000 		.4byte	0x992
ARM GAS  C:\Users\USER\AppData\Local\Temp\ccRejSya.s 			page 109


 6145 09f7 04       		.uleb128 0x4
 6146 09f8 3C000000 		.4byte	.LASF137
 6147 09fc 0E       		.byte	0xe
 6148 09fd 4D       		.byte	0x4d
 6149 09fe 1D       		.byte	0x1d
 6150 09ff 81090000 		.4byte	0x981
 6151 0a03 04       		.uleb128 0x4
 6152 0a04 78150000 		.4byte	.LASF138
 6153 0a08 0E       		.byte	0xe
 6154 0a09 4F       		.byte	0x4f
 6155 0a0a 1D       		.byte	0x1d
 6156 0a0b 92090000 		.4byte	0x992
 6157 0a0f 04       		.uleb128 0x4
 6158 0a10 F11D0000 		.4byte	.LASF139
 6159 0a14 0E       		.byte	0xe
 6160 0a15 50       		.byte	0x50
 6161 0a16 1D       		.byte	0x1d
 6162 0a17 92090000 		.4byte	0x992
 6163 0a1b 04       		.uleb128 0x4
 6164 0a1c 82170000 		.4byte	.LASF140
 6165 0a20 0E       		.byte	0xe
 6166 0a21 51       		.byte	0x51
 6167 0a22 1D       		.byte	0x1d
 6168 0a23 81090000 		.4byte	0x981
 6169 0a27 04       		.uleb128 0x4
 6170 0a28 11030000 		.4byte	.LASF141
 6171 0a2c 0F       		.byte	0xf
 6172 0a2d 33       		.byte	0x33
 6173 0a2e 12       		.byte	0x12
 6174 0a2f 92090000 		.4byte	0x992
 6175 0a33 05       		.uleb128 0x5
 6176 0a34 270A0000 		.4byte	0xa27
 6177 0a38 04       		.uleb128 0x4
 6178 0a39 B8020000 		.4byte	.LASF142
 6179 0a3d 0F       		.byte	0xf
 6180 0a3e 3F       		.byte	0x3f
 6181 0a3f 1A       		.byte	0x1a
 6182 0a40 440A0000 		.4byte	0xa44
 6183 0a44 11       		.uleb128 0x11
 6184 0a45 CD070000 		.4byte	.LASF143
 6185 0a49 48       		.byte	0x48
 6186 0a4a 10       		.byte	0x10
 6187 0a4b C2       		.byte	0xc2
 6188 0a4c 08       		.byte	0x8
 6189 0a4d 5E0B0000 		.4byte	0xb5e
 6190 0a51 0E       		.uleb128 0xe
 6191 0a52 4A0E0000 		.4byte	.LASF144
 6192 0a56 10       		.byte	0x10
 6193 0a57 C3       		.byte	0xc3
 6194 0a58 1A       		.byte	0x1a
 6195 0a59 6A0B0000 		.4byte	0xb6a
 6196 0a5d 00       		.byte	0
 6197 0a5e 0E       		.uleb128 0xe
 6198 0a5f 140B0000 		.4byte	.LASF145
 6199 0a63 10       		.byte	0x10
 6200 0a64 C5       		.byte	0xc5
 6201 0a65 1A       		.byte	0x1a
ARM GAS  C:\Users\USER\AppData\Local\Temp\ccRejSya.s 			page 110


 6202 0a66 6A0B0000 		.4byte	0xb6a
 6203 0a6a 04       		.byte	0x4
 6204 0a6b 0E       		.uleb128 0xe
 6205 0a6c 880D0000 		.4byte	.LASF146
 6206 0a70 10       		.byte	0x10
 6207 0a71 C7       		.byte	0xc7
 6208 0a72 19       		.byte	0x19
 6209 0a73 EB090000 		.4byte	0x9eb
 6210 0a77 08       		.byte	0x8
 6211 0a78 0E       		.uleb128 0xe
 6212 0a79 47080000 		.4byte	.LASF147
 6213 0a7d 10       		.byte	0x10
 6214 0a7e C8       		.byte	0xc8
 6215 0a7f 19       		.byte	0x19
 6216 0a80 7A140000 		.4byte	0x147a
 6217 0a84 0C       		.byte	0xc
 6218 0a85 0E       		.uleb128 0xe
 6219 0a86 05020000 		.4byte	.LASF148
 6220 0a8a 10       		.byte	0x10
 6221 0a8b CA       		.byte	0xca
 6222 0a8c 1A       		.byte	0x1a
 6223 0a8d 6A0B0000 		.4byte	0xb6a
 6224 0a91 10       		.byte	0x10
 6225 0a92 0E       		.uleb128 0xe
 6226 0a93 621E0000 		.4byte	.LASF149
 6227 0a97 10       		.byte	0x10
 6228 0a98 CB       		.byte	0xcb
 6229 0a99 1A       		.byte	0x1a
 6230 0a9a 6A0B0000 		.4byte	0xb6a
 6231 0a9e 14       		.byte	0x14
 6232 0a9f 0E       		.uleb128 0xe
 6233 0aa0 611C0000 		.4byte	.LASF150
 6234 0aa4 10       		.byte	0x10
 6235 0aa5 D2       		.byte	0xd2
 6236 0aa6 1A       		.byte	0x1a
 6237 0aa7 31060000 		.4byte	0x631
 6238 0aab 18       		.byte	0x18
 6239 0aac 0E       		.uleb128 0xe
 6240 0aad 45200000 		.4byte	.LASF151
 6241 0ab1 10       		.byte	0x10
 6242 0ab2 DD       		.byte	0xdd
 6243 0ab3 19       		.byte	0x19
 6244 0ab4 C7090000 		.4byte	0x9c7
 6245 0ab8 1C       		.byte	0x1c
 6246 0ab9 0E       		.uleb128 0xe
 6247 0aba B81B0000 		.4byte	.LASF152
 6248 0abe 10       		.byte	0x10
 6249 0abf E1       		.byte	0xe1
 6250 0ac0 19       		.byte	0x19
 6251 0ac1 BB090000 		.4byte	0x9bb
 6252 0ac5 1D       		.byte	0x1d
 6253 0ac6 0E       		.uleb128 0xe
 6254 0ac7 1B130000 		.4byte	.LASF153
 6255 0acb 10       		.byte	0x10
 6256 0acc E6       		.byte	0xe6
 6257 0acd 19       		.byte	0x19
 6258 0ace D3090000 		.4byte	0x9d3
ARM GAS  C:\Users\USER\AppData\Local\Temp\ccRejSya.s 			page 111


 6259 0ad2 1E       		.byte	0x1e
 6260 0ad3 0E       		.uleb128 0xe
 6261 0ad4 5E110000 		.4byte	.LASF154
 6262 0ad8 10       		.byte	0x10
 6263 0ad9 EC       		.byte	0xec
 6264 0ada 19       		.byte	0x19
 6265 0adb DF090000 		.4byte	0x9df
 6266 0adf 1F       		.byte	0x1f
 6267 0ae0 0E       		.uleb128 0xe
 6268 0ae1 68110000 		.4byte	.LASF155
 6269 0ae5 10       		.byte	0x10
 6270 0ae6 F3       		.byte	0xf3
 6271 0ae7 19       		.byte	0x19
 6272 0ae8 330A0000 		.4byte	0xa33
 6273 0aec 20       		.byte	0x20
 6274 0aed 21       		.uleb128 0x21
 6275 0aee 705F7500 		.ascii	"p_u\000"
 6276 0af2 10       		.byte	0x10
 6277 0af3 3101     		.2byte	0x131
 6278 0af5 19       		.byte	0x19
 6279 0af6 19160000 		.4byte	0x1619
 6280 0afa 24       		.byte	0x24
 6281 0afb 19       		.uleb128 0x19
 6282 0afc 53040000 		.4byte	.LASF156
 6283 0b00 10       		.byte	0x10
 6284 0b01 3601     		.2byte	0x136
 6285 0b03 19       		.byte	0x19
 6286 0b04 700B0000 		.4byte	0xb70
 6287 0b08 28       		.byte	0x28
 6288 0b09 19       		.uleb128 0x19
 6289 0b0a CD110000 		.4byte	.LASF157
 6290 0b0e 10       		.byte	0x10
 6291 0b0f 3C01     		.2byte	0x13c
 6292 0b11 19       		.byte	0x19
 6293 0b12 970B0000 		.4byte	0xb97
 6294 0b16 2C       		.byte	0x2c
 6295 0b17 19       		.uleb128 0x19
 6296 0b18 48060000 		.4byte	.LASF158
 6297 0b1c 10       		.byte	0x10
 6298 0b1d 4001     		.2byte	0x140
 6299 0b1f 19       		.byte	0x19
 6300 0b20 F7090000 		.4byte	0x9f7
 6301 0b24 34       		.byte	0x34
 6302 0b25 19       		.uleb128 0x19
 6303 0b26 D2190000 		.4byte	.LASF159
 6304 0b2a 10       		.byte	0x10
 6305 0b2b 4601     		.2byte	0x146
 6306 0b2d 19       		.byte	0x19
 6307 0b2e 030A0000 		.4byte	0xa03
 6308 0b32 38       		.byte	0x38
 6309 0b33 19       		.uleb128 0x19
 6310 0b34 DD1B0000 		.4byte	.LASF160
 6311 0b38 10       		.byte	0x10
 6312 0b39 4D01     		.2byte	0x14d
 6313 0b3b 1A       		.byte	0x1a
 6314 0b3c E7160000 		.4byte	0x16e7
 6315 0b40 3C       		.byte	0x3c
ARM GAS  C:\Users\USER\AppData\Local\Temp\ccRejSya.s 			page 112


 6316 0b41 19       		.uleb128 0x19
 6317 0b42 A1180000 		.4byte	.LASF161
 6318 0b46 10       		.byte	0x10
 6319 0b47 5101     		.2byte	0x151
 6320 0b49 19       		.byte	0x19
 6321 0b4a EB090000 		.4byte	0x9eb
 6322 0b4e 40       		.byte	0x40
 6323 0b4f 19       		.uleb128 0x19
 6324 0b50 9C0E0000 		.4byte	.LASF162
 6325 0b54 10       		.byte	0x10
 6326 0b55 5801     		.2byte	0x158
 6327 0b57 1A       		.byte	0x1a
 6328 0b58 62010000 		.4byte	0x162
 6329 0b5c 44       		.byte	0x44
 6330 0b5d 00       		.byte	0
 6331 0b5e 04       		.uleb128 0x4
 6332 0b5f 951E0000 		.4byte	.LASF163
 6333 0b63 0F       		.byte	0xf
 6334 0b64 44       		.byte	0x44
 6335 0b65 14       		.byte	0x14
 6336 0b66 6A0B0000 		.4byte	0xb6a
 6337 0b6a 06       		.uleb128 0x6
 6338 0b6b 04       		.byte	0x4
 6339 0b6c 380A0000 		.4byte	0xa38
 6340 0b70 04       		.uleb128 0x4
 6341 0b71 89040000 		.4byte	.LASF164
 6342 0b75 0F       		.byte	0xf
 6343 0b76 49       		.byte	0x49
 6344 0b77 20       		.byte	0x20
 6345 0b78 7C0B0000 		.4byte	0xb7c
 6346 0b7c 11       		.uleb128 0x11
 6347 0b7d 4D200000 		.4byte	.LASF165
 6348 0b81 04       		.byte	0x4
 6349 0b82 10       		.byte	0x10
 6350 0b83 B0       		.byte	0xb0
 6351 0b84 08       		.byte	0x8
 6352 0b85 970B0000 		.4byte	0xb97
 6353 0b89 0E       		.uleb128 0xe
 6354 0b8a 4A0E0000 		.4byte	.LASF144
 6355 0b8e 10       		.byte	0x10
 6356 0b8f B1       		.byte	0xb1
 6357 0b90 1A       		.byte	0x1a
 6358 0b91 6A0B0000 		.4byte	0xb6a
 6359 0b95 00       		.byte	0
 6360 0b96 00       		.byte	0
 6361 0b97 04       		.uleb128 0x4
 6362 0b98 0B130000 		.4byte	.LASF166
 6363 0b9c 0F       		.byte	0xf
 6364 0b9d 50       		.byte	0x50
 6365 0b9e 21       		.byte	0x21
 6366 0b9f A30B0000 		.4byte	0xba3
 6367 0ba3 11       		.uleb128 0x11
 6368 0ba4 DD010000 		.4byte	.LASF167
 6369 0ba8 08       		.byte	0x8
 6370 0ba9 10       		.byte	0x10
 6371 0baa B7       		.byte	0xb7
 6372 0bab 08       		.byte	0x8
ARM GAS  C:\Users\USER\AppData\Local\Temp\ccRejSya.s 			page 113


 6373 0bac CB0B0000 		.4byte	0xbcb
 6374 0bb0 0E       		.uleb128 0xe
 6375 0bb1 4A0E0000 		.4byte	.LASF144
 6376 0bb5 10       		.byte	0x10
 6377 0bb6 B8       		.byte	0xb8
 6378 0bb7 1A       		.byte	0x1a
 6379 0bb8 6A0B0000 		.4byte	0xb6a
 6380 0bbc 00       		.byte	0
 6381 0bbd 0E       		.uleb128 0xe
 6382 0bbe 140B0000 		.4byte	.LASF145
 6383 0bc2 10       		.byte	0x10
 6384 0bc3 B9       		.byte	0xb9
 6385 0bc4 1A       		.byte	0x1a
 6386 0bc5 6A0B0000 		.4byte	0xb6a
 6387 0bc9 04       		.byte	0x4
 6388 0bca 00       		.byte	0
 6389 0bcb 04       		.uleb128 0x4
 6390 0bcc C0070000 		.4byte	.LASF168
 6391 0bd0 0F       		.byte	0xf
 6392 0bd1 57       		.byte	0x57
 6393 0bd2 1E       		.byte	0x1e
 6394 0bd3 D70B0000 		.4byte	0xbd7
 6395 0bd7 1B       		.uleb128 0x1b
 6396 0bd8 21190000 		.4byte	.LASF169
 6397 0bdc 1C       		.byte	0x1c
 6398 0bdd 10       		.byte	0x10
 6399 0bde 9001     		.2byte	0x190
 6400 0be0 08       		.byte	0x8
 6401 0be1 3A0C0000 		.4byte	0xc3a
 6402 0be5 19       		.uleb128 0x19
 6403 0be6 69160000 		.4byte	.LASF170
 6404 0bea 10       		.byte	0x10
 6405 0beb 9101     		.2byte	0x191
 6406 0bed 19       		.byte	0x19
 6407 0bee 970B0000 		.4byte	0xb97
 6408 0bf2 00       		.byte	0
 6409 0bf3 19       		.uleb128 0x19
 6410 0bf4 C61A0000 		.4byte	.LASF171
 6411 0bf8 10       		.byte	0x10
 6412 0bf9 9201     		.2byte	0x192
 6413 0bfb 19       		.byte	0x19
 6414 0bfc EB090000 		.4byte	0x9eb
 6415 0c00 08       		.byte	0x8
 6416 0c01 19       		.uleb128 0x19
 6417 0c02 4C0A0000 		.4byte	.LASF172
 6418 0c06 10       		.byte	0x10
 6419 0c07 9401     		.2byte	0x194
 6420 0c09 19       		.byte	0x19
 6421 0c0a 7A140000 		.4byte	0x147a
 6422 0c0e 0C       		.byte	0xc
 6423 0c0f 19       		.uleb128 0x19
 6424 0c10 D00F0000 		.4byte	.LASF173
 6425 0c14 10       		.byte	0x10
 6426 0c15 9701     		.2byte	0x197
 6427 0c17 1A       		.byte	0x1a
 6428 0c18 6A0B0000 		.4byte	0xb6a
 6429 0c1c 10       		.byte	0x10
ARM GAS  C:\Users\USER\AppData\Local\Temp\ccRejSya.s 			page 114


 6430 0c1d 19       		.uleb128 0x19
 6431 0c1e 0C0B0000 		.4byte	.LASF174
 6432 0c22 10       		.byte	0x10
 6433 0c23 9801     		.2byte	0x198
 6434 0c25 1A       		.byte	0x1a
 6435 0c26 6A0B0000 		.4byte	0xb6a
 6436 0c2a 14       		.byte	0x14
 6437 0c2b 19       		.uleb128 0x19
 6438 0c2c C10C0000 		.4byte	.LASF175
 6439 0c30 10       		.byte	0x10
 6440 0c31 9B01     		.2byte	0x19b
 6441 0c33 1A       		.byte	0x1a
 6442 0c34 6A0B0000 		.4byte	0xb6a
 6443 0c38 18       		.byte	0x18
 6444 0c39 00       		.byte	0
 6445 0c3a 04       		.uleb128 0x4
 6446 0c3b 6B180000 		.4byte	.LASF176
 6447 0c3f 0F       		.byte	0xf
 6448 0c40 5C       		.byte	0x5c
 6449 0c41 10       		.byte	0x10
 6450 0c42 460C0000 		.4byte	0xc46
 6451 0c46 06       		.uleb128 0x6
 6452 0c47 04       		.byte	0x4
 6453 0c48 4C0C0000 		.4byte	0xc4c
 6454 0c4c 1F       		.uleb128 0x1f
 6455 0c4d 570C0000 		.4byte	0xc57
 6456 0c51 17       		.uleb128 0x17
 6457 0c52 62010000 		.4byte	0x162
 6458 0c56 00       		.byte	0
 6459 0c57 04       		.uleb128 0x4
 6460 0c58 3C0A0000 		.4byte	.LASF177
 6461 0c5c 0F       		.byte	0xf
 6462 0c5d 61       		.byte	0x61
 6463 0c5e 21       		.byte	0x21
 6464 0c5f 630C0000 		.4byte	0xc63
 6465 0c63 1B       		.uleb128 0x1b
 6466 0c64 A71B0000 		.4byte	.LASF178
 6467 0c68 14       		.byte	0x14
 6468 0c69 10       		.byte	0x10
 6469 0c6a 6B01     		.2byte	0x16b
 6470 0c6c 08       		.byte	0x8
 6471 0c6d B80C0000 		.4byte	0xcb8
 6472 0c71 19       		.uleb128 0x19
 6473 0c72 520A0000 		.4byte	.LASF179
 6474 0c76 10       		.byte	0x10
 6475 0c77 6C01     		.2byte	0x16c
 6476 0c79 1A       		.byte	0x1a
 6477 0c7a ED160000 		.4byte	0x16ed
 6478 0c7e 00       		.byte	0
 6479 0c7f 19       		.uleb128 0x19
 6480 0c80 75070000 		.4byte	.LASF180
 6481 0c84 10       		.byte	0x10
 6482 0c85 6D01     		.2byte	0x16d
 6483 0c87 1A       		.byte	0x1a
 6484 0c88 ED160000 		.4byte	0x16ed
 6485 0c8c 04       		.byte	0x4
 6486 0c8d 19       		.uleb128 0x19
ARM GAS  C:\Users\USER\AppData\Local\Temp\ccRejSya.s 			page 115


 6487 0c8e FA100000 		.4byte	.LASF181
 6488 0c92 10       		.byte	0x10
 6489 0c93 6E01     		.2byte	0x16e
 6490 0c95 19       		.byte	0x19
 6491 0c96 270A0000 		.4byte	0xa27
 6492 0c9a 08       		.byte	0x8
 6493 0c9b 19       		.uleb128 0x19
 6494 0c9c 841B0000 		.4byte	.LASF182
 6495 0ca0 10       		.byte	0x10
 6496 0ca1 6F01     		.2byte	0x16f
 6497 0ca3 19       		.byte	0x19
 6498 0ca4 3A0C0000 		.4byte	0xc3a
 6499 0ca8 0C       		.byte	0xc
 6500 0ca9 19       		.uleb128 0x19
 6501 0caa 4D080000 		.4byte	.LASF183
 6502 0cae 10       		.byte	0x10
 6503 0caf 7101     		.2byte	0x171
 6504 0cb1 1A       		.byte	0x1a
 6505 0cb2 62010000 		.4byte	0x162
 6506 0cb6 10       		.byte	0x10
 6507 0cb7 00       		.byte	0
 6508 0cb8 04       		.uleb128 0x4
 6509 0cb9 F71C0000 		.4byte	.LASF184
 6510 0cbd 0F       		.byte	0xf
 6511 0cbe 66       		.byte	0x66
 6512 0cbf 28       		.byte	0x28
 6513 0cc0 C40C0000 		.4byte	0xcc4
 6514 0cc4 1B       		.uleb128 0x1b
 6515 0cc5 D7020000 		.4byte	.LASF185
 6516 0cc9 10       		.byte	0x10
 6517 0cca 10       		.byte	0x10
 6518 0ccb 7B01     		.2byte	0x17b
 6519 0ccd 08       		.byte	0x8
 6520 0cce 0B0D0000 		.4byte	0xd0b
 6521 0cd2 19       		.uleb128 0x19
 6522 0cd3 520A0000 		.4byte	.LASF179
 6523 0cd7 10       		.byte	0x10
 6524 0cd8 7C01     		.2byte	0x17c
 6525 0cda 1A       		.byte	0x1a
 6526 0cdb ED160000 		.4byte	0x16ed
 6527 0cdf 00       		.byte	0
 6528 0ce0 19       		.uleb128 0x19
 6529 0ce1 75070000 		.4byte	.LASF180
 6530 0ce5 10       		.byte	0x10
 6531 0ce6 7E01     		.2byte	0x17e
 6532 0ce8 1A       		.byte	0x1a
 6533 0ce9 ED160000 		.4byte	0x16ed
 6534 0ced 04       		.byte	0x4
 6535 0cee 19       		.uleb128 0x19
 6536 0cef FA100000 		.4byte	.LASF181
 6537 0cf3 10       		.byte	0x10
 6538 0cf4 8001     		.2byte	0x180
 6539 0cf6 19       		.byte	0x19
 6540 0cf7 270A0000 		.4byte	0xa27
 6541 0cfb 08       		.byte	0x8
 6542 0cfc 19       		.uleb128 0x19
 6543 0cfd 0B010000 		.4byte	.LASF186
ARM GAS  C:\Users\USER\AppData\Local\Temp\ccRejSya.s 			page 116


 6544 0d01 10       		.byte	0x10
 6545 0d02 8201     		.2byte	0x182
 6546 0d04 19       		.byte	0x19
 6547 0d05 330A0000 		.4byte	0xa33
 6548 0d09 0C       		.byte	0xc
 6549 0d0a 00       		.byte	0
 6550 0d0b 04       		.uleb128 0x4
 6551 0d0c 29080000 		.4byte	.LASF187
 6552 0d10 0F       		.byte	0xf
 6553 0d11 6B       		.byte	0x6b
 6554 0d12 20       		.byte	0x20
 6555 0d13 170D0000 		.4byte	0xd17
 6556 0d17 1B       		.uleb128 0x1b
 6557 0d18 5A190000 		.4byte	.LASF188
 6558 0d1c 04       		.byte	0x4
 6559 0d1d 10       		.byte	0x10
 6560 0d1e A201     		.2byte	0x1a2
 6561 0d20 08       		.byte	0x8
 6562 0d21 340D0000 		.4byte	0xd34
 6563 0d25 19       		.uleb128 0x19
 6564 0d26 B90F0000 		.4byte	.LASF189
 6565 0d2a 10       		.byte	0x10
 6566 0d2b AA01     		.2byte	0x1aa
 6567 0d2d 24       		.byte	0x24
 6568 0d2e 37060000 		.4byte	0x637
 6569 0d32 00       		.byte	0
 6570 0d33 00       		.byte	0
 6571 0d34 04       		.uleb128 0x4
 6572 0d35 9C000000 		.4byte	.LASF190
 6573 0d39 0F       		.byte	0xf
 6574 0d3a 70       		.byte	0x70
 6575 0d3b 1A       		.byte	0x1a
 6576 0d3c 400D0000 		.4byte	0xd40
 6577 0d40 18       		.uleb128 0x18
 6578 0d41 7F120000 		.4byte	.LASF191
 6579 0d45 5802     		.2byte	0x258
 6580 0d47 10       		.byte	0x10
 6581 0d48 C201     		.2byte	0x1c2
 6582 0d4a 08       		.byte	0x8
 6583 0d4b A30D0000 		.4byte	0xda3
 6584 0d4f 19       		.uleb128 0x19
 6585 0d50 83040000 		.4byte	.LASF192
 6586 0d54 10       		.byte	0x10
 6587 0d55 C601     		.2byte	0x1c6
 6588 0d57 19       		.byte	0x19
 6589 0d58 CB0B0000 		.4byte	0xbcb
 6590 0d5c 00       		.byte	0
 6591 0d5d 19       		.uleb128 0x19
 6592 0d5e 33040000 		.4byte	.LASF193
 6593 0d62 10       		.byte	0x10
 6594 0d63 CA01     		.2byte	0x1ca
 6595 0d65 19       		.byte	0x19
 6596 0d66 B80C0000 		.4byte	0xcb8
 6597 0d6a 1C       		.byte	0x1c
 6598 0d6b 21       		.uleb128 0x21
 6599 0d6c 64626700 		.ascii	"dbg\000"
 6600 0d70 10       		.byte	0x10
ARM GAS  C:\Users\USER\AppData\Local\Temp\ccRejSya.s 			page 117


 6601 0d71 CE01     		.2byte	0x1ce
 6602 0d73 19       		.byte	0x19
 6603 0d74 0B0D0000 		.4byte	0xd0b
 6604 0d78 2C       		.byte	0x2c
 6605 0d79 19       		.uleb128 0x19
 6606 0d7a 4B130000 		.4byte	.LASF194
 6607 0d7e 10       		.byte	0x10
 6608 0d7f D201     		.2byte	0x1d2
 6609 0d81 19       		.byte	0x19
 6610 0d82 380A0000 		.4byte	0xa38
 6611 0d86 30       		.byte	0x30
 6612 0d87 21       		.uleb128 0x21
 6613 0d88 746D00   		.ascii	"tm\000"
 6614 0d8b 10       		.byte	0x10
 6615 0d8c D701     		.2byte	0x1d7
 6616 0d8e 19       		.byte	0x19
 6617 0d8f 0D160000 		.4byte	0x160d
 6618 0d93 78       		.byte	0x78
 6619 0d94 19       		.uleb128 0x19
 6620 0d95 561B0000 		.4byte	.LASF195
 6621 0d99 10       		.byte	0x10
 6622 0d9a E301     		.2byte	0x1e3
 6623 0d9c 03       		.byte	0x3
 6624 0d9d F3160000 		.4byte	0x16f3
 6625 0da1 80       		.byte	0x80
 6626 0da2 00       		.byte	0
 6627 0da3 0B       		.uleb128 0xb
 6628 0da4 92090000 		.4byte	0x992
 6629 0da8 B30D0000 		.4byte	0xdb3
 6630 0dac 0C       		.uleb128 0xc
 6631 0dad 25000000 		.4byte	0x25
 6632 0db1 01       		.byte	0x1
 6633 0db2 00       		.byte	0
 6634 0db3 0B       		.uleb128 0xb
 6635 0db4 92090000 		.4byte	0x992
 6636 0db8 C30D0000 		.4byte	0xdc3
 6637 0dbc 0C       		.uleb128 0xc
 6638 0dbd 25000000 		.4byte	0x25
 6639 0dc1 07       		.byte	0x7
 6640 0dc2 00       		.byte	0
 6641 0dc3 20       		.uleb128 0x20
 6642 0dc4 D41A0000 		.4byte	.LASF196
 6643 0dc8 11       		.byte	0x11
 6644 0dc9 A706     		.2byte	0x6a7
 6645 0dcb 19       		.byte	0x19
 6646 0dcc 8D090000 		.4byte	0x98d
 6647 0dd0 22       		.uleb128 0x22
 6648 0dd1 01120000 		.4byte	.LASF197
 6649 0dd5 12       		.byte	0x12
 6650 0dd6 4C       		.byte	0x4c
 6651 0dd7 11       		.byte	0x11
 6652 0dd8 92090000 		.4byte	0x992
 6653 0ddc 0D       		.uleb128 0xd
 6654 0ddd 10       		.byte	0x10
 6655 0dde 13       		.byte	0x13
 6656 0ddf E9       		.byte	0xe9
 6657 0de0 09       		.byte	0x9
ARM GAS  C:\Users\USER\AppData\Local\Temp\ccRejSya.s 			page 118


 6658 0de1 1A0E0000 		.4byte	0xe1a
 6659 0de5 12       		.uleb128 0x12
 6660 0de6 54495200 		.ascii	"TIR\000"
 6661 0dea 13       		.byte	0x13
 6662 0deb EB       		.byte	0xeb
 6663 0dec 11       		.byte	0x11
 6664 0ded 9E090000 		.4byte	0x99e
 6665 0df1 00       		.byte	0
 6666 0df2 0E       		.uleb128 0xe
 6667 0df3 270D0000 		.4byte	.LASF198
 6668 0df7 13       		.byte	0x13
 6669 0df8 EC       		.byte	0xec
 6670 0df9 11       		.byte	0x11
 6671 0dfa 9E090000 		.4byte	0x99e
 6672 0dfe 04       		.byte	0x4
 6673 0dff 0E       		.uleb128 0xe
 6674 0e00 3D130000 		.4byte	.LASF199
 6675 0e04 13       		.byte	0x13
 6676 0e05 ED       		.byte	0xed
 6677 0e06 11       		.byte	0x11
 6678 0e07 9E090000 		.4byte	0x99e
 6679 0e0b 08       		.byte	0x8
 6680 0e0c 0E       		.uleb128 0xe
 6681 0e0d 6F110000 		.4byte	.LASF200
 6682 0e11 13       		.byte	0x13
 6683 0e12 EE       		.byte	0xee
 6684 0e13 11       		.byte	0x11
 6685 0e14 9E090000 		.4byte	0x99e
 6686 0e18 0C       		.byte	0xc
 6687 0e19 00       		.byte	0
 6688 0e1a 04       		.uleb128 0x4
 6689 0e1b 6D040000 		.4byte	.LASF201
 6690 0e1f 13       		.byte	0x13
 6691 0e20 EF       		.byte	0xef
 6692 0e21 03       		.byte	0x3
 6693 0e22 DC0D0000 		.4byte	0xddc
 6694 0e26 0D       		.uleb128 0xd
 6695 0e27 10       		.byte	0x10
 6696 0e28 13       		.byte	0x13
 6697 0e29 F5       		.byte	0xf5
 6698 0e2a 09       		.byte	0x9
 6699 0e2b 640E0000 		.4byte	0xe64
 6700 0e2f 12       		.uleb128 0x12
 6701 0e30 52495200 		.ascii	"RIR\000"
 6702 0e34 13       		.byte	0x13
 6703 0e35 F7       		.byte	0xf7
 6704 0e36 11       		.byte	0x11
 6705 0e37 9E090000 		.4byte	0x99e
 6706 0e3b 00       		.byte	0
 6707 0e3c 0E       		.uleb128 0xe
 6708 0e3d FA180000 		.4byte	.LASF202
 6709 0e41 13       		.byte	0x13
 6710 0e42 F8       		.byte	0xf8
 6711 0e43 11       		.byte	0x11
 6712 0e44 9E090000 		.4byte	0x99e
 6713 0e48 04       		.byte	0x4
 6714 0e49 0E       		.uleb128 0xe
ARM GAS  C:\Users\USER\AppData\Local\Temp\ccRejSya.s 			page 119


 6715 0e4a 60150000 		.4byte	.LASF203
 6716 0e4e 13       		.byte	0x13
 6717 0e4f F9       		.byte	0xf9
 6718 0e50 11       		.byte	0x11
 6719 0e51 9E090000 		.4byte	0x99e
 6720 0e55 08       		.byte	0x8
 6721 0e56 0E       		.uleb128 0xe
 6722 0e57 75120000 		.4byte	.LASF204
 6723 0e5b 13       		.byte	0x13
 6724 0e5c FA       		.byte	0xfa
 6725 0e5d 11       		.byte	0x11
 6726 0e5e 9E090000 		.4byte	0x99e
 6727 0e62 0C       		.byte	0xc
 6728 0e63 00       		.byte	0
 6729 0e64 04       		.uleb128 0x4
 6730 0e65 74180000 		.4byte	.LASF205
 6731 0e69 13       		.byte	0x13
 6732 0e6a FB       		.byte	0xfb
 6733 0e6b 03       		.byte	0x3
 6734 0e6c 260E0000 		.4byte	0xe26
 6735 0e70 1C       		.uleb128 0x1c
 6736 0e71 08       		.byte	0x8
 6737 0e72 13       		.byte	0x13
 6738 0e73 0101     		.2byte	0x101
 6739 0e75 09       		.byte	0x9
 6740 0e76 970E0000 		.4byte	0xe97
 6741 0e7a 21       		.uleb128 0x21
 6742 0e7b 46523100 		.ascii	"FR1\000"
 6743 0e7f 13       		.byte	0x13
 6744 0e80 0301     		.2byte	0x103
 6745 0e82 11       		.byte	0x11
 6746 0e83 9E090000 		.4byte	0x99e
 6747 0e87 00       		.byte	0
 6748 0e88 21       		.uleb128 0x21
 6749 0e89 46523200 		.ascii	"FR2\000"
 6750 0e8d 13       		.byte	0x13
 6751 0e8e 0401     		.2byte	0x104
 6752 0e90 11       		.byte	0x11
 6753 0e91 9E090000 		.4byte	0x99e
 6754 0e95 04       		.byte	0x4
 6755 0e96 00       		.byte	0
 6756 0e97 08       		.uleb128 0x8
 6757 0e98 3F0D0000 		.4byte	.LASF206
 6758 0e9c 13       		.byte	0x13
 6759 0e9d 0501     		.2byte	0x105
 6760 0e9f 03       		.byte	0x3
 6761 0ea0 700E0000 		.4byte	0xe70
 6762 0ea4 23       		.uleb128 0x23
 6763 0ea5 2003     		.2byte	0x320
 6764 0ea7 13       		.byte	0x13
 6765 0ea8 0B01     		.2byte	0x10b
 6766 0eaa 09       		.byte	0x9
 6767 0eab F10F0000 		.4byte	0xff1
 6768 0eaf 21       		.uleb128 0x21
 6769 0eb0 4D435200 		.ascii	"MCR\000"
 6770 0eb4 13       		.byte	0x13
 6771 0eb5 0D01     		.2byte	0x10d
ARM GAS  C:\Users\USER\AppData\Local\Temp\ccRejSya.s 			page 120


 6772 0eb7 1E       		.byte	0x1e
 6773 0eb8 9E090000 		.4byte	0x99e
 6774 0ebc 00       		.byte	0
 6775 0ebd 21       		.uleb128 0x21
 6776 0ebe 4D535200 		.ascii	"MSR\000"
 6777 0ec2 13       		.byte	0x13
 6778 0ec3 0E01     		.2byte	0x10e
 6779 0ec5 1E       		.byte	0x1e
 6780 0ec6 9E090000 		.4byte	0x99e
 6781 0eca 04       		.byte	0x4
 6782 0ecb 21       		.uleb128 0x21
 6783 0ecc 54535200 		.ascii	"TSR\000"
 6784 0ed0 13       		.byte	0x13
 6785 0ed1 0F01     		.2byte	0x10f
 6786 0ed3 1E       		.byte	0x1e
 6787 0ed4 9E090000 		.4byte	0x99e
 6788 0ed8 08       		.byte	0x8
 6789 0ed9 19       		.uleb128 0x19
 6790 0eda E80B0000 		.4byte	.LASF207
 6791 0ede 13       		.byte	0x13
 6792 0edf 1001     		.2byte	0x110
 6793 0ee1 1E       		.byte	0x1e
 6794 0ee2 9E090000 		.4byte	0x99e
 6795 0ee6 0C       		.byte	0xc
 6796 0ee7 19       		.uleb128 0x19
 6797 0ee8 9A150000 		.4byte	.LASF208
 6798 0eec 13       		.byte	0x13
 6799 0eed 1101     		.2byte	0x111
 6800 0eef 1E       		.byte	0x1e
 6801 0ef0 9E090000 		.4byte	0x99e
 6802 0ef4 10       		.byte	0x10
 6803 0ef5 21       		.uleb128 0x21
 6804 0ef6 49455200 		.ascii	"IER\000"
 6805 0efa 13       		.byte	0x13
 6806 0efb 1201     		.2byte	0x112
 6807 0efd 1E       		.byte	0x1e
 6808 0efe 9E090000 		.4byte	0x99e
 6809 0f02 14       		.byte	0x14
 6810 0f03 21       		.uleb128 0x21
 6811 0f04 45535200 		.ascii	"ESR\000"
 6812 0f08 13       		.byte	0x13
 6813 0f09 1301     		.2byte	0x113
 6814 0f0b 1E       		.byte	0x1e
 6815 0f0c 9E090000 		.4byte	0x99e
 6816 0f10 18       		.byte	0x18
 6817 0f11 21       		.uleb128 0x21
 6818 0f12 42545200 		.ascii	"BTR\000"
 6819 0f16 13       		.byte	0x13
 6820 0f17 1401     		.2byte	0x114
 6821 0f19 1E       		.byte	0x1e
 6822 0f1a 9E090000 		.4byte	0x99e
 6823 0f1e 1C       		.byte	0x1c
 6824 0f1f 19       		.uleb128 0x19
 6825 0f20 0D1A0000 		.4byte	.LASF209
 6826 0f24 13       		.byte	0x13
 6827 0f25 1501     		.2byte	0x115
 6828 0f27 1E       		.byte	0x1e
ARM GAS  C:\Users\USER\AppData\Local\Temp\ccRejSya.s 			page 121


 6829 0f28 F10F0000 		.4byte	0xff1
 6830 0f2c 20       		.byte	0x20
 6831 0f2d 1A       		.uleb128 0x1a
 6832 0f2e 220E0000 		.4byte	.LASF210
 6833 0f32 13       		.byte	0x13
 6834 0f33 1601     		.2byte	0x116
 6835 0f35 1E       		.byte	0x1e
 6836 0f36 01100000 		.4byte	0x1001
 6837 0f3a 8001     		.2byte	0x180
 6838 0f3c 1A       		.uleb128 0x1a
 6839 0f3d 231E0000 		.4byte	.LASF211
 6840 0f41 13       		.byte	0x13
 6841 0f42 1701     		.2byte	0x117
 6842 0f44 1E       		.byte	0x1e
 6843 0f45 11100000 		.4byte	0x1011
 6844 0f49 B001     		.2byte	0x1b0
 6845 0f4b 1A       		.uleb128 0x1a
 6846 0f4c 171A0000 		.4byte	.LASF212
 6847 0f50 13       		.byte	0x13
 6848 0f51 1801     		.2byte	0x118
 6849 0f53 1E       		.byte	0x1e
 6850 0f54 21100000 		.4byte	0x1021
 6851 0f58 D001     		.2byte	0x1d0
 6852 0f5a 24       		.uleb128 0x24
 6853 0f5b 464D5200 		.ascii	"FMR\000"
 6854 0f5f 13       		.byte	0x13
 6855 0f60 1901     		.2byte	0x119
 6856 0f62 1E       		.byte	0x1e
 6857 0f63 9E090000 		.4byte	0x99e
 6858 0f67 0002     		.2byte	0x200
 6859 0f69 1A       		.uleb128 0x1a
 6860 0f6a 07090000 		.4byte	.LASF213
 6861 0f6e 13       		.byte	0x13
 6862 0f6f 1A01     		.2byte	0x11a
 6863 0f71 1E       		.byte	0x1e
 6864 0f72 9E090000 		.4byte	0x99e
 6865 0f76 0402     		.2byte	0x204
 6866 0f78 1A       		.uleb128 0x1a
 6867 0f79 211A0000 		.4byte	.LASF214
 6868 0f7d 13       		.byte	0x13
 6869 0f7e 1B01     		.2byte	0x11b
 6870 0f80 1E       		.byte	0x1e
 6871 0f81 92090000 		.4byte	0x992
 6872 0f85 0802     		.2byte	0x208
 6873 0f87 1A       		.uleb128 0x1a
 6874 0f88 ED1B0000 		.4byte	.LASF215
 6875 0f8c 13       		.byte	0x13
 6876 0f8d 1C01     		.2byte	0x11c
 6877 0f8f 1E       		.byte	0x1e
 6878 0f90 9E090000 		.4byte	0x99e
 6879 0f94 0C02     		.2byte	0x20c
 6880 0f96 1A       		.uleb128 0x1a
 6881 0f97 2B1A0000 		.4byte	.LASF216
 6882 0f9b 13       		.byte	0x13
 6883 0f9c 1D01     		.2byte	0x11d
 6884 0f9e 1E       		.byte	0x1e
 6885 0f9f 92090000 		.4byte	0x992
ARM GAS  C:\Users\USER\AppData\Local\Temp\ccRejSya.s 			page 122


 6886 0fa3 1002     		.2byte	0x210
 6887 0fa5 1A       		.uleb128 0x1a
 6888 0fa6 94150000 		.4byte	.LASF217
 6889 0faa 13       		.byte	0x13
 6890 0fab 1E01     		.2byte	0x11e
 6891 0fad 1E       		.byte	0x1e
 6892 0fae 9E090000 		.4byte	0x99e
 6893 0fb2 1402     		.2byte	0x214
 6894 0fb4 1A       		.uleb128 0x1a
 6895 0fb5 351A0000 		.4byte	.LASF218
 6896 0fb9 13       		.byte	0x13
 6897 0fba 1F01     		.2byte	0x11f
 6898 0fbc 1E       		.byte	0x1e
 6899 0fbd 92090000 		.4byte	0x992
 6900 0fc1 1802     		.2byte	0x218
 6901 0fc3 1A       		.uleb128 0x1a
 6902 0fc4 59030000 		.4byte	.LASF219
 6903 0fc8 13       		.byte	0x13
 6904 0fc9 2001     		.2byte	0x120
 6905 0fcb 1E       		.byte	0x1e
 6906 0fcc 9E090000 		.4byte	0x99e
 6907 0fd0 1C02     		.2byte	0x21c
 6908 0fd2 1A       		.uleb128 0x1a
 6909 0fd3 3F1A0000 		.4byte	.LASF220
 6910 0fd7 13       		.byte	0x13
 6911 0fd8 2101     		.2byte	0x121
 6912 0fda 1E       		.byte	0x1e
 6913 0fdb B30D0000 		.4byte	0xdb3
 6914 0fdf 2002     		.2byte	0x220
 6915 0fe1 1A       		.uleb128 0x1a
 6916 0fe2 02050000 		.4byte	.LASF221
 6917 0fe6 13       		.byte	0x13
 6918 0fe7 2201     		.2byte	0x122
 6919 0fe9 1E       		.byte	0x1e
 6920 0fea 31100000 		.4byte	0x1031
 6921 0fee 4002     		.2byte	0x240
 6922 0ff0 00       		.byte	0
 6923 0ff1 0B       		.uleb128 0xb
 6924 0ff2 92090000 		.4byte	0x992
 6925 0ff6 01100000 		.4byte	0x1001
 6926 0ffa 0C       		.uleb128 0xc
 6927 0ffb 25000000 		.4byte	0x25
 6928 0fff 57       		.byte	0x57
 6929 1000 00       		.byte	0
 6930 1001 0B       		.uleb128 0xb
 6931 1002 1A0E0000 		.4byte	0xe1a
 6932 1006 11100000 		.4byte	0x1011
 6933 100a 0C       		.uleb128 0xc
 6934 100b 25000000 		.4byte	0x25
 6935 100f 02       		.byte	0x2
 6936 1010 00       		.byte	0
 6937 1011 0B       		.uleb128 0xb
 6938 1012 640E0000 		.4byte	0xe64
 6939 1016 21100000 		.4byte	0x1021
 6940 101a 0C       		.uleb128 0xc
 6941 101b 25000000 		.4byte	0x25
 6942 101f 01       		.byte	0x1
ARM GAS  C:\Users\USER\AppData\Local\Temp\ccRejSya.s 			page 123


 6943 1020 00       		.byte	0
 6944 1021 0B       		.uleb128 0xb
 6945 1022 92090000 		.4byte	0x992
 6946 1026 31100000 		.4byte	0x1031
 6947 102a 0C       		.uleb128 0xc
 6948 102b 25000000 		.4byte	0x25
 6949 102f 0B       		.byte	0xb
 6950 1030 00       		.byte	0
 6951 1031 0B       		.uleb128 0xb
 6952 1032 970E0000 		.4byte	0xe97
 6953 1036 41100000 		.4byte	0x1041
 6954 103a 0C       		.uleb128 0xc
 6955 103b 25000000 		.4byte	0x25
 6956 103f 1B       		.byte	0x1b
 6957 1040 00       		.byte	0
 6958 1041 08       		.uleb128 0x8
 6959 1042 880A0000 		.4byte	.LASF222
 6960 1046 13       		.byte	0x13
 6961 1047 2301     		.2byte	0x123
 6962 1049 03       		.byte	0x3
 6963 104a A40E0000 		.4byte	0xea4
 6964 104e 1C       		.uleb128 0x1c
 6965 104f 18       		.byte	0x18
 6966 1050 13       		.byte	0x13
 6967 1051 6B01     		.2byte	0x16b
 6968 1053 09       		.byte	0x9
 6969 1054 AC100000 		.4byte	0x10ac
 6970 1058 21       		.uleb128 0x21
 6971 1059 435200   		.ascii	"CR\000"
 6972 105c 13       		.byte	0x13
 6973 105d 6D01     		.2byte	0x16d
 6974 105f 11       		.byte	0x11
 6975 1060 9E090000 		.4byte	0x99e
 6976 1064 00       		.byte	0
 6977 1065 19       		.uleb128 0x19
 6978 1066 321B0000 		.4byte	.LASF223
 6979 106a 13       		.byte	0x13
 6980 106b 6E01     		.2byte	0x16e
 6981 106d 11       		.byte	0x11
 6982 106e 9E090000 		.4byte	0x99e
 6983 1072 04       		.byte	0x4
 6984 1073 21       		.uleb128 0x21
 6985 1074 50415200 		.ascii	"PAR\000"
 6986 1078 13       		.byte	0x13
 6987 1079 6F01     		.2byte	0x16f
 6988 107b 11       		.byte	0x11
 6989 107c 9E090000 		.4byte	0x99e
 6990 1080 08       		.byte	0x8
 6991 1081 19       		.uleb128 0x19
 6992 1082 2A030000 		.4byte	.LASF224
 6993 1086 13       		.byte	0x13
 6994 1087 7001     		.2byte	0x170
 6995 1089 11       		.byte	0x11
 6996 108a 9E090000 		.4byte	0x99e
 6997 108e 0C       		.byte	0xc
 6998 108f 19       		.uleb128 0x19
 6999 1090 7C060000 		.4byte	.LASF225
ARM GAS  C:\Users\USER\AppData\Local\Temp\ccRejSya.s 			page 124


 7000 1094 13       		.byte	0x13
 7001 1095 7101     		.2byte	0x171
 7002 1097 11       		.byte	0x11
 7003 1098 9E090000 		.4byte	0x99e
 7004 109c 10       		.byte	0x10
 7005 109d 21       		.uleb128 0x21
 7006 109e 46435200 		.ascii	"FCR\000"
 7007 10a2 13       		.byte	0x13
 7008 10a3 7201     		.2byte	0x172
 7009 10a5 11       		.byte	0x11
 7010 10a6 9E090000 		.4byte	0x99e
 7011 10aa 14       		.byte	0x14
 7012 10ab 00       		.byte	0
 7013 10ac 08       		.uleb128 0x8
 7014 10ad 86060000 		.4byte	.LASF226
 7015 10b1 13       		.byte	0x13
 7016 10b2 7301     		.2byte	0x173
 7017 10b4 03       		.byte	0x3
 7018 10b5 4E100000 		.4byte	0x104e
 7019 10b9 0B       		.uleb128 0xb
 7020 10ba 9E090000 		.4byte	0x99e
 7021 10be C9100000 		.4byte	0x10c9
 7022 10c2 0C       		.uleb128 0xc
 7023 10c3 25000000 		.4byte	0x25
 7024 10c7 01       		.byte	0x1
 7025 10c8 00       		.byte	0
 7026 10c9 05       		.uleb128 0x5
 7027 10ca B9100000 		.4byte	0x10b9
 7028 10ce 0B       		.uleb128 0xb
 7029 10cf 9E090000 		.4byte	0x99e
 7030 10d3 DE100000 		.4byte	0x10de
 7031 10d7 0C       		.uleb128 0xc
 7032 10d8 25000000 		.4byte	0x25
 7033 10dc 03       		.byte	0x3
 7034 10dd 00       		.byte	0
 7035 10de 05       		.uleb128 0x5
 7036 10df CE100000 		.4byte	0x10ce
 7037 10e3 1C       		.uleb128 0x1c
 7038 10e4 28       		.byte	0x28
 7039 10e5 13       		.byte	0x13
 7040 10e6 3F02     		.2byte	0x23f
 7041 10e8 09       		.byte	0x9
 7042 10e9 79110000 		.4byte	0x1179
 7043 10ed 21       		.uleb128 0x21
 7044 10ee 43523100 		.ascii	"CR1\000"
 7045 10f2 13       		.byte	0x13
 7046 10f3 4102     		.2byte	0x241
 7047 10f5 11       		.byte	0x11
 7048 10f6 9E090000 		.4byte	0x99e
 7049 10fa 00       		.byte	0
 7050 10fb 21       		.uleb128 0x21
 7051 10fc 43523200 		.ascii	"CR2\000"
 7052 1100 13       		.byte	0x13
 7053 1101 4202     		.2byte	0x242
 7054 1103 11       		.byte	0x11
 7055 1104 9E090000 		.4byte	0x99e
 7056 1108 04       		.byte	0x4
ARM GAS  C:\Users\USER\AppData\Local\Temp\ccRejSya.s 			page 125


 7057 1109 19       		.uleb128 0x19
 7058 110a 5D200000 		.4byte	.LASF227
 7059 110e 13       		.byte	0x13
 7060 110f 4302     		.2byte	0x243
 7061 1111 11       		.byte	0x11
 7062 1112 9E090000 		.4byte	0x99e
 7063 1116 08       		.byte	0x8
 7064 1117 19       		.uleb128 0x19
 7065 1118 62200000 		.4byte	.LASF228
 7066 111c 13       		.byte	0x13
 7067 111d 4402     		.2byte	0x244
 7068 111f 11       		.byte	0x11
 7069 1120 9E090000 		.4byte	0x99e
 7070 1124 0C       		.byte	0xc
 7071 1125 21       		.uleb128 0x21
 7072 1126 445200   		.ascii	"DR\000"
 7073 1129 13       		.byte	0x13
 7074 112a 4502     		.2byte	0x245
 7075 112c 11       		.byte	0x11
 7076 112d 9E090000 		.4byte	0x99e
 7077 1131 10       		.byte	0x10
 7078 1132 21       		.uleb128 0x21
 7079 1133 53523100 		.ascii	"SR1\000"
 7080 1137 13       		.byte	0x13
 7081 1138 4602     		.2byte	0x246
 7082 113a 11       		.byte	0x11
 7083 113b 9E090000 		.4byte	0x99e
 7084 113f 14       		.byte	0x14
 7085 1140 21       		.uleb128 0x21
 7086 1141 53523200 		.ascii	"SR2\000"
 7087 1145 13       		.byte	0x13
 7088 1146 4702     		.2byte	0x247
 7089 1148 11       		.byte	0x11
 7090 1149 9E090000 		.4byte	0x99e
 7091 114d 18       		.byte	0x18
 7092 114e 21       		.uleb128 0x21
 7093 114f 43435200 		.ascii	"CCR\000"
 7094 1153 13       		.byte	0x13
 7095 1154 4802     		.2byte	0x248
 7096 1156 11       		.byte	0x11
 7097 1157 9E090000 		.4byte	0x99e
 7098 115b 1C       		.byte	0x1c
 7099 115c 19       		.uleb128 0x19
 7100 115d 44040000 		.4byte	.LASF229
 7101 1161 13       		.byte	0x13
 7102 1162 4902     		.2byte	0x249
 7103 1164 11       		.byte	0x11
 7104 1165 9E090000 		.4byte	0x99e
 7105 1169 20       		.byte	0x20
 7106 116a 19       		.uleb128 0x19
 7107 116b 171F0000 		.4byte	.LASF230
 7108 116f 13       		.byte	0x13
 7109 1170 4A02     		.2byte	0x24a
 7110 1172 11       		.byte	0x11
 7111 1173 9E090000 		.4byte	0x99e
 7112 1177 24       		.byte	0x24
 7113 1178 00       		.byte	0
ARM GAS  C:\Users\USER\AppData\Local\Temp\ccRejSya.s 			page 126


 7114 1179 08       		.uleb128 0x8
 7115 117a A40E0000 		.4byte	.LASF231
 7116 117e 13       		.byte	0x13
 7117 117f 4B02     		.2byte	0x24b
 7118 1181 03       		.byte	0x3
 7119 1182 E3100000 		.4byte	0x10e3
 7120 1186 1C       		.uleb128 0x1c
 7121 1187 88       		.byte	0x88
 7122 1188 13       		.byte	0x13
 7123 1189 6702     		.2byte	0x267
 7124 118b 09       		.byte	0x9
 7125 118c 34130000 		.4byte	0x1334
 7126 1190 21       		.uleb128 0x21
 7127 1191 435200   		.ascii	"CR\000"
 7128 1194 13       		.byte	0x13
 7129 1195 6902     		.2byte	0x269
 7130 1197 11       		.byte	0x11
 7131 1198 9E090000 		.4byte	0x99e
 7132 119c 00       		.byte	0
 7133 119d 19       		.uleb128 0x19
 7134 119e 5A180000 		.4byte	.LASF232
 7135 11a2 13       		.byte	0x13
 7136 11a3 6A02     		.2byte	0x26a
 7137 11a5 11       		.byte	0x11
 7138 11a6 9E090000 		.4byte	0x99e
 7139 11aa 04       		.byte	0x4
 7140 11ab 19       		.uleb128 0x19
 7141 11ac D5100000 		.4byte	.LASF233
 7142 11b0 13       		.byte	0x13
 7143 11b1 6B02     		.2byte	0x26b
 7144 11b3 11       		.byte	0x11
 7145 11b4 9E090000 		.4byte	0x99e
 7146 11b8 08       		.byte	0x8
 7147 11b9 21       		.uleb128 0x21
 7148 11ba 43495200 		.ascii	"CIR\000"
 7149 11be 13       		.byte	0x13
 7150 11bf 6C02     		.2byte	0x26c
 7151 11c1 11       		.byte	0x11
 7152 11c2 9E090000 		.4byte	0x99e
 7153 11c6 0C       		.byte	0xc
 7154 11c7 19       		.uleb128 0x19
 7155 11c8 19200000 		.4byte	.LASF234
 7156 11cc 13       		.byte	0x13
 7157 11cd 6D02     		.2byte	0x26d
 7158 11cf 11       		.byte	0x11
 7159 11d0 9E090000 		.4byte	0x99e
 7160 11d4 10       		.byte	0x10
 7161 11d5 19       		.uleb128 0x19
 7162 11d6 A5090000 		.4byte	.LASF235
 7163 11da 13       		.byte	0x13
 7164 11db 6E02     		.2byte	0x26e
 7165 11dd 11       		.byte	0x11
 7166 11de 9E090000 		.4byte	0x99e
 7167 11e2 14       		.byte	0x14
 7168 11e3 19       		.uleb128 0x19
 7169 11e4 73130000 		.4byte	.LASF236
 7170 11e8 13       		.byte	0x13
ARM GAS  C:\Users\USER\AppData\Local\Temp\ccRejSya.s 			page 127


 7171 11e9 6F02     		.2byte	0x26f
 7172 11eb 11       		.byte	0x11
 7173 11ec 9E090000 		.4byte	0x99e
 7174 11f0 18       		.byte	0x18
 7175 11f1 19       		.uleb128 0x19
 7176 11f2 0D1A0000 		.4byte	.LASF209
 7177 11f6 13       		.byte	0x13
 7178 11f7 7002     		.2byte	0x270
 7179 11f9 11       		.byte	0x11
 7180 11fa 92090000 		.4byte	0x992
 7181 11fe 1C       		.byte	0x1c
 7182 11ff 19       		.uleb128 0x19
 7183 1200 9C030000 		.4byte	.LASF237
 7184 1204 13       		.byte	0x13
 7185 1205 7102     		.2byte	0x271
 7186 1207 11       		.byte	0x11
 7187 1208 9E090000 		.4byte	0x99e
 7188 120c 20       		.byte	0x20
 7189 120d 19       		.uleb128 0x19
 7190 120e 410E0000 		.4byte	.LASF238
 7191 1212 13       		.byte	0x13
 7192 1213 7202     		.2byte	0x272
 7193 1215 11       		.byte	0x11
 7194 1216 9E090000 		.4byte	0x99e
 7195 121a 24       		.byte	0x24
 7196 121b 19       		.uleb128 0x19
 7197 121c 171A0000 		.4byte	.LASF212
 7198 1220 13       		.byte	0x13
 7199 1221 7302     		.2byte	0x273
 7200 1223 11       		.byte	0x11
 7201 1224 A30D0000 		.4byte	0xda3
 7202 1228 28       		.byte	0x28
 7203 1229 19       		.uleb128 0x19
 7204 122a F80F0000 		.4byte	.LASF239
 7205 122e 13       		.byte	0x13
 7206 122f 7402     		.2byte	0x274
 7207 1231 11       		.byte	0x11
 7208 1232 9E090000 		.4byte	0x99e
 7209 1236 30       		.byte	0x30
 7210 1237 19       		.uleb128 0x19
 7211 1238 11200000 		.4byte	.LASF240
 7212 123c 13       		.byte	0x13
 7213 123d 7502     		.2byte	0x275
 7214 123f 11       		.byte	0x11
 7215 1240 9E090000 		.4byte	0x99e
 7216 1244 34       		.byte	0x34
 7217 1245 19       		.uleb128 0x19
 7218 1246 F60E0000 		.4byte	.LASF241
 7219 124a 13       		.byte	0x13
 7220 124b 7602     		.2byte	0x276
 7221 124d 11       		.byte	0x11
 7222 124e 9E090000 		.4byte	0x99e
 7223 1252 38       		.byte	0x38
 7224 1253 19       		.uleb128 0x19
 7225 1254 211A0000 		.4byte	.LASF214
 7226 1258 13       		.byte	0x13
 7227 1259 7702     		.2byte	0x277
ARM GAS  C:\Users\USER\AppData\Local\Temp\ccRejSya.s 			page 128


 7228 125b 11       		.byte	0x11
 7229 125c 92090000 		.4byte	0x992
 7230 1260 3C       		.byte	0x3c
 7231 1261 19       		.uleb128 0x19
 7232 1262 F0160000 		.4byte	.LASF242
 7233 1266 13       		.byte	0x13
 7234 1267 7802     		.2byte	0x278
 7235 1269 11       		.byte	0x11
 7236 126a 9E090000 		.4byte	0x99e
 7237 126e 40       		.byte	0x40
 7238 126f 19       		.uleb128 0x19
 7239 1270 81050000 		.4byte	.LASF243
 7240 1274 13       		.byte	0x13
 7241 1275 7902     		.2byte	0x279
 7242 1277 11       		.byte	0x11
 7243 1278 9E090000 		.4byte	0x99e
 7244 127c 44       		.byte	0x44
 7245 127d 19       		.uleb128 0x19
 7246 127e 2B1A0000 		.4byte	.LASF216
 7247 1282 13       		.byte	0x13
 7248 1283 7A02     		.2byte	0x27a
 7249 1285 11       		.byte	0x11
 7250 1286 A30D0000 		.4byte	0xda3
 7251 128a 48       		.byte	0x48
 7252 128b 19       		.uleb128 0x19
 7253 128c 0D1B0000 		.4byte	.LASF244
 7254 1290 13       		.byte	0x13
 7255 1291 7B02     		.2byte	0x27b
 7256 1293 11       		.byte	0x11
 7257 1294 9E090000 		.4byte	0x99e
 7258 1298 50       		.byte	0x50
 7259 1299 19       		.uleb128 0x19
 7260 129a 3D080000 		.4byte	.LASF245
 7261 129e 13       		.byte	0x13
 7262 129f 7C02     		.2byte	0x27c
 7263 12a1 11       		.byte	0x11
 7264 12a2 9E090000 		.4byte	0x99e
 7265 12a6 54       		.byte	0x54
 7266 12a7 19       		.uleb128 0x19
 7267 12a8 0A080000 		.4byte	.LASF246
 7268 12ac 13       		.byte	0x13
 7269 12ad 7D02     		.2byte	0x27d
 7270 12af 11       		.byte	0x11
 7271 12b0 9E090000 		.4byte	0x99e
 7272 12b4 58       		.byte	0x58
 7273 12b5 19       		.uleb128 0x19
 7274 12b6 351A0000 		.4byte	.LASF218
 7275 12ba 13       		.byte	0x13
 7276 12bb 7E02     		.2byte	0x27e
 7277 12bd 11       		.byte	0x11
 7278 12be 92090000 		.4byte	0x992
 7279 12c2 5C       		.byte	0x5c
 7280 12c3 19       		.uleb128 0x19
 7281 12c4 830E0000 		.4byte	.LASF247
 7282 12c8 13       		.byte	0x13
 7283 12c9 7F02     		.2byte	0x27f
 7284 12cb 11       		.byte	0x11
ARM GAS  C:\Users\USER\AppData\Local\Temp\ccRejSya.s 			page 129


 7285 12cc 9E090000 		.4byte	0x99e
 7286 12d0 60       		.byte	0x60
 7287 12d1 19       		.uleb128 0x19
 7288 12d2 991C0000 		.4byte	.LASF248
 7289 12d6 13       		.byte	0x13
 7290 12d7 8002     		.2byte	0x280
 7291 12d9 11       		.byte	0x11
 7292 12da 9E090000 		.4byte	0x99e
 7293 12de 64       		.byte	0x64
 7294 12df 19       		.uleb128 0x19
 7295 12e0 3F1A0000 		.4byte	.LASF220
 7296 12e4 13       		.byte	0x13
 7297 12e5 8102     		.2byte	0x281
 7298 12e7 11       		.byte	0x11
 7299 12e8 A30D0000 		.4byte	0xda3
 7300 12ec 68       		.byte	0x68
 7301 12ed 19       		.uleb128 0x19
 7302 12ee 16190000 		.4byte	.LASF249
 7303 12f2 13       		.byte	0x13
 7304 12f3 8202     		.2byte	0x282
 7305 12f5 11       		.byte	0x11
 7306 12f6 9E090000 		.4byte	0x99e
 7307 12fa 70       		.byte	0x70
 7308 12fb 21       		.uleb128 0x21
 7309 12fc 43535200 		.ascii	"CSR\000"
 7310 1300 13       		.byte	0x13
 7311 1301 8302     		.2byte	0x283
 7312 1303 11       		.byte	0x11
 7313 1304 9E090000 		.4byte	0x99e
 7314 1308 74       		.byte	0x74
 7315 1309 19       		.uleb128 0x19
 7316 130a 491A0000 		.4byte	.LASF250
 7317 130e 13       		.byte	0x13
 7318 130f 8402     		.2byte	0x284
 7319 1311 11       		.byte	0x11
 7320 1312 A30D0000 		.4byte	0xda3
 7321 1316 78       		.byte	0x78
 7322 1317 19       		.uleb128 0x19
 7323 1318 8C110000 		.4byte	.LASF251
 7324 131c 13       		.byte	0x13
 7325 131d 8502     		.2byte	0x285
 7326 131f 11       		.byte	0x11
 7327 1320 9E090000 		.4byte	0x99e
 7328 1324 80       		.byte	0x80
 7329 1325 19       		.uleb128 0x19
 7330 1326 89120000 		.4byte	.LASF252
 7331 132a 13       		.byte	0x13
 7332 132b 8602     		.2byte	0x286
 7333 132d 11       		.byte	0x11
 7334 132e 9E090000 		.4byte	0x99e
 7335 1332 84       		.byte	0x84
 7336 1333 00       		.byte	0
 7337 1334 08       		.uleb128 0x8
 7338 1335 29010000 		.4byte	.LASF253
 7339 1339 13       		.byte	0x13
 7340 133a 8802     		.2byte	0x288
 7341 133c 03       		.byte	0x3
ARM GAS  C:\Users\USER\AppData\Local\Temp\ccRejSya.s 			page 130


 7342 133d 86110000 		.4byte	0x1186
 7343 1341 1C       		.uleb128 0x1c
 7344 1342 24       		.byte	0x24
 7345 1343 13       		.byte	0x13
 7346 1344 DB02     		.2byte	0x2db
 7347 1346 09       		.byte	0x9
 7348 1347 C8130000 		.4byte	0x13c8
 7349 134b 21       		.uleb128 0x21
 7350 134c 43523100 		.ascii	"CR1\000"
 7351 1350 13       		.byte	0x13
 7352 1351 DD02     		.2byte	0x2dd
 7353 1353 11       		.byte	0x11
 7354 1354 9E090000 		.4byte	0x99e
 7355 1358 00       		.byte	0
 7356 1359 21       		.uleb128 0x21
 7357 135a 43523200 		.ascii	"CR2\000"
 7358 135e 13       		.byte	0x13
 7359 135f DE02     		.2byte	0x2de
 7360 1361 11       		.byte	0x11
 7361 1362 9E090000 		.4byte	0x99e
 7362 1366 04       		.byte	0x4
 7363 1367 21       		.uleb128 0x21
 7364 1368 535200   		.ascii	"SR\000"
 7365 136b 13       		.byte	0x13
 7366 136c DF02     		.2byte	0x2df
 7367 136e 11       		.byte	0x11
 7368 136f 9E090000 		.4byte	0x99e
 7369 1373 08       		.byte	0x8
 7370 1374 21       		.uleb128 0x21
 7371 1375 445200   		.ascii	"DR\000"
 7372 1378 13       		.byte	0x13
 7373 1379 E002     		.2byte	0x2e0
 7374 137b 11       		.byte	0x11
 7375 137c 9E090000 		.4byte	0x99e
 7376 1380 0C       		.byte	0xc
 7377 1381 19       		.uleb128 0x19
 7378 1382 1B060000 		.4byte	.LASF254
 7379 1386 13       		.byte	0x13
 7380 1387 E102     		.2byte	0x2e1
 7381 1389 11       		.byte	0x11
 7382 138a 9E090000 		.4byte	0x99e
 7383 138e 10       		.byte	0x10
 7384 138f 19       		.uleb128 0x19
 7385 1390 76090000 		.4byte	.LASF255
 7386 1394 13       		.byte	0x13
 7387 1395 E202     		.2byte	0x2e2
 7388 1397 11       		.byte	0x11
 7389 1398 9E090000 		.4byte	0x99e
 7390 139c 14       		.byte	0x14
 7391 139d 19       		.uleb128 0x19
 7392 139e A1080000 		.4byte	.LASF256
 7393 13a2 13       		.byte	0x13
 7394 13a3 E302     		.2byte	0x2e3
 7395 13a5 11       		.byte	0x11
 7396 13a6 9E090000 		.4byte	0x99e
 7397 13aa 18       		.byte	0x18
 7398 13ab 19       		.uleb128 0x19
ARM GAS  C:\Users\USER\AppData\Local\Temp\ccRejSya.s 			page 131


 7399 13ac 4B1D0000 		.4byte	.LASF257
 7400 13b0 13       		.byte	0x13
 7401 13b1 E402     		.2byte	0x2e4
 7402 13b3 11       		.byte	0x11
 7403 13b4 9E090000 		.4byte	0x99e
 7404 13b8 1C       		.byte	0x1c
 7405 13b9 19       		.uleb128 0x19
 7406 13ba FC050000 		.4byte	.LASF258
 7407 13be 13       		.byte	0x13
 7408 13bf E502     		.2byte	0x2e5
 7409 13c1 11       		.byte	0x11
 7410 13c2 9E090000 		.4byte	0x99e
 7411 13c6 20       		.byte	0x20
 7412 13c7 00       		.byte	0
 7413 13c8 08       		.uleb128 0x8
 7414 13c9 781B0000 		.4byte	.LASF259
 7415 13cd 13       		.byte	0x13
 7416 13ce E602     		.2byte	0x2e6
 7417 13d0 03       		.byte	0x3
 7418 13d1 41130000 		.4byte	0x1341
 7419 13d5 1C       		.uleb128 0x1c
 7420 13d6 1C       		.byte	0x1c
 7421 13d7 13       		.byte	0x13
 7422 13d8 0903     		.2byte	0x309
 7423 13da 09       		.byte	0x9
 7424 13db 40140000 		.4byte	0x1440
 7425 13df 21       		.uleb128 0x21
 7426 13e0 535200   		.ascii	"SR\000"
 7427 13e3 13       		.byte	0x13
 7428 13e4 0B03     		.2byte	0x30b
 7429 13e6 11       		.byte	0x11
 7430 13e7 9E090000 		.4byte	0x99e
 7431 13eb 00       		.byte	0
 7432 13ec 21       		.uleb128 0x21
 7433 13ed 445200   		.ascii	"DR\000"
 7434 13f0 13       		.byte	0x13
 7435 13f1 0C03     		.2byte	0x30c
 7436 13f3 11       		.byte	0x11
 7437 13f4 9E090000 		.4byte	0x99e
 7438 13f8 04       		.byte	0x4
 7439 13f9 21       		.uleb128 0x21
 7440 13fa 42525200 		.ascii	"BRR\000"
 7441 13fe 13       		.byte	0x13
 7442 13ff 0D03     		.2byte	0x30d
 7443 1401 11       		.byte	0x11
 7444 1402 9E090000 		.4byte	0x99e
 7445 1406 08       		.byte	0x8
 7446 1407 21       		.uleb128 0x21
 7447 1408 43523100 		.ascii	"CR1\000"
 7448 140c 13       		.byte	0x13
 7449 140d 0E03     		.2byte	0x30e
 7450 140f 11       		.byte	0x11
 7451 1410 9E090000 		.4byte	0x99e
 7452 1414 0C       		.byte	0xc
 7453 1415 21       		.uleb128 0x21
 7454 1416 43523200 		.ascii	"CR2\000"
 7455 141a 13       		.byte	0x13
ARM GAS  C:\Users\USER\AppData\Local\Temp\ccRejSya.s 			page 132


 7456 141b 0F03     		.2byte	0x30f
 7457 141d 11       		.byte	0x11
 7458 141e 9E090000 		.4byte	0x99e
 7459 1422 10       		.byte	0x10
 7460 1423 21       		.uleb128 0x21
 7461 1424 43523300 		.ascii	"CR3\000"
 7462 1428 13       		.byte	0x13
 7463 1429 1003     		.2byte	0x310
 7464 142b 11       		.byte	0x11
 7465 142c 9E090000 		.4byte	0x99e
 7466 1430 14       		.byte	0x14
 7467 1431 19       		.uleb128 0x19
 7468 1432 050C0000 		.4byte	.LASF260
 7469 1436 13       		.byte	0x13
 7470 1437 1103     		.2byte	0x311
 7471 1439 11       		.byte	0x11
 7472 143a 9E090000 		.4byte	0x99e
 7473 143e 18       		.byte	0x18
 7474 143f 00       		.byte	0
 7475 1440 08       		.uleb128 0x8
 7476 1441 B31F0000 		.4byte	.LASF261
 7477 1445 13       		.byte	0x13
 7478 1446 1203     		.2byte	0x312
 7479 1448 03       		.byte	0x3
 7480 1449 D5130000 		.4byte	0x13d5
 7481 144d 0B       		.uleb128 0xb
 7482 144e 9E090000 		.4byte	0x99e
 7483 1452 5D140000 		.4byte	0x145d
 7484 1456 0C       		.uleb128 0xc
 7485 1457 25000000 		.4byte	0x25
 7486 145b 0E       		.byte	0xe
 7487 145c 00       		.byte	0
 7488 145d 05       		.uleb128 0x5
 7489 145e 4D140000 		.4byte	0x144d
 7490 1462 04       		.uleb128 0x4
 7491 1463 6F150000 		.4byte	.LASF262
 7492 1467 14       		.byte	0x14
 7493 1468 65       		.byte	0x65
 7494 1469 0F       		.byte	0xf
 7495 146a 62010000 		.4byte	0x162
 7496 146e 04       		.uleb128 0x4
 7497 146f 50070000 		.4byte	.LASF263
 7498 1473 14       		.byte	0x14
 7499 1474 6D       		.byte	0x6d
 7500 1475 12       		.byte	0x12
 7501 1476 A3090000 		.4byte	0x9a3
 7502 147a 11       		.uleb128 0x11
 7503 147b E60E0000 		.4byte	.LASF264
 7504 147f 04       		.byte	0x4
 7505 1480 14       		.byte	0x14
 7506 1481 89       		.byte	0x89
 7507 1482 08       		.byte	0x8
 7508 1483 95140000 		.4byte	0x1495
 7509 1487 12       		.uleb128 0x12
 7510 1488 72313300 		.ascii	"r13\000"
 7511 148c 14       		.byte	0x14
 7512 148d 8A       		.byte	0x8a
ARM GAS  C:\Users\USER\AppData\Local\Temp\ccRejSya.s 			page 133


 7513 148e 17       		.byte	0x17
 7514 148f F0150000 		.4byte	0x15f0
 7515 1493 00       		.byte	0
 7516 1494 00       		.byte	0
 7517 1495 11       		.uleb128 0x11
 7518 1496 09000000 		.4byte	.LASF265
 7519 149a 64       		.byte	0x64
 7520 149b 05       		.byte	0x5
 7521 149c F4       		.byte	0xf4
 7522 149d 08       		.byte	0x8
 7523 149e F0150000 		.4byte	0x15f0
 7524 14a2 12       		.uleb128 0x12
 7525 14a3 73313600 		.ascii	"s16\000"
 7526 14a7 05       		.byte	0x5
 7527 14a8 F6       		.byte	0xf6
 7528 14a9 11       		.byte	0x11
 7529 14aa 62140000 		.4byte	0x1462
 7530 14ae 00       		.byte	0
 7531 14af 12       		.uleb128 0x12
 7532 14b0 73313700 		.ascii	"s17\000"
 7533 14b4 05       		.byte	0x5
 7534 14b5 F7       		.byte	0xf7
 7535 14b6 11       		.byte	0x11
 7536 14b7 62140000 		.4byte	0x1462
 7537 14bb 04       		.byte	0x4
 7538 14bc 12       		.uleb128 0x12
 7539 14bd 73313800 		.ascii	"s18\000"
 7540 14c1 05       		.byte	0x5
 7541 14c2 F8       		.byte	0xf8
 7542 14c3 11       		.byte	0x11
 7543 14c4 62140000 		.4byte	0x1462
 7544 14c8 08       		.byte	0x8
 7545 14c9 12       		.uleb128 0x12
 7546 14ca 73313900 		.ascii	"s19\000"
 7547 14ce 05       		.byte	0x5
 7548 14cf F9       		.byte	0xf9
 7549 14d0 11       		.byte	0x11
 7550 14d1 62140000 		.4byte	0x1462
 7551 14d5 0C       		.byte	0xc
 7552 14d6 12       		.uleb128 0x12
 7553 14d7 73323000 		.ascii	"s20\000"
 7554 14db 05       		.byte	0x5
 7555 14dc FA       		.byte	0xfa
 7556 14dd 11       		.byte	0x11
 7557 14de 62140000 		.4byte	0x1462
 7558 14e2 10       		.byte	0x10
 7559 14e3 12       		.uleb128 0x12
 7560 14e4 73323100 		.ascii	"s21\000"
 7561 14e8 05       		.byte	0x5
 7562 14e9 FB       		.byte	0xfb
 7563 14ea 11       		.byte	0x11
 7564 14eb 62140000 		.4byte	0x1462
 7565 14ef 14       		.byte	0x14
 7566 14f0 12       		.uleb128 0x12
 7567 14f1 73323200 		.ascii	"s22\000"
 7568 14f5 05       		.byte	0x5
 7569 14f6 FC       		.byte	0xfc
ARM GAS  C:\Users\USER\AppData\Local\Temp\ccRejSya.s 			page 134


 7570 14f7 11       		.byte	0x11
 7571 14f8 62140000 		.4byte	0x1462
 7572 14fc 18       		.byte	0x18
 7573 14fd 12       		.uleb128 0x12
 7574 14fe 73323300 		.ascii	"s23\000"
 7575 1502 05       		.byte	0x5
 7576 1503 FD       		.byte	0xfd
 7577 1504 11       		.byte	0x11
 7578 1505 62140000 		.4byte	0x1462
 7579 1509 1C       		.byte	0x1c
 7580 150a 12       		.uleb128 0x12
 7581 150b 73323400 		.ascii	"s24\000"
 7582 150f 05       		.byte	0x5
 7583 1510 FE       		.byte	0xfe
 7584 1511 11       		.byte	0x11
 7585 1512 62140000 		.4byte	0x1462
 7586 1516 20       		.byte	0x20
 7587 1517 12       		.uleb128 0x12
 7588 1518 73323500 		.ascii	"s25\000"
 7589 151c 05       		.byte	0x5
 7590 151d FF       		.byte	0xff
 7591 151e 11       		.byte	0x11
 7592 151f 62140000 		.4byte	0x1462
 7593 1523 24       		.byte	0x24
 7594 1524 21       		.uleb128 0x21
 7595 1525 73323600 		.ascii	"s26\000"
 7596 1529 05       		.byte	0x5
 7597 152a 0001     		.2byte	0x100
 7598 152c 11       		.byte	0x11
 7599 152d 62140000 		.4byte	0x1462
 7600 1531 28       		.byte	0x28
 7601 1532 21       		.uleb128 0x21
 7602 1533 73323700 		.ascii	"s27\000"
 7603 1537 05       		.byte	0x5
 7604 1538 0101     		.2byte	0x101
 7605 153a 11       		.byte	0x11
 7606 153b 62140000 		.4byte	0x1462
 7607 153f 2C       		.byte	0x2c
 7608 1540 21       		.uleb128 0x21
 7609 1541 73323800 		.ascii	"s28\000"
 7610 1545 05       		.byte	0x5
 7611 1546 0201     		.2byte	0x102
 7612 1548 11       		.byte	0x11
 7613 1549 62140000 		.4byte	0x1462
 7614 154d 30       		.byte	0x30
 7615 154e 21       		.uleb128 0x21
 7616 154f 73323900 		.ascii	"s29\000"
 7617 1553 05       		.byte	0x5
 7618 1554 0301     		.2byte	0x103
 7619 1556 11       		.byte	0x11
 7620 1557 62140000 		.4byte	0x1462
 7621 155b 34       		.byte	0x34
 7622 155c 21       		.uleb128 0x21
 7623 155d 73333000 		.ascii	"s30\000"
 7624 1561 05       		.byte	0x5
 7625 1562 0401     		.2byte	0x104
 7626 1564 11       		.byte	0x11
ARM GAS  C:\Users\USER\AppData\Local\Temp\ccRejSya.s 			page 135


 7627 1565 62140000 		.4byte	0x1462
 7628 1569 38       		.byte	0x38
 7629 156a 21       		.uleb128 0x21
 7630 156b 73333100 		.ascii	"s31\000"
 7631 156f 05       		.byte	0x5
 7632 1570 0501     		.2byte	0x105
 7633 1572 11       		.byte	0x11
 7634 1573 62140000 		.4byte	0x1462
 7635 1577 3C       		.byte	0x3c
 7636 1578 21       		.uleb128 0x21
 7637 1579 723400   		.ascii	"r4\000"
 7638 157c 05       		.byte	0x5
 7639 157d 0701     		.2byte	0x107
 7640 157f 11       		.byte	0x11
 7641 1580 62140000 		.4byte	0x1462
 7642 1584 40       		.byte	0x40
 7643 1585 21       		.uleb128 0x21
 7644 1586 723500   		.ascii	"r5\000"
 7645 1589 05       		.byte	0x5
 7646 158a 0801     		.2byte	0x108
 7647 158c 11       		.byte	0x11
 7648 158d 62140000 		.4byte	0x1462
 7649 1591 44       		.byte	0x44
 7650 1592 21       		.uleb128 0x21
 7651 1593 723600   		.ascii	"r6\000"
 7652 1596 05       		.byte	0x5
 7653 1597 0901     		.2byte	0x109
 7654 1599 11       		.byte	0x11
 7655 159a 62140000 		.4byte	0x1462
 7656 159e 48       		.byte	0x48
 7657 159f 21       		.uleb128 0x21
 7658 15a0 723700   		.ascii	"r7\000"
 7659 15a3 05       		.byte	0x5
 7660 15a4 0A01     		.2byte	0x10a
 7661 15a6 11       		.byte	0x11
 7662 15a7 62140000 		.4byte	0x1462
 7663 15ab 4C       		.byte	0x4c
 7664 15ac 21       		.uleb128 0x21
 7665 15ad 723800   		.ascii	"r8\000"
 7666 15b0 05       		.byte	0x5
 7667 15b1 0B01     		.2byte	0x10b
 7668 15b3 11       		.byte	0x11
 7669 15b4 62140000 		.4byte	0x1462
 7670 15b8 50       		.byte	0x50
 7671 15b9 21       		.uleb128 0x21
 7672 15ba 723900   		.ascii	"r9\000"
 7673 15bd 05       		.byte	0x5
 7674 15be 0C01     		.2byte	0x10c
 7675 15c0 11       		.byte	0x11
 7676 15c1 62140000 		.4byte	0x1462
 7677 15c5 54       		.byte	0x54
 7678 15c6 21       		.uleb128 0x21
 7679 15c7 72313000 		.ascii	"r10\000"
 7680 15cb 05       		.byte	0x5
 7681 15cc 0D01     		.2byte	0x10d
 7682 15ce 11       		.byte	0x11
 7683 15cf 62140000 		.4byte	0x1462
ARM GAS  C:\Users\USER\AppData\Local\Temp\ccRejSya.s 			page 136


 7684 15d3 58       		.byte	0x58
 7685 15d4 21       		.uleb128 0x21
 7686 15d5 72313100 		.ascii	"r11\000"
 7687 15d9 05       		.byte	0x5
 7688 15da 0E01     		.2byte	0x10e
 7689 15dc 11       		.byte	0x11
 7690 15dd 62140000 		.4byte	0x1462
 7691 15e1 5C       		.byte	0x5c
 7692 15e2 21       		.uleb128 0x21
 7693 15e3 6C7200   		.ascii	"lr\000"
 7694 15e6 05       		.byte	0x5
 7695 15e7 0F01     		.2byte	0x10f
 7696 15e9 11       		.byte	0x11
 7697 15ea 62140000 		.4byte	0x1462
 7698 15ee 60       		.byte	0x60
 7699 15ef 00       		.byte	0
 7700 15f0 06       		.uleb128 0x6
 7701 15f1 04       		.byte	0x4
 7702 15f2 95140000 		.4byte	0x1495
 7703 15f6 0D       		.uleb128 0xd
 7704 15f7 04       		.byte	0x4
 7705 15f8 15       		.byte	0x15
 7706 15f9 38       		.byte	0x38
 7707 15fa 09       		.byte	0x9
 7708 15fb 0D160000 		.4byte	0x160d
 7709 15ff 0E       		.uleb128 0xe
 7710 1600 061B0000 		.4byte	.LASF266
 7711 1604 15       		.byte	0x15
 7712 1605 3C       		.byte	0x3c
 7713 1606 19       		.byte	0x19
 7714 1607 AF090000 		.4byte	0x9af
 7715 160b 00       		.byte	0
 7716 160c 00       		.byte	0
 7717 160d 04       		.uleb128 0x4
 7718 160e 98040000 		.4byte	.LASF267
 7719 1612 15       		.byte	0x15
 7720 1613 3D       		.byte	0x3d
 7721 1614 03       		.byte	0x3
 7722 1615 F6150000 		.4byte	0x15f6
 7723 1619 09       		.uleb128 0x9
 7724 161a 04       		.byte	0x4
 7725 161b 10       		.byte	0x10
 7726 161c FA       		.byte	0xfa
 7727 161d 03       		.byte	0x3
 7728 161e 7E160000 		.4byte	0x167e
 7729 1622 1E       		.uleb128 0x1e
 7730 1623 180D0000 		.4byte	.LASF268
 7731 1627 10       		.byte	0x10
 7732 1628 0101     		.2byte	0x101
 7733 162a 19       		.byte	0x19
 7734 162b F7090000 		.4byte	0x9f7
 7735 162f 1E       		.uleb128 0x1e
 7736 1630 600B0000 		.4byte	.LASF269
 7737 1634 10       		.byte	0x10
 7738 1635 0801     		.2byte	0x108
 7739 1637 19       		.byte	0x19
 7740 1638 F7090000 		.4byte	0x9f7
ARM GAS  C:\Users\USER\AppData\Local\Temp\ccRejSya.s 			page 137


 7741 163c 1E       		.uleb128 0x1e
 7742 163d 8C180000 		.4byte	.LASF270
 7743 1641 10       		.byte	0x10
 7744 1642 0F01     		.2byte	0x10f
 7745 1644 1A       		.byte	0x1a
 7746 1645 62010000 		.4byte	0x162
 7747 1649 1E       		.uleb128 0x1e
 7748 164a F5140000 		.4byte	.LASF271
 7749 164e 10       		.byte	0x10
 7750 164f 1601     		.2byte	0x116
 7751 1651 1A       		.byte	0x1a
 7752 1652 7E160000 		.4byte	0x167e
 7753 1656 1E       		.uleb128 0x1e
 7754 1657 B2000000 		.4byte	.LASF272
 7755 165b 10       		.byte	0x10
 7756 165c 1E01     		.2byte	0x11e
 7757 165e 1A       		.byte	0x1a
 7758 165f AC160000 		.4byte	0x16ac
 7759 1663 1E       		.uleb128 0x1e
 7760 1664 B5180000 		.4byte	.LASF273
 7761 1668 10       		.byte	0x10
 7762 1669 2701     		.2byte	0x127
 7763 166b 1A       		.byte	0x1a
 7764 166c E7160000 		.4byte	0x16e7
 7765 1670 1E       		.uleb128 0x1e
 7766 1671 C01B0000 		.4byte	.LASF274
 7767 1675 10       		.byte	0x10
 7768 1676 2F01     		.2byte	0x12f
 7769 1678 19       		.byte	0x19
 7770 1679 030A0000 		.4byte	0xa03
 7771 167d 00       		.byte	0
 7772 167e 06       		.uleb128 0x6
 7773 167f 04       		.byte	0x4
 7774 1680 5E0B0000 		.4byte	0xb5e
 7775 1684 11       		.uleb128 0x11
 7776 1685 CC120000 		.4byte	.LASF275
 7777 1689 0C       		.byte	0xc
 7778 168a 16       		.byte	0x16
 7779 168b 34       		.byte	0x34
 7780 168c 10       		.byte	0x10
 7781 168d AC160000 		.4byte	0x16ac
 7782 1691 0E       		.uleb128 0xe
 7783 1692 431D0000 		.4byte	.LASF276
 7784 1696 16       		.byte	0x16
 7785 1697 35       		.byte	0x35
 7786 1698 19       		.byte	0x19
 7787 1699 970B0000 		.4byte	0xb97
 7788 169d 00       		.byte	0
 7789 169e 0E       		.uleb128 0xe
 7790 169f BA070000 		.4byte	.LASF277
 7791 16a3 16       		.byte	0x16
 7792 16a4 37       		.byte	0x37
 7793 16a5 19       		.byte	0x19
 7794 16a6 1B0A0000 		.4byte	0xa1b
 7795 16aa 08       		.byte	0x8
 7796 16ab 00       		.byte	0
 7797 16ac 06       		.uleb128 0x6
ARM GAS  C:\Users\USER\AppData\Local\Temp\ccRejSya.s 			page 138


 7798 16ad 04       		.byte	0x4
 7799 16ae 84160000 		.4byte	0x1684
 7800 16b2 11       		.uleb128 0x11
 7801 16b3 89090000 		.4byte	.LASF278
 7802 16b7 10       		.byte	0x10
 7803 16b8 17       		.byte	0x17
 7804 16b9 39       		.byte	0x39
 7805 16ba 08       		.byte	0x8
 7806 16bb E7160000 		.4byte	0x16e7
 7807 16bf 0E       		.uleb128 0xe
 7808 16c0 690F0000 		.4byte	.LASF279
 7809 16c4 17       		.byte	0x17
 7810 16c5 3A       		.byte	0x3a
 7811 16c6 19       		.byte	0x19
 7812 16c7 970B0000 		.4byte	0xb97
 7813 16cb 00       		.byte	0
 7814 16cc 0E       		.uleb128 0xe
 7815 16cd F1110000 		.4byte	.LASF280
 7816 16d1 17       		.byte	0x17
 7817 16d2 3C       		.byte	0x3c
 7818 16d3 1A       		.byte	0x1a
 7819 16d4 6A0B0000 		.4byte	0xb6a
 7820 16d8 08       		.byte	0x8
 7821 16d9 0E       		.uleb128 0xe
 7822 16da 47010000 		.4byte	.LASF281
 7823 16de 17       		.byte	0x17
 7824 16df 3E       		.byte	0x3e
 7825 16e0 1A       		.byte	0x1a
 7826 16e1 3C180000 		.4byte	0x183c
 7827 16e5 0C       		.byte	0xc
 7828 16e6 00       		.byte	0
 7829 16e7 06       		.uleb128 0x6
 7830 16e8 04       		.byte	0x4
 7831 16e9 B2160000 		.4byte	0x16b2
 7832 16ed 06       		.uleb128 0x6
 7833 16ee 04       		.byte	0x4
 7834 16ef 570C0000 		.4byte	0xc57
 7835 16f3 0B       		.uleb128 0xb
 7836 16f4 6E140000 		.4byte	0x146e
 7837 16f8 03170000 		.4byte	0x1703
 7838 16fc 0C       		.uleb128 0xc
 7839 16fd 25000000 		.4byte	0x25
 7840 1701 3A       		.byte	0x3a
 7841 1702 00       		.byte	0
 7842 1703 25       		.uleb128 0x25
 7843 1704 636800   		.ascii	"ch\000"
 7844 1707 10       		.byte	0x10
 7845 1708 0902     		.2byte	0x209
 7846 170a 14       		.byte	0x14
 7847 170b 340D0000 		.4byte	0xd34
 7848 170f 0D       		.uleb128 0xd
 7849 1710 16       		.byte	0x16
 7850 1711 02       		.byte	0x2
 7851 1712 34       		.byte	0x34
 7852 1713 09       		.byte	0x9
 7853 1714 03180000 		.4byte	0x1803
 7854 1718 0E       		.uleb128 0xe
ARM GAS  C:\Users\USER\AppData\Local\Temp\ccRejSya.s 			page 139


 7855 1719 531D0000 		.4byte	.LASF282
 7856 171d 02       		.byte	0x2
 7857 171e 35       		.byte	0x35
 7858 171f 0D       		.byte	0xd
 7859 1720 03180000 		.4byte	0x1803
 7860 1724 00       		.byte	0
 7861 1725 0E       		.uleb128 0xe
 7862 1726 EF1E0000 		.4byte	.LASF283
 7863 172a 02       		.byte	0x2
 7864 172b 36       		.byte	0x36
 7865 172c 0D       		.byte	0xd
 7866 172d 5F090000 		.4byte	0x95f
 7867 1731 04       		.byte	0x4
 7868 1732 0E       		.uleb128 0xe
 7869 1733 6C020000 		.4byte	.LASF284
 7870 1737 02       		.byte	0x2
 7871 1738 37       		.byte	0x37
 7872 1739 0D       		.byte	0xd
 7873 173a 5F090000 		.4byte	0x95f
 7874 173e 05       		.byte	0x5
 7875 173f 0E       		.uleb128 0xe
 7876 1740 38120000 		.4byte	.LASF285
 7877 1744 02       		.byte	0x2
 7878 1745 38       		.byte	0x38
 7879 1746 0D       		.byte	0xd
 7880 1747 70090000 		.4byte	0x970
 7881 174b 06       		.byte	0x6
 7882 174c 0E       		.uleb128 0xe
 7883 174d 15000000 		.4byte	.LASF286
 7884 1751 02       		.byte	0x2
 7885 1752 39       		.byte	0x39
 7886 1753 0D       		.byte	0xd
 7887 1754 5F090000 		.4byte	0x95f
 7888 1758 08       		.byte	0x8
 7889 1759 0E       		.uleb128 0xe
 7890 175a BB100000 		.4byte	.LASF287
 7891 175e 02       		.byte	0x2
 7892 175f 3A       		.byte	0x3a
 7893 1760 0D       		.byte	0xd
 7894 1761 5F090000 		.4byte	0x95f
 7895 1765 09       		.byte	0x9
 7896 1766 0E       		.uleb128 0xe
 7897 1767 091F0000 		.4byte	.LASF288
 7898 176b 02       		.byte	0x2
 7899 176c 3B       		.byte	0x3b
 7900 176d 0D       		.byte	0xd
 7901 176e 5F090000 		.4byte	0x95f
 7902 1772 0A       		.byte	0xa
 7903 1773 0E       		.uleb128 0xe
 7904 1774 911D0000 		.4byte	.LASF289
 7905 1778 02       		.byte	0x2
 7906 1779 3C       		.byte	0x3c
 7907 177a 0D       		.byte	0xd
 7908 177b 5F090000 		.4byte	0x95f
 7909 177f 0B       		.byte	0xb
 7910 1780 0E       		.uleb128 0xe
 7911 1781 D01C0000 		.4byte	.LASF290
ARM GAS  C:\Users\USER\AppData\Local\Temp\ccRejSya.s 			page 140


 7912 1785 02       		.byte	0x2
 7913 1786 3D       		.byte	0x3d
 7914 1787 0D       		.byte	0xd
 7915 1788 5F090000 		.4byte	0x95f
 7916 178c 0C       		.byte	0xc
 7917 178d 0E       		.uleb128 0xe
 7918 178e C9090000 		.4byte	.LASF291
 7919 1792 02       		.byte	0x2
 7920 1793 3E       		.byte	0x3e
 7921 1794 0D       		.byte	0xd
 7922 1795 5F090000 		.4byte	0x95f
 7923 1799 0D       		.byte	0xd
 7924 179a 0E       		.uleb128 0xe
 7925 179b D4040000 		.4byte	.LASF292
 7926 179f 02       		.byte	0x2
 7927 17a0 3F       		.byte	0x3f
 7928 17a1 0D       		.byte	0xd
 7929 17a2 5F090000 		.4byte	0x95f
 7930 17a6 0E       		.byte	0xe
 7931 17a7 0E       		.uleb128 0xe
 7932 17a8 1B0B0000 		.4byte	.LASF293
 7933 17ac 02       		.byte	0x2
 7934 17ad 40       		.byte	0x40
 7935 17ae 0D       		.byte	0xd
 7936 17af 5F090000 		.4byte	0x95f
 7937 17b3 0F       		.byte	0xf
 7938 17b4 0E       		.uleb128 0xe
 7939 17b5 9E0C0000 		.4byte	.LASF294
 7940 17b9 02       		.byte	0x2
 7941 17ba 41       		.byte	0x41
 7942 17bb 0D       		.byte	0xd
 7943 17bc 5F090000 		.4byte	0x95f
 7944 17c0 10       		.byte	0x10
 7945 17c1 0E       		.uleb128 0xe
 7946 17c2 E4110000 		.4byte	.LASF295
 7947 17c6 02       		.byte	0x2
 7948 17c7 43       		.byte	0x43
 7949 17c8 0D       		.byte	0xd
 7950 17c9 5F090000 		.4byte	0x95f
 7951 17cd 11       		.byte	0x11
 7952 17ce 0E       		.uleb128 0xe
 7953 17cf 2A020000 		.4byte	.LASF296
 7954 17d3 02       		.byte	0x2
 7955 17d4 44       		.byte	0x44
 7956 17d5 0D       		.byte	0xd
 7957 17d6 5F090000 		.4byte	0x95f
 7958 17da 12       		.byte	0x12
 7959 17db 0E       		.uleb128 0xe
 7960 17dc D8110000 		.4byte	.LASF297
 7961 17e0 02       		.byte	0x2
 7962 17e1 45       		.byte	0x45
 7963 17e2 0D       		.byte	0xd
 7964 17e3 5F090000 		.4byte	0x95f
 7965 17e7 13       		.byte	0x13
 7966 17e8 0E       		.uleb128 0xe
 7967 17e9 EC170000 		.4byte	.LASF298
 7968 17ed 02       		.byte	0x2
ARM GAS  C:\Users\USER\AppData\Local\Temp\ccRejSya.s 			page 141


 7969 17ee 46       		.byte	0x46
 7970 17ef 0D       		.byte	0xd
 7971 17f0 5F090000 		.4byte	0x95f
 7972 17f4 14       		.byte	0x14
 7973 17f5 0E       		.uleb128 0xe
 7974 17f6 90000000 		.4byte	.LASF299
 7975 17fa 02       		.byte	0x2
 7976 17fb 48       		.byte	0x48
 7977 17fc 0D       		.byte	0xd
 7978 17fd 5F090000 		.4byte	0x95f
 7979 1801 15       		.byte	0x15
 7980 1802 00       		.byte	0
 7981 1803 0B       		.uleb128 0xb
 7982 1804 6A010000 		.4byte	0x16a
 7983 1808 13180000 		.4byte	0x1813
 7984 180c 0C       		.uleb128 0xc
 7985 180d 25000000 		.4byte	0x25
 7986 1811 03       		.byte	0x3
 7987 1812 00       		.byte	0
 7988 1813 04       		.uleb128 0x4
 7989 1814 00100000 		.4byte	.LASF300
 7990 1818 02       		.byte	0x2
 7991 1819 49       		.byte	0x49
 7992 181a 03       		.byte	0x3
 7993 181b 0F170000 		.4byte	0x170f
 7994 181f 10       		.uleb128 0x10
 7995 1820 13180000 		.4byte	0x1813
 7996 1824 22       		.uleb128 0x22
 7997 1825 FE080000 		.4byte	.LASF301
 7998 1829 02       		.byte	0x2
 7999 182a 6E       		.byte	0x6e
 8000 182b 1D       		.byte	0x1d
 8001 182c 1F180000 		.4byte	0x181f
 8002 1830 04       		.uleb128 0x4
 8003 1831 C5190000 		.4byte	.LASF302
 8004 1835 17       		.byte	0x17
 8005 1836 34       		.byte	0x34
 8006 1837 19       		.byte	0x19
 8007 1838 B2160000 		.4byte	0x16b2
 8008 183c 06       		.uleb128 0x6
 8009 183d 04       		.byte	0x4
 8010 183e 30180000 		.4byte	0x1830
 8011 1842 04       		.uleb128 0x4
 8012 1843 2D090000 		.4byte	.LASF303
 8013 1847 18       		.byte	0x18
 8014 1848 34       		.byte	0x34
 8015 1849 1F       		.byte	0x1f
 8016 184a 4E180000 		.4byte	0x184e
 8017 184e 11       		.uleb128 0x11
 8018 184f A3070000 		.4byte	.LASF304
 8019 1853 14       		.byte	0x14
 8020 1854 18       		.byte	0x18
 8021 1855 39       		.byte	0x39
 8022 1856 08       		.byte	0x8
 8023 1857 9D180000 		.4byte	0x189d
 8024 185b 0E       		.uleb128 0xe
 8025 185c BD010000 		.4byte	.LASF305
ARM GAS  C:\Users\USER\AppData\Local\Temp\ccRejSya.s 			page 142


 8026 1860 18       		.byte	0x18
 8027 1861 3A       		.byte	0x3a
 8028 1862 1A       		.byte	0x1a
 8029 1863 9D180000 		.4byte	0x189d
 8030 1867 00       		.byte	0
 8031 1868 0E       		.uleb128 0xe
 8032 1869 9A1A0000 		.4byte	.LASF306
 8033 186d 18       		.byte	0x18
 8034 186e 3D       		.byte	0x3d
 8035 186f 1A       		.byte	0x1a
 8036 1870 6A0B0000 		.4byte	0xb6a
 8037 1874 04       		.byte	0x4
 8038 1875 0E       		.uleb128 0xe
 8039 1876 C1020000 		.4byte	.LASF307
 8040 187a 18       		.byte	0x18
 8041 187b 3F       		.byte	0x3f
 8042 187c 19       		.byte	0x19
 8043 187d 030A0000 		.4byte	0xa03
 8044 1881 08       		.byte	0x8
 8045 1882 0E       		.uleb128 0xe
 8046 1883 C71B0000 		.4byte	.LASF308
 8047 1887 18       		.byte	0x18
 8048 1888 41       		.byte	0x41
 8049 1889 19       		.byte	0x19
 8050 188a 0F0A0000 		.4byte	0xa0f
 8051 188e 0C       		.byte	0xc
 8052 188f 0E       		.uleb128 0xe
 8053 1890 4C0B0000 		.4byte	.LASF309
 8054 1894 18       		.byte	0x18
 8055 1895 43       		.byte	0x43
 8056 1896 19       		.byte	0x19
 8057 1897 0F0A0000 		.4byte	0xa0f
 8058 189b 10       		.byte	0x10
 8059 189c 00       		.byte	0
 8060 189d 06       		.uleb128 0x6
 8061 189e 04       		.byte	0x4
 8062 189f 42180000 		.4byte	0x1842
 8063 18a3 11       		.uleb128 0x11
 8064 18a4 D01B0000 		.4byte	.LASF310
 8065 18a8 04       		.byte	0x4
 8066 18a9 18       		.byte	0x18
 8067 18aa 4A       		.byte	0x4a
 8068 18ab 10       		.byte	0x10
 8069 18ac BE180000 		.4byte	0x18be
 8070 18b0 0E       		.uleb128 0xe
 8071 18b1 371B0000 		.4byte	.LASF311
 8072 18b5 18       		.byte	0x18
 8073 18b6 4B       		.byte	0x4b
 8074 18b7 1A       		.byte	0x1a
 8075 18b8 9D180000 		.4byte	0x189d
 8076 18bc 00       		.byte	0
 8077 18bd 00       		.byte	0
 8078 18be 04       		.uleb128 0x4
 8079 18bf E2100000 		.4byte	.LASF312
 8080 18c3 18       		.byte	0x18
 8081 18c4 4E       		.byte	0x4e
 8082 18c5 03       		.byte	0x3
ARM GAS  C:\Users\USER\AppData\Local\Temp\ccRejSya.s 			page 143


 8083 18c6 A3180000 		.4byte	0x18a3
 8084 18ca 04       		.uleb128 0x4
 8085 18cb A90B0000 		.4byte	.LASF313
 8086 18cf 19       		.byte	0x19
 8087 18d0 3F       		.byte	0x3f
 8088 18d1 19       		.byte	0x19
 8089 18d2 D6180000 		.4byte	0x18d6
 8090 18d6 11       		.uleb128 0x11
 8091 18d7 8F0D0000 		.4byte	.LASF314
 8092 18db 24       		.byte	0x24
 8093 18dc 19       		.byte	0x19
 8094 18dd 4D       		.byte	0x4d
 8095 18de 08       		.byte	0x8
 8096 18df 4C190000 		.4byte	0x194c
 8097 18e3 0E       		.uleb128 0xe
 8098 18e4 63040000 		.4byte	.LASF315
 8099 18e8 19       		.byte	0x19
 8100 18e9 4E       		.byte	0x4e
 8101 18ea 19       		.byte	0x19
 8102 18eb 970B0000 		.4byte	0xb97
 8103 18ef 00       		.byte	0
 8104 18f0 0E       		.uleb128 0xe
 8105 18f1 AA140000 		.4byte	.LASF316
 8106 18f5 19       		.byte	0x19
 8107 18f6 4F       		.byte	0x4f
 8108 18f7 19       		.byte	0x19
 8109 18f8 3F000000 		.4byte	0x3f
 8110 18fc 08       		.byte	0x8
 8111 18fd 0E       		.uleb128 0xe
 8112 18fe 380E0000 		.4byte	.LASF317
 8113 1902 19       		.byte	0x19
 8114 1903 50       		.byte	0x50
 8115 1904 1A       		.byte	0x1a
 8116 1905 6F190000 		.4byte	0x196f
 8117 1909 0C       		.byte	0xc
 8118 190a 0E       		.uleb128 0xe
 8119 190b C7030000 		.4byte	.LASF318
 8120 190f 19       		.byte	0x19
 8121 1910 51       		.byte	0x51
 8122 1911 1A       		.byte	0x1a
 8123 1912 6F190000 		.4byte	0x196f
 8124 1916 10       		.byte	0x10
 8125 1917 0E       		.uleb128 0xe
 8126 1918 F8150000 		.4byte	.LASF319
 8127 191c 19       		.byte	0x19
 8128 191d 53       		.byte	0x53
 8129 191e 1A       		.byte	0x1a
 8130 191f 6F190000 		.4byte	0x196f
 8131 1923 14       		.byte	0x14
 8132 1924 0E       		.uleb128 0xe
 8133 1925 FB140000 		.4byte	.LASF320
 8134 1929 19       		.byte	0x19
 8135 192a 54       		.byte	0x54
 8136 192b 1A       		.byte	0x1a
 8137 192c 6F190000 		.4byte	0x196f
 8138 1930 18       		.byte	0x18
 8139 1931 0E       		.uleb128 0xe
ARM GAS  C:\Users\USER\AppData\Local\Temp\ccRejSya.s 			page 144


 8140 1932 AC180000 		.4byte	.LASF321
 8141 1936 19       		.byte	0x19
 8142 1937 55       		.byte	0x55
 8143 1938 19       		.byte	0x19
 8144 1939 4C190000 		.4byte	0x194c
 8145 193d 1C       		.byte	0x1c
 8146 193e 0E       		.uleb128 0xe
 8147 193f 98160000 		.4byte	.LASF322
 8148 1943 19       		.byte	0x19
 8149 1944 56       		.byte	0x56
 8150 1945 1A       		.byte	0x1a
 8151 1946 62010000 		.4byte	0x162
 8152 194a 20       		.byte	0x20
 8153 194b 00       		.byte	0
 8154 194c 04       		.uleb128 0x4
 8155 194d 92030000 		.4byte	.LASF323
 8156 1951 19       		.byte	0x19
 8157 1952 42       		.byte	0x42
 8158 1953 10       		.byte	0x10
 8159 1954 58190000 		.4byte	0x1958
 8160 1958 06       		.uleb128 0x6
 8161 1959 04       		.byte	0x4
 8162 195a 5E190000 		.4byte	0x195e
 8163 195e 1F       		.uleb128 0x1f
 8164 195f 69190000 		.4byte	0x1969
 8165 1963 17       		.uleb128 0x17
 8166 1964 69190000 		.4byte	0x1969
 8167 1968 00       		.byte	0
 8168 1969 06       		.uleb128 0x6
 8169 196a 04       		.byte	0x4
 8170 196b CA180000 		.4byte	0x18ca
 8171 196f 06       		.uleb128 0x6
 8172 1970 04       		.byte	0x4
 8173 1971 5F090000 		.4byte	0x95f
 8174 1975 04       		.uleb128 0x4
 8175 1976 A9040000 		.4byte	.LASF324
 8176 197a 19       		.byte	0x19
 8177 197b 64       		.byte	0x64
 8178 197c 14       		.byte	0x14
 8179 197d CA180000 		.4byte	0x18ca
 8180 1981 04       		.uleb128 0x4
 8181 1982 C91F0000 		.4byte	.LASF325
 8182 1986 19       		.byte	0x19
 8183 1987 71       		.byte	0x71
 8184 1988 14       		.byte	0x14
 8185 1989 CA180000 		.4byte	0x18ca
 8186 198d 16       		.uleb128 0x16
 8187 198e 33000000 		.4byte	0x33
 8188 1992 A6190000 		.4byte	0x19a6
 8189 1996 17       		.uleb128 0x17
 8190 1997 62010000 		.4byte	0x162
 8191 199b 17       		.uleb128 0x17
 8192 199c A6190000 		.4byte	0x19a6
 8193 19a0 17       		.uleb128 0x17
 8194 19a1 33000000 		.4byte	0x33
 8195 19a5 00       		.byte	0
 8196 19a6 06       		.uleb128 0x6
ARM GAS  C:\Users\USER\AppData\Local\Temp\ccRejSya.s 			page 145


 8197 19a7 04       		.byte	0x4
 8198 19a8 6B090000 		.4byte	0x96b
 8199 19ac 06       		.uleb128 0x6
 8200 19ad 04       		.byte	0x4
 8201 19ae 8D190000 		.4byte	0x198d
 8202 19b2 16       		.uleb128 0x16
 8203 19b3 33000000 		.4byte	0x33
 8204 19b7 CB190000 		.4byte	0x19cb
 8205 19bb 17       		.uleb128 0x17
 8206 19bc 62010000 		.4byte	0x162
 8207 19c0 17       		.uleb128 0x17
 8208 19c1 6F190000 		.4byte	0x196f
 8209 19c5 17       		.uleb128 0x17
 8210 19c6 33000000 		.4byte	0x33
 8211 19ca 00       		.byte	0
 8212 19cb 06       		.uleb128 0x6
 8213 19cc 04       		.byte	0x4
 8214 19cd B2190000 		.4byte	0x19b2
 8215 19d1 16       		.uleb128 0x16
 8216 19d2 F7090000 		.4byte	0x9f7
 8217 19d6 E5190000 		.4byte	0x19e5
 8218 19da 17       		.uleb128 0x17
 8219 19db 62010000 		.4byte	0x162
 8220 19df 17       		.uleb128 0x17
 8221 19e0 5F090000 		.4byte	0x95f
 8222 19e4 00       		.byte	0
 8223 19e5 06       		.uleb128 0x6
 8224 19e6 04       		.byte	0x4
 8225 19e7 D1190000 		.4byte	0x19d1
 8226 19eb 16       		.uleb128 0x16
 8227 19ec F7090000 		.4byte	0x9f7
 8228 19f0 FA190000 		.4byte	0x19fa
 8229 19f4 17       		.uleb128 0x17
 8230 19f5 62010000 		.4byte	0x162
 8231 19f9 00       		.byte	0
 8232 19fa 06       		.uleb128 0x6
 8233 19fb 04       		.byte	0x4
 8234 19fc EB190000 		.4byte	0x19eb
 8235 1a00 0D       		.uleb128 0xd
 8236 1a01 0C       		.byte	0xc
 8237 1a02 1A       		.byte	0x1a
 8238 1a03 DA       		.byte	0xda
 8239 1a04 09       		.byte	0x9
 8240 1a05 4B1A0000 		.4byte	0x1a4b
 8241 1a09 0E       		.uleb128 0xe
 8242 1a0a 621F0000 		.4byte	.LASF326
 8243 1a0e 1A       		.byte	0x1a
 8244 1a0f DB       		.byte	0xdb
 8245 1a10 1A       		.byte	0x1a
 8246 1a11 4B1A0000 		.4byte	0x1a4b
 8247 1a15 00       		.byte	0
 8248 1a16 0E       		.uleb128 0xe
 8249 1a17 F00C0000 		.4byte	.LASF327
 8250 1a1b 1A       		.byte	0x1a
 8251 1a1c DC       		.byte	0xdc
 8252 1a1d 1A       		.byte	0x1a
 8253 1a1e 511A0000 		.4byte	0x1a51
ARM GAS  C:\Users\USER\AppData\Local\Temp\ccRejSya.s 			page 146


 8254 1a22 04       		.byte	0x4
 8255 1a23 0E       		.uleb128 0xe
 8256 1a24 A5030000 		.4byte	.LASF328
 8257 1a28 1A       		.byte	0x1a
 8258 1a29 DD       		.byte	0xdd
 8259 1a2a 19       		.byte	0x19
 8260 1a2b 5F090000 		.4byte	0x95f
 8261 1a2f 08       		.byte	0x8
 8262 1a30 0E       		.uleb128 0xe
 8263 1a31 BB190000 		.4byte	.LASF329
 8264 1a35 1A       		.byte	0x1a
 8265 1a36 DF       		.byte	0xdf
 8266 1a37 19       		.byte	0x19
 8267 1a38 5F090000 		.4byte	0x95f
 8268 1a3c 09       		.byte	0x9
 8269 1a3d 0E       		.uleb128 0xe
 8270 1a3e EE020000 		.4byte	.LASF330
 8271 1a42 1A       		.byte	0x1a
 8272 1a43 E0       		.byte	0xe0
 8273 1a44 19       		.byte	0x19
 8274 1a45 5F090000 		.4byte	0x95f
 8275 1a49 0A       		.byte	0xa
 8276 1a4a 00       		.byte	0
 8277 1a4b 06       		.uleb128 0x6
 8278 1a4c 04       		.byte	0x4
 8279 1a4d AC100000 		.4byte	0x10ac
 8280 1a51 06       		.uleb128 0x6
 8281 1a52 04       		.byte	0x4
 8282 1a53 9E090000 		.4byte	0x99e
 8283 1a57 04       		.uleb128 0x4
 8284 1a58 1E0F0000 		.4byte	.LASF331
 8285 1a5c 1A       		.byte	0x1a
 8286 1a5d E1       		.byte	0xe1
 8287 1a5e 03       		.byte	0x3
 8288 1a5f 001A0000 		.4byte	0x1a00
 8289 1a63 10       		.uleb128 0x10
 8290 1a64 571A0000 		.4byte	0x1a57
 8291 1a68 0B       		.uleb128 0xb
 8292 1a69 631A0000 		.4byte	0x1a63
 8293 1a6d 781A0000 		.4byte	0x1a78
 8294 1a71 0C       		.uleb128 0xc
 8295 1a72 25000000 		.4byte	0x25
 8296 1a76 0F       		.byte	0xf
 8297 1a77 00       		.byte	0
 8298 1a78 10       		.uleb128 0x10
 8299 1a79 681A0000 		.4byte	0x1a68
 8300 1a7d 20       		.uleb128 0x20
 8301 1a7e 47170000 		.4byte	.LASF332
 8302 1a82 1A       		.byte	0x1a
 8303 1a83 BB01     		.2byte	0x1bb
 8304 1a85 21       		.byte	0x21
 8305 1a86 781A0000 		.4byte	0x1a78
 8306 1a8a 16       		.uleb128 0x16
 8307 1a8b F7090000 		.4byte	0x9f7
 8308 1a8f A31A0000 		.4byte	0x1aa3
 8309 1a93 17       		.uleb128 0x17
 8310 1a94 62010000 		.4byte	0x162
ARM GAS  C:\Users\USER\AppData\Local\Temp\ccRejSya.s 			page 147


 8311 1a98 17       		.uleb128 0x17
 8312 1a99 5F090000 		.4byte	0x95f
 8313 1a9d 17       		.uleb128 0x17
 8314 1a9e 270A0000 		.4byte	0xa27
 8315 1aa2 00       		.byte	0
 8316 1aa3 06       		.uleb128 0x6
 8317 1aa4 04       		.byte	0x4
 8318 1aa5 8A1A0000 		.4byte	0x1a8a
 8319 1aa9 16       		.uleb128 0x16
 8320 1aaa F7090000 		.4byte	0x9f7
 8321 1aae BD1A0000 		.4byte	0x1abd
 8322 1ab2 17       		.uleb128 0x17
 8323 1ab3 62010000 		.4byte	0x162
 8324 1ab7 17       		.uleb128 0x17
 8325 1ab8 270A0000 		.4byte	0xa27
 8326 1abc 00       		.byte	0
 8327 1abd 06       		.uleb128 0x6
 8328 1abe 04       		.byte	0x4
 8329 1abf A91A0000 		.4byte	0x1aa9
 8330 1ac3 16       		.uleb128 0x16
 8331 1ac4 33000000 		.4byte	0x33
 8332 1ac8 E11A0000 		.4byte	0x1ae1
 8333 1acc 17       		.uleb128 0x17
 8334 1acd 62010000 		.4byte	0x162
 8335 1ad1 17       		.uleb128 0x17
 8336 1ad2 A6190000 		.4byte	0x19a6
 8337 1ad6 17       		.uleb128 0x17
 8338 1ad7 33000000 		.4byte	0x33
 8339 1adb 17       		.uleb128 0x17
 8340 1adc 270A0000 		.4byte	0xa27
 8341 1ae0 00       		.byte	0
 8342 1ae1 06       		.uleb128 0x6
 8343 1ae2 04       		.byte	0x4
 8344 1ae3 C31A0000 		.4byte	0x1ac3
 8345 1ae7 16       		.uleb128 0x16
 8346 1ae8 33000000 		.4byte	0x33
 8347 1aec 051B0000 		.4byte	0x1b05
 8348 1af0 17       		.uleb128 0x17
 8349 1af1 62010000 		.4byte	0x162
 8350 1af5 17       		.uleb128 0x17
 8351 1af6 6F190000 		.4byte	0x196f
 8352 1afa 17       		.uleb128 0x17
 8353 1afb 33000000 		.4byte	0x33
 8354 1aff 17       		.uleb128 0x17
 8355 1b00 270A0000 		.4byte	0xa27
 8356 1b04 00       		.byte	0
 8357 1b05 06       		.uleb128 0x6
 8358 1b06 04       		.byte	0x4
 8359 1b07 E71A0000 		.4byte	0x1ae7
 8360 1b0b 02       		.uleb128 0x2
 8361 1b0c 01       		.byte	0x1
 8362 1b0d 02       		.byte	0x2
 8363 1b0e B9000000 		.4byte	.LASF333
 8364 1b12 0D       		.uleb128 0xd
 8365 1b13 04       		.byte	0x4
 8366 1b14 1B       		.byte	0x1b
 8367 1b15 B3       		.byte	0xb3
ARM GAS  C:\Users\USER\AppData\Local\Temp\ccRejSya.s 			page 148


 8368 1b16 05       		.byte	0x5
 8369 1b17 361B0000 		.4byte	0x1b36
 8370 1b1b 12       		.uleb128 0x12
 8371 1b1c 73657400 		.ascii	"set\000"
 8372 1b20 1B       		.byte	0x1b
 8373 1b21 B4       		.byte	0xb4
 8374 1b22 19       		.byte	0x19
 8375 1b23 70090000 		.4byte	0x970
 8376 1b27 00       		.byte	0
 8377 1b28 0E       		.uleb128 0xe
 8378 1b29 7D0A0000 		.4byte	.LASF334
 8379 1b2d 1B       		.byte	0x1b
 8380 1b2e B5       		.byte	0xb5
 8381 1b2f 19       		.byte	0x19
 8382 1b30 70090000 		.4byte	0x970
 8383 1b34 02       		.byte	0x2
 8384 1b35 00       		.byte	0
 8385 1b36 09       		.uleb128 0x9
 8386 1b37 04       		.byte	0x4
 8387 1b38 1B       		.byte	0x1b
 8388 1b39 B1       		.byte	0xb1
 8389 1b3a 0C       		.byte	0xc
 8390 1b3b 541B0000 		.4byte	0x1b54
 8391 1b3f 26       		.uleb128 0x26
 8392 1b40 5700     		.ascii	"W\000"
 8393 1b42 1B       		.byte	0x1b
 8394 1b43 B2       		.byte	0xb2
 8395 1b44 19       		.byte	0x19
 8396 1b45 92090000 		.4byte	0x992
 8397 1b49 26       		.uleb128 0x26
 8398 1b4a 4800     		.ascii	"H\000"
 8399 1b4c 1B       		.byte	0x1b
 8400 1b4d B6       		.byte	0xb6
 8401 1b4e 07       		.byte	0x7
 8402 1b4f 121B0000 		.4byte	0x1b12
 8403 1b53 00       		.byte	0
 8404 1b54 05       		.uleb128 0x5
 8405 1b55 361B0000 		.4byte	0x1b36
 8406 1b59 0D       		.uleb128 0xd
 8407 1b5a 2C       		.byte	0x2c
 8408 1b5b 1B       		.byte	0x1b
 8409 1b5c A9       		.byte	0xa9
 8410 1b5d 09       		.byte	0x9
 8411 1b5e F21B0000 		.4byte	0x1bf2
 8412 1b62 0E       		.uleb128 0xe
 8413 1b63 F5190000 		.4byte	.LASF335
 8414 1b67 1B       		.byte	0x1b
 8415 1b68 AB       		.byte	0xab
 8416 1b69 19       		.byte	0x19
 8417 1b6a 9E090000 		.4byte	0x99e
 8418 1b6e 00       		.byte	0
 8419 1b6f 0E       		.uleb128 0xe
 8420 1b70 91020000 		.4byte	.LASF336
 8421 1b74 1B       		.byte	0x1b
 8422 1b75 AC       		.byte	0xac
 8423 1b76 19       		.byte	0x19
 8424 1b77 9E090000 		.4byte	0x99e
ARM GAS  C:\Users\USER\AppData\Local\Temp\ccRejSya.s 			page 149


 8425 1b7b 04       		.byte	0x4
 8426 1b7c 0E       		.uleb128 0xe
 8427 1b7d 0A0C0000 		.4byte	.LASF337
 8428 1b81 1B       		.byte	0x1b
 8429 1b82 AD       		.byte	0xad
 8430 1b83 19       		.byte	0x19
 8431 1b84 9E090000 		.4byte	0x99e
 8432 1b88 08       		.byte	0x8
 8433 1b89 0E       		.uleb128 0xe
 8434 1b8a 39190000 		.4byte	.LASF338
 8435 1b8e 1B       		.byte	0x1b
 8436 1b8f AE       		.byte	0xae
 8437 1b90 19       		.byte	0x19
 8438 1b91 9E090000 		.4byte	0x99e
 8439 1b95 0C       		.byte	0xc
 8440 1b96 12       		.uleb128 0x12
 8441 1b97 49445200 		.ascii	"IDR\000"
 8442 1b9b 1B       		.byte	0x1b
 8443 1b9c AF       		.byte	0xaf
 8444 1b9d 19       		.byte	0x19
 8445 1b9e 9E090000 		.4byte	0x99e
 8446 1ba2 10       		.byte	0x10
 8447 1ba3 12       		.uleb128 0x12
 8448 1ba4 4F445200 		.ascii	"ODR\000"
 8449 1ba8 1B       		.byte	0x1b
 8450 1ba9 B0       		.byte	0xb0
 8451 1baa 19       		.byte	0x19
 8452 1bab 9E090000 		.4byte	0x99e
 8453 1baf 14       		.byte	0x14
 8454 1bb0 0E       		.uleb128 0xe
 8455 1bb1 0E0F0000 		.4byte	.LASF339
 8456 1bb5 1B       		.byte	0x1b
 8457 1bb6 B7       		.byte	0xb7
 8458 1bb7 05       		.byte	0x5
 8459 1bb8 541B0000 		.4byte	0x1b54
 8460 1bbc 18       		.byte	0x18
 8461 1bbd 0E       		.uleb128 0xe
 8462 1bbe 30150000 		.4byte	.LASF340
 8463 1bc2 1B       		.byte	0x1b
 8464 1bc3 B8       		.byte	0xb8
 8465 1bc4 19       		.byte	0x19
 8466 1bc5 9E090000 		.4byte	0x99e
 8467 1bc9 1C       		.byte	0x1c
 8468 1bca 0E       		.uleb128 0xe
 8469 1bcb DB170000 		.4byte	.LASF341
 8470 1bcf 1B       		.byte	0x1b
 8471 1bd0 B9       		.byte	0xb9
 8472 1bd1 19       		.byte	0x19
 8473 1bd2 9E090000 		.4byte	0x99e
 8474 1bd6 20       		.byte	0x20
 8475 1bd7 0E       		.uleb128 0xe
 8476 1bd8 D6170000 		.4byte	.LASF342
 8477 1bdc 1B       		.byte	0x1b
 8478 1bdd BA       		.byte	0xba
 8479 1bde 19       		.byte	0x19
 8480 1bdf 9E090000 		.4byte	0x99e
 8481 1be3 24       		.byte	0x24
ARM GAS  C:\Users\USER\AppData\Local\Temp\ccRejSya.s 			page 150


 8482 1be4 12       		.uleb128 0x12
 8483 1be5 42525200 		.ascii	"BRR\000"
 8484 1be9 1B       		.byte	0x1b
 8485 1bea BB       		.byte	0xbb
 8486 1beb 19       		.byte	0x19
 8487 1bec 9E090000 		.4byte	0x99e
 8488 1bf0 28       		.byte	0x28
 8489 1bf1 00       		.byte	0
 8490 1bf2 04       		.uleb128 0x4
 8491 1bf3 0B0D0000 		.4byte	.LASF343
 8492 1bf7 1B       		.byte	0x1b
 8493 1bf8 BC       		.byte	0xbc
 8494 1bf9 03       		.byte	0x3
 8495 1bfa 591B0000 		.4byte	0x1b59
 8496 1bfe 0D       		.uleb128 0xd
 8497 1bff 1C       		.byte	0x1c
 8498 1c00 1B       		.byte	0x1b
 8499 1c01 C1       		.byte	0xc1
 8500 1c02 09       		.byte	0x9
 8501 1c03 631C0000 		.4byte	0x1c63
 8502 1c07 0E       		.uleb128 0xe
 8503 1c08 331D0000 		.4byte	.LASF344
 8504 1c0c 1B       		.byte	0x1b
 8505 1c0d C3       		.byte	0xc3
 8506 1c0e 19       		.byte	0x19
 8507 1c0f 92090000 		.4byte	0x992
 8508 1c13 00       		.byte	0
 8509 1c14 0E       		.uleb128 0xe
 8510 1c15 7C020000 		.4byte	.LASF345
 8511 1c19 1B       		.byte	0x1b
 8512 1c1a C5       		.byte	0xc5
 8513 1c1b 19       		.byte	0x19
 8514 1c1c 92090000 		.4byte	0x992
 8515 1c20 04       		.byte	0x4
 8516 1c21 0E       		.uleb128 0xe
 8517 1c22 AD010000 		.4byte	.LASF346
 8518 1c26 1B       		.byte	0x1b
 8519 1c27 C7       		.byte	0xc7
 8520 1c28 19       		.byte	0x19
 8521 1c29 92090000 		.4byte	0x992
 8522 1c2d 08       		.byte	0x8
 8523 1c2e 0E       		.uleb128 0xe
 8524 1c2f 371C0000 		.4byte	.LASF347
 8525 1c33 1B       		.byte	0x1b
 8526 1c34 C9       		.byte	0xc9
 8527 1c35 19       		.byte	0x19
 8528 1c36 92090000 		.4byte	0x992
 8529 1c3a 0C       		.byte	0xc
 8530 1c3b 12       		.uleb128 0x12
 8531 1c3c 6F647200 		.ascii	"odr\000"
 8532 1c40 1B       		.byte	0x1b
 8533 1c41 CB       		.byte	0xcb
 8534 1c42 19       		.byte	0x19
 8535 1c43 92090000 		.4byte	0x992
 8536 1c47 10       		.byte	0x10
 8537 1c48 0E       		.uleb128 0xe
 8538 1c49 A7190000 		.4byte	.LASF348
ARM GAS  C:\Users\USER\AppData\Local\Temp\ccRejSya.s 			page 151


 8539 1c4d 1B       		.byte	0x1b
 8540 1c4e CD       		.byte	0xcd
 8541 1c4f 19       		.byte	0x19
 8542 1c50 92090000 		.4byte	0x992
 8543 1c54 14       		.byte	0x14
 8544 1c55 0E       		.uleb128 0xe
 8545 1c56 99190000 		.4byte	.LASF349
 8546 1c5a 1B       		.byte	0x1b
 8547 1c5b CF       		.byte	0xcf
 8548 1c5c 19       		.byte	0x19
 8549 1c5d 92090000 		.4byte	0x992
 8550 1c61 18       		.byte	0x18
 8551 1c62 00       		.byte	0
 8552 1c63 04       		.uleb128 0x4
 8553 1c64 0F170000 		.4byte	.LASF350
 8554 1c68 1B       		.byte	0x1b
 8555 1c69 D0       		.byte	0xd0
 8556 1c6a 03       		.byte	0x3
 8557 1c6b FE1B0000 		.4byte	0x1bfe
 8558 1c6f 0D       		.uleb128 0xd
 8559 1c70 FC       		.byte	0xfc
 8560 1c71 1B       		.byte	0x1b
 8561 1c72 D9       		.byte	0xd9
 8562 1c73 09       		.byte	0x9
 8563 1c74 EE1C0000 		.4byte	0x1cee
 8564 1c78 0E       		.uleb128 0xe
 8565 1c79 980D0000 		.4byte	.LASF351
 8566 1c7d 1B       		.byte	0x1b
 8567 1c7e DC       		.byte	0xdc
 8568 1c7f 19       		.byte	0x19
 8569 1c80 631C0000 		.4byte	0x1c63
 8570 1c84 00       		.byte	0
 8571 1c85 0E       		.uleb128 0xe
 8572 1c86 5B020000 		.4byte	.LASF352
 8573 1c8a 1B       		.byte	0x1b
 8574 1c8b E0       		.byte	0xe0
 8575 1c8c 19       		.byte	0x19
 8576 1c8d 631C0000 		.4byte	0x1c63
 8577 1c91 1C       		.byte	0x1c
 8578 1c92 0E       		.uleb128 0xe
 8579 1c93 4E010000 		.4byte	.LASF353
 8580 1c97 1B       		.byte	0x1b
 8581 1c98 E4       		.byte	0xe4
 8582 1c99 19       		.byte	0x19
 8583 1c9a 631C0000 		.4byte	0x1c63
 8584 1c9e 38       		.byte	0x38
 8585 1c9f 0E       		.uleb128 0xe
 8586 1ca0 690B0000 		.4byte	.LASF354
 8587 1ca4 1B       		.byte	0x1b
 8588 1ca5 E8       		.byte	0xe8
 8589 1ca6 19       		.byte	0x19
 8590 1ca7 631C0000 		.4byte	0x1c63
 8591 1cab 54       		.byte	0x54
 8592 1cac 0E       		.uleb128 0xe
 8593 1cad 62160000 		.4byte	.LASF355
 8594 1cb1 1B       		.byte	0x1b
 8595 1cb2 EC       		.byte	0xec
ARM GAS  C:\Users\USER\AppData\Local\Temp\ccRejSya.s 			page 152


 8596 1cb3 19       		.byte	0x19
 8597 1cb4 631C0000 		.4byte	0x1c63
 8598 1cb8 70       		.byte	0x70
 8599 1cb9 0E       		.uleb128 0xe
 8600 1cba 2D200000 		.4byte	.LASF356
 8601 1cbe 1B       		.byte	0x1b
 8602 1cbf F0       		.byte	0xf0
 8603 1cc0 19       		.byte	0x19
 8604 1cc1 631C0000 		.4byte	0x1c63
 8605 1cc5 8C       		.byte	0x8c
 8606 1cc6 0E       		.uleb128 0xe
 8607 1cc7 AE090000 		.4byte	.LASF357
 8608 1ccb 1B       		.byte	0x1b
 8609 1ccc F4       		.byte	0xf4
 8610 1ccd 19       		.byte	0x19
 8611 1cce 631C0000 		.4byte	0x1c63
 8612 1cd2 A8       		.byte	0xa8
 8613 1cd3 0E       		.uleb128 0xe
 8614 1cd4 B4140000 		.4byte	.LASF358
 8615 1cd8 1B       		.byte	0x1b
 8616 1cd9 F8       		.byte	0xf8
 8617 1cda 19       		.byte	0x19
 8618 1cdb 631C0000 		.4byte	0x1c63
 8619 1cdf C4       		.byte	0xc4
 8620 1ce0 0E       		.uleb128 0xe
 8621 1ce1 6A1E0000 		.4byte	.LASF359
 8622 1ce5 1B       		.byte	0x1b
 8623 1ce6 FC       		.byte	0xfc
 8624 1ce7 19       		.byte	0x19
 8625 1ce8 631C0000 		.4byte	0x1c63
 8626 1cec E0       		.byte	0xe0
 8627 1ced 00       		.byte	0
 8628 1cee 04       		.uleb128 0x4
 8629 1cef 0C090000 		.4byte	.LASF360
 8630 1cf3 1B       		.byte	0x1b
 8631 1cf4 FE       		.byte	0xfe
 8632 1cf5 03       		.byte	0x3
 8633 1cf6 6F1C0000 		.4byte	0x1c6f
 8634 1cfa 10       		.uleb128 0x10
 8635 1cfb EE1C0000 		.4byte	0x1cee
 8636 1cff 08       		.uleb128 0x8
 8637 1d00 BB140000 		.4byte	.LASF361
 8638 1d04 1B       		.byte	0x1b
 8639 1d05 1B01     		.2byte	0x11b
 8640 1d07 18       		.byte	0x18
 8641 1d08 0C1D0000 		.4byte	0x1d0c
 8642 1d0c 06       		.uleb128 0x6
 8643 1d0d 04       		.byte	0x4
 8644 1d0e F21B0000 		.4byte	0x1bf2
 8645 1d12 20       		.uleb128 0x20
 8646 1d13 761A0000 		.4byte	.LASF362
 8647 1d17 1B       		.byte	0x1b
 8648 1d18 DA01     		.2byte	0x1da
 8649 1d1a 18       		.byte	0x18
 8650 1d1b FA1C0000 		.4byte	0x1cfa
 8651 1d1f 27       		.uleb128 0x27
 8652 1d20 07       		.byte	0x7
ARM GAS  C:\Users\USER\AppData\Local\Temp\ccRejSya.s 			page 153


 8653 1d21 01       		.byte	0x1
 8654 1d22 57000000 		.4byte	0x57
 8655 1d26 1C       		.byte	0x1c
 8656 1d27 5F       		.byte	0x5f
 8657 1d28 0E       		.byte	0xe
 8658 1d29 4C1D0000 		.4byte	0x1d4c
 8659 1d2d 28       		.uleb128 0x28
 8660 1d2e F90A0000 		.4byte	.LASF363
 8661 1d32 00       		.byte	0
 8662 1d33 28       		.uleb128 0x28
 8663 1d34 87000000 		.4byte	.LASF364
 8664 1d38 01       		.byte	0x1
 8665 1d39 28       		.uleb128 0x28
 8666 1d3a 26000000 		.4byte	.LASF365
 8667 1d3e 02       		.byte	0x2
 8668 1d3f 28       		.uleb128 0x28
 8669 1d40 AC150000 		.4byte	.LASF366
 8670 1d44 03       		.byte	0x3
 8671 1d45 28       		.uleb128 0x28
 8672 1d46 19080000 		.4byte	.LASF367
 8673 1d4a 04       		.byte	0x4
 8674 1d4b 00       		.byte	0
 8675 1d4c 04       		.uleb128 0x4
 8676 1d4d F7040000 		.4byte	.LASF368
 8677 1d51 1C       		.byte	0x1c
 8678 1d52 65       		.byte	0x65
 8679 1d53 03       		.byte	0x3
 8680 1d54 1F1D0000 		.4byte	0x1d1f
 8681 1d58 0B       		.uleb128 0xb
 8682 1d59 5F090000 		.4byte	0x95f
 8683 1d5d 681D0000 		.4byte	0x1d68
 8684 1d61 0C       		.uleb128 0xc
 8685 1d62 25000000 		.4byte	0x25
 8686 1d66 07       		.byte	0x7
 8687 1d67 00       		.byte	0
 8688 1d68 0D       		.uleb128 0xd
 8689 1d69 08       		.byte	0x8
 8690 1d6a 1D       		.byte	0x1d
 8691 1d6b F4       		.byte	0xf4
 8692 1d6c 09       		.byte	0x9
 8693 1d6d 8D1D0000 		.4byte	0x1d8d
 8694 1d71 12       		.uleb128 0x12
 8695 1d72 6D637200 		.ascii	"mcr\000"
 8696 1d76 1D       		.byte	0x1d
 8697 1d77 FA       		.byte	0xfa
 8698 1d78 1D       		.byte	0x1d
 8699 1d79 92090000 		.4byte	0x992
 8700 1d7d 00       		.byte	0
 8701 1d7e 21       		.uleb128 0x21
 8702 1d7f 62747200 		.ascii	"btr\000"
 8703 1d83 1D       		.byte	0x1d
 8704 1d84 0001     		.2byte	0x100
 8705 1d86 1D       		.byte	0x1d
 8706 1d87 92090000 		.4byte	0x992
 8707 1d8b 04       		.byte	0x4
 8708 1d8c 00       		.byte	0
 8709 1d8d 08       		.uleb128 0x8
ARM GAS  C:\Users\USER\AppData\Local\Temp\ccRejSya.s 			page 154


 8710 1d8e 58160000 		.4byte	.LASF369
 8711 1d92 1D       		.byte	0x1d
 8712 1d93 0101     		.2byte	0x101
 8713 1d95 03       		.byte	0x3
 8714 1d96 681D0000 		.4byte	0x1d68
 8715 1d9a 10       		.uleb128 0x10
 8716 1d9b 8D1D0000 		.4byte	0x1d8d
 8717 1d9f 1C       		.uleb128 0x1c
 8718 1da0 30       		.byte	0x30
 8719 1da1 1D       		.byte	0x1d
 8720 1da2 0601     		.2byte	0x106
 8721 1da4 09       		.byte	0x9
 8722 1da5 361E0000 		.4byte	0x1e36
 8723 1da9 19       		.uleb128 0x19
 8724 1daa 32120000 		.4byte	.LASF370
 8725 1dae 1D       		.byte	0x1d
 8726 1daf 0A01     		.2byte	0x10a
 8727 1db1 1D       		.byte	0x1d
 8728 1db2 4C1D0000 		.4byte	0x1d4c
 8729 1db6 00       		.byte	0
 8730 1db7 19       		.uleb128 0x19
 8731 1db8 13180000 		.4byte	.LASF371
 8732 1dbc 1D       		.byte	0x1d
 8733 1dbd 0E01     		.2byte	0x10e
 8734 1dbf 1E       		.byte	0x1e
 8735 1dc0 361E0000 		.4byte	0x1e36
 8736 1dc4 04       		.byte	0x4
 8737 1dc5 19       		.uleb128 0x19
 8738 1dc6 B2070000 		.4byte	.LASF372
 8739 1dca 1D       		.byte	0x1d
 8740 1dcb 1201     		.2byte	0x112
 8741 1dcd 1D       		.byte	0x1d
 8742 1dce 970B0000 		.4byte	0xb97
 8743 1dd2 08       		.byte	0x8
 8744 1dd3 19       		.uleb128 0x19
 8745 1dd4 651A0000 		.4byte	.LASF373
 8746 1dd8 1D       		.byte	0x1d
 8747 1dd9 1601     		.2byte	0x116
 8748 1ddb 1D       		.byte	0x1d
 8749 1ddc 970B0000 		.4byte	0xb97
 8750 1de0 10       		.byte	0x10
 8751 1de1 19       		.uleb128 0x19
 8752 1de2 2F160000 		.4byte	.LASF374
 8753 1de6 1D       		.byte	0x1d
 8754 1de7 2301     		.2byte	0x123
 8755 1de9 1D       		.byte	0x1d
 8756 1dea BE180000 		.4byte	0x18be
 8757 1dee 18       		.byte	0x18
 8758 1def 19       		.uleb128 0x19
 8759 1df0 97090000 		.4byte	.LASF375
 8760 1df4 1D       		.byte	0x1d
 8761 1df5 2A01     		.2byte	0x12a
 8762 1df7 1D       		.byte	0x1d
 8763 1df8 BE180000 		.4byte	0x18be
 8764 1dfc 1C       		.byte	0x1c
 8765 1dfd 19       		.uleb128 0x19
 8766 1dfe F90B0000 		.4byte	.LASF376
ARM GAS  C:\Users\USER\AppData\Local\Temp\ccRejSya.s 			page 155


 8767 1e02 1D       		.byte	0x1d
 8768 1e03 3001     		.2byte	0x130
 8769 1e05 1D       		.byte	0x1d
 8770 1e06 BE180000 		.4byte	0x18be
 8771 1e0a 20       		.byte	0x20
 8772 1e0b 19       		.uleb128 0x19
 8773 1e0c CB020000 		.4byte	.LASF377
 8774 1e10 1D       		.byte	0x1d
 8775 1e11 3501     		.2byte	0x135
 8776 1e13 1D       		.byte	0x1d
 8777 1e14 BE180000 		.4byte	0x18be
 8778 1e18 24       		.byte	0x24
 8779 1e19 19       		.uleb128 0x19
 8780 1e1a 68070000 		.4byte	.LASF378
 8781 1e1e 1D       		.byte	0x1d
 8782 1e1f 3901     		.2byte	0x139
 8783 1e21 1D       		.byte	0x1d
 8784 1e22 BE180000 		.4byte	0x18be
 8785 1e26 28       		.byte	0x28
 8786 1e27 21       		.uleb128 0x21
 8787 1e28 63616E00 		.ascii	"can\000"
 8788 1e2c 1D       		.byte	0x1d
 8789 1e2d 3F01     		.2byte	0x13f
 8790 1e2f 1E       		.byte	0x1e
 8791 1e30 3C1E0000 		.4byte	0x1e3c
 8792 1e34 2C       		.byte	0x2c
 8793 1e35 00       		.byte	0
 8794 1e36 06       		.uleb128 0x6
 8795 1e37 04       		.byte	0x4
 8796 1e38 9A1D0000 		.4byte	0x1d9a
 8797 1e3c 06       		.uleb128 0x6
 8798 1e3d 04       		.byte	0x4
 8799 1e3e 41100000 		.4byte	0x1041
 8800 1e42 08       		.uleb128 0x8
 8801 1e43 1B030000 		.4byte	.LASF379
 8802 1e47 1D       		.byte	0x1d
 8803 1e48 4001     		.2byte	0x140
 8804 1e4a 03       		.byte	0x3
 8805 1e4b 9F1D0000 		.4byte	0x1d9f
 8806 1e4f 20       		.uleb128 0x20
 8807 1e50 E71B0000 		.4byte	.LASF380
 8808 1e54 1D       		.byte	0x1d
 8809 1e55 4B01     		.2byte	0x14b
 8810 1e57 12       		.byte	0x12
 8811 1e58 421E0000 		.4byte	0x1e42
 8812 1e5c 27       		.uleb128 0x27
 8813 1e5d 07       		.byte	0x7
 8814 1e5e 01       		.byte	0x1
 8815 1e5f 57000000 		.4byte	0x57
 8816 1e63 1E       		.byte	0x1e
 8817 1e64 4C       		.byte	0x4c
 8818 1e65 0E       		.byte	0xe
 8819 1e66 8F1E0000 		.4byte	0x1e8f
 8820 1e6a 28       		.uleb128 0x28
 8821 1e6b 64050000 		.4byte	.LASF381
 8822 1e6f 00       		.byte	0
 8823 1e70 28       		.uleb128 0x28
ARM GAS  C:\Users\USER\AppData\Local\Temp\ccRejSya.s 			page 156


 8824 1e71 C70B0000 		.4byte	.LASF382
 8825 1e75 01       		.byte	0x1
 8826 1e76 28       		.uleb128 0x28
 8827 1e77 E3050000 		.4byte	.LASF383
 8828 1e7b 02       		.byte	0x2
 8829 1e7c 28       		.uleb128 0x28
 8830 1e7d EA030000 		.4byte	.LASF384
 8831 1e81 03       		.byte	0x3
 8832 1e82 28       		.uleb128 0x28
 8833 1e83 AA020000 		.4byte	.LASF385
 8834 1e87 04       		.byte	0x4
 8835 1e88 28       		.uleb128 0x28
 8836 1e89 7B0F0000 		.4byte	.LASF386
 8837 1e8d 05       		.byte	0x5
 8838 1e8e 00       		.byte	0
 8839 1e8f 04       		.uleb128 0x4
 8840 1e90 EB0D0000 		.4byte	.LASF387
 8841 1e94 1E       		.byte	0x1e
 8842 1e95 53       		.byte	0x53
 8843 1e96 03       		.byte	0x3
 8844 1e97 5C1E0000 		.4byte	0x1e5c
 8845 1e9b 08       		.uleb128 0x8
 8846 1e9c 5B130000 		.4byte	.LASF388
 8847 1ea0 1F       		.byte	0x1f
 8848 1ea1 6A01     		.2byte	0x16a
 8849 1ea3 12       		.byte	0x12
 8850 1ea4 70090000 		.4byte	0x970
 8851 1ea8 08       		.uleb128 0x8
 8852 1ea9 37030000 		.4byte	.LASF389
 8853 1ead 1F       		.byte	0x1f
 8854 1eae 6F01     		.2byte	0x16f
 8855 1eb0 12       		.byte	0x12
 8856 1eb1 92090000 		.4byte	0x992
 8857 1eb5 29       		.uleb128 0x29
 8858 1eb6 07       		.byte	0x7
 8859 1eb7 01       		.byte	0x1
 8860 1eb8 57000000 		.4byte	0x57
 8861 1ebc 1F       		.byte	0x1f
 8862 1ebd 7401     		.2byte	0x174
 8863 1ebf 0E       		.byte	0xe
 8864 1ec0 D71E0000 		.4byte	0x1ed7
 8865 1ec4 28       		.uleb128 0x28
 8866 1ec5 F8030000 		.4byte	.LASF390
 8867 1ec9 01       		.byte	0x1
 8868 1eca 28       		.uleb128 0x28
 8869 1ecb 42000000 		.4byte	.LASF391
 8870 1ecf 02       		.byte	0x2
 8871 1ed0 28       		.uleb128 0x28
 8872 1ed1 D7070000 		.4byte	.LASF392
 8873 1ed5 03       		.byte	0x3
 8874 1ed6 00       		.byte	0
 8875 1ed7 08       		.uleb128 0x8
 8876 1ed8 691F0000 		.4byte	.LASF393
 8877 1edc 1F       		.byte	0x1f
 8878 1edd 7801     		.2byte	0x178
 8879 1edf 03       		.byte	0x3
 8880 1ee0 B51E0000 		.4byte	0x1eb5
ARM GAS  C:\Users\USER\AppData\Local\Temp\ccRejSya.s 			page 157


 8881 1ee4 29       		.uleb128 0x29
 8882 1ee5 07       		.byte	0x7
 8883 1ee6 01       		.byte	0x1
 8884 1ee7 57000000 		.4byte	0x57
 8885 1eeb 1F       		.byte	0x1f
 8886 1eec 7D01     		.2byte	0x17d
 8887 1eee 0E       		.byte	0xe
 8888 1eef 061F0000 		.4byte	0x1f06
 8889 1ef3 28       		.uleb128 0x28
 8890 1ef4 BE040000 		.4byte	.LASF394
 8891 1ef8 01       		.byte	0x1
 8892 1ef9 28       		.uleb128 0x28
 8893 1efa F71E0000 		.4byte	.LASF395
 8894 1efe 02       		.byte	0x2
 8895 1eff 28       		.uleb128 0x28
 8896 1f00 B7080000 		.4byte	.LASF396
 8897 1f04 03       		.byte	0x3
 8898 1f05 00       		.byte	0
 8899 1f06 08       		.uleb128 0x8
 8900 1f07 A0050000 		.4byte	.LASF397
 8901 1f0b 1F       		.byte	0x1f
 8902 1f0c 8101     		.2byte	0x181
 8903 1f0e 03       		.byte	0x3
 8904 1f0f E41E0000 		.4byte	0x1ee4
 8905 1f13 1C       		.uleb128 0x1c
 8906 1f14 0C       		.byte	0xc
 8907 1f15 1F       		.byte	0x1f
 8908 1f16 8601     		.2byte	0x186
 8909 1f18 09       		.byte	0x9
 8910 1f19 481F0000 		.4byte	0x1f48
 8911 1f1d 19       		.uleb128 0x19
 8912 1f1e 30050000 		.4byte	.LASF398
 8913 1f22 1F       		.byte	0x1f
 8914 1f23 8801     		.2byte	0x188
 8915 1f25 13       		.byte	0x13
 8916 1f26 D71E0000 		.4byte	0x1ed7
 8917 1f2a 00       		.byte	0
 8918 1f2b 19       		.uleb128 0x19
 8919 1f2c 05030000 		.4byte	.LASF399
 8920 1f30 1F       		.byte	0x1f
 8921 1f31 8901     		.2byte	0x189
 8922 1f33 13       		.byte	0x13
 8923 1f34 92090000 		.4byte	0x992
 8924 1f38 04       		.byte	0x4
 8925 1f39 19       		.uleb128 0x19
 8926 1f3a FE1F0000 		.4byte	.LASF400
 8927 1f3e 1F       		.byte	0x1f
 8928 1f3f 8C01     		.2byte	0x18c
 8929 1f41 13       		.byte	0x13
 8930 1f42 061F0000 		.4byte	0x1f06
 8931 1f46 08       		.byte	0x8
 8932 1f47 00       		.byte	0
 8933 1f48 08       		.uleb128 0x8
 8934 1f49 81010000 		.4byte	.LASF401
 8935 1f4d 1F       		.byte	0x1f
 8936 1f4e 8E01     		.2byte	0x18e
 8937 1f50 03       		.byte	0x3
ARM GAS  C:\Users\USER\AppData\Local\Temp\ccRejSya.s 			page 158


 8938 1f51 131F0000 		.4byte	0x1f13
 8939 1f55 10       		.uleb128 0x10
 8940 1f56 481F0000 		.4byte	0x1f48
 8941 1f5a 08       		.uleb128 0x8
 8942 1f5b E0030000 		.4byte	.LASF402
 8943 1f5f 1F       		.byte	0x1f
 8944 1f60 9301     		.2byte	0x193
 8945 1f62 1A       		.byte	0x1a
 8946 1f63 671F0000 		.4byte	0x1f67
 8947 1f67 1B       		.uleb128 0x1b
 8948 1f68 E0030000 		.4byte	.LASF402
 8949 1f6c 38       		.byte	0x38
 8950 1f6d 1F       		.byte	0x1f
 8951 1f6e 9801     		.2byte	0x198
 8952 1f70 08       		.byte	0x8
 8953 1f71 10200000 		.4byte	0x2010
 8954 1f75 19       		.uleb128 0x19
 8955 1f76 32120000 		.4byte	.LASF370
 8956 1f7a 1F       		.byte	0x1f
 8957 1f7b 9C01     		.2byte	0x19c
 8958 1f7d 1D       		.byte	0x1d
 8959 1f7e 8F1E0000 		.4byte	0x1e8f
 8960 1f82 00       		.byte	0
 8961 1f83 19       		.uleb128 0x19
 8962 1f84 13180000 		.4byte	.LASF371
 8963 1f88 1F       		.byte	0x1f
 8964 1f89 A001     		.2byte	0x1a0
 8965 1f8b 1E       		.byte	0x1e
 8966 1f8c 10200000 		.4byte	0x2010
 8967 1f90 04       		.byte	0x4
 8968 1f91 19       		.uleb128 0x19
 8969 1f92 F6000000 		.4byte	.LASF403
 8970 1f96 1F       		.byte	0x1f
 8971 1f97 A401     		.2byte	0x1a4
 8972 1f99 1D       		.byte	0x1d
 8973 1f9a A81E0000 		.4byte	0x1ea8
 8974 1f9e 08       		.byte	0x8
 8975 1f9f 19       		.uleb128 0x19
 8976 1fa0 620A0000 		.4byte	.LASF404
 8977 1fa4 1F       		.byte	0x1f
 8978 1fa5 A901     		.2byte	0x1a9
 8979 1fa7 1D       		.byte	0x1d
 8980 1fa8 30180000 		.4byte	0x1830
 8981 1fac 0C       		.byte	0xc
 8982 1fad 19       		.uleb128 0x19
 8983 1fae B8050000 		.4byte	.LASF405
 8984 1fb2 1F       		.byte	0x1f
 8985 1fb3 B201     		.2byte	0x1b2
 8986 1fb5 1D       		.byte	0x1d
 8987 1fb6 5E0B0000 		.4byte	0xb5e
 8988 1fba 1C       		.byte	0x1c
 8989 1fbb 19       		.uleb128 0x19
 8990 1fbc D00B0000 		.4byte	.LASF406
 8991 1fc0 1F       		.byte	0x1f
 8992 1fc1 B601     		.2byte	0x1b6
 8993 1fc3 1D       		.byte	0x1d
 8994 1fc4 9B1E0000 		.4byte	0x1e9b
ARM GAS  C:\Users\USER\AppData\Local\Temp\ccRejSya.s 			page 159


 8995 1fc8 20       		.byte	0x20
 8996 1fc9 19       		.uleb128 0x19
 8997 1fca C7060000 		.4byte	.LASF407
 8998 1fce 1F       		.byte	0x1f
 8999 1fcf BA01     		.2byte	0x1ba
 9000 1fd1 1D       		.byte	0x1d
 9001 1fd2 92090000 		.4byte	0x992
 9002 1fd6 24       		.byte	0x24
 9003 1fd7 19       		.uleb128 0x19
 9004 1fd8 18070000 		.4byte	.LASF408
 9005 1fdc 1F       		.byte	0x1f
 9006 1fdd BE01     		.2byte	0x1be
 9007 1fdf 1D       		.byte	0x1d
 9008 1fe0 92090000 		.4byte	0x992
 9009 1fe4 28       		.byte	0x28
 9010 1fe5 19       		.uleb128 0x19
 9011 1fe6 BF000000 		.4byte	.LASF409
 9012 1fea 1F       		.byte	0x1f
 9013 1feb C201     		.2byte	0x1c2
 9014 1fed 1E       		.byte	0x1e
 9015 1fee 16200000 		.4byte	0x2016
 9016 1ff2 2C       		.byte	0x2c
 9017 1ff3 19       		.uleb128 0x19
 9018 1ff4 94010000 		.4byte	.LASF410
 9019 1ff8 1F       		.byte	0x1f
 9020 1ff9 C601     		.2byte	0x1c6
 9021 1ffb 1E       		.byte	0x1e
 9022 1ffc 16200000 		.4byte	0x2016
 9023 2000 30       		.byte	0x30
 9024 2001 21       		.uleb128 0x21
 9025 2002 69326300 		.ascii	"i2c\000"
 9026 2006 1F       		.byte	0x1f
 9027 2007 CA01     		.2byte	0x1ca
 9028 2009 1E       		.byte	0x1e
 9029 200a 1C200000 		.4byte	0x201c
 9030 200e 34       		.byte	0x34
 9031 200f 00       		.byte	0
 9032 2010 06       		.uleb128 0x6
 9033 2011 04       		.byte	0x4
 9034 2012 551F0000 		.4byte	0x1f55
 9035 2016 06       		.uleb128 0x6
 9036 2017 04       		.byte	0x4
 9037 2018 631A0000 		.4byte	0x1a63
 9038 201c 06       		.uleb128 0x6
 9039 201d 04       		.byte	0x4
 9040 201e 79110000 		.4byte	0x1179
 9041 2022 20       		.uleb128 0x20
 9042 2023 510E0000 		.4byte	.LASF411
 9043 2027 1F       		.byte	0x1f
 9044 2028 E401     		.2byte	0x1e4
 9045 202a 12       		.byte	0x12
 9046 202b 5A1F0000 		.4byte	0x1f5a
 9047 202f 27       		.uleb128 0x27
 9048 2030 07       		.byte	0x7
 9049 2031 01       		.byte	0x1
 9050 2032 57000000 		.4byte	0x57
 9051 2036 20       		.byte	0x20
ARM GAS  C:\Users\USER\AppData\Local\Temp\ccRejSya.s 			page 160


 9052 2037 31       		.byte	0x31
 9053 2038 0E       		.byte	0xe
 9054 2039 5C200000 		.4byte	0x205c
 9055 203d 28       		.uleb128 0x28
 9056 203e 8A1E0000 		.4byte	.LASF412
 9057 2042 00       		.byte	0
 9058 2043 28       		.uleb128 0x28
 9059 2044 9E190000 		.4byte	.LASF413
 9060 2048 01       		.byte	0x1
 9061 2049 28       		.uleb128 0x28
 9062 204a 3A040000 		.4byte	.LASF414
 9063 204e 02       		.byte	0x2
 9064 204f 28       		.uleb128 0x28
 9065 2050 3E100000 		.4byte	.LASF415
 9066 2054 03       		.byte	0x3
 9067 2055 28       		.uleb128 0x28
 9068 2056 1E010000 		.4byte	.LASF416
 9069 205a 04       		.byte	0x4
 9070 205b 00       		.byte	0
 9071 205c 04       		.uleb128 0x4
 9072 205d 6D1B0000 		.4byte	.LASF417
 9073 2061 20       		.byte	0x20
 9074 2062 37       		.byte	0x37
 9075 2063 03       		.byte	0x3
 9076 2064 2F200000 		.4byte	0x202f
 9077 2068 04       		.uleb128 0x4
 9078 2069 00160000 		.4byte	.LASF418
 9079 206d 20       		.byte	0x20
 9080 206e 3C       		.byte	0x3c
 9081 206f 1A       		.byte	0x1a
 9082 2070 74200000 		.4byte	0x2074
 9083 2074 1B       		.uleb128 0x1b
 9084 2075 00160000 		.4byte	.LASF418
 9085 2079 18       		.byte	0x18
 9086 207a 21       		.byte	0x21
 9087 207b 3101     		.2byte	0x131
 9088 207d 08       		.byte	0x8
 9089 207e D7200000 		.4byte	0x20d7
 9090 2082 19       		.uleb128 0x19
 9091 2083 32120000 		.4byte	.LASF370
 9092 2087 21       		.byte	0x21
 9093 2088 3501     		.2byte	0x135
 9094 208a 1D       		.byte	0x1d
 9095 208b 5C200000 		.4byte	0x205c
 9096 208f 00       		.byte	0
 9097 2090 19       		.uleb128 0x19
 9098 2091 13180000 		.4byte	.LASF371
 9099 2095 21       		.byte	0x21
 9100 2096 3901     		.2byte	0x139
 9101 2098 1E       		.byte	0x1e
 9102 2099 01230000 		.4byte	0x2301
 9103 209d 04       		.byte	0x4
 9104 209e 19       		.uleb128 0x19
 9105 209f 770A0000 		.4byte	.LASF419
 9106 20a3 21       		.byte	0x21
 9107 20a4 4101     		.2byte	0x141
 9108 20a6 1D       		.byte	0x1d
ARM GAS  C:\Users\USER\AppData\Local\Temp\ccRejSya.s 			page 161


 9109 20a7 92090000 		.4byte	0x992
 9110 20ab 08       		.byte	0x8
 9111 20ac 21       		.uleb128 0x21
 9112 20ad 74696D00 		.ascii	"tim\000"
 9113 20b1 21       		.byte	0x21
 9114 20b2 4501     		.2byte	0x145
 9115 20b4 1E       		.byte	0x1e
 9116 20b5 07230000 		.4byte	0x2307
 9117 20b9 0C       		.byte	0xc
 9118 20ba 19       		.uleb128 0x19
 9119 20bb 54190000 		.4byte	.LASF420
 9120 20bf 21       		.byte	0x21
 9121 20c0 4901     		.2byte	0x149
 9122 20c2 1E       		.byte	0x1e
 9123 20c3 511A0000 		.4byte	0x1a51
 9124 20c7 10       		.byte	0x10
 9125 20c8 19       		.uleb128 0x19
 9126 20c9 5D040000 		.4byte	.LASF421
 9127 20cd 21       		.byte	0x21
 9128 20ce 4D01     		.2byte	0x14d
 9129 20d0 1E       		.byte	0x1e
 9130 20d1 511A0000 		.4byte	0x1a51
 9131 20d5 14       		.byte	0x14
 9132 20d6 00       		.byte	0
 9133 20d7 04       		.uleb128 0x4
 9134 20d8 D9160000 		.4byte	.LASF422
 9135 20dc 20       		.byte	0x20
 9136 20dd 43       		.byte	0x43
 9137 20de 10       		.byte	0x10
 9138 20df E3200000 		.4byte	0x20e3
 9139 20e3 06       		.uleb128 0x6
 9140 20e4 04       		.byte	0x4
 9141 20e5 E9200000 		.4byte	0x20e9
 9142 20e9 1F       		.uleb128 0x1f
 9143 20ea F4200000 		.4byte	0x20f4
 9144 20ee 17       		.uleb128 0x17
 9145 20ef F4200000 		.4byte	0x20f4
 9146 20f3 00       		.byte	0
 9147 20f4 06       		.uleb128 0x6
 9148 20f5 04       		.byte	0x4
 9149 20f6 68200000 		.4byte	0x2068
 9150 20fa 1C       		.uleb128 0x1c
 9151 20fb 60       		.byte	0x60
 9152 20fc 22       		.byte	0x22
 9153 20fd 9E01     		.2byte	0x19e
 9154 20ff 09       		.byte	0x9
 9155 2100 1B220000 		.4byte	0x221b
 9156 2104 21       		.uleb128 0x21
 9157 2105 43523100 		.ascii	"CR1\000"
 9158 2109 22       		.byte	0x22
 9159 210a 9F01     		.2byte	0x19f
 9160 210c 19       		.byte	0x19
 9161 210d 9E090000 		.4byte	0x99e
 9162 2111 00       		.byte	0
 9163 2112 21       		.uleb128 0x21
 9164 2113 43523200 		.ascii	"CR2\000"
 9165 2117 22       		.byte	0x22
ARM GAS  C:\Users\USER\AppData\Local\Temp\ccRejSya.s 			page 162


 9166 2118 A001     		.2byte	0x1a0
 9167 211a 19       		.byte	0x19
 9168 211b 9E090000 		.4byte	0x99e
 9169 211f 04       		.byte	0x4
 9170 2120 19       		.uleb128 0x19
 9171 2121 8C1B0000 		.4byte	.LASF423
 9172 2125 22       		.byte	0x22
 9173 2126 A101     		.2byte	0x1a1
 9174 2128 19       		.byte	0x19
 9175 2129 9E090000 		.4byte	0x99e
 9176 212d 08       		.byte	0x8
 9177 212e 19       		.uleb128 0x19
 9178 212f 38080000 		.4byte	.LASF424
 9179 2133 22       		.byte	0x22
 9180 2134 A201     		.2byte	0x1a2
 9181 2136 19       		.byte	0x19
 9182 2137 9E090000 		.4byte	0x99e
 9183 213b 0C       		.byte	0xc
 9184 213c 21       		.uleb128 0x21
 9185 213d 535200   		.ascii	"SR\000"
 9186 2140 22       		.byte	0x22
 9187 2141 A301     		.2byte	0x1a3
 9188 2143 19       		.byte	0x19
 9189 2144 9E090000 		.4byte	0x99e
 9190 2148 10       		.byte	0x10
 9191 2149 21       		.uleb128 0x21
 9192 214a 45475200 		.ascii	"EGR\000"
 9193 214e 22       		.byte	0x22
 9194 214f A401     		.2byte	0x1a4
 9195 2151 19       		.byte	0x19
 9196 2152 9E090000 		.4byte	0x99e
 9197 2156 14       		.byte	0x14
 9198 2157 19       		.uleb128 0x19
 9199 2158 271F0000 		.4byte	.LASF425
 9200 215c 22       		.byte	0x22
 9201 215d A501     		.2byte	0x1a5
 9202 215f 19       		.byte	0x19
 9203 2160 9E090000 		.4byte	0x99e
 9204 2164 18       		.byte	0x18
 9205 2165 19       		.uleb128 0x19
 9206 2166 2D1F0000 		.4byte	.LASF426
 9207 216a 22       		.byte	0x22
 9208 216b A601     		.2byte	0x1a6
 9209 216d 19       		.byte	0x19
 9210 216e 9E090000 		.4byte	0x99e
 9211 2172 1C       		.byte	0x1c
 9212 2173 19       		.uleb128 0x19
 9213 2174 F7050000 		.4byte	.LASF427
 9214 2178 22       		.byte	0x22
 9215 2179 A701     		.2byte	0x1a7
 9216 217b 19       		.byte	0x19
 9217 217c 9E090000 		.4byte	0x99e
 9218 2180 20       		.byte	0x20
 9219 2181 21       		.uleb128 0x21
 9220 2182 434E5400 		.ascii	"CNT\000"
 9221 2186 22       		.byte	0x22
 9222 2187 A801     		.2byte	0x1a8
ARM GAS  C:\Users\USER\AppData\Local\Temp\ccRejSya.s 			page 163


 9223 2189 19       		.byte	0x19
 9224 218a 9E090000 		.4byte	0x99e
 9225 218e 24       		.byte	0x24
 9226 218f 21       		.uleb128 0x21
 9227 2190 50534300 		.ascii	"PSC\000"
 9228 2194 22       		.byte	0x22
 9229 2195 A901     		.2byte	0x1a9
 9230 2197 19       		.byte	0x19
 9231 2198 9E090000 		.4byte	0x99e
 9232 219c 28       		.byte	0x28
 9233 219d 21       		.uleb128 0x21
 9234 219e 41525200 		.ascii	"ARR\000"
 9235 21a2 22       		.byte	0x22
 9236 21a3 AA01     		.2byte	0x1aa
 9237 21a5 19       		.byte	0x19
 9238 21a6 9E090000 		.4byte	0x99e
 9239 21aa 2C       		.byte	0x2c
 9240 21ab 21       		.uleb128 0x21
 9241 21ac 52435200 		.ascii	"RCR\000"
 9242 21b0 22       		.byte	0x22
 9243 21b1 AB01     		.2byte	0x1ab
 9244 21b3 19       		.byte	0x19
 9245 21b4 9E090000 		.4byte	0x99e
 9246 21b8 30       		.byte	0x30
 9247 21b9 21       		.uleb128 0x21
 9248 21ba 43435200 		.ascii	"CCR\000"
 9249 21be 22       		.byte	0x22
 9250 21bf AC01     		.2byte	0x1ac
 9251 21c1 19       		.byte	0x19
 9252 21c2 DE100000 		.4byte	0x10de
 9253 21c6 34       		.byte	0x34
 9254 21c7 19       		.uleb128 0x19
 9255 21c8 6A010000 		.4byte	.LASF428
 9256 21cc 22       		.byte	0x22
 9257 21cd AD01     		.2byte	0x1ad
 9258 21cf 19       		.byte	0x19
 9259 21d0 9E090000 		.4byte	0x99e
 9260 21d4 44       		.byte	0x44
 9261 21d5 21       		.uleb128 0x21
 9262 21d6 44435200 		.ascii	"DCR\000"
 9263 21da 22       		.byte	0x22
 9264 21db AE01     		.2byte	0x1ae
 9265 21dd 19       		.byte	0x19
 9266 21de 9E090000 		.4byte	0x99e
 9267 21e2 48       		.byte	0x48
 9268 21e3 19       		.uleb128 0x19
 9269 21e4 7A120000 		.4byte	.LASF429
 9270 21e8 22       		.byte	0x22
 9271 21e9 AF01     		.2byte	0x1af
 9272 21eb 19       		.byte	0x19
 9273 21ec 9E090000 		.4byte	0x99e
 9274 21f0 4C       		.byte	0x4c
 9275 21f1 21       		.uleb128 0x21
 9276 21f2 4F5200   		.ascii	"OR\000"
 9277 21f5 22       		.byte	0x22
 9278 21f6 B001     		.2byte	0x1b0
 9279 21f8 19       		.byte	0x19
ARM GAS  C:\Users\USER\AppData\Local\Temp\ccRejSya.s 			page 164


 9280 21f9 9E090000 		.4byte	0x99e
 9281 21fd 50       		.byte	0x50
 9282 21fe 19       		.uleb128 0x19
 9283 21ff 331F0000 		.4byte	.LASF430
 9284 2203 22       		.byte	0x22
 9285 2204 B101     		.2byte	0x1b1
 9286 2206 19       		.byte	0x19
 9287 2207 9E090000 		.4byte	0x99e
 9288 220b 54       		.byte	0x54
 9289 220c 19       		.uleb128 0x19
 9290 220d 830A0000 		.4byte	.LASF431
 9291 2211 22       		.byte	0x22
 9292 2212 B201     		.2byte	0x1b2
 9293 2214 19       		.byte	0x19
 9294 2215 C9100000 		.4byte	0x10c9
 9295 2219 58       		.byte	0x58
 9296 221a 00       		.byte	0
 9297 221b 08       		.uleb128 0x8
 9298 221c AD1A0000 		.4byte	.LASF432
 9299 2220 22       		.byte	0x22
 9300 2221 B301     		.2byte	0x1b3
 9301 2223 03       		.byte	0x3
 9302 2224 FA200000 		.4byte	0x20fa
 9303 2228 27       		.uleb128 0x27
 9304 2229 07       		.byte	0x7
 9305 222a 01       		.byte	0x1
 9306 222b 57000000 		.4byte	0x57
 9307 222f 21       		.byte	0x21
 9308 2230 EE       		.byte	0xee
 9309 2231 0E       		.byte	0xe
 9310 2232 43220000 		.4byte	0x2243
 9311 2236 28       		.uleb128 0x28
 9312 2237 F0060000 		.4byte	.LASF433
 9313 223b 00       		.byte	0
 9314 223c 28       		.uleb128 0x28
 9315 223d 32170000 		.4byte	.LASF434
 9316 2241 01       		.byte	0x1
 9317 2242 00       		.byte	0
 9318 2243 04       		.uleb128 0x4
 9319 2244 B61D0000 		.4byte	.LASF435
 9320 2248 21       		.byte	0x21
 9321 2249 F1       		.byte	0xf1
 9322 224a 03       		.byte	0x3
 9323 224b 28220000 		.4byte	0x2228
 9324 224f 04       		.uleb128 0x4
 9325 2250 67170000 		.4byte	.LASF436
 9326 2254 21       		.byte	0x21
 9327 2255 F6       		.byte	0xf6
 9328 2256 12       		.byte	0x12
 9329 2257 92090000 		.4byte	0x992
 9330 225b 27       		.uleb128 0x27
 9331 225c 07       		.byte	0x7
 9332 225d 01       		.byte	0x1
 9333 225e 57000000 		.4byte	0x57
 9334 2262 21       		.byte	0x21
 9335 2263 FB       		.byte	0xfb
 9336 2264 0E       		.byte	0xe
ARM GAS  C:\Users\USER\AppData\Local\Temp\ccRejSya.s 			page 165


 9337 2265 76220000 		.4byte	0x2276
 9338 2269 28       		.uleb128 0x28
 9339 226a AE160000 		.4byte	.LASF437
 9340 226e 00       		.byte	0
 9341 226f 28       		.uleb128 0x28
 9342 2270 E11A0000 		.4byte	.LASF438
 9343 2274 01       		.byte	0x1
 9344 2275 00       		.byte	0
 9345 2276 04       		.uleb128 0x4
 9346 2277 EA040000 		.4byte	.LASF439
 9347 227b 21       		.byte	0x21
 9348 227c FE       		.byte	0xfe
 9349 227d 03       		.byte	0x3
 9350 227e 5B220000 		.4byte	0x225b
 9351 2282 1C       		.uleb128 0x1c
 9352 2283 1C       		.byte	0x1c
 9353 2284 21       		.byte	0x21
 9354 2285 0901     		.2byte	0x109
 9355 2287 09       		.byte	0x9
 9356 2288 EF220000 		.4byte	0x22ef
 9357 228c 19       		.uleb128 0x19
 9358 228d DB060000 		.4byte	.LASF440
 9359 2291 21       		.byte	0x21
 9360 2292 0D01     		.2byte	0x10d
 9361 2294 1D       		.byte	0x1d
 9362 2295 43220000 		.4byte	0x2243
 9363 2299 00       		.byte	0
 9364 229a 19       		.uleb128 0x19
 9365 229b B91E0000 		.4byte	.LASF441
 9366 229f 21       		.byte	0x21
 9367 22a0 1301     		.2byte	0x113
 9368 22a2 1D       		.byte	0x1d
 9369 22a3 4F220000 		.4byte	0x224f
 9370 22a7 04       		.byte	0x4
 9371 22a8 19       		.uleb128 0x19
 9372 22a9 860F0000 		.4byte	.LASF442
 9373 22ad 21       		.byte	0x21
 9374 22ae 1701     		.2byte	0x117
 9375 22b0 1D       		.byte	0x1d
 9376 22b1 D7200000 		.4byte	0x20d7
 9377 22b5 08       		.byte	0x8
 9378 22b6 19       		.uleb128 0x19
 9379 22b7 E10D0000 		.4byte	.LASF443
 9380 22bb 21       		.byte	0x21
 9381 22bc 1B01     		.2byte	0x11b
 9382 22be 1D       		.byte	0x1d
 9383 22bf D7200000 		.4byte	0x20d7
 9384 22c3 0C       		.byte	0xc
 9385 22c4 19       		.uleb128 0x19
 9386 22c5 E9080000 		.4byte	.LASF444
 9387 22c9 21       		.byte	0x21
 9388 22ca 1F01     		.2byte	0x11f
 9389 22cc 1D       		.byte	0x1d
 9390 22cd D7200000 		.4byte	0x20d7
 9391 22d1 10       		.byte	0x10
 9392 22d2 19       		.uleb128 0x19
 9393 22d3 7B0E0000 		.4byte	.LASF445
ARM GAS  C:\Users\USER\AppData\Local\Temp\ccRejSya.s 			page 166


 9394 22d7 21       		.byte	0x21
 9395 22d8 2501     		.2byte	0x125
 9396 22da 1D       		.byte	0x1d
 9397 22db 76220000 		.4byte	0x2276
 9398 22df 14       		.byte	0x14
 9399 22e0 19       		.uleb128 0x19
 9400 22e1 2E0A0000 		.4byte	.LASF446
 9401 22e5 21       		.byte	0x21
 9402 22e6 2B01     		.2byte	0x12b
 9403 22e8 1D       		.byte	0x1d
 9404 22e9 92090000 		.4byte	0x992
 9405 22ed 18       		.byte	0x18
 9406 22ee 00       		.byte	0
 9407 22ef 08       		.uleb128 0x8
 9408 22f0 0A160000 		.4byte	.LASF447
 9409 22f4 21       		.byte	0x21
 9410 22f5 2C01     		.2byte	0x12c
 9411 22f7 03       		.byte	0x3
 9412 22f8 82220000 		.4byte	0x2282
 9413 22fc 10       		.uleb128 0x10
 9414 22fd EF220000 		.4byte	0x22ef
 9415 2301 06       		.uleb128 0x6
 9416 2302 04       		.byte	0x4
 9417 2303 FC220000 		.4byte	0x22fc
 9418 2307 06       		.uleb128 0x6
 9419 2308 04       		.byte	0x4
 9420 2309 1B220000 		.4byte	0x221b
 9421 230d 20       		.uleb128 0x20
 9422 230e 300C0000 		.4byte	.LASF448
 9423 2312 21       		.byte	0x21
 9424 2313 8601     		.2byte	0x186
 9425 2315 12       		.byte	0x12
 9426 2316 68200000 		.4byte	0x2068
 9427 231a 27       		.uleb128 0x27
 9428 231b 07       		.byte	0x7
 9429 231c 01       		.byte	0x1
 9430 231d 57000000 		.4byte	0x57
 9431 2321 23       		.byte	0x23
 9432 2322 55       		.byte	0x55
 9433 2323 0E       		.byte	0xe
 9434 2324 3B230000 		.4byte	0x233b
 9435 2328 28       		.uleb128 0x28
 9436 2329 6F050000 		.4byte	.LASF449
 9437 232d 00       		.byte	0
 9438 232e 28       		.uleb128 0x28
 9439 232f A20A0000 		.4byte	.LASF450
 9440 2333 01       		.byte	0x1
 9441 2334 28       		.uleb128 0x28
 9442 2335 67200000 		.4byte	.LASF451
 9443 2339 02       		.byte	0x2
 9444 233a 00       		.byte	0
 9445 233b 04       		.uleb128 0x4
 9446 233c 35150000 		.4byte	.LASF452
 9447 2340 23       		.byte	0x23
 9448 2341 59       		.byte	0x59
 9449 2342 03       		.byte	0x3
 9450 2343 1A230000 		.4byte	0x231a
ARM GAS  C:\Users\USER\AppData\Local\Temp\ccRejSya.s 			page 167


 9451 2347 04       		.uleb128 0x4
 9452 2348 731C0000 		.4byte	.LASF453
 9453 234c 23       		.byte	0x23
 9454 234d 5E       		.byte	0x5e
 9455 234e 1D       		.byte	0x1d
 9456 234f 53230000 		.4byte	0x2353
 9457 2353 11       		.uleb128 0x11
 9458 2354 731C0000 		.4byte	.LASF453
 9459 2358 78       		.byte	0x78
 9460 2359 23       		.byte	0x23
 9461 235a 78       		.byte	0x78
 9462 235b 08       		.byte	0x8
 9463 235c C7230000 		.4byte	0x23c7
 9464 2360 12       		.uleb128 0x12
 9465 2361 766D7400 		.ascii	"vmt\000"
 9466 2365 23       		.byte	0x23
 9467 2366 7A       		.byte	0x7a
 9468 2367 21       		.byte	0x21
 9469 2368 4F240000 		.4byte	0x244f
 9470 236c 00       		.byte	0
 9471 236d 0E       		.uleb128 0xe
 9472 236e 20000000 		.4byte	.LASF454
 9473 2372 23       		.byte	0x23
 9474 2373 7B       		.byte	0x7b
 9475 2374 03       		.byte	0x3
 9476 2375 BE180000 		.4byte	0x18be
 9477 2379 04       		.byte	0x4
 9478 237a 0E       		.uleb128 0xe
 9479 237b 32120000 		.4byte	.LASF370
 9480 237f 23       		.byte	0x23
 9481 2380 7B       		.byte	0x7b
 9482 2381 03       		.byte	0x3
 9483 2382 3B230000 		.4byte	0x233b
 9484 2386 08       		.byte	0x8
 9485 2387 0E       		.uleb128 0xe
 9486 2388 1B150000 		.4byte	.LASF455
 9487 238c 23       		.byte	0x23
 9488 238d 7B       		.byte	0x7b
 9489 238e 03       		.byte	0x3
 9490 238f 75190000 		.4byte	0x1975
 9491 2393 0C       		.byte	0xc
 9492 2394 0E       		.uleb128 0xe
 9493 2395 8D0E0000 		.4byte	.LASF456
 9494 2399 23       		.byte	0x23
 9495 239a 7B       		.byte	0x7b
 9496 239b 03       		.byte	0x3
 9497 239c 81190000 		.4byte	0x1981
 9498 23a0 30       		.byte	0x30
 9499 23a1 12       		.uleb128 0x12
 9500 23a2 696200   		.ascii	"ib\000"
 9501 23a5 23       		.byte	0x23
 9502 23a6 7B       		.byte	0x7b
 9503 23a7 03       		.byte	0x3
 9504 23a8 55240000 		.4byte	0x2455
 9505 23ac 54       		.byte	0x54
 9506 23ad 12       		.uleb128 0x12
 9507 23ae 6F6200   		.ascii	"ob\000"
ARM GAS  C:\Users\USER\AppData\Local\Temp\ccRejSya.s 			page 168


 9508 23b1 23       		.byte	0x23
 9509 23b2 7B       		.byte	0x7b
 9510 23b3 03       		.byte	0x3
 9511 23b4 55240000 		.4byte	0x2455
 9512 23b8 64       		.byte	0x64
 9513 23b9 0E       		.uleb128 0xe
 9514 23ba 92160000 		.4byte	.LASF457
 9515 23be 23       		.byte	0x23
 9516 23bf 7B       		.byte	0x7b
 9517 23c0 03       		.byte	0x3
 9518 23c1 65240000 		.4byte	0x2465
 9519 23c5 74       		.byte	0x74
 9520 23c6 00       		.byte	0
 9521 23c7 25       		.uleb128 0x25
 9522 23c8 53443100 		.ascii	"SD1\000"
 9523 23cc 24       		.byte	0x24
 9524 23cd 0F01     		.2byte	0x10f
 9525 23cf 15       		.byte	0x15
 9526 23d0 47230000 		.4byte	0x2347
 9527 23d4 11       		.uleb128 0x11
 9528 23d5 4E0C0000 		.4byte	.LASF458
 9529 23d9 20       		.byte	0x20
 9530 23da 23       		.byte	0x23
 9531 23db 6D       		.byte	0x6d
 9532 23dc 08       		.byte	0x8
 9533 23dd 4A240000 		.4byte	0x244a
 9534 23e1 0E       		.uleb128 0xe
 9535 23e2 0A150000 		.4byte	.LASF459
 9536 23e6 23       		.byte	0x23
 9537 23e7 6E       		.byte	0x6e
 9538 23e8 03       		.byte	0x3
 9539 23e9 AC190000 		.4byte	0x19ac
 9540 23ed 00       		.byte	0
 9541 23ee 0E       		.uleb128 0xe
 9542 23ef 5F010000 		.4byte	.LASF460
 9543 23f3 23       		.byte	0x23
 9544 23f4 6E       		.byte	0x6e
 9545 23f5 03       		.byte	0x3
 9546 23f6 CB190000 		.4byte	0x19cb
 9547 23fa 04       		.byte	0x4
 9548 23fb 12       		.uleb128 0x12
 9549 23fc 70757400 		.ascii	"put\000"
 9550 2400 23       		.byte	0x23
 9551 2401 6E       		.byte	0x6e
 9552 2402 03       		.byte	0x3
 9553 2403 E5190000 		.4byte	0x19e5
 9554 2407 08       		.byte	0x8
 9555 2408 12       		.uleb128 0x12
 9556 2409 67657400 		.ascii	"get\000"
 9557 240d 23       		.byte	0x23
 9558 240e 6E       		.byte	0x6e
 9559 240f 03       		.byte	0x3
 9560 2410 FA190000 		.4byte	0x19fa
 9561 2414 0C       		.byte	0xc
 9562 2415 0E       		.uleb128 0xe
 9563 2416 66100000 		.4byte	.LASF461
 9564 241a 23       		.byte	0x23
ARM GAS  C:\Users\USER\AppData\Local\Temp\ccRejSya.s 			page 169


 9565 241b 6E       		.byte	0x6e
 9566 241c 03       		.byte	0x3
 9567 241d A31A0000 		.4byte	0x1aa3
 9568 2421 10       		.byte	0x10
 9569 2422 0E       		.uleb128 0xe
 9570 2423 E4140000 		.4byte	.LASF462
 9571 2427 23       		.byte	0x23
 9572 2428 6E       		.byte	0x6e
 9573 2429 03       		.byte	0x3
 9574 242a BD1A0000 		.4byte	0x1abd
 9575 242e 14       		.byte	0x14
 9576 242f 0E       		.uleb128 0xe
 9577 2430 611D0000 		.4byte	.LASF463
 9578 2434 23       		.byte	0x23
 9579 2435 6E       		.byte	0x6e
 9580 2436 03       		.byte	0x3
 9581 2437 E11A0000 		.4byte	0x1ae1
 9582 243b 18       		.byte	0x18
 9583 243c 0E       		.uleb128 0xe
 9584 243d 990F0000 		.4byte	.LASF464
 9585 2441 23       		.byte	0x23
 9586 2442 6E       		.byte	0x6e
 9587 2443 03       		.byte	0x3
 9588 2444 051B0000 		.4byte	0x1b05
 9589 2448 1C       		.byte	0x1c
 9590 2449 00       		.byte	0
 9591 244a 10       		.uleb128 0x10
 9592 244b D4230000 		.4byte	0x23d4
 9593 244f 06       		.uleb128 0x6
 9594 2450 04       		.byte	0x4
 9595 2451 4A240000 		.4byte	0x244a
 9596 2455 0B       		.uleb128 0xb
 9597 2456 5F090000 		.4byte	0x95f
 9598 245a 65240000 		.4byte	0x2465
 9599 245e 0C       		.uleb128 0xc
 9600 245f 25000000 		.4byte	0x25
 9601 2463 0F       		.byte	0xf
 9602 2464 00       		.byte	0
 9603 2465 06       		.uleb128 0x6
 9604 2466 04       		.byte	0x4
 9605 2467 40140000 		.4byte	0x1440
 9606 246b 27       		.uleb128 0x27
 9607 246c 07       		.byte	0x7
 9608 246d 01       		.byte	0x1
 9609 246e 57000000 		.4byte	0x57
 9610 2472 25       		.byte	0x25
 9611 2473 46       		.byte	0x46
 9612 2474 0E       		.byte	0xe
 9613 2475 98240000 		.4byte	0x2498
 9614 2479 28       		.uleb128 0x28
 9615 247a D0050000 		.4byte	.LASF465
 9616 247e 00       		.byte	0
 9617 247f 28       		.uleb128 0x28
 9618 2480 43020000 		.4byte	.LASF466
 9619 2484 01       		.byte	0x1
 9620 2485 28       		.uleb128 0x28
 9621 2486 FE1D0000 		.4byte	.LASF467
ARM GAS  C:\Users\USER\AppData\Local\Temp\ccRejSya.s 			page 170


 9622 248a 02       		.byte	0x2
 9623 248b 28       		.uleb128 0x28
 9624 248c 2D0E0000 		.4byte	.LASF468
 9625 2490 03       		.byte	0x3
 9626 2491 28       		.uleb128 0x28
 9627 2492 C30F0000 		.4byte	.LASF469
 9628 2496 04       		.byte	0x4
 9629 2497 00       		.byte	0
 9630 2498 04       		.uleb128 0x4
 9631 2499 98020000 		.4byte	.LASF470
 9632 249d 25       		.byte	0x25
 9633 249e 4C       		.byte	0x4c
 9634 249f 03       		.byte	0x3
 9635 24a0 6B240000 		.4byte	0x246b
 9636 24a4 08       		.uleb128 0x8
 9637 24a5 391D0000 		.4byte	.LASF471
 9638 24a9 26       		.byte	0x26
 9639 24aa 9601     		.2byte	0x196
 9640 24ac 1A       		.byte	0x1a
 9641 24ad B1240000 		.4byte	0x24b1
 9642 24b1 1B       		.uleb128 0x1b
 9643 24b2 391D0000 		.4byte	.LASF471
 9644 24b6 30       		.byte	0x30
 9645 24b7 26       		.byte	0x26
 9646 24b8 BA01     		.2byte	0x1ba
 9647 24ba 08       		.byte	0x8
 9648 24bb 3E250000 		.4byte	0x253e
 9649 24bf 19       		.uleb128 0x19
 9650 24c0 32120000 		.4byte	.LASF370
 9651 24c4 26       		.byte	0x26
 9652 24c5 BE01     		.2byte	0x1be
 9653 24c7 1D       		.byte	0x1d
 9654 24c8 98240000 		.4byte	0x2498
 9655 24cc 00       		.byte	0
 9656 24cd 19       		.uleb128 0x19
 9657 24ce 13180000 		.4byte	.LASF371
 9658 24d2 26       		.byte	0x26
 9659 24d3 C201     		.2byte	0x1c2
 9660 24d5 1E       		.byte	0x1e
 9661 24d6 B7250000 		.4byte	0x25b7
 9662 24da 04       		.byte	0x4
 9663 24db 19       		.uleb128 0x19
 9664 24dc B8050000 		.4byte	.LASF405
 9665 24e0 26       		.byte	0x26
 9666 24e1 C701     		.2byte	0x1c7
 9667 24e3 1D       		.byte	0x1d
 9668 24e4 5E0B0000 		.4byte	0xb5e
 9669 24e8 08       		.byte	0x8
 9670 24e9 19       		.uleb128 0x19
 9671 24ea 620A0000 		.4byte	.LASF404
 9672 24ee 26       		.byte	0x26
 9673 24ef CD01     		.2byte	0x1cd
 9674 24f1 1D       		.byte	0x1d
 9675 24f2 30180000 		.4byte	0x1830
 9676 24f6 0C       		.byte	0xc
 9677 24f7 21       		.uleb128 0x21
 9678 24f8 73706900 		.ascii	"spi\000"
ARM GAS  C:\Users\USER\AppData\Local\Temp\ccRejSya.s 			page 171


 9679 24fc 26       		.byte	0x26
 9680 24fd D601     		.2byte	0x1d6
 9681 24ff 1E       		.byte	0x1e
 9682 2500 BD250000 		.4byte	0x25bd
 9683 2504 1C       		.byte	0x1c
 9684 2505 19       		.uleb128 0x19
 9685 2506 BF000000 		.4byte	.LASF409
 9686 250a 26       		.byte	0x26
 9687 250b DA01     		.2byte	0x1da
 9688 250d 1E       		.byte	0x1e
 9689 250e 16200000 		.4byte	0x2016
 9690 2512 20       		.byte	0x20
 9691 2513 19       		.uleb128 0x19
 9692 2514 94010000 		.4byte	.LASF410
 9693 2518 26       		.byte	0x26
 9694 2519 DE01     		.2byte	0x1de
 9695 251b 1E       		.byte	0x1e
 9696 251c 16200000 		.4byte	0x2016
 9697 2520 24       		.byte	0x24
 9698 2521 19       		.uleb128 0x19
 9699 2522 C7060000 		.4byte	.LASF407
 9700 2526 26       		.byte	0x26
 9701 2527 E201     		.2byte	0x1e2
 9702 2529 1D       		.byte	0x1d
 9703 252a 92090000 		.4byte	0x992
 9704 252e 28       		.byte	0x28
 9705 252f 19       		.uleb128 0x19
 9706 2530 18070000 		.4byte	.LASF408
 9707 2534 26       		.byte	0x26
 9708 2535 E601     		.2byte	0x1e6
 9709 2537 1D       		.byte	0x1d
 9710 2538 92090000 		.4byte	0x992
 9711 253c 2C       		.byte	0x2c
 9712 253d 00       		.byte	0
 9713 253e 08       		.uleb128 0x8
 9714 253f FD000000 		.4byte	.LASF472
 9715 2543 26       		.byte	0x26
 9716 2544 9E01     		.2byte	0x19e
 9717 2546 10       		.byte	0x10
 9718 2547 4B250000 		.4byte	0x254b
 9719 254b 06       		.uleb128 0x6
 9720 254c 04       		.byte	0x4
 9721 254d 51250000 		.4byte	0x2551
 9722 2551 1F       		.uleb128 0x1f
 9723 2552 5C250000 		.4byte	0x255c
 9724 2556 17       		.uleb128 0x17
 9725 2557 5C250000 		.4byte	0x255c
 9726 255b 00       		.byte	0
 9727 255c 06       		.uleb128 0x6
 9728 255d 04       		.byte	0x4
 9729 255e A4240000 		.4byte	0x24a4
 9730 2562 1C       		.uleb128 0x1c
 9731 2563 0C       		.byte	0xc
 9732 2564 26       		.byte	0x26
 9733 2565 A301     		.2byte	0x1a3
 9734 2567 09       		.byte	0x9
 9735 2568 A5250000 		.4byte	0x25a5
ARM GAS  C:\Users\USER\AppData\Local\Temp\ccRejSya.s 			page 172


 9736 256c 19       		.uleb128 0x19
 9737 256d 7D070000 		.4byte	.LASF473
 9738 2571 26       		.byte	0x26
 9739 2572 A701     		.2byte	0x1a7
 9740 2574 1D       		.byte	0x1d
 9741 2575 3E250000 		.4byte	0x253e
 9742 2579 00       		.byte	0
 9743 257a 19       		.uleb128 0x19
 9744 257b 831E0000 		.4byte	.LASF474
 9745 257f 26       		.byte	0x26
 9746 2580 AC01     		.2byte	0x1ac
 9747 2582 1D       		.byte	0x1d
 9748 2583 FF1C0000 		.4byte	0x1cff
 9749 2587 04       		.byte	0x4
 9750 2588 19       		.uleb128 0x19
 9751 2589 12070000 		.4byte	.LASF475
 9752 258d 26       		.byte	0x26
 9753 258e B001     		.2byte	0x1b0
 9754 2590 1D       		.byte	0x1d
 9755 2591 70090000 		.4byte	0x970
 9756 2595 08       		.byte	0x8
 9757 2596 21       		.uleb128 0x21
 9758 2597 63723100 		.ascii	"cr1\000"
 9759 259b 26       		.byte	0x26
 9760 259c B401     		.2byte	0x1b4
 9761 259e 1D       		.byte	0x1d
 9762 259f 70090000 		.4byte	0x970
 9763 25a3 0A       		.byte	0xa
 9764 25a4 00       		.byte	0
 9765 25a5 08       		.uleb128 0x8
 9766 25a6 141C0000 		.4byte	.LASF476
 9767 25aa 26       		.byte	0x26
 9768 25ab B501     		.2byte	0x1b5
 9769 25ad 03       		.byte	0x3
 9770 25ae 62250000 		.4byte	0x2562
 9771 25b2 10       		.uleb128 0x10
 9772 25b3 A5250000 		.4byte	0x25a5
 9773 25b7 06       		.uleb128 0x6
 9774 25b8 04       		.byte	0x4
 9775 25b9 B2250000 		.4byte	0x25b2
 9776 25bd 06       		.uleb128 0x6
 9777 25be 04       		.byte	0x4
 9778 25bf C8130000 		.4byte	0x13c8
 9779 25c3 20       		.uleb128 0x20
 9780 25c4 201B0000 		.4byte	.LASF477
 9781 25c8 26       		.byte	0x26
 9782 25c9 F201     		.2byte	0x1f2
 9783 25cb 12       		.byte	0x12
 9784 25cc A4240000 		.4byte	0x24a4
 9785 25d0 27       		.uleb128 0x27
 9786 25d1 07       		.byte	0x7
 9787 25d2 01       		.byte	0x1
 9788 25d3 57000000 		.4byte	0x57
 9789 25d7 27       		.byte	0x27
 9790 25d8 3D       		.byte	0x3d
 9791 25d9 0E       		.byte	0xe
 9792 25da F1250000 		.4byte	0x25f1
ARM GAS  C:\Users\USER\AppData\Local\Temp\ccRejSya.s 			page 173


 9793 25de 28       		.uleb128 0x28
 9794 25df E6090000 		.4byte	.LASF478
 9795 25e3 00       		.byte	0
 9796 25e4 28       		.uleb128 0x28
 9797 25e5 50180000 		.4byte	.LASF479
 9798 25e9 01       		.byte	0x1
 9799 25ea 28       		.uleb128 0x28
 9800 25eb 1C1F0000 		.4byte	.LASF480
 9801 25ef 02       		.byte	0x2
 9802 25f0 00       		.byte	0
 9803 25f1 04       		.uleb128 0x4
 9804 25f2 E9140000 		.4byte	.LASF481
 9805 25f6 27       		.byte	0x27
 9806 25f7 41       		.byte	0x41
 9807 25f8 03       		.byte	0x3
 9808 25f9 D0250000 		.4byte	0x25d0
 9809 25fd 27       		.uleb128 0x27
 9810 25fe 07       		.byte	0x7
 9811 25ff 01       		.byte	0x1
 9812 2600 57000000 		.4byte	0x57
 9813 2604 27       		.byte	0x27
 9814 2605 46       		.byte	0x46
 9815 2606 0E       		.byte	0xe
 9816 2607 1E260000 		.4byte	0x261e
 9817 260b 28       		.uleb128 0x28
 9818 260c 6B000000 		.4byte	.LASF482
 9819 2610 00       		.byte	0
 9820 2611 28       		.uleb128 0x28
 9821 2612 A8080000 		.4byte	.LASF483
 9822 2616 01       		.byte	0x1
 9823 2617 28       		.uleb128 0x28
 9824 2618 34200000 		.4byte	.LASF484
 9825 261c 02       		.byte	0x2
 9826 261d 00       		.byte	0
 9827 261e 04       		.uleb128 0x4
 9828 261f 251D0000 		.4byte	.LASF485
 9829 2623 27       		.byte	0x27
 9830 2624 4A       		.byte	0x4a
 9831 2625 03       		.byte	0x3
 9832 2626 FD250000 		.4byte	0x25fd
 9833 262a 27       		.uleb128 0x27
 9834 262b 07       		.byte	0x7
 9835 262c 01       		.byte	0x1
 9836 262d 57000000 		.4byte	0x57
 9837 2631 27       		.byte	0x27
 9838 2632 4F       		.byte	0x4f
 9839 2633 0E       		.byte	0xe
 9840 2634 4B260000 		.4byte	0x264b
 9841 2638 28       		.uleb128 0x28
 9842 2639 A1120000 		.4byte	.LASF486
 9843 263d 00       		.byte	0
 9844 263e 28       		.uleb128 0x28
 9845 263f 8B080000 		.4byte	.LASF487
 9846 2643 01       		.byte	0x1
 9847 2644 28       		.uleb128 0x28
 9848 2645 891A0000 		.4byte	.LASF488
 9849 2649 02       		.byte	0x2
ARM GAS  C:\Users\USER\AppData\Local\Temp\ccRejSya.s 			page 174


 9850 264a 00       		.byte	0
 9851 264b 04       		.uleb128 0x4
 9852 264c E01C0000 		.4byte	.LASF489
 9853 2650 27       		.byte	0x27
 9854 2651 53       		.byte	0x53
 9855 2652 03       		.byte	0x3
 9856 2653 2A260000 		.4byte	0x262a
 9857 2657 08       		.uleb128 0x8
 9858 2658 3A180000 		.4byte	.LASF490
 9859 265c 28       		.byte	0x28
 9860 265d B101     		.2byte	0x1b1
 9861 265f 12       		.byte	0x12
 9862 2660 92090000 		.4byte	0x992
 9863 2664 08       		.uleb128 0x8
 9864 2665 030F0000 		.4byte	.LASF491
 9865 2669 28       		.byte	0x28
 9866 266a B601     		.2byte	0x1b6
 9867 266c 1B       		.byte	0x1b
 9868 266d 71260000 		.4byte	0x2671
 9869 2671 1B       		.uleb128 0x1b
 9870 2672 030F0000 		.4byte	.LASF491
 9871 2676 1C       		.byte	0x1c
 9872 2677 28       		.byte	0x28
 9873 2678 FE01     		.2byte	0x1fe
 9874 267a 08       		.byte	0x8
 9875 267b FE260000 		.4byte	0x26fe
 9876 267f 19       		.uleb128 0x19
 9877 2680 32120000 		.4byte	.LASF370
 9878 2684 28       		.byte	0x28
 9879 2685 0202     		.2byte	0x202
 9880 2687 1D       		.byte	0x1d
 9881 2688 F1250000 		.4byte	0x25f1
 9882 268c 00       		.byte	0
 9883 268d 19       		.uleb128 0x19
 9884 268e C11F0000 		.4byte	.LASF492
 9885 2692 28       		.byte	0x28
 9886 2693 0602     		.2byte	0x206
 9887 2695 1D       		.byte	0x1d
 9888 2696 1E260000 		.4byte	0x261e
 9889 269a 01       		.byte	0x1
 9890 269b 19       		.uleb128 0x19
 9891 269c B0110000 		.4byte	.LASF493
 9892 26a0 28       		.byte	0x28
 9893 26a1 0A02     		.2byte	0x20a
 9894 26a3 1D       		.byte	0x1d
 9895 26a4 4B260000 		.4byte	0x264b
 9896 26a8 02       		.byte	0x2
 9897 26a9 19       		.uleb128 0x19
 9898 26aa 13180000 		.4byte	.LASF371
 9899 26ae 28       		.byte	0x28
 9900 26af 0E02     		.2byte	0x20e
 9901 26b1 1E       		.byte	0x1e
 9902 26b2 03280000 		.4byte	0x2803
 9903 26b6 04       		.byte	0x4
 9904 26b7 19       		.uleb128 0x19
 9905 26b8 92160000 		.4byte	.LASF457
 9906 26bc 28       		.byte	0x28
ARM GAS  C:\Users\USER\AppData\Local\Temp\ccRejSya.s 			page 175


 9907 26bd 1602     		.2byte	0x216
 9908 26bf 1E       		.byte	0x1e
 9909 26c0 65240000 		.4byte	0x2465
 9910 26c4 08       		.byte	0x8
 9911 26c5 19       		.uleb128 0x19
 9912 26c6 CB140000 		.4byte	.LASF494
 9913 26ca 28       		.byte	0x28
 9914 26cb 1A02     		.2byte	0x21a
 9915 26cd 1D       		.byte	0x1d
 9916 26ce 92090000 		.4byte	0x992
 9917 26d2 0C       		.byte	0xc
 9918 26d3 19       		.uleb128 0x19
 9919 26d4 BF000000 		.4byte	.LASF409
 9920 26d8 28       		.byte	0x28
 9921 26d9 1E02     		.2byte	0x21e
 9922 26db 1E       		.byte	0x1e
 9923 26dc 16200000 		.4byte	0x2016
 9924 26e0 10       		.byte	0x10
 9925 26e1 19       		.uleb128 0x19
 9926 26e2 94010000 		.4byte	.LASF410
 9927 26e6 28       		.byte	0x28
 9928 26e7 2202     		.2byte	0x222
 9929 26e9 1E       		.byte	0x1e
 9930 26ea 16200000 		.4byte	0x2016
 9931 26ee 14       		.byte	0x14
 9932 26ef 19       		.uleb128 0x19
 9933 26f0 7D090000 		.4byte	.LASF495
 9934 26f4 28       		.byte	0x28
 9935 26f5 2602     		.2byte	0x226
 9936 26f7 1D       		.byte	0x1d
 9937 26f8 7C090000 		.4byte	0x97c
 9938 26fc 18       		.byte	0x18
 9939 26fd 00       		.byte	0
 9940 26fe 08       		.uleb128 0x8
 9941 26ff 26160000 		.4byte	.LASF496
 9942 2703 28       		.byte	0x28
 9943 2704 BD01     		.2byte	0x1bd
 9944 2706 10       		.byte	0x10
 9945 2707 0B270000 		.4byte	0x270b
 9946 270b 06       		.uleb128 0x6
 9947 270c 04       		.byte	0x4
 9948 270d 11270000 		.4byte	0x2711
 9949 2711 1F       		.uleb128 0x1f
 9950 2712 1C270000 		.4byte	0x271c
 9951 2716 17       		.uleb128 0x17
 9952 2717 1C270000 		.4byte	0x271c
 9953 271b 00       		.byte	0
 9954 271c 06       		.uleb128 0x6
 9955 271d 04       		.byte	0x4
 9956 271e 64260000 		.4byte	0x2664
 9957 2722 08       		.uleb128 0x8
 9958 2723 A70F0000 		.4byte	.LASF497
 9959 2727 28       		.byte	0x28
 9960 2728 C501     		.2byte	0x1c5
 9961 272a 10       		.byte	0x10
 9962 272b 2F270000 		.4byte	0x272f
 9963 272f 06       		.uleb128 0x6
ARM GAS  C:\Users\USER\AppData\Local\Temp\ccRejSya.s 			page 176


 9964 2730 04       		.byte	0x4
 9965 2731 35270000 		.4byte	0x2735
 9966 2735 1F       		.uleb128 0x1f
 9967 2736 45270000 		.4byte	0x2745
 9968 273a 17       		.uleb128 0x17
 9969 273b 1C270000 		.4byte	0x271c
 9970 273f 17       		.uleb128 0x17
 9971 2740 70090000 		.4byte	0x970
 9972 2744 00       		.byte	0
 9973 2745 08       		.uleb128 0x8
 9974 2746 82030000 		.4byte	.LASF498
 9975 274a 28       		.byte	0x28
 9976 274b CD01     		.2byte	0x1cd
 9977 274d 10       		.byte	0x10
 9978 274e 52270000 		.4byte	0x2752
 9979 2752 06       		.uleb128 0x6
 9980 2753 04       		.byte	0x4
 9981 2754 58270000 		.4byte	0x2758
 9982 2758 1F       		.uleb128 0x1f
 9983 2759 68270000 		.4byte	0x2768
 9984 275d 17       		.uleb128 0x17
 9985 275e 1C270000 		.4byte	0x271c
 9986 2762 17       		.uleb128 0x17
 9987 2763 57260000 		.4byte	0x2657
 9988 2767 00       		.byte	0
 9989 2768 1C       		.uleb128 0x1c
 9990 2769 20       		.byte	0x20
 9991 276a 28       		.byte	0x28
 9992 276b D301     		.2byte	0x1d3
 9993 276d 09       		.byte	0x9
 9994 276e F1270000 		.4byte	0x27f1
 9995 2772 19       		.uleb128 0x19
 9996 2773 580F0000 		.4byte	.LASF499
 9997 2777 28       		.byte	0x28
 9998 2778 D701     		.2byte	0x1d7
 9999 277a 1D       		.byte	0x1d
 10000 277b FE260000 		.4byte	0x26fe
 10001 277f 00       		.byte	0
 10002 2780 19       		.uleb128 0x19
 10003 2781 2F190000 		.4byte	.LASF500
 10004 2785 28       		.byte	0x28
 10005 2786 DB01     		.2byte	0x1db
 10006 2788 1D       		.byte	0x1d
 10007 2789 FE260000 		.4byte	0x26fe
 10008 278d 04       		.byte	0x4
 10009 278e 19       		.uleb128 0x19
 10010 278f 62180000 		.4byte	.LASF501
 10011 2793 28       		.byte	0x28
 10012 2794 DF01     		.2byte	0x1df
 10013 2796 1D       		.byte	0x1d
 10014 2797 FE260000 		.4byte	0x26fe
 10015 279b 08       		.byte	0x8
 10016 279c 19       		.uleb128 0x19
 10017 279d 710F0000 		.4byte	.LASF502
 10018 27a1 28       		.byte	0x28
 10019 27a2 E301     		.2byte	0x1e3
 10020 27a4 1D       		.byte	0x1d
ARM GAS  C:\Users\USER\AppData\Local\Temp\ccRejSya.s 			page 177


 10021 27a5 22270000 		.4byte	0x2722
 10022 27a9 0C       		.byte	0xc
 10023 27aa 19       		.uleb128 0x19
 10024 27ab 171B0000 		.4byte	.LASF503
 10025 27af 28       		.byte	0x28
 10026 27b0 E701     		.2byte	0x1e7
 10027 27b2 1D       		.byte	0x1d
 10028 27b3 45270000 		.4byte	0x2745
 10029 27b7 10       		.byte	0x10
 10030 27b8 19       		.uleb128 0x19
 10031 27b9 1B190000 		.4byte	.LASF504
 10032 27bd 28       		.byte	0x28
 10033 27be EC01     		.2byte	0x1ec
 10034 27c0 1D       		.byte	0x1d
 10035 27c1 92090000 		.4byte	0x992
 10036 27c5 14       		.byte	0x14
 10037 27c6 21       		.uleb128 0x21
 10038 27c7 63723100 		.ascii	"cr1\000"
 10039 27cb 28       		.byte	0x28
 10040 27cc F001     		.2byte	0x1f0
 10041 27ce 1D       		.byte	0x1d
 10042 27cf 70090000 		.4byte	0x970
 10043 27d3 18       		.byte	0x18
 10044 27d4 21       		.uleb128 0x21
 10045 27d5 63723200 		.ascii	"cr2\000"
 10046 27d9 28       		.byte	0x28
 10047 27da F401     		.2byte	0x1f4
 10048 27dc 1D       		.byte	0x1d
 10049 27dd 70090000 		.4byte	0x970
 10050 27e1 1A       		.byte	0x1a
 10051 27e2 21       		.uleb128 0x21
 10052 27e3 63723300 		.ascii	"cr3\000"
 10053 27e7 28       		.byte	0x28
 10054 27e8 F801     		.2byte	0x1f8
 10055 27ea 1D       		.byte	0x1d
 10056 27eb 70090000 		.4byte	0x970
 10057 27ef 1C       		.byte	0x1c
 10058 27f0 00       		.byte	0
 10059 27f1 08       		.uleb128 0x8
 10060 27f2 130F0000 		.4byte	.LASF505
 10061 27f6 28       		.byte	0x28
 10062 27f7 F901     		.2byte	0x1f9
 10063 27f9 03       		.byte	0x3
 10064 27fa 68270000 		.4byte	0x2768
 10065 27fe 10       		.uleb128 0x10
 10066 27ff F1270000 		.4byte	0x27f1
 10067 2803 06       		.uleb128 0x6
 10068 2804 04       		.byte	0x4
 10069 2805 FE270000 		.4byte	0x27fe
 10070 2809 20       		.uleb128 0x20
 10071 280a 620F0000 		.4byte	.LASF506
 10072 280e 28       		.byte	0x28
 10073 280f 4602     		.2byte	0x246
 10074 2811 13       		.byte	0x13
 10075 2812 64260000 		.4byte	0x2664
 10076 2816 04       		.uleb128 0x4
 10077 2817 570E0000 		.4byte	.LASF507
ARM GAS  C:\Users\USER\AppData\Local\Temp\ccRejSya.s 			page 178


 10078 281b 29       		.byte	0x29
 10079 281c FA       		.byte	0xfa
 10080 281d 1A       		.byte	0x1a
 10081 281e 22280000 		.4byte	0x2822
 10082 2822 18       		.uleb128 0x18
 10083 2823 570E0000 		.4byte	.LASF507
 10084 2827 8002     		.2byte	0x280
 10085 2829 2A       		.byte	0x2a
 10086 282a 7701     		.2byte	0x177
 10087 282c 08       		.byte	0x8
 10088 282d 65290000 		.4byte	0x2965
 10089 2831 19       		.uleb128 0x19
 10090 2832 32120000 		.4byte	.LASF370
 10091 2836 2A       		.byte	0x2a
 10092 2837 7B01     		.2byte	0x17b
 10093 2839 21       		.byte	0x21
 10094 283a 9F290000 		.4byte	0x299f
 10095 283e 00       		.byte	0
 10096 283f 19       		.uleb128 0x19
 10097 2840 13180000 		.4byte	.LASF371
 10098 2844 2A       		.byte	0x2a
 10099 2845 7F01     		.2byte	0x17f
 10100 2847 22       		.byte	0x22
 10101 2848 8B330000 		.4byte	0x338b
 10102 284c 04       		.byte	0x4
 10103 284d 19       		.uleb128 0x19
 10104 284e 3D1C0000 		.4byte	.LASF508
 10105 2852 2A       		.byte	0x2a
 10106 2853 8301     		.2byte	0x183
 10107 2855 21       		.byte	0x21
 10108 2856 70090000 		.4byte	0x970
 10109 285a 08       		.byte	0x8
 10110 285b 19       		.uleb128 0x19
 10111 285c A81E0000 		.4byte	.LASF509
 10112 2860 2A       		.byte	0x2a
 10113 2861 8701     		.2byte	0x187
 10114 2863 21       		.byte	0x21
 10115 2864 70090000 		.4byte	0x970
 10116 2868 0A       		.byte	0xa
 10117 2869 21       		.uleb128 0x21
 10118 286a 65706300 		.ascii	"epc\000"
 10119 286e 2A       		.byte	0x2a
 10120 286f 8B01     		.2byte	0x18b
 10121 2871 22       		.byte	0x22
 10122 2872 91330000 		.4byte	0x3391
 10123 2876 0C       		.byte	0xc
 10124 2877 19       		.uleb128 0x19
 10125 2878 C5010000 		.4byte	.LASF510
 10126 287c 2A       		.byte	0x2a
 10127 287d 9201     		.2byte	0x192
 10128 287f 22       		.byte	0x22
 10129 2880 A7330000 		.4byte	0x33a7
 10130 2884 1C       		.byte	0x1c
 10131 2885 19       		.uleb128 0x19
 10132 2886 020A0000 		.4byte	.LASF511
 10133 288a 2A       		.byte	0x2a
 10134 288b 9901     		.2byte	0x199
ARM GAS  C:\Users\USER\AppData\Local\Temp\ccRejSya.s 			page 179


 10135 288d 22       		.byte	0x22
 10136 288e A7330000 		.4byte	0x33a7
 10137 2892 28       		.byte	0x28
 10138 2893 19       		.uleb128 0x19
 10139 2894 DD0C0000 		.4byte	.LASF512
 10140 2898 2A       		.byte	0x2a
 10141 2899 9D01     		.2byte	0x19d
 10142 289b 21       		.byte	0x21
 10143 289c 152A0000 		.4byte	0x2a15
 10144 28a0 34       		.byte	0x34
 10145 28a1 19       		.uleb128 0x19
 10146 28a2 9C170000 		.4byte	.LASF513
 10147 28a6 2A       		.byte	0x2a
 10148 28a7 A101     		.2byte	0x1a1
 10149 28a9 22       		.byte	0x22
 10150 28aa 6F190000 		.4byte	0x196f
 10151 28ae 38       		.byte	0x38
 10152 28af 19       		.uleb128 0x19
 10153 28b0 56130000 		.4byte	.LASF514
 10154 28b4 2A       		.byte	0x2a
 10155 28b5 A501     		.2byte	0x1a5
 10156 28b7 21       		.byte	0x21
 10157 28b8 33000000 		.4byte	0x33
 10158 28bc 3C       		.byte	0x3c
 10159 28bd 19       		.uleb128 0x19
 10160 28be B2190000 		.4byte	.LASF515
 10161 28c2 2A       		.byte	0x2a
 10162 28c3 A901     		.2byte	0x1a9
 10163 28c5 21       		.byte	0x21
 10164 28c6 9C2A0000 		.4byte	0x2a9c
 10165 28ca 40       		.byte	0x40
 10166 28cb 19       		.uleb128 0x19
 10167 28cc CA050000 		.4byte	.LASF516
 10168 28d0 2A       		.byte	0x2a
 10169 28d1 AD01     		.2byte	0x1ad
 10170 28d3 21       		.byte	0x21
 10171 28d4 581D0000 		.4byte	0x1d58
 10172 28d8 44       		.byte	0x44
 10173 28d9 19       		.uleb128 0x19
 10174 28da 85110000 		.4byte	.LASF517
 10175 28de 2A       		.byte	0x2a
 10176 28df B101     		.2byte	0x1b1
 10177 28e1 21       		.byte	0x21
 10178 28e2 70090000 		.4byte	0x970
 10179 28e6 4C       		.byte	0x4c
 10180 28e7 19       		.uleb128 0x19
 10181 28e8 C5110000 		.4byte	.LASF518
 10182 28ec 2A       		.byte	0x2a
 10183 28ed B501     		.2byte	0x1b5
 10184 28ef 21       		.byte	0x21
 10185 28f0 5F090000 		.4byte	0x95f
 10186 28f4 4E       		.byte	0x4e
 10187 28f5 19       		.uleb128 0x19
 10188 28f6 F8160000 		.4byte	.LASF519
 10189 28fa 2A       		.byte	0x2a
 10190 28fb B901     		.2byte	0x1b9
 10191 28fd 21       		.byte	0x21
ARM GAS  C:\Users\USER\AppData\Local\Temp\ccRejSya.s 			page 180


 10192 28fe 5F090000 		.4byte	0x95f
 10193 2902 4F       		.byte	0x4f
 10194 2903 21       		.uleb128 0x21
 10195 2904 6F746700 		.ascii	"otg\000"
 10196 2908 2A       		.byte	0x2a
 10197 2909 C101     		.2byte	0x1c1
 10198 290b 22       		.byte	0x22
 10199 290c B7330000 		.4byte	0x33b7
 10200 2910 50       		.byte	0x50
 10201 2911 19       		.uleb128 0x19
 10202 2912 560B0000 		.4byte	.LASF520
 10203 2916 2A       		.byte	0x2a
 10204 2917 C501     		.2byte	0x1c5
 10205 2919 22       		.byte	0x22
 10206 291a BD330000 		.4byte	0x33bd
 10207 291e 54       		.byte	0x54
 10208 291f 19       		.uleb128 0x19
 10209 2920 CD1A0000 		.4byte	.LASF521
 10210 2924 2A       		.byte	0x2a
 10211 2925 C901     		.2byte	0x1c9
 10212 2927 21       		.byte	0x21
 10213 2928 92090000 		.4byte	0x992
 10214 292c 58       		.byte	0x58
 10215 292d 19       		.uleb128 0x19
 10216 292e 6D0A0000 		.4byte	.LASF522
 10217 2932 2A       		.byte	0x2a
 10218 2933 CD01     		.2byte	0x1cd
 10219 2935 21       		.byte	0x21
 10220 2936 92090000 		.4byte	0x992
 10221 293a 5C       		.byte	0x5c
 10222 293b 19       		.uleb128 0x19
 10223 293c 81060000 		.4byte	.LASF523
 10224 2940 2A       		.byte	0x2a
 10225 2941 D101     		.2byte	0x1d1
 10226 2943 21       		.byte	0x21
 10227 2944 5E0B0000 		.4byte	0xb5e
 10228 2948 60       		.byte	0x60
 10229 2949 21       		.uleb128 0x21
 10230 294a 747200   		.ascii	"tr\000"
 10231 294d 2A       		.byte	0x2a
 10232 294e D601     		.2byte	0x1d6
 10233 2950 21       		.byte	0x21
 10234 2951 5E0B0000 		.4byte	0xb5e
 10235 2955 64       		.byte	0x64
 10236 2956 19       		.uleb128 0x19
 10237 2957 DA100000 		.4byte	.LASF524
 10238 295b 2A       		.byte	0x2a
 10239 295c DA01     		.2byte	0x1da
 10240 295e 03       		.byte	0x3
 10241 295f C3330000 		.4byte	0x33c3
 10242 2963 68       		.byte	0x68
 10243 2964 00       		.byte	0
 10244 2965 04       		.uleb128 0x4
 10245 2966 16010000 		.4byte	.LASF525
 10246 296a 29       		.byte	0x29
 10247 296b FF       		.byte	0xff
 10248 296c 11       		.byte	0x11
ARM GAS  C:\Users\USER\AppData\Local\Temp\ccRejSya.s 			page 181


 10249 296d 5F090000 		.4byte	0x95f
 10250 2971 29       		.uleb128 0x29
 10251 2972 07       		.byte	0x7
 10252 2973 01       		.byte	0x1
 10253 2974 57000000 		.4byte	0x57
 10254 2978 29       		.byte	0x29
 10255 2979 0401     		.2byte	0x104
 10256 297b 0E       		.byte	0xe
 10257 297c 9F290000 		.4byte	0x299f
 10258 2980 28       		.uleb128 0x28
 10259 2981 501F0000 		.4byte	.LASF526
 10260 2985 00       		.byte	0
 10261 2986 28       		.uleb128 0x28
 10262 2987 00000000 		.4byte	.LASF527
 10263 298b 01       		.byte	0x1
 10264 298c 28       		.uleb128 0x28
 10265 298d 8F0F0000 		.4byte	.LASF528
 10266 2991 02       		.byte	0x2
 10267 2992 28       		.uleb128 0x28
 10268 2993 9F150000 		.4byte	.LASF529
 10269 2997 03       		.byte	0x3
 10270 2998 28       		.uleb128 0x28
 10271 2999 A4060000 		.4byte	.LASF530
 10272 299d 04       		.byte	0x4
 10273 299e 00       		.byte	0
 10274 299f 08       		.uleb128 0x8
 10275 29a0 851C0000 		.4byte	.LASF531
 10276 29a4 29       		.byte	0x29
 10277 29a5 0A01     		.2byte	0x10a
 10278 29a7 03       		.byte	0x3
 10279 29a8 71290000 		.4byte	0x2971
 10280 29ac 29       		.uleb128 0x29
 10281 29ad 07       		.byte	0x7
 10282 29ae 01       		.byte	0x1
 10283 29af 57000000 		.4byte	0x57
 10284 29b3 29       		.byte	0x29
 10285 29b4 0F01     		.2byte	0x10f
 10286 29b6 0E       		.byte	0xe
 10287 29b7 CE290000 		.4byte	0x29ce
 10288 29bb 28       		.uleb128 0x28
 10289 29bc DD190000 		.4byte	.LASF532
 10290 29c0 00       		.byte	0
 10291 29c1 28       		.uleb128 0x28
 10292 29c2 320B0000 		.4byte	.LASF533
 10293 29c6 01       		.byte	0x1
 10294 29c7 28       		.uleb128 0x28
 10295 29c8 48030000 		.4byte	.LASF534
 10296 29cc 02       		.byte	0x2
 10297 29cd 00       		.byte	0
 10298 29ce 08       		.uleb128 0x8
 10299 29cf 83020000 		.4byte	.LASF535
 10300 29d3 29       		.byte	0x29
 10301 29d4 1301     		.2byte	0x113
 10302 29d6 03       		.byte	0x3
 10303 29d7 AC290000 		.4byte	0x29ac
 10304 29db 29       		.uleb128 0x29
 10305 29dc 07       		.byte	0x7
ARM GAS  C:\Users\USER\AppData\Local\Temp\ccRejSya.s 			page 182


 10306 29dd 01       		.byte	0x1
 10307 29de 57000000 		.4byte	0x57
 10308 29e2 29       		.byte	0x29
 10309 29e3 1801     		.2byte	0x118
 10310 29e5 0E       		.byte	0xe
 10311 29e6 152A0000 		.4byte	0x2a15
 10312 29ea 28       		.uleb128 0x28
 10313 29eb 7B190000 		.4byte	.LASF536
 10314 29ef 00       		.byte	0
 10315 29f0 28       		.uleb128 0x28
 10316 29f1 D20C0000 		.4byte	.LASF537
 10317 29f5 01       		.byte	0x1
 10318 29f6 28       		.uleb128 0x28
 10319 29f7 88170000 		.4byte	.LASF538
 10320 29fb 02       		.byte	0x2
 10321 29fc 28       		.uleb128 0x28
 10322 29fd 4A120000 		.4byte	.LASF539
 10323 2a01 03       		.byte	0x3
 10324 2a02 28       		.uleb128 0x28
 10325 2a03 7A110000 		.4byte	.LASF540
 10326 2a07 04       		.byte	0x4
 10327 2a08 28       		.uleb128 0x28
 10328 2a09 C10D0000 		.4byte	.LASF541
 10329 2a0d 05       		.byte	0x5
 10330 2a0e 28       		.uleb128 0x28
 10331 2a0f 5E0C0000 		.4byte	.LASF542
 10332 2a13 06       		.byte	0x6
 10333 2a14 00       		.byte	0
 10334 2a15 08       		.uleb128 0x8
 10335 2a16 140E0000 		.4byte	.LASF543
 10336 2a1a 29       		.byte	0x29
 10337 2a1b 2001     		.2byte	0x120
 10338 2a1d 03       		.byte	0x3
 10339 2a1e DB290000 		.4byte	0x29db
 10340 2a22 29       		.uleb128 0x29
 10341 2a23 07       		.byte	0x7
 10342 2a24 01       		.byte	0x1
 10343 2a25 57000000 		.4byte	0x57
 10344 2a29 29       		.byte	0x29
 10345 2a2a 2501     		.2byte	0x125
 10346 2a2c 0E       		.byte	0xe
 10347 2a2d 562A0000 		.4byte	0x2a56
 10348 2a31 28       		.uleb128 0x28
 10349 2a32 84150000 		.4byte	.LASF544
 10350 2a36 00       		.byte	0
 10351 2a37 28       		.uleb128 0x28
 10352 2a38 14160000 		.4byte	.LASF545
 10353 2a3c 01       		.byte	0x1
 10354 2a3d 28       		.uleb128 0x28
 10355 2a3e 51100000 		.4byte	.LASF546
 10356 2a42 02       		.byte	0x2
 10357 2a43 28       		.uleb128 0x28
 10358 2a44 25110000 		.4byte	.LASF547
 10359 2a48 03       		.byte	0x3
 10360 2a49 28       		.uleb128 0x28
 10361 2a4a 431E0000 		.4byte	.LASF548
 10362 2a4e 04       		.byte	0x4
ARM GAS  C:\Users\USER\AppData\Local\Temp\ccRejSya.s 			page 183


 10363 2a4f 28       		.uleb128 0x28
 10364 2a50 D80F0000 		.4byte	.LASF549
 10365 2a54 05       		.byte	0x5
 10366 2a55 00       		.byte	0
 10367 2a56 08       		.uleb128 0x8
 10368 2a57 3C160000 		.4byte	.LASF550
 10369 2a5b 29       		.byte	0x29
 10370 2a5c 2C01     		.2byte	0x12c
 10371 2a5e 03       		.byte	0x3
 10372 2a5f 222A0000 		.4byte	0x2a22
 10373 2a63 1C       		.uleb128 0x1c
 10374 2a64 08       		.byte	0x8
 10375 2a65 29       		.byte	0x29
 10376 2a66 3101     		.2byte	0x131
 10377 2a68 09       		.byte	0x9
 10378 2a69 8A2A0000 		.4byte	0x2a8a
 10379 2a6d 19       		.uleb128 0x19
 10380 2a6e 09200000 		.4byte	.LASF551
 10381 2a72 29       		.byte	0x29
 10382 2a73 3501     		.2byte	0x135
 10383 2a75 21       		.byte	0x21
 10384 2a76 33000000 		.4byte	0x33
 10385 2a7a 00       		.byte	0
 10386 2a7b 19       		.uleb128 0x19
 10387 2a7c D6030000 		.4byte	.LASF552
 10388 2a80 29       		.byte	0x29
 10389 2a81 3901     		.2byte	0x139
 10390 2a83 22       		.byte	0x22
 10391 2a84 A6190000 		.4byte	0x19a6
 10392 2a88 04       		.byte	0x4
 10393 2a89 00       		.byte	0
 10394 2a8a 08       		.uleb128 0x8
 10395 2a8b 92110000 		.4byte	.LASF553
 10396 2a8f 29       		.byte	0x29
 10397 2a90 3A01     		.2byte	0x13a
 10398 2a92 03       		.byte	0x3
 10399 2a93 632A0000 		.4byte	0x2a63
 10400 2a97 10       		.uleb128 0x10
 10401 2a98 8A2A0000 		.4byte	0x2a8a
 10402 2a9c 08       		.uleb128 0x8
 10403 2a9d 971F0000 		.4byte	.LASF554
 10404 2aa1 29       		.byte	0x29
 10405 2aa2 4201     		.2byte	0x142
 10406 2aa4 10       		.byte	0x10
 10407 2aa5 A92A0000 		.4byte	0x2aa9
 10408 2aa9 06       		.uleb128 0x6
 10409 2aaa 04       		.byte	0x4
 10410 2aab AF2A0000 		.4byte	0x2aaf
 10411 2aaf 1F       		.uleb128 0x1f
 10412 2ab0 BA2A0000 		.4byte	0x2aba
 10413 2ab4 17       		.uleb128 0x17
 10414 2ab5 BA2A0000 		.4byte	0x2aba
 10415 2ab9 00       		.byte	0
 10416 2aba 06       		.uleb128 0x6
 10417 2abb 04       		.byte	0x4
 10418 2abc 16280000 		.4byte	0x2816
 10419 2ac0 08       		.uleb128 0x8
ARM GAS  C:\Users\USER\AppData\Local\Temp\ccRejSya.s 			page 184


 10420 2ac1 1D040000 		.4byte	.LASF555
 10421 2ac5 29       		.byte	0x29
 10422 2ac6 4B01     		.2byte	0x14b
 10423 2ac8 10       		.byte	0x10
 10424 2ac9 CD2A0000 		.4byte	0x2acd
 10425 2acd 06       		.uleb128 0x6
 10426 2ace 04       		.byte	0x4
 10427 2acf D32A0000 		.4byte	0x2ad3
 10428 2ad3 1F       		.uleb128 0x1f
 10429 2ad4 E32A0000 		.4byte	0x2ae3
 10430 2ad8 17       		.uleb128 0x17
 10431 2ad9 BA2A0000 		.4byte	0x2aba
 10432 2add 17       		.uleb128 0x17
 10433 2ade 65290000 		.4byte	0x2965
 10434 2ae2 00       		.byte	0
 10435 2ae3 08       		.uleb128 0x8
 10436 2ae4 16090000 		.4byte	.LASF556
 10437 2ae8 29       		.byte	0x29
 10438 2ae9 5401     		.2byte	0x154
 10439 2aeb 10       		.byte	0x10
 10440 2aec F02A0000 		.4byte	0x2af0
 10441 2af0 06       		.uleb128 0x6
 10442 2af1 04       		.byte	0x4
 10443 2af2 F62A0000 		.4byte	0x2af6
 10444 2af6 1F       		.uleb128 0x1f
 10445 2af7 062B0000 		.4byte	0x2b06
 10446 2afb 17       		.uleb128 0x17
 10447 2afc BA2A0000 		.4byte	0x2aba
 10448 2b00 17       		.uleb128 0x17
 10449 2b01 562A0000 		.4byte	0x2a56
 10450 2b05 00       		.byte	0
 10451 2b06 08       		.uleb128 0x8
 10452 2b07 50150000 		.4byte	.LASF557
 10453 2b0b 29       		.byte	0x29
 10454 2b0c 6001     		.2byte	0x160
 10455 2b0e 10       		.byte	0x10
 10456 2b0f 132B0000 		.4byte	0x2b13
 10457 2b13 06       		.uleb128 0x6
 10458 2b14 04       		.byte	0x4
 10459 2b15 192B0000 		.4byte	0x2b19
 10460 2b19 16       		.uleb128 0x16
 10461 2b1a 0B1B0000 		.4byte	0x1b0b
 10462 2b1e 282B0000 		.4byte	0x2b28
 10463 2b22 17       		.uleb128 0x17
 10464 2b23 BA2A0000 		.4byte	0x2aba
 10465 2b27 00       		.byte	0
 10466 2b28 08       		.uleb128 0x8
 10467 2b29 AE0C0000 		.4byte	.LASF558
 10468 2b2d 29       		.byte	0x29
 10469 2b2e 6501     		.2byte	0x165
 10470 2b30 21       		.byte	0x21
 10471 2b31 352B0000 		.4byte	0x2b35
 10472 2b35 06       		.uleb128 0x6
 10473 2b36 04       		.byte	0x4
 10474 2b37 3B2B0000 		.4byte	0x2b3b
 10475 2b3b 16       		.uleb128 0x16
 10476 2b3c 592B0000 		.4byte	0x2b59
ARM GAS  C:\Users\USER\AppData\Local\Temp\ccRejSya.s 			page 185


 10477 2b40 592B0000 		.4byte	0x2b59
 10478 2b44 17       		.uleb128 0x17
 10479 2b45 BA2A0000 		.4byte	0x2aba
 10480 2b49 17       		.uleb128 0x17
 10481 2b4a 5F090000 		.4byte	0x95f
 10482 2b4e 17       		.uleb128 0x17
 10483 2b4f 5F090000 		.4byte	0x95f
 10484 2b53 17       		.uleb128 0x17
 10485 2b54 70090000 		.4byte	0x970
 10486 2b58 00       		.byte	0
 10487 2b59 06       		.uleb128 0x6
 10488 2b5a 04       		.byte	0x4
 10489 2b5b 972A0000 		.4byte	0x2a97
 10490 2b5f 0D       		.uleb128 0xd
 10491 2b60 20       		.byte	0x20
 10492 2b61 2B       		.byte	0x2b
 10493 2b62 35       		.byte	0x35
 10494 2b63 09       		.byte	0x9
 10495 2b64 D12B0000 		.4byte	0x2bd1
 10496 2b68 0E       		.uleb128 0xe
 10497 2b69 A3020000 		.4byte	.LASF559
 10498 2b6d 2B       		.byte	0x2b
 10499 2b6e 36       		.byte	0x36
 10500 2b6f 15       		.byte	0x15
 10501 2b70 9E090000 		.4byte	0x99e
 10502 2b74 00       		.byte	0
 10503 2b75 0E       		.uleb128 0xe
 10504 2b76 AA0A0000 		.4byte	.LASF560
 10505 2b7a 2B       		.byte	0x2b
 10506 2b7b 38       		.byte	0x38
 10507 2b7c 15       		.byte	0x15
 10508 2b7d 9E090000 		.4byte	0x99e
 10509 2b81 04       		.byte	0x4
 10510 2b82 0E       		.uleb128 0xe
 10511 2b83 12020000 		.4byte	.LASF561
 10512 2b87 2B       		.byte	0x2b
 10513 2b88 39       		.byte	0x39
 10514 2b89 15       		.byte	0x15
 10515 2b8a 9E090000 		.4byte	0x99e
 10516 2b8e 08       		.byte	0x8
 10517 2b8f 0E       		.uleb128 0xe
 10518 2b90 04180000 		.4byte	.LASF562
 10519 2b94 2B       		.byte	0x2b
 10520 2b95 3A       		.byte	0x3a
 10521 2b96 15       		.byte	0x15
 10522 2b97 9E090000 		.4byte	0x99e
 10523 2b9b 0C       		.byte	0xc
 10524 2b9c 0E       		.uleb128 0xe
 10525 2b9d 4A100000 		.4byte	.LASF563
 10526 2ba1 2B       		.byte	0x2b
 10527 2ba2 3C       		.byte	0x3c
 10528 2ba3 15       		.byte	0x15
 10529 2ba4 9E090000 		.4byte	0x99e
 10530 2ba8 10       		.byte	0x10
 10531 2ba9 0E       		.uleb128 0xe
 10532 2baa F10A0000 		.4byte	.LASF564
 10533 2bae 2B       		.byte	0x2b
ARM GAS  C:\Users\USER\AppData\Local\Temp\ccRejSya.s 			page 186


 10534 2baf 3E       		.byte	0x3e
 10535 2bb0 15       		.byte	0x15
 10536 2bb1 9E090000 		.4byte	0x99e
 10537 2bb5 14       		.byte	0x14
 10538 2bb6 0E       		.uleb128 0xe
 10539 2bb7 040B0000 		.4byte	.LASF565
 10540 2bbb 2B       		.byte	0x2b
 10541 2bbc 3F       		.byte	0x3f
 10542 2bbd 15       		.byte	0x15
 10543 2bbe 9E090000 		.4byte	0x99e
 10544 2bc2 18       		.byte	0x18
 10545 2bc3 0E       		.uleb128 0xe
 10546 2bc4 2F030000 		.4byte	.LASF566
 10547 2bc8 2B       		.byte	0x2b
 10548 2bc9 40       		.byte	0x40
 10549 2bca 15       		.byte	0x15
 10550 2bcb 9E090000 		.4byte	0x99e
 10551 2bcf 1C       		.byte	0x1c
 10552 2bd0 00       		.byte	0
 10553 2bd1 04       		.uleb128 0x4
 10554 2bd2 A4170000 		.4byte	.LASF567
 10555 2bd6 2B       		.byte	0x2b
 10556 2bd7 41       		.byte	0x41
 10557 2bd8 03       		.byte	0x3
 10558 2bd9 5F2B0000 		.4byte	0x2b5f
 10559 2bdd 0D       		.uleb128 0xd
 10560 2bde 20       		.byte	0x20
 10561 2bdf 2B       		.byte	0x2b
 10562 2be0 46       		.byte	0x46
 10563 2be1 09       		.byte	0x9
 10564 2be2 4F2C0000 		.4byte	0x2c4f
 10565 2be6 0E       		.uleb128 0xe
 10566 2be7 440B0000 		.4byte	.LASF568
 10567 2beb 2B       		.byte	0x2b
 10568 2bec 47       		.byte	0x47
 10569 2bed 15       		.byte	0x15
 10570 2bee 9E090000 		.4byte	0x99e
 10571 2bf2 00       		.byte	0
 10572 2bf3 0E       		.uleb128 0xe
 10573 2bf4 9B0A0000 		.4byte	.LASF569
 10574 2bf8 2B       		.byte	0x2b
 10575 2bf9 49       		.byte	0x49
 10576 2bfa 15       		.byte	0x15
 10577 2bfb 9E090000 		.4byte	0x99e
 10578 2bff 04       		.byte	0x4
 10579 2c00 0E       		.uleb128 0xe
 10580 2c01 651B0000 		.4byte	.LASF570
 10581 2c05 2B       		.byte	0x2b
 10582 2c06 4A       		.byte	0x4a
 10583 2c07 15       		.byte	0x15
 10584 2c08 9E090000 		.4byte	0x99e
 10585 2c0c 08       		.byte	0x8
 10586 2c0d 0E       		.uleb128 0xe
 10587 2c0e 740E0000 		.4byte	.LASF571
 10588 2c12 2B       		.byte	0x2b
 10589 2c13 4C       		.byte	0x4c
 10590 2c14 15       		.byte	0x15
ARM GAS  C:\Users\USER\AppData\Local\Temp\ccRejSya.s 			page 187


 10591 2c15 9E090000 		.4byte	0x99e
 10592 2c19 0C       		.byte	0xc
 10593 2c1a 0E       		.uleb128 0xe
 10594 2c1b F6120000 		.4byte	.LASF572
 10595 2c1f 2B       		.byte	0x2b
 10596 2c20 4D       		.byte	0x4d
 10597 2c21 15       		.byte	0x15
 10598 2c22 9E090000 		.4byte	0x99e
 10599 2c26 10       		.byte	0x10
 10600 2c27 0E       		.uleb128 0xe
 10601 2c28 F10A0000 		.4byte	.LASF564
 10602 2c2c 2B       		.byte	0x2b
 10603 2c2d 4F       		.byte	0x4f
 10604 2c2e 15       		.byte	0x15
 10605 2c2f 9E090000 		.4byte	0x99e
 10606 2c33 14       		.byte	0x14
 10607 2c34 0E       		.uleb128 0xe
 10608 2c35 DB050000 		.4byte	.LASF573
 10609 2c39 2B       		.byte	0x2b
 10610 2c3a 50       		.byte	0x50
 10611 2c3b 15       		.byte	0x15
 10612 2c3c 9E090000 		.4byte	0x99e
 10613 2c40 18       		.byte	0x18
 10614 2c41 0E       		.uleb128 0xe
 10615 2c42 4E1B0000 		.4byte	.LASF574
 10616 2c46 2B       		.byte	0x2b
 10617 2c47 52       		.byte	0x52
 10618 2c48 15       		.byte	0x15
 10619 2c49 9E090000 		.4byte	0x99e
 10620 2c4d 1C       		.byte	0x1c
 10621 2c4e 00       		.byte	0
 10622 2c4f 04       		.uleb128 0x4
 10623 2c50 AF060000 		.4byte	.LASF575
 10624 2c54 2B       		.byte	0x2b
 10625 2c55 53       		.byte	0x53
 10626 2c56 03       		.byte	0x3
 10627 2c57 DD2B0000 		.4byte	0x2bdd
 10628 2c5b 0D       		.uleb128 0xd
 10629 2c5c 20       		.byte	0x20
 10630 2c5d 2B       		.byte	0x2b
 10631 2c5e 58       		.byte	0x58
 10632 2c5f 09       		.byte	0x9
 10633 2c60 CD2C0000 		.4byte	0x2ccd
 10634 2c64 0E       		.uleb128 0xe
 10635 2c65 37110000 		.4byte	.LASF576
 10636 2c69 2B       		.byte	0x2b
 10637 2c6a 59       		.byte	0x59
 10638 2c6b 15       		.byte	0x15
 10639 2c6c 9E090000 		.4byte	0x99e
 10640 2c70 00       		.byte	0
 10641 2c71 0E       		.uleb128 0xe
 10642 2c72 9B0A0000 		.4byte	.LASF569
 10643 2c76 2B       		.byte	0x2b
 10644 2c77 5B       		.byte	0x5b
 10645 2c78 15       		.byte	0x15
 10646 2c79 9E090000 		.4byte	0x99e
 10647 2c7d 04       		.byte	0x4
ARM GAS  C:\Users\USER\AppData\Local\Temp\ccRejSya.s 			page 188


 10648 2c7e 0E       		.uleb128 0xe
 10649 2c7f 28150000 		.4byte	.LASF577
 10650 2c83 2B       		.byte	0x2b
 10651 2c84 5C       		.byte	0x5c
 10652 2c85 15       		.byte	0x15
 10653 2c86 9E090000 		.4byte	0x99e
 10654 2c8a 08       		.byte	0x8
 10655 2c8b 0E       		.uleb128 0xe
 10656 2c8c 740E0000 		.4byte	.LASF571
 10657 2c90 2B       		.byte	0x2b
 10658 2c91 5E       		.byte	0x5e
 10659 2c92 15       		.byte	0x15
 10660 2c93 9E090000 		.4byte	0x99e
 10661 2c97 0C       		.byte	0xc
 10662 2c98 0E       		.uleb128 0xe
 10663 2c99 901C0000 		.4byte	.LASF578
 10664 2c9d 2B       		.byte	0x2b
 10665 2c9e 5F       		.byte	0x5f
 10666 2c9f 15       		.byte	0x15
 10667 2ca0 9E090000 		.4byte	0x99e
 10668 2ca4 10       		.byte	0x10
 10669 2ca5 0E       		.uleb128 0xe
 10670 2ca6 F10A0000 		.4byte	.LASF564
 10671 2caa 2B       		.byte	0x2b
 10672 2cab 61       		.byte	0x61
 10673 2cac 15       		.byte	0x15
 10674 2cad 9E090000 		.4byte	0x99e
 10675 2cb1 14       		.byte	0x14
 10676 2cb2 0E       		.uleb128 0xe
 10677 2cb3 040B0000 		.4byte	.LASF565
 10678 2cb7 2B       		.byte	0x2b
 10679 2cb8 62       		.byte	0x62
 10680 2cb9 15       		.byte	0x15
 10681 2cba 9E090000 		.4byte	0x99e
 10682 2cbe 18       		.byte	0x18
 10683 2cbf 0E       		.uleb128 0xe
 10684 2cc0 4E1B0000 		.4byte	.LASF574
 10685 2cc4 2B       		.byte	0x2b
 10686 2cc5 63       		.byte	0x63
 10687 2cc6 15       		.byte	0x15
 10688 2cc7 9E090000 		.4byte	0x99e
 10689 2ccb 1C       		.byte	0x1c
 10690 2ccc 00       		.byte	0
 10691 2ccd 04       		.uleb128 0x4
 10692 2cce 2A130000 		.4byte	.LASF579
 10693 2cd2 2B       		.byte	0x2b
 10694 2cd3 64       		.byte	0x64
 10695 2cd4 03       		.byte	0x3
 10696 2cd5 5B2C0000 		.4byte	0x2c5b
 10697 2cd9 2A       		.uleb128 0x2a
 10698 2cda 00100100 		.4byte	0x11000
 10699 2cde 2B       		.byte	0x2b
 10700 2cdf 69       		.byte	0x69
 10701 2ce0 09       		.byte	0x9
 10702 2ce1 F02F0000 		.4byte	0x2ff0
 10703 2ce5 0E       		.uleb128 0xe
 10704 2ce6 15040000 		.4byte	.LASF580
ARM GAS  C:\Users\USER\AppData\Local\Temp\ccRejSya.s 			page 189


 10705 2cea 2B       		.byte	0x2b
 10706 2ceb 6A       		.byte	0x6a
 10707 2cec 15       		.byte	0x15
 10708 2ced 9E090000 		.4byte	0x99e
 10709 2cf1 00       		.byte	0
 10710 2cf2 0E       		.uleb128 0xe
 10711 2cf3 DE090000 		.4byte	.LASF581
 10712 2cf7 2B       		.byte	0x2b
 10713 2cf8 6B       		.byte	0x6b
 10714 2cf9 15       		.byte	0x15
 10715 2cfa 9E090000 		.4byte	0x99e
 10716 2cfe 04       		.byte	0x4
 10717 2cff 0E       		.uleb128 0xe
 10718 2d00 02060000 		.4byte	.LASF582
 10719 2d04 2B       		.byte	0x2b
 10720 2d05 6C       		.byte	0x6c
 10721 2d06 15       		.byte	0x15
 10722 2d07 9E090000 		.4byte	0x99e
 10723 2d0b 08       		.byte	0x8
 10724 2d0c 0E       		.uleb128 0xe
 10725 2d0d AB1F0000 		.4byte	.LASF583
 10726 2d11 2B       		.byte	0x2b
 10727 2d12 6D       		.byte	0x6d
 10728 2d13 15       		.byte	0x15
 10729 2d14 9E090000 		.4byte	0x99e
 10730 2d18 0C       		.byte	0xc
 10731 2d19 0E       		.uleb128 0xe
 10732 2d1a 9F0F0000 		.4byte	.LASF584
 10733 2d1e 2B       		.byte	0x2b
 10734 2d1f 6E       		.byte	0x6e
 10735 2d20 15       		.byte	0x15
 10736 2d21 9E090000 		.4byte	0x99e
 10737 2d25 10       		.byte	0x10
 10738 2d26 0E       		.uleb128 0xe
 10739 2d27 F5020000 		.4byte	.LASF585
 10740 2d2b 2B       		.byte	0x2b
 10741 2d2c 6F       		.byte	0x6f
 10742 2d2d 15       		.byte	0x15
 10743 2d2e 9E090000 		.4byte	0x99e
 10744 2d32 14       		.byte	0x14
 10745 2d33 0E       		.uleb128 0xe
 10746 2d34 D1160000 		.4byte	.LASF586
 10747 2d38 2B       		.byte	0x2b
 10748 2d39 70       		.byte	0x70
 10749 2d3a 15       		.byte	0x15
 10750 2d3b 9E090000 		.4byte	0x99e
 10751 2d3f 18       		.byte	0x18
 10752 2d40 0E       		.uleb128 0xe
 10753 2d41 63060000 		.4byte	.LASF587
 10754 2d45 2B       		.byte	0x2b
 10755 2d46 71       		.byte	0x71
 10756 2d47 15       		.byte	0x15
 10757 2d48 9E090000 		.4byte	0x99e
 10758 2d4c 1C       		.byte	0x1c
 10759 2d4d 0E       		.uleb128 0xe
 10760 2d4e 5B060000 		.4byte	.LASF588
 10761 2d52 2B       		.byte	0x2b
ARM GAS  C:\Users\USER\AppData\Local\Temp\ccRejSya.s 			page 190


 10762 2d53 73       		.byte	0x73
 10763 2d54 15       		.byte	0x15
 10764 2d55 9E090000 		.4byte	0x99e
 10765 2d59 20       		.byte	0x20
 10766 2d5a 0E       		.uleb128 0xe
 10767 2d5b 8A160000 		.4byte	.LASF589
 10768 2d5f 2B       		.byte	0x2b
 10769 2d60 75       		.byte	0x75
 10770 2d61 15       		.byte	0x15
 10771 2d62 9E090000 		.4byte	0x99e
 10772 2d66 24       		.byte	0x24
 10773 2d67 0E       		.uleb128 0xe
 10774 2d68 78000000 		.4byte	.LASF590
 10775 2d6c 2B       		.byte	0x2b
 10776 2d6d 76       		.byte	0x76
 10777 2d6e 15       		.byte	0x15
 10778 2d6f 9E090000 		.4byte	0x99e
 10779 2d73 28       		.byte	0x28
 10780 2d74 0E       		.uleb128 0xe
 10781 2d75 E7160000 		.4byte	.LASF591
 10782 2d79 2B       		.byte	0x2b
 10783 2d7a 78       		.byte	0x78
 10784 2d7b 15       		.byte	0x15
 10785 2d7c 9E090000 		.4byte	0x99e
 10786 2d80 2C       		.byte	0x2c
 10787 2d81 0E       		.uleb128 0xe
 10788 2d82 120C0000 		.4byte	.LASF592
 10789 2d86 2B       		.byte	0x2b
 10790 2d87 7A       		.byte	0x7a
 10791 2d88 15       		.byte	0x15
 10792 2d89 9E090000 		.4byte	0x99e
 10793 2d8d 30       		.byte	0x30
 10794 2d8e 0E       		.uleb128 0xe
 10795 2d8f 7B1E0000 		.4byte	.LASF593
 10796 2d93 2B       		.byte	0x2b
 10797 2d94 7B       		.byte	0x7b
 10798 2d95 15       		.byte	0x15
 10799 2d96 9E090000 		.4byte	0x99e
 10800 2d9a 34       		.byte	0x34
 10801 2d9b 0E       		.uleb128 0xe
 10802 2d9c 64010000 		.4byte	.LASF594
 10803 2da0 2B       		.byte	0x2b
 10804 2da1 7C       		.byte	0x7c
 10805 2da2 15       		.byte	0x15
 10806 2da3 9E090000 		.4byte	0x99e
 10807 2da7 38       		.byte	0x38
 10808 2da8 12       		.uleb128 0x12
 10809 2da9 43494400 		.ascii	"CID\000"
 10810 2dad 2B       		.byte	0x2b
 10811 2dae 7D       		.byte	0x7d
 10812 2daf 15       		.byte	0x15
 10813 2db0 9E090000 		.4byte	0x99e
 10814 2db4 3C       		.byte	0x3c
 10815 2db5 0E       		.uleb128 0xe
 10816 2db6 6D0D0000 		.4byte	.LASF595
 10817 2dba 2B       		.byte	0x2b
 10818 2dbb 7E       		.byte	0x7e
ARM GAS  C:\Users\USER\AppData\Local\Temp\ccRejSya.s 			page 191


 10819 2dbc 15       		.byte	0x15
 10820 2dbd 00300000 		.4byte	0x3000
 10821 2dc1 40       		.byte	0x40
 10822 2dc2 14       		.uleb128 0x14
 10823 2dc3 761D0000 		.4byte	.LASF596
 10824 2dc7 2B       		.byte	0x2b
 10825 2dc8 7F       		.byte	0x7f
 10826 2dc9 15       		.byte	0x15
 10827 2dca 9E090000 		.4byte	0x99e
 10828 2dce 0001     		.2byte	0x100
 10829 2dd0 14       		.uleb128 0x14
 10830 2dd1 B5010000 		.4byte	.LASF597
 10831 2dd5 2B       		.byte	0x2b
 10832 2dd6 81       		.byte	0x81
 10833 2dd7 15       		.byte	0x15
 10834 2dd8 5D140000 		.4byte	0x145d
 10835 2ddc 0401     		.2byte	0x104
 10836 2dde 14       		.uleb128 0x14
 10837 2ddf F1100000 		.4byte	.LASF598
 10838 2de3 2B       		.byte	0x2b
 10839 2de4 83       		.byte	0x83
 10840 2de5 15       		.byte	0x15
 10841 2de6 15300000 		.4byte	0x3015
 10842 2dea 4001     		.2byte	0x140
 10843 2dec 14       		.uleb128 0x14
 10844 2ded C6140000 		.4byte	.LASF599
 10845 2df1 2B       		.byte	0x2b
 10846 2df2 84       		.byte	0x84
 10847 2df3 15       		.byte	0x15
 10848 2df4 9E090000 		.4byte	0x99e
 10849 2df8 0004     		.2byte	0x400
 10850 2dfa 14       		.uleb128 0x14
 10851 2dfb 4B1F0000 		.4byte	.LASF600
 10852 2dff 2B       		.byte	0x2b
 10853 2e00 85       		.byte	0x85
 10854 2e01 15       		.byte	0x15
 10855 2e02 9E090000 		.4byte	0x99e
 10856 2e06 0404     		.2byte	0x404
 10857 2e08 14       		.uleb128 0x14
 10858 2e09 8C030000 		.4byte	.LASF601
 10859 2e0d 2B       		.byte	0x2b
 10860 2e0e 86       		.byte	0x86
 10861 2e0f 15       		.byte	0x15
 10862 2e10 9E090000 		.4byte	0x99e
 10863 2e14 0804     		.2byte	0x408
 10864 2e16 14       		.uleb128 0x14
 10865 2e17 330A0000 		.4byte	.LASF602
 10866 2e1b 2B       		.byte	0x2b
 10867 2e1c 88       		.byte	0x88
 10868 2e1d 15       		.byte	0x15
 10869 2e1e 9E090000 		.4byte	0x99e
 10870 2e22 0C04     		.2byte	0x40c
 10871 2e24 14       		.uleb128 0x14
 10872 2e25 74020000 		.4byte	.LASF603
 10873 2e29 2B       		.byte	0x2b
 10874 2e2a 89       		.byte	0x89
 10875 2e2b 15       		.byte	0x15
ARM GAS  C:\Users\USER\AppData\Local\Temp\ccRejSya.s 			page 192


 10876 2e2c 9E090000 		.4byte	0x99e
 10877 2e30 1004     		.2byte	0x410
 10878 2e32 14       		.uleb128 0x14
 10879 2e33 42030000 		.4byte	.LASF604
 10880 2e37 2B       		.byte	0x2b
 10881 2e38 8B       		.byte	0x8b
 10882 2e39 15       		.byte	0x15
 10883 2e3a 9E090000 		.4byte	0x99e
 10884 2e3e 1404     		.2byte	0x414
 10885 2e40 14       		.uleb128 0x14
 10886 2e41 F9090000 		.4byte	.LASF605
 10887 2e45 2B       		.byte	0x2b
 10888 2e46 8D       		.byte	0x8d
 10889 2e47 15       		.byte	0x15
 10890 2e48 9E090000 		.4byte	0x99e
 10891 2e4c 1804     		.2byte	0x418
 10892 2e4e 14       		.uleb128 0x14
 10893 2e4f DD180000 		.4byte	.LASF606
 10894 2e53 2B       		.byte	0x2b
 10895 2e54 8F       		.byte	0x8f
 10896 2e55 15       		.byte	0x15
 10897 2e56 2A300000 		.4byte	0x302a
 10898 2e5a 1C04     		.2byte	0x41c
 10899 2e5c 14       		.uleb128 0x14
 10900 2e5d 0D020000 		.4byte	.LASF607
 10901 2e61 2B       		.byte	0x2b
 10902 2e62 90       		.byte	0x90
 10903 2e63 15       		.byte	0x15
 10904 2e64 9E090000 		.4byte	0x99e
 10905 2e68 4004     		.2byte	0x440
 10906 2e6a 14       		.uleb128 0x14
 10907 2e6b 6D1A0000 		.4byte	.LASF608
 10908 2e6f 2B       		.byte	0x2b
 10909 2e70 92       		.byte	0x92
 10910 2e71 15       		.byte	0x15
 10911 2e72 3F300000 		.4byte	0x303f
 10912 2e76 4404     		.2byte	0x444
 10913 2e78 2B       		.uleb128 0x2b
 10914 2e79 686300   		.ascii	"hc\000"
 10915 2e7c 2B       		.byte	0x2b
 10916 2e7d 93       		.byte	0x93
 10917 2e7e 18       		.byte	0x18
 10918 2e7f 44300000 		.4byte	0x3044
 10919 2e83 0005     		.2byte	0x500
 10920 2e85 14       		.uleb128 0x14
 10921 2e86 E4000000 		.4byte	.LASF609
 10922 2e8a 2B       		.byte	0x2b
 10923 2e8b 94       		.byte	0x94
 10924 2e8c 15       		.byte	0x15
 10925 2e8d 64300000 		.4byte	0x3064
 10926 2e91 0007     		.2byte	0x700
 10927 2e93 14       		.uleb128 0x14
 10928 2e94 F0190000 		.4byte	.LASF610
 10929 2e98 2B       		.byte	0x2b
 10930 2e99 95       		.byte	0x95
 10931 2e9a 15       		.byte	0x15
 10932 2e9b 9E090000 		.4byte	0x99e
ARM GAS  C:\Users\USER\AppData\Local\Temp\ccRejSya.s 			page 193


 10933 2e9f 0008     		.2byte	0x800
 10934 2ea1 14       		.uleb128 0x14
 10935 2ea2 301E0000 		.4byte	.LASF611
 10936 2ea6 2B       		.byte	0x2b
 10937 2ea7 96       		.byte	0x96
 10938 2ea8 15       		.byte	0x15
 10939 2ea9 9E090000 		.4byte	0x99e
 10940 2ead 0408     		.2byte	0x804
 10941 2eaf 14       		.uleb128 0x14
 10942 2eb0 FE0E0000 		.4byte	.LASF612
 10943 2eb4 2B       		.byte	0x2b
 10944 2eb5 97       		.byte	0x97
 10945 2eb6 15       		.byte	0x15
 10946 2eb7 9E090000 		.4byte	0x99e
 10947 2ebb 0808     		.2byte	0x808
 10948 2ebd 14       		.uleb128 0x14
 10949 2ebe 03040000 		.4byte	.LASF613
 10950 2ec2 2B       		.byte	0x2b
 10951 2ec3 98       		.byte	0x98
 10952 2ec4 15       		.byte	0x15
 10953 2ec5 9E090000 		.4byte	0x99e
 10954 2ec9 0C08     		.2byte	0x80c
 10955 2ecb 14       		.uleb128 0x14
 10956 2ecc D6090000 		.4byte	.LASF614
 10957 2ed0 2B       		.byte	0x2b
 10958 2ed1 99       		.byte	0x99
 10959 2ed2 15       		.byte	0x15
 10960 2ed3 9E090000 		.4byte	0x99e
 10961 2ed7 1008     		.2byte	0x810
 10962 2ed9 14       		.uleb128 0x14
 10963 2eda 911B0000 		.4byte	.LASF615
 10964 2ede 2B       		.byte	0x2b
 10965 2edf 9B       		.byte	0x9b
 10966 2ee0 15       		.byte	0x15
 10967 2ee1 9E090000 		.4byte	0x99e
 10968 2ee5 1408     		.2byte	0x814
 10969 2ee7 14       		.uleb128 0x14
 10970 2ee8 0E1C0000 		.4byte	.LASF616
 10971 2eec 2B       		.byte	0x2b
 10972 2eed 9D       		.byte	0x9d
 10973 2eee 15       		.byte	0x15
 10974 2eef 9E090000 		.4byte	0x99e
 10975 2ef3 1808     		.2byte	0x818
 10976 2ef5 14       		.uleb128 0x14
 10977 2ef6 6A190000 		.4byte	.LASF617
 10978 2efa 2B       		.byte	0x2b
 10979 2efb 9F       		.byte	0x9f
 10980 2efc 15       		.byte	0x15
 10981 2efd 9E090000 		.4byte	0x99e
 10982 2f01 1C08     		.2byte	0x81c
 10983 2f03 14       		.uleb128 0x14
 10984 2f04 17050000 		.4byte	.LASF618
 10985 2f08 2B       		.byte	0x2b
 10986 2f09 A1       		.byte	0xa1
 10987 2f0a 15       		.byte	0x15
 10988 2f0b 9E090000 		.4byte	0x99e
 10989 2f0f 2008     		.2byte	0x820
ARM GAS  C:\Users\USER\AppData\Local\Temp\ccRejSya.s 			page 194


 10990 2f11 14       		.uleb128 0x14
 10991 2f12 4A040000 		.4byte	.LASF619
 10992 2f16 2B       		.byte	0x2b
 10993 2f17 A2       		.byte	0xa2
 10994 2f18 15       		.byte	0x15
 10995 2f19 9E090000 		.4byte	0x99e
 10996 2f1d 2408     		.2byte	0x824
 10997 2f1f 14       		.uleb128 0x14
 10998 2f20 ED000000 		.4byte	.LASF620
 10999 2f24 2B       		.byte	0x2b
 11000 2f25 A3       		.byte	0xa3
 11001 2f26 15       		.byte	0x15
 11002 2f27 9E090000 		.4byte	0x99e
 11003 2f2b 2808     		.2byte	0x828
 11004 2f2d 14       		.uleb128 0x14
 11005 2f2e BF050000 		.4byte	.LASF621
 11006 2f32 2B       		.byte	0x2b
 11007 2f33 A5       		.byte	0xa5
 11008 2f34 15       		.byte	0x15
 11009 2f35 9E090000 		.4byte	0x99e
 11010 2f39 2C08     		.2byte	0x82c
 11011 2f3b 14       		.uleb128 0x14
 11012 2f3c 89050000 		.4byte	.LASF622
 11013 2f40 2B       		.byte	0x2b
 11014 2f41 A7       		.byte	0xa7
 11015 2f42 15       		.byte	0x15
 11016 2f43 9E090000 		.4byte	0x99e
 11017 2f47 3008     		.2byte	0x830
 11018 2f49 14       		.uleb128 0x14
 11019 2f4a 270B0000 		.4byte	.LASF623
 11020 2f4e 2B       		.byte	0x2b
 11021 2f4f A8       		.byte	0xa8
 11022 2f50 15       		.byte	0x15
 11023 2f51 9E090000 		.4byte	0x99e
 11024 2f55 3408     		.2byte	0x834
 11025 2f57 14       		.uleb128 0x14
 11026 2f58 97050000 		.4byte	.LASF624
 11027 2f5c 2B       		.byte	0x2b
 11028 2f5d AA       		.byte	0xaa
 11029 2f5e 15       		.byte	0x15
 11030 2f5f 9E090000 		.4byte	0x99e
 11031 2f63 3808     		.2byte	0x838
 11032 2f65 14       		.uleb128 0x14
 11033 2f66 AF050000 		.4byte	.LASF625
 11034 2f6a 2B       		.byte	0x2b
 11035 2f6b AB       		.byte	0xab
 11036 2f6c 15       		.byte	0x15
 11037 2f6d 9E090000 		.4byte	0x99e
 11038 2f71 3C08     		.2byte	0x83c
 11039 2f73 14       		.uleb128 0x14
 11040 2f74 12060000 		.4byte	.LASF626
 11041 2f78 2B       		.byte	0x2b
 11042 2f79 AC       		.byte	0xac
 11043 2f7a 15       		.byte	0x15
 11044 2f7b 79300000 		.4byte	0x3079
 11045 2f7f 4008     		.2byte	0x840
 11046 2f81 14       		.uleb128 0x14
ARM GAS  C:\Users\USER\AppData\Local\Temp\ccRejSya.s 			page 195


 11047 2f82 C70A0000 		.4byte	.LASF627
 11048 2f86 2B       		.byte	0x2b
 11049 2f87 AD       		.byte	0xad
 11050 2f88 15       		.byte	0x15
 11051 2f89 79300000 		.4byte	0x3079
 11052 2f8d 8008     		.2byte	0x880
 11053 2f8f 14       		.uleb128 0x14
 11054 2f90 610E0000 		.4byte	.LASF628
 11055 2f94 2B       		.byte	0x2b
 11056 2f95 AE       		.byte	0xae
 11057 2f96 15       		.byte	0x15
 11058 2f97 79300000 		.4byte	0x3079
 11059 2f9b C008     		.2byte	0x8c0
 11060 2f9d 2B       		.uleb128 0x2b
 11061 2f9e 696500   		.ascii	"ie\000"
 11062 2fa1 2B       		.byte	0x2b
 11063 2fa2 AF       		.byte	0xaf
 11064 2fa3 15       		.byte	0x15
 11065 2fa4 7E300000 		.4byte	0x307e
 11066 2fa8 0009     		.2byte	0x900
 11067 2faa 2B       		.uleb128 0x2b
 11068 2fab 6F6500   		.ascii	"oe\000"
 11069 2fae 2B       		.byte	0x2b
 11070 2faf B0       		.byte	0xb0
 11071 2fb0 16       		.byte	0x16
 11072 2fb1 8E300000 		.4byte	0x308e
 11073 2fb5 000B     		.2byte	0xb00
 11074 2fb7 14       		.uleb128 0x14
 11075 2fb8 6D090000 		.4byte	.LASF629
 11076 2fbc 2B       		.byte	0x2b
 11077 2fbd B1       		.byte	0xb1
 11078 2fbe 15       		.byte	0x15
 11079 2fbf 64300000 		.4byte	0x3064
 11080 2fc3 000D     		.2byte	0xd00
 11081 2fc5 14       		.uleb128 0x14
 11082 2fc6 3B1E0000 		.4byte	.LASF630
 11083 2fca 2B       		.byte	0x2b
 11084 2fcb B2       		.byte	0xb2
 11085 2fcc 15       		.byte	0x15
 11086 2fcd 9E090000 		.4byte	0x99e
 11087 2fd1 000E     		.2byte	0xe00
 11088 2fd3 14       		.uleb128 0x14
 11089 2fd4 780C0000 		.4byte	.LASF631
 11090 2fd8 2B       		.byte	0x2b
 11091 2fd9 B4       		.byte	0xb4
 11092 2fda 15       		.byte	0x15
 11093 2fdb AE300000 		.4byte	0x30ae
 11094 2fdf 040E     		.2byte	0xe04
 11095 2fe1 14       		.uleb128 0x14
 11096 2fe2 1E1E0000 		.4byte	.LASF632
 11097 2fe6 2B       		.byte	0x2b
 11098 2fe7 B5       		.byte	0xb5
 11099 2fe8 15       		.byte	0x15
 11100 2fe9 CA300000 		.4byte	0x30ca
 11101 2fed 0010     		.2byte	0x1000
 11102 2fef 00       		.byte	0
 11103 2ff0 0B       		.uleb128 0xb
ARM GAS  C:\Users\USER\AppData\Local\Temp\ccRejSya.s 			page 196


 11104 2ff1 9E090000 		.4byte	0x99e
 11105 2ff5 00300000 		.4byte	0x3000
 11106 2ff9 0C       		.uleb128 0xc
 11107 2ffa 25000000 		.4byte	0x25
 11108 2ffe 2F       		.byte	0x2f
 11109 2fff 00       		.byte	0
 11110 3000 05       		.uleb128 0x5
 11111 3001 F02F0000 		.4byte	0x2ff0
 11112 3005 0B       		.uleb128 0xb
 11113 3006 9E090000 		.4byte	0x99e
 11114 300a 15300000 		.4byte	0x3015
 11115 300e 0C       		.uleb128 0xc
 11116 300f 25000000 		.4byte	0x25
 11117 3013 AF       		.byte	0xaf
 11118 3014 00       		.byte	0
 11119 3015 05       		.uleb128 0x5
 11120 3016 05300000 		.4byte	0x3005
 11121 301a 0B       		.uleb128 0xb
 11122 301b 9E090000 		.4byte	0x99e
 11123 301f 2A300000 		.4byte	0x302a
 11124 3023 0C       		.uleb128 0xc
 11125 3024 25000000 		.4byte	0x25
 11126 3028 08       		.byte	0x8
 11127 3029 00       		.byte	0
 11128 302a 05       		.uleb128 0x5
 11129 302b 1A300000 		.4byte	0x301a
 11130 302f 0B       		.uleb128 0xb
 11131 3030 9E090000 		.4byte	0x99e
 11132 3034 3F300000 		.4byte	0x303f
 11133 3038 0C       		.uleb128 0xc
 11134 3039 25000000 		.4byte	0x25
 11135 303d 2E       		.byte	0x2e
 11136 303e 00       		.byte	0
 11137 303f 05       		.uleb128 0x5
 11138 3040 2F300000 		.4byte	0x302f
 11139 3044 0B       		.uleb128 0xb
 11140 3045 D12B0000 		.4byte	0x2bd1
 11141 3049 54300000 		.4byte	0x3054
 11142 304d 0C       		.uleb128 0xc
 11143 304e 25000000 		.4byte	0x25
 11144 3052 0F       		.byte	0xf
 11145 3053 00       		.byte	0
 11146 3054 0B       		.uleb128 0xb
 11147 3055 9E090000 		.4byte	0x99e
 11148 3059 64300000 		.4byte	0x3064
 11149 305d 0C       		.uleb128 0xc
 11150 305e 25000000 		.4byte	0x25
 11151 3062 3F       		.byte	0x3f
 11152 3063 00       		.byte	0
 11153 3064 05       		.uleb128 0x5
 11154 3065 54300000 		.4byte	0x3054
 11155 3069 0B       		.uleb128 0xb
 11156 306a 9E090000 		.4byte	0x99e
 11157 306e 79300000 		.4byte	0x3079
 11158 3072 0C       		.uleb128 0xc
 11159 3073 25000000 		.4byte	0x25
 11160 3077 0F       		.byte	0xf
ARM GAS  C:\Users\USER\AppData\Local\Temp\ccRejSya.s 			page 197


 11161 3078 00       		.byte	0
 11162 3079 05       		.uleb128 0x5
 11163 307a 69300000 		.4byte	0x3069
 11164 307e 0B       		.uleb128 0xb
 11165 307f 4F2C0000 		.4byte	0x2c4f
 11166 3083 8E300000 		.4byte	0x308e
 11167 3087 0C       		.uleb128 0xc
 11168 3088 25000000 		.4byte	0x25
 11169 308c 0F       		.byte	0xf
 11170 308d 00       		.byte	0
 11171 308e 0B       		.uleb128 0xb
 11172 308f CD2C0000 		.4byte	0x2ccd
 11173 3093 9E300000 		.4byte	0x309e
 11174 3097 0C       		.uleb128 0xc
 11175 3098 25000000 		.4byte	0x25
 11176 309c 0F       		.byte	0xf
 11177 309d 00       		.byte	0
 11178 309e 0B       		.uleb128 0xb
 11179 309f 9E090000 		.4byte	0x99e
 11180 30a3 AE300000 		.4byte	0x30ae
 11181 30a7 0C       		.uleb128 0xc
 11182 30a8 25000000 		.4byte	0x25
 11183 30ac 7E       		.byte	0x7e
 11184 30ad 00       		.byte	0
 11185 30ae 05       		.uleb128 0x5
 11186 30af 9E300000 		.4byte	0x309e
 11187 30b3 0B       		.uleb128 0xb
 11188 30b4 9E090000 		.4byte	0x99e
 11189 30b8 CA300000 		.4byte	0x30ca
 11190 30bc 0C       		.uleb128 0xc
 11191 30bd 25000000 		.4byte	0x25
 11192 30c1 0F       		.byte	0xf
 11193 30c2 2C       		.uleb128 0x2c
 11194 30c3 25000000 		.4byte	0x25
 11195 30c7 FF03     		.2byte	0x3ff
 11196 30c9 00       		.byte	0
 11197 30ca 05       		.uleb128 0x5
 11198 30cb B3300000 		.4byte	0x30b3
 11199 30cf 04       		.uleb128 0x4
 11200 30d0 E01F0000 		.4byte	.LASF633
 11201 30d4 2B       		.byte	0x2b
 11202 30d5 B6       		.byte	0xb6
 11203 30d6 03       		.byte	0x3
 11204 30d7 D92C0000 		.4byte	0x2cd9
 11205 30db 0D       		.uleb128 0xd
 11206 30dc 0C       		.byte	0xc
 11207 30dd 2A       		.byte	0x2a
 11208 30de C6       		.byte	0xc6
 11209 30df 09       		.byte	0x9
 11210 30e0 0C310000 		.4byte	0x310c
 11211 30e4 0E       		.uleb128 0xe
 11212 30e5 5B070000 		.4byte	.LASF634
 11213 30e9 2A       		.byte	0x2a
 11214 30ea C7       		.byte	0xc7
 11215 30eb 21       		.byte	0x21
 11216 30ec 92090000 		.4byte	0x992
 11217 30f0 00       		.byte	0
ARM GAS  C:\Users\USER\AppData\Local\Temp\ccRejSya.s 			page 198


 11218 30f1 0E       		.uleb128 0xe
 11219 30f2 3E090000 		.4byte	.LASF635
 11220 30f6 2A       		.byte	0x2a
 11221 30f7 C8       		.byte	0xc8
 11222 30f8 21       		.byte	0x21
 11223 30f9 92090000 		.4byte	0x992
 11224 30fd 04       		.byte	0x4
 11225 30fe 0E       		.uleb128 0xe
 11226 30ff 810C0000 		.4byte	.LASF636
 11227 3103 2A       		.byte	0x2a
 11228 3104 C9       		.byte	0xc9
 11229 3105 21       		.byte	0x21
 11230 3106 92090000 		.4byte	0x992
 11231 310a 08       		.byte	0x8
 11232 310b 00       		.byte	0
 11233 310c 04       		.uleb128 0x4
 11234 310d 5A090000 		.4byte	.LASF637
 11235 3111 2A       		.byte	0x2a
 11236 3112 CA       		.byte	0xca
 11237 3113 03       		.byte	0x3
 11238 3114 DB300000 		.4byte	0x30db
 11239 3118 10       		.uleb128 0x10
 11240 3119 0C310000 		.4byte	0x310c
 11241 311d 0D       		.uleb128 0xd
 11242 311e 04       		.byte	0x4
 11243 311f 2A       		.byte	0x2a
 11244 3120 DD       		.byte	0xdd
 11245 3121 05       		.byte	0x5
 11246 3122 34310000 		.4byte	0x3134
 11247 3126 0E       		.uleb128 0xe
 11248 3127 351E0000 		.4byte	.LASF638
 11249 312b 2A       		.byte	0x2a
 11250 312c E1       		.byte	0xe1
 11251 312d 22       		.byte	0x22
 11252 312e A6190000 		.4byte	0x19a6
 11253 3132 00       		.byte	0
 11254 3133 00       		.byte	0
 11255 3134 0D       		.uleb128 0xd
 11256 3135 04       		.byte	0x4
 11257 3136 2A       		.byte	0x2a
 11258 3137 E3       		.byte	0xe3
 11259 3138 05       		.byte	0x5
 11260 3139 4B310000 		.4byte	0x314b
 11261 313d 0E       		.uleb128 0xe
 11262 313e B2070000 		.4byte	.LASF372
 11263 3142 2A       		.byte	0x2a
 11264 3143 E7       		.byte	0xe7
 11265 3144 22       		.byte	0x22
 11266 3145 4B310000 		.4byte	0x314b
 11267 3149 00       		.byte	0
 11268 314a 00       		.byte	0
 11269 314b 06       		.uleb128 0x6
 11270 314c 04       		.byte	0x4
 11271 314d 81190000 		.4byte	0x1981
 11272 3151 09       		.uleb128 0x9
 11273 3152 04       		.byte	0x4
 11274 3153 2A       		.byte	0x2a
ARM GAS  C:\Users\USER\AppData\Local\Temp\ccRejSya.s 			page 199


 11275 3154 DC       		.byte	0xdc
 11276 3155 03       		.byte	0x3
 11277 3156 73310000 		.4byte	0x3173
 11278 315a 0A       		.uleb128 0xa
 11279 315b A61A0000 		.4byte	.LASF639
 11280 315f 2A       		.byte	0x2a
 11281 3160 E2       		.byte	0xe2
 11282 3161 07       		.byte	0x7
 11283 3162 1D310000 		.4byte	0x311d
 11284 3166 0A       		.uleb128 0xa
 11285 3167 AC190000 		.4byte	.LASF640
 11286 316b 2A       		.byte	0x2a
 11287 316c E8       		.byte	0xe8
 11288 316d 07       		.byte	0x7
 11289 316e 34310000 		.4byte	0x3134
 11290 3172 00       		.byte	0
 11291 3173 0D       		.uleb128 0xd
 11292 3174 14       		.byte	0x14
 11293 3175 2A       		.byte	0x2a
 11294 3176 CF       		.byte	0xcf
 11295 3177 09       		.byte	0x9
 11296 3178 BE310000 		.4byte	0x31be
 11297 317c 0E       		.uleb128 0xe
 11298 317d 3F060000 		.4byte	.LASF641
 11299 3181 2A       		.byte	0x2a
 11300 3182 D3       		.byte	0xd3
 11301 3183 21       		.byte	0x21
 11302 3184 0B1B0000 		.4byte	0x1b0b
 11303 3188 00       		.byte	0
 11304 3189 0E       		.uleb128 0xe
 11305 318a 510F0000 		.4byte	.LASF642
 11306 318e 2A       		.byte	0x2a
 11307 318f D7       		.byte	0xd7
 11308 3190 21       		.byte	0x21
 11309 3191 33000000 		.4byte	0x33
 11310 3195 04       		.byte	0x4
 11311 3196 0E       		.uleb128 0xe
 11312 3197 C01D0000 		.4byte	.LASF643
 11313 319b 2A       		.byte	0x2a
 11314 319c DB       		.byte	0xdb
 11315 319d 21       		.byte	0x21
 11316 319e 33000000 		.4byte	0x33
 11317 31a2 08       		.byte	0x8
 11318 31a3 0E       		.uleb128 0xe
 11319 31a4 DB060000 		.4byte	.LASF440
 11320 31a8 2A       		.byte	0x2a
 11321 31a9 E9       		.byte	0xe9
 11322 31aa 05       		.byte	0x5
 11323 31ab 51310000 		.4byte	0x3151
 11324 31af 0C       		.byte	0xc
 11325 31b0 0E       		.uleb128 0xe
 11326 31b1 8F0C0000 		.4byte	.LASF644
 11327 31b5 2A       		.byte	0x2a
 11328 31b6 ED       		.byte	0xed
 11329 31b7 21       		.byte	0x21
 11330 31b8 33000000 		.4byte	0x33
 11331 31bc 10       		.byte	0x10
ARM GAS  C:\Users\USER\AppData\Local\Temp\ccRejSya.s 			page 200


 11332 31bd 00       		.byte	0
 11333 31be 04       		.uleb128 0x4
 11334 31bf 750D0000 		.4byte	.LASF645
 11335 31c3 2A       		.byte	0x2a
 11336 31c4 EE       		.byte	0xee
 11337 31c5 03       		.byte	0x3
 11338 31c6 73310000 		.4byte	0x3173
 11339 31ca 1C       		.uleb128 0x1c
 11340 31cb 04       		.byte	0x4
 11341 31cc 2A       		.byte	0x2a
 11342 31cd 0101     		.2byte	0x101
 11343 31cf 05       		.byte	0x5
 11344 31d0 E3310000 		.4byte	0x31e3
 11345 31d4 19       		.uleb128 0x19
 11346 31d5 7D090000 		.4byte	.LASF495
 11347 31d9 2A       		.byte	0x2a
 11348 31da 0501     		.2byte	0x105
 11349 31dc 22       		.byte	0x22
 11350 31dd 6F190000 		.4byte	0x196f
 11351 31e1 00       		.byte	0
 11352 31e2 00       		.byte	0
 11353 31e3 1C       		.uleb128 0x1c
 11354 31e4 04       		.byte	0x4
 11355 31e5 2A       		.byte	0x2a
 11356 31e6 0701     		.2byte	0x107
 11357 31e8 05       		.byte	0x5
 11358 31e9 FC310000 		.4byte	0x31fc
 11359 31ed 19       		.uleb128 0x19
 11360 31ee 651A0000 		.4byte	.LASF373
 11361 31f2 2A       		.byte	0x2a
 11362 31f3 0B01     		.2byte	0x10b
 11363 31f5 21       		.byte	0x21
 11364 31f6 FC310000 		.4byte	0x31fc
 11365 31fa 00       		.byte	0
 11366 31fb 00       		.byte	0
 11367 31fc 06       		.uleb128 0x6
 11368 31fd 04       		.byte	0x4
 11369 31fe 75190000 		.4byte	0x1975
 11370 3202 1D       		.uleb128 0x1d
 11371 3203 04       		.byte	0x4
 11372 3204 2A       		.byte	0x2a
 11373 3205 0001     		.2byte	0x100
 11374 3207 03       		.byte	0x3
 11375 3208 27320000 		.4byte	0x3227
 11376 320c 1E       		.uleb128 0x1e
 11377 320d A61A0000 		.4byte	.LASF639
 11378 3211 2A       		.byte	0x2a
 11379 3212 0601     		.2byte	0x106
 11380 3214 07       		.byte	0x7
 11381 3215 CA310000 		.4byte	0x31ca
 11382 3219 1E       		.uleb128 0x1e
 11383 321a AC190000 		.4byte	.LASF640
 11384 321e 2A       		.byte	0x2a
 11385 321f 0C01     		.2byte	0x10c
 11386 3221 07       		.byte	0x7
 11387 3222 E3310000 		.4byte	0x31e3
 11388 3226 00       		.byte	0
ARM GAS  C:\Users\USER\AppData\Local\Temp\ccRejSya.s 			page 201


 11389 3227 0D       		.uleb128 0xd
 11390 3228 14       		.byte	0x14
 11391 3229 2A       		.byte	0x2a
 11392 322a F3       		.byte	0xf3
 11393 322b 09       		.byte	0x9
 11394 322c 74320000 		.4byte	0x3274
 11395 3230 0E       		.uleb128 0xe
 11396 3231 E1040000 		.4byte	.LASF646
 11397 3235 2A       		.byte	0x2a
 11398 3236 F7       		.byte	0xf7
 11399 3237 21       		.byte	0x21
 11400 3238 0B1B0000 		.4byte	0x1b0b
 11401 323c 00       		.byte	0
 11402 323d 0E       		.uleb128 0xe
 11403 323e 1D100000 		.4byte	.LASF647
 11404 3242 2A       		.byte	0x2a
 11405 3243 FB       		.byte	0xfb
 11406 3244 21       		.byte	0x21
 11407 3245 33000000 		.4byte	0x33
 11408 3249 04       		.byte	0x4
 11409 324a 0E       		.uleb128 0xe
 11410 324b C1060000 		.4byte	.LASF648
 11411 324f 2A       		.byte	0x2a
 11412 3250 FF       		.byte	0xff
 11413 3251 21       		.byte	0x21
 11414 3252 33000000 		.4byte	0x33
 11415 3256 08       		.byte	0x8
 11416 3257 19       		.uleb128 0x19
 11417 3258 DB060000 		.4byte	.LASF440
 11418 325c 2A       		.byte	0x2a
 11419 325d 0D01     		.2byte	0x10d
 11420 325f 05       		.byte	0x5
 11421 3260 02320000 		.4byte	0x3202
 11422 3264 0C       		.byte	0xc
 11423 3265 19       		.uleb128 0x19
 11424 3266 8F0C0000 		.4byte	.LASF644
 11425 326a 2A       		.byte	0x2a
 11426 326b 1101     		.2byte	0x111
 11427 326d 21       		.byte	0x21
 11428 326e 33000000 		.4byte	0x33
 11429 3272 10       		.byte	0x10
 11430 3273 00       		.byte	0
 11431 3274 08       		.uleb128 0x8
 11432 3275 C9180000 		.4byte	.LASF649
 11433 3279 2A       		.byte	0x2a
 11434 327a 1201     		.2byte	0x112
 11435 327c 03       		.byte	0x3
 11436 327d 27320000 		.4byte	0x3227
 11437 3281 1C       		.uleb128 0x1c
 11438 3282 24       		.byte	0x24
 11439 3283 2A       		.byte	0x2a
 11440 3284 1801     		.2byte	0x118
 11441 3286 09       		.byte	0x9
 11442 3287 18330000 		.4byte	0x3318
 11443 328b 19       		.uleb128 0x19
 11444 328c 22130000 		.4byte	.LASF650
 11445 3290 2A       		.byte	0x2a
ARM GAS  C:\Users\USER\AppData\Local\Temp\ccRejSya.s 			page 202


 11446 3291 1C01     		.2byte	0x11c
 11447 3293 21       		.byte	0x21
 11448 3294 92090000 		.4byte	0x992
 11449 3298 00       		.byte	0
 11450 3299 19       		.uleb128 0x19
 11451 329a 84070000 		.4byte	.LASF651
 11452 329e 2A       		.byte	0x2a
 11453 329f 2701     		.2byte	0x127
 11454 32a1 21       		.byte	0x21
 11455 32a2 C02A0000 		.4byte	0x2ac0
 11456 32a6 04       		.byte	0x4
 11457 32a7 19       		.uleb128 0x19
 11458 32a8 22150000 		.4byte	.LASF652
 11459 32ac 2A       		.byte	0x2a
 11460 32ad 2D01     		.2byte	0x12d
 11461 32af 21       		.byte	0x21
 11462 32b0 C02A0000 		.4byte	0x2ac0
 11463 32b4 08       		.byte	0x8
 11464 32b5 19       		.uleb128 0x19
 11465 32b6 F2090000 		.4byte	.LASF653
 11466 32ba 2A       		.byte	0x2a
 11467 32bb 3301     		.2byte	0x133
 11468 32bd 21       		.byte	0x21
 11469 32be C02A0000 		.4byte	0x2ac0
 11470 32c2 0C       		.byte	0xc
 11471 32c3 19       		.uleb128 0x19
 11472 32c4 22200000 		.4byte	.LASF654
 11473 32c8 2A       		.byte	0x2a
 11474 32c9 3901     		.2byte	0x139
 11475 32cb 21       		.byte	0x21
 11476 32cc 70090000 		.4byte	0x970
 11477 32d0 10       		.byte	0x10
 11478 32d1 19       		.uleb128 0x19
 11479 32d2 FF0C0000 		.4byte	.LASF655
 11480 32d6 2A       		.byte	0x2a
 11481 32d7 3F01     		.2byte	0x13f
 11482 32d9 21       		.byte	0x21
 11483 32da 70090000 		.4byte	0x970
 11484 32de 12       		.byte	0x12
 11485 32df 19       		.uleb128 0x19
 11486 32e0 DD1E0000 		.4byte	.LASF656
 11487 32e4 2A       		.byte	0x2a
 11488 32e5 4401     		.2byte	0x144
 11489 32e7 22       		.byte	0x22
 11490 32e8 18330000 		.4byte	0x3318
 11491 32ec 14       		.byte	0x14
 11492 32ed 19       		.uleb128 0x19
 11493 32ee 9F0B0000 		.4byte	.LASF657
 11494 32f2 2A       		.byte	0x2a
 11495 32f3 4901     		.2byte	0x149
 11496 32f5 22       		.byte	0x22
 11497 32f6 1E330000 		.4byte	0x331e
 11498 32fa 18       		.byte	0x18
 11499 32fb 19       		.uleb128 0x19
 11500 32fc CA0E0000 		.4byte	.LASF658
 11501 3300 2A       		.byte	0x2a
 11502 3301 5001     		.2byte	0x150
ARM GAS  C:\Users\USER\AppData\Local\Temp\ccRejSya.s 			page 203


 11503 3303 21       		.byte	0x21
 11504 3304 70090000 		.4byte	0x970
 11505 3308 1C       		.byte	0x1c
 11506 3309 19       		.uleb128 0x19
 11507 330a 711E0000 		.4byte	.LASF659
 11508 330e 2A       		.byte	0x2a
 11509 330f 5601     		.2byte	0x156
 11510 3311 22       		.byte	0x22
 11511 3312 6F190000 		.4byte	0x196f
 11512 3316 20       		.byte	0x20
 11513 3317 00       		.byte	0
 11514 3318 06       		.uleb128 0x6
 11515 3319 04       		.byte	0x4
 11516 331a BE310000 		.4byte	0x31be
 11517 331e 06       		.uleb128 0x6
 11518 331f 04       		.byte	0x4
 11519 3320 74320000 		.4byte	0x3274
 11520 3324 08       		.uleb128 0x8
 11521 3325 531A0000 		.4byte	.LASF660
 11522 3329 2A       		.byte	0x2a
 11523 332a 5701     		.2byte	0x157
 11524 332c 03       		.byte	0x3
 11525 332d 81320000 		.4byte	0x3281
 11526 3331 10       		.uleb128 0x10
 11527 3332 24330000 		.4byte	0x3324
 11528 3336 1C       		.uleb128 0x1c
 11529 3337 10       		.byte	0x10
 11530 3338 2A       		.byte	0x2a
 11531 3339 5C01     		.2byte	0x15c
 11532 333b 09       		.byte	0x9
 11533 333c 79330000 		.4byte	0x3379
 11534 3340 19       		.uleb128 0x19
 11535 3341 0C040000 		.4byte	.LASF661
 11536 3345 2A       		.byte	0x2a
 11537 3346 6101     		.2byte	0x161
 11538 3348 21       		.byte	0x21
 11539 3349 E32A0000 		.4byte	0x2ae3
 11540 334d 00       		.byte	0
 11541 334e 19       		.uleb128 0x19
 11542 334f D71D0000 		.4byte	.LASF662
 11543 3353 2A       		.byte	0x2a
 11544 3354 6601     		.2byte	0x166
 11545 3356 21       		.byte	0x21
 11546 3357 282B0000 		.4byte	0x2b28
 11547 335b 04       		.byte	0x4
 11548 335c 19       		.uleb128 0x19
 11549 335d 310F0000 		.4byte	.LASF663
 11550 3361 2A       		.byte	0x2a
 11551 3362 6C01     		.2byte	0x16c
 11552 3364 21       		.byte	0x21
 11553 3365 062B0000 		.4byte	0x2b06
 11554 3369 08       		.byte	0x8
 11555 336a 19       		.uleb128 0x19
 11556 336b 9A010000 		.4byte	.LASF664
 11557 336f 2A       		.byte	0x2a
 11558 3370 7001     		.2byte	0x170
 11559 3372 21       		.byte	0x21
ARM GAS  C:\Users\USER\AppData\Local\Temp\ccRejSya.s 			page 204


 11560 3373 9C2A0000 		.4byte	0x2a9c
 11561 3377 0C       		.byte	0xc
 11562 3378 00       		.byte	0
 11563 3379 08       		.uleb128 0x8
 11564 337a 6A0E0000 		.4byte	.LASF665
 11565 337e 2A       		.byte	0x2a
 11566 337f 7201     		.2byte	0x172
 11567 3381 03       		.byte	0x3
 11568 3382 36330000 		.4byte	0x3336
 11569 3386 10       		.uleb128 0x10
 11570 3387 79330000 		.4byte	0x3379
 11571 338b 06       		.uleb128 0x6
 11572 338c 04       		.byte	0x4
 11573 338d 86330000 		.4byte	0x3386
 11574 3391 0B       		.uleb128 0xb
 11575 3392 A1330000 		.4byte	0x33a1
 11576 3396 A1330000 		.4byte	0x33a1
 11577 339a 0C       		.uleb128 0xc
 11578 339b 25000000 		.4byte	0x25
 11579 339f 03       		.byte	0x3
 11580 33a0 00       		.byte	0
 11581 33a1 06       		.uleb128 0x6
 11582 33a2 04       		.byte	0x4
 11583 33a3 31330000 		.4byte	0x3331
 11584 33a7 0B       		.uleb128 0xb
 11585 33a8 62010000 		.4byte	0x162
 11586 33ac B7330000 		.4byte	0x33b7
 11587 33b0 0C       		.uleb128 0xc
 11588 33b1 25000000 		.4byte	0x25
 11589 33b5 02       		.byte	0x2
 11590 33b6 00       		.byte	0
 11591 33b7 06       		.uleb128 0x6
 11592 33b8 04       		.byte	0x4
 11593 33b9 CF300000 		.4byte	0x30cf
 11594 33bd 06       		.uleb128 0x6
 11595 33be 04       		.byte	0x4
 11596 33bf 18310000 		.4byte	0x3118
 11597 33c3 0B       		.uleb128 0xb
 11598 33c4 6E140000 		.4byte	0x146e
 11599 33c8 D3330000 		.4byte	0x33d3
 11600 33cc 0C       		.uleb128 0xc
 11601 33cd 25000000 		.4byte	0x25
 11602 33d1 42       		.byte	0x42
 11603 33d2 00       		.byte	0
 11604 33d3 20       		.uleb128 0x20
 11605 33d4 81000000 		.4byte	.LASF666
 11606 33d8 2A       		.byte	0x2a
 11607 33d9 0602     		.2byte	0x206
 11608 33db 12       		.byte	0x12
 11609 33dc 16280000 		.4byte	0x2816
 11610 33e0 2D       		.uleb128 0x2d
 11611 33e1 D3330000 		.4byte	0x33d3
 11612 33e5 01       		.byte	0x1
 11613 33e6 2E       		.byte	0x2e
 11614 33e7 0B       		.byte	0xb
 11615 33e8 05       		.uleb128 0x5
 11616 33e9 03       		.byte	0x3
ARM GAS  C:\Users\USER\AppData\Local\Temp\ccRejSya.s 			page 205


 11617 33ea 00000000 		.4byte	USBD1
 11618 33ee 09       		.uleb128 0x9
 11619 33ef 14       		.byte	0x14
 11620 33f0 01       		.byte	0x1
 11621 33f1 3F       		.byte	0x3f
 11622 33f2 08       		.byte	0x8
 11623 33f3 0F340000 		.4byte	0x340f
 11624 33f7 26       		.uleb128 0x26
 11625 33f8 696E00   		.ascii	"in\000"
 11626 33fb 01       		.byte	0x1
 11627 33fc 43       		.byte	0x43
 11628 33fd 16       		.byte	0x16
 11629 33fe BE310000 		.4byte	0x31be
 11630 3402 26       		.uleb128 0x26
 11631 3403 6F757400 		.ascii	"out\000"
 11632 3407 01       		.byte	0x1
 11633 3408 47       		.byte	0x47
 11634 3409 17       		.byte	0x17
 11635 340a 74320000 		.4byte	0x3274
 11636 340e 00       		.byte	0
 11637 340f 2E       		.uleb128 0x2e
 11638 3410 22170000 		.4byte	.LASF667
 11639 3414 01       		.byte	0x1
 11640 3415 48       		.byte	0x48
 11641 3416 03       		.byte	0x3
 11642 3417 EE330000 		.4byte	0x33ee
 11643 341b 05       		.uleb128 0x5
 11644 341c 03       		.byte	0x3
 11645 341d 00000000 		.4byte	ep0_state
 11646 3421 2E       		.uleb128 0x2e
 11647 3422 FA070000 		.4byte	.LASF668
 11648 3426 01       		.byte	0x1
 11649 3427 4D       		.byte	0x4d
 11650 3428 10       		.byte	0x10
 11651 3429 581D0000 		.4byte	0x1d58
 11652 342d 05       		.uleb128 0x5
 11653 342e 03       		.byte	0x3
 11654 342f 00000000 		.4byte	ep0setup_buffer
 11655 3433 2E       		.uleb128 0x2e
 11656 3434 62020000 		.4byte	.LASF669
 11657 3438 01       		.byte	0x1
 11658 3439 52       		.byte	0x52
 11659 343a 20       		.byte	0x20
 11660 343b 31330000 		.4byte	0x3331
 11661 343f 05       		.uleb128 0x5
 11662 3440 03       		.byte	0x3
 11663 3441 00000000 		.4byte	ep0config
 11664 3445 2E       		.uleb128 0x2e
 11665 3446 46050000 		.4byte	.LASF670
 11666 344a 01       		.byte	0x1
 11667 344b 60       		.byte	0x60
 11668 344c 21       		.byte	0x21
 11669 344d 18310000 		.4byte	0x3118
 11670 3451 05       		.uleb128 0x5
 11671 3452 03       		.byte	0x3
 11672 3453 00000000 		.4byte	fsparams
 11673 3457 2F       		.uleb128 0x2f
ARM GAS  C:\Users\USER\AppData\Local\Temp\ccRejSya.s 			page 206


 11674 3458 BC160000 		.4byte	.LASF675
 11675 345c 01       		.byte	0x1
 11676 345d 0E05     		.2byte	0x50e
 11677 345f 06       		.byte	0x6
 11678 3460 00000000 		.4byte	.LFB292
 11679 3464 86030000 		.4byte	.LFE292-.LFB292
 11680 3468 01       		.uleb128 0x1
 11681 3469 9C       		.byte	0x9c
 11682 346a B63D0000 		.4byte	0x3db6
 11683 346e 30       		.uleb128 0x30
 11684 346f 7000     		.ascii	"p\000"
 11685 3471 01       		.byte	0x1
 11686 3472 0E05     		.2byte	0x50e
 11687 3474 19       		.byte	0x19
 11688 3475 62010000 		.4byte	0x162
 11689 3479 04000000 		.4byte	.LLST0
 11690 347d 00000000 		.4byte	.LVUS0
 11691 3481 31       		.uleb128 0x31
 11692 3482 801C0000 		.4byte	.LASF671
 11693 3486 01       		.byte	0x1
 11694 3487 0F05     		.2byte	0x50f
 11695 3489 0E       		.byte	0xe
 11696 348a BA2A0000 		.4byte	0x2aba
 11697 348e 26000000 		.4byte	.LLST1
 11698 3492 22000000 		.4byte	.LVUS1
 11699 3496 31       		.uleb128 0x31
 11700 3497 7D170000 		.4byte	.LASF672
 11701 349b 01       		.byte	0x1
 11702 349c 1005     		.2byte	0x510
 11703 349e 10       		.byte	0x10
 11704 349f B7330000 		.4byte	0x33b7
 11705 34a3 48000000 		.4byte	.LLST2
 11706 34a7 44000000 		.4byte	.LVUS2
 11707 34ab 32       		.uleb128 0x32
 11708 34ac 48000000 		.4byte	.Ldebug_ranges0+0x48
 11709 34b0 333D0000 		.4byte	0x3d33
 11710 34b4 33       		.uleb128 0x33
 11711 34b5 657000   		.ascii	"ep\000"
 11712 34b8 01       		.byte	0x1
 11713 34b9 1705     		.2byte	0x517
 11714 34bb 0D       		.byte	0xd
 11715 34bc 65290000 		.4byte	0x2965
 11716 34c0 6A000000 		.4byte	.LLST5
 11717 34c4 66000000 		.4byte	.LVUS5
 11718 34c8 31       		.uleb128 0x31
 11719 34c9 F1150000 		.4byte	.LASF673
 11720 34cd 01       		.byte	0x1
 11721 34ce 1805     		.2byte	0x518
 11722 34d0 0E       		.byte	0xe
 11723 34d1 92090000 		.4byte	0x992
 11724 34d5 91000000 		.4byte	.LLST6
 11725 34d9 89000000 		.4byte	.LVUS6
 11726 34dd 32       		.uleb128 0x32
 11727 34de 10040000 		.4byte	.Ldebug_ranges0+0x410
 11728 34e2 47390000 		.4byte	0x3947
 11729 34e6 31       		.uleb128 0x31
 11730 34e7 C20B0000 		.4byte	.LASF674
ARM GAS  C:\Users\USER\AppData\Local\Temp\ccRejSya.s 			page 207


 11731 34eb 01       		.byte	0x1
 11732 34ec 2C05     		.2byte	0x52c
 11733 34ee 0E       		.byte	0xe
 11734 34ef 0B1B0000 		.4byte	0x1b0b
 11735 34f3 CD000000 		.4byte	.LLST36
 11736 34f7 C7000000 		.4byte	.LVUS36
 11737 34fb 34       		.uleb128 0x34
 11738 34fc AC4E0000 		.4byte	0x4eac
 11739 3500 BA010000 		.4byte	.LBI561
 11740 3504 0300     		.2byte	.LVU282
 11741 3506 00050000 		.4byte	.Ldebug_ranges0+0x500
 11742 350a 01       		.byte	0x1
 11743 350b 2E05     		.2byte	0x52e
 11744 350d 09       		.byte	0x9
 11745 350e 60350000 		.4byte	0x3560
 11746 3512 35       		.uleb128 0x35
 11747 3513 374F0000 		.4byte	0x4f37
 11748 3517 BA010000 		.4byte	.LBI562
 11749 351b 0500     		.2byte	.LVU284
 11750 351d 08050000 		.4byte	.Ldebug_ranges0+0x508
 11751 3521 03       		.byte	0x3
 11752 3522 ED01     		.2byte	0x1ed
 11753 3524 03       		.byte	0x3
 11754 3525 35       		.uleb128 0x35
 11755 3526 5F4F0000 		.4byte	0x4f5f
 11756 352a BA010000 		.4byte	.LBI563
 11757 352e 0700     		.2byte	.LVU286
 11758 3530 10050000 		.4byte	.Ldebug_ranges0+0x510
 11759 3534 04       		.byte	0x4
 11760 3535 5C01     		.2byte	0x15c
 11761 3537 03       		.byte	0x3
 11762 3538 36       		.uleb128 0x36
 11763 3539 694F0000 		.4byte	0x4f69
 11764 353d BA010000 		.4byte	.LBI564
 11765 3541 0900     		.2byte	.LVU288
 11766 3543 BA010000 		.4byte	.LBB564
 11767 3547 06000000 		.4byte	.LBE564-.LBB564
 11768 354b 05       		.byte	0x5
 11769 354c BF01     		.2byte	0x1bf
 11770 354e 03       		.byte	0x3
 11771 354f 37       		.uleb128 0x37
 11772 3550 774F0000 		.4byte	0x4f77
 11773 3554 FA000000 		.4byte	.LLST37
 11774 3558 F8000000 		.4byte	.LVUS37
 11775 355c 00       		.byte	0
 11776 355d 00       		.byte	0
 11777 355e 00       		.byte	0
 11778 355f 00       		.byte	0
 11779 3560 34       		.uleb128 0x34
 11780 3561 A24E0000 		.4byte	0x4ea2
 11781 3565 D6010000 		.4byte	.LBI572
 11782 3569 0100     		.2byte	.LVU302
 11783 356b 28050000 		.4byte	.Ldebug_ranges0+0x528
 11784 356f 01       		.byte	0x1
 11785 3570 3805     		.2byte	0x538
 11786 3572 09       		.byte	0x9
 11787 3573 CB350000 		.4byte	0x35cb
ARM GAS  C:\Users\USER\AppData\Local\Temp\ccRejSya.s 			page 208


 11788 3577 35       		.uleb128 0x35
 11789 3578 1F4F0000 		.4byte	0x4f1f
 11790 357c D6010000 		.4byte	.LBI573
 11791 3580 0300     		.2byte	.LVU304
 11792 3582 30050000 		.4byte	.Ldebug_ranges0+0x530
 11793 3586 03       		.byte	0x3
 11794 3587 F801     		.2byte	0x1f8
 11795 3589 03       		.byte	0x3
 11796 358a 38       		.uleb128 0x38
 11797 358b 30050000 		.4byte	.Ldebug_ranges0+0x530
 11798 358f 35       		.uleb128 0x35
 11799 3590 554F0000 		.4byte	0x4f55
 11800 3594 D6010000 		.4byte	.LBI575
 11801 3598 0900     		.2byte	.LVU310
 11802 359a 30050000 		.4byte	.Ldebug_ranges0+0x530
 11803 359e 04       		.byte	0x4
 11804 359f 7301     		.2byte	0x173
 11805 35a1 03       		.byte	0x3
 11806 35a2 36       		.uleb128 0x36
 11807 35a3 694F0000 		.4byte	0x4f69
 11808 35a7 D6010000 		.4byte	.LBI576
 11809 35ab 0B00     		.2byte	.LVU312
 11810 35ad D6010000 		.4byte	.LBB576
 11811 35b1 04000000 		.4byte	.LBE576-.LBB576
 11812 35b5 05       		.byte	0x5
 11813 35b6 CD01     		.2byte	0x1cd
 11814 35b8 03       		.byte	0x3
 11815 35b9 37       		.uleb128 0x37
 11816 35ba 774F0000 		.4byte	0x4f77
 11817 35be 11010000 		.4byte	.LLST38
 11818 35c2 0F010000 		.4byte	.LVUS38
 11819 35c6 00       		.byte	0
 11820 35c7 00       		.byte	0
 11821 35c8 00       		.byte	0
 11822 35c9 00       		.byte	0
 11823 35ca 00       		.byte	0
 11824 35cb 34       		.uleb128 0x34
 11825 35cc 604A0000 		.4byte	0x4a60
 11826 35d0 DA010000 		.4byte	.LBI583
 11827 35d4 0200     		.2byte	.LVU316
 11828 35d6 48050000 		.4byte	.Ldebug_ranges0+0x548
 11829 35da 01       		.byte	0x1
 11830 35db 3A05     		.2byte	0x53a
 11831 35dd 10       		.byte	0x10
 11832 35de 7E380000 		.4byte	0x387e
 11833 35e2 39       		.uleb128 0x39
 11834 35e3 7F4A0000 		.4byte	0x4a7f
 11835 35e7 37       		.uleb128 0x37
 11836 35e8 724A0000 		.4byte	0x4a72
 11837 35ec 29010000 		.4byte	.LLST39
 11838 35f0 25010000 		.4byte	.LVUS39
 11839 35f4 3A       		.uleb128 0x3a
 11840 35f5 8B4A0000 		.4byte	0x4a8b
 11841 35f9 50050000 		.4byte	.Ldebug_ranges0+0x550
 11842 35fd 3B       		.uleb128 0x3b
 11843 35fe 8C4A0000 		.4byte	0x4a8c
 11844 3602 57010000 		.4byte	.LLST40
ARM GAS  C:\Users\USER\AppData\Local\Temp\ccRejSya.s 			page 209


 11845 3606 47010000 		.4byte	.LVUS40
 11846 360a 34       		.uleb128 0x34
 11847 360b EF4B0000 		.4byte	0x4bef
 11848 360f 26020000 		.4byte	.LBI585
 11849 3613 0100     		.2byte	.LVU337
 11850 3615 A0050000 		.4byte	.Ldebug_ranges0+0x5a0
 11851 3619 01       		.byte	0x1
 11852 361a FB01     		.2byte	0x1fb
 11853 361c 07       		.byte	0x7
 11854 361d 0E380000 		.4byte	0x380e
 11855 3621 37       		.uleb128 0x37
 11856 3622 174C0000 		.4byte	0x4c17
 11857 3626 C1010000 		.4byte	.LLST41
 11858 362a B7010000 		.4byte	.LVUS41
 11859 362e 37       		.uleb128 0x37
 11860 362f 0A4C0000 		.4byte	0x4c0a
 11861 3633 02020000 		.4byte	.LLST42
 11862 3637 00020000 		.4byte	.LVUS42
 11863 363b 39       		.uleb128 0x39
 11864 363c FD4B0000 		.4byte	0x4bfd
 11865 3640 38       		.uleb128 0x38
 11866 3641 A0050000 		.4byte	.Ldebug_ranges0+0x5a0
 11867 3645 3B       		.uleb128 0x3b
 11868 3646 224C0000 		.4byte	0x4c22
 11869 364a 22020000 		.4byte	.LLST43
 11870 364e 16020000 		.4byte	.LVUS43
 11871 3652 3C       		.uleb128 0x3c
 11872 3653 2F4C0000 		.4byte	0x4c2f
 11873 3657 F0050000 		.4byte	.Ldebug_ranges0+0x5f0
 11874 365b D6360000 		.4byte	0x36d6
 11875 365f 3B       		.uleb128 0x3b
 11876 3660 304C0000 		.4byte	0x4c30
 11877 3664 72020000 		.4byte	.LLST44
 11878 3668 6E020000 		.4byte	.LVUS44
 11879 366c 3D       		.uleb128 0x3d
 11880 366d 3B4C0000 		.4byte	0x4c3b
 11881 3671 3B       		.uleb128 0x3b
 11882 3672 464C0000 		.4byte	0x4c46
 11883 3676 96020000 		.4byte	.LLST45
 11884 367a 90020000 		.4byte	.LVUS45
 11885 367e 3A       		.uleb128 0x3a
 11886 367f 524C0000 		.4byte	0x4c52
 11887 3683 10060000 		.4byte	.Ldebug_ranges0+0x610
 11888 3687 3B       		.uleb128 0x3b
 11889 3688 534C0000 		.4byte	0x4c53
 11890 368c CB020000 		.4byte	.LLST46
 11891 3690 C7020000 		.4byte	.LVUS46
 11892 3694 3B       		.uleb128 0x3b
 11893 3695 604C0000 		.4byte	0x4c60
 11894 3699 EF020000 		.4byte	.LLST47
 11895 369d E9020000 		.4byte	.LVUS47
 11896 36a1 35       		.uleb128 0x35
 11897 36a2 A04C0000 		.4byte	0x4ca0
 11898 36a6 4C020000 		.4byte	.LBI589
 11899 36aa 0100     		.2byte	.LVU358
 11900 36ac 30060000 		.4byte	.Ldebug_ranges0+0x630
 11901 36b0 01       		.byte	0x1
ARM GAS  C:\Users\USER\AppData\Local\Temp\ccRejSya.s 			page 210


 11902 36b1 1B01     		.2byte	0x11b
 11903 36b3 16       		.byte	0x16
 11904 36b4 37       		.uleb128 0x37
 11905 36b5 C94C0000 		.4byte	0x4cc9
 11906 36b9 32030000 		.4byte	.LLST48
 11907 36bd 2E030000 		.4byte	.LVUS48
 11908 36c1 37       		.uleb128 0x37
 11909 36c2 BD4C0000 		.4byte	0x4cbd
 11910 36c6 56030000 		.4byte	.LLST49
 11911 36ca 50030000 		.4byte	.LVUS49
 11912 36ce 39       		.uleb128 0x39
 11913 36cf B14C0000 		.4byte	0x4cb1
 11914 36d3 00       		.byte	0
 11915 36d4 00       		.byte	0
 11916 36d5 00       		.byte	0
 11917 36d6 34       		.uleb128 0x34
 11918 36d7 AC4E0000 		.4byte	0x4eac
 11919 36db 6E020000 		.4byte	.LBI595
 11920 36df 0100     		.2byte	.LVU380
 11921 36e1 48060000 		.4byte	.Ldebug_ranges0+0x648
 11922 36e5 01       		.byte	0x1
 11923 36e6 3501     		.2byte	0x135
 11924 36e8 03       		.byte	0x3
 11925 36e9 3B370000 		.4byte	0x373b
 11926 36ed 35       		.uleb128 0x35
 11927 36ee 374F0000 		.4byte	0x4f37
 11928 36f2 6E020000 		.4byte	.LBI596
 11929 36f6 0300     		.2byte	.LVU382
 11930 36f8 50060000 		.4byte	.Ldebug_ranges0+0x650
 11931 36fc 03       		.byte	0x3
 11932 36fd ED01     		.2byte	0x1ed
 11933 36ff 03       		.byte	0x3
 11934 3700 35       		.uleb128 0x35
 11935 3701 5F4F0000 		.4byte	0x4f5f
 11936 3705 6E020000 		.4byte	.LBI597
 11937 3709 0500     		.2byte	.LVU384
 11938 370b 58060000 		.4byte	.Ldebug_ranges0+0x658
 11939 370f 04       		.byte	0x4
 11940 3710 5C01     		.2byte	0x15c
 11941 3712 03       		.byte	0x3
 11942 3713 36       		.uleb128 0x36
 11943 3714 694F0000 		.4byte	0x4f69
 11944 3718 6E020000 		.4byte	.LBI598
 11945 371c 0700     		.2byte	.LVU386
 11946 371e 6E020000 		.4byte	.LBB598
 11947 3722 06000000 		.4byte	.LBE598-.LBB598
 11948 3726 05       		.byte	0x5
 11949 3727 BF01     		.2byte	0x1bf
 11950 3729 03       		.byte	0x3
 11951 372a 37       		.uleb128 0x37
 11952 372b 774F0000 		.4byte	0x4f77
 11953 372f 83030000 		.4byte	.LLST50
 11954 3733 81030000 		.4byte	.LVUS50
 11955 3737 00       		.byte	0
 11956 3738 00       		.byte	0
 11957 3739 00       		.byte	0
 11958 373a 00       		.byte	0
ARM GAS  C:\Users\USER\AppData\Local\Temp\ccRejSya.s 			page 211


 11959 373b 3E       		.uleb128 0x3e
 11960 373c F04D0000 		.4byte	0x4df0
 11961 3740 7A020000 		.4byte	.LBI606
 11962 3744 0100     		.2byte	.LVU394
 11963 3746 7A020000 		.4byte	.LBB606
 11964 374a 06000000 		.4byte	.LBE606-.LBB606
 11965 374e 01       		.byte	0x1
 11966 374f 3701     		.2byte	0x137
 11967 3751 03       		.byte	0x3
 11968 3752 80370000 		.4byte	0x3780
 11969 3756 37       		.uleb128 0x37
 11970 3757 0B4E0000 		.4byte	0x4e0b
 11971 375b 9A030000 		.4byte	.LLST51
 11972 375f 98030000 		.4byte	.LVUS51
 11973 3763 37       		.uleb128 0x37
 11974 3764 FE4D0000 		.4byte	0x4dfe
 11975 3768 B0030000 		.4byte	.LLST52
 11976 376c AE030000 		.4byte	.LVUS52
 11977 3770 3F       		.uleb128 0x3f
 11978 3771 80020000 		.4byte	.LVL86
 11979 3775 93540000 		.4byte	0x5493
 11980 3779 40       		.uleb128 0x40
 11981 377a 01       		.uleb128 0x1
 11982 377b 51       		.byte	0x51
 11983 377c 01       		.uleb128 0x1
 11984 377d 30       		.byte	0x30
 11985 377e 00       		.byte	0
 11986 377f 00       		.byte	0
 11987 3780 3E       		.uleb128 0x3e
 11988 3781 684E0000 		.4byte	0x4e68
 11989 3785 80020000 		.4byte	.LBI608
 11990 3789 0200     		.2byte	.LVU398
 11991 378b 80020000 		.4byte	.LBB608
 11992 378f 04000000 		.4byte	.LBE608-.LBB608
 11993 3793 01       		.byte	0x1
 11994 3794 3801     		.2byte	0x138
 11995 3796 03       		.byte	0x3
 11996 3797 A5370000 		.4byte	0x37a5
 11997 379b 41       		.uleb128 0x41
 11998 379c 84020000 		.4byte	.LVL87
 11999 37a0 9F540000 		.4byte	0x549f
 12000 37a4 00       		.byte	0
 12001 37a5 35       		.uleb128 0x35
 12002 37a6 A24E0000 		.4byte	0x4ea2
 12003 37aa 84020000 		.4byte	.LBI610
 12004 37ae 0100     		.2byte	.LVU401
 12005 37b0 70060000 		.4byte	.Ldebug_ranges0+0x670
 12006 37b4 01       		.byte	0x1
 12007 37b5 3901     		.2byte	0x139
 12008 37b7 03       		.byte	0x3
 12009 37b8 35       		.uleb128 0x35
 12010 37b9 1F4F0000 		.4byte	0x4f1f
 12011 37bd 84020000 		.4byte	.LBI611
 12012 37c1 0300     		.2byte	.LVU403
 12013 37c3 78060000 		.4byte	.Ldebug_ranges0+0x678
 12014 37c7 03       		.byte	0x3
 12015 37c8 F801     		.2byte	0x1f8
ARM GAS  C:\Users\USER\AppData\Local\Temp\ccRejSya.s 			page 212


 12016 37ca 03       		.byte	0x3
 12017 37cb 38       		.uleb128 0x38
 12018 37cc 78060000 		.4byte	.Ldebug_ranges0+0x678
 12019 37d0 35       		.uleb128 0x35
 12020 37d1 554F0000 		.4byte	0x4f55
 12021 37d5 84020000 		.4byte	.LBI613
 12022 37d9 0900     		.2byte	.LVU409
 12023 37db 78060000 		.4byte	.Ldebug_ranges0+0x678
 12024 37df 04       		.byte	0x4
 12025 37e0 7301     		.2byte	0x173
 12026 37e2 03       		.byte	0x3
 12027 37e3 36       		.uleb128 0x36
 12028 37e4 694F0000 		.4byte	0x4f69
 12029 37e8 84020000 		.4byte	.LBI614
 12030 37ec 0B00     		.2byte	.LVU411
 12031 37ee 84020000 		.4byte	.LBB614
 12032 37f2 08000000 		.4byte	.LBE614-.LBB614
 12033 37f6 05       		.byte	0x5
 12034 37f7 CD01     		.2byte	0x1cd
 12035 37f9 03       		.byte	0x3
 12036 37fa 37       		.uleb128 0x37
 12037 37fb 774F0000 		.4byte	0x4f77
 12038 37ff C5030000 		.4byte	.LLST53
 12039 3803 C3030000 		.4byte	.LVUS53
 12040 3807 00       		.byte	0
 12041 3808 00       		.byte	0
 12042 3809 00       		.byte	0
 12043 380a 00       		.byte	0
 12044 380b 00       		.byte	0
 12045 380c 00       		.byte	0
 12046 380d 00       		.byte	0
 12047 380e 36       		.uleb128 0x36
 12048 380f 704C0000 		.4byte	0x4c70
 12049 3813 26030000 		.4byte	.LBI638
 12050 3817 0200     		.2byte	.LVU495
 12051 3819 26030000 		.4byte	.LBB638
 12052 381d 1E000000 		.4byte	.LBE638-.LBB638
 12053 3821 01       		.byte	0x1
 12054 3822 0102     		.2byte	0x201
 12055 3824 07       		.byte	0x7
 12056 3825 37       		.uleb128 0x37
 12057 3826 954C0000 		.4byte	0x4c95
 12058 382a DB030000 		.4byte	.LLST54
 12059 382e D9030000 		.4byte	.LVUS54
 12060 3832 37       		.uleb128 0x37
 12061 3833 894C0000 		.4byte	0x4c89
 12062 3837 F0030000 		.4byte	.LLST55
 12063 383b EE030000 		.4byte	.LVUS55
 12064 383f 39       		.uleb128 0x39
 12065 3840 7D4C0000 		.4byte	0x4c7d
 12066 3844 36       		.uleb128 0x36
 12067 3845 A04C0000 		.4byte	0x4ca0
 12068 3849 2A030000 		.4byte	.LBI640
 12069 384d 0000     		.2byte	.LVU498
 12070 384f 2A030000 		.4byte	.LBB640
 12071 3853 1A000000 		.4byte	.LBE640-.LBB640
 12072 3857 01       		.byte	0x1
ARM GAS  C:\Users\USER\AppData\Local\Temp\ccRejSya.s 			page 213


 12073 3858 0001     		.2byte	0x100
 12074 385a 03       		.byte	0x3
 12075 385b 37       		.uleb128 0x37
 12076 385c C94C0000 		.4byte	0x4cc9
 12077 3860 0A040000 		.4byte	.LLST56
 12078 3864 04040000 		.4byte	.LVUS56
 12079 3868 37       		.uleb128 0x37
 12080 3869 BD4C0000 		.4byte	0x4cbd
 12081 386d 43040000 		.4byte	.LLST57
 12082 3871 3B040000 		.4byte	.LVUS57
 12083 3875 39       		.uleb128 0x39
 12084 3876 B14C0000 		.4byte	0x4cb1
 12085 387a 00       		.byte	0
 12086 387b 00       		.byte	0
 12087 387c 00       		.byte	0
 12088 387d 00       		.byte	0
 12089 387e 34       		.uleb128 0x34
 12090 387f AC4E0000 		.4byte	0x4eac
 12091 3883 BC020000 		.4byte	.LBI659
 12092 3887 0200     		.2byte	.LVU438
 12093 3889 90060000 		.4byte	.Ldebug_ranges0+0x690
 12094 388d 01       		.byte	0x1
 12095 388e 3C05     		.2byte	0x53c
 12096 3890 09       		.byte	0x9
 12097 3891 DF380000 		.4byte	0x38df
 12098 3895 35       		.uleb128 0x35
 12099 3896 374F0000 		.4byte	0x4f37
 12100 389a BC020000 		.4byte	.LBI660
 12101 389e 0400     		.2byte	.LVU440
 12102 38a0 F8060000 		.4byte	.Ldebug_ranges0+0x6f8
 12103 38a4 03       		.byte	0x3
 12104 38a5 ED01     		.2byte	0x1ed
 12105 38a7 03       		.byte	0x3
 12106 38a8 35       		.uleb128 0x35
 12107 38a9 5F4F0000 		.4byte	0x4f5f
 12108 38ad BC020000 		.4byte	.LBI661
 12109 38b1 0600     		.2byte	.LVU442
 12110 38b3 48070000 		.4byte	.Ldebug_ranges0+0x748
 12111 38b7 04       		.byte	0x4
 12112 38b8 5C01     		.2byte	0x15c
 12113 38ba 03       		.byte	0x3
 12114 38bb 35       		.uleb128 0x35
 12115 38bc 694F0000 		.4byte	0x4f69
 12116 38c0 BC020000 		.4byte	.LBI662
 12117 38c4 0800     		.2byte	.LVU444
 12118 38c6 80070000 		.4byte	.Ldebug_ranges0+0x780
 12119 38ca 05       		.byte	0x5
 12120 38cb BF01     		.2byte	0x1bf
 12121 38cd 03       		.byte	0x3
 12122 38ce 37       		.uleb128 0x37
 12123 38cf 774F0000 		.4byte	0x4f77
 12124 38d3 80040000 		.4byte	.LLST58
 12125 38d7 7A040000 		.4byte	.LVUS58
 12126 38db 00       		.byte	0
 12127 38dc 00       		.byte	0
 12128 38dd 00       		.byte	0
 12129 38de 00       		.byte	0
ARM GAS  C:\Users\USER\AppData\Local\Temp\ccRejSya.s 			page 214


 12130 38df 35       		.uleb128 0x35
 12131 38e0 A24E0000 		.4byte	0x4ea2
 12132 38e4 DC020000 		.4byte	.LBI684
 12133 38e8 0100     		.2byte	.LVU456
 12134 38ea A0070000 		.4byte	.Ldebug_ranges0+0x7a0
 12135 38ee 01       		.byte	0x1
 12136 38ef 4005     		.2byte	0x540
 12137 38f1 09       		.byte	0x9
 12138 38f2 35       		.uleb128 0x35
 12139 38f3 1F4F0000 		.4byte	0x4f1f
 12140 38f7 DC020000 		.4byte	.LBI685
 12141 38fb 0300     		.2byte	.LVU458
 12142 38fd A8070000 		.4byte	.Ldebug_ranges0+0x7a8
 12143 3901 03       		.byte	0x3
 12144 3902 F801     		.2byte	0x1f8
 12145 3904 03       		.byte	0x3
 12146 3905 38       		.uleb128 0x38
 12147 3906 A8070000 		.4byte	.Ldebug_ranges0+0x7a8
 12148 390a 35       		.uleb128 0x35
 12149 390b 554F0000 		.4byte	0x4f55
 12150 390f DC020000 		.4byte	.LBI687
 12151 3913 0900     		.2byte	.LVU464
 12152 3915 A8070000 		.4byte	.Ldebug_ranges0+0x7a8
 12153 3919 04       		.byte	0x4
 12154 391a 7301     		.2byte	0x173
 12155 391c 03       		.byte	0x3
 12156 391d 36       		.uleb128 0x36
 12157 391e 694F0000 		.4byte	0x4f69
 12158 3922 DC020000 		.4byte	.LBI688
 12159 3926 0B00     		.2byte	.LVU466
 12160 3928 DC020000 		.4byte	.LBB688
 12161 392c 10000000 		.4byte	.LBE688-.LBB688
 12162 3930 05       		.byte	0x5
 12163 3931 CD01     		.2byte	0x1cd
 12164 3933 03       		.byte	0x3
 12165 3934 37       		.uleb128 0x37
 12166 3935 774F0000 		.4byte	0x4f77
 12167 3939 B1040000 		.4byte	.LLST59
 12168 393d AF040000 		.4byte	.LVUS59
 12169 3941 00       		.byte	0
 12170 3942 00       		.byte	0
 12171 3943 00       		.byte	0
 12172 3944 00       		.byte	0
 12173 3945 00       		.byte	0
 12174 3946 00       		.byte	0
 12175 3947 34       		.uleb128 0x34
 12176 3948 994A0000 		.4byte	0x4a99
 12177 394c 58000000 		.4byte	.LBI443
 12178 3950 0100     		.2byte	.LVU65
 12179 3952 A8010000 		.4byte	.Ldebug_ranges0+0x1a8
 12180 3956 01       		.byte	0x1
 12181 3957 2705     		.2byte	0x527
 12182 3959 09       		.byte	0x9
 12183 395a 383C0000 		.4byte	0x3c38
 12184 395e 37       		.uleb128 0x37
 12185 395f A74A0000 		.4byte	0x4aa7
 12186 3963 C9040000 		.4byte	.LLST7
ARM GAS  C:\Users\USER\AppData\Local\Temp\ccRejSya.s 			page 215


 12187 3967 C5040000 		.4byte	.LVUS7
 12188 396b 38       		.uleb128 0x38
 12189 396c A8010000 		.4byte	.Ldebug_ranges0+0x1a8
 12190 3970 3B       		.uleb128 0x3b
 12191 3971 B44A0000 		.4byte	0x4ab4
 12192 3975 EB040000 		.4byte	.LLST8
 12193 3979 E7040000 		.4byte	.LVUS8
 12194 397d 3B       		.uleb128 0x3b
 12195 397e C14A0000 		.4byte	0x4ac1
 12196 3982 0F050000 		.4byte	.LLST9
 12197 3986 09050000 		.4byte	.LVUS9
 12198 398a 3B       		.uleb128 0x3b
 12199 398b CE4A0000 		.4byte	0x4ace
 12200 398f 48050000 		.4byte	.LLST10
 12201 3993 40050000 		.4byte	.LVUS10
 12202 3997 34       		.uleb128 0x34
 12203 3998 DB4A0000 		.4byte	0x4adb
 12204 399c 42010000 		.4byte	.LBI445
 12205 39a0 0200     		.2byte	.LVU196
 12206 39a2 10020000 		.4byte	.Ldebug_ranges0+0x210
 12207 39a6 01       		.byte	0x1
 12208 39a7 C401     		.2byte	0x1c4
 12209 39a9 07       		.byte	0x7
 12210 39aa 743B0000 		.4byte	0x3b74
 12211 39ae 37       		.uleb128 0x37
 12212 39af 034B0000 		.4byte	0x4b03
 12213 39b3 8A050000 		.4byte	.LLST11
 12214 39b7 88050000 		.4byte	.LVUS11
 12215 39bb 37       		.uleb128 0x37
 12216 39bc F64A0000 		.4byte	0x4af6
 12217 39c0 9F050000 		.4byte	.LLST12
 12218 39c4 9D050000 		.4byte	.LVUS12
 12219 39c8 37       		.uleb128 0x37
 12220 39c9 E94A0000 		.4byte	0x4ae9
 12221 39cd B7050000 		.4byte	.LLST13
 12222 39d1 B3050000 		.4byte	.LVUS13
 12223 39d5 38       		.uleb128 0x38
 12224 39d6 10020000 		.4byte	.Ldebug_ranges0+0x210
 12225 39da 3B       		.uleb128 0x3b
 12226 39db 0E4B0000 		.4byte	0x4b0e
 12227 39df E0050000 		.4byte	.LLST14
 12228 39e3 D8050000 		.4byte	.LVUS14
 12229 39e7 34       		.uleb128 0x34
 12230 39e8 AC4E0000 		.4byte	0x4eac
 12231 39ec 94010000 		.4byte	.LBI447
 12232 39f0 0200     		.2byte	.LVU245
 12233 39f2 60020000 		.4byte	.Ldebug_ranges0+0x260
 12234 39f6 01       		.byte	0x1
 12235 39f7 A401     		.2byte	0x1a4
 12236 39f9 03       		.byte	0x3
 12237 39fa 483A0000 		.4byte	0x3a48
 12238 39fe 35       		.uleb128 0x35
 12239 39ff 374F0000 		.4byte	0x4f37
 12240 3a03 94010000 		.4byte	.LBI448
 12241 3a07 0400     		.2byte	.LVU247
 12242 3a09 90020000 		.4byte	.Ldebug_ranges0+0x290
 12243 3a0d 03       		.byte	0x3
ARM GAS  C:\Users\USER\AppData\Local\Temp\ccRejSya.s 			page 216


 12244 3a0e ED01     		.2byte	0x1ed
 12245 3a10 03       		.byte	0x3
 12246 3a11 35       		.uleb128 0x35
 12247 3a12 5F4F0000 		.4byte	0x4f5f
 12248 3a16 94010000 		.4byte	.LBI449
 12249 3a1a 0600     		.2byte	.LVU249
 12250 3a1c B8020000 		.4byte	.Ldebug_ranges0+0x2b8
 12251 3a20 04       		.byte	0x4
 12252 3a21 5C01     		.2byte	0x15c
 12253 3a23 03       		.byte	0x3
 12254 3a24 35       		.uleb128 0x35
 12255 3a25 694F0000 		.4byte	0x4f69
 12256 3a29 94010000 		.4byte	.LBI450
 12257 3a2d 0800     		.2byte	.LVU251
 12258 3a2f D8020000 		.4byte	.Ldebug_ranges0+0x2d8
 12259 3a33 05       		.byte	0x5
 12260 3a34 BF01     		.2byte	0x1bf
 12261 3a36 03       		.byte	0x3
 12262 3a37 37       		.uleb128 0x37
 12263 3a38 774F0000 		.4byte	0x4f77
 12264 3a3c 18060000 		.4byte	.LLST15
 12265 3a40 16060000 		.4byte	.LVUS15
 12266 3a44 00       		.byte	0
 12267 3a45 00       		.byte	0
 12268 3a46 00       		.byte	0
 12269 3a47 00       		.byte	0
 12270 3a48 3C       		.uleb128 0x3c
 12271 3a49 1B4B0000 		.4byte	0x4b1b
 12272 3a4d F0020000 		.4byte	.Ldebug_ranges0+0x2f0
 12273 3a51 A13A0000 		.4byte	0x3aa1
 12274 3a55 3B       		.uleb128 0x3b
 12275 3a56 1C4B0000 		.4byte	0x4b1c
 12276 3a5a 2F060000 		.4byte	.LLST16
 12277 3a5e 2D060000 		.4byte	.LVUS16
 12278 3a62 3B       		.uleb128 0x3b
 12279 3a63 274B0000 		.4byte	0x4b27
 12280 3a67 44060000 		.4byte	.LLST17
 12281 3a6b 42060000 		.4byte	.LVUS17
 12282 3a6f 3B       		.uleb128 0x3b
 12283 3a70 324B0000 		.4byte	0x4b32
 12284 3a74 5C060000 		.4byte	.LLST18
 12285 3a78 58060000 		.4byte	.LVUS18
 12286 3a7c 3A       		.uleb128 0x3a
 12287 3a7d 3E4B0000 		.4byte	0x4b3e
 12288 3a81 08030000 		.4byte	.Ldebug_ranges0+0x308
 12289 3a85 3B       		.uleb128 0x3b
 12290 3a86 3F4B0000 		.4byte	0x4b3f
 12291 3a8a 84060000 		.4byte	.LLST19
 12292 3a8e 82060000 		.4byte	.LVUS19
 12293 3a92 3B       		.uleb128 0x3b
 12294 3a93 4C4B0000 		.4byte	0x4b4c
 12295 3a97 9A060000 		.4byte	.LLST20
 12296 3a9b 98060000 		.4byte	.LVUS20
 12297 3a9f 00       		.byte	0
 12298 3aa0 00       		.byte	0
 12299 3aa1 3E       		.uleb128 0x3e
 12300 3aa2 F04D0000 		.4byte	0x4df0
ARM GAS  C:\Users\USER\AppData\Local\Temp\ccRejSya.s 			page 217


 12301 3aa6 A0010000 		.4byte	.LBI467
 12302 3aaa 0100     		.2byte	.LVU259
 12303 3aac A0010000 		.4byte	.LBB467
 12304 3ab0 06000000 		.4byte	.LBE467-.LBB467
 12305 3ab4 01       		.byte	0x1
 12306 3ab5 A601     		.2byte	0x1a6
 12307 3ab7 03       		.byte	0x3
 12308 3ab8 E63A0000 		.4byte	0x3ae6
 12309 3abc 37       		.uleb128 0x37
 12310 3abd 0B4E0000 		.4byte	0x4e0b
 12311 3ac1 B0060000 		.4byte	.LLST21
 12312 3ac5 AE060000 		.4byte	.LVUS21
 12313 3ac9 37       		.uleb128 0x37
 12314 3aca FE4D0000 		.4byte	0x4dfe
 12315 3ace C6060000 		.4byte	.LLST22
 12316 3ad2 C4060000 		.4byte	.LVUS22
 12317 3ad6 3F       		.uleb128 0x3f
 12318 3ad7 A6010000 		.4byte	.LVL60
 12319 3adb 93540000 		.4byte	0x5493
 12320 3adf 40       		.uleb128 0x40
 12321 3ae0 01       		.uleb128 0x1
 12322 3ae1 51       		.byte	0x51
 12323 3ae2 01       		.uleb128 0x1
 12324 3ae3 30       		.byte	0x30
 12325 3ae4 00       		.byte	0
 12326 3ae5 00       		.byte	0
 12327 3ae6 3E       		.uleb128 0x3e
 12328 3ae7 684E0000 		.4byte	0x4e68
 12329 3aeb A6010000 		.4byte	.LBI469
 12330 3aef 0200     		.2byte	.LVU263
 12331 3af1 A6010000 		.4byte	.LBB469
 12332 3af5 04000000 		.4byte	.LBE469-.LBB469
 12333 3af9 01       		.byte	0x1
 12334 3afa A701     		.2byte	0x1a7
 12335 3afc 03       		.byte	0x3
 12336 3afd 0B3B0000 		.4byte	0x3b0b
 12337 3b01 41       		.uleb128 0x41
 12338 3b02 AA010000 		.4byte	.LVL61
 12339 3b06 9F540000 		.4byte	0x549f
 12340 3b0a 00       		.byte	0
 12341 3b0b 35       		.uleb128 0x35
 12342 3b0c A24E0000 		.4byte	0x4ea2
 12343 3b10 AA010000 		.4byte	.LBI471
 12344 3b14 0100     		.2byte	.LVU266
 12345 3b16 20030000 		.4byte	.Ldebug_ranges0+0x320
 12346 3b1a 01       		.byte	0x1
 12347 3b1b A801     		.2byte	0x1a8
 12348 3b1d 03       		.byte	0x3
 12349 3b1e 35       		.uleb128 0x35
 12350 3b1f 1F4F0000 		.4byte	0x4f1f
 12351 3b23 AA010000 		.4byte	.LBI472
 12352 3b27 0300     		.2byte	.LVU268
 12353 3b29 28030000 		.4byte	.Ldebug_ranges0+0x328
 12354 3b2d 03       		.byte	0x3
 12355 3b2e F801     		.2byte	0x1f8
 12356 3b30 03       		.byte	0x3
 12357 3b31 38       		.uleb128 0x38
ARM GAS  C:\Users\USER\AppData\Local\Temp\ccRejSya.s 			page 218


 12358 3b32 28030000 		.4byte	.Ldebug_ranges0+0x328
 12359 3b36 35       		.uleb128 0x35
 12360 3b37 554F0000 		.4byte	0x4f55
 12361 3b3b AA010000 		.4byte	.LBI474
 12362 3b3f 0900     		.2byte	.LVU274
 12363 3b41 28030000 		.4byte	.Ldebug_ranges0+0x328
 12364 3b45 04       		.byte	0x4
 12365 3b46 7301     		.2byte	0x173
 12366 3b48 03       		.byte	0x3
 12367 3b49 36       		.uleb128 0x36
 12368 3b4a 694F0000 		.4byte	0x4f69
 12369 3b4e AA010000 		.4byte	.LBI475
 12370 3b52 0B00     		.2byte	.LVU276
 12371 3b54 AA010000 		.4byte	.LBB475
 12372 3b58 10000000 		.4byte	.LBE475-.LBB475
 12373 3b5c 05       		.byte	0x5
 12374 3b5d CD01     		.2byte	0x1cd
 12375 3b5f 03       		.byte	0x3
 12376 3b60 37       		.uleb128 0x37
 12377 3b61 774F0000 		.4byte	0x4f77
 12378 3b65 DB060000 		.4byte	.LLST23
 12379 3b69 D9060000 		.4byte	.LVUS23
 12380 3b6d 00       		.byte	0
 12381 3b6e 00       		.byte	0
 12382 3b6f 00       		.byte	0
 12383 3b70 00       		.byte	0
 12384 3b71 00       		.byte	0
 12385 3b72 00       		.byte	0
 12386 3b73 00       		.byte	0
 12387 3b74 34       		.uleb128 0x34
 12388 3b75 5C4B0000 		.4byte	0x4b5c
 12389 3b79 80000000 		.4byte	.LBI490
 12390 3b7d 0000     		.2byte	.LVU83
 12391 3b7f 40030000 		.4byte	.Ldebug_ranges0+0x340
 12392 3b83 01       		.byte	0x1
 12393 3b84 BC01     		.2byte	0x1bc
 12394 3b86 05       		.byte	0x5
 12395 3b87 D73B0000 		.4byte	0x3bd7
 12396 3b8b 37       		.uleb128 0x37
 12397 3b8c 8F4B0000 		.4byte	0x4b8f
 12398 3b90 F9060000 		.4byte	.LLST24
 12399 3b94 EF060000 		.4byte	.LVUS24
 12400 3b98 37       		.uleb128 0x37
 12401 3b99 844B0000 		.4byte	0x4b84
 12402 3b9d 3D070000 		.4byte	.LLST25
 12403 3ba1 3B070000 		.4byte	.LVUS25
 12404 3ba5 37       		.uleb128 0x37
 12405 3ba6 774B0000 		.4byte	0x4b77
 12406 3baa 56070000 		.4byte	.LLST26
 12407 3bae 50070000 		.4byte	.LVUS26
 12408 3bb2 37       		.uleb128 0x37
 12409 3bb3 6A4B0000 		.4byte	0x4b6a
 12410 3bb7 85070000 		.4byte	.LLST27
 12411 3bbb 81070000 		.4byte	.LVUS27
 12412 3bbf 3A       		.uleb128 0x3a
 12413 3bc0 9C4B0000 		.4byte	0x4b9c
 12414 3bc4 58030000 		.4byte	.Ldebug_ranges0+0x358
ARM GAS  C:\Users\USER\AppData\Local\Temp\ccRejSya.s 			page 219


 12415 3bc8 3B       		.uleb128 0x3b
 12416 3bc9 9D4B0000 		.4byte	0x4b9d
 12417 3bcd AA070000 		.4byte	.LLST28
 12418 3bd1 A6070000 		.4byte	.LVUS28
 12419 3bd5 00       		.byte	0
 12420 3bd6 00       		.byte	0
 12421 3bd7 35       		.uleb128 0x35
 12422 3bd8 5C4B0000 		.4byte	0x4b5c
 12423 3bdc CC000000 		.4byte	.LBI497
 12424 3be0 0000     		.2byte	.LVU128
 12425 3be2 78030000 		.4byte	.Ldebug_ranges0+0x378
 12426 3be6 01       		.byte	0x1
 12427 3be7 C901     		.2byte	0x1c9
 12428 3be9 07       		.byte	0x7
 12429 3bea 37       		.uleb128 0x37
 12430 3beb 8F4B0000 		.4byte	0x4b8f
 12431 3bef D0070000 		.4byte	.LLST29
 12432 3bf3 C8070000 		.4byte	.LVUS29
 12433 3bf7 37       		.uleb128 0x37
 12434 3bf8 844B0000 		.4byte	0x4b84
 12435 3bfc 17080000 		.4byte	.LLST30
 12436 3c00 0B080000 		.4byte	.LVUS30
 12437 3c04 37       		.uleb128 0x37
 12438 3c05 774B0000 		.4byte	0x4b77
 12439 3c09 6F080000 		.4byte	.LLST31
 12440 3c0d 65080000 		.4byte	.LVUS31
 12441 3c11 37       		.uleb128 0x37
 12442 3c12 6A4B0000 		.4byte	0x4b6a
 12443 3c16 B9080000 		.4byte	.LLST32
 12444 3c1a B1080000 		.4byte	.LVUS32
 12445 3c1e 3A       		.uleb128 0x3a
 12446 3c1f 9C4B0000 		.4byte	0x4b9c
 12447 3c23 90030000 		.4byte	.Ldebug_ranges0+0x390
 12448 3c27 3B       		.uleb128 0x3b
 12449 3c28 9D4B0000 		.4byte	0x4b9d
 12450 3c2c F4080000 		.4byte	.LLST33
 12451 3c30 F0080000 		.4byte	.LVUS33
 12452 3c34 00       		.byte	0
 12453 3c35 00       		.byte	0
 12454 3c36 00       		.byte	0
 12455 3c37 00       		.byte	0
 12456 3c38 34       		.uleb128 0x34
 12457 3c39 484E0000 		.4byte	0x4e48
 12458 3c3d 42000000 		.4byte	.LBI523
 12459 3c41 0100     		.2byte	.LVU42
 12460 3c43 B0030000 		.4byte	.Ldebug_ranges0+0x3b0
 12461 3c47 01       		.byte	0x1
 12462 3c48 1E05     		.2byte	0x51e
 12463 3c4a 07       		.byte	0x7
 12464 3c4b 663C0000 		.4byte	0x3c66
 12465 3c4f 39       		.uleb128 0x39
 12466 3c50 5A4E0000 		.4byte	0x4e5a
 12467 3c54 3F       		.uleb128 0x3f
 12468 3c55 46000000 		.4byte	.LVL6
 12469 3c59 AC540000 		.4byte	0x54ac
 12470 3c5d 40       		.uleb128 0x40
 12471 3c5e 01       		.uleb128 0x1
ARM GAS  C:\Users\USER\AppData\Local\Temp\ccRejSya.s 			page 220


 12472 3c5f 50       		.byte	0x50
 12473 3c60 03       		.uleb128 0x3
 12474 3c61 91       		.byte	0x91
 12475 3c62 54       		.sleb128 -44
 12476 3c63 06       		.byte	0x6
 12477 3c64 00       		.byte	0
 12478 3c65 00       		.byte	0
 12479 3c66 34       		.uleb128 0x34
 12480 3c67 A24E0000 		.4byte	0x4ea2
 12481 3c6b 46000000 		.4byte	.LBI527
 12482 3c6f 0200     		.2byte	.LVU47
 12483 3c71 C8030000 		.4byte	.Ldebug_ranges0+0x3c8
 12484 3c75 01       		.byte	0x1
 12485 3c76 2005     		.2byte	0x520
 12486 3c78 05       		.byte	0x5
 12487 3c79 D13C0000 		.4byte	0x3cd1
 12488 3c7d 35       		.uleb128 0x35
 12489 3c7e 1F4F0000 		.4byte	0x4f1f
 12490 3c82 46000000 		.4byte	.LBI528
 12491 3c86 0400     		.2byte	.LVU49
 12492 3c88 D0030000 		.4byte	.Ldebug_ranges0+0x3d0
 12493 3c8c 03       		.byte	0x3
 12494 3c8d F801     		.2byte	0x1f8
 12495 3c8f 03       		.byte	0x3
 12496 3c90 38       		.uleb128 0x38
 12497 3c91 D0030000 		.4byte	.Ldebug_ranges0+0x3d0
 12498 3c95 35       		.uleb128 0x35
 12499 3c96 554F0000 		.4byte	0x4f55
 12500 3c9a 46000000 		.4byte	.LBI530
 12501 3c9e 0A00     		.2byte	.LVU55
 12502 3ca0 D0030000 		.4byte	.Ldebug_ranges0+0x3d0
 12503 3ca4 04       		.byte	0x4
 12504 3ca5 7301     		.2byte	0x173
 12505 3ca7 03       		.byte	0x3
 12506 3ca8 36       		.uleb128 0x36
 12507 3ca9 694F0000 		.4byte	0x4f69
 12508 3cad 46000000 		.4byte	.LBI531
 12509 3cb1 0C00     		.2byte	.LVU57
 12510 3cb3 46000000 		.4byte	.LBB531
 12511 3cb7 06000000 		.4byte	.LBE531-.LBB531
 12512 3cbb 05       		.byte	0x5
 12513 3cbc CD01     		.2byte	0x1cd
 12514 3cbe 03       		.byte	0x3
 12515 3cbf 37       		.uleb128 0x37
 12516 3cc0 774F0000 		.4byte	0x4f77
 12517 3cc4 14090000 		.4byte	.LLST34
 12518 3cc8 12090000 		.4byte	.LVUS34
 12519 3ccc 00       		.byte	0
 12520 3ccd 00       		.byte	0
 12521 3cce 00       		.byte	0
 12522 3ccf 00       		.byte	0
 12523 3cd0 00       		.byte	0
 12524 3cd1 35       		.uleb128 0x35
 12525 3cd2 AC4E0000 		.4byte	0x4eac
 12526 3cd6 2A010000 		.4byte	.LBI541
 12527 3cda 0100     		.2byte	.LVU175
 12528 3cdc E8030000 		.4byte	.Ldebug_ranges0+0x3e8
ARM GAS  C:\Users\USER\AppData\Local\Temp\ccRejSya.s 			page 221


 12529 3ce0 01       		.byte	0x1
 12530 3ce1 4305     		.2byte	0x543
 12531 3ce3 05       		.byte	0x5
 12532 3ce4 35       		.uleb128 0x35
 12533 3ce5 374F0000 		.4byte	0x4f37
 12534 3ce9 2A010000 		.4byte	.LBI542
 12535 3ced 0300     		.2byte	.LVU177
 12536 3cef F0030000 		.4byte	.Ldebug_ranges0+0x3f0
 12537 3cf3 03       		.byte	0x3
 12538 3cf4 ED01     		.2byte	0x1ed
 12539 3cf6 03       		.byte	0x3
 12540 3cf7 35       		.uleb128 0x35
 12541 3cf8 5F4F0000 		.4byte	0x4f5f
 12542 3cfc 2A010000 		.4byte	.LBI543
 12543 3d00 0500     		.2byte	.LVU179
 12544 3d02 F8030000 		.4byte	.Ldebug_ranges0+0x3f8
 12545 3d06 04       		.byte	0x4
 12546 3d07 5C01     		.2byte	0x15c
 12547 3d09 03       		.byte	0x3
 12548 3d0a 36       		.uleb128 0x36
 12549 3d0b 694F0000 		.4byte	0x4f69
 12550 3d0f 2A010000 		.4byte	.LBI544
 12551 3d13 0700     		.2byte	.LVU181
 12552 3d15 2A010000 		.4byte	.LBB544
 12553 3d19 06000000 		.4byte	.LBE544-.LBB544
 12554 3d1d 05       		.byte	0x5
 12555 3d1e BF01     		.2byte	0x1bf
 12556 3d20 03       		.byte	0x3
 12557 3d21 37       		.uleb128 0x37
 12558 3d22 774F0000 		.4byte	0x4f77
 12559 3d26 2A090000 		.4byte	.LLST35
 12560 3d2a 28090000 		.4byte	.LVUS35
 12561 3d2e 00       		.byte	0
 12562 3d2f 00       		.byte	0
 12563 3d30 00       		.byte	0
 12564 3d31 00       		.byte	0
 12565 3d32 00       		.byte	0
 12566 3d33 34       		.uleb128 0x34
 12567 3d34 B64E0000 		.4byte	0x4eb6
 12568 3d38 0C000000 		.4byte	.LBI422
 12569 3d3c 0100     		.2byte	.LVU9
 12570 3d3e 00000000 		.4byte	.Ldebug_ranges0+0
 12571 3d42 01       		.byte	0x1
 12572 3d43 1305     		.2byte	0x513
 12573 3d45 03       		.byte	0x3
 12574 3d46 583D0000 		.4byte	0x3d58
 12575 3d4a 37       		.uleb128 0x37
 12576 3d4b C34E0000 		.4byte	0x4ec3
 12577 3d4f 41090000 		.4byte	.LLST3
 12578 3d53 3F090000 		.4byte	.LVUS3
 12579 3d57 00       		.byte	0
 12580 3d58 35       		.uleb128 0x35
 12581 3d59 AC4E0000 		.4byte	0x4eac
 12582 3d5d 0E000000 		.4byte	.LBI426
 12583 3d61 0200     		.2byte	.LVU14
 12584 3d63 18000000 		.4byte	.Ldebug_ranges0+0x18
 12585 3d67 01       		.byte	0x1
ARM GAS  C:\Users\USER\AppData\Local\Temp\ccRejSya.s 			page 222


 12586 3d68 1505     		.2byte	0x515
 12587 3d6a 03       		.byte	0x3
 12588 3d6b 35       		.uleb128 0x35
 12589 3d6c 374F0000 		.4byte	0x4f37
 12590 3d70 0E000000 		.4byte	.LBI427
 12591 3d74 0400     		.2byte	.LVU16
 12592 3d76 20000000 		.4byte	.Ldebug_ranges0+0x20
 12593 3d7a 03       		.byte	0x3
 12594 3d7b ED01     		.2byte	0x1ed
 12595 3d7d 03       		.byte	0x3
 12596 3d7e 35       		.uleb128 0x35
 12597 3d7f 5F4F0000 		.4byte	0x4f5f
 12598 3d83 0E000000 		.4byte	.LBI428
 12599 3d87 0600     		.2byte	.LVU18
 12600 3d89 28000000 		.4byte	.Ldebug_ranges0+0x28
 12601 3d8d 04       		.byte	0x4
 12602 3d8e 5C01     		.2byte	0x15c
 12603 3d90 03       		.byte	0x3
 12604 3d91 35       		.uleb128 0x35
 12605 3d92 694F0000 		.4byte	0x4f69
 12606 3d96 0E000000 		.4byte	.LBI429
 12607 3d9a 0800     		.2byte	.LVU20
 12608 3d9c 30000000 		.4byte	.Ldebug_ranges0+0x30
 12609 3da0 05       		.byte	0x5
 12610 3da1 BF01     		.2byte	0x1bf
 12611 3da3 03       		.byte	0x3
 12612 3da4 37       		.uleb128 0x37
 12613 3da5 774F0000 		.4byte	0x4f77
 12614 3da9 5B090000 		.4byte	.LLST4
 12615 3dad 59090000 		.4byte	.LVUS4
 12616 3db1 00       		.byte	0
 12617 3db2 00       		.byte	0
 12618 3db3 00       		.byte	0
 12619 3db4 00       		.byte	0
 12620 3db5 00       		.byte	0
 12621 3db6 2F       		.uleb128 0x2f
 12622 3db7 0D0A0000 		.4byte	.LASF676
 12623 3dbb 01       		.byte	0x1
 12624 3dbc FE04     		.2byte	0x4fe
 12625 3dbe 06       		.byte	0x6
 12626 3dbf 00000000 		.4byte	.LFB291
 12627 3dc3 14000000 		.4byte	.LFE291-.LFB291
 12628 3dc7 01       		.uleb128 0x1
 12629 3dc8 9C       		.byte	0x9c
 12630 3dc9 F13D0000 		.4byte	0x3df1
 12631 3dcd 42       		.uleb128 0x42
 12632 3dce 801C0000 		.4byte	.LASF671
 12633 3dd2 01       		.byte	0x1
 12634 3dd3 FE04     		.2byte	0x4fe
 12635 3dd5 22       		.byte	0x22
 12636 3dd6 BA2A0000 		.4byte	0x2aba
 12637 3dda 01       		.uleb128 0x1
 12638 3ddb 50       		.byte	0x50
 12639 3ddc 30       		.uleb128 0x30
 12640 3ddd 657000   		.ascii	"ep\000"
 12641 3de0 01       		.byte	0x1
 12642 3de1 FE04     		.2byte	0x4fe
ARM GAS  C:\Users\USER\AppData\Local\Temp\ccRejSya.s 			page 223


 12643 3de3 30       		.byte	0x30
 12644 3de4 65290000 		.4byte	0x2965
 12645 3de8 74090000 		.4byte	.LLST150
 12646 3dec 70090000 		.4byte	.LVUS150
 12647 3df0 00       		.byte	0
 12648 3df1 2F       		.uleb128 0x2f
 12649 3df2 7F1D0000 		.4byte	.LASF677
 12650 3df6 01       		.byte	0x1
 12651 3df7 F104     		.2byte	0x4f1
 12652 3df9 06       		.byte	0x6
 12653 3dfa 00000000 		.4byte	.LFB290
 12654 3dfe 14000000 		.4byte	.LFE290-.LFB290
 12655 3e02 01       		.uleb128 0x1
 12656 3e03 9C       		.byte	0x9c
 12657 3e04 2C3E0000 		.4byte	0x3e2c
 12658 3e08 42       		.uleb128 0x42
 12659 3e09 801C0000 		.4byte	.LASF671
 12660 3e0d 01       		.byte	0x1
 12661 3e0e F104     		.2byte	0x4f1
 12662 3e10 23       		.byte	0x23
 12663 3e11 BA2A0000 		.4byte	0x2aba
 12664 3e15 01       		.uleb128 0x1
 12665 3e16 50       		.byte	0x50
 12666 3e17 30       		.uleb128 0x30
 12667 3e18 657000   		.ascii	"ep\000"
 12668 3e1b 01       		.byte	0x1
 12669 3e1c F104     		.2byte	0x4f1
 12670 3e1e 31       		.byte	0x31
 12671 3e1f 65290000 		.4byte	0x2965
 12672 3e23 99090000 		.4byte	.LLST149
 12673 3e27 95090000 		.4byte	.LVUS149
 12674 3e2b 00       		.byte	0
 12675 3e2c 2F       		.uleb128 0x2f
 12676 3e2d AA0D0000 		.4byte	.LASF678
 12677 3e31 01       		.byte	0x1
 12678 3e32 E404     		.2byte	0x4e4
 12679 3e34 06       		.byte	0x6
 12680 3e35 00000000 		.4byte	.LFB289
 12681 3e39 14000000 		.4byte	.LFE289-.LFB289
 12682 3e3d 01       		.uleb128 0x1
 12683 3e3e 9C       		.byte	0x9c
 12684 3e3f 673E0000 		.4byte	0x3e67
 12685 3e43 42       		.uleb128 0x42
 12686 3e44 801C0000 		.4byte	.LASF671
 12687 3e48 01       		.byte	0x1
 12688 3e49 E404     		.2byte	0x4e4
 12689 3e4b 22       		.byte	0x22
 12690 3e4c BA2A0000 		.4byte	0x2aba
 12691 3e50 01       		.uleb128 0x1
 12692 3e51 50       		.byte	0x50
 12693 3e52 30       		.uleb128 0x30
 12694 3e53 657000   		.ascii	"ep\000"
 12695 3e56 01       		.byte	0x1
 12696 3e57 E404     		.2byte	0x4e4
 12697 3e59 30       		.byte	0x30
 12698 3e5a 65290000 		.4byte	0x2965
 12699 3e5e BE090000 		.4byte	.LLST148
ARM GAS  C:\Users\USER\AppData\Local\Temp\ccRejSya.s 			page 224


 12700 3e62 BA090000 		.4byte	.LVUS148
 12701 3e66 00       		.byte	0
 12702 3e67 2F       		.uleb128 0x2f
 12703 3e68 EC1F0000 		.4byte	.LASF679
 12704 3e6c 01       		.byte	0x1
 12705 3e6d D704     		.2byte	0x4d7
 12706 3e6f 06       		.byte	0x6
 12707 3e70 00000000 		.4byte	.LFB288
 12708 3e74 14000000 		.4byte	.LFE288-.LFB288
 12709 3e78 01       		.uleb128 0x1
 12710 3e79 9C       		.byte	0x9c
 12711 3e7a A23E0000 		.4byte	0x3ea2
 12712 3e7e 42       		.uleb128 0x42
 12713 3e7f 801C0000 		.4byte	.LASF671
 12714 3e83 01       		.byte	0x1
 12715 3e84 D704     		.2byte	0x4d7
 12716 3e86 23       		.byte	0x23
 12717 3e87 BA2A0000 		.4byte	0x2aba
 12718 3e8b 01       		.uleb128 0x1
 12719 3e8c 50       		.byte	0x50
 12720 3e8d 30       		.uleb128 0x30
 12721 3e8e 657000   		.ascii	"ep\000"
 12722 3e91 01       		.byte	0x1
 12723 3e92 D704     		.2byte	0x4d7
 12724 3e94 31       		.byte	0x31
 12725 3e95 65290000 		.4byte	0x2965
 12726 3e99 E3090000 		.4byte	.LLST147
 12727 3e9d DF090000 		.4byte	.LVUS147
 12728 3ea1 00       		.byte	0
 12729 3ea2 43       		.uleb128 0x43
 12730 3ea3 E00A0000 		.4byte	.LASF680
 12731 3ea7 01       		.byte	0x1
 12732 3ea8 C904     		.2byte	0x4c9
 12733 3eaa 06       		.byte	0x6
 12734 3eab 01       		.byte	0x1
 12735 3eac CA3E0000 		.4byte	0x3eca
 12736 3eb0 44       		.uleb128 0x44
 12737 3eb1 801C0000 		.4byte	.LASF671
 12738 3eb5 01       		.byte	0x1
 12739 3eb6 C904     		.2byte	0x4c9
 12740 3eb8 22       		.byte	0x22
 12741 3eb9 BA2A0000 		.4byte	0x2aba
 12742 3ebd 45       		.uleb128 0x45
 12743 3ebe 657000   		.ascii	"ep\000"
 12744 3ec1 01       		.byte	0x1
 12745 3ec2 C904     		.2byte	0x4c9
 12746 3ec4 30       		.byte	0x30
 12747 3ec5 65290000 		.4byte	0x2965
 12748 3ec9 00       		.byte	0
 12749 3eca 43       		.uleb128 0x43
 12750 3ecb D7080000 		.4byte	.LASF681
 12751 3ecf 01       		.byte	0x1
 12752 3ed0 BC04     		.2byte	0x4bc
 12753 3ed2 06       		.byte	0x6
 12754 3ed3 01       		.byte	0x1
 12755 3ed4 F23E0000 		.4byte	0x3ef2
 12756 3ed8 44       		.uleb128 0x44
ARM GAS  C:\Users\USER\AppData\Local\Temp\ccRejSya.s 			page 225


 12757 3ed9 801C0000 		.4byte	.LASF671
 12758 3edd 01       		.byte	0x1
 12759 3ede BC04     		.2byte	0x4bc
 12760 3ee0 23       		.byte	0x23
 12761 3ee1 BA2A0000 		.4byte	0x2aba
 12762 3ee5 45       		.uleb128 0x45
 12763 3ee6 657000   		.ascii	"ep\000"
 12764 3ee9 01       		.byte	0x1
 12765 3eea BC04     		.2byte	0x4bc
 12766 3eec 31       		.byte	0x31
 12767 3eed 65290000 		.4byte	0x2965
 12768 3ef1 00       		.byte	0
 12769 3ef2 2F       		.uleb128 0x2f
 12770 3ef3 37070000 		.4byte	.LASF682
 12771 3ef7 01       		.byte	0x1
 12772 3ef8 9F04     		.2byte	0x49f
 12773 3efa 06       		.byte	0x6
 12774 3efb 00000000 		.4byte	.LFB285
 12775 3eff 4A000000 		.4byte	.LFE285-.LFB285
 12776 3f03 01       		.uleb128 0x1
 12777 3f04 9C       		.byte	0x9c
 12778 3f05 633F0000 		.4byte	0x3f63
 12779 3f09 46       		.uleb128 0x46
 12780 3f0a 801C0000 		.4byte	.LASF671
 12781 3f0e 01       		.byte	0x1
 12782 3f0f 9F04     		.2byte	0x49f
 12783 3f11 2A       		.byte	0x2a
 12784 3f12 BA2A0000 		.4byte	0x2aba
 12785 3f16 080A0000 		.4byte	.LLST121
 12786 3f1a 040A0000 		.4byte	.LVUS121
 12787 3f1e 30       		.uleb128 0x30
 12788 3f1f 657000   		.ascii	"ep\000"
 12789 3f22 01       		.byte	0x1
 12790 3f23 9F04     		.2byte	0x49f
 12791 3f25 38       		.byte	0x38
 12792 3f26 65290000 		.4byte	0x2965
 12793 3f2a 2D0A0000 		.4byte	.LLST122
 12794 3f2e 290A0000 		.4byte	.LVUS122
 12795 3f32 33       		.uleb128 0x33
 12796 3f33 69737000 		.ascii	"isp\000"
 12797 3f37 01       		.byte	0x1
 12798 3f38 A004     		.2byte	0x4a0
 12799 3f3a 17       		.byte	0x17
 12800 3f3b 18330000 		.4byte	0x3318
 12801 3f3f 540A0000 		.4byte	.LLST123
 12802 3f43 4E0A0000 		.4byte	.LVUS123
 12803 3f47 38       		.uleb128 0x38
 12804 3f48 00090000 		.4byte	.Ldebug_ranges0+0x900
 12805 3f4c 31       		.uleb128 0x31
 12806 3f4d 4E160000 		.4byte	.LASF683
 12807 3f51 01       		.byte	0x1
 12808 3f52 AD04     		.2byte	0x4ad
 12809 3f54 0E       		.byte	0xe
 12810 3f55 92090000 		.4byte	0x992
 12811 3f59 8C0A0000 		.4byte	.LLST124
 12812 3f5d 8A0A0000 		.4byte	.LVUS124
 12813 3f61 00       		.byte	0
ARM GAS  C:\Users\USER\AppData\Local\Temp\ccRejSya.s 			page 226


 12814 3f62 00       		.byte	0
 12815 3f63 2F       		.uleb128 0x2f
 12816 3f64 D9150000 		.4byte	.LASF684
 12817 3f68 01       		.byte	0x1
 12818 3f69 8704     		.2byte	0x487
 12819 3f6b 06       		.byte	0x6
 12820 3f6c 00000000 		.4byte	.LFB284
 12821 3f70 3A000000 		.4byte	.LFE284-.LFB284
 12822 3f74 01       		.uleb128 0x1
 12823 3f75 9C       		.byte	0x9c
 12824 3f76 C83F0000 		.4byte	0x3fc8
 12825 3f7a 46       		.uleb128 0x46
 12826 3f7b 801C0000 		.4byte	.LASF671
 12827 3f7f 01       		.byte	0x1
 12828 3f80 8704     		.2byte	0x487
 12829 3f82 29       		.byte	0x29
 12830 3f83 BA2A0000 		.4byte	0x2aba
 12831 3f87 B30A0000 		.4byte	.LLST110
 12832 3f8b AF0A0000 		.4byte	.LVUS110
 12833 3f8f 47       		.uleb128 0x47
 12834 3f90 657000   		.ascii	"ep\000"
 12835 3f93 01       		.byte	0x1
 12836 3f94 8704     		.2byte	0x487
 12837 3f96 37       		.byte	0x37
 12838 3f97 65290000 		.4byte	0x2965
 12839 3f9b 01       		.uleb128 0x1
 12840 3f9c 51       		.byte	0x51
 12841 3f9d 31       		.uleb128 0x31
 12842 3f9e 4E160000 		.4byte	.LASF683
 12843 3fa2 01       		.byte	0x1
 12844 3fa3 8804     		.2byte	0x488
 12845 3fa5 0C       		.byte	0xc
 12846 3fa6 92090000 		.4byte	0x992
 12847 3faa D60A0000 		.4byte	.LLST111
 12848 3fae D40A0000 		.4byte	.LVUS111
 12849 3fb2 33       		.uleb128 0x33
 12850 3fb3 6F737000 		.ascii	"osp\000"
 12851 3fb7 01       		.byte	0x1
 12852 3fb8 8904     		.2byte	0x489
 12853 3fba 18       		.byte	0x18
 12854 3fbb 1E330000 		.4byte	0x331e
 12855 3fbf FD0A0000 		.4byte	.LLST112
 12856 3fc3 F90A0000 		.4byte	.LVUS112
 12857 3fc7 00       		.byte	0
 12858 3fc8 2F       		.uleb128 0x2f
 12859 3fc9 5A0D0000 		.4byte	.LASF685
 12860 3fcd 01       		.byte	0x1
 12861 3fce 7A04     		.2byte	0x47a
 12862 3fd0 06       		.byte	0x6
 12863 3fd1 00000000 		.4byte	.LFB283
 12864 3fd5 12000000 		.4byte	.LFE283-.LFB283
 12865 3fd9 01       		.uleb128 0x1
 12866 3fda 9C       		.byte	0x9c
 12867 3fdb 12400000 		.4byte	0x4012
 12868 3fdf 42       		.uleb128 0x42
 12869 3fe0 801C0000 		.4byte	.LASF671
 12870 3fe4 01       		.byte	0x1
ARM GAS  C:\Users\USER\AppData\Local\Temp\ccRejSya.s 			page 227


 12871 3fe5 7A04     		.2byte	0x47a
 12872 3fe7 24       		.byte	0x24
 12873 3fe8 BA2A0000 		.4byte	0x2aba
 12874 3fec 01       		.uleb128 0x1
 12875 3fed 50       		.byte	0x50
 12876 3fee 30       		.uleb128 0x30
 12877 3fef 657000   		.ascii	"ep\000"
 12878 3ff2 01       		.byte	0x1
 12879 3ff3 7A04     		.2byte	0x47a
 12880 3ff5 32       		.byte	0x32
 12881 3ff6 65290000 		.4byte	0x2965
 12882 3ffa 2B0B0000 		.4byte	.LLST109
 12883 3ffe 270B0000 		.4byte	.LVUS109
 12884 4002 47       		.uleb128 0x47
 12885 4003 62756600 		.ascii	"buf\000"
 12886 4007 01       		.byte	0x1
 12887 4008 7A04     		.2byte	0x47a
 12888 400a 3F       		.byte	0x3f
 12889 400b 6F190000 		.4byte	0x196f
 12890 400f 01       		.uleb128 0x1
 12891 4010 52       		.byte	0x52
 12892 4011 00       		.byte	0
 12893 4012 48       		.uleb128 0x48
 12894 4013 03110000 		.4byte	.LASF686
 12895 4017 01       		.byte	0x1
 12896 4018 5F04     		.2byte	0x45f
 12897 401a 0F       		.byte	0xf
 12898 401b CE290000 		.4byte	0x29ce
 12899 401f 00000000 		.4byte	.LFB282
 12900 4023 1A000000 		.4byte	.LFE282-.LFB282
 12901 4027 01       		.uleb128 0x1
 12902 4028 9C       		.byte	0x9c
 12903 4029 6C400000 		.4byte	0x406c
 12904 402d 46       		.uleb128 0x46
 12905 402e 801C0000 		.4byte	.LASF671
 12906 4032 01       		.byte	0x1
 12907 4033 5F04     		.2byte	0x45f
 12908 4035 30       		.byte	0x30
 12909 4036 BA2A0000 		.4byte	0x2aba
 12910 403a 500B0000 		.4byte	.LLST106
 12911 403e 4C0B0000 		.4byte	.LVUS106
 12912 4042 30       		.uleb128 0x30
 12913 4043 657000   		.ascii	"ep\000"
 12914 4046 01       		.byte	0x1
 12915 4047 5F04     		.2byte	0x45f
 12916 4049 3E       		.byte	0x3e
 12917 404a 65290000 		.4byte	0x2965
 12918 404e 750B0000 		.4byte	.LLST107
 12919 4052 710B0000 		.4byte	.LVUS107
 12920 4056 33       		.uleb128 0x33
 12921 4057 63746C00 		.ascii	"ctl\000"
 12922 405b 01       		.byte	0x1
 12923 405c 6004     		.2byte	0x460
 12924 405e 0C       		.byte	0xc
 12925 405f 92090000 		.4byte	0x992
 12926 4063 980B0000 		.4byte	.LLST108
 12927 4067 960B0000 		.4byte	.LVUS108
ARM GAS  C:\Users\USER\AppData\Local\Temp\ccRejSya.s 			page 228


 12928 406b 00       		.byte	0
 12929 406c 48       		.uleb128 0x48
 12930 406d 4A1C0000 		.4byte	.LASF687
 12931 4071 01       		.byte	0x1
 12932 4072 4604     		.2byte	0x446
 12933 4074 0F       		.byte	0xf
 12934 4075 CE290000 		.4byte	0x29ce
 12935 4079 00000000 		.4byte	.LFB281
 12936 407d 1A000000 		.4byte	.LFE281-.LFB281
 12937 4081 01       		.uleb128 0x1
 12938 4082 9C       		.byte	0x9c
 12939 4083 C6400000 		.4byte	0x40c6
 12940 4087 46       		.uleb128 0x46
 12941 4088 801C0000 		.4byte	.LASF671
 12942 408c 01       		.byte	0x1
 12943 408d 4604     		.2byte	0x446
 12944 408f 31       		.byte	0x31
 12945 4090 BA2A0000 		.4byte	0x2aba
 12946 4094 AF0B0000 		.4byte	.LLST103
 12947 4098 AB0B0000 		.4byte	.LVUS103
 12948 409c 30       		.uleb128 0x30
 12949 409d 657000   		.ascii	"ep\000"
 12950 40a0 01       		.byte	0x1
 12951 40a1 4604     		.2byte	0x446
 12952 40a3 3F       		.byte	0x3f
 12953 40a4 65290000 		.4byte	0x2965
 12954 40a8 D40B0000 		.4byte	.LLST104
 12955 40ac D00B0000 		.4byte	.LVUS104
 12956 40b0 33       		.uleb128 0x33
 12957 40b1 63746C00 		.ascii	"ctl\000"
 12958 40b5 01       		.byte	0x1
 12959 40b6 4704     		.2byte	0x447
 12960 40b8 0C       		.byte	0xc
 12961 40b9 92090000 		.4byte	0x992
 12962 40bd F70B0000 		.4byte	.LLST105
 12963 40c1 F50B0000 		.4byte	.LVUS105
 12964 40c5 00       		.byte	0
 12965 40c6 2F       		.uleb128 0x2f
 12966 40c7 24100000 		.4byte	.LASF688
 12967 40cb 01       		.byte	0x1
 12968 40cc 3104     		.2byte	0x431
 12969 40ce 06       		.byte	0x6
 12970 40cf 00000000 		.4byte	.LFB280
 12971 40d3 0E000000 		.4byte	.LFE280-.LFB280
 12972 40d7 01       		.uleb128 0x1
 12973 40d8 9C       		.byte	0x9c
 12974 40d9 2C410000 		.4byte	0x412c
 12975 40dd 46       		.uleb128 0x46
 12976 40de 801C0000 		.4byte	.LASF671
 12977 40e2 01       		.byte	0x1
 12978 40e3 3104     		.2byte	0x431
 12979 40e5 2B       		.byte	0x2b
 12980 40e6 BA2A0000 		.4byte	0x2aba
 12981 40ea 100C0000 		.4byte	.LLST102
 12982 40ee 0A0C0000 		.4byte	.LVUS102
 12983 40f2 49       		.uleb128 0x49
 12984 40f3 284D0000 		.4byte	0x4d28
ARM GAS  C:\Users\USER\AppData\Local\Temp\ccRejSya.s 			page 229


 12985 40f7 06000000 		.4byte	.LBB828
 12986 40fb 04000000 		.4byte	.LBE828-.LBB828
 12987 40ff 01       		.byte	0x1
 12988 4100 3404     		.2byte	0x434
 12989 4102 03       		.byte	0x3
 12990 4103 12410000 		.4byte	0x4112
 12991 4107 39       		.uleb128 0x39
 12992 4108 354D0000 		.4byte	0x4d35
 12993 410c 39       		.uleb128 0x39
 12994 410d 354D0000 		.4byte	0x4d35
 12995 4111 00       		.byte	0
 12996 4112 4A       		.uleb128 0x4a
 12997 4113 0E000000 		.4byte	.LVL187
 12998 4117 854F0000 		.4byte	0x4f85
 12999 411b 40       		.uleb128 0x40
 13000 411c 01       		.uleb128 0x1
 13001 411d 50       		.byte	0x50
 13002 411e 02       		.uleb128 0x2
 13003 411f 70       		.byte	0x70
 13004 4120 00       		.sleb128 0
 13005 4121 4B       		.uleb128 0x4b
 13006 4122 A74D0000 		.4byte	0x4da7
 13007 4126 03       		.uleb128 0x3
 13008 4127 F3       		.byte	0xf3
 13009 4128 01       		.uleb128 0x1
 13010 4129 50       		.byte	0x50
 13011 412a 00       		.byte	0
 13012 412b 00       		.byte	0
 13013 412c 2F       		.uleb128 0x2f
 13014 412d 081E0000 		.4byte	.LASF689
 13015 4131 01       		.byte	0x1
 13016 4132 F103     		.2byte	0x3f1
 13017 4134 06       		.byte	0x6
 13018 4135 00000000 		.4byte	.LFB279
 13019 4139 40010000 		.4byte	.LFE279-.LFB279
 13020 413d 01       		.uleb128 0x1
 13021 413e 9C       		.byte	0x9c
 13022 413f ED420000 		.4byte	0x42ed
 13023 4143 46       		.uleb128 0x46
 13024 4144 801C0000 		.4byte	.LASF671
 13025 4148 01       		.byte	0x1
 13026 4149 F103     		.2byte	0x3f1
 13027 414b 27       		.byte	0x27
 13028 414c BA2A0000 		.4byte	0x2aba
 13029 4150 460C0000 		.4byte	.LLST86
 13030 4154 3C0C0000 		.4byte	.LVUS86
 13031 4158 30       		.uleb128 0x30
 13032 4159 657000   		.ascii	"ep\000"
 13033 415c 01       		.byte	0x1
 13034 415d F103     		.2byte	0x3f1
 13035 415f 35       		.byte	0x35
 13036 4160 65290000 		.4byte	0x2965
 13037 4164 8F0C0000 		.4byte	.LLST87
 13038 4168 8B0C0000 		.4byte	.LVUS87
 13039 416c 33       		.uleb128 0x33
 13040 416d 63746C00 		.ascii	"ctl\000"
 13041 4171 01       		.byte	0x1
ARM GAS  C:\Users\USER\AppData\Local\Temp\ccRejSya.s 			page 230


 13042 4172 F203     		.2byte	0x3f2
 13043 4174 0C       		.byte	0xc
 13044 4175 92090000 		.4byte	0x992
 13045 4179 B20C0000 		.4byte	.LLST88
 13046 417d B00C0000 		.4byte	.LVUS88
 13047 4181 31       		.uleb128 0x31
 13048 4182 74110000 		.4byte	.LASF690
 13049 4186 01       		.byte	0x1
 13050 4187 F203     		.2byte	0x3f2
 13051 4189 11       		.byte	0x11
 13052 418a 92090000 		.4byte	0x992
 13053 418e C70C0000 		.4byte	.LLST89
 13054 4192 C50C0000 		.4byte	.LVUS89
 13055 4196 31       		.uleb128 0x31
 13056 4197 7D170000 		.4byte	.LASF672
 13057 419b 01       		.byte	0x1
 13058 419c F303     		.2byte	0x3f3
 13059 419e 10       		.byte	0x10
 13060 419f B7330000 		.4byte	0x33b7
 13061 41a3 DC0C0000 		.4byte	.LLST90
 13062 41a7 DA0C0000 		.4byte	.LVUS90
 13063 41ab 34       		.uleb128 0x34
 13064 41ac D44C0000 		.4byte	0x4cd4
 13065 41b0 92000000 		.4byte	.LBI812
 13066 41b4 0100     		.2byte	.LVU880
 13067 41b6 38080000 		.4byte	.Ldebug_ranges0+0x838
 13068 41ba 01       		.byte	0x1
 13069 41bb 1A04     		.2byte	0x41a
 13070 41bd 1D       		.byte	0x1d
 13071 41be F0410000 		.4byte	0x41f0
 13072 41c2 37       		.uleb128 0x37
 13073 41c3 E54C0000 		.4byte	0x4ce5
 13074 41c7 F30C0000 		.4byte	.LLST91
 13075 41cb EF0C0000 		.4byte	.LVUS91
 13076 41cf 37       		.uleb128 0x37
 13077 41d0 F14C0000 		.4byte	0x4cf1
 13078 41d4 160D0000 		.4byte	.LLST92
 13079 41d8 140D0000 		.4byte	.LVUS92
 13080 41dc 38       		.uleb128 0x38
 13081 41dd 38080000 		.4byte	.Ldebug_ranges0+0x838
 13082 41e1 3B       		.uleb128 0x3b
 13083 41e2 FD4C0000 		.4byte	0x4cfd
 13084 41e6 2B0D0000 		.4byte	.LLST93
 13085 41ea 290D0000 		.4byte	.LVUS93
 13086 41ee 00       		.byte	0
 13087 41ef 00       		.byte	0
 13088 41f0 3E       		.uleb128 0x3e
 13089 41f1 424D0000 		.4byte	0x4d42
 13090 41f5 A0000000 		.4byte	.LBI820
 13091 41f9 0100     		.2byte	.LVU894
 13092 41fb A0000000 		.4byte	.LBB820
 13093 41ff 10000000 		.4byte	.LBE820-.LBB820
 13094 4203 01       		.byte	0x1
 13095 4204 1B04     		.2byte	0x41b
 13096 4206 05       		.byte	0x5
 13097 4207 70420000 		.4byte	0x4270
 13098 420b 37       		.uleb128 0x37
ARM GAS  C:\Users\USER\AppData\Local\Temp\ccRejSya.s 			page 231


 13099 420c 4F4D0000 		.4byte	0x4d4f
 13100 4210 420D0000 		.4byte	.LLST94
 13101 4214 3E0D0000 		.4byte	.LVUS94
 13102 4218 37       		.uleb128 0x37
 13103 4219 5B4D0000 		.4byte	0x4d5b
 13104 421d 650D0000 		.4byte	.LLST95
 13105 4221 630D0000 		.4byte	.LVUS95
 13106 4225 4C       		.uleb128 0x4c
 13107 4226 A0000000 		.4byte	.LBB821
 13108 422a 10000000 		.4byte	.LBE821-.LBB821
 13109 422e 3B       		.uleb128 0x3b
 13110 422f 674D0000 		.4byte	0x4d67
 13111 4233 7F0D0000 		.4byte	.LLST96
 13112 4237 7D0D0000 		.4byte	.LVUS96
 13113 423b 4D       		.uleb128 0x4d
 13114 423c 724E0000 		.4byte	0x4e72
 13115 4240 AA000000 		.4byte	.LBI822
 13116 4244 0100     		.2byte	.LVU903
 13117 4246 AA000000 		.4byte	.LBB822
 13118 424a 06000000 		.4byte	.LBE822-.LBB822
 13119 424e 01       		.byte	0x1
 13120 424f BA       		.byte	0xba
 13121 4250 03       		.byte	0x3
 13122 4251 37       		.uleb128 0x37
 13123 4252 804E0000 		.4byte	0x4e80
 13124 4256 940D0000 		.4byte	.LLST97
 13125 425a 920D0000 		.4byte	.LVUS97
 13126 425e 3F       		.uleb128 0x3f
 13127 425f B0000000 		.4byte	.LVL178
 13128 4263 B8540000 		.4byte	0x54b8
 13129 4267 40       		.uleb128 0x40
 13130 4268 01       		.uleb128 0x1
 13131 4269 50       		.byte	0x50
 13132 426a 01       		.uleb128 0x1
 13133 426b 3C       		.byte	0x3c
 13134 426c 00       		.byte	0
 13135 426d 00       		.byte	0
 13136 426e 00       		.byte	0
 13137 426f 00       		.byte	0
 13138 4270 36       		.uleb128 0x36
 13139 4271 424D0000 		.4byte	0x4d42
 13140 4275 E2000000 		.4byte	.LBI824
 13141 4279 0100     		.2byte	.LVU923
 13142 427b E2000000 		.4byte	.LBB824
 13143 427f 14000000 		.4byte	.LBE824-.LBB824
 13144 4283 01       		.byte	0x1
 13145 4284 2404     		.2byte	0x424
 13146 4286 05       		.byte	0x5
 13147 4287 37       		.uleb128 0x37
 13148 4288 4F4D0000 		.4byte	0x4d4f
 13149 428c AC0D0000 		.4byte	.LLST98
 13150 4290 A80D0000 		.4byte	.LVUS98
 13151 4294 37       		.uleb128 0x37
 13152 4295 5B4D0000 		.4byte	0x4d5b
 13153 4299 CF0D0000 		.4byte	.LLST99
 13154 429d CD0D0000 		.4byte	.LVUS99
 13155 42a1 4C       		.uleb128 0x4c
ARM GAS  C:\Users\USER\AppData\Local\Temp\ccRejSya.s 			page 232


 13156 42a2 E2000000 		.4byte	.LBB825
 13157 42a6 14000000 		.4byte	.LBE825-.LBB825
 13158 42aa 3B       		.uleb128 0x3b
 13159 42ab 674D0000 		.4byte	0x4d67
 13160 42af E90D0000 		.4byte	.LLST100
 13161 42b3 E70D0000 		.4byte	.LVUS100
 13162 42b7 4D       		.uleb128 0x4d
 13163 42b8 724E0000 		.4byte	0x4e72
 13164 42bc EC000000 		.4byte	.LBI826
 13165 42c0 0100     		.2byte	.LVU932
 13166 42c2 EC000000 		.4byte	.LBB826
 13167 42c6 0A000000 		.4byte	.LBE826-.LBB826
 13168 42ca 01       		.byte	0x1
 13169 42cb BA       		.byte	0xba
 13170 42cc 03       		.byte	0x3
 13171 42cd 37       		.uleb128 0x37
 13172 42ce 804E0000 		.4byte	0x4e80
 13173 42d2 FE0D0000 		.4byte	.LLST101
 13174 42d6 FC0D0000 		.4byte	.LVUS101
 13175 42da 3F       		.uleb128 0x3f
 13176 42db F6000000 		.4byte	.LVL183
 13177 42df B8540000 		.4byte	0x54b8
 13178 42e3 40       		.uleb128 0x40
 13179 42e4 01       		.uleb128 0x1
 13180 42e5 50       		.byte	0x50
 13181 42e6 01       		.uleb128 0x1
 13182 42e7 3C       		.byte	0x3c
 13183 42e8 00       		.byte	0
 13184 42e9 00       		.byte	0
 13185 42ea 00       		.byte	0
 13186 42eb 00       		.byte	0
 13187 42ec 00       		.byte	0
 13188 42ed 2F       		.uleb128 0x2f
 13189 42ee 700B0000 		.4byte	.LASF691
 13190 42f2 01       		.byte	0x1
 13191 42f3 E303     		.2byte	0x3e3
 13192 42f5 06       		.byte	0x6
 13193 42f6 00000000 		.4byte	.LFB278
 13194 42fa 18000000 		.4byte	.LFE278-.LFB278
 13195 42fe 01       		.uleb128 0x1
 13196 42ff 9C       		.byte	0x9c
 13197 4300 29430000 		.4byte	0x4329
 13198 4304 42       		.uleb128 0x42
 13199 4305 801C0000 		.4byte	.LASF671
 13200 4309 01       		.byte	0x1
 13201 430a E303     		.2byte	0x3e3
 13202 430c 25       		.byte	0x25
 13203 430d BA2A0000 		.4byte	0x2aba
 13204 4311 01       		.uleb128 0x1
 13205 4312 50       		.byte	0x50
 13206 4313 31       		.uleb128 0x31
 13207 4314 7D170000 		.4byte	.LASF672
 13208 4318 01       		.byte	0x1
 13209 4319 E403     		.2byte	0x3e4
 13210 431b 10       		.byte	0x10
 13211 431c B7330000 		.4byte	0x33b7
 13212 4320 140E0000 		.4byte	.LLST85
ARM GAS  C:\Users\USER\AppData\Local\Temp\ccRejSya.s 			page 233


 13213 4324 120E0000 		.4byte	.LVUS85
 13214 4328 00       		.byte	0
 13215 4329 2F       		.uleb128 0x2f
 13216 432a C7100000 		.4byte	.LASF692
 13217 432e 01       		.byte	0x1
 13218 432f AD03     		.2byte	0x3ad
 13219 4331 06       		.byte	0x6
 13220 4332 00000000 		.4byte	.LFB277
 13221 4336 C8000000 		.4byte	.LFE277-.LFB277
 13222 433a 01       		.uleb128 0x1
 13223 433b 9C       		.byte	0x9c
 13224 433c DC440000 		.4byte	0x44dc
 13225 4340 46       		.uleb128 0x46
 13226 4341 801C0000 		.4byte	.LASF671
 13227 4345 01       		.byte	0x1
 13228 4346 AD03     		.2byte	0x3ad
 13229 4348 1F       		.byte	0x1f
 13230 4349 BA2A0000 		.4byte	0x2aba
 13231 434d 2D0E0000 		.4byte	.LLST70
 13232 4351 270E0000 		.4byte	.LVUS70
 13233 4355 33       		.uleb128 0x33
 13234 4356 6900     		.ascii	"i\000"
 13235 4358 01       		.byte	0x1
 13236 4359 AE03     		.2byte	0x3ae
 13237 435b 0C       		.byte	0xc
 13238 435c 25000000 		.4byte	0x25
 13239 4360 610E0000 		.4byte	.LLST71
 13240 4364 590E0000 		.4byte	.LVUS71
 13241 4368 31       		.uleb128 0x31
 13242 4369 7D170000 		.4byte	.LASF672
 13243 436d 01       		.byte	0x1
 13244 436e AF03     		.2byte	0x3af
 13245 4370 10       		.byte	0x10
 13246 4371 B7330000 		.4byte	0x33b7
 13247 4375 980E0000 		.4byte	.LLST72
 13248 4379 960E0000 		.4byte	.LVUS72
 13249 437d 34       		.uleb128 0x34
 13250 437e 424D0000 		.4byte	0x4d42
 13251 4382 08000000 		.4byte	.LBI794
 13252 4386 0000     		.2byte	.LVU733
 13253 4388 F0070000 		.4byte	.Ldebug_ranges0+0x7f0
 13254 438c 01       		.byte	0x1
 13255 438d B203     		.2byte	0x3b2
 13256 438f 03       		.byte	0x3
 13257 4390 F5430000 		.4byte	0x43f5
 13258 4394 37       		.uleb128 0x37
 13259 4395 4F4D0000 		.4byte	0x4d4f
 13260 4399 B10E0000 		.4byte	.LLST73
 13261 439d AB0E0000 		.4byte	.LVUS73
 13262 43a1 37       		.uleb128 0x37
 13263 43a2 5B4D0000 		.4byte	0x4d5b
 13264 43a6 DF0E0000 		.4byte	.LLST74
 13265 43aa DD0E0000 		.4byte	.LVUS74
 13266 43ae 38       		.uleb128 0x38
 13267 43af F0070000 		.4byte	.Ldebug_ranges0+0x7f0
 13268 43b3 3B       		.uleb128 0x3b
 13269 43b4 674D0000 		.4byte	0x4d67
ARM GAS  C:\Users\USER\AppData\Local\Temp\ccRejSya.s 			page 234


 13270 43b8 F50E0000 		.4byte	.LLST75
 13271 43bc F30E0000 		.4byte	.LVUS75
 13272 43c0 4D       		.uleb128 0x4d
 13273 43c1 724E0000 		.4byte	0x4e72
 13274 43c5 12000000 		.4byte	.LBI796
 13275 43c9 0100     		.2byte	.LVU742
 13276 43cb 12000000 		.4byte	.LBB796
 13277 43cf 06000000 		.4byte	.LBE796-.LBB796
 13278 43d3 01       		.byte	0x1
 13279 43d4 BA       		.byte	0xba
 13280 43d5 03       		.byte	0x3
 13281 43d6 37       		.uleb128 0x37
 13282 43d7 804E0000 		.4byte	0x4e80
 13283 43db 0A0F0000 		.4byte	.LLST76
 13284 43df 080F0000 		.4byte	.LVUS76
 13285 43e3 3F       		.uleb128 0x3f
 13286 43e4 18000000 		.4byte	.LVL151
 13287 43e8 B8540000 		.4byte	0x54b8
 13288 43ec 40       		.uleb128 0x40
 13289 43ed 01       		.uleb128 0x1
 13290 43ee 50       		.byte	0x50
 13291 43ef 01       		.uleb128 0x1
 13292 43f0 3C       		.byte	0x3c
 13293 43f1 00       		.byte	0
 13294 43f2 00       		.byte	0
 13295 43f3 00       		.byte	0
 13296 43f4 00       		.byte	0
 13297 43f5 34       		.uleb128 0x34
 13298 43f6 284D0000 		.4byte	0x4d28
 13299 43fa 5C000000 		.4byte	.LBI800
 13300 43fe 0100     		.2byte	.LVU771
 13301 4400 08080000 		.4byte	.Ldebug_ranges0+0x808
 13302 4404 01       		.byte	0x1
 13303 4405 C103     		.2byte	0x3c1
 13304 4407 03       		.byte	0x3
 13305 4408 27440000 		.4byte	0x4427
 13306 440c 37       		.uleb128 0x37
 13307 440d 354D0000 		.4byte	0x4d35
 13308 4411 220F0000 		.4byte	.LLST77
 13309 4415 1E0F0000 		.4byte	.LVUS77
 13310 4419 37       		.uleb128 0x37
 13311 441a 354D0000 		.4byte	0x4d35
 13312 441e 470F0000 		.4byte	.LLST78
 13313 4422 430F0000 		.4byte	.LVUS78
 13314 4426 00       		.byte	0
 13315 4427 3E       		.uleb128 0x3e
 13316 4428 744D0000 		.4byte	0x4d74
 13317 442c 66000000 		.4byte	.LBI804
 13318 4430 0100     		.2byte	.LVU779
 13319 4432 66000000 		.4byte	.LBB804
 13320 4436 12000000 		.4byte	.LBE804-.LBB804
 13321 443a 01       		.byte	0x1
 13322 443b C503     		.2byte	0x3c5
 13323 443d 03       		.byte	0x3
 13324 443e 9A440000 		.4byte	0x449a
 13325 4442 37       		.uleb128 0x37
 13326 4443 814D0000 		.4byte	0x4d81
ARM GAS  C:\Users\USER\AppData\Local\Temp\ccRejSya.s 			page 235


 13327 4447 6C0F0000 		.4byte	.LLST79
 13328 444b 680F0000 		.4byte	.LVUS79
 13329 444f 4C       		.uleb128 0x4c
 13330 4450 66000000 		.4byte	.LBB805
 13331 4454 12000000 		.4byte	.LBE805-.LBB805
 13332 4458 3B       		.uleb128 0x3b
 13333 4459 8D4D0000 		.4byte	0x4d8d
 13334 445d 8F0F0000 		.4byte	.LLST80
 13335 4461 8D0F0000 		.4byte	.LVUS80
 13336 4465 4D       		.uleb128 0x4d
 13337 4466 724E0000 		.4byte	0x4e72
 13338 446a 72000000 		.4byte	.LBI806
 13339 446e 0100     		.2byte	.LVU788
 13340 4470 72000000 		.4byte	.LBB806
 13341 4474 06000000 		.4byte	.LBE806-.LBB806
 13342 4478 01       		.byte	0x1
 13343 4479 B0       		.byte	0xb0
 13344 447a 03       		.byte	0x3
 13345 447b 37       		.uleb128 0x37
 13346 447c 804E0000 		.4byte	0x4e80
 13347 4480 A40F0000 		.4byte	.LLST81
 13348 4484 A20F0000 		.4byte	.LVUS81
 13349 4488 3F       		.uleb128 0x3f
 13350 4489 78000000 		.4byte	.LVL159
 13351 448d B8540000 		.4byte	0x54b8
 13352 4491 40       		.uleb128 0x40
 13353 4492 01       		.uleb128 0x1
 13354 4493 50       		.byte	0x50
 13355 4494 01       		.uleb128 0x1
 13356 4495 3C       		.byte	0x3c
 13357 4496 00       		.byte	0
 13358 4497 00       		.byte	0
 13359 4498 00       		.byte	0
 13360 4499 00       		.byte	0
 13361 449a 35       		.uleb128 0x35
 13362 449b D44C0000 		.4byte	0x4cd4
 13363 449f B0000000 		.4byte	.LBI808
 13364 44a3 0100     		.2byte	.LVU814
 13365 44a5 20080000 		.4byte	.Ldebug_ranges0+0x820
 13366 44a9 01       		.byte	0x1
 13367 44aa D803     		.2byte	0x3d8
 13368 44ac 14       		.byte	0x14
 13369 44ad 37       		.uleb128 0x37
 13370 44ae E54C0000 		.4byte	0x4ce5
 13371 44b2 BC0F0000 		.4byte	.LLST82
 13372 44b6 B80F0000 		.4byte	.LVUS82
 13373 44ba 37       		.uleb128 0x37
 13374 44bb F14C0000 		.4byte	0x4cf1
 13375 44bf DF0F0000 		.4byte	.LLST83
 13376 44c3 DD0F0000 		.4byte	.LVUS83
 13377 44c7 38       		.uleb128 0x38
 13378 44c8 20080000 		.4byte	.Ldebug_ranges0+0x820
 13379 44cc 3B       		.uleb128 0x3b
 13380 44cd FD4C0000 		.4byte	0x4cfd
 13381 44d1 F90F0000 		.4byte	.LLST84
 13382 44d5 F30F0000 		.4byte	.LVUS84
 13383 44d9 00       		.byte	0
ARM GAS  C:\Users\USER\AppData\Local\Temp\ccRejSya.s 			page 236


 13384 44da 00       		.byte	0
 13385 44db 00       		.byte	0
 13386 44dc 2F       		.uleb128 0x2f
 13387 44dd EE010000 		.4byte	.LASF693
 13388 44e1 01       		.byte	0x1
 13389 44e2 8603     		.2byte	0x386
 13390 44e4 06       		.byte	0x6
 13391 44e5 00000000 		.4byte	.LFB276
 13392 44e9 44000000 		.4byte	.LFE276-.LFB276
 13393 44ed 01       		.uleb128 0x1
 13394 44ee 9C       		.byte	0x9c
 13395 44ef 42450000 		.4byte	0x4542
 13396 44f3 46       		.uleb128 0x46
 13397 44f4 801C0000 		.4byte	.LASF671
 13398 44f8 01       		.byte	0x1
 13399 44f9 8603     		.2byte	0x386
 13400 44fb 1E       		.byte	0x1e
 13401 44fc BA2A0000 		.4byte	0x2aba
 13402 4500 30100000 		.4byte	.LLST68
 13403 4504 26100000 		.4byte	.LVUS68
 13404 4508 31       		.uleb128 0x31
 13405 4509 7D170000 		.4byte	.LASF672
 13406 450d 01       		.byte	0x1
 13407 450e 8703     		.2byte	0x387
 13408 4510 10       		.byte	0x10
 13409 4511 B7330000 		.4byte	0x33b7
 13410 4515 7B100000 		.4byte	.LLST69
 13411 4519 75100000 		.4byte	.LVUS69
 13412 451d 4E       		.uleb128 0x4e
 13413 451e 16000000 		.4byte	.LVL143
 13414 4522 854F0000 		.4byte	0x4f85
 13415 4526 31450000 		.4byte	0x4531
 13416 452a 40       		.uleb128 0x40
 13417 452b 01       		.uleb128 0x1
 13418 452c 50       		.byte	0x50
 13419 452d 02       		.uleb128 0x2
 13420 452e 70       		.byte	0x70
 13421 452f 00       		.sleb128 0
 13422 4530 00       		.byte	0
 13423 4531 3F       		.uleb128 0x3f
 13424 4532 2E000000 		.4byte	.LVL144
 13425 4536 C5540000 		.4byte	0x54c5
 13426 453a 40       		.uleb128 0x40
 13427 453b 01       		.uleb128 0x1
 13428 453c 50       		.byte	0x50
 13429 453d 02       		.uleb128 0x2
 13430 453e 08       		.byte	0x8
 13431 453f 43       		.byte	0x43
 13432 4540 00       		.byte	0
 13433 4541 00       		.byte	0
 13434 4542 2F       		.uleb128 0x2f
 13435 4543 B40B0000 		.4byte	.LASF694
 13436 4547 01       		.byte	0x1
 13437 4548 2603     		.2byte	0x326
 13438 454a 06       		.byte	0x6
 13439 454b 00000000 		.4byte	.LFB275
 13440 454f E4000000 		.4byte	.LFE275-.LFB275
ARM GAS  C:\Users\USER\AppData\Local\Temp\ccRejSya.s 			page 237


 13441 4553 01       		.uleb128 0x1
 13442 4554 9C       		.byte	0x9c
 13443 4555 CE460000 		.4byte	0x46ce
 13444 4559 46       		.uleb128 0x46
 13445 455a 801C0000 		.4byte	.LASF671
 13446 455e 01       		.byte	0x1
 13447 455f 2603     		.2byte	0x326
 13448 4561 1F       		.byte	0x1f
 13449 4562 BA2A0000 		.4byte	0x2aba
 13450 4566 B2100000 		.4byte	.LLST61
 13451 456a AA100000 		.4byte	.LVUS61
 13452 456e 31       		.uleb128 0x31
 13453 456f 7D170000 		.4byte	.LASF672
 13454 4573 01       		.byte	0x1
 13455 4574 2703     		.2byte	0x327
 13456 4576 10       		.byte	0x10
 13457 4577 B7330000 		.4byte	0x33b7
 13458 457b EC100000 		.4byte	.LLST62
 13459 457f E6100000 		.4byte	.LVUS62
 13460 4583 34       		.uleb128 0x34
 13461 4584 CA4D0000 		.4byte	0x4dca
 13462 4588 32000000 		.4byte	.LBI782
 13463 458c 0100     		.2byte	.LVU632
 13464 458e C0070000 		.4byte	.Ldebug_ranges0+0x7c0
 13465 4592 01       		.byte	0x1
 13466 4593 5A03     		.2byte	0x35a
 13467 4595 05       		.byte	0x5
 13468 4596 22460000 		.4byte	0x4622
 13469 459a 37       		.uleb128 0x37
 13470 459b D74D0000 		.4byte	0x4dd7
 13471 459f 1F110000 		.4byte	.LLST63
 13472 45a3 1B110000 		.4byte	.LVUS63
 13473 45a7 38       		.uleb128 0x38
 13474 45a8 C0070000 		.4byte	.Ldebug_ranges0+0x7c0
 13475 45ac 3B       		.uleb128 0x3b
 13476 45ad E34D0000 		.4byte	0x4de3
 13477 45b1 3F110000 		.4byte	.LLST64
 13478 45b5 3D110000 		.4byte	.LVUS64
 13479 45b9 4F       		.uleb128 0x4f
 13480 45ba 724E0000 		.4byte	0x4e72
 13481 45be 32000000 		.4byte	.LBI784
 13482 45c2 0400     		.2byte	.LVU635
 13483 45c4 D8070000 		.4byte	.Ldebug_ranges0+0x7d8
 13484 45c8 01       		.byte	0x1
 13485 45c9 76       		.byte	0x76
 13486 45ca 03       		.byte	0x3
 13487 45cb ED450000 		.4byte	0x45ed
 13488 45cf 37       		.uleb128 0x37
 13489 45d0 804E0000 		.4byte	0x4e80
 13490 45d4 56110000 		.4byte	.LLST65
 13491 45d8 54110000 		.4byte	.LVUS65
 13492 45dc 3F       		.uleb128 0x3f
 13493 45dd 36000000 		.4byte	.LVL126
 13494 45e1 B8540000 		.4byte	0x54b8
 13495 45e5 40       		.uleb128 0x40
 13496 45e6 01       		.uleb128 0x1
 13497 45e7 50       		.byte	0x50
ARM GAS  C:\Users\USER\AppData\Local\Temp\ccRejSya.s 			page 238


 13498 45e8 02       		.uleb128 0x2
 13499 45e9 08       		.byte	0x8
 13500 45ea 20       		.byte	0x20
 13501 45eb 00       		.byte	0
 13502 45ec 00       		.byte	0
 13503 45ed 4D       		.uleb128 0x4d
 13504 45ee 724E0000 		.4byte	0x4e72
 13505 45f2 40000000 		.4byte	.LBI788
 13506 45f6 0100     		.2byte	.LVU645
 13507 45f8 40000000 		.4byte	.LBB788
 13508 45fc 06000000 		.4byte	.LBE788-.LBB788
 13509 4600 01       		.byte	0x1
 13510 4601 7D       		.byte	0x7d
 13511 4602 03       		.byte	0x3
 13512 4603 37       		.uleb128 0x37
 13513 4604 804E0000 		.4byte	0x4e80
 13514 4608 6F110000 		.4byte	.LLST66
 13515 460c 6B110000 		.4byte	.LVUS66
 13516 4610 3F       		.uleb128 0x3f
 13517 4611 46000000 		.4byte	.LVL128
 13518 4615 B8540000 		.4byte	0x54b8
 13519 4619 40       		.uleb128 0x40
 13520 461a 01       		.uleb128 0x1
 13521 461b 50       		.byte	0x50
 13522 461c 01       		.uleb128 0x1
 13523 461d 3C       		.byte	0x3c
 13524 461e 00       		.byte	0
 13525 461f 00       		.byte	0
 13526 4620 00       		.byte	0
 13527 4621 00       		.byte	0
 13528 4622 3E       		.uleb128 0x3e
 13529 4623 D04E0000 		.4byte	0x4ed0
 13530 4627 C4000000 		.4byte	.LBI792
 13531 462b 0100     		.2byte	.LVU691
 13532 462d C4000000 		.4byte	.LBB792
 13533 4631 04000000 		.4byte	.LBE792-.LBB792
 13534 4635 01       		.byte	0x1
 13535 4636 7503     		.2byte	0x375
 13536 4638 07       		.byte	0x7
 13537 4639 5E460000 		.4byte	0x465e
 13538 463d 37       		.uleb128 0x37
 13539 463e E14E0000 		.4byte	0x4ee1
 13540 4642 91110000 		.4byte	.LLST67
 13541 4646 8F110000 		.4byte	.LVUS67
 13542 464a 4C       		.uleb128 0x4c
 13543 464b C4000000 		.4byte	.LBB793
 13544 464f 04000000 		.4byte	.LBE793-.LBB793
 13545 4653 41       		.uleb128 0x41
 13546 4654 C8000000 		.4byte	.LVL137
 13547 4658 D1540000 		.4byte	0x54d1
 13548 465c 00       		.byte	0
 13549 465d 00       		.byte	0
 13550 465e 4E       		.uleb128 0x4e
 13551 465f 58000000 		.4byte	.LVL129
 13552 4663 854F0000 		.4byte	0x4f85
 13553 4667 7A460000 		.4byte	0x467a
 13554 466b 40       		.uleb128 0x40
ARM GAS  C:\Users\USER\AppData\Local\Temp\ccRejSya.s 			page 239


 13555 466c 01       		.uleb128 0x1
 13556 466d 50       		.byte	0x50
 13557 466e 02       		.uleb128 0x2
 13558 466f 70       		.byte	0x70
 13559 4670 00       		.sleb128 0
 13560 4671 4B       		.uleb128 0x4b
 13561 4672 A74D0000 		.4byte	0x4da7
 13562 4676 02       		.uleb128 0x2
 13563 4677 74       		.byte	0x74
 13564 4678 00       		.sleb128 0
 13565 4679 00       		.byte	0
 13566 467a 4E       		.uleb128 0x4e
 13567 467b AC000000 		.4byte	.LVL133
 13568 467f DE540000 		.4byte	0x54de
 13569 4683 93460000 		.4byte	0x4693
 13570 4687 40       		.uleb128 0x40
 13571 4688 01       		.uleb128 0x1
 13572 4689 50       		.byte	0x50
 13573 468a 02       		.uleb128 0x2
 13574 468b 08       		.byte	0x8
 13575 468c 43       		.byte	0x43
 13576 468d 40       		.uleb128 0x40
 13577 468e 01       		.uleb128 0x1
 13578 468f 51       		.byte	0x51
 13579 4690 01       		.uleb128 0x1
 13580 4691 3E       		.byte	0x3e
 13581 4692 00       		.byte	0
 13582 4693 4E       		.uleb128 0x4e
 13583 4694 C2000000 		.4byte	.LVL135
 13584 4698 EA540000 		.4byte	0x54ea
 13585 469c C4460000 		.4byte	0x46c4
 13586 46a0 40       		.uleb128 0x40
 13587 46a1 01       		.uleb128 0x1
 13588 46a2 50       		.byte	0x50
 13589 46a3 03       		.uleb128 0x3
 13590 46a4 74       		.byte	0x74
 13591 46a5 E800     		.sleb128 104
 13592 46a7 40       		.uleb128 0x40
 13593 46a8 01       		.uleb128 0x1
 13594 46a9 51       		.byte	0x51
 13595 46aa 03       		.uleb128 0x3
 13596 46ab 0A       		.byte	0xa
 13597 46ac 1802     		.2byte	0x218
 13598 46ae 40       		.uleb128 0x40
 13599 46af 01       		.uleb128 0x1
 13600 46b0 52       		.byte	0x52
 13601 46b1 01       		.uleb128 0x1
 13602 46b2 32       		.byte	0x32
 13603 46b3 40       		.uleb128 0x40
 13604 46b4 01       		.uleb128 0x1
 13605 46b5 53       		.byte	0x53
 13606 46b6 05       		.uleb128 0x5
 13607 46b7 03       		.byte	0x3
 13608 46b8 00000000 		.4byte	usb_lld_pump
 13609 46bc 40       		.uleb128 0x40
 13610 46bd 02       		.uleb128 0x2
 13611 46be 7D       		.byte	0x7d
ARM GAS  C:\Users\USER\AppData\Local\Temp\ccRejSya.s 			page 240


 13612 46bf 00       		.sleb128 0
 13613 46c0 02       		.uleb128 0x2
 13614 46c1 74       		.byte	0x74
 13615 46c2 00       		.sleb128 0
 13616 46c3 00       		.byte	0
 13617 46c4 41       		.uleb128 0x41
 13618 46c5 CC000000 		.4byte	.LVL138
 13619 46c9 9F540000 		.4byte	0x549f
 13620 46cd 00       		.byte	0
 13621 46ce 2F       		.uleb128 0x2f
 13622 46cf 68120000 		.4byte	.LASF695
 13623 46d3 01       		.byte	0x1
 13624 46d4 E802     		.2byte	0x2e8
 13625 46d6 06       		.byte	0x6
 13626 46d7 00000000 		.4byte	.LFB274
 13627 46db 24000000 		.4byte	.LFE274-.LFB274
 13628 46df 01       		.uleb128 0x1
 13629 46e0 9C       		.byte	0x9c
 13630 46e1 F6460000 		.4byte	0x46f6
 13631 46e5 3F       		.uleb128 0x3f
 13632 46e6 0A000000 		.4byte	.LVL122
 13633 46ea F6540000 		.4byte	0x54f6
 13634 46ee 40       		.uleb128 0x40
 13635 46ef 01       		.uleb128 0x1
 13636 46f0 50       		.byte	0x50
 13637 46f1 02       		.uleb128 0x2
 13638 46f2 74       		.byte	0x74
 13639 46f3 00       		.sleb128 0
 13640 46f4 00       		.byte	0
 13641 46f5 00       		.byte	0
 13642 46f6 2F       		.uleb128 0x2f
 13643 46f7 F50C0000 		.4byte	.LASF696
 13644 46fb 01       		.byte	0x1
 13645 46fc C202     		.2byte	0x2c2
 13646 46fe 01       		.byte	0x1
 13647 46ff 00000000 		.4byte	.LFB273
 13648 4703 E8000000 		.4byte	.LFE273-.LFB273
 13649 4707 01       		.uleb128 0x1
 13650 4708 9C       		.byte	0x9c
 13651 4709 7B490000 		.4byte	0x497b
 13652 470d 34       		.uleb128 0x34
 13653 470e 7B490000 		.4byte	0x497b
 13654 4712 00000000 		.4byte	.LBI965
 13655 4716 0500     		.2byte	.LVU1243
 13656 4718 600A0000 		.4byte	.Ldebug_ranges0+0xa60
 13657 471c 01       		.byte	0x1
 13658 471d C602     		.2byte	0x2c6
 13659 471f 03       		.byte	0x3
 13660 4720 68490000 		.4byte	0x4968
 13661 4724 37       		.uleb128 0x37
 13662 4725 89490000 		.4byte	0x4989
 13663 4729 AA110000 		.4byte	.LLST137
 13664 472d A4110000 		.4byte	.LVUS137
 13665 4731 38       		.uleb128 0x38
 13666 4732 600A0000 		.4byte	.Ldebug_ranges0+0xa60
 13667 4736 3B       		.uleb128 0x3b
 13668 4737 96490000 		.4byte	0x4996
ARM GAS  C:\Users\USER\AppData\Local\Temp\ccRejSya.s 			page 241


 13669 473b E8110000 		.4byte	.LLST138
 13670 473f E2110000 		.4byte	.LVUS138
 13671 4743 3B       		.uleb128 0x3b
 13672 4744 A3490000 		.4byte	0x49a3
 13673 4748 17120000 		.4byte	.LLST139
 13674 474c 11120000 		.4byte	.LVUS139
 13675 4750 3B       		.uleb128 0x3b
 13676 4751 B0490000 		.4byte	0x49b0
 13677 4755 46120000 		.4byte	.LLST140
 13678 4759 40120000 		.4byte	.LVUS140
 13679 475d 34       		.uleb128 0x34
 13680 475e 984E0000 		.4byte	0x4e98
 13681 4762 60000000 		.4byte	.LBI967
 13682 4766 0100     		.2byte	.LVU1301
 13683 4768 D00A0000 		.4byte	.Ldebug_ranges0+0xad0
 13684 476c 01       		.byte	0x1
 13685 476d 8B02     		.2byte	0x28b
 13686 476f 05       		.byte	0x5
 13687 4770 D6470000 		.4byte	0x47d6
 13688 4774 35       		.uleb128 0x35
 13689 4775 154F0000 		.4byte	0x4f15
 13690 4779 60000000 		.4byte	.LBI968
 13691 477d 0300     		.2byte	.LVU1303
 13692 477f D80A0000 		.4byte	.Ldebug_ranges0+0xad8
 13693 4783 03       		.byte	0x3
 13694 4784 0302     		.2byte	0x203
 13695 4786 03       		.byte	0x3
 13696 4787 35       		.uleb128 0x35
 13697 4788 4B4F0000 		.4byte	0x4f4b
 13698 478c 60000000 		.4byte	.LBI969
 13699 4790 0500     		.2byte	.LVU1305
 13700 4792 E00A0000 		.4byte	.Ldebug_ranges0+0xae0
 13701 4796 04       		.byte	0x4
 13702 4797 8401     		.2byte	0x184
 13703 4799 03       		.byte	0x3
 13704 479a 35       		.uleb128 0x35
 13705 479b 5F4F0000 		.4byte	0x4f5f
 13706 479f 60000000 		.4byte	.LBI970
 13707 47a3 0700     		.2byte	.LVU1307
 13708 47a5 E80A0000 		.4byte	.Ldebug_ranges0+0xae8
 13709 47a9 05       		.byte	0x5
 13710 47aa DB01     		.2byte	0x1db
 13711 47ac 03       		.byte	0x3
 13712 47ad 36       		.uleb128 0x36
 13713 47ae 694F0000 		.4byte	0x4f69
 13714 47b2 60000000 		.4byte	.LBI971
 13715 47b6 0900     		.2byte	.LVU1309
 13716 47b8 60000000 		.4byte	.LBB971
 13717 47bc 06000000 		.4byte	.LBE971-.LBB971
 13718 47c0 05       		.byte	0x5
 13719 47c1 BF01     		.2byte	0x1bf
 13720 47c3 03       		.byte	0x3
 13721 47c4 37       		.uleb128 0x37
 13722 47c5 774F0000 		.4byte	0x4f77
 13723 47c9 71120000 		.4byte	.LLST141
 13724 47cd 6F120000 		.4byte	.LVUS141
 13725 47d1 00       		.byte	0
ARM GAS  C:\Users\USER\AppData\Local\Temp\ccRejSya.s 			page 242


 13726 47d2 00       		.byte	0
 13727 47d3 00       		.byte	0
 13728 47d4 00       		.byte	0
 13729 47d5 00       		.byte	0
 13730 47d6 34       		.uleb128 0x34
 13731 47d7 1F4E0000 		.4byte	0x4e1f
 13732 47db 70000000 		.4byte	.LBI983
 13733 47df 0100     		.2byte	.LVU1319
 13734 47e1 000B0000 		.4byte	.Ldebug_ranges0+0xb00
 13735 47e5 01       		.byte	0x1
 13736 47e6 8D02     		.2byte	0x28d
 13737 47e8 05       		.byte	0x5
 13738 47e9 20480000 		.4byte	0x4820
 13739 47ed 37       		.uleb128 0x37
 13740 47ee 3A4E0000 		.4byte	0x4e3a
 13741 47f2 88120000 		.4byte	.LLST142
 13742 47f6 86120000 		.4byte	.LVUS142
 13743 47fa 37       		.uleb128 0x37
 13744 47fb 2D4E0000 		.4byte	0x4e2d
 13745 47ff 9E120000 		.4byte	.LLST143
 13746 4803 9C120000 		.4byte	.LVUS143
 13747 4807 3F       		.uleb128 0x3f
 13748 4808 76000000 		.4byte	.LVL260
 13749 480c 03550000 		.4byte	0x5503
 13750 4810 40       		.uleb128 0x40
 13751 4811 01       		.uleb128 0x1
 13752 4812 50       		.byte	0x50
 13753 4813 05       		.uleb128 0x5
 13754 4814 03       		.byte	0x3
 13755 4815 60000000 		.4byte	.LANCHOR0+96
 13756 4819 40       		.uleb128 0x40
 13757 481a 01       		.uleb128 0x1
 13758 481b 51       		.byte	0x51
 13759 481c 01       		.uleb128 0x1
 13760 481d 30       		.byte	0x30
 13761 481e 00       		.byte	0
 13762 481f 00       		.byte	0
 13763 4820 34       		.uleb128 0x34
 13764 4821 8E4E0000 		.4byte	0x4e8e
 13765 4825 76000000 		.4byte	.LBI987
 13766 4829 0200     		.2byte	.LVU1323
 13767 482b 180B0000 		.4byte	.Ldebug_ranges0+0xb18
 13768 482f 01       		.byte	0x1
 13769 4830 8E02     		.2byte	0x28e
 13770 4832 05       		.byte	0x5
 13771 4833 99480000 		.4byte	0x4899
 13772 4837 35       		.uleb128 0x35
 13773 4838 0B4F0000 		.4byte	0x4f0b
 13774 483c 76000000 		.4byte	.LBI988
 13775 4840 0400     		.2byte	.LVU1325
 13776 4842 200B0000 		.4byte	.Ldebug_ranges0+0xb20
 13777 4846 03       		.byte	0x3
 13778 4847 0E02     		.2byte	0x20e
 13779 4849 03       		.byte	0x3
 13780 484a 35       		.uleb128 0x35
 13781 484b 414F0000 		.4byte	0x4f41
 13782 484f 76000000 		.4byte	.LBI989
ARM GAS  C:\Users\USER\AppData\Local\Temp\ccRejSya.s 			page 243


 13783 4853 0800     		.2byte	.LVU1329
 13784 4855 280B0000 		.4byte	.Ldebug_ranges0+0xb28
 13785 4859 04       		.byte	0x4
 13786 485a 9A01     		.2byte	0x19a
 13787 485c 03       		.byte	0x3
 13788 485d 35       		.uleb128 0x35
 13789 485e 554F0000 		.4byte	0x4f55
 13790 4862 76000000 		.4byte	.LBI990
 13791 4866 0A00     		.2byte	.LVU1331
 13792 4868 300B0000 		.4byte	.Ldebug_ranges0+0xb30
 13793 486c 05       		.byte	0x5
 13794 486d E601     		.2byte	0x1e6
 13795 486f 03       		.byte	0x3
 13796 4870 36       		.uleb128 0x36
 13797 4871 694F0000 		.4byte	0x4f69
 13798 4875 76000000 		.4byte	.LBI991
 13799 4879 0C00     		.2byte	.LVU1333
 13800 487b 76000000 		.4byte	.LBB991
 13801 487f 08000000 		.4byte	.LBE991-.LBB991
 13802 4883 05       		.byte	0x5
 13803 4884 CD01     		.2byte	0x1cd
 13804 4886 03       		.byte	0x3
 13805 4887 37       		.uleb128 0x37
 13806 4888 774F0000 		.4byte	0x4f77
 13807 488c B8120000 		.4byte	.LLST144
 13808 4890 B6120000 		.4byte	.LVUS144
 13809 4894 00       		.byte	0
 13810 4895 00       		.byte	0
 13811 4896 00       		.byte	0
 13812 4897 00       		.byte	0
 13813 4898 00       		.byte	0
 13814 4899 50       		.uleb128 0x50
 13815 489a 28000000 		.4byte	.LVL252
 13816 489e A9480000 		.4byte	0x48a9
 13817 48a2 40       		.uleb128 0x40
 13818 48a3 01       		.uleb128 0x1
 13819 48a4 50       		.byte	0x50
 13820 48a5 02       		.uleb128 0x2
 13821 48a6 75       		.byte	0x75
 13822 48a7 00       		.sleb128 0
 13823 48a8 00       		.byte	0
 13824 48a9 4E       		.uleb128 0x4e
 13825 48aa 84000000 		.4byte	.LVL262
 13826 48ae 0F550000 		.4byte	0x550f
 13827 48b2 BD480000 		.4byte	0x48bd
 13828 48b6 40       		.uleb128 0x40
 13829 48b7 01       		.uleb128 0x1
 13830 48b8 50       		.byte	0x50
 13831 48b9 02       		.uleb128 0x2
 13832 48ba 75       		.byte	0x75
 13833 48bb 00       		.sleb128 0
 13834 48bc 00       		.byte	0
 13835 48bd 50       		.uleb128 0x50
 13836 48be 92000000 		.4byte	.LVL263
 13837 48c2 D2480000 		.4byte	0x48d2
 13838 48c6 40       		.uleb128 0x40
 13839 48c7 01       		.uleb128 0x1
ARM GAS  C:\Users\USER\AppData\Local\Temp\ccRejSya.s 			page 244


 13840 48c8 50       		.byte	0x50
 13841 48c9 02       		.uleb128 0x2
 13842 48ca 75       		.byte	0x75
 13843 48cb 00       		.sleb128 0
 13844 48cc 40       		.uleb128 0x40
 13845 48cd 01       		.uleb128 0x1
 13846 48ce 51       		.byte	0x51
 13847 48cf 01       		.uleb128 0x1
 13848 48d0 30       		.byte	0x30
 13849 48d1 00       		.byte	0
 13850 48d2 4E       		.uleb128 0x4e
 13851 48d3 9A000000 		.4byte	.LVL265
 13852 48d7 52510000 		.4byte	0x5152
 13853 48db E5480000 		.4byte	0x48e5
 13854 48df 40       		.uleb128 0x40
 13855 48e0 01       		.uleb128 0x1
 13856 48e1 50       		.byte	0x50
 13857 48e2 01       		.uleb128 0x1
 13858 48e3 33       		.byte	0x33
 13859 48e4 00       		.byte	0
 13860 48e5 4E       		.uleb128 0x4e
 13861 48e6 A6000000 		.4byte	.LVL267
 13862 48ea B54F0000 		.4byte	0x4fb5
 13863 48ee F8480000 		.4byte	0x48f8
 13864 48f2 40       		.uleb128 0x40
 13865 48f3 01       		.uleb128 0x1
 13866 48f4 50       		.byte	0x50
 13867 48f5 01       		.uleb128 0x1
 13868 48f6 33       		.byte	0x33
 13869 48f7 00       		.byte	0
 13870 48f8 4E       		.uleb128 0x4e
 13871 48f9 B4000000 		.4byte	.LVL269
 13872 48fd 52510000 		.4byte	0x5152
 13873 4901 0B490000 		.4byte	0x490b
 13874 4905 40       		.uleb128 0x40
 13875 4906 01       		.uleb128 0x1
 13876 4907 50       		.byte	0x50
 13877 4908 01       		.uleb128 0x1
 13878 4909 31       		.byte	0x31
 13879 490a 00       		.byte	0
 13880 490b 4E       		.uleb128 0x4e
 13881 490c BE000000 		.4byte	.LVL270
 13882 4910 52510000 		.4byte	0x5152
 13883 4914 1E490000 		.4byte	0x491e
 13884 4918 40       		.uleb128 0x40
 13885 4919 01       		.uleb128 0x1
 13886 491a 50       		.byte	0x50
 13887 491b 01       		.uleb128 0x1
 13888 491c 32       		.byte	0x32
 13889 491d 00       		.byte	0
 13890 491e 4E       		.uleb128 0x4e
 13891 491f C6000000 		.4byte	.LVL271
 13892 4923 52510000 		.4byte	0x5152
 13893 4927 31490000 		.4byte	0x4931
 13894 492b 40       		.uleb128 0x40
 13895 492c 01       		.uleb128 0x1
 13896 492d 50       		.byte	0x50
ARM GAS  C:\Users\USER\AppData\Local\Temp\ccRejSya.s 			page 245


 13897 492e 01       		.uleb128 0x1
 13898 492f 30       		.byte	0x30
 13899 4930 00       		.byte	0
 13900 4931 4E       		.uleb128 0x4e
 13901 4932 CE000000 		.4byte	.LVL273
 13902 4936 B54F0000 		.4byte	0x4fb5
 13903 493a 44490000 		.4byte	0x4944
 13904 493e 40       		.uleb128 0x40
 13905 493f 01       		.uleb128 0x1
 13906 4940 50       		.byte	0x50
 13907 4941 01       		.uleb128 0x1
 13908 4942 32       		.byte	0x32
 13909 4943 00       		.byte	0
 13910 4944 4E       		.uleb128 0x4e
 13911 4945 D6000000 		.4byte	.LVL274
 13912 4949 B54F0000 		.4byte	0x4fb5
 13913 494d 57490000 		.4byte	0x4957
 13914 4951 40       		.uleb128 0x40
 13915 4952 01       		.uleb128 0x1
 13916 4953 50       		.byte	0x50
 13917 4954 01       		.uleb128 0x1
 13918 4955 31       		.byte	0x31
 13919 4956 00       		.byte	0
 13920 4957 3F       		.uleb128 0x3f
 13921 4958 DE000000 		.4byte	.LVL275
 13922 495c B54F0000 		.4byte	0x4fb5
 13923 4960 40       		.uleb128 0x40
 13924 4961 01       		.uleb128 0x1
 13925 4962 50       		.byte	0x50
 13926 4963 01       		.uleb128 0x1
 13927 4964 30       		.byte	0x30
 13928 4965 00       		.byte	0
 13929 4966 00       		.byte	0
 13930 4967 00       		.byte	0
 13931 4968 51       		.uleb128 0x51
 13932 4969 60000000 		.4byte	.LVL257
 13933 496d 1C550000 		.4byte	0x551c
 13934 4971 51       		.uleb128 0x51
 13935 4972 AE000000 		.4byte	.LVL268
 13936 4976 1C550000 		.4byte	0x551c
 13937 497a 00       		.byte	0
 13938 497b 52       		.uleb128 0x52
 13939 497c AE120000 		.4byte	.LASF697
 13940 4980 01       		.byte	0x1
 13941 4981 6F02     		.2byte	0x26f
 13942 4983 0D       		.byte	0xd
 13943 4984 01       		.byte	0x1
 13944 4985 BE490000 		.4byte	0x49be
 13945 4989 44       		.uleb128 0x44
 13946 498a 801C0000 		.4byte	.LASF671
 13947 498e 01       		.byte	0x1
 13948 498f 6F02     		.2byte	0x26f
 13949 4991 30       		.byte	0x30
 13950 4992 BA2A0000 		.4byte	0x2aba
 13951 4996 53       		.uleb128 0x53
 13952 4997 7D170000 		.4byte	.LASF672
 13953 499b 01       		.byte	0x1
ARM GAS  C:\Users\USER\AppData\Local\Temp\ccRejSya.s 			page 246


 13954 499c 7002     		.2byte	0x270
 13955 499e 10       		.byte	0x10
 13956 499f B7330000 		.4byte	0x33b7
 13957 49a3 54       		.uleb128 0x54
 13958 49a4 73747300 		.ascii	"sts\000"
 13959 49a8 01       		.byte	0x1
 13960 49a9 7102     		.2byte	0x271
 13961 49ab 0C       		.byte	0xc
 13962 49ac 92090000 		.4byte	0x992
 13963 49b0 54       		.uleb128 0x54
 13964 49b1 73726300 		.ascii	"src\000"
 13965 49b5 01       		.byte	0x1
 13966 49b6 7102     		.2byte	0x271
 13967 49b8 11       		.byte	0x11
 13968 49b9 92090000 		.4byte	0x992
 13969 49bd 00       		.byte	0
 13970 49be 52       		.uleb128 0x52
 13971 49bf 6F010000 		.4byte	.LASF698
 13972 49c3 01       		.byte	0x1
 13973 49c4 4502     		.2byte	0x245
 13974 49c6 0D       		.byte	0xd
 13975 49c7 01       		.byte	0x1
 13976 49c8 0F4A0000 		.4byte	0x4a0f
 13977 49cc 44       		.uleb128 0x44
 13978 49cd 801C0000 		.4byte	.LASF671
 13979 49d1 01       		.byte	0x1
 13980 49d2 4502     		.2byte	0x245
 13981 49d4 2A       		.byte	0x2a
 13982 49d5 BA2A0000 		.4byte	0x2aba
 13983 49d9 45       		.uleb128 0x45
 13984 49da 657000   		.ascii	"ep\000"
 13985 49dd 01       		.byte	0x1
 13986 49de 4502     		.2byte	0x245
 13987 49e0 38       		.byte	0x38
 13988 49e1 65290000 		.4byte	0x2965
 13989 49e5 53       		.uleb128 0x53
 13990 49e6 7D170000 		.4byte	.LASF672
 13991 49ea 01       		.byte	0x1
 13992 49eb 4602     		.2byte	0x246
 13993 49ed 10       		.byte	0x10
 13994 49ee B7330000 		.4byte	0x33b7
 13995 49f2 53       		.uleb128 0x53
 13996 49f3 D7010000 		.4byte	.LASF699
 13997 49f7 01       		.byte	0x1
 13998 49f8 4702     		.2byte	0x247
 13999 49fa 0C       		.byte	0xc
 14000 49fb 92090000 		.4byte	0x992
 14001 49ff 55       		.uleb128 0x55
 14002 4a00 54       		.uleb128 0x54
 14003 4a01 6F737000 		.ascii	"osp\000"
 14004 4a05 01       		.byte	0x1
 14005 4a06 5402     		.2byte	0x254
 14006 4a08 1A       		.byte	0x1a
 14007 4a09 1E330000 		.4byte	0x331e
 14008 4a0d 00       		.byte	0
 14009 4a0e 00       		.byte	0
 14010 4a0f 52       		.uleb128 0x52
ARM GAS  C:\Users\USER\AppData\Local\Temp\ccRejSya.s 			page 247


 14011 4a10 B9170000 		.4byte	.LASF700
 14012 4a14 01       		.byte	0x1
 14013 4a15 1502     		.2byte	0x215
 14014 4a17 0D       		.byte	0xd
 14015 4a18 01       		.byte	0x1
 14016 4a19 604A0000 		.4byte	0x4a60
 14017 4a1d 44       		.uleb128 0x44
 14018 4a1e 801C0000 		.4byte	.LASF671
 14019 4a22 01       		.byte	0x1
 14020 4a23 1502     		.2byte	0x215
 14021 4a25 29       		.byte	0x29
 14022 4a26 BA2A0000 		.4byte	0x2aba
 14023 4a2a 45       		.uleb128 0x45
 14024 4a2b 657000   		.ascii	"ep\000"
 14025 4a2e 01       		.byte	0x1
 14026 4a2f 1502     		.2byte	0x215
 14027 4a31 37       		.byte	0x37
 14028 4a32 65290000 		.4byte	0x2965
 14029 4a36 53       		.uleb128 0x53
 14030 4a37 7D170000 		.4byte	.LASF672
 14031 4a3b 01       		.byte	0x1
 14032 4a3c 1602     		.2byte	0x216
 14033 4a3e 10       		.byte	0x10
 14034 4a3f B7330000 		.4byte	0x33b7
 14035 4a43 53       		.uleb128 0x53
 14036 4a44 D7010000 		.4byte	.LASF699
 14037 4a48 01       		.byte	0x1
 14038 4a49 1702     		.2byte	0x217
 14039 4a4b 0C       		.byte	0xc
 14040 4a4c 92090000 		.4byte	0x992
 14041 4a50 55       		.uleb128 0x55
 14042 4a51 54       		.uleb128 0x54
 14043 4a52 69737000 		.ascii	"isp\000"
 14044 4a56 01       		.byte	0x1
 14045 4a57 2002     		.2byte	0x220
 14046 4a59 19       		.byte	0x19
 14047 4a5a 18330000 		.4byte	0x3318
 14048 4a5e 00       		.byte	0
 14049 4a5f 00       		.byte	0
 14050 4a60 56       		.uleb128 0x56
 14051 4a61 840B0000 		.4byte	.LASF708
 14052 4a65 01       		.byte	0x1
 14053 4a66 E101     		.2byte	0x1e1
 14054 4a68 0D       		.byte	0xd
 14055 4a69 0B1B0000 		.4byte	0x1b0b
 14056 4a6d 01       		.byte	0x1
 14057 4a6e 994A0000 		.4byte	0x4a99
 14058 4a72 44       		.uleb128 0x44
 14059 4a73 801C0000 		.4byte	.LASF671
 14060 4a77 01       		.byte	0x1
 14061 4a78 E101     		.2byte	0x1e1
 14062 4a7a 2B       		.byte	0x2b
 14063 4a7b BA2A0000 		.4byte	0x2aba
 14064 4a7f 45       		.uleb128 0x45
 14065 4a80 657000   		.ascii	"ep\000"
 14066 4a83 01       		.byte	0x1
 14067 4a84 E101     		.2byte	0x1e1
ARM GAS  C:\Users\USER\AppData\Local\Temp\ccRejSya.s 			page 248


 14068 4a86 39       		.byte	0x39
 14069 4a87 65290000 		.4byte	0x2965
 14070 4a8b 55       		.uleb128 0x55
 14071 4a8c 54       		.uleb128 0x54
 14072 4a8d 6E00     		.ascii	"n\000"
 14073 4a8f 01       		.byte	0x1
 14074 4a90 E501     		.2byte	0x1e5
 14075 4a92 0E       		.byte	0xe
 14076 4a93 92090000 		.4byte	0x992
 14077 4a97 00       		.byte	0
 14078 4a98 00       		.byte	0
 14079 4a99 52       		.uleb128 0x52
 14080 4a9a 21060000 		.4byte	.LASF701
 14081 4a9e 01       		.byte	0x1
 14082 4a9f B201     		.2byte	0x1b2
 14083 4aa1 0D       		.byte	0xd
 14084 4aa2 01       		.byte	0x1
 14085 4aa3 DB4A0000 		.4byte	0x4adb
 14086 4aa7 44       		.uleb128 0x44
 14087 4aa8 801C0000 		.4byte	.LASF671
 14088 4aac 01       		.byte	0x1
 14089 4aad B201     		.2byte	0x1b2
 14090 4aaf 2B       		.byte	0x2b
 14091 4ab0 BA2A0000 		.4byte	0x2aba
 14092 4ab4 54       		.uleb128 0x54
 14093 4ab5 73747300 		.ascii	"sts\000"
 14094 4ab9 01       		.byte	0x1
 14095 4aba B301     		.2byte	0x1b3
 14096 4abc 0C       		.byte	0xc
 14097 4abd 92090000 		.4byte	0x992
 14098 4ac1 54       		.uleb128 0x54
 14099 4ac2 636E7400 		.ascii	"cnt\000"
 14100 4ac6 01       		.byte	0x1
 14101 4ac7 B301     		.2byte	0x1b3
 14102 4ac9 11       		.byte	0x11
 14103 4aca 92090000 		.4byte	0x992
 14104 4ace 54       		.uleb128 0x54
 14105 4acf 657000   		.ascii	"ep\000"
 14106 4ad2 01       		.byte	0x1
 14107 4ad3 B301     		.2byte	0x1b3
 14108 4ad5 16       		.byte	0x16
 14109 4ad6 92090000 		.4byte	0x992
 14110 4ada 00       		.byte	0
 14111 4adb 52       		.uleb128 0x52
 14112 4adc FF180000 		.4byte	.LASF702
 14113 4ae0 01       		.byte	0x1
 14114 4ae1 7C01     		.2byte	0x17c
 14115 4ae3 0D       		.byte	0xd
 14116 4ae4 01       		.byte	0x1
 14117 4ae5 5C4B0000 		.4byte	0x4b5c
 14118 4ae9 44       		.uleb128 0x44
 14119 4aea A0110000 		.4byte	.LASF703
 14120 4aee 01       		.byte	0x1
 14121 4aef 7C01     		.2byte	0x17c
 14122 4af1 37       		.byte	0x37
 14123 4af2 511A0000 		.4byte	0x1a51
 14124 4af6 45       		.uleb128 0x45
ARM GAS  C:\Users\USER\AppData\Local\Temp\ccRejSya.s 			page 249


 14125 4af7 69717000 		.ascii	"iqp\000"
 14126 4afb 01       		.byte	0x1
 14127 4afc 7D01     		.2byte	0x17d
 14128 4afe 33       		.byte	0x33
 14129 4aff FC310000 		.4byte	0x31fc
 14130 4b03 45       		.uleb128 0x45
 14131 4b04 6E00     		.ascii	"n\000"
 14132 4b06 01       		.byte	0x1
 14133 4b07 7E01     		.2byte	0x17e
 14134 4b09 2B       		.byte	0x2b
 14135 4b0a 33000000 		.4byte	0x33
 14136 4b0e 53       		.uleb128 0x53
 14137 4b0f 2C170000 		.4byte	.LASF704
 14138 4b13 01       		.byte	0x1
 14139 4b14 7F01     		.2byte	0x17f
 14140 4b16 0A       		.byte	0xa
 14141 4b17 33000000 		.4byte	0x33
 14142 4b1b 55       		.uleb128 0x55
 14143 4b1c 54       		.uleb128 0x54
 14144 4b1d 7700     		.ascii	"w\000"
 14145 4b1f 01       		.byte	0x1
 14146 4b20 8301     		.2byte	0x183
 14147 4b22 0E       		.byte	0xe
 14148 4b23 92090000 		.4byte	0x992
 14149 4b27 54       		.uleb128 0x54
 14150 4b28 6900     		.ascii	"i\000"
 14151 4b2a 01       		.byte	0x1
 14152 4b2b 8301     		.2byte	0x183
 14153 4b2d 11       		.byte	0x11
 14154 4b2e 92090000 		.4byte	0x992
 14155 4b32 54       		.uleb128 0x54
 14156 4b33 6E7700   		.ascii	"nw\000"
 14157 4b36 01       		.byte	0x1
 14158 4b37 8401     		.2byte	0x184
 14159 4b39 0C       		.byte	0xc
 14160 4b3a 33000000 		.4byte	0x33
 14161 4b3e 55       		.uleb128 0x55
 14162 4b3f 53       		.uleb128 0x53
 14163 4b40 5B1F0000 		.4byte	.LASF705
 14164 4b44 01       		.byte	0x1
 14165 4b45 8701     		.2byte	0x187
 14166 4b47 0E       		.byte	0xe
 14167 4b48 33000000 		.4byte	0x33
 14168 4b4c 53       		.uleb128 0x53
 14169 4b4d 1E1D0000 		.4byte	.LASF706
 14170 4b51 01       		.byte	0x1
 14171 4b52 8801     		.2byte	0x188
 14172 4b54 10       		.byte	0x10
 14173 4b55 92090000 		.4byte	0x992
 14174 4b59 00       		.byte	0
 14175 4b5a 00       		.byte	0
 14176 4b5b 00       		.byte	0
 14177 4b5c 52       		.uleb128 0x52
 14178 4b5d 751F0000 		.4byte	.LASF707
 14179 4b61 01       		.byte	0x1
 14180 4b62 5F01     		.2byte	0x15f
 14181 4b64 0D       		.byte	0xd
ARM GAS  C:\Users\USER\AppData\Local\Temp\ccRejSya.s 			page 250


 14182 4b65 01       		.byte	0x1
 14183 4b66 AA4B0000 		.4byte	0x4baa
 14184 4b6a 44       		.uleb128 0x44
 14185 4b6b A0110000 		.4byte	.LASF703
 14186 4b6f 01       		.byte	0x1
 14187 4b70 5F01     		.2byte	0x15f
 14188 4b72 38       		.byte	0x38
 14189 4b73 511A0000 		.4byte	0x1a51
 14190 4b77 45       		.uleb128 0x45
 14191 4b78 62756600 		.ascii	"buf\000"
 14192 4b7c 01       		.byte	0x1
 14193 4b7d 6001     		.2byte	0x160
 14194 4b7f 2E       		.byte	0x2e
 14195 4b80 6F190000 		.4byte	0x196f
 14196 4b84 45       		.uleb128 0x45
 14197 4b85 6E00     		.ascii	"n\000"
 14198 4b87 01       		.byte	0x1
 14199 4b88 6101     		.2byte	0x161
 14200 4b8a 2C       		.byte	0x2c
 14201 4b8b 33000000 		.4byte	0x33
 14202 4b8f 45       		.uleb128 0x45
 14203 4b90 6D617800 		.ascii	"max\000"
 14204 4b94 01       		.byte	0x1
 14205 4b95 6201     		.2byte	0x162
 14206 4b97 2C       		.byte	0x2c
 14207 4b98 33000000 		.4byte	0x33
 14208 4b9c 55       		.uleb128 0x55
 14209 4b9d 54       		.uleb128 0x54
 14210 4b9e 7700     		.ascii	"w\000"
 14211 4ba0 01       		.byte	0x1
 14212 4ba1 6701     		.2byte	0x167
 14213 4ba3 0E       		.byte	0xe
 14214 4ba4 92090000 		.4byte	0x992
 14215 4ba8 00       		.byte	0
 14216 4ba9 00       		.byte	0
 14217 4baa 56       		.uleb128 0x56
 14218 4bab CC080000 		.4byte	.LASF709
 14219 4baf 01       		.byte	0x1
 14220 4bb0 4801     		.2byte	0x148
 14221 4bb2 11       		.byte	0x11
 14222 4bb3 6F190000 		.4byte	0x196f
 14223 4bb7 01       		.byte	0x1
 14224 4bb8 EF4B0000 		.4byte	0x4bef
 14225 4bbc 44       		.uleb128 0x44
 14226 4bbd A0110000 		.4byte	.LASF703
 14227 4bc1 01       		.byte	0x1
 14228 4bc2 4801     		.2byte	0x148
 14229 4bc4 2F       		.byte	0x2f
 14230 4bc5 511A0000 		.4byte	0x1a51
 14231 4bc9 45       		.uleb128 0x45
 14232 4bca 62756600 		.ascii	"buf\000"
 14233 4bce 01       		.byte	0x1
 14234 4bcf 4801     		.2byte	0x148
 14235 4bd1 3F       		.byte	0x3f
 14236 4bd2 6F190000 		.4byte	0x196f
 14237 4bd6 45       		.uleb128 0x45
 14238 4bd7 6E00     		.ascii	"n\000"
ARM GAS  C:\Users\USER\AppData\Local\Temp\ccRejSya.s 			page 251


 14239 4bd9 01       		.byte	0x1
 14240 4bda 4801     		.2byte	0x148
 14241 4bdc 4B       		.byte	0x4b
 14242 4bdd 33000000 		.4byte	0x33
 14243 4be1 55       		.uleb128 0x55
 14244 4be2 54       		.uleb128 0x54
 14245 4be3 7700     		.ascii	"w\000"
 14246 4be5 01       		.byte	0x1
 14247 4be6 4B01     		.2byte	0x14b
 14248 4be8 0E       		.byte	0xe
 14249 4be9 92090000 		.4byte	0x992
 14250 4bed 00       		.byte	0
 14251 4bee 00       		.byte	0
 14252 4bef 52       		.uleb128 0x52
 14253 4bf0 B61C0000 		.4byte	.LASF710
 14254 4bf4 01       		.byte	0x1
 14255 4bf5 0C01     		.2byte	0x10c
 14256 4bf7 0D       		.byte	0xd
 14257 4bf8 01       		.byte	0x1
 14258 4bf9 704C0000 		.4byte	0x4c70
 14259 4bfd 44       		.uleb128 0x44
 14260 4bfe A0110000 		.4byte	.LASF703
 14261 4c02 01       		.byte	0x1
 14262 4c03 0C01     		.2byte	0x10c
 14263 4c05 3A       		.byte	0x3a
 14264 4c06 511A0000 		.4byte	0x1a51
 14265 4c0a 45       		.uleb128 0x45
 14266 4c0b 6F717000 		.ascii	"oqp\000"
 14267 4c0f 01       		.byte	0x1
 14268 4c10 0D01     		.2byte	0x10d
 14269 4c12 37       		.byte	0x37
 14270 4c13 4B310000 		.4byte	0x314b
 14271 4c17 45       		.uleb128 0x45
 14272 4c18 6E00     		.ascii	"n\000"
 14273 4c1a 01       		.byte	0x1
 14274 4c1b 0E01     		.2byte	0x10e
 14275 4c1d 2E       		.byte	0x2e
 14276 4c1e 33000000 		.4byte	0x33
 14277 4c22 53       		.uleb128 0x53
 14278 4c23 2C170000 		.4byte	.LASF704
 14279 4c27 01       		.byte	0x1
 14280 4c28 0F01     		.2byte	0x10f
 14281 4c2a 0A       		.byte	0xa
 14282 4c2b 33000000 		.4byte	0x33
 14283 4c2f 55       		.uleb128 0x55
 14284 4c30 54       		.uleb128 0x54
 14285 4c31 7700     		.ascii	"w\000"
 14286 4c33 01       		.byte	0x1
 14287 4c34 1301     		.2byte	0x113
 14288 4c36 0E       		.byte	0xe
 14289 4c37 92090000 		.4byte	0x992
 14290 4c3b 54       		.uleb128 0x54
 14291 4c3c 6900     		.ascii	"i\000"
 14292 4c3e 01       		.byte	0x1
 14293 4c3f 1301     		.2byte	0x113
 14294 4c41 11       		.byte	0x11
 14295 4c42 92090000 		.4byte	0x992
ARM GAS  C:\Users\USER\AppData\Local\Temp\ccRejSya.s 			page 252


 14296 4c46 54       		.uleb128 0x54
 14297 4c47 6E7700   		.ascii	"nw\000"
 14298 4c4a 01       		.byte	0x1
 14299 4c4b 1401     		.2byte	0x114
 14300 4c4d 0C       		.byte	0xc
 14301 4c4e 33000000 		.4byte	0x33
 14302 4c52 55       		.uleb128 0x55
 14303 4c53 53       		.uleb128 0x53
 14304 4c54 5B1F0000 		.4byte	.LASF705
 14305 4c58 01       		.byte	0x1
 14306 4c59 1701     		.2byte	0x117
 14307 4c5b 0E       		.byte	0xe
 14308 4c5c 33000000 		.4byte	0x33
 14309 4c60 53       		.uleb128 0x53
 14310 4c61 1E1D0000 		.4byte	.LASF706
 14311 4c65 01       		.byte	0x1
 14312 4c66 1801     		.2byte	0x118
 14313 4c68 10       		.byte	0x10
 14314 4c69 92090000 		.4byte	0x992
 14315 4c6d 00       		.byte	0
 14316 4c6e 00       		.byte	0
 14317 4c6f 00       		.byte	0
 14318 4c70 57       		.uleb128 0x57
 14319 4c71 AC030000 		.4byte	.LASF711
 14320 4c75 01       		.byte	0x1
 14321 4c76 FC       		.byte	0xfc
 14322 4c77 0D       		.byte	0xd
 14323 4c78 01       		.byte	0x1
 14324 4c79 A04C0000 		.4byte	0x4ca0
 14325 4c7d 58       		.uleb128 0x58
 14326 4c7e A0110000 		.4byte	.LASF703
 14327 4c82 01       		.byte	0x1
 14328 4c83 FC       		.byte	0xfc
 14329 4c84 3B       		.byte	0x3b
 14330 4c85 511A0000 		.4byte	0x1a51
 14331 4c89 59       		.uleb128 0x59
 14332 4c8a 62756600 		.ascii	"buf\000"
 14333 4c8e 01       		.byte	0x1
 14334 4c8f FD       		.byte	0xfd
 14335 4c90 37       		.byte	0x37
 14336 4c91 A6190000 		.4byte	0x19a6
 14337 4c95 59       		.uleb128 0x59
 14338 4c96 6E00     		.ascii	"n\000"
 14339 4c98 01       		.byte	0x1
 14340 4c99 FE       		.byte	0xfe
 14341 4c9a 2F       		.byte	0x2f
 14342 4c9b 33000000 		.4byte	0x33
 14343 4c9f 00       		.byte	0
 14344 4ca0 5A       		.uleb128 0x5a
 14345 4ca1 EA120000 		.4byte	.LASF712
 14346 4ca5 01       		.byte	0x1
 14347 4ca6 E7       		.byte	0xe7
 14348 4ca7 11       		.byte	0x11
 14349 4ca8 6F190000 		.4byte	0x196f
 14350 4cac 01       		.byte	0x1
 14351 4cad D44C0000 		.4byte	0x4cd4
 14352 4cb1 58       		.uleb128 0x58
ARM GAS  C:\Users\USER\AppData\Local\Temp\ccRejSya.s 			page 253


 14353 4cb2 A0110000 		.4byte	.LASF703
 14354 4cb6 01       		.byte	0x1
 14355 4cb7 E7       		.byte	0xe7
 14356 4cb8 30       		.byte	0x30
 14357 4cb9 511A0000 		.4byte	0x1a51
 14358 4cbd 59       		.uleb128 0x59
 14359 4cbe 62756600 		.ascii	"buf\000"
 14360 4cc2 01       		.byte	0x1
 14361 4cc3 E7       		.byte	0xe7
 14362 4cc4 40       		.byte	0x40
 14363 4cc5 6F190000 		.4byte	0x196f
 14364 4cc9 59       		.uleb128 0x59
 14365 4cca 6E00     		.ascii	"n\000"
 14366 4ccc 01       		.byte	0x1
 14367 4ccd E7       		.byte	0xe7
 14368 4cce 4C       		.byte	0x4c
 14369 4ccf 33000000 		.4byte	0x33
 14370 4cd3 00       		.byte	0
 14371 4cd4 5A       		.uleb128 0x5a
 14372 4cd5 360C0000 		.4byte	.LASF713
 14373 4cd9 01       		.byte	0x1
 14374 4cda D1       		.byte	0xd1
 14375 4cdb 11       		.byte	0x11
 14376 4cdc 92090000 		.4byte	0x992
 14377 4ce0 01       		.byte	0x1
 14378 4ce1 134D0000 		.4byte	0x4d13
 14379 4ce5 58       		.uleb128 0x58
 14380 4ce6 801C0000 		.4byte	.LASF671
 14381 4cea 01       		.byte	0x1
 14382 4ceb D1       		.byte	0xd1
 14383 4cec 2A       		.byte	0x2a
 14384 4ced BA2A0000 		.4byte	0x2aba
 14385 4cf1 58       		.uleb128 0x58
 14386 4cf2 680A0000 		.4byte	.LASF714
 14387 4cf6 01       		.byte	0x1
 14388 4cf7 D1       		.byte	0xd1
 14389 4cf8 37       		.byte	0x37
 14390 4cf9 33000000 		.4byte	0x33
 14391 4cfd 5B       		.uleb128 0x5b
 14392 4cfe A8010000 		.4byte	.LASF715
 14393 4d02 01       		.byte	0x1
 14394 4d03 D2       		.byte	0xd2
 14395 4d04 0C       		.byte	0xc
 14396 4d05 92090000 		.4byte	0x992
 14397 4d09 5C       		.uleb128 0x5c
 14398 4d0a 33000000 		.4byte	.LASF735
 14399 4d0e 234D0000 		.4byte	0x4d23
 14400 4d12 00       		.byte	0
 14401 4d13 0B       		.uleb128 0xb
 14402 4d14 71010000 		.4byte	0x171
 14403 4d18 234D0000 		.4byte	0x4d23
 14404 4d1c 0C       		.uleb128 0xc
 14405 4d1d 25000000 		.4byte	0x25
 14406 4d21 0D       		.byte	0xd
 14407 4d22 00       		.byte	0
 14408 4d23 10       		.uleb128 0x10
 14409 4d24 134D0000 		.4byte	0x4d13
ARM GAS  C:\Users\USER\AppData\Local\Temp\ccRejSya.s 			page 254


 14410 4d28 57       		.uleb128 0x57
 14411 4d29 991B0000 		.4byte	.LASF716
 14412 4d2d 01       		.byte	0x1
 14413 4d2e C4       		.byte	0xc4
 14414 4d2f 0D       		.byte	0xd
 14415 4d30 01       		.byte	0x1
 14416 4d31 424D0000 		.4byte	0x4d42
 14417 4d35 58       		.uleb128 0x58
 14418 4d36 801C0000 		.4byte	.LASF671
 14419 4d3a 01       		.byte	0x1
 14420 4d3b C4       		.byte	0xc4
 14421 4d3c 26       		.byte	0x26
 14422 4d3d BA2A0000 		.4byte	0x2aba
 14423 4d41 00       		.byte	0
 14424 4d42 57       		.uleb128 0x57
 14425 4d43 B00E0000 		.4byte	.LASF717
 14426 4d47 01       		.byte	0x1
 14427 4d48 B3       		.byte	0xb3
 14428 4d49 0D       		.byte	0xd
 14429 4d4a 01       		.byte	0x1
 14430 4d4b 744D0000 		.4byte	0x4d74
 14431 4d4f 58       		.uleb128 0x58
 14432 4d50 801C0000 		.4byte	.LASF671
 14433 4d54 01       		.byte	0x1
 14434 4d55 B3       		.byte	0xb3
 14435 4d56 29       		.byte	0x29
 14436 4d57 BA2A0000 		.4byte	0x2aba
 14437 4d5b 58       		.uleb128 0x58
 14438 4d5c 92090000 		.4byte	.LASF718
 14439 4d60 01       		.byte	0x1
 14440 4d61 B3       		.byte	0xb3
 14441 4d62 38       		.byte	0x38
 14442 4d63 92090000 		.4byte	0x992
 14443 4d67 5B       		.uleb128 0x5b
 14444 4d68 7D170000 		.4byte	.LASF672
 14445 4d6c 01       		.byte	0x1
 14446 4d6d B4       		.byte	0xb4
 14447 4d6e 10       		.byte	0x10
 14448 4d6f B7330000 		.4byte	0x33b7
 14449 4d73 00       		.byte	0
 14450 4d74 57       		.uleb128 0x57
 14451 4d75 C61D0000 		.4byte	.LASF719
 14452 4d79 01       		.byte	0x1
 14453 4d7a A9       		.byte	0xa9
 14454 4d7b 0D       		.byte	0xd
 14455 4d7c 01       		.byte	0x1
 14456 4d7d 9A4D0000 		.4byte	0x4d9a
 14457 4d81 58       		.uleb128 0x58
 14458 4d82 801C0000 		.4byte	.LASF671
 14459 4d86 01       		.byte	0x1
 14460 4d87 A9       		.byte	0xa9
 14461 4d88 29       		.byte	0x29
 14462 4d89 BA2A0000 		.4byte	0x2aba
 14463 4d8d 5B       		.uleb128 0x5b
 14464 4d8e 7D170000 		.4byte	.LASF672
 14465 4d92 01       		.byte	0x1
 14466 4d93 AA       		.byte	0xaa
ARM GAS  C:\Users\USER\AppData\Local\Temp\ccRejSya.s 			page 255


 14467 4d94 10       		.byte	0x10
 14468 4d95 B7330000 		.4byte	0x33b7
 14469 4d99 00       		.byte	0
 14470 4d9a 57       		.uleb128 0x57
 14471 4d9b 9F160000 		.4byte	.LASF720
 14472 4d9f 01       		.byte	0x1
 14473 4da0 84       		.byte	0x84
 14474 4da1 0D       		.byte	0xd
 14475 4da2 01       		.byte	0x1
 14476 4da3 CA4D0000 		.4byte	0x4dca
 14477 4da7 58       		.uleb128 0x58
 14478 4da8 801C0000 		.4byte	.LASF671
 14479 4dac 01       		.byte	0x1
 14480 4dad 84       		.byte	0x84
 14481 4dae 27       		.byte	0x27
 14482 4daf BA2A0000 		.4byte	0x2aba
 14483 4db3 5B       		.uleb128 0x5b
 14484 4db4 7D170000 		.4byte	.LASF672
 14485 4db8 01       		.byte	0x1
 14486 4db9 85       		.byte	0x85
 14487 4dba 10       		.byte	0x10
 14488 4dbb B7330000 		.4byte	0x33b7
 14489 4dbf 5D       		.uleb128 0x5d
 14490 4dc0 6900     		.ascii	"i\000"
 14491 4dc2 01       		.byte	0x1
 14492 4dc3 86       		.byte	0x86
 14493 4dc4 0C       		.byte	0xc
 14494 4dc5 25000000 		.4byte	0x25
 14495 4dc9 00       		.byte	0
 14496 4dca 57       		.uleb128 0x57
 14497 4dcb 4B090000 		.4byte	.LASF721
 14498 4dcf 01       		.byte	0x1
 14499 4dd0 73       		.byte	0x73
 14500 4dd1 0D       		.byte	0xd
 14501 4dd2 01       		.byte	0x1
 14502 4dd3 F04D0000 		.4byte	0x4df0
 14503 4dd7 58       		.uleb128 0x58
 14504 4dd8 801C0000 		.4byte	.LASF671
 14505 4ddc 01       		.byte	0x1
 14506 4ddd 73       		.byte	0x73
 14507 4dde 27       		.byte	0x27
 14508 4ddf BA2A0000 		.4byte	0x2aba
 14509 4de3 5B       		.uleb128 0x5b
 14510 4de4 7D170000 		.4byte	.LASF672
 14511 4de8 01       		.byte	0x1
 14512 4de9 74       		.byte	0x74
 14513 4dea 10       		.byte	0x10
 14514 4deb B7330000 		.4byte	0x33b7
 14515 4def 00       		.byte	0
 14516 4df0 52       		.uleb128 0x52
 14517 4df1 FE0D0000 		.4byte	.LASF722
 14518 4df5 03       		.byte	0x3
 14519 4df6 2803     		.2byte	0x328
 14520 4df8 14       		.byte	0x14
 14521 4df9 03       		.byte	0x3
 14522 4dfa 194E0000 		.4byte	0x4e19
 14523 4dfe 45       		.uleb128 0x45
ARM GAS  C:\Users\USER\AppData\Local\Temp\ccRejSya.s 			page 256


 14524 4dff 74717000 		.ascii	"tqp\000"
 14525 4e03 03       		.byte	0x3
 14526 4e04 2803     		.2byte	0x328
 14527 4e06 3B       		.byte	0x3b
 14528 4e07 194E0000 		.4byte	0x4e19
 14529 4e0b 45       		.uleb128 0x45
 14530 4e0c 6D736700 		.ascii	"msg\000"
 14531 4e10 03       		.byte	0x3
 14532 4e11 2803     		.2byte	0x328
 14533 4e13 46       		.byte	0x46
 14534 4e14 F7090000 		.4byte	0x9f7
 14535 4e18 00       		.byte	0
 14536 4e19 06       		.uleb128 0x6
 14537 4e1a 04       		.byte	0x4
 14538 4e1b 970B0000 		.4byte	0xb97
 14539 4e1f 52       		.uleb128 0x52
 14540 4e20 5E030000 		.4byte	.LASF723
 14541 4e24 03       		.byte	0x3
 14542 4e25 D602     		.2byte	0x2d6
 14543 4e27 14       		.byte	0x14
 14544 4e28 03       		.byte	0x3
 14545 4e29 484E0000 		.4byte	0x4e48
 14546 4e2d 45       		.uleb128 0x45
 14547 4e2e 74727000 		.ascii	"trp\000"
 14548 4e32 03       		.byte	0x3
 14549 4e33 D602     		.2byte	0x2d6
 14550 4e35 3A       		.byte	0x3a
 14551 4e36 7E160000 		.4byte	0x167e
 14552 4e3a 45       		.uleb128 0x45
 14553 4e3b 6D736700 		.ascii	"msg\000"
 14554 4e3f 03       		.byte	0x3
 14555 4e40 D602     		.2byte	0x2d6
 14556 4e42 45       		.byte	0x45
 14557 4e43 F7090000 		.4byte	0x9f7
 14558 4e47 00       		.byte	0
 14559 4e48 56       		.uleb128 0x56
 14560 4e49 D50B0000 		.4byte	.LASF724
 14561 4e4d 03       		.byte	0x3
 14562 4e4e AE02     		.2byte	0x2ae
 14563 4e50 15       		.byte	0x15
 14564 4e51 F7090000 		.4byte	0x9f7
 14565 4e55 03       		.byte	0x3
 14566 4e56 684E0000 		.4byte	0x4e68
 14567 4e5a 45       		.uleb128 0x45
 14568 4e5b 74727000 		.ascii	"trp\000"
 14569 4e5f 03       		.byte	0x3
 14570 4e60 AE02     		.2byte	0x2ae
 14571 4e62 3C       		.byte	0x3c
 14572 4e63 7E160000 		.4byte	0x167e
 14573 4e67 00       		.byte	0
 14574 4e68 5E       		.uleb128 0x5e
 14575 4e69 FB190000 		.4byte	.LASF727
 14576 4e6d 03       		.byte	0x3
 14577 4e6e 5602     		.2byte	0x256
 14578 4e70 14       		.byte	0x14
 14579 4e71 03       		.byte	0x3
 14580 4e72 52       		.uleb128 0x52
ARM GAS  C:\Users\USER\AppData\Local\Temp\ccRejSya.s 			page 257


 14581 4e73 C31E0000 		.4byte	.LASF725
 14582 4e77 03       		.byte	0x3
 14583 4e78 3B02     		.2byte	0x23b
 14584 4e7a 14       		.byte	0x14
 14585 4e7b 03       		.byte	0x3
 14586 4e7c 8E4E0000 		.4byte	0x4e8e
 14587 4e80 44       		.uleb128 0x44
 14588 4e81 4C020000 		.4byte	.LASF726
 14589 4e85 03       		.byte	0x3
 14590 4e86 3B02     		.2byte	0x23b
 14591 4e88 30       		.byte	0x30
 14592 4e89 AF090000 		.4byte	0x9af
 14593 4e8d 00       		.byte	0
 14594 4e8e 5E       		.uleb128 0x5e
 14595 4e8f 4F050000 		.4byte	.LASF728
 14596 4e93 03       		.byte	0x3
 14597 4e94 0C02     		.2byte	0x20c
 14598 4e96 14       		.byte	0x14
 14599 4e97 03       		.byte	0x3
 14600 4e98 5E       		.uleb128 0x5e
 14601 4e99 11120000 		.4byte	.LASF729
 14602 4e9d 03       		.byte	0x3
 14603 4e9e 0102     		.2byte	0x201
 14604 4ea0 14       		.byte	0x14
 14605 4ea1 03       		.byte	0x3
 14606 4ea2 5E       		.uleb128 0x5e
 14607 4ea3 D6000000 		.4byte	.LASF730
 14608 4ea7 03       		.byte	0x3
 14609 4ea8 F601     		.2byte	0x1f6
 14610 4eaa 14       		.byte	0x14
 14611 4eab 03       		.byte	0x3
 14612 4eac 5E       		.uleb128 0x5e
 14613 4ead CA170000 		.4byte	.LASF731
 14614 4eb1 03       		.byte	0x3
 14615 4eb2 EB01     		.2byte	0x1eb
 14616 4eb4 14       		.byte	0x14
 14617 4eb5 03       		.byte	0x3
 14618 4eb6 57       		.uleb128 0x57
 14619 4eb7 A31C0000 		.4byte	.LASF732
 14620 4ebb 02       		.byte	0x2
 14621 4ebc 84       		.byte	0x84
 14622 4ebd 14       		.byte	0x14
 14623 4ebe 03       		.byte	0x3
 14624 4ebf D04E0000 		.4byte	0x4ed0
 14625 4ec3 58       		.uleb128 0x58
 14626 4ec4 DB1C0000 		.4byte	.LASF733
 14627 4ec8 02       		.byte	0x2
 14628 4ec9 84       		.byte	0x84
 14629 4eca 33       		.byte	0x33
 14630 4ecb 31060000 		.4byte	0x631
 14631 4ecf 00       		.byte	0
 14632 4ed0 5A       		.uleb128 0x5a
 14633 4ed1 ED0B0000 		.4byte	.LASF734
 14634 4ed5 07       		.byte	0x7
 14635 4ed6 F5       		.byte	0xf5
 14636 4ed7 19       		.byte	0x19
 14637 4ed8 6A0B0000 		.4byte	0xb6a
ARM GAS  C:\Users\USER\AppData\Local\Temp\ccRejSya.s 			page 258


 14638 4edc 03       		.byte	0x3
 14639 4edd F64E0000 		.4byte	0x4ef6
 14640 4ee1 59       		.uleb128 0x59
 14641 4ee2 747000   		.ascii	"tp\000"
 14642 4ee5 07       		.byte	0x7
 14643 4ee6 F5       		.byte	0xf5
 14644 4ee7 2F       		.byte	0x2f
 14645 4ee8 6A0B0000 		.4byte	0xb6a
 14646 4eec 5C       		.uleb128 0x5c
 14647 4eed 33000000 		.4byte	.LASF735
 14648 4ef1 064F0000 		.4byte	0x4f06
 14649 4ef5 00       		.byte	0
 14650 4ef6 0B       		.uleb128 0xb
 14651 4ef7 71010000 		.4byte	0x171
 14652 4efb 064F0000 		.4byte	0x4f06
 14653 4eff 0C       		.uleb128 0xc
 14654 4f00 25000000 		.4byte	0x25
 14655 4f04 0B       		.byte	0xb
 14656 4f05 00       		.byte	0
 14657 4f06 10       		.uleb128 0x10
 14658 4f07 F64E0000 		.4byte	0x4ef6
 14659 4f0b 5E       		.uleb128 0x5e
 14660 4f0c 77160000 		.4byte	.LASF736
 14661 4f10 04       		.byte	0x4
 14662 4f11 9601     		.2byte	0x196
 14663 4f13 14       		.byte	0x14
 14664 4f14 03       		.byte	0x3
 14665 4f15 5E       		.uleb128 0x5e
 14666 4f16 A51D0000 		.4byte	.LASF737
 14667 4f1a 04       		.byte	0x4
 14668 4f1b 8201     		.2byte	0x182
 14669 4f1d 14       		.byte	0x14
 14670 4f1e 03       		.byte	0x3
 14671 4f1f 52       		.uleb128 0x52
 14672 4f20 261B0000 		.4byte	.LASF738
 14673 4f24 04       		.byte	0x4
 14674 4f25 6601     		.2byte	0x166
 14675 4f27 14       		.byte	0x14
 14676 4f28 03       		.byte	0x3
 14677 4f29 374F0000 		.4byte	0x4f37
 14678 4f2d 5C       		.uleb128 0x5c
 14679 4f2e 33000000 		.4byte	.LASF735
 14680 4f32 064F0000 		.4byte	0x4f06
 14681 4f36 00       		.byte	0
 14682 4f37 5E       		.uleb128 0x5e
 14683 4f38 26050000 		.4byte	.LASF739
 14684 4f3c 04       		.byte	0x4
 14685 4f3d 5A01     		.2byte	0x15a
 14686 4f3f 14       		.byte	0x14
 14687 4f40 03       		.byte	0x3
 14688 4f41 5E       		.uleb128 0x5e
 14689 4f42 56000000 		.4byte	.LASF740
 14690 4f46 05       		.byte	0x5
 14691 4f47 E401     		.2byte	0x1e4
 14692 4f49 14       		.byte	0x14
 14693 4f4a 03       		.byte	0x3
 14694 4f4b 5E       		.uleb128 0x5e
ARM GAS  C:\Users\USER\AppData\Local\Temp\ccRejSya.s 			page 259


 14695 4f4c 0A100000 		.4byte	.LASF741
 14696 4f50 05       		.byte	0x5
 14697 4f51 D901     		.2byte	0x1d9
 14698 4f53 14       		.byte	0x14
 14699 4f54 03       		.byte	0x3
 14700 4f55 5E       		.uleb128 0x5e
 14701 4f56 FF120000 		.4byte	.LASF742
 14702 4f5a 05       		.byte	0x5
 14703 4f5b CA01     		.2byte	0x1ca
 14704 4f5d 14       		.byte	0x14
 14705 4f5e 03       		.byte	0x3
 14706 4f5f 5E       		.uleb128 0x5e
 14707 4f60 65150000 		.4byte	.LASF743
 14708 4f64 05       		.byte	0x5
 14709 4f65 BC01     		.2byte	0x1bc
 14710 4f67 14       		.byte	0x14
 14711 4f68 03       		.byte	0x3
 14712 4f69 52       		.uleb128 0x52
 14713 4f6a 541E0000 		.4byte	.LASF744
 14714 4f6e 06       		.byte	0x6
 14715 4f6f 2002     		.2byte	0x220
 14716 4f71 39       		.byte	0x39
 14717 4f72 03       		.byte	0x3
 14718 4f73 854F0000 		.4byte	0x4f85
 14719 4f77 44       		.uleb128 0x44
 14720 4f78 C3090000 		.4byte	.LASF745
 14721 4f7c 06       		.byte	0x6
 14722 4f7d 2002     		.2byte	0x220
 14723 4f7f 50       		.byte	0x50
 14724 4f80 92090000 		.4byte	0x992
 14725 4f84 00       		.byte	0
 14726 4f85 5F       		.uleb128 0x5f
 14727 4f86 9A4D0000 		.4byte	0x4d9a
 14728 4f8a 00000000 		.4byte	.LFB293
 14729 4f8e 72000000 		.4byte	.LFE293-.LFB293
 14730 4f92 01       		.uleb128 0x1
 14731 4f93 9C       		.byte	0x9c
 14732 4f94 B54F0000 		.4byte	0x4fb5
 14733 4f98 39       		.uleb128 0x39
 14734 4f99 A74D0000 		.4byte	0x4da7
 14735 4f9d 39       		.uleb128 0x39
 14736 4f9e A74D0000 		.4byte	0x4da7
 14737 4fa2 3D       		.uleb128 0x3d
 14738 4fa3 B34D0000 		.4byte	0x4db3
 14739 4fa7 3B       		.uleb128 0x3b
 14740 4fa8 BF4D0000 		.4byte	0x4dbf
 14741 4fac D4120000 		.4byte	.LLST60
 14742 4fb0 CC120000 		.4byte	.LVUS60
 14743 4fb4 00       		.byte	0
 14744 4fb5 5F       		.uleb128 0x5f
 14745 4fb6 BE490000 		.4byte	0x49be
 14746 4fba 00000000 		.4byte	.LFB300
 14747 4fbe 9C000000 		.4byte	.LFE300-.LFB300
 14748 4fc2 01       		.uleb128 0x1
 14749 4fc3 9C       		.byte	0x9c
 14750 4fc4 52510000 		.4byte	0x5152
 14751 4fc8 37       		.uleb128 0x37
ARM GAS  C:\Users\USER\AppData\Local\Temp\ccRejSya.s 			page 260


 14752 4fc9 D9490000 		.4byte	0x49d9
 14753 4fcd 0F130000 		.4byte	.LLST113
 14754 4fd1 0B130000 		.4byte	.LVUS113
 14755 4fd5 3B       		.uleb128 0x3b
 14756 4fd6 E5490000 		.4byte	0x49e5
 14757 4fda 34130000 		.4byte	.LLST114
 14758 4fde 30130000 		.4byte	.LVUS114
 14759 4fe2 3B       		.uleb128 0x3b
 14760 4fe3 F2490000 		.4byte	0x49f2
 14761 4fe7 58130000 		.4byte	.LLST115
 14762 4feb 52130000 		.4byte	.LVUS115
 14763 4fef 60       		.uleb128 0x60
 14764 4ff0 CC490000 		.4byte	0x49cc
 14765 4ff4 06       		.uleb128 0x6
 14766 4ff5 03       		.byte	0x3
 14767 4ff6 00000000 		.4byte	USBD1
 14768 4ffa 9F       		.byte	0x9f
 14769 4ffb 3C       		.uleb128 0x3c
 14770 4ffc FF490000 		.4byte	0x49ff
 14771 5000 60080000 		.4byte	.Ldebug_ranges0+0x860
 14772 5004 3F510000 		.4byte	0x513f
 14773 5008 3B       		.uleb128 0x3b
 14774 5009 004A0000 		.4byte	0x4a00
 14775 500d 89130000 		.4byte	.LLST116
 14776 5011 81130000 		.4byte	.LVUS116
 14777 5015 34       		.uleb128 0x34
 14778 5016 154F0000 		.4byte	0x4f15
 14779 501a 68000000 		.4byte	.LBI831
 14780 501e 0100     		.2byte	.LVU1056
 14781 5020 B0080000 		.4byte	.Ldebug_ranges0+0x8b0
 14782 5024 01       		.byte	0x1
 14783 5025 5D02     		.2byte	0x25d
 14784 5027 07       		.byte	0x7
 14785 5028 7A500000 		.4byte	0x507a
 14786 502c 35       		.uleb128 0x35
 14787 502d 4B4F0000 		.4byte	0x4f4b
 14788 5031 68000000 		.4byte	.LBI832
 14789 5035 0300     		.2byte	.LVU1058
 14790 5037 B8080000 		.4byte	.Ldebug_ranges0+0x8b8
 14791 503b 04       		.byte	0x4
 14792 503c 8401     		.2byte	0x184
 14793 503e 03       		.byte	0x3
 14794 503f 35       		.uleb128 0x35
 14795 5040 5F4F0000 		.4byte	0x4f5f
 14796 5044 68000000 		.4byte	.LBI833
 14797 5048 0500     		.2byte	.LVU1060
 14798 504a C0080000 		.4byte	.Ldebug_ranges0+0x8c0
 14799 504e 05       		.byte	0x5
 14800 504f DB01     		.2byte	0x1db
 14801 5051 03       		.byte	0x3
 14802 5052 36       		.uleb128 0x36
 14803 5053 694F0000 		.4byte	0x4f69
 14804 5057 68000000 		.4byte	.LBI834
 14805 505b 0700     		.2byte	.LVU1062
 14806 505d 68000000 		.4byte	.LBB834
 14807 5061 06000000 		.4byte	.LBE834-.LBB834
 14808 5065 05       		.byte	0x5
ARM GAS  C:\Users\USER\AppData\Local\Temp\ccRejSya.s 			page 261


 14809 5066 BF01     		.2byte	0x1bf
 14810 5068 03       		.byte	0x3
 14811 5069 37       		.uleb128 0x37
 14812 506a 774F0000 		.4byte	0x4f77
 14813 506e CB130000 		.4byte	.LLST117
 14814 5072 C9130000 		.4byte	.LVUS117
 14815 5076 00       		.byte	0
 14816 5077 00       		.byte	0
 14817 5078 00       		.byte	0
 14818 5079 00       		.byte	0
 14819 507a 3E       		.uleb128 0x3e
 14820 507b CA3E0000 		.4byte	0x3eca
 14821 507f 6E000000 		.4byte	.LBI842
 14822 5083 0400     		.2byte	.LVU1068
 14823 5085 6E000000 		.4byte	.LBB842
 14824 5089 12000000 		.4byte	.LBE842-.LBB842
 14825 508d 01       		.byte	0x1
 14826 508e 5E02     		.2byte	0x25e
 14827 5090 07       		.byte	0x7
 14828 5091 B0500000 		.4byte	0x50b0
 14829 5095 37       		.uleb128 0x37
 14830 5096 E53E0000 		.4byte	0x3ee5
 14831 509a E2130000 		.4byte	.LLST118
 14832 509e E0130000 		.4byte	.LVUS118
 14833 50a2 37       		.uleb128 0x37
 14834 50a3 D83E0000 		.4byte	0x3ed8
 14835 50a7 F7130000 		.4byte	.LLST119
 14836 50ab F5130000 		.4byte	.LVUS119
 14837 50af 00       		.byte	0
 14838 50b0 34       		.uleb128 0x34
 14839 50b1 0B4F0000 		.4byte	0x4f0b
 14840 50b5 80000000 		.4byte	.LBI844
 14841 50b9 0200     		.2byte	.LVU1073
 14842 50bb D8080000 		.4byte	.Ldebug_ranges0+0x8d8
 14843 50bf 01       		.byte	0x1
 14844 50c0 5F02     		.2byte	0x25f
 14845 50c2 07       		.byte	0x7
 14846 50c3 15510000 		.4byte	0x5115
 14847 50c7 35       		.uleb128 0x35
 14848 50c8 414F0000 		.4byte	0x4f41
 14849 50cc 80000000 		.4byte	.LBI845
 14850 50d0 0600     		.2byte	.LVU1077
 14851 50d2 E0080000 		.4byte	.Ldebug_ranges0+0x8e0
 14852 50d6 04       		.byte	0x4
 14853 50d7 9A01     		.2byte	0x19a
 14854 50d9 03       		.byte	0x3
 14855 50da 35       		.uleb128 0x35
 14856 50db 554F0000 		.4byte	0x4f55
 14857 50df 80000000 		.4byte	.LBI846
 14858 50e3 0800     		.2byte	.LVU1079
 14859 50e5 E8080000 		.4byte	.Ldebug_ranges0+0x8e8
 14860 50e9 05       		.byte	0x5
 14861 50ea E601     		.2byte	0x1e6
 14862 50ec 03       		.byte	0x3
 14863 50ed 36       		.uleb128 0x36
 14864 50ee 694F0000 		.4byte	0x4f69
 14865 50f2 80000000 		.4byte	.LBI847
ARM GAS  C:\Users\USER\AppData\Local\Temp\ccRejSya.s 			page 262


 14866 50f6 0A00     		.2byte	.LVU1081
 14867 50f8 80000000 		.4byte	.LBB847
 14868 50fc 04000000 		.4byte	.LBE847-.LBB847
 14869 5100 05       		.byte	0x5
 14870 5101 CD01     		.2byte	0x1cd
 14871 5103 03       		.byte	0x3
 14872 5104 37       		.uleb128 0x37
 14873 5105 774F0000 		.4byte	0x4f77
 14874 5109 11140000 		.4byte	.LLST120
 14875 510d 0F140000 		.4byte	.LVUS120
 14876 5111 00       		.byte	0
 14877 5112 00       		.byte	0
 14878 5113 00       		.byte	0
 14879 5114 00       		.byte	0
 14880 5115 61       		.uleb128 0x61
 14881 5116 58000000 		.4byte	.LVL213
 14882 511a 28510000 		.4byte	0x5128
 14883 511e 40       		.uleb128 0x40
 14884 511f 01       		.uleb128 0x1
 14885 5120 50       		.byte	0x50
 14886 5121 05       		.uleb128 0x5
 14887 5122 03       		.byte	0x3
 14888 5123 00000000 		.4byte	.LANCHOR0
 14889 5127 00       		.byte	0
 14890 5128 3F       		.uleb128 0x3f
 14891 5129 68000000 		.4byte	.LVL215
 14892 512d 633F0000 		.4byte	0x3f63
 14893 5131 40       		.uleb128 0x40
 14894 5132 01       		.uleb128 0x1
 14895 5133 50       		.byte	0x50
 14896 5134 02       		.uleb128 0x2
 14897 5135 76       		.byte	0x76
 14898 5136 00       		.sleb128 0
 14899 5137 40       		.uleb128 0x40
 14900 5138 01       		.uleb128 0x1
 14901 5139 51       		.byte	0x51
 14902 513a 02       		.uleb128 0x2
 14903 513b 71       		.byte	0x71
 14904 513c 00       		.sleb128 0
 14905 513d 00       		.byte	0
 14906 513e 00       		.byte	0
 14907 513f 62       		.uleb128 0x62
 14908 5140 96000000 		.4byte	.LVL221
 14909 5144 40       		.uleb128 0x40
 14910 5145 01       		.uleb128 0x1
 14911 5146 50       		.byte	0x50
 14912 5147 02       		.uleb128 0x2
 14913 5148 76       		.byte	0x76
 14914 5149 00       		.sleb128 0
 14915 514a 40       		.uleb128 0x40
 14916 514b 01       		.uleb128 0x1
 14917 514c 51       		.byte	0x51
 14918 514d 02       		.uleb128 0x2
 14919 514e 75       		.byte	0x75
 14920 514f 00       		.sleb128 0
 14921 5150 00       		.byte	0
 14922 5151 00       		.byte	0
ARM GAS  C:\Users\USER\AppData\Local\Temp\ccRejSya.s 			page 263


 14923 5152 5F       		.uleb128 0x5f
 14924 5153 0F4A0000 		.4byte	0x4a0f
 14925 5157 00000000 		.4byte	.LFB299
 14926 515b D0000000 		.4byte	.LFE299-.LFB299
 14927 515f 01       		.uleb128 0x1
 14928 5160 9C       		.byte	0x9c
 14929 5161 43540000 		.4byte	0x5443
 14930 5165 37       		.uleb128 0x37
 14931 5166 2A4A0000 		.4byte	0x4a2a
 14932 516a 2D140000 		.4byte	.LLST125
 14933 516e 25140000 		.4byte	.LVUS125
 14934 5172 3B       		.uleb128 0x3b
 14935 5173 364A0000 		.4byte	0x4a36
 14936 5177 69140000 		.4byte	.LLST126
 14937 517b 67140000 		.4byte	.LVUS126
 14938 517f 3B       		.uleb128 0x3b
 14939 5180 434A0000 		.4byte	0x4a43
 14940 5184 7E140000 		.4byte	.LLST127
 14941 5188 7C140000 		.4byte	.LVUS127
 14942 518c 60       		.uleb128 0x60
 14943 518d 1D4A0000 		.4byte	0x4a1d
 14944 5191 06       		.uleb128 0x6
 14945 5192 03       		.byte	0x3
 14946 5193 00000000 		.4byte	USBD1
 14947 5197 9F       		.byte	0x9f
 14948 5198 3C       		.uleb128 0x3c
 14949 5199 504A0000 		.4byte	0x4a50
 14950 519d 18090000 		.4byte	.Ldebug_ranges0+0x918
 14951 51a1 0A530000 		.4byte	0x530a
 14952 51a5 3B       		.uleb128 0x3b
 14953 51a6 514A0000 		.4byte	0x4a51
 14954 51aa 99140000 		.4byte	.LLST128
 14955 51ae 91140000 		.4byte	.LVUS128
 14956 51b2 34       		.uleb128 0x34
 14957 51b3 984E0000 		.4byte	0x4e98
 14958 51b7 9C000000 		.4byte	.LBI866
 14959 51bb 0100     		.2byte	.LVU1200
 14960 51bd 80090000 		.4byte	.Ldebug_ranges0+0x980
 14961 51c1 01       		.byte	0x1
 14962 51c2 2902     		.2byte	0x229
 14963 51c4 07       		.byte	0x7
 14964 51c5 2B520000 		.4byte	0x522b
 14965 51c9 35       		.uleb128 0x35
 14966 51ca 154F0000 		.4byte	0x4f15
 14967 51ce 9C000000 		.4byte	.LBI867
 14968 51d2 0300     		.2byte	.LVU1202
 14969 51d4 88090000 		.4byte	.Ldebug_ranges0+0x988
 14970 51d8 03       		.byte	0x3
 14971 51d9 0302     		.2byte	0x203
 14972 51db 03       		.byte	0x3
 14973 51dc 35       		.uleb128 0x35
 14974 51dd 4B4F0000 		.4byte	0x4f4b
 14975 51e1 9C000000 		.4byte	.LBI868
 14976 51e5 0500     		.2byte	.LVU1204
 14977 51e7 90090000 		.4byte	.Ldebug_ranges0+0x990
 14978 51eb 04       		.byte	0x4
 14979 51ec 8401     		.2byte	0x184
ARM GAS  C:\Users\USER\AppData\Local\Temp\ccRejSya.s 			page 264


 14980 51ee 03       		.byte	0x3
 14981 51ef 35       		.uleb128 0x35
 14982 51f0 5F4F0000 		.4byte	0x4f5f
 14983 51f4 9C000000 		.4byte	.LBI869
 14984 51f8 0700     		.2byte	.LVU1206
 14985 51fa 98090000 		.4byte	.Ldebug_ranges0+0x998
 14986 51fe 05       		.byte	0x5
 14987 51ff DB01     		.2byte	0x1db
 14988 5201 03       		.byte	0x3
 14989 5202 36       		.uleb128 0x36
 14990 5203 694F0000 		.4byte	0x4f69
 14991 5207 9C000000 		.4byte	.LBI870
 14992 520b 0900     		.2byte	.LVU1208
 14993 520d 9C000000 		.4byte	.LBB870
 14994 5211 06000000 		.4byte	.LBE870-.LBB870
 14995 5215 05       		.byte	0x5
 14996 5216 BF01     		.2byte	0x1bf
 14997 5218 03       		.byte	0x3
 14998 5219 37       		.uleb128 0x37
 14999 521a 774F0000 		.4byte	0x4f77
 15000 521e DB140000 		.4byte	.LLST129
 15001 5222 D9140000 		.4byte	.LVUS129
 15002 5226 00       		.byte	0
 15003 5227 00       		.byte	0
 15004 5228 00       		.byte	0
 15005 5229 00       		.byte	0
 15006 522a 00       		.byte	0
 15007 522b 3E       		.uleb128 0x3e
 15008 522c A23E0000 		.4byte	0x3ea2
 15009 5230 A2000000 		.4byte	.LBI882
 15010 5234 0400     		.2byte	.LVU1214
 15011 5236 A2000000 		.4byte	.LBB882
 15012 523a 20000000 		.4byte	.LBE882-.LBB882
 15013 523e 01       		.byte	0x1
 15014 523f 2A02     		.2byte	0x22a
 15015 5241 07       		.byte	0x7
 15016 5242 61520000 		.4byte	0x5261
 15017 5246 37       		.uleb128 0x37
 15018 5247 BD3E0000 		.4byte	0x3ebd
 15019 524b F2140000 		.4byte	.LLST130
 15020 524f F0140000 		.4byte	.LVUS130
 15021 5253 37       		.uleb128 0x37
 15022 5254 B03E0000 		.4byte	0x3eb0
 15023 5258 07150000 		.4byte	.LLST131
 15024 525c 05150000 		.4byte	.LVUS131
 15025 5260 00       		.byte	0
 15026 5261 34       		.uleb128 0x34
 15027 5262 8E4E0000 		.4byte	0x4e8e
 15028 5266 C2000000 		.4byte	.LBI884
 15029 526a 0200     		.2byte	.LVU1225
 15030 526c B0090000 		.4byte	.Ldebug_ranges0+0x9b0
 15031 5270 01       		.byte	0x1
 15032 5271 2B02     		.2byte	0x22b
 15033 5273 07       		.byte	0x7
 15034 5274 DA520000 		.4byte	0x52da
 15035 5278 35       		.uleb128 0x35
 15036 5279 0B4F0000 		.4byte	0x4f0b
ARM GAS  C:\Users\USER\AppData\Local\Temp\ccRejSya.s 			page 265


 15037 527d C2000000 		.4byte	.LBI885
 15038 5281 0400     		.2byte	.LVU1227
 15039 5283 B8090000 		.4byte	.Ldebug_ranges0+0x9b8
 15040 5287 03       		.byte	0x3
 15041 5288 0E02     		.2byte	0x20e
 15042 528a 03       		.byte	0x3
 15043 528b 35       		.uleb128 0x35
 15044 528c 414F0000 		.4byte	0x4f41
 15045 5290 C2000000 		.4byte	.LBI886
 15046 5294 0800     		.2byte	.LVU1231
 15047 5296 C0090000 		.4byte	.Ldebug_ranges0+0x9c0
 15048 529a 04       		.byte	0x4
 15049 529b 9A01     		.2byte	0x19a
 15050 529d 03       		.byte	0x3
 15051 529e 35       		.uleb128 0x35
 15052 529f 554F0000 		.4byte	0x4f55
 15053 52a3 C2000000 		.4byte	.LBI887
 15054 52a7 0A00     		.2byte	.LVU1233
 15055 52a9 C8090000 		.4byte	.Ldebug_ranges0+0x9c8
 15056 52ad 05       		.byte	0x5
 15057 52ae E601     		.2byte	0x1e6
 15058 52b0 03       		.byte	0x3
 15059 52b1 36       		.uleb128 0x36
 15060 52b2 694F0000 		.4byte	0x4f69
 15061 52b6 C2000000 		.4byte	.LBI888
 15062 52ba 0C00     		.2byte	.LVU1235
 15063 52bc C2000000 		.4byte	.LBB888
 15064 52c0 0E000000 		.4byte	.LBE888-.LBB888
 15065 52c4 05       		.byte	0x5
 15066 52c5 CD01     		.2byte	0x1cd
 15067 52c7 03       		.byte	0x3
 15068 52c8 37       		.uleb128 0x37
 15069 52c9 774F0000 		.4byte	0x4f77
 15070 52cd 21150000 		.4byte	.LLST132
 15071 52d1 1F150000 		.4byte	.LVUS132
 15072 52d5 00       		.byte	0
 15073 52d6 00       		.byte	0
 15074 52d7 00       		.byte	0
 15075 52d8 00       		.byte	0
 15076 52d9 00       		.byte	0
 15077 52da 63       		.uleb128 0x63
 15078 52db 5E000000 		.4byte	.LVL237
 15079 52df 02       		.uleb128 0x2
 15080 52e0 78       		.byte	0x78
 15081 52e1 00       		.sleb128 0
 15082 52e2 F3520000 		.4byte	0x52f3
 15083 52e6 40       		.uleb128 0x40
 15084 52e7 01       		.uleb128 0x1
 15085 52e8 50       		.byte	0x50
 15086 52e9 02       		.uleb128 0x2
 15087 52ea 77       		.byte	0x77
 15088 52eb 00       		.sleb128 0
 15089 52ec 40       		.uleb128 0x40
 15090 52ed 01       		.uleb128 0x1
 15091 52ee 51       		.byte	0x51
 15092 52ef 02       		.uleb128 0x2
 15093 52f0 76       		.byte	0x76
ARM GAS  C:\Users\USER\AppData\Local\Temp\ccRejSya.s 			page 266


 15094 52f1 00       		.sleb128 0
 15095 52f2 00       		.byte	0
 15096 52f3 3F       		.uleb128 0x3f
 15097 52f4 9C000000 		.4byte	.LVL244
 15098 52f8 F23E0000 		.4byte	0x3ef2
 15099 52fc 40       		.uleb128 0x40
 15100 52fd 01       		.uleb128 0x1
 15101 52fe 50       		.byte	0x50
 15102 52ff 02       		.uleb128 0x2
 15103 5300 77       		.byte	0x77
 15104 5301 00       		.sleb128 0
 15105 5302 40       		.uleb128 0x40
 15106 5303 01       		.uleb128 0x1
 15107 5304 51       		.byte	0x51
 15108 5305 02       		.uleb128 0x2
 15109 5306 76       		.byte	0x76
 15110 5307 00       		.sleb128 0
 15111 5308 00       		.byte	0
 15112 5309 00       		.byte	0
 15113 530a 34       		.uleb128 0x34
 15114 530b 984E0000 		.4byte	0x4e98
 15115 530f 60000000 		.4byte	.LBI901
 15116 5313 0200     		.2byte	.LVU1154
 15117 5315 E0090000 		.4byte	.Ldebug_ranges0+0x9e0
 15118 5319 01       		.byte	0x1
 15119 531a 3502     		.2byte	0x235
 15120 531c 05       		.byte	0x5
 15121 531d 83530000 		.4byte	0x5383
 15122 5321 35       		.uleb128 0x35
 15123 5322 154F0000 		.4byte	0x4f15
 15124 5326 60000000 		.4byte	.LBI902
 15125 532a 0400     		.2byte	.LVU1156
 15126 532c E8090000 		.4byte	.Ldebug_ranges0+0x9e8
 15127 5330 03       		.byte	0x3
 15128 5331 0302     		.2byte	0x203
 15129 5333 03       		.byte	0x3
 15130 5334 35       		.uleb128 0x35
 15131 5335 4B4F0000 		.4byte	0x4f4b
 15132 5339 60000000 		.4byte	.LBI903
 15133 533d 0600     		.2byte	.LVU1158
 15134 533f F0090000 		.4byte	.Ldebug_ranges0+0x9f0
 15135 5343 04       		.byte	0x4
 15136 5344 8401     		.2byte	0x184
 15137 5346 03       		.byte	0x3
 15138 5347 35       		.uleb128 0x35
 15139 5348 5F4F0000 		.4byte	0x4f5f
 15140 534c 60000000 		.4byte	.LBI904
 15141 5350 0800     		.2byte	.LVU1160
 15142 5352 F8090000 		.4byte	.Ldebug_ranges0+0x9f8
 15143 5356 05       		.byte	0x5
 15144 5357 DB01     		.2byte	0x1db
 15145 5359 03       		.byte	0x3
 15146 535a 36       		.uleb128 0x36
 15147 535b 694F0000 		.4byte	0x4f69
 15148 535f 60000000 		.4byte	.LBI905
 15149 5363 0A00     		.2byte	.LVU1162
 15150 5365 60000000 		.4byte	.LBB905
ARM GAS  C:\Users\USER\AppData\Local\Temp\ccRejSya.s 			page 267


 15151 5369 06000000 		.4byte	.LBE905-.LBB905
 15152 536d 05       		.byte	0x5
 15153 536e BF01     		.2byte	0x1bf
 15154 5370 03       		.byte	0x3
 15155 5371 37       		.uleb128 0x37
 15156 5372 774F0000 		.4byte	0x4f77
 15157 5376 37150000 		.4byte	.LLST133
 15158 537a 35150000 		.4byte	.LVUS133
 15159 537e 00       		.byte	0
 15160 537f 00       		.byte	0
 15161 5380 00       		.byte	0
 15162 5381 00       		.byte	0
 15163 5382 00       		.byte	0
 15164 5383 34       		.uleb128 0x34
 15165 5384 1F4E0000 		.4byte	0x4e1f
 15166 5388 7C000000 		.4byte	.LBI917
 15167 538c 0200     		.2byte	.LVU1177
 15168 538e 100A0000 		.4byte	.Ldebug_ranges0+0xa10
 15169 5392 01       		.byte	0x1
 15170 5393 3802     		.2byte	0x238
 15171 5395 05       		.byte	0x5
 15172 5396 CD530000 		.4byte	0x53cd
 15173 539a 37       		.uleb128 0x37
 15174 539b 3A4E0000 		.4byte	0x4e3a
 15175 539f 4E150000 		.4byte	.LLST134
 15176 53a3 4C150000 		.4byte	.LVUS134
 15177 53a7 37       		.uleb128 0x37
 15178 53a8 2D4E0000 		.4byte	0x4e2d
 15179 53ac 64150000 		.4byte	.LLST135
 15180 53b0 62150000 		.4byte	.LVUS135
 15181 53b4 3F       		.uleb128 0x3f
 15182 53b5 80000000 		.4byte	.LVL241
 15183 53b9 03550000 		.4byte	0x5503
 15184 53bd 40       		.uleb128 0x40
 15185 53be 01       		.uleb128 0x1
 15186 53bf 50       		.byte	0x50
 15187 53c0 05       		.uleb128 0x5
 15188 53c1 03       		.byte	0x3
 15189 53c2 60000000 		.4byte	.LANCHOR0+96
 15190 53c6 40       		.uleb128 0x40
 15191 53c7 01       		.uleb128 0x1
 15192 53c8 51       		.byte	0x51
 15193 53c9 01       		.uleb128 0x1
 15194 53ca 30       		.byte	0x30
 15195 53cb 00       		.byte	0
 15196 53cc 00       		.byte	0
 15197 53cd 35       		.uleb128 0x35
 15198 53ce 8E4E0000 		.4byte	0x4e8e
 15199 53d2 80000000 		.4byte	.LBI923
 15200 53d6 0200     		.2byte	.LVU1181
 15201 53d8 300A0000 		.4byte	.Ldebug_ranges0+0xa30
 15202 53dc 01       		.byte	0x1
 15203 53dd 3902     		.2byte	0x239
 15204 53df 05       		.byte	0x5
 15205 53e0 35       		.uleb128 0x35
 15206 53e1 0B4F0000 		.4byte	0x4f0b
 15207 53e5 80000000 		.4byte	.LBI924
ARM GAS  C:\Users\USER\AppData\Local\Temp\ccRejSya.s 			page 268


 15208 53e9 0400     		.2byte	.LVU1183
 15209 53eb 380A0000 		.4byte	.Ldebug_ranges0+0xa38
 15210 53ef 03       		.byte	0x3
 15211 53f0 0E02     		.2byte	0x20e
 15212 53f2 03       		.byte	0x3
 15213 53f3 35       		.uleb128 0x35
 15214 53f4 414F0000 		.4byte	0x4f41
 15215 53f8 80000000 		.4byte	.LBI925
 15216 53fc 0800     		.2byte	.LVU1187
 15217 53fe 400A0000 		.4byte	.Ldebug_ranges0+0xa40
 15218 5402 04       		.byte	0x4
 15219 5403 9A01     		.2byte	0x19a
 15220 5405 03       		.byte	0x3
 15221 5406 35       		.uleb128 0x35
 15222 5407 554F0000 		.4byte	0x4f55
 15223 540b 80000000 		.4byte	.LBI926
 15224 540f 0A00     		.2byte	.LVU1189
 15225 5411 480A0000 		.4byte	.Ldebug_ranges0+0xa48
 15226 5415 05       		.byte	0x5
 15227 5416 E601     		.2byte	0x1e6
 15228 5418 03       		.byte	0x3
 15229 5419 36       		.uleb128 0x36
 15230 541a 694F0000 		.4byte	0x4f69
 15231 541e 80000000 		.4byte	.LBI927
 15232 5422 0C00     		.2byte	.LVU1191
 15233 5424 80000000 		.4byte	.LBB927
 15234 5428 06000000 		.4byte	.LBE927-.LBB927
 15235 542c 05       		.byte	0x5
 15236 542d CD01     		.2byte	0x1cd
 15237 542f 03       		.byte	0x3
 15238 5430 37       		.uleb128 0x37
 15239 5431 774F0000 		.4byte	0x4f77
 15240 5435 7E150000 		.4byte	.LLST136
 15241 5439 7C150000 		.4byte	.LVUS136
 15242 543d 00       		.byte	0
 15243 543e 00       		.byte	0
 15244 543f 00       		.byte	0
 15245 5440 00       		.byte	0
 15246 5441 00       		.byte	0
 15247 5442 00       		.byte	0
 15248 5443 5F       		.uleb128 0x5f
 15249 5444 CA3E0000 		.4byte	0x3eca
 15250 5448 00000000 		.4byte	.LFB286
 15251 544c 14000000 		.4byte	.LFE286-.LFB286
 15252 5450 01       		.uleb128 0x1
 15253 5451 9C       		.byte	0x9c
 15254 5452 6B540000 		.4byte	0x546b
 15255 5456 60       		.uleb128 0x60
 15256 5457 D83E0000 		.4byte	0x3ed8
 15257 545b 01       		.uleb128 0x1
 15258 545c 50       		.byte	0x50
 15259 545d 37       		.uleb128 0x37
 15260 545e E53E0000 		.4byte	0x3ee5
 15261 5462 96150000 		.4byte	.LLST145
 15262 5466 92150000 		.4byte	.LVUS145
 15263 546a 00       		.byte	0
 15264 546b 5F       		.uleb128 0x5f
ARM GAS  C:\Users\USER\AppData\Local\Temp\ccRejSya.s 			page 269


 15265 546c A23E0000 		.4byte	0x3ea2
 15266 5470 00000000 		.4byte	.LFB287
 15267 5474 28000000 		.4byte	.LFE287-.LFB287
 15268 5478 01       		.uleb128 0x1
 15269 5479 9C       		.byte	0x9c
 15270 547a 93540000 		.4byte	0x5493
 15271 547e 37       		.uleb128 0x37
 15272 547f B03E0000 		.4byte	0x3eb0
 15273 5483 BB150000 		.4byte	.LLST146
 15274 5487 B7150000 		.4byte	.LVUS146
 15275 548b 60       		.uleb128 0x60
 15276 548c BD3E0000 		.4byte	0x3ebd
 15277 5490 01       		.uleb128 0x1
 15278 5491 51       		.byte	0x51
 15279 5492 00       		.byte	0
 15280 5493 64       		.uleb128 0x64
 15281 5494 6B060000 		.4byte	.LASF746
 15282 5498 6B060000 		.4byte	.LASF746
 15283 549c 07       		.byte	0x7
 15284 549d 94       		.byte	0x94
 15285 549e 08       		.byte	0x8
 15286 549f 65       		.uleb128 0x65
 15287 54a0 B6150000 		.4byte	.LASF747
 15288 54a4 B6150000 		.4byte	.LASF747
 15289 54a8 10       		.byte	0x10
 15290 54a9 1702     		.2byte	0x217
 15291 54ab 08       		.byte	0x8
 15292 54ac 64       		.uleb128 0x64
 15293 54ad EA0F0000 		.4byte	.LASF748
 15294 54b1 EA0F0000 		.4byte	.LASF748
 15295 54b5 07       		.byte	0x7
 15296 54b6 8D       		.byte	0x8d
 15297 54b7 09       		.byte	0x9
 15298 54b8 65       		.uleb128 0x65
 15299 54b9 18020000 		.4byte	.LASF749
 15300 54bd 18020000 		.4byte	.LASF749
 15301 54c1 04       		.byte	0x4
 15302 54c2 1D01     		.2byte	0x11d
 15303 54c4 08       		.byte	0x8
 15304 54c5 64       		.uleb128 0x64
 15305 54c6 70030000 		.4byte	.LASF750
 15306 54ca 70030000 		.4byte	.LASF750
 15307 54ce 2C       		.byte	0x2c
 15308 54cf 4F       		.byte	0x4f
 15309 54d0 08       		.byte	0x8
 15310 54d1 65       		.uleb128 0x65
 15311 54d2 71170000 		.4byte	.LASF751
 15312 54d6 71170000 		.4byte	.LASF751
 15313 54da 10       		.byte	0x10
 15314 54db 1302     		.2byte	0x213
 15315 54dd 0D       		.byte	0xd
 15316 54de 64       		.uleb128 0x64
 15317 54df 0D1D0000 		.4byte	.LASF752
 15318 54e3 0D1D0000 		.4byte	.LASF752
 15319 54e7 2C       		.byte	0x2c
 15320 54e8 4E       		.byte	0x4e
 15321 54e9 08       		.byte	0x8
ARM GAS  C:\Users\USER\AppData\Local\Temp\ccRejSya.s 			page 270


 15322 54ea 64       		.uleb128 0x64
 15323 54eb B8110000 		.4byte	.LASF753
 15324 54ef B8110000 		.4byte	.LASF753
 15325 54f3 07       		.byte	0x7
 15326 54f4 87       		.byte	0x87
 15327 54f5 0D       		.byte	0xd
 15328 54f6 65       		.uleb128 0x65
 15329 54f7 24120000 		.4byte	.LASF754
 15330 54fb 24120000 		.4byte	.LASF754
 15331 54ff 29       		.byte	0x29
 15332 5500 3602     		.2byte	0x236
 15333 5502 08       		.byte	0x8
 15334 5503 64       		.uleb128 0x64
 15335 5504 B91A0000 		.4byte	.LASF755
 15336 5508 B91A0000 		.4byte	.LASF755
 15337 550c 07       		.byte	0x7
 15338 550d 8F       		.byte	0x8f
 15339 550e 08       		.byte	0x8
 15340 550f 65       		.uleb128 0x65
 15341 5510 99060000 		.4byte	.LASF756
 15342 5514 99060000 		.4byte	.LASF756
 15343 5518 29       		.byte	0x29
 15344 5519 4902     		.2byte	0x249
 15345 551b 08       		.byte	0x8
 15346 551c 65       		.uleb128 0x65
 15347 551d 2C0D0000 		.4byte	.LASF757
 15348 5521 2C0D0000 		.4byte	.LASF757
 15349 5525 05       		.byte	0x5
 15350 5526 6601     		.2byte	0x166
 15351 5528 08       		.byte	0x8
 15352 5529 00       		.byte	0
 15353              		.section	.debug_abbrev,"",%progbits
 15354              	.Ldebug_abbrev0:
 15355 0000 01       		.uleb128 0x1
 15356 0001 11       		.uleb128 0x11
 15357 0002 01       		.byte	0x1
 15358 0003 25       		.uleb128 0x25
 15359 0004 0E       		.uleb128 0xe
 15360 0005 13       		.uleb128 0x13
 15361 0006 0B       		.uleb128 0xb
 15362 0007 03       		.uleb128 0x3
 15363 0008 0E       		.uleb128 0xe
 15364 0009 1B       		.uleb128 0x1b
 15365 000a 0E       		.uleb128 0xe
 15366 000b 55       		.uleb128 0x55
 15367 000c 17       		.uleb128 0x17
 15368 000d 11       		.uleb128 0x11
 15369 000e 01       		.uleb128 0x1
 15370 000f 10       		.uleb128 0x10
 15371 0010 17       		.uleb128 0x17
 15372 0011 00       		.byte	0
 15373 0012 00       		.byte	0
 15374 0013 02       		.uleb128 0x2
 15375 0014 24       		.uleb128 0x24
 15376 0015 00       		.byte	0
 15377 0016 0B       		.uleb128 0xb
 15378 0017 0B       		.uleb128 0xb
ARM GAS  C:\Users\USER\AppData\Local\Temp\ccRejSya.s 			page 271


 15379 0018 3E       		.uleb128 0x3e
 15380 0019 0B       		.uleb128 0xb
 15381 001a 03       		.uleb128 0x3
 15382 001b 0E       		.uleb128 0xe
 15383 001c 00       		.byte	0
 15384 001d 00       		.byte	0
 15385 001e 03       		.uleb128 0x3
 15386 001f 24       		.uleb128 0x24
 15387 0020 00       		.byte	0
 15388 0021 0B       		.uleb128 0xb
 15389 0022 0B       		.uleb128 0xb
 15390 0023 3E       		.uleb128 0x3e
 15391 0024 0B       		.uleb128 0xb
 15392 0025 03       		.uleb128 0x3
 15393 0026 08       		.uleb128 0x8
 15394 0027 00       		.byte	0
 15395 0028 00       		.byte	0
 15396 0029 04       		.uleb128 0x4
 15397 002a 16       		.uleb128 0x16
 15398 002b 00       		.byte	0
 15399 002c 03       		.uleb128 0x3
 15400 002d 0E       		.uleb128 0xe
 15401 002e 3A       		.uleb128 0x3a
 15402 002f 0B       		.uleb128 0xb
 15403 0030 3B       		.uleb128 0x3b
 15404 0031 0B       		.uleb128 0xb
 15405 0032 39       		.uleb128 0x39
 15406 0033 0B       		.uleb128 0xb
 15407 0034 49       		.uleb128 0x49
 15408 0035 13       		.uleb128 0x13
 15409 0036 00       		.byte	0
 15410 0037 00       		.byte	0
 15411 0038 05       		.uleb128 0x5
 15412 0039 35       		.uleb128 0x35
 15413 003a 00       		.byte	0
 15414 003b 49       		.uleb128 0x49
 15415 003c 13       		.uleb128 0x13
 15416 003d 00       		.byte	0
 15417 003e 00       		.byte	0
 15418 003f 06       		.uleb128 0x6
 15419 0040 0F       		.uleb128 0xf
 15420 0041 00       		.byte	0
 15421 0042 0B       		.uleb128 0xb
 15422 0043 0B       		.uleb128 0xb
 15423 0044 49       		.uleb128 0x49
 15424 0045 13       		.uleb128 0x13
 15425 0046 00       		.byte	0
 15426 0047 00       		.byte	0
 15427 0048 07       		.uleb128 0x7
 15428 0049 13       		.uleb128 0x13
 15429 004a 00       		.byte	0
 15430 004b 03       		.uleb128 0x3
 15431 004c 0E       		.uleb128 0xe
 15432 004d 3C       		.uleb128 0x3c
 15433 004e 19       		.uleb128 0x19
 15434 004f 00       		.byte	0
 15435 0050 00       		.byte	0
ARM GAS  C:\Users\USER\AppData\Local\Temp\ccRejSya.s 			page 272


 15436 0051 08       		.uleb128 0x8
 15437 0052 16       		.uleb128 0x16
 15438 0053 00       		.byte	0
 15439 0054 03       		.uleb128 0x3
 15440 0055 0E       		.uleb128 0xe
 15441 0056 3A       		.uleb128 0x3a
 15442 0057 0B       		.uleb128 0xb
 15443 0058 3B       		.uleb128 0x3b
 15444 0059 05       		.uleb128 0x5
 15445 005a 39       		.uleb128 0x39
 15446 005b 0B       		.uleb128 0xb
 15447 005c 49       		.uleb128 0x49
 15448 005d 13       		.uleb128 0x13
 15449 005e 00       		.byte	0
 15450 005f 00       		.byte	0
 15451 0060 09       		.uleb128 0x9
 15452 0061 17       		.uleb128 0x17
 15453 0062 01       		.byte	0x1
 15454 0063 0B       		.uleb128 0xb
 15455 0064 0B       		.uleb128 0xb
 15456 0065 3A       		.uleb128 0x3a
 15457 0066 0B       		.uleb128 0xb
 15458 0067 3B       		.uleb128 0x3b
 15459 0068 0B       		.uleb128 0xb
 15460 0069 39       		.uleb128 0x39
 15461 006a 0B       		.uleb128 0xb
 15462 006b 01       		.uleb128 0x1
 15463 006c 13       		.uleb128 0x13
 15464 006d 00       		.byte	0
 15465 006e 00       		.byte	0
 15466 006f 0A       		.uleb128 0xa
 15467 0070 0D       		.uleb128 0xd
 15468 0071 00       		.byte	0
 15469 0072 03       		.uleb128 0x3
 15470 0073 0E       		.uleb128 0xe
 15471 0074 3A       		.uleb128 0x3a
 15472 0075 0B       		.uleb128 0xb
 15473 0076 3B       		.uleb128 0x3b
 15474 0077 0B       		.uleb128 0xb
 15475 0078 39       		.uleb128 0x39
 15476 0079 0B       		.uleb128 0xb
 15477 007a 49       		.uleb128 0x49
 15478 007b 13       		.uleb128 0x13
 15479 007c 00       		.byte	0
 15480 007d 00       		.byte	0
 15481 007e 0B       		.uleb128 0xb
 15482 007f 01       		.uleb128 0x1
 15483 0080 01       		.byte	0x1
 15484 0081 49       		.uleb128 0x49
 15485 0082 13       		.uleb128 0x13
 15486 0083 01       		.uleb128 0x1
 15487 0084 13       		.uleb128 0x13
 15488 0085 00       		.byte	0
 15489 0086 00       		.byte	0
 15490 0087 0C       		.uleb128 0xc
 15491 0088 21       		.uleb128 0x21
 15492 0089 00       		.byte	0
ARM GAS  C:\Users\USER\AppData\Local\Temp\ccRejSya.s 			page 273


 15493 008a 49       		.uleb128 0x49
 15494 008b 13       		.uleb128 0x13
 15495 008c 2F       		.uleb128 0x2f
 15496 008d 0B       		.uleb128 0xb
 15497 008e 00       		.byte	0
 15498 008f 00       		.byte	0
 15499 0090 0D       		.uleb128 0xd
 15500 0091 13       		.uleb128 0x13
 15501 0092 01       		.byte	0x1
 15502 0093 0B       		.uleb128 0xb
 15503 0094 0B       		.uleb128 0xb
 15504 0095 3A       		.uleb128 0x3a
 15505 0096 0B       		.uleb128 0xb
 15506 0097 3B       		.uleb128 0x3b
 15507 0098 0B       		.uleb128 0xb
 15508 0099 39       		.uleb128 0x39
 15509 009a 0B       		.uleb128 0xb
 15510 009b 01       		.uleb128 0x1
 15511 009c 13       		.uleb128 0x13
 15512 009d 00       		.byte	0
 15513 009e 00       		.byte	0
 15514 009f 0E       		.uleb128 0xe
 15515 00a0 0D       		.uleb128 0xd
 15516 00a1 00       		.byte	0
 15517 00a2 03       		.uleb128 0x3
 15518 00a3 0E       		.uleb128 0xe
 15519 00a4 3A       		.uleb128 0x3a
 15520 00a5 0B       		.uleb128 0xb
 15521 00a6 3B       		.uleb128 0x3b
 15522 00a7 0B       		.uleb128 0xb
 15523 00a8 39       		.uleb128 0x39
 15524 00a9 0B       		.uleb128 0xb
 15525 00aa 49       		.uleb128 0x49
 15526 00ab 13       		.uleb128 0x13
 15527 00ac 38       		.uleb128 0x38
 15528 00ad 0B       		.uleb128 0xb
 15529 00ae 00       		.byte	0
 15530 00af 00       		.byte	0
 15531 00b0 0F       		.uleb128 0xf
 15532 00b1 0F       		.uleb128 0xf
 15533 00b2 00       		.byte	0
 15534 00b3 0B       		.uleb128 0xb
 15535 00b4 0B       		.uleb128 0xb
 15536 00b5 00       		.byte	0
 15537 00b6 00       		.byte	0
 15538 00b7 10       		.uleb128 0x10
 15539 00b8 26       		.uleb128 0x26
 15540 00b9 00       		.byte	0
 15541 00ba 49       		.uleb128 0x49
 15542 00bb 13       		.uleb128 0x13
 15543 00bc 00       		.byte	0
 15544 00bd 00       		.byte	0
 15545 00be 11       		.uleb128 0x11
 15546 00bf 13       		.uleb128 0x13
 15547 00c0 01       		.byte	0x1
 15548 00c1 03       		.uleb128 0x3
 15549 00c2 0E       		.uleb128 0xe
ARM GAS  C:\Users\USER\AppData\Local\Temp\ccRejSya.s 			page 274


 15550 00c3 0B       		.uleb128 0xb
 15551 00c4 0B       		.uleb128 0xb
 15552 00c5 3A       		.uleb128 0x3a
 15553 00c6 0B       		.uleb128 0xb
 15554 00c7 3B       		.uleb128 0x3b
 15555 00c8 0B       		.uleb128 0xb
 15556 00c9 39       		.uleb128 0x39
 15557 00ca 0B       		.uleb128 0xb
 15558 00cb 01       		.uleb128 0x1
 15559 00cc 13       		.uleb128 0x13
 15560 00cd 00       		.byte	0
 15561 00ce 00       		.byte	0
 15562 00cf 12       		.uleb128 0x12
 15563 00d0 0D       		.uleb128 0xd
 15564 00d1 00       		.byte	0
 15565 00d2 03       		.uleb128 0x3
 15566 00d3 08       		.uleb128 0x8
 15567 00d4 3A       		.uleb128 0x3a
 15568 00d5 0B       		.uleb128 0xb
 15569 00d6 3B       		.uleb128 0x3b
 15570 00d7 0B       		.uleb128 0xb
 15571 00d8 39       		.uleb128 0x39
 15572 00d9 0B       		.uleb128 0xb
 15573 00da 49       		.uleb128 0x49
 15574 00db 13       		.uleb128 0x13
 15575 00dc 38       		.uleb128 0x38
 15576 00dd 0B       		.uleb128 0xb
 15577 00de 00       		.byte	0
 15578 00df 00       		.byte	0
 15579 00e0 13       		.uleb128 0x13
 15580 00e1 13       		.uleb128 0x13
 15581 00e2 01       		.byte	0x1
 15582 00e3 03       		.uleb128 0x3
 15583 00e4 0E       		.uleb128 0xe
 15584 00e5 0B       		.uleb128 0xb
 15585 00e6 05       		.uleb128 0x5
 15586 00e7 3A       		.uleb128 0x3a
 15587 00e8 0B       		.uleb128 0xb
 15588 00e9 3B       		.uleb128 0x3b
 15589 00ea 0B       		.uleb128 0xb
 15590 00eb 39       		.uleb128 0x39
 15591 00ec 0B       		.uleb128 0xb
 15592 00ed 01       		.uleb128 0x1
 15593 00ee 13       		.uleb128 0x13
 15594 00ef 00       		.byte	0
 15595 00f0 00       		.byte	0
 15596 00f1 14       		.uleb128 0x14
 15597 00f2 0D       		.uleb128 0xd
 15598 00f3 00       		.byte	0
 15599 00f4 03       		.uleb128 0x3
 15600 00f5 0E       		.uleb128 0xe
 15601 00f6 3A       		.uleb128 0x3a
 15602 00f7 0B       		.uleb128 0xb
 15603 00f8 3B       		.uleb128 0x3b
 15604 00f9 0B       		.uleb128 0xb
 15605 00fa 39       		.uleb128 0x39
 15606 00fb 0B       		.uleb128 0xb
ARM GAS  C:\Users\USER\AppData\Local\Temp\ccRejSya.s 			page 275


 15607 00fc 49       		.uleb128 0x49
 15608 00fd 13       		.uleb128 0x13
 15609 00fe 38       		.uleb128 0x38
 15610 00ff 05       		.uleb128 0x5
 15611 0100 00       		.byte	0
 15612 0101 00       		.byte	0
 15613 0102 15       		.uleb128 0x15
 15614 0103 15       		.uleb128 0x15
 15615 0104 00       		.byte	0
 15616 0105 27       		.uleb128 0x27
 15617 0106 19       		.uleb128 0x19
 15618 0107 00       		.byte	0
 15619 0108 00       		.byte	0
 15620 0109 16       		.uleb128 0x16
 15621 010a 15       		.uleb128 0x15
 15622 010b 01       		.byte	0x1
 15623 010c 27       		.uleb128 0x27
 15624 010d 19       		.uleb128 0x19
 15625 010e 49       		.uleb128 0x49
 15626 010f 13       		.uleb128 0x13
 15627 0110 01       		.uleb128 0x1
 15628 0111 13       		.uleb128 0x13
 15629 0112 00       		.byte	0
 15630 0113 00       		.byte	0
 15631 0114 17       		.uleb128 0x17
 15632 0115 05       		.uleb128 0x5
 15633 0116 00       		.byte	0
 15634 0117 49       		.uleb128 0x49
 15635 0118 13       		.uleb128 0x13
 15636 0119 00       		.byte	0
 15637 011a 00       		.byte	0
 15638 011b 18       		.uleb128 0x18
 15639 011c 13       		.uleb128 0x13
 15640 011d 01       		.byte	0x1
 15641 011e 03       		.uleb128 0x3
 15642 011f 0E       		.uleb128 0xe
 15643 0120 0B       		.uleb128 0xb
 15644 0121 05       		.uleb128 0x5
 15645 0122 3A       		.uleb128 0x3a
 15646 0123 0B       		.uleb128 0xb
 15647 0124 3B       		.uleb128 0x3b
 15648 0125 05       		.uleb128 0x5
 15649 0126 39       		.uleb128 0x39
 15650 0127 0B       		.uleb128 0xb
 15651 0128 01       		.uleb128 0x1
 15652 0129 13       		.uleb128 0x13
 15653 012a 00       		.byte	0
 15654 012b 00       		.byte	0
 15655 012c 19       		.uleb128 0x19
 15656 012d 0D       		.uleb128 0xd
 15657 012e 00       		.byte	0
 15658 012f 03       		.uleb128 0x3
 15659 0130 0E       		.uleb128 0xe
 15660 0131 3A       		.uleb128 0x3a
 15661 0132 0B       		.uleb128 0xb
 15662 0133 3B       		.uleb128 0x3b
 15663 0134 05       		.uleb128 0x5
ARM GAS  C:\Users\USER\AppData\Local\Temp\ccRejSya.s 			page 276


 15664 0135 39       		.uleb128 0x39
 15665 0136 0B       		.uleb128 0xb
 15666 0137 49       		.uleb128 0x49
 15667 0138 13       		.uleb128 0x13
 15668 0139 38       		.uleb128 0x38
 15669 013a 0B       		.uleb128 0xb
 15670 013b 00       		.byte	0
 15671 013c 00       		.byte	0
 15672 013d 1A       		.uleb128 0x1a
 15673 013e 0D       		.uleb128 0xd
 15674 013f 00       		.byte	0
 15675 0140 03       		.uleb128 0x3
 15676 0141 0E       		.uleb128 0xe
 15677 0142 3A       		.uleb128 0x3a
 15678 0143 0B       		.uleb128 0xb
 15679 0144 3B       		.uleb128 0x3b
 15680 0145 05       		.uleb128 0x5
 15681 0146 39       		.uleb128 0x39
 15682 0147 0B       		.uleb128 0xb
 15683 0148 49       		.uleb128 0x49
 15684 0149 13       		.uleb128 0x13
 15685 014a 38       		.uleb128 0x38
 15686 014b 05       		.uleb128 0x5
 15687 014c 00       		.byte	0
 15688 014d 00       		.byte	0
 15689 014e 1B       		.uleb128 0x1b
 15690 014f 13       		.uleb128 0x13
 15691 0150 01       		.byte	0x1
 15692 0151 03       		.uleb128 0x3
 15693 0152 0E       		.uleb128 0xe
 15694 0153 0B       		.uleb128 0xb
 15695 0154 0B       		.uleb128 0xb
 15696 0155 3A       		.uleb128 0x3a
 15697 0156 0B       		.uleb128 0xb
 15698 0157 3B       		.uleb128 0x3b
 15699 0158 05       		.uleb128 0x5
 15700 0159 39       		.uleb128 0x39
 15701 015a 0B       		.uleb128 0xb
 15702 015b 01       		.uleb128 0x1
 15703 015c 13       		.uleb128 0x13
 15704 015d 00       		.byte	0
 15705 015e 00       		.byte	0
 15706 015f 1C       		.uleb128 0x1c
 15707 0160 13       		.uleb128 0x13
 15708 0161 01       		.byte	0x1
 15709 0162 0B       		.uleb128 0xb
 15710 0163 0B       		.uleb128 0xb
 15711 0164 3A       		.uleb128 0x3a
 15712 0165 0B       		.uleb128 0xb
 15713 0166 3B       		.uleb128 0x3b
 15714 0167 05       		.uleb128 0x5
 15715 0168 39       		.uleb128 0x39
 15716 0169 0B       		.uleb128 0xb
 15717 016a 01       		.uleb128 0x1
 15718 016b 13       		.uleb128 0x13
 15719 016c 00       		.byte	0
 15720 016d 00       		.byte	0
ARM GAS  C:\Users\USER\AppData\Local\Temp\ccRejSya.s 			page 277


 15721 016e 1D       		.uleb128 0x1d
 15722 016f 17       		.uleb128 0x17
 15723 0170 01       		.byte	0x1
 15724 0171 0B       		.uleb128 0xb
 15725 0172 0B       		.uleb128 0xb
 15726 0173 3A       		.uleb128 0x3a
 15727 0174 0B       		.uleb128 0xb
 15728 0175 3B       		.uleb128 0x3b
 15729 0176 05       		.uleb128 0x5
 15730 0177 39       		.uleb128 0x39
 15731 0178 0B       		.uleb128 0xb
 15732 0179 01       		.uleb128 0x1
 15733 017a 13       		.uleb128 0x13
 15734 017b 00       		.byte	0
 15735 017c 00       		.byte	0
 15736 017d 1E       		.uleb128 0x1e
 15737 017e 0D       		.uleb128 0xd
 15738 017f 00       		.byte	0
 15739 0180 03       		.uleb128 0x3
 15740 0181 0E       		.uleb128 0xe
 15741 0182 3A       		.uleb128 0x3a
 15742 0183 0B       		.uleb128 0xb
 15743 0184 3B       		.uleb128 0x3b
 15744 0185 05       		.uleb128 0x5
 15745 0186 39       		.uleb128 0x39
 15746 0187 0B       		.uleb128 0xb
 15747 0188 49       		.uleb128 0x49
 15748 0189 13       		.uleb128 0x13
 15749 018a 00       		.byte	0
 15750 018b 00       		.byte	0
 15751 018c 1F       		.uleb128 0x1f
 15752 018d 15       		.uleb128 0x15
 15753 018e 01       		.byte	0x1
 15754 018f 27       		.uleb128 0x27
 15755 0190 19       		.uleb128 0x19
 15756 0191 01       		.uleb128 0x1
 15757 0192 13       		.uleb128 0x13
 15758 0193 00       		.byte	0
 15759 0194 00       		.byte	0
 15760 0195 20       		.uleb128 0x20
 15761 0196 34       		.uleb128 0x34
 15762 0197 00       		.byte	0
 15763 0198 03       		.uleb128 0x3
 15764 0199 0E       		.uleb128 0xe
 15765 019a 3A       		.uleb128 0x3a
 15766 019b 0B       		.uleb128 0xb
 15767 019c 3B       		.uleb128 0x3b
 15768 019d 05       		.uleb128 0x5
 15769 019e 39       		.uleb128 0x39
 15770 019f 0B       		.uleb128 0xb
 15771 01a0 49       		.uleb128 0x49
 15772 01a1 13       		.uleb128 0x13
 15773 01a2 3F       		.uleb128 0x3f
 15774 01a3 19       		.uleb128 0x19
 15775 01a4 3C       		.uleb128 0x3c
 15776 01a5 19       		.uleb128 0x19
 15777 01a6 00       		.byte	0
ARM GAS  C:\Users\USER\AppData\Local\Temp\ccRejSya.s 			page 278


 15778 01a7 00       		.byte	0
 15779 01a8 21       		.uleb128 0x21
 15780 01a9 0D       		.uleb128 0xd
 15781 01aa 00       		.byte	0
 15782 01ab 03       		.uleb128 0x3
 15783 01ac 08       		.uleb128 0x8
 15784 01ad 3A       		.uleb128 0x3a
 15785 01ae 0B       		.uleb128 0xb
 15786 01af 3B       		.uleb128 0x3b
 15787 01b0 05       		.uleb128 0x5
 15788 01b1 39       		.uleb128 0x39
 15789 01b2 0B       		.uleb128 0xb
 15790 01b3 49       		.uleb128 0x49
 15791 01b4 13       		.uleb128 0x13
 15792 01b5 38       		.uleb128 0x38
 15793 01b6 0B       		.uleb128 0xb
 15794 01b7 00       		.byte	0
 15795 01b8 00       		.byte	0
 15796 01b9 22       		.uleb128 0x22
 15797 01ba 34       		.uleb128 0x34
 15798 01bb 00       		.byte	0
 15799 01bc 03       		.uleb128 0x3
 15800 01bd 0E       		.uleb128 0xe
 15801 01be 3A       		.uleb128 0x3a
 15802 01bf 0B       		.uleb128 0xb
 15803 01c0 3B       		.uleb128 0x3b
 15804 01c1 0B       		.uleb128 0xb
 15805 01c2 39       		.uleb128 0x39
 15806 01c3 0B       		.uleb128 0xb
 15807 01c4 49       		.uleb128 0x49
 15808 01c5 13       		.uleb128 0x13
 15809 01c6 3F       		.uleb128 0x3f
 15810 01c7 19       		.uleb128 0x19
 15811 01c8 3C       		.uleb128 0x3c
 15812 01c9 19       		.uleb128 0x19
 15813 01ca 00       		.byte	0
 15814 01cb 00       		.byte	0
 15815 01cc 23       		.uleb128 0x23
 15816 01cd 13       		.uleb128 0x13
 15817 01ce 01       		.byte	0x1
 15818 01cf 0B       		.uleb128 0xb
 15819 01d0 05       		.uleb128 0x5
 15820 01d1 3A       		.uleb128 0x3a
 15821 01d2 0B       		.uleb128 0xb
 15822 01d3 3B       		.uleb128 0x3b
 15823 01d4 05       		.uleb128 0x5
 15824 01d5 39       		.uleb128 0x39
 15825 01d6 0B       		.uleb128 0xb
 15826 01d7 01       		.uleb128 0x1
 15827 01d8 13       		.uleb128 0x13
 15828 01d9 00       		.byte	0
 15829 01da 00       		.byte	0
 15830 01db 24       		.uleb128 0x24
 15831 01dc 0D       		.uleb128 0xd
 15832 01dd 00       		.byte	0
 15833 01de 03       		.uleb128 0x3
 15834 01df 08       		.uleb128 0x8
ARM GAS  C:\Users\USER\AppData\Local\Temp\ccRejSya.s 			page 279


 15835 01e0 3A       		.uleb128 0x3a
 15836 01e1 0B       		.uleb128 0xb
 15837 01e2 3B       		.uleb128 0x3b
 15838 01e3 05       		.uleb128 0x5
 15839 01e4 39       		.uleb128 0x39
 15840 01e5 0B       		.uleb128 0xb
 15841 01e6 49       		.uleb128 0x49
 15842 01e7 13       		.uleb128 0x13
 15843 01e8 38       		.uleb128 0x38
 15844 01e9 05       		.uleb128 0x5
 15845 01ea 00       		.byte	0
 15846 01eb 00       		.byte	0
 15847 01ec 25       		.uleb128 0x25
 15848 01ed 34       		.uleb128 0x34
 15849 01ee 00       		.byte	0
 15850 01ef 03       		.uleb128 0x3
 15851 01f0 08       		.uleb128 0x8
 15852 01f1 3A       		.uleb128 0x3a
 15853 01f2 0B       		.uleb128 0xb
 15854 01f3 3B       		.uleb128 0x3b
 15855 01f4 05       		.uleb128 0x5
 15856 01f5 39       		.uleb128 0x39
 15857 01f6 0B       		.uleb128 0xb
 15858 01f7 49       		.uleb128 0x49
 15859 01f8 13       		.uleb128 0x13
 15860 01f9 3F       		.uleb128 0x3f
 15861 01fa 19       		.uleb128 0x19
 15862 01fb 3C       		.uleb128 0x3c
 15863 01fc 19       		.uleb128 0x19
 15864 01fd 00       		.byte	0
 15865 01fe 00       		.byte	0
 15866 01ff 26       		.uleb128 0x26
 15867 0200 0D       		.uleb128 0xd
 15868 0201 00       		.byte	0
 15869 0202 03       		.uleb128 0x3
 15870 0203 08       		.uleb128 0x8
 15871 0204 3A       		.uleb128 0x3a
 15872 0205 0B       		.uleb128 0xb
 15873 0206 3B       		.uleb128 0x3b
 15874 0207 0B       		.uleb128 0xb
 15875 0208 39       		.uleb128 0x39
 15876 0209 0B       		.uleb128 0xb
 15877 020a 49       		.uleb128 0x49
 15878 020b 13       		.uleb128 0x13
 15879 020c 00       		.byte	0
 15880 020d 00       		.byte	0
 15881 020e 27       		.uleb128 0x27
 15882 020f 04       		.uleb128 0x4
 15883 0210 01       		.byte	0x1
 15884 0211 3E       		.uleb128 0x3e
 15885 0212 0B       		.uleb128 0xb
 15886 0213 0B       		.uleb128 0xb
 15887 0214 0B       		.uleb128 0xb
 15888 0215 49       		.uleb128 0x49
 15889 0216 13       		.uleb128 0x13
 15890 0217 3A       		.uleb128 0x3a
 15891 0218 0B       		.uleb128 0xb
ARM GAS  C:\Users\USER\AppData\Local\Temp\ccRejSya.s 			page 280


 15892 0219 3B       		.uleb128 0x3b
 15893 021a 0B       		.uleb128 0xb
 15894 021b 39       		.uleb128 0x39
 15895 021c 0B       		.uleb128 0xb
 15896 021d 01       		.uleb128 0x1
 15897 021e 13       		.uleb128 0x13
 15898 021f 00       		.byte	0
 15899 0220 00       		.byte	0
 15900 0221 28       		.uleb128 0x28
 15901 0222 28       		.uleb128 0x28
 15902 0223 00       		.byte	0
 15903 0224 03       		.uleb128 0x3
 15904 0225 0E       		.uleb128 0xe
 15905 0226 1C       		.uleb128 0x1c
 15906 0227 0B       		.uleb128 0xb
 15907 0228 00       		.byte	0
 15908 0229 00       		.byte	0
 15909 022a 29       		.uleb128 0x29
 15910 022b 04       		.uleb128 0x4
 15911 022c 01       		.byte	0x1
 15912 022d 3E       		.uleb128 0x3e
 15913 022e 0B       		.uleb128 0xb
 15914 022f 0B       		.uleb128 0xb
 15915 0230 0B       		.uleb128 0xb
 15916 0231 49       		.uleb128 0x49
 15917 0232 13       		.uleb128 0x13
 15918 0233 3A       		.uleb128 0x3a
 15919 0234 0B       		.uleb128 0xb
 15920 0235 3B       		.uleb128 0x3b
 15921 0236 05       		.uleb128 0x5
 15922 0237 39       		.uleb128 0x39
 15923 0238 0B       		.uleb128 0xb
 15924 0239 01       		.uleb128 0x1
 15925 023a 13       		.uleb128 0x13
 15926 023b 00       		.byte	0
 15927 023c 00       		.byte	0
 15928 023d 2A       		.uleb128 0x2a
 15929 023e 13       		.uleb128 0x13
 15930 023f 01       		.byte	0x1
 15931 0240 0B       		.uleb128 0xb
 15932 0241 06       		.uleb128 0x6
 15933 0242 3A       		.uleb128 0x3a
 15934 0243 0B       		.uleb128 0xb
 15935 0244 3B       		.uleb128 0x3b
 15936 0245 0B       		.uleb128 0xb
 15937 0246 39       		.uleb128 0x39
 15938 0247 0B       		.uleb128 0xb
 15939 0248 01       		.uleb128 0x1
 15940 0249 13       		.uleb128 0x13
 15941 024a 00       		.byte	0
 15942 024b 00       		.byte	0
 15943 024c 2B       		.uleb128 0x2b
 15944 024d 0D       		.uleb128 0xd
 15945 024e 00       		.byte	0
 15946 024f 03       		.uleb128 0x3
 15947 0250 08       		.uleb128 0x8
 15948 0251 3A       		.uleb128 0x3a
ARM GAS  C:\Users\USER\AppData\Local\Temp\ccRejSya.s 			page 281


 15949 0252 0B       		.uleb128 0xb
 15950 0253 3B       		.uleb128 0x3b
 15951 0254 0B       		.uleb128 0xb
 15952 0255 39       		.uleb128 0x39
 15953 0256 0B       		.uleb128 0xb
 15954 0257 49       		.uleb128 0x49
 15955 0258 13       		.uleb128 0x13
 15956 0259 38       		.uleb128 0x38
 15957 025a 05       		.uleb128 0x5
 15958 025b 00       		.byte	0
 15959 025c 00       		.byte	0
 15960 025d 2C       		.uleb128 0x2c
 15961 025e 21       		.uleb128 0x21
 15962 025f 00       		.byte	0
 15963 0260 49       		.uleb128 0x49
 15964 0261 13       		.uleb128 0x13
 15965 0262 2F       		.uleb128 0x2f
 15966 0263 05       		.uleb128 0x5
 15967 0264 00       		.byte	0
 15968 0265 00       		.byte	0
 15969 0266 2D       		.uleb128 0x2d
 15970 0267 34       		.uleb128 0x34
 15971 0268 00       		.byte	0
 15972 0269 47       		.uleb128 0x47
 15973 026a 13       		.uleb128 0x13
 15974 026b 3A       		.uleb128 0x3a
 15975 026c 0B       		.uleb128 0xb
 15976 026d 3B       		.uleb128 0x3b
 15977 026e 0B       		.uleb128 0xb
 15978 026f 39       		.uleb128 0x39
 15979 0270 0B       		.uleb128 0xb
 15980 0271 02       		.uleb128 0x2
 15981 0272 18       		.uleb128 0x18
 15982 0273 00       		.byte	0
 15983 0274 00       		.byte	0
 15984 0275 2E       		.uleb128 0x2e
 15985 0276 34       		.uleb128 0x34
 15986 0277 00       		.byte	0
 15987 0278 03       		.uleb128 0x3
 15988 0279 0E       		.uleb128 0xe
 15989 027a 3A       		.uleb128 0x3a
 15990 027b 0B       		.uleb128 0xb
 15991 027c 3B       		.uleb128 0x3b
 15992 027d 0B       		.uleb128 0xb
 15993 027e 39       		.uleb128 0x39
 15994 027f 0B       		.uleb128 0xb
 15995 0280 49       		.uleb128 0x49
 15996 0281 13       		.uleb128 0x13
 15997 0282 02       		.uleb128 0x2
 15998 0283 18       		.uleb128 0x18
 15999 0284 00       		.byte	0
 16000 0285 00       		.byte	0
 16001 0286 2F       		.uleb128 0x2f
 16002 0287 2E       		.uleb128 0x2e
 16003 0288 01       		.byte	0x1
 16004 0289 3F       		.uleb128 0x3f
 16005 028a 19       		.uleb128 0x19
ARM GAS  C:\Users\USER\AppData\Local\Temp\ccRejSya.s 			page 282


 16006 028b 03       		.uleb128 0x3
 16007 028c 0E       		.uleb128 0xe
 16008 028d 3A       		.uleb128 0x3a
 16009 028e 0B       		.uleb128 0xb
 16010 028f 3B       		.uleb128 0x3b
 16011 0290 05       		.uleb128 0x5
 16012 0291 39       		.uleb128 0x39
 16013 0292 0B       		.uleb128 0xb
 16014 0293 27       		.uleb128 0x27
 16015 0294 19       		.uleb128 0x19
 16016 0295 11       		.uleb128 0x11
 16017 0296 01       		.uleb128 0x1
 16018 0297 12       		.uleb128 0x12
 16019 0298 06       		.uleb128 0x6
 16020 0299 40       		.uleb128 0x40
 16021 029a 18       		.uleb128 0x18
 16022 029b 9742     		.uleb128 0x2117
 16023 029d 19       		.uleb128 0x19
 16024 029e 01       		.uleb128 0x1
 16025 029f 13       		.uleb128 0x13
 16026 02a0 00       		.byte	0
 16027 02a1 00       		.byte	0
 16028 02a2 30       		.uleb128 0x30
 16029 02a3 05       		.uleb128 0x5
 16030 02a4 00       		.byte	0
 16031 02a5 03       		.uleb128 0x3
 16032 02a6 08       		.uleb128 0x8
 16033 02a7 3A       		.uleb128 0x3a
 16034 02a8 0B       		.uleb128 0xb
 16035 02a9 3B       		.uleb128 0x3b
 16036 02aa 05       		.uleb128 0x5
 16037 02ab 39       		.uleb128 0x39
 16038 02ac 0B       		.uleb128 0xb
 16039 02ad 49       		.uleb128 0x49
 16040 02ae 13       		.uleb128 0x13
 16041 02af 02       		.uleb128 0x2
 16042 02b0 17       		.uleb128 0x17
 16043 02b1 B742     		.uleb128 0x2137
 16044 02b3 17       		.uleb128 0x17
 16045 02b4 00       		.byte	0
 16046 02b5 00       		.byte	0
 16047 02b6 31       		.uleb128 0x31
 16048 02b7 34       		.uleb128 0x34
 16049 02b8 00       		.byte	0
 16050 02b9 03       		.uleb128 0x3
 16051 02ba 0E       		.uleb128 0xe
 16052 02bb 3A       		.uleb128 0x3a
 16053 02bc 0B       		.uleb128 0xb
 16054 02bd 3B       		.uleb128 0x3b
 16055 02be 05       		.uleb128 0x5
 16056 02bf 39       		.uleb128 0x39
 16057 02c0 0B       		.uleb128 0xb
 16058 02c1 49       		.uleb128 0x49
 16059 02c2 13       		.uleb128 0x13
 16060 02c3 02       		.uleb128 0x2
 16061 02c4 17       		.uleb128 0x17
 16062 02c5 B742     		.uleb128 0x2137
ARM GAS  C:\Users\USER\AppData\Local\Temp\ccRejSya.s 			page 283


 16063 02c7 17       		.uleb128 0x17
 16064 02c8 00       		.byte	0
 16065 02c9 00       		.byte	0
 16066 02ca 32       		.uleb128 0x32
 16067 02cb 0B       		.uleb128 0xb
 16068 02cc 01       		.byte	0x1
 16069 02cd 55       		.uleb128 0x55
 16070 02ce 17       		.uleb128 0x17
 16071 02cf 01       		.uleb128 0x1
 16072 02d0 13       		.uleb128 0x13
 16073 02d1 00       		.byte	0
 16074 02d2 00       		.byte	0
 16075 02d3 33       		.uleb128 0x33
 16076 02d4 34       		.uleb128 0x34
 16077 02d5 00       		.byte	0
 16078 02d6 03       		.uleb128 0x3
 16079 02d7 08       		.uleb128 0x8
 16080 02d8 3A       		.uleb128 0x3a
 16081 02d9 0B       		.uleb128 0xb
 16082 02da 3B       		.uleb128 0x3b
 16083 02db 05       		.uleb128 0x5
 16084 02dc 39       		.uleb128 0x39
 16085 02dd 0B       		.uleb128 0xb
 16086 02de 49       		.uleb128 0x49
 16087 02df 13       		.uleb128 0x13
 16088 02e0 02       		.uleb128 0x2
 16089 02e1 17       		.uleb128 0x17
 16090 02e2 B742     		.uleb128 0x2137
 16091 02e4 17       		.uleb128 0x17
 16092 02e5 00       		.byte	0
 16093 02e6 00       		.byte	0
 16094 02e7 34       		.uleb128 0x34
 16095 02e8 1D       		.uleb128 0x1d
 16096 02e9 01       		.byte	0x1
 16097 02ea 31       		.uleb128 0x31
 16098 02eb 13       		.uleb128 0x13
 16099 02ec 52       		.uleb128 0x52
 16100 02ed 01       		.uleb128 0x1
 16101 02ee B842     		.uleb128 0x2138
 16102 02f0 05       		.uleb128 0x5
 16103 02f1 55       		.uleb128 0x55
 16104 02f2 17       		.uleb128 0x17
 16105 02f3 58       		.uleb128 0x58
 16106 02f4 0B       		.uleb128 0xb
 16107 02f5 59       		.uleb128 0x59
 16108 02f6 05       		.uleb128 0x5
 16109 02f7 57       		.uleb128 0x57
 16110 02f8 0B       		.uleb128 0xb
 16111 02f9 01       		.uleb128 0x1
 16112 02fa 13       		.uleb128 0x13
 16113 02fb 00       		.byte	0
 16114 02fc 00       		.byte	0
 16115 02fd 35       		.uleb128 0x35
 16116 02fe 1D       		.uleb128 0x1d
 16117 02ff 01       		.byte	0x1
 16118 0300 31       		.uleb128 0x31
 16119 0301 13       		.uleb128 0x13
ARM GAS  C:\Users\USER\AppData\Local\Temp\ccRejSya.s 			page 284


 16120 0302 52       		.uleb128 0x52
 16121 0303 01       		.uleb128 0x1
 16122 0304 B842     		.uleb128 0x2138
 16123 0306 05       		.uleb128 0x5
 16124 0307 55       		.uleb128 0x55
 16125 0308 17       		.uleb128 0x17
 16126 0309 58       		.uleb128 0x58
 16127 030a 0B       		.uleb128 0xb
 16128 030b 59       		.uleb128 0x59
 16129 030c 05       		.uleb128 0x5
 16130 030d 57       		.uleb128 0x57
 16131 030e 0B       		.uleb128 0xb
 16132 030f 00       		.byte	0
 16133 0310 00       		.byte	0
 16134 0311 36       		.uleb128 0x36
 16135 0312 1D       		.uleb128 0x1d
 16136 0313 01       		.byte	0x1
 16137 0314 31       		.uleb128 0x31
 16138 0315 13       		.uleb128 0x13
 16139 0316 52       		.uleb128 0x52
 16140 0317 01       		.uleb128 0x1
 16141 0318 B842     		.uleb128 0x2138
 16142 031a 05       		.uleb128 0x5
 16143 031b 11       		.uleb128 0x11
 16144 031c 01       		.uleb128 0x1
 16145 031d 12       		.uleb128 0x12
 16146 031e 06       		.uleb128 0x6
 16147 031f 58       		.uleb128 0x58
 16148 0320 0B       		.uleb128 0xb
 16149 0321 59       		.uleb128 0x59
 16150 0322 05       		.uleb128 0x5
 16151 0323 57       		.uleb128 0x57
 16152 0324 0B       		.uleb128 0xb
 16153 0325 00       		.byte	0
 16154 0326 00       		.byte	0
 16155 0327 37       		.uleb128 0x37
 16156 0328 05       		.uleb128 0x5
 16157 0329 00       		.byte	0
 16158 032a 31       		.uleb128 0x31
 16159 032b 13       		.uleb128 0x13
 16160 032c 02       		.uleb128 0x2
 16161 032d 17       		.uleb128 0x17
 16162 032e B742     		.uleb128 0x2137
 16163 0330 17       		.uleb128 0x17
 16164 0331 00       		.byte	0
 16165 0332 00       		.byte	0
 16166 0333 38       		.uleb128 0x38
 16167 0334 0B       		.uleb128 0xb
 16168 0335 01       		.byte	0x1
 16169 0336 55       		.uleb128 0x55
 16170 0337 17       		.uleb128 0x17
 16171 0338 00       		.byte	0
 16172 0339 00       		.byte	0
 16173 033a 39       		.uleb128 0x39
 16174 033b 05       		.uleb128 0x5
 16175 033c 00       		.byte	0
 16176 033d 31       		.uleb128 0x31
ARM GAS  C:\Users\USER\AppData\Local\Temp\ccRejSya.s 			page 285


 16177 033e 13       		.uleb128 0x13
 16178 033f 00       		.byte	0
 16179 0340 00       		.byte	0
 16180 0341 3A       		.uleb128 0x3a
 16181 0342 0B       		.uleb128 0xb
 16182 0343 01       		.byte	0x1
 16183 0344 31       		.uleb128 0x31
 16184 0345 13       		.uleb128 0x13
 16185 0346 55       		.uleb128 0x55
 16186 0347 17       		.uleb128 0x17
 16187 0348 00       		.byte	0
 16188 0349 00       		.byte	0
 16189 034a 3B       		.uleb128 0x3b
 16190 034b 34       		.uleb128 0x34
 16191 034c 00       		.byte	0
 16192 034d 31       		.uleb128 0x31
 16193 034e 13       		.uleb128 0x13
 16194 034f 02       		.uleb128 0x2
 16195 0350 17       		.uleb128 0x17
 16196 0351 B742     		.uleb128 0x2137
 16197 0353 17       		.uleb128 0x17
 16198 0354 00       		.byte	0
 16199 0355 00       		.byte	0
 16200 0356 3C       		.uleb128 0x3c
 16201 0357 0B       		.uleb128 0xb
 16202 0358 01       		.byte	0x1
 16203 0359 31       		.uleb128 0x31
 16204 035a 13       		.uleb128 0x13
 16205 035b 55       		.uleb128 0x55
 16206 035c 17       		.uleb128 0x17
 16207 035d 01       		.uleb128 0x1
 16208 035e 13       		.uleb128 0x13
 16209 035f 00       		.byte	0
 16210 0360 00       		.byte	0
 16211 0361 3D       		.uleb128 0x3d
 16212 0362 34       		.uleb128 0x34
 16213 0363 00       		.byte	0
 16214 0364 31       		.uleb128 0x31
 16215 0365 13       		.uleb128 0x13
 16216 0366 00       		.byte	0
 16217 0367 00       		.byte	0
 16218 0368 3E       		.uleb128 0x3e
 16219 0369 1D       		.uleb128 0x1d
 16220 036a 01       		.byte	0x1
 16221 036b 31       		.uleb128 0x31
 16222 036c 13       		.uleb128 0x13
 16223 036d 52       		.uleb128 0x52
 16224 036e 01       		.uleb128 0x1
 16225 036f B842     		.uleb128 0x2138
 16226 0371 05       		.uleb128 0x5
 16227 0372 11       		.uleb128 0x11
 16228 0373 01       		.uleb128 0x1
 16229 0374 12       		.uleb128 0x12
 16230 0375 06       		.uleb128 0x6
 16231 0376 58       		.uleb128 0x58
 16232 0377 0B       		.uleb128 0xb
 16233 0378 59       		.uleb128 0x59
ARM GAS  C:\Users\USER\AppData\Local\Temp\ccRejSya.s 			page 286


 16234 0379 05       		.uleb128 0x5
 16235 037a 57       		.uleb128 0x57
 16236 037b 0B       		.uleb128 0xb
 16237 037c 01       		.uleb128 0x1
 16238 037d 13       		.uleb128 0x13
 16239 037e 00       		.byte	0
 16240 037f 00       		.byte	0
 16241 0380 3F       		.uleb128 0x3f
 16242 0381 898201   		.uleb128 0x4109
 16243 0384 01       		.byte	0x1
 16244 0385 11       		.uleb128 0x11
 16245 0386 01       		.uleb128 0x1
 16246 0387 31       		.uleb128 0x31
 16247 0388 13       		.uleb128 0x13
 16248 0389 00       		.byte	0
 16249 038a 00       		.byte	0
 16250 038b 40       		.uleb128 0x40
 16251 038c 8A8201   		.uleb128 0x410a
 16252 038f 00       		.byte	0
 16253 0390 02       		.uleb128 0x2
 16254 0391 18       		.uleb128 0x18
 16255 0392 9142     		.uleb128 0x2111
 16256 0394 18       		.uleb128 0x18
 16257 0395 00       		.byte	0
 16258 0396 00       		.byte	0
 16259 0397 41       		.uleb128 0x41
 16260 0398 898201   		.uleb128 0x4109
 16261 039b 00       		.byte	0
 16262 039c 11       		.uleb128 0x11
 16263 039d 01       		.uleb128 0x1
 16264 039e 31       		.uleb128 0x31
 16265 039f 13       		.uleb128 0x13
 16266 03a0 00       		.byte	0
 16267 03a1 00       		.byte	0
 16268 03a2 42       		.uleb128 0x42
 16269 03a3 05       		.uleb128 0x5
 16270 03a4 00       		.byte	0
 16271 03a5 03       		.uleb128 0x3
 16272 03a6 0E       		.uleb128 0xe
 16273 03a7 3A       		.uleb128 0x3a
 16274 03a8 0B       		.uleb128 0xb
 16275 03a9 3B       		.uleb128 0x3b
 16276 03aa 05       		.uleb128 0x5
 16277 03ab 39       		.uleb128 0x39
 16278 03ac 0B       		.uleb128 0xb
 16279 03ad 49       		.uleb128 0x49
 16280 03ae 13       		.uleb128 0x13
 16281 03af 02       		.uleb128 0x2
 16282 03b0 18       		.uleb128 0x18
 16283 03b1 00       		.byte	0
 16284 03b2 00       		.byte	0
 16285 03b3 43       		.uleb128 0x43
 16286 03b4 2E       		.uleb128 0x2e
 16287 03b5 01       		.byte	0x1
 16288 03b6 3F       		.uleb128 0x3f
 16289 03b7 19       		.uleb128 0x19
 16290 03b8 03       		.uleb128 0x3
ARM GAS  C:\Users\USER\AppData\Local\Temp\ccRejSya.s 			page 287


 16291 03b9 0E       		.uleb128 0xe
 16292 03ba 3A       		.uleb128 0x3a
 16293 03bb 0B       		.uleb128 0xb
 16294 03bc 3B       		.uleb128 0x3b
 16295 03bd 05       		.uleb128 0x5
 16296 03be 39       		.uleb128 0x39
 16297 03bf 0B       		.uleb128 0xb
 16298 03c0 27       		.uleb128 0x27
 16299 03c1 19       		.uleb128 0x19
 16300 03c2 20       		.uleb128 0x20
 16301 03c3 0B       		.uleb128 0xb
 16302 03c4 01       		.uleb128 0x1
 16303 03c5 13       		.uleb128 0x13
 16304 03c6 00       		.byte	0
 16305 03c7 00       		.byte	0
 16306 03c8 44       		.uleb128 0x44
 16307 03c9 05       		.uleb128 0x5
 16308 03ca 00       		.byte	0
 16309 03cb 03       		.uleb128 0x3
 16310 03cc 0E       		.uleb128 0xe
 16311 03cd 3A       		.uleb128 0x3a
 16312 03ce 0B       		.uleb128 0xb
 16313 03cf 3B       		.uleb128 0x3b
 16314 03d0 05       		.uleb128 0x5
 16315 03d1 39       		.uleb128 0x39
 16316 03d2 0B       		.uleb128 0xb
 16317 03d3 49       		.uleb128 0x49
 16318 03d4 13       		.uleb128 0x13
 16319 03d5 00       		.byte	0
 16320 03d6 00       		.byte	0
 16321 03d7 45       		.uleb128 0x45
 16322 03d8 05       		.uleb128 0x5
 16323 03d9 00       		.byte	0
 16324 03da 03       		.uleb128 0x3
 16325 03db 08       		.uleb128 0x8
 16326 03dc 3A       		.uleb128 0x3a
 16327 03dd 0B       		.uleb128 0xb
 16328 03de 3B       		.uleb128 0x3b
 16329 03df 05       		.uleb128 0x5
 16330 03e0 39       		.uleb128 0x39
 16331 03e1 0B       		.uleb128 0xb
 16332 03e2 49       		.uleb128 0x49
 16333 03e3 13       		.uleb128 0x13
 16334 03e4 00       		.byte	0
 16335 03e5 00       		.byte	0
 16336 03e6 46       		.uleb128 0x46
 16337 03e7 05       		.uleb128 0x5
 16338 03e8 00       		.byte	0
 16339 03e9 03       		.uleb128 0x3
 16340 03ea 0E       		.uleb128 0xe
 16341 03eb 3A       		.uleb128 0x3a
 16342 03ec 0B       		.uleb128 0xb
 16343 03ed 3B       		.uleb128 0x3b
 16344 03ee 05       		.uleb128 0x5
 16345 03ef 39       		.uleb128 0x39
 16346 03f0 0B       		.uleb128 0xb
 16347 03f1 49       		.uleb128 0x49
ARM GAS  C:\Users\USER\AppData\Local\Temp\ccRejSya.s 			page 288


 16348 03f2 13       		.uleb128 0x13
 16349 03f3 02       		.uleb128 0x2
 16350 03f4 17       		.uleb128 0x17
 16351 03f5 B742     		.uleb128 0x2137
 16352 03f7 17       		.uleb128 0x17
 16353 03f8 00       		.byte	0
 16354 03f9 00       		.byte	0
 16355 03fa 47       		.uleb128 0x47
 16356 03fb 05       		.uleb128 0x5
 16357 03fc 00       		.byte	0
 16358 03fd 03       		.uleb128 0x3
 16359 03fe 08       		.uleb128 0x8
 16360 03ff 3A       		.uleb128 0x3a
 16361 0400 0B       		.uleb128 0xb
 16362 0401 3B       		.uleb128 0x3b
 16363 0402 05       		.uleb128 0x5
 16364 0403 39       		.uleb128 0x39
 16365 0404 0B       		.uleb128 0xb
 16366 0405 49       		.uleb128 0x49
 16367 0406 13       		.uleb128 0x13
 16368 0407 02       		.uleb128 0x2
 16369 0408 18       		.uleb128 0x18
 16370 0409 00       		.byte	0
 16371 040a 00       		.byte	0
 16372 040b 48       		.uleb128 0x48
 16373 040c 2E       		.uleb128 0x2e
 16374 040d 01       		.byte	0x1
 16375 040e 3F       		.uleb128 0x3f
 16376 040f 19       		.uleb128 0x19
 16377 0410 03       		.uleb128 0x3
 16378 0411 0E       		.uleb128 0xe
 16379 0412 3A       		.uleb128 0x3a
 16380 0413 0B       		.uleb128 0xb
 16381 0414 3B       		.uleb128 0x3b
 16382 0415 05       		.uleb128 0x5
 16383 0416 39       		.uleb128 0x39
 16384 0417 0B       		.uleb128 0xb
 16385 0418 27       		.uleb128 0x27
 16386 0419 19       		.uleb128 0x19
 16387 041a 49       		.uleb128 0x49
 16388 041b 13       		.uleb128 0x13
 16389 041c 11       		.uleb128 0x11
 16390 041d 01       		.uleb128 0x1
 16391 041e 12       		.uleb128 0x12
 16392 041f 06       		.uleb128 0x6
 16393 0420 40       		.uleb128 0x40
 16394 0421 18       		.uleb128 0x18
 16395 0422 9742     		.uleb128 0x2117
 16396 0424 19       		.uleb128 0x19
 16397 0425 01       		.uleb128 0x1
 16398 0426 13       		.uleb128 0x13
 16399 0427 00       		.byte	0
 16400 0428 00       		.byte	0
 16401 0429 49       		.uleb128 0x49
 16402 042a 1D       		.uleb128 0x1d
 16403 042b 01       		.byte	0x1
 16404 042c 31       		.uleb128 0x31
ARM GAS  C:\Users\USER\AppData\Local\Temp\ccRejSya.s 			page 289


 16405 042d 13       		.uleb128 0x13
 16406 042e 11       		.uleb128 0x11
 16407 042f 01       		.uleb128 0x1
 16408 0430 12       		.uleb128 0x12
 16409 0431 06       		.uleb128 0x6
 16410 0432 58       		.uleb128 0x58
 16411 0433 0B       		.uleb128 0xb
 16412 0434 59       		.uleb128 0x59
 16413 0435 05       		.uleb128 0x5
 16414 0436 57       		.uleb128 0x57
 16415 0437 0B       		.uleb128 0xb
 16416 0438 01       		.uleb128 0x1
 16417 0439 13       		.uleb128 0x13
 16418 043a 00       		.byte	0
 16419 043b 00       		.byte	0
 16420 043c 4A       		.uleb128 0x4a
 16421 043d 898201   		.uleb128 0x4109
 16422 0440 01       		.byte	0x1
 16423 0441 11       		.uleb128 0x11
 16424 0442 01       		.uleb128 0x1
 16425 0443 9542     		.uleb128 0x2115
 16426 0445 19       		.uleb128 0x19
 16427 0446 31       		.uleb128 0x31
 16428 0447 13       		.uleb128 0x13
 16429 0448 00       		.byte	0
 16430 0449 00       		.byte	0
 16431 044a 4B       		.uleb128 0x4b
 16432 044b 8A8201   		.uleb128 0x410a
 16433 044e 00       		.byte	0
 16434 044f 31       		.uleb128 0x31
 16435 0450 13       		.uleb128 0x13
 16436 0451 9142     		.uleb128 0x2111
 16437 0453 18       		.uleb128 0x18
 16438 0454 00       		.byte	0
 16439 0455 00       		.byte	0
 16440 0456 4C       		.uleb128 0x4c
 16441 0457 0B       		.uleb128 0xb
 16442 0458 01       		.byte	0x1
 16443 0459 11       		.uleb128 0x11
 16444 045a 01       		.uleb128 0x1
 16445 045b 12       		.uleb128 0x12
 16446 045c 06       		.uleb128 0x6
 16447 045d 00       		.byte	0
 16448 045e 00       		.byte	0
 16449 045f 4D       		.uleb128 0x4d
 16450 0460 1D       		.uleb128 0x1d
 16451 0461 01       		.byte	0x1
 16452 0462 31       		.uleb128 0x31
 16453 0463 13       		.uleb128 0x13
 16454 0464 52       		.uleb128 0x52
 16455 0465 01       		.uleb128 0x1
 16456 0466 B842     		.uleb128 0x2138
 16457 0468 05       		.uleb128 0x5
 16458 0469 11       		.uleb128 0x11
 16459 046a 01       		.uleb128 0x1
 16460 046b 12       		.uleb128 0x12
 16461 046c 06       		.uleb128 0x6
ARM GAS  C:\Users\USER\AppData\Local\Temp\ccRejSya.s 			page 290


 16462 046d 58       		.uleb128 0x58
 16463 046e 0B       		.uleb128 0xb
 16464 046f 59       		.uleb128 0x59
 16465 0470 0B       		.uleb128 0xb
 16466 0471 57       		.uleb128 0x57
 16467 0472 0B       		.uleb128 0xb
 16468 0473 00       		.byte	0
 16469 0474 00       		.byte	0
 16470 0475 4E       		.uleb128 0x4e
 16471 0476 898201   		.uleb128 0x4109
 16472 0479 01       		.byte	0x1
 16473 047a 11       		.uleb128 0x11
 16474 047b 01       		.uleb128 0x1
 16475 047c 31       		.uleb128 0x31
 16476 047d 13       		.uleb128 0x13
 16477 047e 01       		.uleb128 0x1
 16478 047f 13       		.uleb128 0x13
 16479 0480 00       		.byte	0
 16480 0481 00       		.byte	0
 16481 0482 4F       		.uleb128 0x4f
 16482 0483 1D       		.uleb128 0x1d
 16483 0484 01       		.byte	0x1
 16484 0485 31       		.uleb128 0x31
 16485 0486 13       		.uleb128 0x13
 16486 0487 52       		.uleb128 0x52
 16487 0488 01       		.uleb128 0x1
 16488 0489 B842     		.uleb128 0x2138
 16489 048b 05       		.uleb128 0x5
 16490 048c 55       		.uleb128 0x55
 16491 048d 17       		.uleb128 0x17
 16492 048e 58       		.uleb128 0x58
 16493 048f 0B       		.uleb128 0xb
 16494 0490 59       		.uleb128 0x59
 16495 0491 0B       		.uleb128 0xb
 16496 0492 57       		.uleb128 0x57
 16497 0493 0B       		.uleb128 0xb
 16498 0494 01       		.uleb128 0x1
 16499 0495 13       		.uleb128 0x13
 16500 0496 00       		.byte	0
 16501 0497 00       		.byte	0
 16502 0498 50       		.uleb128 0x50
 16503 0499 898201   		.uleb128 0x4109
 16504 049c 01       		.byte	0x1
 16505 049d 11       		.uleb128 0x11
 16506 049e 01       		.uleb128 0x1
 16507 049f 01       		.uleb128 0x1
 16508 04a0 13       		.uleb128 0x13
 16509 04a1 00       		.byte	0
 16510 04a2 00       		.byte	0
 16511 04a3 51       		.uleb128 0x51
 16512 04a4 898201   		.uleb128 0x4109
 16513 04a7 00       		.byte	0
 16514 04a8 11       		.uleb128 0x11
 16515 04a9 01       		.uleb128 0x1
 16516 04aa 9542     		.uleb128 0x2115
 16517 04ac 19       		.uleb128 0x19
 16518 04ad 31       		.uleb128 0x31
ARM GAS  C:\Users\USER\AppData\Local\Temp\ccRejSya.s 			page 291


 16519 04ae 13       		.uleb128 0x13
 16520 04af 00       		.byte	0
 16521 04b0 00       		.byte	0
 16522 04b1 52       		.uleb128 0x52
 16523 04b2 2E       		.uleb128 0x2e
 16524 04b3 01       		.byte	0x1
 16525 04b4 03       		.uleb128 0x3
 16526 04b5 0E       		.uleb128 0xe
 16527 04b6 3A       		.uleb128 0x3a
 16528 04b7 0B       		.uleb128 0xb
 16529 04b8 3B       		.uleb128 0x3b
 16530 04b9 05       		.uleb128 0x5
 16531 04ba 39       		.uleb128 0x39
 16532 04bb 0B       		.uleb128 0xb
 16533 04bc 27       		.uleb128 0x27
 16534 04bd 19       		.uleb128 0x19
 16535 04be 20       		.uleb128 0x20
 16536 04bf 0B       		.uleb128 0xb
 16537 04c0 01       		.uleb128 0x1
 16538 04c1 13       		.uleb128 0x13
 16539 04c2 00       		.byte	0
 16540 04c3 00       		.byte	0
 16541 04c4 53       		.uleb128 0x53
 16542 04c5 34       		.uleb128 0x34
 16543 04c6 00       		.byte	0
 16544 04c7 03       		.uleb128 0x3
 16545 04c8 0E       		.uleb128 0xe
 16546 04c9 3A       		.uleb128 0x3a
 16547 04ca 0B       		.uleb128 0xb
 16548 04cb 3B       		.uleb128 0x3b
 16549 04cc 05       		.uleb128 0x5
 16550 04cd 39       		.uleb128 0x39
 16551 04ce 0B       		.uleb128 0xb
 16552 04cf 49       		.uleb128 0x49
 16553 04d0 13       		.uleb128 0x13
 16554 04d1 00       		.byte	0
 16555 04d2 00       		.byte	0
 16556 04d3 54       		.uleb128 0x54
 16557 04d4 34       		.uleb128 0x34
 16558 04d5 00       		.byte	0
 16559 04d6 03       		.uleb128 0x3
 16560 04d7 08       		.uleb128 0x8
 16561 04d8 3A       		.uleb128 0x3a
 16562 04d9 0B       		.uleb128 0xb
 16563 04da 3B       		.uleb128 0x3b
 16564 04db 05       		.uleb128 0x5
 16565 04dc 39       		.uleb128 0x39
 16566 04dd 0B       		.uleb128 0xb
 16567 04de 49       		.uleb128 0x49
 16568 04df 13       		.uleb128 0x13
 16569 04e0 00       		.byte	0
 16570 04e1 00       		.byte	0
 16571 04e2 55       		.uleb128 0x55
 16572 04e3 0B       		.uleb128 0xb
 16573 04e4 01       		.byte	0x1
 16574 04e5 00       		.byte	0
 16575 04e6 00       		.byte	0
ARM GAS  C:\Users\USER\AppData\Local\Temp\ccRejSya.s 			page 292


 16576 04e7 56       		.uleb128 0x56
 16577 04e8 2E       		.uleb128 0x2e
 16578 04e9 01       		.byte	0x1
 16579 04ea 03       		.uleb128 0x3
 16580 04eb 0E       		.uleb128 0xe
 16581 04ec 3A       		.uleb128 0x3a
 16582 04ed 0B       		.uleb128 0xb
 16583 04ee 3B       		.uleb128 0x3b
 16584 04ef 05       		.uleb128 0x5
 16585 04f0 39       		.uleb128 0x39
 16586 04f1 0B       		.uleb128 0xb
 16587 04f2 27       		.uleb128 0x27
 16588 04f3 19       		.uleb128 0x19
 16589 04f4 49       		.uleb128 0x49
 16590 04f5 13       		.uleb128 0x13
 16591 04f6 20       		.uleb128 0x20
 16592 04f7 0B       		.uleb128 0xb
 16593 04f8 01       		.uleb128 0x1
 16594 04f9 13       		.uleb128 0x13
 16595 04fa 00       		.byte	0
 16596 04fb 00       		.byte	0
 16597 04fc 57       		.uleb128 0x57
 16598 04fd 2E       		.uleb128 0x2e
 16599 04fe 01       		.byte	0x1
 16600 04ff 03       		.uleb128 0x3
 16601 0500 0E       		.uleb128 0xe
 16602 0501 3A       		.uleb128 0x3a
 16603 0502 0B       		.uleb128 0xb
 16604 0503 3B       		.uleb128 0x3b
 16605 0504 0B       		.uleb128 0xb
 16606 0505 39       		.uleb128 0x39
 16607 0506 0B       		.uleb128 0xb
 16608 0507 27       		.uleb128 0x27
 16609 0508 19       		.uleb128 0x19
 16610 0509 20       		.uleb128 0x20
 16611 050a 0B       		.uleb128 0xb
 16612 050b 01       		.uleb128 0x1
 16613 050c 13       		.uleb128 0x13
 16614 050d 00       		.byte	0
 16615 050e 00       		.byte	0
 16616 050f 58       		.uleb128 0x58
 16617 0510 05       		.uleb128 0x5
 16618 0511 00       		.byte	0
 16619 0512 03       		.uleb128 0x3
 16620 0513 0E       		.uleb128 0xe
 16621 0514 3A       		.uleb128 0x3a
 16622 0515 0B       		.uleb128 0xb
 16623 0516 3B       		.uleb128 0x3b
 16624 0517 0B       		.uleb128 0xb
 16625 0518 39       		.uleb128 0x39
 16626 0519 0B       		.uleb128 0xb
 16627 051a 49       		.uleb128 0x49
 16628 051b 13       		.uleb128 0x13
 16629 051c 00       		.byte	0
 16630 051d 00       		.byte	0
 16631 051e 59       		.uleb128 0x59
 16632 051f 05       		.uleb128 0x5
ARM GAS  C:\Users\USER\AppData\Local\Temp\ccRejSya.s 			page 293


 16633 0520 00       		.byte	0
 16634 0521 03       		.uleb128 0x3
 16635 0522 08       		.uleb128 0x8
 16636 0523 3A       		.uleb128 0x3a
 16637 0524 0B       		.uleb128 0xb
 16638 0525 3B       		.uleb128 0x3b
 16639 0526 0B       		.uleb128 0xb
 16640 0527 39       		.uleb128 0x39
 16641 0528 0B       		.uleb128 0xb
 16642 0529 49       		.uleb128 0x49
 16643 052a 13       		.uleb128 0x13
 16644 052b 00       		.byte	0
 16645 052c 00       		.byte	0
 16646 052d 5A       		.uleb128 0x5a
 16647 052e 2E       		.uleb128 0x2e
 16648 052f 01       		.byte	0x1
 16649 0530 03       		.uleb128 0x3
 16650 0531 0E       		.uleb128 0xe
 16651 0532 3A       		.uleb128 0x3a
 16652 0533 0B       		.uleb128 0xb
 16653 0534 3B       		.uleb128 0x3b
 16654 0535 0B       		.uleb128 0xb
 16655 0536 39       		.uleb128 0x39
 16656 0537 0B       		.uleb128 0xb
 16657 0538 27       		.uleb128 0x27
 16658 0539 19       		.uleb128 0x19
 16659 053a 49       		.uleb128 0x49
 16660 053b 13       		.uleb128 0x13
 16661 053c 20       		.uleb128 0x20
 16662 053d 0B       		.uleb128 0xb
 16663 053e 01       		.uleb128 0x1
 16664 053f 13       		.uleb128 0x13
 16665 0540 00       		.byte	0
 16666 0541 00       		.byte	0
 16667 0542 5B       		.uleb128 0x5b
 16668 0543 34       		.uleb128 0x34
 16669 0544 00       		.byte	0
 16670 0545 03       		.uleb128 0x3
 16671 0546 0E       		.uleb128 0xe
 16672 0547 3A       		.uleb128 0x3a
 16673 0548 0B       		.uleb128 0xb
 16674 0549 3B       		.uleb128 0x3b
 16675 054a 0B       		.uleb128 0xb
 16676 054b 39       		.uleb128 0x39
 16677 054c 0B       		.uleb128 0xb
 16678 054d 49       		.uleb128 0x49
 16679 054e 13       		.uleb128 0x13
 16680 054f 00       		.byte	0
 16681 0550 00       		.byte	0
 16682 0551 5C       		.uleb128 0x5c
 16683 0552 34       		.uleb128 0x34
 16684 0553 00       		.byte	0
 16685 0554 03       		.uleb128 0x3
 16686 0555 0E       		.uleb128 0xe
 16687 0556 49       		.uleb128 0x49
 16688 0557 13       		.uleb128 0x13
 16689 0558 34       		.uleb128 0x34
ARM GAS  C:\Users\USER\AppData\Local\Temp\ccRejSya.s 			page 294


 16690 0559 19       		.uleb128 0x19
 16691 055a 00       		.byte	0
 16692 055b 00       		.byte	0
 16693 055c 5D       		.uleb128 0x5d
 16694 055d 34       		.uleb128 0x34
 16695 055e 00       		.byte	0
 16696 055f 03       		.uleb128 0x3
 16697 0560 08       		.uleb128 0x8
 16698 0561 3A       		.uleb128 0x3a
 16699 0562 0B       		.uleb128 0xb
 16700 0563 3B       		.uleb128 0x3b
 16701 0564 0B       		.uleb128 0xb
 16702 0565 39       		.uleb128 0x39
 16703 0566 0B       		.uleb128 0xb
 16704 0567 49       		.uleb128 0x49
 16705 0568 13       		.uleb128 0x13
 16706 0569 00       		.byte	0
 16707 056a 00       		.byte	0
 16708 056b 5E       		.uleb128 0x5e
 16709 056c 2E       		.uleb128 0x2e
 16710 056d 00       		.byte	0
 16711 056e 03       		.uleb128 0x3
 16712 056f 0E       		.uleb128 0xe
 16713 0570 3A       		.uleb128 0x3a
 16714 0571 0B       		.uleb128 0xb
 16715 0572 3B       		.uleb128 0x3b
 16716 0573 05       		.uleb128 0x5
 16717 0574 39       		.uleb128 0x39
 16718 0575 0B       		.uleb128 0xb
 16719 0576 27       		.uleb128 0x27
 16720 0577 19       		.uleb128 0x19
 16721 0578 20       		.uleb128 0x20
 16722 0579 0B       		.uleb128 0xb
 16723 057a 00       		.byte	0
 16724 057b 00       		.byte	0
 16725 057c 5F       		.uleb128 0x5f
 16726 057d 2E       		.uleb128 0x2e
 16727 057e 01       		.byte	0x1
 16728 057f 31       		.uleb128 0x31
 16729 0580 13       		.uleb128 0x13
 16730 0581 11       		.uleb128 0x11
 16731 0582 01       		.uleb128 0x1
 16732 0583 12       		.uleb128 0x12
 16733 0584 06       		.uleb128 0x6
 16734 0585 40       		.uleb128 0x40
 16735 0586 18       		.uleb128 0x18
 16736 0587 9742     		.uleb128 0x2117
 16737 0589 19       		.uleb128 0x19
 16738 058a 01       		.uleb128 0x1
 16739 058b 13       		.uleb128 0x13
 16740 058c 00       		.byte	0
 16741 058d 00       		.byte	0
 16742 058e 60       		.uleb128 0x60
 16743 058f 05       		.uleb128 0x5
 16744 0590 00       		.byte	0
 16745 0591 31       		.uleb128 0x31
 16746 0592 13       		.uleb128 0x13
ARM GAS  C:\Users\USER\AppData\Local\Temp\ccRejSya.s 			page 295


 16747 0593 02       		.uleb128 0x2
 16748 0594 18       		.uleb128 0x18
 16749 0595 00       		.byte	0
 16750 0596 00       		.byte	0
 16751 0597 61       		.uleb128 0x61
 16752 0598 898201   		.uleb128 0x4109
 16753 059b 01       		.byte	0x1
 16754 059c 11       		.uleb128 0x11
 16755 059d 01       		.uleb128 0x1
 16756 059e 9542     		.uleb128 0x2115
 16757 05a0 19       		.uleb128 0x19
 16758 05a1 01       		.uleb128 0x1
 16759 05a2 13       		.uleb128 0x13
 16760 05a3 00       		.byte	0
 16761 05a4 00       		.byte	0
 16762 05a5 62       		.uleb128 0x62
 16763 05a6 898201   		.uleb128 0x4109
 16764 05a9 01       		.byte	0x1
 16765 05aa 11       		.uleb128 0x11
 16766 05ab 01       		.uleb128 0x1
 16767 05ac 00       		.byte	0
 16768 05ad 00       		.byte	0
 16769 05ae 63       		.uleb128 0x63
 16770 05af 898201   		.uleb128 0x4109
 16771 05b2 01       		.byte	0x1
 16772 05b3 11       		.uleb128 0x11
 16773 05b4 01       		.uleb128 0x1
 16774 05b5 9342     		.uleb128 0x2113
 16775 05b7 18       		.uleb128 0x18
 16776 05b8 01       		.uleb128 0x1
 16777 05b9 13       		.uleb128 0x13
 16778 05ba 00       		.byte	0
 16779 05bb 00       		.byte	0
 16780 05bc 64       		.uleb128 0x64
 16781 05bd 2E       		.uleb128 0x2e
 16782 05be 00       		.byte	0
 16783 05bf 3F       		.uleb128 0x3f
 16784 05c0 19       		.uleb128 0x19
 16785 05c1 3C       		.uleb128 0x3c
 16786 05c2 19       		.uleb128 0x19
 16787 05c3 6E       		.uleb128 0x6e
 16788 05c4 0E       		.uleb128 0xe
 16789 05c5 03       		.uleb128 0x3
 16790 05c6 0E       		.uleb128 0xe
 16791 05c7 3A       		.uleb128 0x3a
 16792 05c8 0B       		.uleb128 0xb
 16793 05c9 3B       		.uleb128 0x3b
 16794 05ca 0B       		.uleb128 0xb
 16795 05cb 39       		.uleb128 0x39
 16796 05cc 0B       		.uleb128 0xb
 16797 05cd 00       		.byte	0
 16798 05ce 00       		.byte	0
 16799 05cf 65       		.uleb128 0x65
 16800 05d0 2E       		.uleb128 0x2e
 16801 05d1 00       		.byte	0
 16802 05d2 3F       		.uleb128 0x3f
 16803 05d3 19       		.uleb128 0x19
ARM GAS  C:\Users\USER\AppData\Local\Temp\ccRejSya.s 			page 296


 16804 05d4 3C       		.uleb128 0x3c
 16805 05d5 19       		.uleb128 0x19
 16806 05d6 6E       		.uleb128 0x6e
 16807 05d7 0E       		.uleb128 0xe
 16808 05d8 03       		.uleb128 0x3
 16809 05d9 0E       		.uleb128 0xe
 16810 05da 3A       		.uleb128 0x3a
 16811 05db 0B       		.uleb128 0xb
 16812 05dc 3B       		.uleb128 0x3b
 16813 05dd 05       		.uleb128 0x5
 16814 05de 39       		.uleb128 0x39
 16815 05df 0B       		.uleb128 0xb
 16816 05e0 00       		.byte	0
 16817 05e1 00       		.byte	0
 16818 05e2 00       		.byte	0
 16819              		.section	.debug_loc,"",%progbits
 16820              	.Ldebug_loc0:
 16821              	.LVUS0:
 16822 0000 00       		.uleb128 0
 16823 0001 00       		.uleb128 .LVU28
 16824 0002 00       		.uleb128 .LVU28
 16825 0003 00       		.uleb128 0
 16826              	.LLST0:
 16827 0004 00000000 		.4byte	.LVL0
 16828 0008 22000000 		.4byte	.LVL5
 16829 000c 0100     		.2byte	0x1
 16830 000e 50       		.byte	0x50
 16831 000f 22000000 		.4byte	.LVL5
 16832 0013 86030000 		.4byte	.LFE292
 16833 0017 0100     		.2byte	0x1
 16834 0019 55       		.byte	0x55
 16835 001a 00000000 		.4byte	0
 16836 001e 00000000 		.4byte	0
 16837              	.LVUS1:
 16838 0022 00       		.uleb128 .LVU5
 16839 0023 00       		.uleb128 .LVU28
 16840 0024 00       		.uleb128 .LVU28
 16841 0025 00       		.uleb128 0
 16842              	.LLST1:
 16843 0026 0A000000 		.4byte	.LVL1
 16844 002a 22000000 		.4byte	.LVL5
 16845 002e 0100     		.2byte	0x1
 16846 0030 50       		.byte	0x50
 16847 0031 22000000 		.4byte	.LVL5
 16848 0035 86030000 		.4byte	.LFE292
 16849 0039 0100     		.2byte	0x1
 16850 003b 55       		.byte	0x55
 16851 003c 00000000 		.4byte	0
 16852 0040 00000000 		.4byte	0
 16853              	.LVUS2:
 16854 0044 00       		.uleb128 .LVU8
 16855 0045 00       		.uleb128 .LVU28
 16856 0046 00       		.uleb128 .LVU28
 16857 0047 00       		.uleb128 0
 16858              	.LLST2:
 16859 0048 0C000000 		.4byte	.LVL2
 16860 004c 22000000 		.4byte	.LVL5
ARM GAS  C:\Users\USER\AppData\Local\Temp\ccRejSya.s 			page 297


 16861 0050 0100     		.2byte	0x1
 16862 0052 55       		.byte	0x55
 16863 0053 22000000 		.4byte	.LVL5
 16864 0057 86030000 		.4byte	.LFE292
 16865 005b 0100     		.2byte	0x1
 16866 005d 59       		.byte	0x59
 16867 005e 00000000 		.4byte	0
 16868 0062 00000000 		.4byte	0
 16869              	.LVUS5:
 16870 0066 02       		.uleb128 .LVU61
 16871 0067 00       		.uleb128 .LVU62
 16872 0068 00       		.uleb128 .LVU173
 16873 0069 00       		.uleb128 .LVU186
 16874              	.LLST5:
 16875 006a 4C000000 		.4byte	.LVL7
 16876 006e 4E000000 		.4byte	.LVL8
 16877 0072 0200     		.2byte	0x2
 16878 0074 30       		.byte	0x30
 16879 0075 9F       		.byte	0x9f
 16880 0076 24010000 		.4byte	.LVL42
 16881 007a 32010000 		.4byte	.LVL45
 16882 007e 0100     		.2byte	0x1
 16883 0080 5A       		.byte	0x5a
 16884 0081 00000000 		.4byte	0
 16885 0085 00000000 		.4byte	0
 16886              	.LVUS6:
 16887 0089 00       		.uleb128 .LVU169
 16888 008a 00       		.uleb128 .LVU171
 16889 008b 00       		.uleb128 .LVU171
 16890 008c 00       		.uleb128 .LVU186
 16891 008d 00       		.uleb128 .LVU279
 16892 008e 00       		.uleb128 .LVU295
 16893 008f 00       		.uleb128 .LVU295
 16894 0090 00       		.uleb128 0
 16895              	.LLST6:
 16896 0091 16010000 		.4byte	.LVL40
 16897 0095 1E010000 		.4byte	.LVL41
 16898 0099 0100     		.2byte	0x1
 16899 009b 51       		.byte	0x51
 16900 009c 1E010000 		.4byte	.LVL41
 16901 00a0 32010000 		.4byte	.LVL45
 16902 00a4 0200     		.2byte	0x2
 16903 00a6 91       		.byte	0x91
 16904 00a7 50       		.sleb128 -48
 16905 00a8 BA010000 		.4byte	.LVL63
 16906 00ac C4010000 		.4byte	.LVL65
 16907 00b0 0100     		.2byte	0x1
 16908 00b2 51       		.byte	0x51
 16909 00b3 C4010000 		.4byte	.LVL65
 16910 00b7 86030000 		.4byte	.LFE292
 16911 00bb 0200     		.2byte	0x2
 16912 00bd 91       		.byte	0x91
 16913 00be 50       		.sleb128 -48
 16914 00bf 00000000 		.4byte	0
 16915 00c3 00000000 		.4byte	0
 16916              	.LVUS36:
 16917 00c7 00       		.uleb128 .LVU436
ARM GAS  C:\Users\USER\AppData\Local\Temp\ccRejSya.s 			page 298


 16918 00c8 00       		.uleb128 .LVU453
 16919 00c9 00       		.uleb128 .LVU516
 16920 00ca 00       		.uleb128 .LVU532
 16921 00cb 00       		.uleb128 .LVU532
 16922 00cc 00       		.uleb128 0
 16923              	.LLST36:
 16924 00cd BC020000 		.4byte	.LVL93
 16925 00d1 D0020000 		.4byte	.LVL95
 16926 00d5 0100     		.2byte	0x1
 16927 00d7 52       		.byte	0x52
 16928 00d8 52030000 		.4byte	.LVL113
 16929 00dc 6C030000 		.4byte	.LVL115
 16930 00e0 0200     		.2byte	0x2
 16931 00e2 30       		.byte	0x30
 16932 00e3 9F       		.byte	0x9f
 16933 00e4 6C030000 		.4byte	.LVL115
 16934 00e8 86030000 		.4byte	.LFE292
 16935 00ec 0200     		.2byte	0x2
 16936 00ee 31       		.byte	0x31
 16937 00ef 9F       		.byte	0x9f
 16938 00f0 00000000 		.4byte	0
 16939 00f4 00000000 		.4byte	0
 16940              	.LVUS37:
 16941 00f8 09       		.uleb128 .LVU288
 16942 00f9 00       		.uleb128 .LVU290
 16943              	.LLST37:
 16944 00fa BA010000 		.4byte	.LVL63
 16945 00fe C0010000 		.4byte	.LVL64
 16946 0102 0300     		.2byte	0x3
 16947 0104 08       		.byte	0x8
 16948 0105 20       		.byte	0x20
 16949 0106 9F       		.byte	0x9f
 16950 0107 00000000 		.4byte	0
 16951 010b 00000000 		.4byte	0
 16952              	.LVUS38:
 16953 010f 0B       		.uleb128 .LVU312
 16954 0110 00       		.uleb128 .LVU314
 16955              	.LLST38:
 16956 0111 D6010000 		.4byte	.LVL66
 16957 0115 DA010000 		.4byte	.LVL67
 16958 0119 0200     		.2byte	0x2
 16959 011b 30       		.byte	0x30
 16960 011c 9F       		.byte	0x9f
 16961 011d 00000000 		.4byte	0
 16962 0121 00000000 		.4byte	0
 16963              	.LVUS39:
 16964 0125 02       		.uleb128 .LVU316
 16965 0126 00       		.uleb128 .LVU436
 16966 0127 00       		.uleb128 .LVU469
 16967 0128 00       		.uleb128 .LVU516
 16968              	.LLST39:
 16969 0129 DA010000 		.4byte	.LVL67
 16970 012d BC020000 		.4byte	.LVL93
 16971 0131 0100     		.2byte	0x1
 16972 0133 55       		.byte	0x55
 16973 0134 EC020000 		.4byte	.LVL98
 16974 0138 52030000 		.4byte	.LVL113
ARM GAS  C:\Users\USER\AppData\Local\Temp\ccRejSya.s 			page 299


 16975 013c 0100     		.2byte	0x1
 16976 013e 55       		.byte	0x55
 16977 013f 00000000 		.4byte	0
 16978 0143 00000000 		.4byte	0
 16979              	.LVUS40:
 16980 0147 00       		.uleb128 .LVU329
 16981 0148 00       		.uleb128 .LVU331
 16982 0149 00       		.uleb128 .LVU331
 16983 014a 00       		.uleb128 .LVU344
 16984 014b 00       		.uleb128 .LVU344
 16985 014c 00       		.uleb128 .LVU379
 16986 014d 00       		.uleb128 .LVU379
 16987 014e 00       		.uleb128 .LVU419
 16988 014f 00       		.uleb128 .LVU430
 16989 0150 00       		.uleb128 .LVU436
 16990 0151 00       		.uleb128 .LVU469
 16991 0152 00       		.uleb128 .LVU493
 16992 0153 00       		.uleb128 .LVU493
 16993 0154 00       		.uleb128 .LVU513
 16994 0155 00       		.uleb128 .LVU513
 16995 0156 00       		.uleb128 .LVU514
 16996              	.LLST40:
 16997 0157 FC010000 		.4byte	.LVL68
 16998 015b 06020000 		.4byte	.LVL69
 16999 015f 0100     		.2byte	0x1
 17000 0161 53       		.byte	0x53
 17001 0162 06020000 		.4byte	.LVL69
 17002 0166 30020000 		.4byte	.LVL72
 17003 016a 0100     		.2byte	0x1
 17004 016c 54       		.byte	0x54
 17005 016d 30020000 		.4byte	.LVL72
 17006 0171 6E020000 		.4byte	.LVL83
 17007 0175 0100     		.2byte	0x1
 17008 0177 5A       		.byte	0x5a
 17009 0178 6E020000 		.4byte	.LVL83
 17010 017c 94020000 		.4byte	.LVL90
 17011 0180 0100     		.2byte	0x1
 17012 0182 54       		.byte	0x54
 17013 0183 A8020000 		.4byte	.LVL91
 17014 0187 BC020000 		.4byte	.LVL93
 17015 018b 0100     		.2byte	0x1
 17016 018d 54       		.byte	0x54
 17017 018e EC020000 		.4byte	.LVL98
 17018 0192 26030000 		.4byte	.LVL103
 17019 0196 0100     		.2byte	0x1
 17020 0198 5A       		.byte	0x5a
 17021 0199 26030000 		.4byte	.LVL103
 17022 019d 4A030000 		.4byte	.LVL111
 17023 01a1 0100     		.2byte	0x1
 17024 01a3 54       		.byte	0x54
 17025 01a4 4A030000 		.4byte	.LVL111
 17026 01a8 4E030000 		.4byte	.LVL112
 17027 01ac 0100     		.2byte	0x1
 17028 01ae 5A       		.byte	0x5a
 17029 01af 00000000 		.4byte	0
 17030 01b3 00000000 		.4byte	0
 17031              	.LVUS41:
ARM GAS  C:\Users\USER\AppData\Local\Temp\ccRejSya.s 			page 300


 17032 01b7 01       		.uleb128 .LVU337
 17033 01b8 00       		.uleb128 .LVU344
 17034 01b9 00       		.uleb128 .LVU344
 17035 01ba 00       		.uleb128 .LVU379
 17036 01bb 00       		.uleb128 .LVU379
 17037 01bc 00       		.uleb128 .LVU414
 17038 01bd 00       		.uleb128 .LVU469
 17039 01be 00       		.uleb128 .LVU493
 17040 01bf 00       		.uleb128 .LVU513
 17041 01c0 00       		.uleb128 .LVU514
 17042              	.LLST41:
 17043 01c1 26020000 		.4byte	.LVL70
 17044 01c5 30020000 		.4byte	.LVL72
 17045 01c9 0100     		.2byte	0x1
 17046 01cb 54       		.byte	0x54
 17047 01cc 30020000 		.4byte	.LVL72
 17048 01d0 6E020000 		.4byte	.LVL83
 17049 01d4 0100     		.2byte	0x1
 17050 01d6 5A       		.byte	0x5a
 17051 01d7 6E020000 		.4byte	.LVL83
 17052 01db 8C020000 		.4byte	.LVL89
 17053 01df 0100     		.2byte	0x1
 17054 01e1 54       		.byte	0x54
 17055 01e2 EC020000 		.4byte	.LVL98
 17056 01e6 26030000 		.4byte	.LVL103
 17057 01ea 0100     		.2byte	0x1
 17058 01ec 5A       		.byte	0x5a
 17059 01ed 4A030000 		.4byte	.LVL111
 17060 01f1 4E030000 		.4byte	.LVL112
 17061 01f5 0100     		.2byte	0x1
 17062 01f7 5A       		.byte	0x5a
 17063 01f8 00000000 		.4byte	0
 17064 01fc 00000000 		.4byte	0
 17065              	.LVUS42:
 17066 0200 01       		.uleb128 .LVU337
 17067 0201 00       		.uleb128 .LVU343
 17068              	.LLST42:
 17069 0202 26020000 		.4byte	.LVL70
 17070 0206 2E020000 		.4byte	.LVL71
 17071 020a 0200     		.2byte	0x2
 17072 020c 72       		.byte	0x72
 17073 020d 0C       		.sleb128 12
 17074 020e 00000000 		.4byte	0
 17075 0212 00000000 		.4byte	0
 17076              	.LVUS43:
 17077 0216 04       		.uleb128 .LVU340
 17078 0217 00       		.uleb128 .LVU344
 17079 0218 00       		.uleb128 .LVU344
 17080 0219 00       		.uleb128 .LVU379
 17081 021a 00       		.uleb128 .LVU469
 17082 021b 03       		.uleb128 .LVU476
 17083 021c 03       		.uleb128 .LVU476
 17084 021d 00       		.uleb128 .LVU484
 17085 021e 00       		.uleb128 .LVU484
 17086 021f 00       		.uleb128 .LVU493
 17087 0220 00       		.uleb128 .LVU513
 17088 0221 00       		.uleb128 .LVU514
ARM GAS  C:\Users\USER\AppData\Local\Temp\ccRejSya.s 			page 301


 17089              	.LLST43:
 17090 0222 26020000 		.4byte	.LVL70
 17091 0226 30020000 		.4byte	.LVL72
 17092 022a 0100     		.2byte	0x1
 17093 022c 54       		.byte	0x54
 17094 022d 30020000 		.4byte	.LVL72
 17095 0231 6E020000 		.4byte	.LVL83
 17096 0235 0100     		.2byte	0x1
 17097 0237 52       		.byte	0x52
 17098 0238 EC020000 		.4byte	.LVL98
 17099 023c F6020000 		.4byte	.LVL99
 17100 0240 0100     		.2byte	0x1
 17101 0242 52       		.byte	0x52
 17102 0243 F6020000 		.4byte	.LVL99
 17103 0247 0E030000 		.4byte	.LVL101
 17104 024b 0300     		.2byte	0x3
 17105 024d 72       		.byte	0x72
 17106 024e 7F       		.sleb128 -1
 17107 024f 9F       		.byte	0x9f
 17108 0250 0E030000 		.4byte	.LVL101
 17109 0254 26030000 		.4byte	.LVL103
 17110 0258 0100     		.2byte	0x1
 17111 025a 52       		.byte	0x52
 17112 025b 4A030000 		.4byte	.LVL111
 17113 025f 4E030000 		.4byte	.LVL112
 17114 0263 0100     		.2byte	0x1
 17115 0265 52       		.byte	0x52
 17116 0266 00000000 		.4byte	0
 17117 026a 00000000 		.4byte	0
 17118              	.LVUS44:
 17119 026e 00       		.uleb128 .LVU473
 17120 026f 00       		.uleb128 .LVU482
 17121 0270 00       		.uleb128 .LVU485
 17122 0271 00       		.uleb128 .LVU493
 17123              	.LLST44:
 17124 0272 F6020000 		.4byte	.LVL99
 17125 0276 06030000 		.4byte	.LVL100
 17126 027a 0100     		.2byte	0x1
 17127 027c 56       		.byte	0x56
 17128 027d 12030000 		.4byte	.LVL102
 17129 0281 26030000 		.4byte	.LVL103
 17130 0285 0100     		.2byte	0x1
 17131 0287 56       		.byte	0x56
 17132 0288 00000000 		.4byte	0
 17133 028c 00000000 		.4byte	0
 17134              	.LVUS45:
 17135 0290 02       		.uleb128 .LVU346
 17136 0291 00       		.uleb128 .LVU353
 17137 0292 00       		.uleb128 .LVU353
 17138 0293 00       		.uleb128 .LVU356
 17139 0294 00       		.uleb128 .LVU356
 17140 0295 00       		.uleb128 .LVU357
 17141              	.LLST45:
 17142 0296 30020000 		.4byte	.LVL72
 17143 029a 40020000 		.4byte	.LVL74
 17144 029e 0500     		.2byte	0x5
 17145 02a0 72       		.byte	0x72
ARM GAS  C:\Users\USER\AppData\Local\Temp\ccRejSya.s 			page 302


 17146 02a1 00       		.sleb128 0
 17147 02a2 32       		.byte	0x32
 17148 02a3 25       		.byte	0x25
 17149 02a4 9F       		.byte	0x9f
 17150 02a5 40020000 		.4byte	.LVL74
 17151 02a9 4A020000 		.4byte	.LVL76
 17152 02ad 0100     		.2byte	0x1
 17153 02af 56       		.byte	0x56
 17154 02b0 4A020000 		.4byte	.LVL76
 17155 02b4 4C020000 		.4byte	.LVL77
 17156 02b8 0500     		.2byte	0x5
 17157 02ba 72       		.byte	0x72
 17158 02bb 00       		.sleb128 0
 17159 02bc 32       		.byte	0x32
 17160 02bd 25       		.byte	0x25
 17161 02be 9F       		.byte	0x9f
 17162 02bf 00000000 		.4byte	0
 17163 02c3 00000000 		.4byte	0
 17164              	.LVUS46:
 17165 02c7 00       		.uleb128 .LVU355
 17166 02c8 00       		.uleb128 .LVU361
 17167 02c9 00       		.uleb128 .LVU513
 17168 02ca 00       		.uleb128 .LVU514
 17169              	.LLST46:
 17170 02cb 48020000 		.4byte	.LVL75
 17171 02cf 52020000 		.4byte	.LVL78
 17172 02d3 0100     		.2byte	0x1
 17173 02d5 51       		.byte	0x51
 17174 02d6 4A030000 		.4byte	.LVL111
 17175 02da 4E030000 		.4byte	.LVL112
 17176 02de 0100     		.2byte	0x1
 17177 02e0 51       		.byte	0x51
 17178 02e1 00000000 		.4byte	0
 17179 02e5 00000000 		.4byte	0
 17180              	.LVUS47:
 17181 02e9 02       		.uleb128 .LVU350
 17182 02ea 00       		.uleb128 .LVU361
 17183 02eb 00       		.uleb128 .LVU361
 17184 02ec 00       		.uleb128 .LVU371
 17185 02ed 00       		.uleb128 .LVU513
 17186 02ee 00       		.uleb128 .LVU514
 17187              	.LLST47:
 17188 02ef 36020000 		.4byte	.LVL73
 17189 02f3 52020000 		.4byte	.LVL78
 17190 02f7 0800     		.2byte	0x8
 17191 02f9 7E       		.byte	0x7e
 17192 02fa 00       		.sleb128 0
 17193 02fb 73       		.byte	0x73
 17194 02fc 00       		.sleb128 0
 17195 02fd 1C       		.byte	0x1c
 17196 02fe 34       		.byte	0x34
 17197 02ff 1B       		.byte	0x1b
 17198 0300 9F       		.byte	0x9f
 17199 0301 52020000 		.4byte	.LVL78
 17200 0305 62020000 		.4byte	.LVL82
 17201 0309 0900     		.2byte	0x9
 17202 030b 7E       		.byte	0x7e
ARM GAS  C:\Users\USER\AppData\Local\Temp\ccRejSya.s 			page 303


 17203 030c 00       		.sleb128 0
 17204 030d 70       		.byte	0x70
 17205 030e 18       		.sleb128 24
 17206 030f 06       		.byte	0x6
 17207 0310 1C       		.byte	0x1c
 17208 0311 34       		.byte	0x34
 17209 0312 1B       		.byte	0x1b
 17210 0313 9F       		.byte	0x9f
 17211 0314 4A030000 		.4byte	.LVL111
 17212 0318 4E030000 		.4byte	.LVL112
 17213 031c 0800     		.2byte	0x8
 17214 031e 7E       		.byte	0x7e
 17215 031f 00       		.sleb128 0
 17216 0320 73       		.byte	0x73
 17217 0321 00       		.sleb128 0
 17218 0322 1C       		.byte	0x1c
 17219 0323 34       		.byte	0x34
 17220 0324 1B       		.byte	0x1b
 17221 0325 9F       		.byte	0x9f
 17222 0326 00000000 		.4byte	0
 17223 032a 00000000 		.4byte	0
 17224              	.LVUS48:
 17225 032e 01       		.uleb128 .LVU358
 17226 032f 00       		.uleb128 .LVU361
 17227 0330 00       		.uleb128 .LVU513
 17228 0331 00       		.uleb128 .LVU514
 17229              	.LLST48:
 17230 0332 4C020000 		.4byte	.LVL77
 17231 0336 52020000 		.4byte	.LVL78
 17232 033a 0100     		.2byte	0x1
 17233 033c 51       		.byte	0x51
 17234 033d 4A030000 		.4byte	.LVL111
 17235 0341 4E030000 		.4byte	.LVL112
 17236 0345 0100     		.2byte	0x1
 17237 0347 51       		.byte	0x51
 17238 0348 00000000 		.4byte	0
 17239 034c 00000000 		.4byte	0
 17240              	.LVUS49:
 17241 0350 00       		.uleb128 .LVU361
 17242 0351 00       		.uleb128 .LVU363
 17243 0352 00       		.uleb128 .LVU363
 17244 0353 01       		.uleb128 .LVU365
 17245 0354 01       		.uleb128 .LVU365
 17246 0355 00       		.uleb128 .LVU367
 17247              	.LLST49:
 17248 0356 52020000 		.4byte	.LVL78
 17249 035a 56020000 		.4byte	.LVL79
 17250 035e 0100     		.2byte	0x1
 17251 0360 53       		.byte	0x53
 17252 0361 56020000 		.4byte	.LVL79
 17253 0365 5A020000 		.4byte	.LVL80
 17254 0369 0300     		.2byte	0x3
 17255 036b 73       		.byte	0x73
 17256 036c 7C       		.sleb128 -4
 17257 036d 9F       		.byte	0x9f
 17258 036e 5A020000 		.4byte	.LVL80
 17259 0372 5E020000 		.4byte	.LVL81
ARM GAS  C:\Users\USER\AppData\Local\Temp\ccRejSya.s 			page 304


 17260 0376 0100     		.2byte	0x1
 17261 0378 53       		.byte	0x53
 17262 0379 00000000 		.4byte	0
 17263 037d 00000000 		.4byte	0
 17264              	.LVUS50:
 17265 0381 07       		.uleb128 .LVU386
 17266 0382 00       		.uleb128 .LVU388
 17267              	.LLST50:
 17268 0383 6E020000 		.4byte	.LVL83
 17269 0387 74020000 		.4byte	.LVL84
 17270 038b 0300     		.2byte	0x3
 17271 038d 08       		.byte	0x8
 17272 038e 20       		.byte	0x20
 17273 038f 9F       		.byte	0x9f
 17274 0390 00000000 		.4byte	0
 17275 0394 00000000 		.4byte	0
 17276              	.LVUS51:
 17277 0398 01       		.uleb128 .LVU394
 17278 0399 00       		.uleb128 .LVU396
 17279              	.LLST51:
 17280 039a 7A020000 		.4byte	.LVL85
 17281 039e 80020000 		.4byte	.LVL86
 17282 03a2 0200     		.2byte	0x2
 17283 03a4 30       		.byte	0x30
 17284 03a5 9F       		.byte	0x9f
 17285 03a6 00000000 		.4byte	0
 17286 03aa 00000000 		.4byte	0
 17287              	.LVUS52:
 17288 03ae 01       		.uleb128 .LVU394
 17289 03af 00       		.uleb128 .LVU396
 17290              	.LLST52:
 17291 03b0 7A020000 		.4byte	.LVL85
 17292 03b4 7F020000 		.4byte	.LVL86-1
 17293 03b8 0100     		.2byte	0x1
 17294 03ba 50       		.byte	0x50
 17295 03bb 00000000 		.4byte	0
 17296 03bf 00000000 		.4byte	0
 17297              	.LVUS53:
 17298 03c3 0B       		.uleb128 .LVU411
 17299 03c4 00       		.uleb128 .LVU413
 17300              	.LLST53:
 17301 03c5 84020000 		.4byte	.LVL87
 17302 03c9 8A020000 		.4byte	.LVL88
 17303 03cd 0200     		.2byte	0x2
 17304 03cf 30       		.byte	0x30
 17305 03d0 9F       		.byte	0x9f
 17306 03d1 00000000 		.4byte	0
 17307 03d5 00000000 		.4byte	0
 17308              	.LVUS54:
 17309 03d9 02       		.uleb128 .LVU495
 17310 03da 01       		.uleb128 .LVU510
 17311              	.LLST54:
 17312 03db 26030000 		.4byte	.LVL103
 17313 03df 44030000 		.4byte	.LVL110
 17314 03e3 0100     		.2byte	0x1
 17315 03e5 54       		.byte	0x54
 17316 03e6 00000000 		.4byte	0
ARM GAS  C:\Users\USER\AppData\Local\Temp\ccRejSya.s 			page 305


 17317 03ea 00000000 		.4byte	0
 17318              	.LVUS55:
 17319 03ee 02       		.uleb128 .LVU495
 17320 03ef 01       		.uleb128 .LVU510
 17321              	.LLST55:
 17322 03f0 26030000 		.4byte	.LVL103
 17323 03f4 44030000 		.4byte	.LVL110
 17324 03f8 0200     		.2byte	0x2
 17325 03fa 72       		.byte	0x72
 17326 03fb 0C       		.sleb128 12
 17327 03fc 00000000 		.4byte	0
 17328 0400 00000000 		.4byte	0
 17329              	.LVUS56:
 17330 0404 00       		.uleb128 .LVU498
 17331 0405 00       		.uleb128 .LVU501
 17332 0406 00       		.uleb128 .LVU501
 17333 0407 00       		.uleb128 .LVU502
 17334 0408 00       		.uleb128 .LVU502
 17335 0409 00       		.uleb128 .LVU503
 17336              	.LLST56:
 17337 040a 2A030000 		.4byte	.LVL104
 17338 040e 2E030000 		.4byte	.LVL105
 17339 0412 0500     		.2byte	0x5
 17340 0414 7E       		.byte	0x7e
 17341 0415 00       		.sleb128 0
 17342 0416 32       		.byte	0x32
 17343 0417 25       		.byte	0x25
 17344 0418 9F       		.byte	0x9f
 17345 0419 2E030000 		.4byte	.LVL105
 17346 041d 34030000 		.4byte	.LVL106
 17347 0421 0100     		.2byte	0x1
 17348 0423 5E       		.byte	0x5e
 17349 0424 34030000 		.4byte	.LVL106
 17350 0428 36030000 		.4byte	.LVL107
 17351 042c 0500     		.2byte	0x5
 17352 042e 74       		.byte	0x74
 17353 042f 03       		.sleb128 3
 17354 0430 32       		.byte	0x32
 17355 0431 25       		.byte	0x25
 17356 0432 9F       		.byte	0x9f
 17357 0433 00000000 		.4byte	0
 17358 0437 00000000 		.4byte	0
 17359              	.LVUS57:
 17360 043b 04       		.uleb128 .LVU497
 17361 043c 00       		.uleb128 .LVU503
 17362 043d 00       		.uleb128 .LVU503
 17363 043e 00       		.uleb128 .LVU505
 17364 043f 00       		.uleb128 .LVU505
 17365 0440 01       		.uleb128 .LVU507
 17366 0441 01       		.uleb128 .LVU507
 17367 0442 00       		.uleb128 .LVU509
 17368              	.LLST57:
 17369 0443 26030000 		.4byte	.LVL103
 17370 0447 36030000 		.4byte	.LVL107
 17371 044b 0200     		.2byte	0x2
 17372 044d 72       		.byte	0x72
 17373 044e 0C       		.sleb128 12
ARM GAS  C:\Users\USER\AppData\Local\Temp\ccRejSya.s 			page 306


 17374 044f 36030000 		.4byte	.LVL107
 17375 0453 3A030000 		.4byte	.LVL108
 17376 0457 0100     		.2byte	0x1
 17377 0459 53       		.byte	0x53
 17378 045a 3A030000 		.4byte	.LVL108
 17379 045e 3E030000 		.4byte	.LVL109
 17380 0462 0300     		.2byte	0x3
 17381 0464 73       		.byte	0x73
 17382 0465 7C       		.sleb128 -4
 17383 0466 9F       		.byte	0x9f
 17384 0467 3E030000 		.4byte	.LVL109
 17385 046b 44030000 		.4byte	.LVL110
 17386 046f 0100     		.2byte	0x1
 17387 0471 53       		.byte	0x53
 17388 0472 00000000 		.4byte	0
 17389 0476 00000000 		.4byte	0
 17390              	.LVUS58:
 17391 047a 08       		.uleb128 .LVU444
 17392 047b 00       		.uleb128 .LVU446
 17393 047c 08       		.uleb128 .LVU524
 17394 047d 00       		.uleb128 .LVU526
 17395 047e 07       		.uleb128 .LVU539
 17396 047f 00       		.uleb128 .LVU541
 17397              	.LLST58:
 17398 0480 BC020000 		.4byte	.LVL93
 17399 0484 C2020000 		.4byte	.LVL94
 17400 0488 0300     		.2byte	0x3
 17401 048a 08       		.byte	0x8
 17402 048b 20       		.byte	0x20
 17403 048c 9F       		.byte	0x9f
 17404 048d 52030000 		.4byte	.LVL113
 17405 0491 58030000 		.4byte	.LVL114
 17406 0495 0300     		.2byte	0x3
 17407 0497 08       		.byte	0x8
 17408 0498 20       		.byte	0x20
 17409 0499 9F       		.byte	0x9f
 17410 049a 6C030000 		.4byte	.LVL115
 17411 049e 72030000 		.4byte	.LVL116
 17412 04a2 0300     		.2byte	0x3
 17413 04a4 08       		.byte	0x8
 17414 04a5 20       		.byte	0x20
 17415 04a6 9F       		.byte	0x9f
 17416 04a7 00000000 		.4byte	0
 17417 04ab 00000000 		.4byte	0
 17418              	.LVUS59:
 17419 04af 0B       		.uleb128 .LVU466
 17420 04b0 00       		.uleb128 .LVU468
 17421              	.LLST59:
 17422 04b1 DC020000 		.4byte	.LVL96
 17423 04b5 E2020000 		.4byte	.LVL97
 17424 04b9 0200     		.2byte	0x2
 17425 04bb 30       		.byte	0x30
 17426 04bc 9F       		.byte	0x9f
 17427 04bd 00000000 		.4byte	0
 17428 04c1 00000000 		.4byte	0
 17429              	.LVUS7:
 17430 04c5 01       		.uleb128 .LVU65
ARM GAS  C:\Users\USER\AppData\Local\Temp\ccRejSya.s 			page 307


 17431 04c6 00       		.uleb128 .LVU163
 17432 04c7 00       		.uleb128 .LVU186
 17433 04c8 00       		.uleb128 .LVU279
 17434              	.LLST7:
 17435 04c9 58000000 		.4byte	.LVL9
 17436 04cd 0A010000 		.4byte	.LVL39
 17437 04d1 0100     		.2byte	0x1
 17438 04d3 55       		.byte	0x55
 17439 04d4 32010000 		.4byte	.LVL45
 17440 04d8 BA010000 		.4byte	.LVL63
 17441 04dc 0100     		.2byte	0x1
 17442 04de 55       		.byte	0x55
 17443 04df 00000000 		.4byte	0
 17444 04e3 00000000 		.4byte	0
 17445              	.LVUS8:
 17446 04e7 00       		.uleb128 .LVU70
 17447 04e8 00       		.uleb128 .LVU79
 17448 04e9 00       		.uleb128 .LVU117
 17449 04ea 00       		.uleb128 .LVU124
 17450              	.LLST8:
 17451 04eb 5C000000 		.4byte	.LVL10
 17452 04ef 78000000 		.4byte	.LVL14
 17453 04f3 0100     		.2byte	0x1
 17454 04f5 53       		.byte	0x53
 17455 04f6 B0000000 		.4byte	.LVL25
 17456 04fa BE000000 		.4byte	.LVL27
 17457 04fe 0100     		.2byte	0x1
 17458 0500 53       		.byte	0x53
 17459 0501 00000000 		.4byte	0
 17460 0505 00000000 		.4byte	0
 17461              	.LVUS9:
 17462 0509 01       		.uleb128 .LVU74
 17463 050a 00       		.uleb128 .LVU79
 17464 050b 00       		.uleb128 .LVU121
 17465 050c 00       		.uleb128 .LVU158
 17466 050d 00       		.uleb128 .LVU186
 17467 050e 00       		.uleb128 .LVU279
 17468              	.LLST9:
 17469 050f 6C000000 		.4byte	.LVL11
 17470 0513 78000000 		.4byte	.LVL14
 17471 0517 0900     		.2byte	0x9
 17472 0519 73       		.byte	0x73
 17473 051a 00       		.sleb128 0
 17474 051b 34       		.byte	0x34
 17475 051c 25       		.byte	0x25
 17476 051d 0A       		.byte	0xa
 17477 051e FF07     		.2byte	0x7ff
 17478 0520 1A       		.byte	0x1a
 17479 0521 9F       		.byte	0x9f
 17480 0522 BC000000 		.4byte	.LVL26
 17481 0526 02010000 		.4byte	.LVL38
 17482 052a 0100     		.2byte	0x1
 17483 052c 54       		.byte	0x54
 17484 052d 32010000 		.4byte	.LVL45
 17485 0531 BA010000 		.4byte	.LVL63
 17486 0535 0100     		.2byte	0x1
 17487 0537 54       		.byte	0x54
ARM GAS  C:\Users\USER\AppData\Local\Temp\ccRejSya.s 			page 308


 17488 0538 00000000 		.4byte	0
 17489 053c 00000000 		.4byte	0
 17490              	.LVUS10:
 17491 0540 02       		.uleb128 .LVU75
 17492 0541 00       		.uleb128 .LVU77
 17493 0542 00       		.uleb128 .LVU77
 17494 0543 00       		.uleb128 .LVU78
 17495 0544 00       		.uleb128 .LVU78
 17496 0545 00       		.uleb128 .LVU79
 17497 0546 01       		.uleb128 .LVU122
 17498 0547 00       		.uleb128 .LVU124
 17499              	.LLST10:
 17500 0548 6C000000 		.4byte	.LVL11
 17501 054c 70000000 		.4byte	.LVL12
 17502 0550 0500     		.2byte	0x5
 17503 0552 73       		.byte	0x73
 17504 0553 00       		.sleb128 0
 17505 0554 3F       		.byte	0x3f
 17506 0555 1A       		.byte	0x1a
 17507 0556 9F       		.byte	0x9f
 17508 0557 70000000 		.4byte	.LVL12
 17509 055b 74000000 		.4byte	.LVL13
 17510 055f 0100     		.2byte	0x1
 17511 0561 51       		.byte	0x51
 17512 0562 74000000 		.4byte	.LVL13
 17513 0566 78000000 		.4byte	.LVL14
 17514 056a 0500     		.2byte	0x5
 17515 056c 73       		.byte	0x73
 17516 056d 00       		.sleb128 0
 17517 056e 3F       		.byte	0x3f
 17518 056f 1A       		.byte	0x1a
 17519 0570 9F       		.byte	0x9f
 17520 0571 BC000000 		.4byte	.LVL26
 17521 0575 BE000000 		.4byte	.LVL27
 17522 0579 0500     		.2byte	0x5
 17523 057b 73       		.byte	0x73
 17524 057c 00       		.sleb128 0
 17525 057d 3F       		.byte	0x3f
 17526 057e 1A       		.byte	0x1a
 17527 057f 9F       		.byte	0x9f
 17528 0580 00000000 		.4byte	0
 17529 0584 00000000 		.4byte	0
 17530              	.LVUS11:
 17531 0588 02       		.uleb128 .LVU196
 17532 0589 00       		.uleb128 .LVU279
 17533              	.LLST11:
 17534 058a 42010000 		.4byte	.LVL48
 17535 058e BA010000 		.4byte	.LVL63
 17536 0592 0100     		.2byte	0x1
 17537 0594 54       		.byte	0x54
 17538 0595 00000000 		.4byte	0
 17539 0599 00000000 		.4byte	0
 17540              	.LVUS12:
 17541 059d 02       		.uleb128 .LVU196
 17542 059e 00       		.uleb128 .LVU202
 17543              	.LLST12:
 17544 059f 42010000 		.4byte	.LVL48
ARM GAS  C:\Users\USER\AppData\Local\Temp\ccRejSya.s 			page 309


 17545 05a3 4C010000 		.4byte	.LVL50
 17546 05a7 0200     		.2byte	0x2
 17547 05a9 77       		.byte	0x77
 17548 05aa 0C       		.sleb128 12
 17549 05ab 00000000 		.4byte	0
 17550 05af 00000000 		.4byte	0
 17551              	.LVUS13:
 17552 05b3 02       		.uleb128 .LVU196
 17553 05b4 00       		.uleb128 .LVU201
 17554 05b5 00       		.uleb128 .LVU201
 17555 05b6 00       		.uleb128 .LVU243
 17556              	.LLST13:
 17557 05b7 42010000 		.4byte	.LVL48
 17558 05bb 4A010000 		.4byte	.LVL49
 17559 05bf 0400     		.2byte	0x4
 17560 05c1 72       		.byte	0x72
 17561 05c2 8020     		.sleb128 4096
 17562 05c4 9F       		.byte	0x9f
 17563 05c5 4A010000 		.4byte	.LVL49
 17564 05c9 94010000 		.4byte	.LVL57
 17565 05cd 0100     		.2byte	0x1
 17566 05cf 52       		.byte	0x52
 17567 05d0 00000000 		.4byte	0
 17568 05d4 00000000 		.4byte	0
 17569              	.LVUS14:
 17570 05d8 05       		.uleb128 .LVU199
 17571 05d9 00       		.uleb128 .LVU202
 17572 05da 00       		.uleb128 .LVU202
 17573 05db 03       		.uleb128 .LVU233
 17574 05dc 03       		.uleb128 .LVU233
 17575 05dd 00       		.uleb128 .LVU241
 17576 05de 00       		.uleb128 .LVU241
 17577 05df 00       		.uleb128 .LVU243
 17578              	.LLST14:
 17579 05e0 42010000 		.4byte	.LVL48
 17580 05e4 4C010000 		.4byte	.LVL50
 17581 05e8 0100     		.2byte	0x1
 17582 05ea 54       		.byte	0x54
 17583 05eb 4C010000 		.4byte	.LVL50
 17584 05ef 68010000 		.4byte	.LVL55
 17585 05f3 0100     		.2byte	0x1
 17586 05f5 5C       		.byte	0x5c
 17587 05f6 68010000 		.4byte	.LVL55
 17588 05fa 86010000 		.4byte	.LVL56
 17589 05fe 0300     		.2byte	0x3
 17590 0600 7C       		.byte	0x7c
 17591 0601 7F       		.sleb128 -1
 17592 0602 9F       		.byte	0x9f
 17593 0603 86010000 		.4byte	.LVL56
 17594 0607 94010000 		.4byte	.LVL57
 17595 060b 0100     		.2byte	0x1
 17596 060d 5C       		.byte	0x5c
 17597 060e 00000000 		.4byte	0
 17598 0612 00000000 		.4byte	0
 17599              	.LVUS15:
 17600 0616 08       		.uleb128 .LVU251
 17601 0617 00       		.uleb128 .LVU253
ARM GAS  C:\Users\USER\AppData\Local\Temp\ccRejSya.s 			page 310


 17602              	.LLST15:
 17603 0618 94010000 		.4byte	.LVL57
 17604 061c 9A010000 		.4byte	.LVL58
 17605 0620 0300     		.2byte	0x3
 17606 0622 08       		.byte	0x8
 17607 0623 20       		.byte	0x20
 17608 0624 9F       		.byte	0x9f
 17609 0625 00000000 		.4byte	0
 17610 0629 00000000 		.4byte	0
 17611              	.LVUS16:
 17612 062d 00       		.uleb128 .LVU227
 17613 062e 00       		.uleb128 .LVU243
 17614              	.LLST16:
 17615 062f 66010000 		.4byte	.LVL54
 17616 0633 94010000 		.4byte	.LVL57
 17617 0637 0100     		.2byte	0x1
 17618 0639 5E       		.byte	0x5e
 17619 063a 00000000 		.4byte	0
 17620 063e 00000000 		.4byte	0
 17621              	.LVUS17:
 17622 0642 01       		.uleb128 .LVU228
 17623 0643 00       		.uleb128 .LVU230
 17624              	.LLST17:
 17625 0644 66010000 		.4byte	.LVL54
 17626 0648 68010000 		.4byte	.LVL55
 17627 064c 0200     		.2byte	0x2
 17628 064e 30       		.byte	0x30
 17629 064f 9F       		.byte	0x9f
 17630 0650 00000000 		.4byte	0
 17631 0654 00000000 		.4byte	0
 17632              	.LVUS18:
 17633 0658 02       		.uleb128 .LVU204
 17634 0659 00       		.uleb128 .LVU206
 17635 065a 04       		.uleb128 .LVU222
 17636 065b 00       		.uleb128 .LVU224
 17637              	.LLST18:
 17638 065c 4C010000 		.4byte	.LVL50
 17639 0660 52010000 		.4byte	.LVL51
 17640 0664 0500     		.2byte	0x5
 17641 0666 7C       		.byte	0x7c
 17642 0667 00       		.sleb128 0
 17643 0668 32       		.byte	0x32
 17644 0669 25       		.byte	0x25
 17645 066a 9F       		.byte	0x9f
 17646 066b 5C010000 		.4byte	.LVL52
 17647 066f 62010000 		.4byte	.LVL53
 17648 0673 0500     		.2byte	0x5
 17649 0675 7C       		.byte	0x7c
 17650 0676 00       		.sleb128 0
 17651 0677 32       		.byte	0x32
 17652 0678 25       		.byte	0x25
 17653 0679 9F       		.byte	0x9f
 17654 067a 00000000 		.4byte	0
 17655 067e 00000000 		.4byte	0
 17656              	.LVUS19:
 17657 0682 03       		.uleb128 .LVU209
 17658 0683 00       		.uleb128 .LVU224
ARM GAS  C:\Users\USER\AppData\Local\Temp\ccRejSya.s 			page 311


 17659              	.LLST19:
 17660 0684 52010000 		.4byte	.LVL51
 17661 0688 62010000 		.4byte	.LVL53
 17662 068c 0200     		.2byte	0x2
 17663 068e 30       		.byte	0x30
 17664 068f 9F       		.byte	0x9f
 17665 0690 00000000 		.4byte	0
 17666 0694 00000000 		.4byte	0
 17667              	.LVUS20:
 17668 0698 02       		.uleb128 .LVU208
 17669 0699 00       		.uleb128 .LVU224
 17670              	.LLST20:
 17671 069a 52010000 		.4byte	.LVL51
 17672 069e 62010000 		.4byte	.LVL53
 17673 06a2 0200     		.2byte	0x2
 17674 06a4 30       		.byte	0x30
 17675 06a5 9F       		.byte	0x9f
 17676 06a6 00000000 		.4byte	0
 17677 06aa 00000000 		.4byte	0
 17678              	.LVUS21:
 17679 06ae 01       		.uleb128 .LVU259
 17680 06af 00       		.uleb128 .LVU261
 17681              	.LLST21:
 17682 06b0 A0010000 		.4byte	.LVL59
 17683 06b4 A6010000 		.4byte	.LVL60
 17684 06b8 0200     		.2byte	0x2
 17685 06ba 30       		.byte	0x30
 17686 06bb 9F       		.byte	0x9f
 17687 06bc 00000000 		.4byte	0
 17688 06c0 00000000 		.4byte	0
 17689              	.LVUS22:
 17690 06c4 01       		.uleb128 .LVU259
 17691 06c5 00       		.uleb128 .LVU261
 17692              	.LLST22:
 17693 06c6 A0010000 		.4byte	.LVL59
 17694 06ca A5010000 		.4byte	.LVL60-1
 17695 06ce 0100     		.2byte	0x1
 17696 06d0 50       		.byte	0x50
 17697 06d1 00000000 		.4byte	0
 17698 06d5 00000000 		.4byte	0
 17699              	.LVUS23:
 17700 06d9 0B       		.uleb128 .LVU276
 17701 06da 00       		.uleb128 .LVU278
 17702              	.LLST23:
 17703 06db AA010000 		.4byte	.LVL61
 17704 06df B0010000 		.4byte	.LVL62
 17705 06e3 0200     		.2byte	0x2
 17706 06e5 30       		.byte	0x30
 17707 06e6 9F       		.byte	0x9f
 17708 06e7 00000000 		.4byte	0
 17709 06eb 00000000 		.4byte	0
 17710              	.LVUS24:
 17711 06ef 00       		.uleb128 .LVU83
 17712 06f0 03       		.uleb128 .LVU86
 17713 06f1 03       		.uleb128 .LVU86
 17714 06f2 00       		.uleb128 .LVU89
 17715 06f3 00       		.uleb128 .LVU89
ARM GAS  C:\Users\USER\AppData\Local\Temp\ccRejSya.s 			page 312


 17716 06f4 00       		.uleb128 .LVU107
 17717 06f5 00       		.uleb128 .LVU107
 17718 06f6 01       		.uleb128 .LVU113
 17719 06f7 01       		.uleb128 .LVU113
 17720 06f8 00       		.uleb128 .LVU117
 17721              	.LLST24:
 17722 06f9 80000000 		.4byte	.LVL15
 17723 06fd 80000000 		.4byte	.LVL15
 17724 0701 0200     		.2byte	0x2
 17725 0703 38       		.byte	0x38
 17726 0704 9F       		.byte	0x9f
 17727 0705 80000000 		.4byte	.LVL15
 17728 0709 88000000 		.4byte	.LVL17
 17729 070d 0200     		.2byte	0x2
 17730 070f 32       		.byte	0x32
 17731 0710 9F       		.byte	0x9f
 17732 0711 88000000 		.4byte	.LVL17
 17733 0715 A2000000 		.4byte	.LVL23
 17734 0719 0100     		.2byte	0x1
 17735 071b 51       		.byte	0x51
 17736 071c A2000000 		.4byte	.LVL23
 17737 0720 AA000000 		.4byte	.LVL24
 17738 0724 0200     		.2byte	0x2
 17739 0726 30       		.byte	0x30
 17740 0727 9F       		.byte	0x9f
 17741 0728 AA000000 		.4byte	.LVL24
 17742 072c B0000000 		.4byte	.LVL25
 17743 0730 0100     		.2byte	0x1
 17744 0732 51       		.byte	0x51
 17745 0733 00000000 		.4byte	0
 17746 0737 00000000 		.4byte	0
 17747              	.LVUS25:
 17748 073b 00       		.uleb128 .LVU99
 17749 073c 01       		.uleb128 .LVU100
 17750              	.LLST25:
 17751 073d 96000000 		.4byte	.LVL20
 17752 0741 96000000 		.4byte	.LVL20
 17753 0745 0100     		.2byte	0x1
 17754 0747 50       		.byte	0x50
 17755 0748 00000000 		.4byte	0
 17756 074c 00000000 		.4byte	0
 17757              	.LVUS26:
 17758 0750 00       		.uleb128 .LVU83
 17759 0751 00       		.uleb128 .LVU96
 17760 0752 00       		.uleb128 .LVU96
 17761 0753 01       		.uleb128 .LVU97
 17762 0754 01       		.uleb128 .LVU97
 17763 0755 00       		.uleb128 .LVU117
 17764              	.LLST26:
 17765 0756 80000000 		.4byte	.LVL15
 17766 075a 94000000 		.4byte	.LVL19
 17767 075e 0100     		.2byte	0x1
 17768 0760 54       		.byte	0x54
 17769 0761 94000000 		.4byte	.LVL19
 17770 0765 94000000 		.4byte	.LVL19
 17771 0769 0300     		.2byte	0x3
 17772 076b 74       		.byte	0x74
ARM GAS  C:\Users\USER\AppData\Local\Temp\ccRejSya.s 			page 313


 17773 076c 7C       		.sleb128 -4
 17774 076d 9F       		.byte	0x9f
 17775 076e 94000000 		.4byte	.LVL19
 17776 0772 B0000000 		.4byte	.LVL25
 17777 0776 0100     		.2byte	0x1
 17778 0778 54       		.byte	0x54
 17779 0779 00000000 		.4byte	0
 17780 077d 00000000 		.4byte	0
 17781              	.LVUS27:
 17782 0781 00       		.uleb128 .LVU83
 17783 0782 00       		.uleb128 .LVU88
 17784 0783 00       		.uleb128 .LVU88
 17785 0784 00       		.uleb128 .LVU117
 17786              	.LLST27:
 17787 0785 80000000 		.4byte	.LVL15
 17788 0789 86000000 		.4byte	.LVL16
 17789 078d 0400     		.2byte	0x4
 17790 078f 72       		.byte	0x72
 17791 0790 8020     		.sleb128 4096
 17792 0792 9F       		.byte	0x9f
 17793 0793 86000000 		.4byte	.LVL16
 17794 0797 B0000000 		.4byte	.LVL25
 17795 079b 0100     		.2byte	0x1
 17796 079d 52       		.byte	0x52
 17797 079e 00000000 		.4byte	0
 17798 07a2 00000000 		.4byte	0
 17799              	.LVUS28:
 17800 07a6 00       		.uleb128 .LVU91
 17801 07a7 00       		.uleb128 .LVU102
 17802 07a8 00       		.uleb128 .LVU104
 17803 07a9 00       		.uleb128 .LVU112
 17804              	.LLST28:
 17805 07aa 8A000000 		.4byte	.LVL18
 17806 07ae 9A000000 		.4byte	.LVL21
 17807 07b2 0100     		.2byte	0x1
 17808 07b4 56       		.byte	0x56
 17809 07b5 9C000000 		.4byte	.LVL22
 17810 07b9 AA000000 		.4byte	.LVL24
 17811 07bd 0100     		.2byte	0x1
 17812 07bf 56       		.byte	0x56
 17813 07c0 00000000 		.4byte	0
 17814 07c4 00000000 		.4byte	0
 17815              	.LVUS29:
 17816 07c8 00       		.uleb128 .LVU128
 17817 07c9 00       		.uleb128 .LVU136
 17818 07ca 00       		.uleb128 .LVU136
 17819 07cb 00       		.uleb128 .LVU152
 17820 07cc 00       		.uleb128 .LVU186
 17821 07cd 01       		.uleb128 .LVU191
 17822 07ce 01       		.uleb128 .LVU191
 17823 07cf 00       		.uleb128 .LVU194
 17824              	.LLST29:
 17825 07d0 CC000000 		.4byte	.LVL28
 17826 07d4 DA000000 		.4byte	.LVL30
 17827 07d8 0700     		.2byte	0x7
 17828 07da 77       		.byte	0x77
 17829 07db 04       		.sleb128 4
ARM GAS  C:\Users\USER\AppData\Local\Temp\ccRejSya.s 			page 314


 17830 07dc 06       		.byte	0x6
 17831 07dd 7E       		.byte	0x7e
 17832 07de 00       		.sleb128 0
 17833 07df 1C       		.byte	0x1c
 17834 07e0 9F       		.byte	0x9f
 17835 07e1 DA000000 		.4byte	.LVL30
 17836 07e5 F8000000 		.4byte	.LVL37
 17837 07e9 0100     		.2byte	0x1
 17838 07eb 51       		.byte	0x51
 17839 07ec 32010000 		.4byte	.LVL45
 17840 07f0 3C010000 		.4byte	.LVL47
 17841 07f4 0200     		.2byte	0x2
 17842 07f6 30       		.byte	0x30
 17843 07f7 9F       		.byte	0x9f
 17844 07f8 3C010000 		.4byte	.LVL47
 17845 07fc 42010000 		.4byte	.LVL48
 17846 0800 0100     		.2byte	0x1
 17847 0802 51       		.byte	0x51
 17848 0803 00000000 		.4byte	0
 17849 0807 00000000 		.4byte	0
 17850              	.LVUS30:
 17851 080b 00       		.uleb128 .LVU128
 17852 080c 00       		.uleb128 .LVU132
 17853 080d 00       		.uleb128 .LVU139
 17854 080e 00       		.uleb128 .LVU145
 17855 080f 00       		.uleb128 .LVU145
 17856 0810 01       		.uleb128 .LVU150
 17857 0811 00       		.uleb128 .LVU186
 17858 0812 01       		.uleb128 .LVU187
 17859 0813 01       		.uleb128 .LVU187
 17860 0814 00       		.uleb128 .LVU189
 17861 0815 00       		.uleb128 .LVU189
 17862 0816 02       		.uleb128 .LVU192
 17863              	.LLST30:
 17864 0817 CC000000 		.4byte	.LVL28
 17865 081b D0000000 		.4byte	.LVL29
 17866 081f 0100     		.2byte	0x1
 17867 0821 54       		.byte	0x54
 17868 0822 E4000000 		.4byte	.LVL32
 17869 0826 EE000000 		.4byte	.LVL34
 17870 082a 0100     		.2byte	0x1
 17871 082c 53       		.byte	0x53
 17872 082d EE000000 		.4byte	.LVL34
 17873 0831 F4000000 		.4byte	.LVL36
 17874 0835 0300     		.2byte	0x3
 17875 0837 73       		.byte	0x73
 17876 0838 01       		.sleb128 1
 17877 0839 9F       		.byte	0x9f
 17878 083a 32010000 		.4byte	.LVL45
 17879 083e 32010000 		.4byte	.LVL45
 17880 0842 0100     		.2byte	0x1
 17881 0844 53       		.byte	0x53
 17882 0845 32010000 		.4byte	.LVL45
 17883 0849 38010000 		.4byte	.LVL46
 17884 084d 0300     		.2byte	0x3
 17885 084f 73       		.byte	0x73
 17886 0850 7F       		.sleb128 -1
ARM GAS  C:\Users\USER\AppData\Local\Temp\ccRejSya.s 			page 315


 17887 0851 9F       		.byte	0x9f
 17888 0852 38010000 		.4byte	.LVL46
 17889 0856 3C010000 		.4byte	.LVL47
 17890 085a 0100     		.2byte	0x1
 17891 085c 56       		.byte	0x56
 17892 085d 00000000 		.4byte	0
 17893 0861 00000000 		.4byte	0
 17894              	.LVUS31:
 17895 0865 00       		.uleb128 .LVU128
 17896 0866 00       		.uleb128 .LVU139
 17897 0867 00       		.uleb128 .LVU139
 17898 0868 00       		.uleb128 .LVU146
 17899 0869 00       		.uleb128 .LVU146
 17900 086a 01       		.uleb128 .LVU147
 17901 086b 01       		.uleb128 .LVU147
 17902 086c 00       		.uleb128 .LVU152
 17903 086d 00       		.uleb128 .LVU186
 17904 086e 00       		.uleb128 .LVU194
 17905              	.LLST31:
 17906 086f CC000000 		.4byte	.LVL28
 17907 0873 E4000000 		.4byte	.LVL32
 17908 0877 0200     		.2byte	0x2
 17909 0879 77       		.byte	0x77
 17910 087a 0C       		.sleb128 12
 17911 087b E4000000 		.4byte	.LVL32
 17912 087f F2000000 		.4byte	.LVL35
 17913 0883 0100     		.2byte	0x1
 17914 0885 5C       		.byte	0x5c
 17915 0886 F2000000 		.4byte	.LVL35
 17916 088a F2000000 		.4byte	.LVL35
 17917 088e 0300     		.2byte	0x3
 17918 0890 7C       		.byte	0x7c
 17919 0891 7C       		.sleb128 -4
 17920 0892 9F       		.byte	0x9f
 17921 0893 F2000000 		.4byte	.LVL35
 17922 0897 F8000000 		.4byte	.LVL37
 17923 089b 0100     		.2byte	0x1
 17924 089d 5C       		.byte	0x5c
 17925 089e 32010000 		.4byte	.LVL45
 17926 08a2 42010000 		.4byte	.LVL48
 17927 08a6 0100     		.2byte	0x1
 17928 08a8 5C       		.byte	0x5c
 17929 08a9 00000000 		.4byte	0
 17930 08ad 00000000 		.4byte	0
 17931              	.LVUS32:
 17932 08b1 00       		.uleb128 .LVU128
 17933 08b2 00       		.uleb128 .LVU138
 17934 08b3 00       		.uleb128 .LVU138
 17935 08b4 00       		.uleb128 .LVU139
 17936 08b5 00       		.uleb128 .LVU139
 17937 08b6 00       		.uleb128 .LVU152
 17938 08b7 00       		.uleb128 .LVU186
 17939 08b8 00       		.uleb128 .LVU194
 17940              	.LLST32:
 17941 08b9 CC000000 		.4byte	.LVL28
 17942 08bd E0000000 		.4byte	.LVL31
 17943 08c1 0400     		.2byte	0x4
ARM GAS  C:\Users\USER\AppData\Local\Temp\ccRejSya.s 			page 316


 17944 08c3 72       		.byte	0x72
 17945 08c4 8020     		.sleb128 4096
 17946 08c6 9F       		.byte	0x9f
 17947 08c7 E0000000 		.4byte	.LVL31
 17948 08cb E4000000 		.4byte	.LVL32
 17949 08cf 0100     		.2byte	0x1
 17950 08d1 52       		.byte	0x52
 17951 08d2 E4000000 		.4byte	.LVL32
 17952 08d6 F8000000 		.4byte	.LVL37
 17953 08da 0100     		.2byte	0x1
 17954 08dc 58       		.byte	0x58
 17955 08dd 32010000 		.4byte	.LVL45
 17956 08e1 42010000 		.4byte	.LVL48
 17957 08e5 0100     		.2byte	0x1
 17958 08e7 58       		.byte	0x58
 17959 08e8 00000000 		.4byte	0
 17960 08ec 00000000 		.4byte	0
 17961              	.LVUS33:
 17962 08f0 00       		.uleb128 .LVU142
 17963 08f1 00       		.uleb128 .LVU152
 17964 08f2 00       		.uleb128 .LVU186
 17965 08f3 00       		.uleb128 .LVU190
 17966              	.LLST33:
 17967 08f4 E8000000 		.4byte	.LVL33
 17968 08f8 F8000000 		.4byte	.LVL37
 17969 08fc 0100     		.2byte	0x1
 17970 08fe 52       		.byte	0x52
 17971 08ff 32010000 		.4byte	.LVL45
 17972 0903 3C010000 		.4byte	.LVL47
 17973 0907 0100     		.2byte	0x1
 17974 0909 52       		.byte	0x52
 17975 090a 00000000 		.4byte	0
 17976 090e 00000000 		.4byte	0
 17977              	.LVUS34:
 17978 0912 0C       		.uleb128 .LVU57
 17979 0913 00       		.uleb128 .LVU59
 17980              	.LLST34:
 17981 0914 46000000 		.4byte	.LVL6
 17982 0918 4C000000 		.4byte	.LVL7
 17983 091c 0200     		.2byte	0x2
 17984 091e 30       		.byte	0x30
 17985 091f 9F       		.byte	0x9f
 17986 0920 00000000 		.4byte	0
 17987 0924 00000000 		.4byte	0
 17988              	.LVUS35:
 17989 0928 07       		.uleb128 .LVU181
 17990 0929 00       		.uleb128 .LVU183
 17991              	.LLST35:
 17992 092a 2A010000 		.4byte	.LVL43
 17993 092e 30010000 		.4byte	.LVL44
 17994 0932 0300     		.2byte	0x3
 17995 0934 08       		.byte	0x8
 17996 0935 20       		.byte	0x20
 17997 0936 9F       		.byte	0x9f
 17998 0937 00000000 		.4byte	0
 17999 093b 00000000 		.4byte	0
 18000              	.LVUS3:
ARM GAS  C:\Users\USER\AppData\Local\Temp\ccRejSya.s 			page 317


 18001 093f 01       		.uleb128 .LVU9
 18002 0940 00       		.uleb128 .LVU12
 18003              	.LLST3:
 18004 0941 0C000000 		.4byte	.LVL2
 18005 0945 0E000000 		.4byte	.LVL3
 18006 0949 0600     		.2byte	0x6
 18007 094b 03       		.byte	0x3
 18008 094c 00000000 		.4byte	.LC0
 18009 0950 9F       		.byte	0x9f
 18010 0951 00000000 		.4byte	0
 18011 0955 00000000 		.4byte	0
 18012              	.LVUS4:
 18013 0959 08       		.uleb128 .LVU20
 18014 095a 00       		.uleb128 .LVU24
 18015              	.LLST4:
 18016 095b 0E000000 		.4byte	.LVL3
 18017 095f 16000000 		.4byte	.LVL4
 18018 0963 0300     		.2byte	0x3
 18019 0965 08       		.byte	0x8
 18020 0966 20       		.byte	0x20
 18021 0967 9F       		.byte	0x9f
 18022 0968 00000000 		.4byte	0
 18023 096c 00000000 		.4byte	0
 18024              	.LVUS150:
 18025 0970 00       		.uleb128 0
 18026 0971 00       		.uleb128 .LVU1389
 18027 0972 00       		.uleb128 .LVU1389
 18028 0973 00       		.uleb128 0
 18029              	.LLST150:
 18030 0974 00000000 		.4byte	.LVL286
 18031 0978 06000000 		.4byte	.LVL287
 18032 097c 0100     		.2byte	0x1
 18033 097e 51       		.byte	0x51
 18034 097f 06000000 		.4byte	.LVL287
 18035 0983 14000000 		.4byte	.LFE291
 18036 0987 0400     		.2byte	0x4
 18037 0989 F3       		.byte	0xf3
 18038 098a 01       		.uleb128 0x1
 18039 098b 51       		.byte	0x51
 18040 098c 9F       		.byte	0x9f
 18041 098d 00000000 		.4byte	0
 18042 0991 00000000 		.4byte	0
 18043              	.LVUS149:
 18044 0995 00       		.uleb128 0
 18045 0996 00       		.uleb128 .LVU1385
 18046 0997 00       		.uleb128 .LVU1385
 18047 0998 00       		.uleb128 0
 18048              	.LLST149:
 18049 0999 00000000 		.4byte	.LVL284
 18050 099d 06000000 		.4byte	.LVL285
 18051 09a1 0100     		.2byte	0x1
 18052 09a3 51       		.byte	0x51
 18053 09a4 06000000 		.4byte	.LVL285
 18054 09a8 14000000 		.4byte	.LFE290
 18055 09ac 0400     		.2byte	0x4
 18056 09ae F3       		.byte	0xf3
 18057 09af 01       		.uleb128 0x1
ARM GAS  C:\Users\USER\AppData\Local\Temp\ccRejSya.s 			page 318


 18058 09b0 51       		.byte	0x51
 18059 09b1 9F       		.byte	0x9f
 18060 09b2 00000000 		.4byte	0
 18061 09b6 00000000 		.4byte	0
 18062              	.LVUS148:
 18063 09ba 00       		.uleb128 0
 18064 09bb 00       		.uleb128 .LVU1381
 18065 09bc 00       		.uleb128 .LVU1381
 18066 09bd 00       		.uleb128 0
 18067              	.LLST148:
 18068 09be 00000000 		.4byte	.LVL282
 18069 09c2 06000000 		.4byte	.LVL283
 18070 09c6 0100     		.2byte	0x1
 18071 09c8 51       		.byte	0x51
 18072 09c9 06000000 		.4byte	.LVL283
 18073 09cd 14000000 		.4byte	.LFE289
 18074 09d1 0400     		.2byte	0x4
 18075 09d3 F3       		.byte	0xf3
 18076 09d4 01       		.uleb128 0x1
 18077 09d5 51       		.byte	0x51
 18078 09d6 9F       		.byte	0x9f
 18079 09d7 00000000 		.4byte	0
 18080 09db 00000000 		.4byte	0
 18081              	.LVUS147:
 18082 09df 00       		.uleb128 0
 18083 09e0 00       		.uleb128 .LVU1377
 18084 09e1 00       		.uleb128 .LVU1377
 18085 09e2 00       		.uleb128 0
 18086              	.LLST147:
 18087 09e3 00000000 		.4byte	.LVL280
 18088 09e7 06000000 		.4byte	.LVL281
 18089 09eb 0100     		.2byte	0x1
 18090 09ed 51       		.byte	0x51
 18091 09ee 06000000 		.4byte	.LVL281
 18092 09f2 14000000 		.4byte	.LFE288
 18093 09f6 0400     		.2byte	0x4
 18094 09f8 F3       		.byte	0xf3
 18095 09f9 01       		.uleb128 0x1
 18096 09fa 51       		.byte	0x51
 18097 09fb 9F       		.byte	0x9f
 18098 09fc 00000000 		.4byte	0
 18099 0a00 00000000 		.4byte	0
 18100              	.LVUS121:
 18101 0a04 00       		.uleb128 0
 18102 0a05 00       		.uleb128 .LVU1092
 18103 0a06 00       		.uleb128 .LVU1092
 18104 0a07 00       		.uleb128 0
 18105              	.LLST121:
 18106 0a08 00000000 		.4byte	.LVL222
 18107 0a0c 0C000000 		.4byte	.LVL223
 18108 0a10 0100     		.2byte	0x1
 18109 0a12 50       		.byte	0x50
 18110 0a13 0C000000 		.4byte	.LVL223
 18111 0a17 4A000000 		.4byte	.LFE285
 18112 0a1b 0400     		.2byte	0x4
 18113 0a1d F3       		.byte	0xf3
 18114 0a1e 01       		.uleb128 0x1
ARM GAS  C:\Users\USER\AppData\Local\Temp\ccRejSya.s 			page 319


 18115 0a1f 50       		.byte	0x50
 18116 0a20 9F       		.byte	0x9f
 18117 0a21 00000000 		.4byte	0
 18118 0a25 00000000 		.4byte	0
 18119              	.LVUS122:
 18120 0a29 00       		.uleb128 0
 18121 0a2a 00       		.uleb128 .LVU1111
 18122 0a2b 00       		.uleb128 .LVU1111
 18123 0a2c 00       		.uleb128 0
 18124              	.LLST122:
 18125 0a2d 00000000 		.4byte	.LVL222
 18126 0a31 3A000000 		.4byte	.LVL226
 18127 0a35 0100     		.2byte	0x1
 18128 0a37 51       		.byte	0x51
 18129 0a38 3A000000 		.4byte	.LVL226
 18130 0a3c 4A000000 		.4byte	.LFE285
 18131 0a40 0400     		.2byte	0x4
 18132 0a42 F3       		.byte	0xf3
 18133 0a43 01       		.uleb128 0x1
 18134 0a44 51       		.byte	0x51
 18135 0a45 9F       		.byte	0x9f
 18136 0a46 00000000 		.4byte	0
 18137 0a4a 00000000 		.4byte	0
 18138              	.LVUS123:
 18139 0a4e 00       		.uleb128 .LVU1092
 18140 0a4f 00       		.uleb128 .LVU1107
 18141 0a50 00       		.uleb128 .LVU1107
 18142 0a51 00       		.uleb128 .LVU1109
 18143 0a52 00       		.uleb128 .LVU1109
 18144 0a53 00       		.uleb128 .LVU1111
 18145              	.LLST123:
 18146 0a54 0C000000 		.4byte	.LVL223
 18147 0a58 30000000 		.4byte	.LVL224
 18148 0a5c 0100     		.2byte	0x1
 18149 0a5e 50       		.byte	0x50
 18150 0a5f 30000000 		.4byte	.LVL224
 18151 0a63 34000000 		.4byte	.LVL225
 18152 0a67 0200     		.2byte	0x2
 18153 0a69 74       		.byte	0x74
 18154 0a6a 14       		.sleb128 20
 18155 0a6b 34000000 		.4byte	.LVL225
 18156 0a6f 3A000000 		.4byte	.LVL226
 18157 0a73 0D00     		.2byte	0xd
 18158 0a75 71       		.byte	0x71
 18159 0a76 00       		.sleb128 0
 18160 0a77 32       		.byte	0x32
 18161 0a78 24       		.byte	0x24
 18162 0a79 F3       		.byte	0xf3
 18163 0a7a 01       		.uleb128 0x1
 18164 0a7b 50       		.byte	0x50
 18165 0a7c 22       		.byte	0x22
 18166 0a7d 23       		.byte	0x23
 18167 0a7e 0C       		.uleb128 0xc
 18168 0a7f 06       		.byte	0x6
 18169 0a80 23       		.byte	0x23
 18170 0a81 14       		.uleb128 0x14
 18171 0a82 00000000 		.4byte	0
ARM GAS  C:\Users\USER\AppData\Local\Temp\ccRejSya.s 			page 320


 18172 0a86 00000000 		.4byte	0
 18173              	.LVUS124:
 18174 0a8a 00       		.uleb128 .LVU1107
 18175 0a8b 00       		.uleb128 .LVU1114
 18176              	.LLST124:
 18177 0a8c 30000000 		.4byte	.LVL224
 18178 0a90 44000000 		.4byte	.LVL227
 18179 0a94 1100     		.2byte	0x11
 18180 0a96 70       		.byte	0x70
 18181 0a97 00       		.sleb128 0
 18182 0a98 73       		.byte	0x73
 18183 0a99 00       		.sleb128 0
 18184 0a9a 22       		.byte	0x22
 18185 0a9b 31       		.byte	0x31
 18186 0a9c 1C       		.byte	0x1c
 18187 0a9d F7       		.byte	0xf7
 18188 0a9e 25       		.uleb128 0x25
 18189 0a9f 70       		.byte	0x70
 18190 0aa0 00       		.sleb128 0
 18191 0aa1 F7       		.byte	0xf7
 18192 0aa2 25       		.uleb128 0x25
 18193 0aa3 1B       		.byte	0x1b
 18194 0aa4 F7       		.byte	0xf7
 18195 0aa5 00       		.uleb128 0
 18196 0aa6 9F       		.byte	0x9f
 18197 0aa7 00000000 		.4byte	0
 18198 0aab 00000000 		.4byte	0
 18199              	.LVUS110:
 18200 0aaf 00       		.uleb128 0
 18201 0ab0 00       		.uleb128 .LVU1008
 18202 0ab1 00       		.uleb128 .LVU1008
 18203 0ab2 00       		.uleb128 0
 18204              	.LLST110:
 18205 0ab3 00000000 		.4byte	.LVL198
 18206 0ab7 1C000000 		.4byte	.LVL201
 18207 0abb 0100     		.2byte	0x1
 18208 0abd 50       		.byte	0x50
 18209 0abe 1C000000 		.4byte	.LVL201
 18210 0ac2 3A000000 		.4byte	.LFE284
 18211 0ac6 0400     		.2byte	0x4
 18212 0ac8 F3       		.byte	0xf3
 18213 0ac9 01       		.uleb128 0x1
 18214 0aca 50       		.byte	0x50
 18215 0acb 9F       		.byte	0x9f
 18216 0acc 00000000 		.4byte	0
 18217 0ad0 00000000 		.4byte	0
 18218              	.LVUS111:
 18219 0ad4 00       		.uleb128 .LVU1006
 18220 0ad5 00       		.uleb128 .LVU1013
 18221              	.LLST111:
 18222 0ad6 1A000000 		.4byte	.LVL200
 18223 0ada 2C000000 		.4byte	.LVL203
 18224 0ade 1100     		.2byte	0x11
 18225 0ae0 73       		.byte	0x73
 18226 0ae1 00       		.sleb128 0
 18227 0ae2 74       		.byte	0x74
 18228 0ae3 00       		.sleb128 0
ARM GAS  C:\Users\USER\AppData\Local\Temp\ccRejSya.s 			page 321


 18229 0ae4 22       		.byte	0x22
 18230 0ae5 31       		.byte	0x31
 18231 0ae6 1C       		.byte	0x1c
 18232 0ae7 F7       		.byte	0xf7
 18233 0ae8 25       		.uleb128 0x25
 18234 0ae9 74       		.byte	0x74
 18235 0aea 00       		.sleb128 0
 18236 0aeb F7       		.byte	0xf7
 18237 0aec 25       		.uleb128 0x25
 18238 0aed 1B       		.byte	0x1b
 18239 0aee F7       		.byte	0xf7
 18240 0aef 00       		.uleb128 0
 18241 0af0 9F       		.byte	0x9f
 18242 0af1 00000000 		.4byte	0
 18243 0af5 00000000 		.4byte	0
 18244              	.LVUS112:
 18245 0af9 00       		.uleb128 .LVU996
 18246 0afa 00       		.uleb128 .LVU1009
 18247 0afb 00       		.uleb128 .LVU1009
 18248 0afc 00       		.uleb128 0
 18249              	.LLST112:
 18250 0afd 0A000000 		.4byte	.LVL199
 18251 0b01 1E000000 		.4byte	.LVL202
 18252 0b05 0100     		.2byte	0x1
 18253 0b07 52       		.byte	0x52
 18254 0b08 1E000000 		.4byte	.LVL202
 18255 0b0c 3A000000 		.4byte	.LFE284
 18256 0b10 0D00     		.2byte	0xd
 18257 0b12 71       		.byte	0x71
 18258 0b13 00       		.sleb128 0
 18259 0b14 32       		.byte	0x32
 18260 0b15 24       		.byte	0x24
 18261 0b16 F3       		.byte	0xf3
 18262 0b17 01       		.uleb128 0x1
 18263 0b18 50       		.byte	0x50
 18264 0b19 22       		.byte	0x22
 18265 0b1a 23       		.byte	0x23
 18266 0b1b 0C       		.uleb128 0xc
 18267 0b1c 06       		.byte	0x6
 18268 0b1d 23       		.byte	0x23
 18269 0b1e 18       		.uleb128 0x18
 18270 0b1f 00000000 		.4byte	0
 18271 0b23 00000000 		.4byte	0
 18272              	.LVUS109:
 18273 0b27 00       		.uleb128 0
 18274 0b28 00       		.uleb128 .LVU986
 18275 0b29 00       		.uleb128 .LVU986
 18276 0b2a 00       		.uleb128 0
 18277              	.LLST109:
 18278 0b2b 00000000 		.4byte	.LVL196
 18279 0b2f 04000000 		.4byte	.LVL197
 18280 0b33 0100     		.2byte	0x1
 18281 0b35 51       		.byte	0x51
 18282 0b36 04000000 		.4byte	.LVL197
 18283 0b3a 12000000 		.4byte	.LFE283
 18284 0b3e 0400     		.2byte	0x4
 18285 0b40 F3       		.byte	0xf3
ARM GAS  C:\Users\USER\AppData\Local\Temp\ccRejSya.s 			page 322


 18286 0b41 01       		.uleb128 0x1
 18287 0b42 51       		.byte	0x51
 18288 0b43 9F       		.byte	0x9f
 18289 0b44 00000000 		.4byte	0
 18290 0b48 00000000 		.4byte	0
 18291              	.LVUS106:
 18292 0b4c 00       		.uleb128 0
 18293 0b4d 00       		.uleb128 .LVU978
 18294 0b4e 00       		.uleb128 .LVU978
 18295 0b4f 00       		.uleb128 0
 18296              	.LLST106:
 18297 0b50 00000000 		.4byte	.LVL192
 18298 0b54 0C000000 		.4byte	.LVL195
 18299 0b58 0100     		.2byte	0x1
 18300 0b5a 50       		.byte	0x50
 18301 0b5b 0C000000 		.4byte	.LVL195
 18302 0b5f 1A000000 		.4byte	.LFE282
 18303 0b63 0400     		.2byte	0x4
 18304 0b65 F3       		.byte	0xf3
 18305 0b66 01       		.uleb128 0x1
 18306 0b67 50       		.byte	0x50
 18307 0b68 9F       		.byte	0x9f
 18308 0b69 00000000 		.4byte	0
 18309 0b6d 00000000 		.4byte	0
 18310              	.LVUS107:
 18311 0b71 00       		.uleb128 0
 18312 0b72 00       		.uleb128 .LVU974
 18313 0b73 00       		.uleb128 .LVU974
 18314 0b74 00       		.uleb128 0
 18315              	.LLST107:
 18316 0b75 00000000 		.4byte	.LVL192
 18317 0b79 02000000 		.4byte	.LVL193
 18318 0b7d 0100     		.2byte	0x1
 18319 0b7f 51       		.byte	0x51
 18320 0b80 02000000 		.4byte	.LVL193
 18321 0b84 1A000000 		.4byte	.LFE282
 18322 0b88 0400     		.2byte	0x4
 18323 0b8a F3       		.byte	0xf3
 18324 0b8b 01       		.uleb128 0x1
 18325 0b8c 51       		.byte	0x51
 18326 0b8d 9F       		.byte	0x9f
 18327 0b8e 00000000 		.4byte	0
 18328 0b92 00000000 		.4byte	0
 18329              	.LVUS108:
 18330 0b96 00       		.uleb128 .LVU976
 18331 0b97 00       		.uleb128 0
 18332              	.LLST108:
 18333 0b98 08000000 		.4byte	.LVL194
 18334 0b9c 1A000000 		.4byte	.LFE282
 18335 0ba0 0100     		.2byte	0x1
 18336 0ba2 53       		.byte	0x53
 18337 0ba3 00000000 		.4byte	0
 18338 0ba7 00000000 		.4byte	0
 18339              	.LVUS103:
 18340 0bab 00       		.uleb128 0
 18341 0bac 00       		.uleb128 .LVU964
 18342 0bad 00       		.uleb128 .LVU964
ARM GAS  C:\Users\USER\AppData\Local\Temp\ccRejSya.s 			page 323


 18343 0bae 00       		.uleb128 0
 18344              	.LLST103:
 18345 0baf 00000000 		.4byte	.LVL188
 18346 0bb3 0C000000 		.4byte	.LVL191
 18347 0bb7 0100     		.2byte	0x1
 18348 0bb9 50       		.byte	0x50
 18349 0bba 0C000000 		.4byte	.LVL191
 18350 0bbe 1A000000 		.4byte	.LFE281
 18351 0bc2 0400     		.2byte	0x4
 18352 0bc4 F3       		.byte	0xf3
 18353 0bc5 01       		.uleb128 0x1
 18354 0bc6 50       		.byte	0x50
 18355 0bc7 9F       		.byte	0x9f
 18356 0bc8 00000000 		.4byte	0
 18357 0bcc 00000000 		.4byte	0
 18358              	.LVUS104:
 18359 0bd0 00       		.uleb128 0
 18360 0bd1 00       		.uleb128 .LVU960
 18361 0bd2 00       		.uleb128 .LVU960
 18362 0bd3 00       		.uleb128 0
 18363              	.LLST104:
 18364 0bd4 00000000 		.4byte	.LVL188
 18365 0bd8 02000000 		.4byte	.LVL189
 18366 0bdc 0100     		.2byte	0x1
 18367 0bde 51       		.byte	0x51
 18368 0bdf 02000000 		.4byte	.LVL189
 18369 0be3 1A000000 		.4byte	.LFE281
 18370 0be7 0400     		.2byte	0x4
 18371 0be9 F3       		.byte	0xf3
 18372 0bea 01       		.uleb128 0x1
 18373 0beb 51       		.byte	0x51
 18374 0bec 9F       		.byte	0x9f
 18375 0bed 00000000 		.4byte	0
 18376 0bf1 00000000 		.4byte	0
 18377              	.LVUS105:
 18378 0bf5 00       		.uleb128 .LVU962
 18379 0bf6 00       		.uleb128 0
 18380              	.LLST105:
 18381 0bf7 08000000 		.4byte	.LVL190
 18382 0bfb 1A000000 		.4byte	.LFE281
 18383 0bff 0100     		.2byte	0x1
 18384 0c01 53       		.byte	0x53
 18385 0c02 00000000 		.4byte	0
 18386 0c06 00000000 		.4byte	0
 18387              	.LVUS102:
 18388 0c0a 00       		.uleb128 0
 18389 0c0b 00       		.uleb128 .LVU951
 18390 0c0c 00       		.uleb128 .LVU951
 18391 0c0d 00       		.uleb128 .LVU954
 18392 0c0e 00       		.uleb128 .LVU954
 18393 0c0f 00       		.uleb128 0
 18394              	.LLST102:
 18395 0c10 00000000 		.4byte	.LVL185
 18396 0c14 06000000 		.4byte	.LVL186
 18397 0c18 0100     		.2byte	0x1
 18398 0c1a 50       		.byte	0x50
 18399 0c1b 06000000 		.4byte	.LVL186
ARM GAS  C:\Users\USER\AppData\Local\Temp\ccRejSya.s 			page 324


 18400 0c1f 0D000000 		.4byte	.LVL187-1
 18401 0c23 0100     		.2byte	0x1
 18402 0c25 53       		.byte	0x53
 18403 0c26 0D000000 		.4byte	.LVL187-1
 18404 0c2a 0E000000 		.4byte	.LFE280
 18405 0c2e 0400     		.2byte	0x4
 18406 0c30 F3       		.byte	0xf3
 18407 0c31 01       		.uleb128 0x1
 18408 0c32 50       		.byte	0x50
 18409 0c33 9F       		.byte	0x9f
 18410 0c34 00000000 		.4byte	0
 18411 0c38 00000000 		.4byte	0
 18412              	.LVUS86:
 18413 0c3c 00       		.uleb128 0
 18414 0c3d 00       		.uleb128 .LVU905
 18415 0c3e 00       		.uleb128 .LVU905
 18416 0c3f 00       		.uleb128 .LVU920
 18417 0c40 00       		.uleb128 .LVU920
 18418 0c41 00       		.uleb128 .LVU934
 18419 0c42 00       		.uleb128 .LVU934
 18420 0c43 00       		.uleb128 .LVU943
 18421 0c44 00       		.uleb128 .LVU943
 18422 0c45 00       		.uleb128 0
 18423              	.LLST86:
 18424 0c46 00000000 		.4byte	.LVL167
 18425 0c4a AC000000 		.4byte	.LVL177
 18426 0c4e 0100     		.2byte	0x1
 18427 0c50 50       		.byte	0x50
 18428 0c51 AC000000 		.4byte	.LVL177
 18429 0c55 D6000000 		.4byte	.LVL179
 18430 0c59 0400     		.2byte	0x4
 18431 0c5b F3       		.byte	0xf3
 18432 0c5c 01       		.uleb128 0x1
 18433 0c5d 50       		.byte	0x50
 18434 0c5e 9F       		.byte	0x9f
 18435 0c5f D6000000 		.4byte	.LVL179
 18436 0c63 F2000000 		.4byte	.LVL182
 18437 0c67 0100     		.2byte	0x1
 18438 0c69 50       		.byte	0x50
 18439 0c6a F2000000 		.4byte	.LVL182
 18440 0c6e 18010000 		.4byte	.LVL184
 18441 0c72 0400     		.2byte	0x4
 18442 0c74 F3       		.byte	0xf3
 18443 0c75 01       		.uleb128 0x1
 18444 0c76 50       		.byte	0x50
 18445 0c77 9F       		.byte	0x9f
 18446 0c78 18010000 		.4byte	.LVL184
 18447 0c7c 40010000 		.4byte	.LFE279
 18448 0c80 0100     		.2byte	0x1
 18449 0c82 50       		.byte	0x50
 18450 0c83 00000000 		.4byte	0
 18451 0c87 00000000 		.4byte	0
 18452              	.LVUS87:
 18453 0c8b 00       		.uleb128 0
 18454 0c8c 00       		.uleb128 .LVU850
 18455 0c8d 00       		.uleb128 .LVU850
 18456 0c8e 00       		.uleb128 0
ARM GAS  C:\Users\USER\AppData\Local\Temp\ccRejSya.s 			page 325


 18457              	.LLST87:
 18458 0c8f 00000000 		.4byte	.LVL167
 18459 0c93 1C000000 		.4byte	.LVL169
 18460 0c97 0100     		.2byte	0x1
 18461 0c99 51       		.byte	0x51
 18462 0c9a 1C000000 		.4byte	.LVL169
 18463 0c9e 40010000 		.4byte	.LFE279
 18464 0ca2 0400     		.2byte	0x4
 18465 0ca4 F3       		.byte	0xf3
 18466 0ca5 01       		.uleb128 0x1
 18467 0ca6 51       		.byte	0x51
 18468 0ca7 9F       		.byte	0x9f
 18469 0ca8 00000000 		.4byte	0
 18470 0cac 00000000 		.4byte	0
 18471              	.LVUS88:
 18472 0cb0 00       		.uleb128 .LVU852
 18473 0cb1 00       		.uleb128 0
 18474              	.LLST88:
 18475 0cb2 2C000000 		.4byte	.LVL170
 18476 0cb6 40010000 		.4byte	.LFE279
 18477 0cba 0100     		.2byte	0x1
 18478 0cbc 58       		.byte	0x58
 18479 0cbd 00000000 		.4byte	0
 18480 0cc1 00000000 		.4byte	0
 18481              	.LVUS89:
 18482 0cc5 00       		.uleb128 .LVU874
 18483 0cc6 00       		.uleb128 .LVU887
 18484              	.LLST89:
 18485 0cc7 88000000 		.4byte	.LVL171
 18486 0ccb 9C000000 		.4byte	.LVL173
 18487 0ccf 0100     		.2byte	0x1
 18488 0cd1 53       		.byte	0x53
 18489 0cd2 00000000 		.4byte	0
 18490 0cd6 00000000 		.4byte	0
 18491              	.LVUS90:
 18492 0cda 02       		.uleb128 .LVU848
 18493 0cdb 00       		.uleb128 0
 18494              	.LLST90:
 18495 0cdc 1A000000 		.4byte	.LVL168
 18496 0ce0 40010000 		.4byte	.LFE279
 18497 0ce4 0100     		.2byte	0x1
 18498 0ce6 54       		.byte	0x54
 18499 0ce7 00000000 		.4byte	0
 18500 0ceb 00000000 		.4byte	0
 18501              	.LVUS91:
 18502 0cef 02       		.uleb128 .LVU881
 18503 0cf0 00       		.uleb128 .LVU905
 18504 0cf1 00       		.uleb128 .LVU905
 18505 0cf2 00       		.uleb128 .LVU920
 18506              	.LLST91:
 18507 0cf3 92000000 		.4byte	.LVL172
 18508 0cf7 AC000000 		.4byte	.LVL177
 18509 0cfb 0100     		.2byte	0x1
 18510 0cfd 50       		.byte	0x50
 18511 0cfe AC000000 		.4byte	.LVL177
 18512 0d02 D6000000 		.4byte	.LVL179
 18513 0d06 0400     		.2byte	0x4
ARM GAS  C:\Users\USER\AppData\Local\Temp\ccRejSya.s 			page 326


 18514 0d08 F3       		.byte	0xf3
 18515 0d09 01       		.uleb128 0x1
 18516 0d0a 50       		.byte	0x50
 18517 0d0b 9F       		.byte	0x9f
 18518 0d0c 00000000 		.4byte	0
 18519 0d10 00000000 		.4byte	0
 18520              	.LVUS92:
 18521 0d14 01       		.uleb128 .LVU880
 18522 0d15 00       		.uleb128 .LVU887
 18523              	.LLST92:
 18524 0d16 92000000 		.4byte	.LVL172
 18525 0d1a 9C000000 		.4byte	.LVL173
 18526 0d1e 0100     		.2byte	0x1
 18527 0d20 53       		.byte	0x53
 18528 0d21 00000000 		.4byte	0
 18529 0d25 00000000 		.4byte	0
 18530              	.LVUS93:
 18531 0d29 04       		.uleb128 .LVU883
 18532 0d2a 03       		.uleb128 .LVU891
 18533              	.LLST93:
 18534 0d2b 92000000 		.4byte	.LVL172
 18535 0d2f 9E000000 		.4byte	.LVL174
 18536 0d33 0100     		.2byte	0x1
 18537 0d35 51       		.byte	0x51
 18538 0d36 00000000 		.4byte	0
 18539 0d3a 00000000 		.4byte	0
 18540              	.LVUS94:
 18541 0d3e 02       		.uleb128 .LVU895
 18542 0d3f 00       		.uleb128 .LVU905
 18543 0d40 00       		.uleb128 .LVU905
 18544 0d41 00       		.uleb128 .LVU920
 18545              	.LLST94:
 18546 0d42 A0000000 		.4byte	.LVL175
 18547 0d46 AC000000 		.4byte	.LVL177
 18548 0d4a 0100     		.2byte	0x1
 18549 0d4c 50       		.byte	0x50
 18550 0d4d AC000000 		.4byte	.LVL177
 18551 0d51 D6000000 		.4byte	.LVL179
 18552 0d55 0400     		.2byte	0x4
 18553 0d57 F3       		.byte	0xf3
 18554 0d58 01       		.uleb128 0x1
 18555 0d59 50       		.byte	0x50
 18556 0d5a 9F       		.byte	0x9f
 18557 0d5b 00000000 		.4byte	0
 18558 0d5f 00000000 		.4byte	0
 18559              	.LVUS95:
 18560 0d63 01       		.uleb128 .LVU894
 18561 0d64 00       		.uleb128 .LVU906
 18562              	.LLST95:
 18563 0d65 A0000000 		.4byte	.LVL175
 18564 0d69 B0000000 		.4byte	.LVL178
 18565 0d6d 0600     		.2byte	0x6
 18566 0d6f 75       		.byte	0x75
 18567 0d70 00       		.sleb128 0
 18568 0d71 08       		.byte	0x8
 18569 0d72 FF       		.byte	0xff
 18570 0d73 1A       		.byte	0x1a
ARM GAS  C:\Users\USER\AppData\Local\Temp\ccRejSya.s 			page 327


 18571 0d74 9F       		.byte	0x9f
 18572 0d75 00000000 		.4byte	0
 18573 0d79 00000000 		.4byte	0
 18574              	.LVUS96:
 18575 0d7d 03       		.uleb128 .LVU896
 18576 0d7e 00       		.uleb128 .LVU906
 18577              	.LLST96:
 18578 0d7f A0000000 		.4byte	.LVL175
 18579 0d83 B0000000 		.4byte	.LVL178
 18580 0d87 0100     		.2byte	0x1
 18581 0d89 54       		.byte	0x54
 18582 0d8a 00000000 		.4byte	0
 18583 0d8e 00000000 		.4byte	0
 18584              	.LVUS97:
 18585 0d92 01       		.uleb128 .LVU903
 18586 0d93 00       		.uleb128 .LVU906
 18587              	.LLST97:
 18588 0d94 AA000000 		.4byte	.LVL176
 18589 0d98 B0000000 		.4byte	.LVL178
 18590 0d9c 0200     		.2byte	0x2
 18591 0d9e 3C       		.byte	0x3c
 18592 0d9f 9F       		.byte	0x9f
 18593 0da0 00000000 		.4byte	0
 18594 0da4 00000000 		.4byte	0
 18595              	.LVUS98:
 18596 0da8 02       		.uleb128 .LVU924
 18597 0da9 00       		.uleb128 .LVU934
 18598 0daa 00       		.uleb128 .LVU934
 18599 0dab 00       		.uleb128 .LVU943
 18600              	.LLST98:
 18601 0dac E2000000 		.4byte	.LVL180
 18602 0db0 F2000000 		.4byte	.LVL182
 18603 0db4 0100     		.2byte	0x1
 18604 0db6 50       		.byte	0x50
 18605 0db7 F2000000 		.4byte	.LVL182
 18606 0dbb 18010000 		.4byte	.LVL184
 18607 0dbf 0400     		.2byte	0x4
 18608 0dc1 F3       		.byte	0xf3
 18609 0dc2 01       		.uleb128 0x1
 18610 0dc3 50       		.byte	0x50
 18611 0dc4 9F       		.byte	0x9f
 18612 0dc5 00000000 		.4byte	0
 18613 0dc9 00000000 		.4byte	0
 18614              	.LVUS99:
 18615 0dcd 01       		.uleb128 .LVU923
 18616 0dce 00       		.uleb128 .LVU935
 18617              	.LLST99:
 18618 0dcf E2000000 		.4byte	.LVL180
 18619 0dd3 F6000000 		.4byte	.LVL183
 18620 0dd7 0600     		.2byte	0x6
 18621 0dd9 75       		.byte	0x75
 18622 0dda 00       		.sleb128 0
 18623 0ddb 08       		.byte	0x8
 18624 0ddc FF       		.byte	0xff
 18625 0ddd 1A       		.byte	0x1a
 18626 0dde 9F       		.byte	0x9f
 18627 0ddf 00000000 		.4byte	0
ARM GAS  C:\Users\USER\AppData\Local\Temp\ccRejSya.s 			page 328


 18628 0de3 00000000 		.4byte	0
 18629              	.LVUS100:
 18630 0de7 03       		.uleb128 .LVU925
 18631 0de8 00       		.uleb128 .LVU935
 18632              	.LLST100:
 18633 0de9 E2000000 		.4byte	.LVL180
 18634 0ded F6000000 		.4byte	.LVL183
 18635 0df1 0100     		.2byte	0x1
 18636 0df3 54       		.byte	0x54
 18637 0df4 00000000 		.4byte	0
 18638 0df8 00000000 		.4byte	0
 18639              	.LVUS101:
 18640 0dfc 01       		.uleb128 .LVU932
 18641 0dfd 00       		.uleb128 .LVU935
 18642              	.LLST101:
 18643 0dfe EC000000 		.4byte	.LVL181
 18644 0e02 F6000000 		.4byte	.LVL183
 18645 0e06 0200     		.2byte	0x2
 18646 0e08 3C       		.byte	0x3c
 18647 0e09 9F       		.byte	0x9f
 18648 0e0a 00000000 		.4byte	0
 18649 0e0e 00000000 		.4byte	0
 18650              	.LVUS85:
 18651 0e12 00       		.uleb128 .LVU832
 18652 0e13 00       		.uleb128 0
 18653              	.LLST85:
 18654 0e14 02000000 		.4byte	.LVL166
 18655 0e18 18000000 		.4byte	.LFE278
 18656 0e1c 0100     		.2byte	0x1
 18657 0e1e 52       		.byte	0x52
 18658 0e1f 00000000 		.4byte	0
 18659 0e23 00000000 		.4byte	0
 18660              	.LVUS70:
 18661 0e27 00       		.uleb128 0
 18662 0e28 00       		.uleb128 .LVU744
 18663 0e29 00       		.uleb128 .LVU744
 18664 0e2a 00       		.uleb128 .LVU828
 18665 0e2b 00       		.uleb128 .LVU828
 18666 0e2c 00       		.uleb128 0
 18667              	.LLST70:
 18668 0e2d 00000000 		.4byte	.LVL146
 18669 0e31 14000000 		.4byte	.LVL150
 18670 0e35 0100     		.2byte	0x1
 18671 0e37 50       		.byte	0x50
 18672 0e38 14000000 		.4byte	.LVL150
 18673 0e3c C0000000 		.4byte	.LVL164
 18674 0e40 0100     		.2byte	0x1
 18675 0e42 56       		.byte	0x56
 18676 0e43 C0000000 		.4byte	.LVL164
 18677 0e47 C8000000 		.4byte	.LFE277
 18678 0e4b 0400     		.2byte	0x4
 18679 0e4d F3       		.byte	0xf3
 18680 0e4e 01       		.uleb128 0x1
 18681 0e4f 50       		.byte	0x50
 18682 0e50 9F       		.byte	0x9f
 18683 0e51 00000000 		.4byte	0
 18684 0e55 00000000 		.4byte	0
ARM GAS  C:\Users\USER\AppData\Local\Temp\ccRejSya.s 			page 329


 18685              	.LVUS71:
 18686 0e59 02       		.uleb128 .LVU747
 18687 0e5a 00       		.uleb128 .LVU752
 18688 0e5b 00       		.uleb128 .LVU752
 18689 0e5c 00       		.uleb128 .LVU753
 18690 0e5d 00       		.uleb128 .LVU753
 18691 0e5e 01       		.uleb128 .LVU762
 18692 0e5f 01       		.uleb128 .LVU762
 18693 0e60 01       		.uleb128 .LVU784
 18694              	.LLST71:
 18695 0e61 18000000 		.4byte	.LVL151
 18696 0e65 2A000000 		.4byte	.LVL152
 18697 0e69 0200     		.2byte	0x2
 18698 0e6b 30       		.byte	0x30
 18699 0e6c 9F       		.byte	0x9f
 18700 0e6d 2A000000 		.4byte	.LVL152
 18701 0e71 2C000000 		.4byte	.LVL153
 18702 0e75 0100     		.2byte	0x1
 18703 0e77 54       		.byte	0x54
 18704 0e78 2C000000 		.4byte	.LVL153
 18705 0e7c 42000000 		.4byte	.LVL154
 18706 0e80 0100     		.2byte	0x1
 18707 0e82 53       		.byte	0x53
 18708 0e83 42000000 		.4byte	.LVL154
 18709 0e87 6A000000 		.4byte	.LVL157
 18710 0e8b 0100     		.2byte	0x1
 18711 0e8d 54       		.byte	0x54
 18712 0e8e 00000000 		.4byte	0
 18713 0e92 00000000 		.4byte	0
 18714              	.LVUS72:
 18715 0e96 00       		.uleb128 .LVU730
 18716 0e97 00       		.uleb128 .LVU828
 18717              	.LLST72:
 18718 0e98 04000000 		.4byte	.LVL147
 18719 0e9c C0000000 		.4byte	.LVL164
 18720 0ea0 0100     		.2byte	0x1
 18721 0ea2 55       		.byte	0x55
 18722 0ea3 00000000 		.4byte	0
 18723 0ea7 00000000 		.4byte	0
 18724              	.LVUS73:
 18725 0eab 01       		.uleb128 .LVU734
 18726 0eac 00       		.uleb128 .LVU744
 18727 0ead 00       		.uleb128 .LVU744
 18728 0eae 00       		.uleb128 .LVU828
 18729 0eaf 00       		.uleb128 .LVU828
 18730 0eb0 00       		.uleb128 0
 18731              	.LLST73:
 18732 0eb1 08000000 		.4byte	.LVL148
 18733 0eb5 14000000 		.4byte	.LVL150
 18734 0eb9 0100     		.2byte	0x1
 18735 0ebb 50       		.byte	0x50
 18736 0ebc 14000000 		.4byte	.LVL150
 18737 0ec0 C0000000 		.4byte	.LVL164
 18738 0ec4 0100     		.2byte	0x1
 18739 0ec6 56       		.byte	0x56
 18740 0ec7 C0000000 		.4byte	.LVL164
 18741 0ecb C8000000 		.4byte	.LFE277
ARM GAS  C:\Users\USER\AppData\Local\Temp\ccRejSya.s 			page 330


 18742 0ecf 0400     		.2byte	0x4
 18743 0ed1 F3       		.byte	0xf3
 18744 0ed2 01       		.uleb128 0x1
 18745 0ed3 50       		.byte	0x50
 18746 0ed4 9F       		.byte	0x9f
 18747 0ed5 00000000 		.4byte	0
 18748 0ed9 00000000 		.4byte	0
 18749              	.LVUS74:
 18750 0edd 00       		.uleb128 .LVU733
 18751 0ede 00       		.uleb128 .LVU745
 18752              	.LLST74:
 18753 0edf 08000000 		.4byte	.LVL148
 18754 0ee3 18000000 		.4byte	.LVL151
 18755 0ee7 0200     		.2byte	0x2
 18756 0ee9 30       		.byte	0x30
 18757 0eea 9F       		.byte	0x9f
 18758 0eeb 00000000 		.4byte	0
 18759 0eef 00000000 		.4byte	0
 18760              	.LVUS75:
 18761 0ef3 02       		.uleb128 .LVU735
 18762 0ef4 00       		.uleb128 .LVU745
 18763              	.LLST75:
 18764 0ef5 08000000 		.4byte	.LVL148
 18765 0ef9 18000000 		.4byte	.LVL151
 18766 0efd 0100     		.2byte	0x1
 18767 0eff 55       		.byte	0x55
 18768 0f00 00000000 		.4byte	0
 18769 0f04 00000000 		.4byte	0
 18770              	.LVUS76:
 18771 0f08 01       		.uleb128 .LVU742
 18772 0f09 00       		.uleb128 .LVU745
 18773              	.LLST76:
 18774 0f0a 12000000 		.4byte	.LVL149
 18775 0f0e 18000000 		.4byte	.LVL151
 18776 0f12 0200     		.2byte	0x2
 18777 0f14 3C       		.byte	0x3c
 18778 0f15 9F       		.byte	0x9f
 18779 0f16 00000000 		.4byte	0
 18780 0f1a 00000000 		.4byte	0
 18781              	.LVUS77:
 18782 0f1e 02       		.uleb128 .LVU772
 18783 0f1f 00       		.uleb128 .LVU828
 18784 0f20 00       		.uleb128 .LVU828
 18785 0f21 00       		.uleb128 0
 18786              	.LLST77:
 18787 0f22 5C000000 		.4byte	.LVL155
 18788 0f26 C0000000 		.4byte	.LVL164
 18789 0f2a 0100     		.2byte	0x1
 18790 0f2c 56       		.byte	0x56
 18791 0f2d C0000000 		.4byte	.LVL164
 18792 0f31 C8000000 		.4byte	.LFE277
 18793 0f35 0400     		.2byte	0x4
 18794 0f37 F3       		.byte	0xf3
 18795 0f38 01       		.uleb128 0x1
 18796 0f39 50       		.byte	0x50
 18797 0f3a 9F       		.byte	0x9f
 18798 0f3b 00000000 		.4byte	0
ARM GAS  C:\Users\USER\AppData\Local\Temp\ccRejSya.s 			page 331


 18799 0f3f 00000000 		.4byte	0
 18800              	.LVUS78:
 18801 0f43 02       		.uleb128 .LVU772
 18802 0f44 00       		.uleb128 .LVU828
 18803 0f45 00       		.uleb128 .LVU828
 18804 0f46 00       		.uleb128 0
 18805              	.LLST78:
 18806 0f47 5C000000 		.4byte	.LVL155
 18807 0f4b C0000000 		.4byte	.LVL164
 18808 0f4f 0100     		.2byte	0x1
 18809 0f51 56       		.byte	0x56
 18810 0f52 C0000000 		.4byte	.LVL164
 18811 0f56 C8000000 		.4byte	.LFE277
 18812 0f5a 0400     		.2byte	0x4
 18813 0f5c F3       		.byte	0xf3
 18814 0f5d 01       		.uleb128 0x1
 18815 0f5e 50       		.byte	0x50
 18816 0f5f 9F       		.byte	0x9f
 18817 0f60 00000000 		.4byte	0
 18818 0f64 00000000 		.4byte	0
 18819              	.LVUS79:
 18820 0f68 02       		.uleb128 .LVU780
 18821 0f69 00       		.uleb128 .LVU828
 18822 0f6a 00       		.uleb128 .LVU828
 18823 0f6b 00       		.uleb128 0
 18824              	.LLST79:
 18825 0f6c 66000000 		.4byte	.LVL156
 18826 0f70 C0000000 		.4byte	.LVL164
 18827 0f74 0100     		.2byte	0x1
 18828 0f76 56       		.byte	0x56
 18829 0f77 C0000000 		.4byte	.LVL164
 18830 0f7b C8000000 		.4byte	.LFE277
 18831 0f7f 0400     		.2byte	0x4
 18832 0f81 F3       		.byte	0xf3
 18833 0f82 01       		.uleb128 0x1
 18834 0f83 50       		.byte	0x50
 18835 0f84 9F       		.byte	0x9f
 18836 0f85 00000000 		.4byte	0
 18837 0f89 00000000 		.4byte	0
 18838              	.LVUS80:
 18839 0f8d 03       		.uleb128 .LVU781
 18840 0f8e 00       		.uleb128 .LVU790
 18841              	.LLST80:
 18842 0f8f 66000000 		.4byte	.LVL156
 18843 0f93 77000000 		.4byte	.LVL159-1
 18844 0f97 0100     		.2byte	0x1
 18845 0f99 52       		.byte	0x52
 18846 0f9a 00000000 		.4byte	0
 18847 0f9e 00000000 		.4byte	0
 18848              	.LVUS81:
 18849 0fa2 01       		.uleb128 .LVU788
 18850 0fa3 00       		.uleb128 .LVU790
 18851              	.LLST81:
 18852 0fa4 72000000 		.4byte	.LVL158
 18853 0fa8 78000000 		.4byte	.LVL159
 18854 0fac 0200     		.2byte	0x2
 18855 0fae 3C       		.byte	0x3c
ARM GAS  C:\Users\USER\AppData\Local\Temp\ccRejSya.s 			page 332


 18856 0faf 9F       		.byte	0x9f
 18857 0fb0 00000000 		.4byte	0
 18858 0fb4 00000000 		.4byte	0
 18859              	.LVUS82:
 18860 0fb8 02       		.uleb128 .LVU815
 18861 0fb9 00       		.uleb128 .LVU828
 18862 0fba 00       		.uleb128 .LVU828
 18863 0fbb 00       		.uleb128 0
 18864              	.LLST82:
 18865 0fbc B0000000 		.4byte	.LVL160
 18866 0fc0 C0000000 		.4byte	.LVL164
 18867 0fc4 0100     		.2byte	0x1
 18868 0fc6 56       		.byte	0x56
 18869 0fc7 C0000000 		.4byte	.LVL164
 18870 0fcb C8000000 		.4byte	.LFE277
 18871 0fcf 0400     		.2byte	0x4
 18872 0fd1 F3       		.byte	0xf3
 18873 0fd2 01       		.uleb128 0x1
 18874 0fd3 50       		.byte	0x50
 18875 0fd4 9F       		.byte	0x9f
 18876 0fd5 00000000 		.4byte	0
 18877 0fd9 00000000 		.4byte	0
 18878              	.LVUS83:
 18879 0fdd 01       		.uleb128 .LVU814
 18880 0fde 03       		.uleb128 .LVU825
 18881              	.LLST83:
 18882 0fdf B0000000 		.4byte	.LVL160
 18883 0fe3 BC000000 		.4byte	.LVL163
 18884 0fe7 0200     		.2byte	0x2
 18885 0fe9 40       		.byte	0x40
 18886 0fea 9F       		.byte	0x9f
 18887 0feb 00000000 		.4byte	0
 18888 0fef 00000000 		.4byte	0
 18889              	.LVUS84:
 18890 0ff3 00       		.uleb128 .LVU818
 18891 0ff4 00       		.uleb128 .LVU821
 18892 0ff5 00       		.uleb128 .LVU821
 18893 0ff6 00       		.uleb128 .LVU822
 18894 0ff7 00       		.uleb128 .LVU822
 18895 0ff8 03       		.uleb128 .LVU825
 18896              	.LLST84:
 18897 0ff9 B2000000 		.4byte	.LVL161
 18898 0ffd BA000000 		.4byte	.LVL162
 18899 1001 0100     		.2byte	0x1
 18900 1003 53       		.byte	0x53
 18901 1004 BA000000 		.4byte	.LVL162
 18902 1008 BC000000 		.4byte	.LVL163
 18903 100c 0300     		.2byte	0x3
 18904 100e 76       		.byte	0x76
 18905 100f D800     		.sleb128 88
 18906 1011 BC000000 		.4byte	.LVL163
 18907 1015 BC000000 		.4byte	.LVL163
 18908 1019 0300     		.2byte	0x3
 18909 101b 72       		.byte	0x72
 18910 101c 70       		.sleb128 -16
 18911 101d 9F       		.byte	0x9f
 18912 101e 00000000 		.4byte	0
ARM GAS  C:\Users\USER\AppData\Local\Temp\ccRejSya.s 			page 333


 18913 1022 00000000 		.4byte	0
 18914              	.LVUS68:
 18915 1026 00       		.uleb128 0
 18916 1027 00       		.uleb128 .LVU703
 18917 1028 00       		.uleb128 .LVU703
 18918 1029 00       		.uleb128 .LVU704
 18919 102a 00       		.uleb128 .LVU704
 18920 102b 00       		.uleb128 .LVU705
 18921 102c 00       		.uleb128 .LVU705
 18922 102d 00       		.uleb128 .LVU724
 18923 102e 00       		.uleb128 .LVU724
 18924 102f 00       		.uleb128 0
 18925              	.LLST68:
 18926 1030 00000000 		.4byte	.LVL139
 18927 1034 08000000 		.4byte	.LVL140
 18928 1038 0100     		.2byte	0x1
 18929 103a 50       		.byte	0x50
 18930 103b 08000000 		.4byte	.LVL140
 18931 103f 0A000000 		.4byte	.LVL141
 18932 1043 0400     		.2byte	0x4
 18933 1045 F3       		.byte	0xf3
 18934 1046 01       		.uleb128 0x1
 18935 1047 50       		.byte	0x50
 18936 1048 9F       		.byte	0x9f
 18937 1049 0A000000 		.4byte	.LVL141
 18938 104d 12000000 		.4byte	.LVL142
 18939 1051 0100     		.2byte	0x1
 18940 1053 50       		.byte	0x50
 18941 1054 12000000 		.4byte	.LVL142
 18942 1058 3A000000 		.4byte	.LVL145
 18943 105c 0100     		.2byte	0x1
 18944 105e 54       		.byte	0x54
 18945 105f 3A000000 		.4byte	.LVL145
 18946 1063 44000000 		.4byte	.LFE276
 18947 1067 0400     		.2byte	0x4
 18948 1069 F3       		.byte	0xf3
 18949 106a 01       		.uleb128 0x1
 18950 106b 50       		.byte	0x50
 18951 106c 9F       		.byte	0x9f
 18952 106d 00000000 		.4byte	0
 18953 1071 00000000 		.4byte	0
 18954              	.LVUS69:
 18955 1075 02       		.uleb128 .LVU700
 18956 1076 00       		.uleb128 .LVU703
 18957 1077 00       		.uleb128 .LVU704
 18958 1078 00       		.uleb128 .LVU705
 18959 1079 00       		.uleb128 .LVU705
 18960 107a 00       		.uleb128 .LVU706
 18961              	.LLST69:
 18962 107b 00000000 		.4byte	.LVL139
 18963 107f 08000000 		.4byte	.LVL140
 18964 1083 0300     		.2byte	0x3
 18965 1085 70       		.byte	0x70
 18966 1086 D000     		.sleb128 80
 18967 1088 0A000000 		.4byte	.LVL141
 18968 108c 12000000 		.4byte	.LVL142
 18969 1090 0300     		.2byte	0x3
ARM GAS  C:\Users\USER\AppData\Local\Temp\ccRejSya.s 			page 334


 18970 1092 70       		.byte	0x70
 18971 1093 D000     		.sleb128 80
 18972 1095 12000000 		.4byte	.LVL142
 18973 1099 15000000 		.4byte	.LVL143-1
 18974 109d 0300     		.2byte	0x3
 18975 109f 74       		.byte	0x74
 18976 10a0 D000     		.sleb128 80
 18977 10a2 00000000 		.4byte	0
 18978 10a6 00000000 		.4byte	0
 18979              	.LVUS61:
 18980 10aa 00       		.uleb128 0
 18981 10ab 00       		.uleb128 .LVU616
 18982 10ac 00       		.uleb128 .LVU616
 18983 10ad 00       		.uleb128 .LVU676
 18984 10ae 00       		.uleb128 .LVU676
 18985 10af 00       		.uleb128 .LVU680
 18986 10b0 00       		.uleb128 .LVU680
 18987 10b1 00       		.uleb128 0
 18988              	.LLST61:
 18989 10b2 00000000 		.4byte	.LVL123
 18990 10b6 18000000 		.4byte	.LVL124
 18991 10ba 0100     		.2byte	0x1
 18992 10bc 50       		.byte	0x50
 18993 10bd 18000000 		.4byte	.LVL124
 18994 10c1 8E000000 		.4byte	.LVL131
 18995 10c5 0100     		.2byte	0x1
 18996 10c7 54       		.byte	0x54
 18997 10c8 8E000000 		.4byte	.LVL131
 18998 10cc 9C000000 		.4byte	.LVL132
 18999 10d0 0100     		.2byte	0x1
 19000 10d2 50       		.byte	0x50
 19001 10d3 9C000000 		.4byte	.LVL132
 19002 10d7 E4000000 		.4byte	.LFE275
 19003 10db 0100     		.2byte	0x1
 19004 10dd 54       		.byte	0x54
 19005 10de 00000000 		.4byte	0
 19006 10e2 00000000 		.4byte	0
 19007              	.LVUS62:
 19008 10e6 02       		.uleb128 .LVU606
 19009 10e7 00       		.uleb128 .LVU616
 19010 10e8 00       		.uleb128 .LVU676
 19011 10e9 00       		.uleb128 .LVU680
 19012 10ea 00       		.uleb128 .LVU680
 19013 10eb 00       		.uleb128 .LVU686
 19014              	.LLST62:
 19015 10ec 00000000 		.4byte	.LVL123
 19016 10f0 18000000 		.4byte	.LVL124
 19017 10f4 0300     		.2byte	0x3
 19018 10f6 70       		.byte	0x70
 19019 10f7 D000     		.sleb128 80
 19020 10f9 8E000000 		.4byte	.LVL131
 19021 10fd 9C000000 		.4byte	.LVL132
 19022 1101 0300     		.2byte	0x3
 19023 1103 70       		.byte	0x70
 19024 1104 D000     		.sleb128 80
 19025 1106 9C000000 		.4byte	.LVL132
 19026 110a AB000000 		.4byte	.LVL133-1
ARM GAS  C:\Users\USER\AppData\Local\Temp\ccRejSya.s 			page 335


 19027 110e 0300     		.2byte	0x3
 19028 1110 74       		.byte	0x74
 19029 1111 D000     		.sleb128 80
 19030 1113 00000000 		.4byte	0
 19031 1117 00000000 		.4byte	0
 19032              	.LVUS63:
 19033 111b 02       		.uleb128 .LVU633
 19034 111c 00       		.uleb128 .LVU676
 19035 111d 00       		.uleb128 .LVU687
 19036 111e 00       		.uleb128 0
 19037              	.LLST63:
 19038 111f 32000000 		.4byte	.LVL125
 19039 1123 8E000000 		.4byte	.LVL131
 19040 1127 0100     		.2byte	0x1
 19041 1129 54       		.byte	0x54
 19042 112a B0000000 		.4byte	.LVL134
 19043 112e E4000000 		.4byte	.LFE275
 19044 1132 0100     		.2byte	0x1
 19045 1134 54       		.byte	0x54
 19046 1135 00000000 		.4byte	0
 19047 1139 00000000 		.4byte	0
 19048              	.LVUS64:
 19049 113d 03       		.uleb128 .LVU634
 19050 113e 00       		.uleb128 .LVU637
 19051              	.LLST64:
 19052 113f 32000000 		.4byte	.LVL125
 19053 1143 35000000 		.4byte	.LVL126-1
 19054 1147 0300     		.2byte	0x3
 19055 1149 74       		.byte	0x74
 19056 114a D000     		.sleb128 80
 19057 114c 00000000 		.4byte	0
 19058 1150 00000000 		.4byte	0
 19059              	.LVUS65:
 19060 1154 04       		.uleb128 .LVU635
 19061 1155 00       		.uleb128 .LVU637
 19062              	.LLST65:
 19063 1156 32000000 		.4byte	.LVL125
 19064 115a 36000000 		.4byte	.LVL126
 19065 115e 0300     		.2byte	0x3
 19066 1160 08       		.byte	0x8
 19067 1161 20       		.byte	0x20
 19068 1162 9F       		.byte	0x9f
 19069 1163 00000000 		.4byte	0
 19070 1167 00000000 		.4byte	0
 19071              	.LVUS66:
 19072 116b 01       		.uleb128 .LVU645
 19073 116c 00       		.uleb128 .LVU676
 19074 116d 00       		.uleb128 .LVU687
 19075 116e 00       		.uleb128 0
 19076              	.LLST66:
 19077 116f 40000000 		.4byte	.LVL127
 19078 1173 8E000000 		.4byte	.LVL131
 19079 1177 0200     		.2byte	0x2
 19080 1179 3C       		.byte	0x3c
 19081 117a 9F       		.byte	0x9f
 19082 117b B0000000 		.4byte	.LVL134
 19083 117f E4000000 		.4byte	.LFE275
ARM GAS  C:\Users\USER\AppData\Local\Temp\ccRejSya.s 			page 336


 19084 1183 0200     		.2byte	0x2
 19085 1185 3C       		.byte	0x3c
 19086 1186 9F       		.byte	0x9f
 19087 1187 00000000 		.4byte	0
 19088 118b 00000000 		.4byte	0
 19089              	.LVUS67:
 19090 118f 01       		.uleb128 .LVU691
 19091 1190 00       		.uleb128 .LVU696
 19092              	.LLST67:
 19093 1191 C4000000 		.4byte	.LVL136
 19094 1195 C7000000 		.4byte	.LVL137-1
 19095 1199 0100     		.2byte	0x1
 19096 119b 50       		.byte	0x50
 19097 119c 00000000 		.4byte	0
 19098 11a0 00000000 		.4byte	0
 19099              	.LVUS137:
 19100 11a4 06       		.uleb128 .LVU1244
 19101 11a5 00       		.uleb128 .LVU1295
 19102 11a6 00       		.uleb128 .LVU1300
 19103 11a7 00       		.uleb128 .LVU1345
 19104 11a8 00       		.uleb128 .LVU1350
 19105 11a9 00       		.uleb128 0
 19106              	.LLST137:
 19107 11aa 00000000 		.4byte	.LVL248
 19108 11ae 58000000 		.4byte	.LVL256
 19109 11b2 0600     		.2byte	0x6
 19110 11b4 03       		.byte	0x3
 19111 11b5 00000000 		.4byte	USBD1
 19112 11b9 9F       		.byte	0x9f
 19113 11ba 60000000 		.4byte	.LVL257
 19114 11be A6000000 		.4byte	.LVL267
 19115 11c2 0600     		.2byte	0x6
 19116 11c4 03       		.byte	0x3
 19117 11c5 00000000 		.4byte	USBD1
 19118 11c9 9F       		.byte	0x9f
 19119 11ca AE000000 		.4byte	.LVL268
 19120 11ce E8000000 		.4byte	.LFE273
 19121 11d2 0600     		.2byte	0x6
 19122 11d4 03       		.byte	0x3
 19123 11d5 00000000 		.4byte	USBD1
 19124 11d9 9F       		.byte	0x9f
 19125 11da 00000000 		.4byte	0
 19126 11de 00000000 		.4byte	0
 19127              	.LVUS138:
 19128 11e2 00       		.uleb128 .LVU1247
 19129 11e3 00       		.uleb128 .LVU1283
 19130 11e4 00       		.uleb128 .LVU1300
 19131 11e5 00       		.uleb128 .LVU1340
 19132 11e6 00       		.uleb128 .LVU1350
 19133 11e7 00       		.uleb128 .LVU1355
 19134              	.LLST138:
 19135 11e8 06000000 		.4byte	.LVL249
 19136 11ec 42000000 		.4byte	.LVL254
 19137 11f0 0100     		.2byte	0x1
 19138 11f2 56       		.byte	0x56
 19139 11f3 60000000 		.4byte	.LVL257
 19140 11f7 94000000 		.4byte	.LVL264
ARM GAS  C:\Users\USER\AppData\Local\Temp\ccRejSya.s 			page 337


 19141 11fb 0100     		.2byte	0x1
 19142 11fd 56       		.byte	0x56
 19143 11fe AE000000 		.4byte	.LVL268
 19144 1202 C8000000 		.4byte	.LVL272
 19145 1206 0100     		.2byte	0x1
 19146 1208 56       		.byte	0x56
 19147 1209 00000000 		.4byte	0
 19148 120d 00000000 		.4byte	0
 19149              	.LVUS139:
 19150 1211 00       		.uleb128 .LVU1250
 19151 1212 00       		.uleb128 .LVU1286
 19152 1213 00       		.uleb128 .LVU1300
 19153 1214 00       		.uleb128 .LVU1343
 19154 1215 00       		.uleb128 .LVU1350
 19155 1216 00       		.uleb128 .LVU1355
 19156              	.LLST139:
 19157 1217 08000000 		.4byte	.LVL250
 19158 121b 46000000 		.4byte	.LVL255
 19159 121f 0100     		.2byte	0x1
 19160 1221 54       		.byte	0x54
 19161 1222 60000000 		.4byte	.LVL257
 19162 1226 9C000000 		.4byte	.LVL266
 19163 122a 0100     		.2byte	0x1
 19164 122c 54       		.byte	0x54
 19165 122d AE000000 		.4byte	.LVL268
 19166 1231 C8000000 		.4byte	.LVL272
 19167 1235 0100     		.2byte	0x1
 19168 1237 54       		.byte	0x54
 19169 1238 00000000 		.4byte	0
 19170 123c 00000000 		.4byte	0
 19171              	.LVUS140:
 19172 1240 00       		.uleb128 .LVU1273
 19173 1241 00       		.uleb128 .LVU1295
 19174 1242 00       		.uleb128 .LVU1340
 19175 1243 00       		.uleb128 .LVU1345
 19176 1244 00       		.uleb128 .LVU1350
 19177 1245 00       		.uleb128 0
 19178              	.LLST140:
 19179 1246 32000000 		.4byte	.LVL253
 19180 124a 58000000 		.4byte	.LVL256
 19181 124e 0100     		.2byte	0x1
 19182 1250 55       		.byte	0x55
 19183 1251 94000000 		.4byte	.LVL264
 19184 1255 A6000000 		.4byte	.LVL267
 19185 1259 0100     		.2byte	0x1
 19186 125b 55       		.byte	0x55
 19187 125c AE000000 		.4byte	.LVL268
 19188 1260 E8000000 		.4byte	.LFE273
 19189 1264 0100     		.2byte	0x1
 19190 1266 55       		.byte	0x55
 19191 1267 00000000 		.4byte	0
 19192 126b 00000000 		.4byte	0
 19193              	.LVUS141:
 19194 126f 09       		.uleb128 .LVU1309
 19195 1270 00       		.uleb128 .LVU1311
 19196              	.LLST141:
 19197 1271 60000000 		.4byte	.LVL257
ARM GAS  C:\Users\USER\AppData\Local\Temp\ccRejSya.s 			page 338


 19198 1275 66000000 		.4byte	.LVL258
 19199 1279 0300     		.2byte	0x3
 19200 127b 08       		.byte	0x8
 19201 127c 20       		.byte	0x20
 19202 127d 9F       		.byte	0x9f
 19203 127e 00000000 		.4byte	0
 19204 1282 00000000 		.4byte	0
 19205              	.LVUS142:
 19206 1286 01       		.uleb128 .LVU1319
 19207 1287 00       		.uleb128 .LVU1321
 19208              	.LLST142:
 19209 1288 70000000 		.4byte	.LVL259
 19210 128c 76000000 		.4byte	.LVL260
 19211 1290 0200     		.2byte	0x2
 19212 1292 30       		.byte	0x30
 19213 1293 9F       		.byte	0x9f
 19214 1294 00000000 		.4byte	0
 19215 1298 00000000 		.4byte	0
 19216              	.LVUS143:
 19217 129c 01       		.uleb128 .LVU1319
 19218 129d 00       		.uleb128 .LVU1321
 19219              	.LLST143:
 19220 129e 70000000 		.4byte	.LVL259
 19221 12a2 76000000 		.4byte	.LVL260
 19222 12a6 0600     		.2byte	0x6
 19223 12a8 03       		.byte	0x3
 19224 12a9 60000000 		.4byte	USBD1+96
 19225 12ad 9F       		.byte	0x9f
 19226 12ae 00000000 		.4byte	0
 19227 12b2 00000000 		.4byte	0
 19228              	.LVUS144:
 19229 12b6 0C       		.uleb128 .LVU1333
 19230 12b7 00       		.uleb128 .LVU1335
 19231              	.LLST144:
 19232 12b8 76000000 		.4byte	.LVL260
 19233 12bc 7C000000 		.4byte	.LVL261
 19234 12c0 0200     		.2byte	0x2
 19235 12c2 30       		.byte	0x30
 19236 12c3 9F       		.byte	0x9f
 19237 12c4 00000000 		.4byte	0
 19238 12c8 00000000 		.4byte	0
 19239              	.LVUS60:
 19240 12cc 01       		.uleb128 .LVU548
 19241 12cd 00       		.uleb128 .LVU553
 19242 12ce 00       		.uleb128 .LVU553
 19243 12cf 00       		.uleb128 .LVU567
 19244 12d0 00       		.uleb128 .LVU567
 19245 12d1 01       		.uleb128 .LVU570
 19246 12d2 01       		.uleb128 .LVU570
 19247 12d3 00       		.uleb128 0
 19248              	.LLST60:
 19249 12d4 00000000 		.4byte	.LVL117
 19250 12d8 14000000 		.4byte	.LVL118
 19251 12dc 0200     		.2byte	0x2
 19252 12de 30       		.byte	0x30
 19253 12df 9F       		.byte	0x9f
 19254 12e0 14000000 		.4byte	.LVL118
ARM GAS  C:\Users\USER\AppData\Local\Temp\ccRejSya.s 			page 339


 19255 12e4 32000000 		.4byte	.LVL119
 19256 12e8 0100     		.2byte	0x1
 19257 12ea 54       		.byte	0x54
 19258 12eb 32000000 		.4byte	.LVL119
 19259 12ef 38000000 		.4byte	.LVL120
 19260 12f3 0300     		.2byte	0x3
 19261 12f5 74       		.byte	0x74
 19262 12f6 7F       		.sleb128 -1
 19263 12f7 9F       		.byte	0x9f
 19264 12f8 38000000 		.4byte	.LVL120
 19265 12fc 72000000 		.4byte	.LFE293
 19266 1300 0100     		.2byte	0x1
 19267 1302 54       		.byte	0x54
 19268 1303 00000000 		.4byte	0
 19269 1307 00000000 		.4byte	0
 19270              	.LVUS113:
 19271 130b 00       		.uleb128 0
 19272 130c 00       		.uleb128 .LVU1028
 19273 130d 00       		.uleb128 .LVU1028
 19274 130e 00       		.uleb128 0
 19275              	.LLST113:
 19276 130f 00000000 		.4byte	.LVL204
 19277 1313 18000000 		.4byte	.LVL207
 19278 1317 0100     		.2byte	0x1
 19279 1319 50       		.byte	0x50
 19280 131a 18000000 		.4byte	.LVL207
 19281 131e 9C000000 		.4byte	.LFE300
 19282 1322 0400     		.2byte	0x4
 19283 1324 F3       		.byte	0xf3
 19284 1325 01       		.uleb128 0x1
 19285 1326 50       		.byte	0x50
 19286 1327 9F       		.byte	0x9f
 19287 1328 00000000 		.4byte	0
 19288 132c 00000000 		.4byte	0
 19289              	.LVUS114:
 19290 1330 00       		.uleb128 .LVU1020
 19291 1331 00       		.uleb128 .LVU1049
 19292 1332 00       		.uleb128 .LVU1050
 19293 1333 00       		.uleb128 0
 19294              	.LLST114:
 19295 1334 08000000 		.4byte	.LVL205
 19296 1338 56000000 		.4byte	.LVL212
 19297 133c 0100     		.2byte	0x1
 19298 133e 57       		.byte	0x57
 19299 133f 58000000 		.4byte	.LVL213
 19300 1343 9C000000 		.4byte	.LFE300
 19301 1347 0100     		.2byte	0x1
 19302 1349 57       		.byte	0x57
 19303 134a 00000000 		.4byte	0
 19304 134e 00000000 		.4byte	0
 19305              	.LVUS115:
 19306 1352 00       		.uleb128 .LVU1024
 19307 1353 00       		.uleb128 .LVU1045
 19308 1354 00       		.uleb128 .LVU1050
 19309 1355 00       		.uleb128 .LVU1053
 19310 1356 00       		.uleb128 .LVU1085
 19311 1357 00       		.uleb128 0
ARM GAS  C:\Users\USER\AppData\Local\Temp\ccRejSya.s 			page 340


 19312              	.LLST115:
 19313 1358 12000000 		.4byte	.LVL206
 19314 135c 42000000 		.4byte	.LVL210
 19315 1360 0100     		.2byte	0x1
 19316 1362 54       		.byte	0x54
 19317 1363 58000000 		.4byte	.LVL213
 19318 1367 5C000000 		.4byte	.LVL214
 19319 136b 0100     		.2byte	0x1
 19320 136d 54       		.byte	0x54
 19321 136e 88000000 		.4byte	.LVL220
 19322 1372 9C000000 		.4byte	.LFE300
 19323 1376 0100     		.2byte	0x1
 19324 1378 54       		.byte	0x54
 19325 1379 00000000 		.4byte	0
 19326 137d 00000000 		.4byte	0
 19327              	.LVUS116:
 19328 1381 00       		.uleb128 .LVU1039
 19329 1382 00       		.uleb128 .LVU1044
 19330 1383 00       		.uleb128 .LVU1044
 19331 1384 00       		.uleb128 .LVU1047
 19332 1385 00       		.uleb128 .LVU1047
 19333 1386 00       		.uleb128 .LVU1050
 19334 1387 00       		.uleb128 .LVU1050
 19335 1388 00       		.uleb128 .LVU1055
 19336              	.LLST116:
 19337 1389 36000000 		.4byte	.LVL208
 19338 138d 40000000 		.4byte	.LVL209
 19339 1391 0100     		.2byte	0x1
 19340 1393 53       		.byte	0x53
 19341 1394 40000000 		.4byte	.LVL209
 19342 1398 50000000 		.4byte	.LVL211
 19343 139c 0200     		.2byte	0x2
 19344 139e 71       		.byte	0x71
 19345 139f 18       		.sleb128 24
 19346 13a0 50000000 		.4byte	.LVL211
 19347 13a4 57000000 		.4byte	.LVL213-1
 19348 13a8 0C00     		.2byte	0xc
 19349 13aa 71       		.byte	0x71
 19350 13ab 00       		.sleb128 0
 19351 13ac 32       		.byte	0x32
 19352 13ad 24       		.byte	0x24
 19353 13ae 70       		.byte	0x70
 19354 13af 00       		.sleb128 0
 19355 13b0 22       		.byte	0x22
 19356 13b1 23       		.byte	0x23
 19357 13b2 0C       		.uleb128 0xc
 19358 13b3 06       		.byte	0x6
 19359 13b4 23       		.byte	0x23
 19360 13b5 18       		.uleb128 0x18
 19361 13b6 58000000 		.4byte	.LVL213
 19362 13ba 67000000 		.4byte	.LVL215-1
 19363 13be 0100     		.2byte	0x1
 19364 13c0 53       		.byte	0x53
 19365 13c1 00000000 		.4byte	0
 19366 13c5 00000000 		.4byte	0
 19367              	.LVUS117:
 19368 13c9 07       		.uleb128 .LVU1062
ARM GAS  C:\Users\USER\AppData\Local\Temp\ccRejSya.s 			page 341


 19369 13ca 00       		.uleb128 .LVU1064
 19370              	.LLST117:
 19371 13cb 68000000 		.4byte	.LVL215
 19372 13cf 6E000000 		.4byte	.LVL216
 19373 13d3 0300     		.2byte	0x3
 19374 13d5 08       		.byte	0x8
 19375 13d6 20       		.byte	0x20
 19376 13d7 9F       		.byte	0x9f
 19377 13d8 00000000 		.4byte	0
 19378 13dc 00000000 		.4byte	0
 19379              	.LVUS118:
 19380 13e0 04       		.uleb128 .LVU1068
 19381 13e1 00       		.uleb128 .LVU1070
 19382              	.LLST118:
 19383 13e2 6E000000 		.4byte	.LVL216
 19384 13e6 74000000 		.4byte	.LVL217
 19385 13ea 0100     		.2byte	0x1
 19386 13ec 55       		.byte	0x55
 19387 13ed 00000000 		.4byte	0
 19388 13f1 00000000 		.4byte	0
 19389              	.LVUS119:
 19390 13f5 04       		.uleb128 .LVU1068
 19391 13f6 00       		.uleb128 .LVU1071
 19392              	.LLST119:
 19393 13f7 6E000000 		.4byte	.LVL216
 19394 13fb 80000000 		.4byte	.LVL218
 19395 13ff 0600     		.2byte	0x6
 19396 1401 03       		.byte	0x3
 19397 1402 00000000 		.4byte	USBD1
 19398 1406 9F       		.byte	0x9f
 19399 1407 00000000 		.4byte	0
 19400 140b 00000000 		.4byte	0
 19401              	.LVUS120:
 19402 140f 0A       		.uleb128 .LVU1081
 19403 1410 00       		.uleb128 .LVU1083
 19404              	.LLST120:
 19405 1411 80000000 		.4byte	.LVL218
 19406 1415 84000000 		.4byte	.LVL219
 19407 1419 0200     		.2byte	0x2
 19408 141b 30       		.byte	0x30
 19409 141c 9F       		.byte	0x9f
 19410 141d 00000000 		.4byte	0
 19411 1421 00000000 		.4byte	0
 19412              	.LVUS125:
 19413 1425 00       		.uleb128 0
 19414 1426 00       		.uleb128 .LVU1132
 19415 1427 00       		.uleb128 .LVU1132
 19416 1428 00       		.uleb128 .LVU1140
 19417 1429 00       		.uleb128 .LVU1140
 19418 142a 00       		.uleb128 .LVU1145
 19419 142b 00       		.uleb128 .LVU1145
 19420 142c 00       		.uleb128 0
 19421              	.LLST125:
 19422 142d 00000000 		.4byte	.LVL228
 19423 1431 22000000 		.4byte	.LVL231
 19424 1435 0100     		.2byte	0x1
 19425 1437 50       		.byte	0x50
ARM GAS  C:\Users\USER\AppData\Local\Temp\ccRejSya.s 			page 342


 19426 1438 22000000 		.4byte	.LVL231
 19427 143c 38000000 		.4byte	.LVL232
 19428 1440 0400     		.2byte	0x4
 19429 1442 F3       		.byte	0xf3
 19430 1443 01       		.uleb128 0x1
 19431 1444 50       		.byte	0x50
 19432 1445 9F       		.byte	0x9f
 19433 1446 38000000 		.4byte	.LVL232
 19434 144a 42000000 		.4byte	.LVL234
 19435 144e 0100     		.2byte	0x1
 19436 1450 50       		.byte	0x50
 19437 1451 42000000 		.4byte	.LVL234
 19438 1455 D0000000 		.4byte	.LFE299
 19439 1459 0400     		.2byte	0x4
 19440 145b F3       		.byte	0xf3
 19441 145c 01       		.uleb128 0x1
 19442 145d 50       		.byte	0x50
 19443 145e 9F       		.byte	0x9f
 19444 145f 00000000 		.4byte	0
 19445 1463 00000000 		.4byte	0
 19446              	.LVUS126:
 19447 1467 00       		.uleb128 .LVU1120
 19448 1468 00       		.uleb128 0
 19449              	.LLST126:
 19450 1469 08000000 		.4byte	.LVL229
 19451 146d D0000000 		.4byte	.LFE299
 19452 1471 0100     		.2byte	0x1
 19453 1473 55       		.byte	0x55
 19454 1474 00000000 		.4byte	0
 19455 1478 00000000 		.4byte	0
 19456              	.LVUS127:
 19457 147c 00       		.uleb128 .LVU1124
 19458 147d 00       		.uleb128 0
 19459              	.LLST127:
 19460 147e 12000000 		.4byte	.LVL230
 19461 1482 D0000000 		.4byte	.LFE299
 19462 1486 0100     		.2byte	0x1
 19463 1488 54       		.byte	0x54
 19464 1489 00000000 		.4byte	0
 19465 148d 00000000 		.4byte	0
 19466              	.LVUS128:
 19467 1491 00       		.uleb128 .LVU1143
 19468 1492 00       		.uleb128 .LVU1148
 19469 1493 00       		.uleb128 .LVU1148
 19470 1494 00       		.uleb128 .LVU1150
 19471 1495 00       		.uleb128 .LVU1150
 19472 1496 00       		.uleb128 .LVU1151
 19473 1497 00       		.uleb128 .LVU1195
 19474 1498 00       		.uleb128 .LVU1199
 19475              	.LLST128:
 19476 1499 40000000 		.4byte	.LVL233
 19477 149d 4A000000 		.4byte	.LVL235
 19478 14a1 0100     		.2byte	0x1
 19479 14a3 53       		.byte	0x53
 19480 14a4 4A000000 		.4byte	.LVL235
 19481 14a8 5A000000 		.4byte	.LVL236
 19482 14ac 0200     		.2byte	0x2
ARM GAS  C:\Users\USER\AppData\Local\Temp\ccRejSya.s 			page 343


 19483 14ae 71       		.byte	0x71
 19484 14af 14       		.sleb128 20
 19485 14b0 5A000000 		.4byte	.LVL236
 19486 14b4 5D000000 		.4byte	.LVL237-1
 19487 14b8 0C00     		.2byte	0xc
 19488 14ba 76       		.byte	0x76
 19489 14bb 00       		.sleb128 0
 19490 14bc 32       		.byte	0x32
 19491 14bd 24       		.byte	0x24
 19492 14be 77       		.byte	0x77
 19493 14bf 00       		.sleb128 0
 19494 14c0 22       		.byte	0x22
 19495 14c1 23       		.byte	0x23
 19496 14c2 0C       		.uleb128 0xc
 19497 14c3 06       		.byte	0x6
 19498 14c4 23       		.byte	0x23
 19499 14c5 14       		.uleb128 0x14
 19500 14c6 8A000000 		.4byte	.LVL243
 19501 14ca 9B000000 		.4byte	.LVL244-1
 19502 14ce 0100     		.2byte	0x1
 19503 14d0 53       		.byte	0x53
 19504 14d1 00000000 		.4byte	0
 19505 14d5 00000000 		.4byte	0
 19506              	.LVUS129:
 19507 14d9 09       		.uleb128 .LVU1208
 19508 14da 00       		.uleb128 .LVU1210
 19509              	.LLST129:
 19510 14db 9C000000 		.4byte	.LVL244
 19511 14df A2000000 		.4byte	.LVL245
 19512 14e3 0300     		.2byte	0x3
 19513 14e5 08       		.byte	0x8
 19514 14e6 20       		.byte	0x20
 19515 14e7 9F       		.byte	0x9f
 19516 14e8 00000000 		.4byte	0
 19517 14ec 00000000 		.4byte	0
 19518              	.LVUS130:
 19519 14f0 04       		.uleb128 .LVU1214
 19520 14f1 00       		.uleb128 .LVU1223
 19521              	.LLST130:
 19522 14f2 A2000000 		.4byte	.LVL245
 19523 14f6 C2000000 		.4byte	.LVL246
 19524 14fa 0100     		.2byte	0x1
 19525 14fc 56       		.byte	0x56
 19526 14fd 00000000 		.4byte	0
 19527 1501 00000000 		.4byte	0
 19528              	.LVUS131:
 19529 1505 04       		.uleb128 .LVU1214
 19530 1506 00       		.uleb128 .LVU1223
 19531              	.LLST131:
 19532 1507 A2000000 		.4byte	.LVL245
 19533 150b C2000000 		.4byte	.LVL246
 19534 150f 0600     		.2byte	0x6
 19535 1511 03       		.byte	0x3
 19536 1512 00000000 		.4byte	USBD1
 19537 1516 9F       		.byte	0x9f
 19538 1517 00000000 		.4byte	0
 19539 151b 00000000 		.4byte	0
ARM GAS  C:\Users\USER\AppData\Local\Temp\ccRejSya.s 			page 344


 19540              	.LVUS132:
 19541 151f 0C       		.uleb128 .LVU1235
 19542 1520 00       		.uleb128 .LVU1237
 19543              	.LLST132:
 19544 1521 C2000000 		.4byte	.LVL246
 19545 1525 C6000000 		.4byte	.LVL247
 19546 1529 0200     		.2byte	0x2
 19547 152b 30       		.byte	0x30
 19548 152c 9F       		.byte	0x9f
 19549 152d 00000000 		.4byte	0
 19550 1531 00000000 		.4byte	0
 19551              	.LVUS133:
 19552 1535 0A       		.uleb128 .LVU1162
 19553 1536 00       		.uleb128 .LVU1164
 19554              	.LLST133:
 19555 1537 60000000 		.4byte	.LVL238
 19556 153b 66000000 		.4byte	.LVL239
 19557 153f 0300     		.2byte	0x3
 19558 1541 08       		.byte	0x8
 19559 1542 20       		.byte	0x20
 19560 1543 9F       		.byte	0x9f
 19561 1544 00000000 		.4byte	0
 19562 1548 00000000 		.4byte	0
 19563              	.LVUS134:
 19564 154c 02       		.uleb128 .LVU1177
 19565 154d 00       		.uleb128 .LVU1179
 19566              	.LLST134:
 19567 154e 7C000000 		.4byte	.LVL240
 19568 1552 80000000 		.4byte	.LVL241
 19569 1556 0200     		.2byte	0x2
 19570 1558 30       		.byte	0x30
 19571 1559 9F       		.byte	0x9f
 19572 155a 00000000 		.4byte	0
 19573 155e 00000000 		.4byte	0
 19574              	.LVUS135:
 19575 1562 02       		.uleb128 .LVU1177
 19576 1563 00       		.uleb128 .LVU1179
 19577              	.LLST135:
 19578 1564 7C000000 		.4byte	.LVL240
 19579 1568 80000000 		.4byte	.LVL241
 19580 156c 0600     		.2byte	0x6
 19581 156e 03       		.byte	0x3
 19582 156f 60000000 		.4byte	USBD1+96
 19583 1573 9F       		.byte	0x9f
 19584 1574 00000000 		.4byte	0
 19585 1578 00000000 		.4byte	0
 19586              	.LVUS136:
 19587 157c 0C       		.uleb128 .LVU1191
 19588 157d 00       		.uleb128 .LVU1193
 19589              	.LLST136:
 19590 157e 80000000 		.4byte	.LVL241
 19591 1582 86000000 		.4byte	.LVL242
 19592 1586 0200     		.2byte	0x2
 19593 1588 30       		.byte	0x30
 19594 1589 9F       		.byte	0x9f
 19595 158a 00000000 		.4byte	0
 19596 158e 00000000 		.4byte	0
ARM GAS  C:\Users\USER\AppData\Local\Temp\ccRejSya.s 			page 345


 19597              	.LVUS145:
 19598 1592 00       		.uleb128 0
 19599 1593 00       		.uleb128 .LVU1360
 19600 1594 00       		.uleb128 .LVU1360
 19601 1595 00       		.uleb128 0
 19602              	.LLST145:
 19603 1596 00000000 		.4byte	.LVL276
 19604 159a 06000000 		.4byte	.LVL277
 19605 159e 0100     		.2byte	0x1
 19606 15a0 51       		.byte	0x51
 19607 15a1 06000000 		.4byte	.LVL277
 19608 15a5 14000000 		.4byte	.LFE286
 19609 15a9 0400     		.2byte	0x4
 19610 15ab F3       		.byte	0xf3
 19611 15ac 01       		.uleb128 0x1
 19612 15ad 51       		.byte	0x51
 19613 15ae 9F       		.byte	0x9f
 19614 15af 00000000 		.4byte	0
 19615 15b3 00000000 		.4byte	0
 19616              	.LVUS146:
 19617 15b7 00       		.uleb128 0
 19618 15b8 00       		.uleb128 .LVU1368
 19619 15b9 00       		.uleb128 .LVU1368
 19620 15ba 00       		.uleb128 0
 19621              	.LLST146:
 19622 15bb 00000000 		.4byte	.LVL278
 19623 15bf 0E000000 		.4byte	.LVL279
 19624 15c3 0100     		.2byte	0x1
 19625 15c5 50       		.byte	0x50
 19626 15c6 0E000000 		.4byte	.LVL279
 19627 15ca 28000000 		.4byte	.LFE287
 19628 15ce 0400     		.2byte	0x4
 19629 15d0 F3       		.byte	0xf3
 19630 15d1 01       		.uleb128 0x1
 19631 15d2 50       		.byte	0x50
 19632 15d3 9F       		.byte	0x9f
 19633 15d4 00000000 		.4byte	0
 19634 15d8 00000000 		.4byte	0
 19635              		.section	.debug_aranges,"",%progbits
 19636 0000 CC000000 		.4byte	0xcc
 19637 0004 0200     		.2byte	0x2
 19638 0006 00000000 		.4byte	.Ldebug_info0
 19639 000a 04       		.byte	0x4
 19640 000b 00       		.byte	0
 19641 000c 0000     		.2byte	0
 19642 000e 0000     		.2byte	0
 19643 0010 00000000 		.4byte	.LFB292
 19644 0014 86030000 		.4byte	.LFE292-.LFB292
 19645 0018 00000000 		.4byte	.LFB293
 19646 001c 72000000 		.4byte	.LFE293-.LFB293
 19647 0020 00000000 		.4byte	.LFB274
 19648 0024 24000000 		.4byte	.LFE274-.LFB274
 19649 0028 00000000 		.4byte	.LFB275
 19650 002c E4000000 		.4byte	.LFE275-.LFB275
 19651 0030 00000000 		.4byte	.LFB276
 19652 0034 44000000 		.4byte	.LFE276-.LFB276
 19653 0038 00000000 		.4byte	.LFB277
ARM GAS  C:\Users\USER\AppData\Local\Temp\ccRejSya.s 			page 346


 19654 003c C8000000 		.4byte	.LFE277-.LFB277
 19655 0040 00000000 		.4byte	.LFB278
 19656 0044 18000000 		.4byte	.LFE278-.LFB278
 19657 0048 00000000 		.4byte	.LFB279
 19658 004c 40010000 		.4byte	.LFE279-.LFB279
 19659 0050 00000000 		.4byte	.LFB280
 19660 0054 0E000000 		.4byte	.LFE280-.LFB280
 19661 0058 00000000 		.4byte	.LFB281
 19662 005c 1A000000 		.4byte	.LFE281-.LFB281
 19663 0060 00000000 		.4byte	.LFB282
 19664 0064 1A000000 		.4byte	.LFE282-.LFB282
 19665 0068 00000000 		.4byte	.LFB283
 19666 006c 12000000 		.4byte	.LFE283-.LFB283
 19667 0070 00000000 		.4byte	.LFB284
 19668 0074 3A000000 		.4byte	.LFE284-.LFB284
 19669 0078 00000000 		.4byte	.LFB300
 19670 007c 9C000000 		.4byte	.LFE300-.LFB300
 19671 0080 00000000 		.4byte	.LFB285
 19672 0084 4A000000 		.4byte	.LFE285-.LFB285
 19673 0088 00000000 		.4byte	.LFB299
 19674 008c D0000000 		.4byte	.LFE299-.LFB299
 19675 0090 00000000 		.4byte	.LFB273
 19676 0094 E8000000 		.4byte	.LFE273-.LFB273
 19677 0098 00000000 		.4byte	.LFB286
 19678 009c 14000000 		.4byte	.LFE286-.LFB286
 19679 00a0 00000000 		.4byte	.LFB287
 19680 00a4 28000000 		.4byte	.LFE287-.LFB287
 19681 00a8 00000000 		.4byte	.LFB288
 19682 00ac 14000000 		.4byte	.LFE288-.LFB288
 19683 00b0 00000000 		.4byte	.LFB289
 19684 00b4 14000000 		.4byte	.LFE289-.LFB289
 19685 00b8 00000000 		.4byte	.LFB290
 19686 00bc 14000000 		.4byte	.LFE290-.LFB290
 19687 00c0 00000000 		.4byte	.LFB291
 19688 00c4 14000000 		.4byte	.LFE291-.LFB291
 19689 00c8 00000000 		.4byte	0
 19690 00cc 00000000 		.4byte	0
 19691              		.section	.debug_ranges,"",%progbits
 19692              	.Ldebug_ranges0:
 19693 0000 04000000 		.4byte	.LBB422
 19694 0004 0A000000 		.4byte	.LBE422
 19695 0008 0C000000 		.4byte	.LBB425
 19696 000c 0E000000 		.4byte	.LBE425
 19697 0010 00000000 		.4byte	0
 19698 0014 00000000 		.4byte	0
 19699 0018 0E000000 		.4byte	.LBB426
 19700 001c 0E000000 		.4byte	.LBE426
 19701 0020 0E000000 		.4byte	.LBB438
 19702 0024 0E000000 		.4byte	.LBE438
 19703 0028 0E000000 		.4byte	.LBB439
 19704 002c 0E000000 		.4byte	.LBE439
 19705 0030 0E000000 		.4byte	.LBB440
 19706 0034 0E000000 		.4byte	.LBE440
 19707 0038 10000000 		.4byte	.LBB441
 19708 003c 16000000 		.4byte	.LBE441
 19709 0040 00000000 		.4byte	0
 19710 0044 00000000 		.4byte	0
ARM GAS  C:\Users\USER\AppData\Local\Temp\ccRejSya.s 			page 347


 19711 0048 16000000 		.4byte	.LBB442
 19712 004c 22000000 		.4byte	.LBE442
 19713 0050 22000000 		.4byte	.LBB732
 19714 0054 46000000 		.4byte	.LBE732
 19715 0058 46000000 		.4byte	.LBB733
 19716 005c 46000000 		.4byte	.LBE733
 19717 0060 46000000 		.4byte	.LBB734
 19718 0064 2A010000 		.4byte	.LBE734
 19719 0068 2A010000 		.4byte	.LBB735
 19720 006c 2A010000 		.4byte	.LBE735
 19721 0070 2A010000 		.4byte	.LBB736
 19722 0074 2A010000 		.4byte	.LBE736
 19723 0078 2A010000 		.4byte	.LBB737
 19724 007c 30010000 		.4byte	.LBE737
 19725 0080 32010000 		.4byte	.LBB738
 19726 0084 52010000 		.4byte	.LBE738
 19727 0088 52010000 		.4byte	.LBB739
 19728 008c 94010000 		.4byte	.LBE739
 19729 0090 94010000 		.4byte	.LBB740
 19730 0094 94010000 		.4byte	.LBE740
 19731 0098 94010000 		.4byte	.LBB741
 19732 009c 94010000 		.4byte	.LBE741
 19733 00a0 94010000 		.4byte	.LBB742
 19734 00a4 9A010000 		.4byte	.LBE742
 19735 00a8 9A010000 		.4byte	.LBB743
 19736 00ac AA010000 		.4byte	.LBE743
 19737 00b0 AA010000 		.4byte	.LBB744
 19738 00b4 AA010000 		.4byte	.LBE744
 19739 00b8 AA010000 		.4byte	.LBB745
 19740 00bc BA010000 		.4byte	.LBE745
 19741 00c0 BA010000 		.4byte	.LBB746
 19742 00c4 BA010000 		.4byte	.LBE746
 19743 00c8 BA010000 		.4byte	.LBB747
 19744 00cc BA010000 		.4byte	.LBE747
 19745 00d0 BA010000 		.4byte	.LBB748
 19746 00d4 C0010000 		.4byte	.LBE748
 19747 00d8 C0010000 		.4byte	.LBB749
 19748 00dc D6010000 		.4byte	.LBE749
 19749 00e0 D6010000 		.4byte	.LBB750
 19750 00e4 D6010000 		.4byte	.LBE750
 19751 00e8 D6010000 		.4byte	.LBB751
 19752 00ec DA010000 		.4byte	.LBE751
 19753 00f0 DA010000 		.4byte	.LBB752
 19754 00f4 6E020000 		.4byte	.LBE752
 19755 00f8 6E020000 		.4byte	.LBB753
 19756 00fc 6E020000 		.4byte	.LBE753
 19757 0100 6E020000 		.4byte	.LBB754
 19758 0104 6E020000 		.4byte	.LBE754
 19759 0108 6E020000 		.4byte	.LBB755
 19760 010c 74020000 		.4byte	.LBE755
 19761 0110 74020000 		.4byte	.LBB756
 19762 0114 84020000 		.4byte	.LBE756
 19763 0118 84020000 		.4byte	.LBB757
 19764 011c 84020000 		.4byte	.LBE757
 19765 0120 84020000 		.4byte	.LBB758
 19766 0124 98020000 		.4byte	.LBE758
 19767 0128 98020000 		.4byte	.LBB759
ARM GAS  C:\Users\USER\AppData\Local\Temp\ccRejSya.s 			page 348


 19768 012c BC020000 		.4byte	.LBE759
 19769 0130 BC020000 		.4byte	.LBB760
 19770 0134 BC020000 		.4byte	.LBE760
 19771 0138 BC020000 		.4byte	.LBB761
 19772 013c BC020000 		.4byte	.LBE761
 19773 0140 BC020000 		.4byte	.LBB762
 19774 0144 C2020000 		.4byte	.LBE762
 19775 0148 C2020000 		.4byte	.LBB763
 19776 014c DC020000 		.4byte	.LBE763
 19777 0150 DC020000 		.4byte	.LBB764
 19778 0154 DC020000 		.4byte	.LBE764
 19779 0158 DC020000 		.4byte	.LBB765
 19780 015c 52030000 		.4byte	.LBE765
 19781 0160 52030000 		.4byte	.LBB766
 19782 0164 52030000 		.4byte	.LBE766
 19783 0168 52030000 		.4byte	.LBB767
 19784 016c 52030000 		.4byte	.LBE767
 19785 0170 52030000 		.4byte	.LBB768
 19786 0174 58030000 		.4byte	.LBE768
 19787 0178 58030000 		.4byte	.LBB769
 19788 017c 6C030000 		.4byte	.LBE769
 19789 0180 6C030000 		.4byte	.LBB770
 19790 0184 6C030000 		.4byte	.LBE770
 19791 0188 6C030000 		.4byte	.LBB771
 19792 018c 6C030000 		.4byte	.LBE771
 19793 0190 6C030000 		.4byte	.LBB772
 19794 0194 72030000 		.4byte	.LBE772
 19795 0198 72030000 		.4byte	.LBB773
 19796 019c 86030000 		.4byte	.LBE773
 19797 01a0 00000000 		.4byte	0
 19798 01a4 00000000 		.4byte	0
 19799 01a8 16000000 		.4byte	.LBB443
 19800 01ac 22000000 		.4byte	.LBE443
 19801 01b0 58000000 		.4byte	.LBB538
 19802 01b4 FC000000 		.4byte	.LBE538
 19803 01b8 00010000 		.4byte	.LBB539
 19804 01bc 02010000 		.4byte	.LBE539
 19805 01c0 06010000 		.4byte	.LBB540
 19806 01c4 08010000 		.4byte	.LBE540
 19807 01c8 32010000 		.4byte	.LBB552
 19808 01cc 52010000 		.4byte	.LBE552
 19809 01d0 52010000 		.4byte	.LBB553
 19810 01d4 94010000 		.4byte	.LBE553
 19811 01d8 94010000 		.4byte	.LBB554
 19812 01dc 94010000 		.4byte	.LBE554
 19813 01e0 94010000 		.4byte	.LBB555
 19814 01e4 94010000 		.4byte	.LBE555
 19815 01e8 94010000 		.4byte	.LBB556
 19816 01ec 9A010000 		.4byte	.LBE556
 19817 01f0 9A010000 		.4byte	.LBB557
 19818 01f4 AA010000 		.4byte	.LBE557
 19819 01f8 AA010000 		.4byte	.LBB558
 19820 01fc AA010000 		.4byte	.LBE558
 19821 0200 AA010000 		.4byte	.LBB559
 19822 0204 BA010000 		.4byte	.LBE559
 19823 0208 00000000 		.4byte	0
 19824 020c 00000000 		.4byte	0
ARM GAS  C:\Users\USER\AppData\Local\Temp\ccRejSya.s 			page 349


 19825 0210 16000000 		.4byte	.LBB445
 19826 0214 22000000 		.4byte	.LBE445
 19827 0218 42010000 		.4byte	.LBB504
 19828 021c 52010000 		.4byte	.LBE504
 19829 0220 52010000 		.4byte	.LBB505
 19830 0224 94010000 		.4byte	.LBE505
 19831 0228 94010000 		.4byte	.LBB506
 19832 022c 94010000 		.4byte	.LBE506
 19833 0230 94010000 		.4byte	.LBB507
 19834 0234 94010000 		.4byte	.LBE507
 19835 0238 94010000 		.4byte	.LBB508
 19836 023c 9A010000 		.4byte	.LBE508
 19837 0240 9A010000 		.4byte	.LBB509
 19838 0244 AA010000 		.4byte	.LBE509
 19839 0248 AA010000 		.4byte	.LBB510
 19840 024c AA010000 		.4byte	.LBE510
 19841 0250 AA010000 		.4byte	.LBB511
 19842 0254 BA010000 		.4byte	.LBE511
 19843 0258 00000000 		.4byte	0
 19844 025c 00000000 		.4byte	0
 19845 0260 16000000 		.4byte	.LBB447
 19846 0264 22000000 		.4byte	.LBE447
 19847 0268 94010000 		.4byte	.LBB463
 19848 026c 94010000 		.4byte	.LBE463
 19849 0270 94010000 		.4byte	.LBB464
 19850 0274 94010000 		.4byte	.LBE464
 19851 0278 94010000 		.4byte	.LBB465
 19852 027c 94010000 		.4byte	.LBE465
 19853 0280 94010000 		.4byte	.LBB466
 19854 0284 9A010000 		.4byte	.LBE466
 19855 0288 00000000 		.4byte	0
 19856 028c 00000000 		.4byte	0
 19857 0290 16000000 		.4byte	.LBB448
 19858 0294 22000000 		.4byte	.LBE448
 19859 0298 94010000 		.4byte	.LBB456
 19860 029c 94010000 		.4byte	.LBE456
 19861 02a0 94010000 		.4byte	.LBB457
 19862 02a4 94010000 		.4byte	.LBE457
 19863 02a8 94010000 		.4byte	.LBB458
 19864 02ac 9A010000 		.4byte	.LBE458
 19865 02b0 00000000 		.4byte	0
 19866 02b4 00000000 		.4byte	0
 19867 02b8 16000000 		.4byte	.LBB449
 19868 02bc 22000000 		.4byte	.LBE449
 19869 02c0 94010000 		.4byte	.LBB454
 19870 02c4 94010000 		.4byte	.LBE454
 19871 02c8 94010000 		.4byte	.LBB455
 19872 02cc 9A010000 		.4byte	.LBE455
 19873 02d0 00000000 		.4byte	0
 19874 02d4 00000000 		.4byte	0
 19875 02d8 16000000 		.4byte	.LBB450
 19876 02dc 22000000 		.4byte	.LBE450
 19877 02e0 94010000 		.4byte	.LBB453
 19878 02e4 9A010000 		.4byte	.LBE453
 19879 02e8 00000000 		.4byte	0
 19880 02ec 00000000 		.4byte	0
 19881 02f0 4C010000 		.4byte	.LBB459
ARM GAS  C:\Users\USER\AppData\Local\Temp\ccRejSya.s 			page 350


 19882 02f4 52010000 		.4byte	.LBE459
 19883 02f8 52010000 		.4byte	.LBB462
 19884 02fc 94010000 		.4byte	.LBE462
 19885 0300 00000000 		.4byte	0
 19886 0304 00000000 		.4byte	0
 19887 0308 52010000 		.4byte	.LBB460
 19888 030c 52010000 		.4byte	.LBE460
 19889 0310 52010000 		.4byte	.LBB461
 19890 0314 5C010000 		.4byte	.LBE461
 19891 0318 00000000 		.4byte	0
 19892 031c 00000000 		.4byte	0
 19893 0320 AA010000 		.4byte	.LBB471
 19894 0324 AA010000 		.4byte	.LBE471
 19895 0328 AA010000 		.4byte	.LBB480
 19896 032c AA010000 		.4byte	.LBE480
 19897 0330 AA010000 		.4byte	.LBB481
 19898 0334 BA010000 		.4byte	.LBE481
 19899 0338 00000000 		.4byte	0
 19900 033c 00000000 		.4byte	0
 19901 0340 7A000000 		.4byte	.LBB490
 19902 0344 7E000000 		.4byte	.LBE490
 19903 0348 80000000 		.4byte	.LBB496
 19904 034c B0000000 		.4byte	.LBE496
 19905 0350 00000000 		.4byte	0
 19906 0354 00000000 		.4byte	0
 19907 0358 88000000 		.4byte	.LBB492
 19908 035c 96000000 		.4byte	.LBE492
 19909 0360 9A000000 		.4byte	.LBB493
 19910 0364 A2000000 		.4byte	.LBE493
 19911 0368 A8000000 		.4byte	.LBB494
 19912 036c AA000000 		.4byte	.LBE494
 19913 0370 00000000 		.4byte	0
 19914 0374 00000000 		.4byte	0
 19915 0378 CC000000 		.4byte	.LBB497
 19916 037c F8000000 		.4byte	.LBE497
 19917 0380 32010000 		.4byte	.LBB503
 19918 0384 42010000 		.4byte	.LBE503
 19919 0388 00000000 		.4byte	0
 19920 038c 00000000 		.4byte	0
 19921 0390 E4000000 		.4byte	.LBB499
 19922 0394 F4000000 		.4byte	.LBE499
 19923 0398 32010000 		.4byte	.LBB500
 19924 039c 32010000 		.4byte	.LBE500
 19925 03a0 38010000 		.4byte	.LBB501
 19926 03a4 3C010000 		.4byte	.LBE501
 19927 03a8 00000000 		.4byte	0
 19928 03ac 00000000 		.4byte	0
 19929 03b0 38000000 		.4byte	.LBB523
 19930 03b4 3A000000 		.4byte	.LBE523
 19931 03b8 42000000 		.4byte	.LBB526
 19932 03bc 46000000 		.4byte	.LBE526
 19933 03c0 00000000 		.4byte	0
 19934 03c4 00000000 		.4byte	0
 19935 03c8 46000000 		.4byte	.LBB527
 19936 03cc 46000000 		.4byte	.LBE527
 19937 03d0 46000000 		.4byte	.LBB536
 19938 03d4 46000000 		.4byte	.LBE536
ARM GAS  C:\Users\USER\AppData\Local\Temp\ccRejSya.s 			page 351


 19939 03d8 46000000 		.4byte	.LBB537
 19940 03dc 4C000000 		.4byte	.LBE537
 19941 03e0 00000000 		.4byte	0
 19942 03e4 00000000 		.4byte	0
 19943 03e8 2A010000 		.4byte	.LBB541
 19944 03ec 2A010000 		.4byte	.LBE541
 19945 03f0 2A010000 		.4byte	.LBB549
 19946 03f4 2A010000 		.4byte	.LBE549
 19947 03f8 2A010000 		.4byte	.LBB550
 19948 03fc 2A010000 		.4byte	.LBE550
 19949 0400 2A010000 		.4byte	.LBB551
 19950 0404 30010000 		.4byte	.LBE551
 19951 0408 00000000 		.4byte	0
 19952 040c 00000000 		.4byte	0
 19953 0410 BA010000 		.4byte	.LBB560
 19954 0414 BA010000 		.4byte	.LBE560
 19955 0418 BA010000 		.4byte	.LBB704
 19956 041c BA010000 		.4byte	.LBE704
 19957 0420 BA010000 		.4byte	.LBB705
 19958 0424 BA010000 		.4byte	.LBE705
 19959 0428 BA010000 		.4byte	.LBB706
 19960 042c C0010000 		.4byte	.LBE706
 19961 0430 C0010000 		.4byte	.LBB707
 19962 0434 D6010000 		.4byte	.LBE707
 19963 0438 D6010000 		.4byte	.LBB708
 19964 043c D6010000 		.4byte	.LBE708
 19965 0440 D6010000 		.4byte	.LBB709
 19966 0444 DA010000 		.4byte	.LBE709
 19967 0448 DA010000 		.4byte	.LBB710
 19968 044c 6E020000 		.4byte	.LBE710
 19969 0450 6E020000 		.4byte	.LBB711
 19970 0454 6E020000 		.4byte	.LBE711
 19971 0458 6E020000 		.4byte	.LBB712
 19972 045c 6E020000 		.4byte	.LBE712
 19973 0460 6E020000 		.4byte	.LBB713
 19974 0464 74020000 		.4byte	.LBE713
 19975 0468 74020000 		.4byte	.LBB714
 19976 046c 84020000 		.4byte	.LBE714
 19977 0470 84020000 		.4byte	.LBB715
 19978 0474 84020000 		.4byte	.LBE715
 19979 0478 84020000 		.4byte	.LBB716
 19980 047c 98020000 		.4byte	.LBE716
 19981 0480 98020000 		.4byte	.LBB717
 19982 0484 BC020000 		.4byte	.LBE717
 19983 0488 BC020000 		.4byte	.LBB718
 19984 048c BC020000 		.4byte	.LBE718
 19985 0490 BC020000 		.4byte	.LBB719
 19986 0494 BC020000 		.4byte	.LBE719
 19987 0498 BC020000 		.4byte	.LBB720
 19988 049c C2020000 		.4byte	.LBE720
 19989 04a0 C2020000 		.4byte	.LBB721
 19990 04a4 DC020000 		.4byte	.LBE721
 19991 04a8 DC020000 		.4byte	.LBB722
 19992 04ac DC020000 		.4byte	.LBE722
 19993 04b0 DC020000 		.4byte	.LBB723
 19994 04b4 52030000 		.4byte	.LBE723
 19995 04b8 52030000 		.4byte	.LBB724
ARM GAS  C:\Users\USER\AppData\Local\Temp\ccRejSya.s 			page 352


 19996 04bc 52030000 		.4byte	.LBE724
 19997 04c0 52030000 		.4byte	.LBB725
 19998 04c4 52030000 		.4byte	.LBE725
 19999 04c8 52030000 		.4byte	.LBB726
 20000 04cc 58030000 		.4byte	.LBE726
 20001 04d0 58030000 		.4byte	.LBB727
 20002 04d4 6C030000 		.4byte	.LBE727
 20003 04d8 6C030000 		.4byte	.LBB728
 20004 04dc 6C030000 		.4byte	.LBE728
 20005 04e0 6C030000 		.4byte	.LBB729
 20006 04e4 6C030000 		.4byte	.LBE729
 20007 04e8 6C030000 		.4byte	.LBB730
 20008 04ec 72030000 		.4byte	.LBE730
 20009 04f0 72030000 		.4byte	.LBB731
 20010 04f4 86030000 		.4byte	.LBE731
 20011 04f8 00000000 		.4byte	0
 20012 04fc 00000000 		.4byte	0
 20013 0500 BA010000 		.4byte	.LBB561
 20014 0504 BA010000 		.4byte	.LBE561
 20015 0508 BA010000 		.4byte	.LBB569
 20016 050c BA010000 		.4byte	.LBE569
 20017 0510 BA010000 		.4byte	.LBB570
 20018 0514 BA010000 		.4byte	.LBE570
 20019 0518 BA010000 		.4byte	.LBB571
 20020 051c C0010000 		.4byte	.LBE571
 20021 0520 00000000 		.4byte	0
 20022 0524 00000000 		.4byte	0
 20023 0528 D6010000 		.4byte	.LBB572
 20024 052c D6010000 		.4byte	.LBE572
 20025 0530 D6010000 		.4byte	.LBB581
 20026 0534 D6010000 		.4byte	.LBE581
 20027 0538 D6010000 		.4byte	.LBB582
 20028 053c DA010000 		.4byte	.LBE582
 20029 0540 00000000 		.4byte	0
 20030 0544 00000000 		.4byte	0
 20031 0548 DA010000 		.4byte	.LBB583
 20032 054c DA010000 		.4byte	.LBE583
 20033 0550 DA010000 		.4byte	.LBB651
 20034 0554 6E020000 		.4byte	.LBE651
 20035 0558 6E020000 		.4byte	.LBB652
 20036 055c 6E020000 		.4byte	.LBE652
 20037 0560 6E020000 		.4byte	.LBB653
 20038 0564 6E020000 		.4byte	.LBE653
 20039 0568 6E020000 		.4byte	.LBB654
 20040 056c 74020000 		.4byte	.LBE654
 20041 0570 74020000 		.4byte	.LBB655
 20042 0574 84020000 		.4byte	.LBE655
 20043 0578 84020000 		.4byte	.LBB656
 20044 057c 84020000 		.4byte	.LBE656
 20045 0580 84020000 		.4byte	.LBB657
 20046 0584 98020000 		.4byte	.LBE657
 20047 0588 98020000 		.4byte	.LBB658
 20048 058c BC020000 		.4byte	.LBE658
 20049 0590 EC020000 		.4byte	.LBB695
 20050 0594 52030000 		.4byte	.LBE695
 20051 0598 00000000 		.4byte	0
 20052 059c 00000000 		.4byte	0
ARM GAS  C:\Users\USER\AppData\Local\Temp\ccRejSya.s 			page 353


 20053 05a0 26020000 		.4byte	.LBB585
 20054 05a4 6E020000 		.4byte	.LBE585
 20055 05a8 6E020000 		.4byte	.LBB631
 20056 05ac 6E020000 		.4byte	.LBE631
 20057 05b0 6E020000 		.4byte	.LBB632
 20058 05b4 6E020000 		.4byte	.LBE632
 20059 05b8 6E020000 		.4byte	.LBB633
 20060 05bc 74020000 		.4byte	.LBE633
 20061 05c0 74020000 		.4byte	.LBB634
 20062 05c4 84020000 		.4byte	.LBE634
 20063 05c8 84020000 		.4byte	.LBB635
 20064 05cc 84020000 		.4byte	.LBE635
 20065 05d0 84020000 		.4byte	.LBB636
 20066 05d4 8C020000 		.4byte	.LBE636
 20067 05d8 EC020000 		.4byte	.LBB637
 20068 05dc 26030000 		.4byte	.LBE637
 20069 05e0 4A030000 		.4byte	.LBB642
 20070 05e4 4E030000 		.4byte	.LBE642
 20071 05e8 00000000 		.4byte	0
 20072 05ec 00000000 		.4byte	0
 20073 05f0 30020000 		.4byte	.LBB587
 20074 05f4 68020000 		.4byte	.LBE587
 20075 05f8 EC020000 		.4byte	.LBB621
 20076 05fc 20030000 		.4byte	.LBE621
 20077 0600 4A030000 		.4byte	.LBB622
 20078 0604 4E030000 		.4byte	.LBE622
 20079 0608 00000000 		.4byte	0
 20080 060c 00000000 		.4byte	0
 20081 0610 36020000 		.4byte	.LBB588
 20082 0614 3E020000 		.4byte	.LBE588
 20083 0618 40020000 		.4byte	.LBB593
 20084 061c 68020000 		.4byte	.LBE593
 20085 0620 4A030000 		.4byte	.LBB594
 20086 0624 4E030000 		.4byte	.LBE594
 20087 0628 00000000 		.4byte	0
 20088 062c 00000000 		.4byte	0
 20089 0630 4C020000 		.4byte	.LBB589
 20090 0634 5E020000 		.4byte	.LBE589
 20091 0638 4A030000 		.4byte	.LBB592
 20092 063c 4E030000 		.4byte	.LBE592
 20093 0640 00000000 		.4byte	0
 20094 0644 00000000 		.4byte	0
 20095 0648 6E020000 		.4byte	.LBB595
 20096 064c 6E020000 		.4byte	.LBE595
 20097 0650 6E020000 		.4byte	.LBB603
 20098 0654 6E020000 		.4byte	.LBE603
 20099 0658 6E020000 		.4byte	.LBB604
 20100 065c 6E020000 		.4byte	.LBE604
 20101 0660 6E020000 		.4byte	.LBB605
 20102 0664 74020000 		.4byte	.LBE605
 20103 0668 00000000 		.4byte	0
 20104 066c 00000000 		.4byte	0
 20105 0670 84020000 		.4byte	.LBB610
 20106 0674 84020000 		.4byte	.LBE610
 20107 0678 84020000 		.4byte	.LBB619
 20108 067c 84020000 		.4byte	.LBE619
 20109 0680 84020000 		.4byte	.LBB620
ARM GAS  C:\Users\USER\AppData\Local\Temp\ccRejSya.s 			page 354


 20110 0684 8C020000 		.4byte	.LBE620
 20111 0688 00000000 		.4byte	0
 20112 068c 00000000 		.4byte	0
 20113 0690 BC020000 		.4byte	.LBB659
 20114 0694 BC020000 		.4byte	.LBE659
 20115 0698 BC020000 		.4byte	.LBB681
 20116 069c BC020000 		.4byte	.LBE681
 20117 06a0 BC020000 		.4byte	.LBB682
 20118 06a4 BC020000 		.4byte	.LBE682
 20119 06a8 BC020000 		.4byte	.LBB683
 20120 06ac C2020000 		.4byte	.LBE683
 20121 06b0 52030000 		.4byte	.LBB696
 20122 06b4 52030000 		.4byte	.LBE696
 20123 06b8 52030000 		.4byte	.LBB697
 20124 06bc 52030000 		.4byte	.LBE697
 20125 06c0 52030000 		.4byte	.LBB698
 20126 06c4 52030000 		.4byte	.LBE698
 20127 06c8 52030000 		.4byte	.LBB699
 20128 06cc 58030000 		.4byte	.LBE699
 20129 06d0 6C030000 		.4byte	.LBB700
 20130 06d4 6C030000 		.4byte	.LBE700
 20131 06d8 6C030000 		.4byte	.LBB701
 20132 06dc 6C030000 		.4byte	.LBE701
 20133 06e0 6C030000 		.4byte	.LBB702
 20134 06e4 6C030000 		.4byte	.LBE702
 20135 06e8 6C030000 		.4byte	.LBB703
 20136 06ec 72030000 		.4byte	.LBE703
 20137 06f0 00000000 		.4byte	0
 20138 06f4 00000000 		.4byte	0
 20139 06f8 BC020000 		.4byte	.LBB660
 20140 06fc BC020000 		.4byte	.LBE660
 20141 0700 BC020000 		.4byte	.LBB673
 20142 0704 BC020000 		.4byte	.LBE673
 20143 0708 BC020000 		.4byte	.LBB674
 20144 070c C2020000 		.4byte	.LBE674
 20145 0710 52030000 		.4byte	.LBB675
 20146 0714 52030000 		.4byte	.LBE675
 20147 0718 52030000 		.4byte	.LBB676
 20148 071c 52030000 		.4byte	.LBE676
 20149 0720 52030000 		.4byte	.LBB677
 20150 0724 58030000 		.4byte	.LBE677
 20151 0728 6C030000 		.4byte	.LBB678
 20152 072c 6C030000 		.4byte	.LBE678
 20153 0730 6C030000 		.4byte	.LBB679
 20154 0734 6C030000 		.4byte	.LBE679
 20155 0738 6C030000 		.4byte	.LBB680
 20156 073c 72030000 		.4byte	.LBE680
 20157 0740 00000000 		.4byte	0
 20158 0744 00000000 		.4byte	0
 20159 0748 BC020000 		.4byte	.LBB661
 20160 074c BC020000 		.4byte	.LBE661
 20161 0750 BC020000 		.4byte	.LBB668
 20162 0754 C2020000 		.4byte	.LBE668
 20163 0758 52030000 		.4byte	.LBB669
 20164 075c 52030000 		.4byte	.LBE669
 20165 0760 52030000 		.4byte	.LBB670
 20166 0764 58030000 		.4byte	.LBE670
ARM GAS  C:\Users\USER\AppData\Local\Temp\ccRejSya.s 			page 355


 20167 0768 6C030000 		.4byte	.LBB671
 20168 076c 6C030000 		.4byte	.LBE671
 20169 0770 6C030000 		.4byte	.LBB672
 20170 0774 72030000 		.4byte	.LBE672
 20171 0778 00000000 		.4byte	0
 20172 077c 00000000 		.4byte	0
 20173 0780 BC020000 		.4byte	.LBB662
 20174 0784 C2020000 		.4byte	.LBE662
 20175 0788 52030000 		.4byte	.LBB666
 20176 078c 58030000 		.4byte	.LBE666
 20177 0790 6C030000 		.4byte	.LBB667
 20178 0794 72030000 		.4byte	.LBE667
 20179 0798 00000000 		.4byte	0
 20180 079c 00000000 		.4byte	0
 20181 07a0 DC020000 		.4byte	.LBB684
 20182 07a4 DC020000 		.4byte	.LBE684
 20183 07a8 DC020000 		.4byte	.LBB693
 20184 07ac DC020000 		.4byte	.LBE693
 20185 07b0 DC020000 		.4byte	.LBB694
 20186 07b4 EC020000 		.4byte	.LBE694
 20187 07b8 00000000 		.4byte	0
 20188 07bc 00000000 		.4byte	0
 20189 07c0 2A000000 		.4byte	.LBB782
 20190 07c4 2C000000 		.4byte	.LBE782
 20191 07c8 32000000 		.4byte	.LBB791
 20192 07cc 4C000000 		.4byte	.LBE791
 20193 07d0 00000000 		.4byte	0
 20194 07d4 00000000 		.4byte	0
 20195 07d8 2A000000 		.4byte	.LBB784
 20196 07dc 2C000000 		.4byte	.LBE784
 20197 07e0 32000000 		.4byte	.LBB787
 20198 07e4 36000000 		.4byte	.LBE787
 20199 07e8 00000000 		.4byte	0
 20200 07ec 00000000 		.4byte	0
 20201 07f0 04000000 		.4byte	.LBB794
 20202 07f4 06000000 		.4byte	.LBE794
 20203 07f8 08000000 		.4byte	.LBB799
 20204 07fc 18000000 		.4byte	.LBE799
 20205 0800 00000000 		.4byte	0
 20206 0804 00000000 		.4byte	0
 20207 0808 48000000 		.4byte	.LBB800
 20208 080c 4C000000 		.4byte	.LBE800
 20209 0810 5C000000 		.4byte	.LBB803
 20210 0814 5E000000 		.4byte	.LBE803
 20211 0818 00000000 		.4byte	0
 20212 081c 00000000 		.4byte	0
 20213 0820 B0000000 		.4byte	.LBB808
 20214 0824 B6000000 		.4byte	.LBE808
 20215 0828 BA000000 		.4byte	.LBB811
 20216 082c BC000000 		.4byte	.LBE811
 20217 0830 00000000 		.4byte	0
 20218 0834 00000000 		.4byte	0
 20219 0838 8C000000 		.4byte	.LBB812
 20220 083c 8E000000 		.4byte	.LBE812
 20221 0840 92000000 		.4byte	.LBB817
 20222 0844 92000000 		.4byte	.LBE817
 20223 0848 96000000 		.4byte	.LBB818
ARM GAS  C:\Users\USER\AppData\Local\Temp\ccRejSya.s 			page 356


 20224 084c 98000000 		.4byte	.LBE818
 20225 0850 9C000000 		.4byte	.LBB819
 20226 0854 9E000000 		.4byte	.LBE819
 20227 0858 00000000 		.4byte	0
 20228 085c 00000000 		.4byte	0
 20229 0860 2E000000 		.4byte	.LBB830
 20230 0864 52000000 		.4byte	.LBE830
 20231 0868 56000000 		.4byte	.LBB855
 20232 086c 68000000 		.4byte	.LBE855
 20233 0870 68000000 		.4byte	.LBB856
 20234 0874 68000000 		.4byte	.LBE856
 20235 0878 68000000 		.4byte	.LBB857
 20236 087c 68000000 		.4byte	.LBE857
 20237 0880 68000000 		.4byte	.LBB858
 20238 0884 6E000000 		.4byte	.LBE858
 20239 0888 6E000000 		.4byte	.LBB859
 20240 088c 80000000 		.4byte	.LBE859
 20241 0890 80000000 		.4byte	.LBB860
 20242 0894 80000000 		.4byte	.LBE860
 20243 0898 80000000 		.4byte	.LBB861
 20244 089c 80000000 		.4byte	.LBE861
 20245 08a0 80000000 		.4byte	.LBB862
 20246 08a4 84000000 		.4byte	.LBE862
 20247 08a8 00000000 		.4byte	0
 20248 08ac 00000000 		.4byte	0
 20249 08b0 68000000 		.4byte	.LBB831
 20250 08b4 68000000 		.4byte	.LBE831
 20251 08b8 68000000 		.4byte	.LBB839
 20252 08bc 68000000 		.4byte	.LBE839
 20253 08c0 68000000 		.4byte	.LBB840
 20254 08c4 68000000 		.4byte	.LBE840
 20255 08c8 68000000 		.4byte	.LBB841
 20256 08cc 6E000000 		.4byte	.LBE841
 20257 08d0 00000000 		.4byte	0
 20258 08d4 00000000 		.4byte	0
 20259 08d8 80000000 		.4byte	.LBB844
 20260 08dc 80000000 		.4byte	.LBE844
 20261 08e0 80000000 		.4byte	.LBB852
 20262 08e4 80000000 		.4byte	.LBE852
 20263 08e8 80000000 		.4byte	.LBB853
 20264 08ec 80000000 		.4byte	.LBE853
 20265 08f0 80000000 		.4byte	.LBB854
 20266 08f4 84000000 		.4byte	.LBE854
 20267 08f8 00000000 		.4byte	0
 20268 08fc 00000000 		.4byte	0
 20269 0900 24000000 		.4byte	.LBB863
 20270 0904 30000000 		.4byte	.LBE863
 20271 0908 34000000 		.4byte	.LBB864
 20272 090c 48000000 		.4byte	.LBE864
 20273 0910 00000000 		.4byte	0
 20274 0914 00000000 		.4byte	0
 20275 0918 22000000 		.4byte	.LBB865
 20276 091c 22000000 		.4byte	.LBE865
 20277 0920 38000000 		.4byte	.LBB900
 20278 0924 60000000 		.4byte	.LBE900
 20279 0928 8A000000 		.4byte	.LBB939
 20280 092c 9C000000 		.4byte	.LBE939
ARM GAS  C:\Users\USER\AppData\Local\Temp\ccRejSya.s 			page 357


 20281 0930 9C000000 		.4byte	.LBB940
 20282 0934 9C000000 		.4byte	.LBE940
 20283 0938 9C000000 		.4byte	.LBB941
 20284 093c 9C000000 		.4byte	.LBE941
 20285 0940 9C000000 		.4byte	.LBB942
 20286 0944 9C000000 		.4byte	.LBE942
 20287 0948 9C000000 		.4byte	.LBB943
 20288 094c A2000000 		.4byte	.LBE943
 20289 0950 A2000000 		.4byte	.LBB944
 20290 0954 C2000000 		.4byte	.LBE944
 20291 0958 C2000000 		.4byte	.LBB945
 20292 095c C2000000 		.4byte	.LBE945
 20293 0960 C2000000 		.4byte	.LBB946
 20294 0964 C2000000 		.4byte	.LBE946
 20295 0968 C2000000 		.4byte	.LBB947
 20296 096c C2000000 		.4byte	.LBE947
 20297 0970 C2000000 		.4byte	.LBB948
 20298 0974 D0000000 		.4byte	.LBE948
 20299 0978 00000000 		.4byte	0
 20300 097c 00000000 		.4byte	0
 20301 0980 9C000000 		.4byte	.LBB866
 20302 0984 9C000000 		.4byte	.LBE866
 20303 0988 9C000000 		.4byte	.LBB878
 20304 098c 9C000000 		.4byte	.LBE878
 20305 0990 9C000000 		.4byte	.LBB879
 20306 0994 9C000000 		.4byte	.LBE879
 20307 0998 9C000000 		.4byte	.LBB880
 20308 099c 9C000000 		.4byte	.LBE880
 20309 09a0 9C000000 		.4byte	.LBB881
 20310 09a4 A2000000 		.4byte	.LBE881
 20311 09a8 00000000 		.4byte	0
 20312 09ac 00000000 		.4byte	0
 20313 09b0 C2000000 		.4byte	.LBB884
 20314 09b4 C2000000 		.4byte	.LBE884
 20315 09b8 C2000000 		.4byte	.LBB896
 20316 09bc C2000000 		.4byte	.LBE896
 20317 09c0 C2000000 		.4byte	.LBB897
 20318 09c4 C2000000 		.4byte	.LBE897
 20319 09c8 C2000000 		.4byte	.LBB898
 20320 09cc C2000000 		.4byte	.LBE898
 20321 09d0 C2000000 		.4byte	.LBB899
 20322 09d4 D0000000 		.4byte	.LBE899
 20323 09d8 00000000 		.4byte	0
 20324 09dc 00000000 		.4byte	0
 20325 09e0 60000000 		.4byte	.LBB901
 20326 09e4 60000000 		.4byte	.LBE901
 20327 09e8 60000000 		.4byte	.LBB913
 20328 09ec 60000000 		.4byte	.LBE913
 20329 09f0 60000000 		.4byte	.LBB914
 20330 09f4 60000000 		.4byte	.LBE914
 20331 09f8 60000000 		.4byte	.LBB915
 20332 09fc 60000000 		.4byte	.LBE915
 20333 0a00 60000000 		.4byte	.LBB916
 20334 0a04 66000000 		.4byte	.LBE916
 20335 0a08 00000000 		.4byte	0
 20336 0a0c 00000000 		.4byte	0
 20337 0a10 6C000000 		.4byte	.LBB917
ARM GAS  C:\Users\USER\AppData\Local\Temp\ccRejSya.s 			page 358


 20338 0a14 6E000000 		.4byte	.LBE917
 20339 0a18 78000000 		.4byte	.LBB921
 20340 0a1c 7A000000 		.4byte	.LBE921
 20341 0a20 7C000000 		.4byte	.LBB922
 20342 0a24 80000000 		.4byte	.LBE922
 20343 0a28 00000000 		.4byte	0
 20344 0a2c 00000000 		.4byte	0
 20345 0a30 80000000 		.4byte	.LBB923
 20346 0a34 80000000 		.4byte	.LBE923
 20347 0a38 80000000 		.4byte	.LBB935
 20348 0a3c 80000000 		.4byte	.LBE935
 20349 0a40 80000000 		.4byte	.LBB936
 20350 0a44 80000000 		.4byte	.LBE936
 20351 0a48 80000000 		.4byte	.LBB937
 20352 0a4c 80000000 		.4byte	.LBE937
 20353 0a50 80000000 		.4byte	.LBB938
 20354 0a54 86000000 		.4byte	.LBE938
 20355 0a58 00000000 		.4byte	0
 20356 0a5c 00000000 		.4byte	0
 20357 0a60 00000000 		.4byte	.LBB965
 20358 0a64 00000000 		.4byte	.LBE965
 20359 0a68 02000000 		.4byte	.LBB1015
 20360 0a6c 58000000 		.4byte	.LBE1015
 20361 0a70 60000000 		.4byte	.LBB1016
 20362 0a74 60000000 		.4byte	.LBE1016
 20363 0a78 60000000 		.4byte	.LBB1017
 20364 0a7c 60000000 		.4byte	.LBE1017
 20365 0a80 60000000 		.4byte	.LBB1018
 20366 0a84 60000000 		.4byte	.LBE1018
 20367 0a88 60000000 		.4byte	.LBB1019
 20368 0a8c 60000000 		.4byte	.LBE1019
 20369 0a90 60000000 		.4byte	.LBB1020
 20370 0a94 66000000 		.4byte	.LBE1020
 20371 0a98 66000000 		.4byte	.LBB1021
 20372 0a9c 76000000 		.4byte	.LBE1021
 20373 0aa0 76000000 		.4byte	.LBB1022
 20374 0aa4 76000000 		.4byte	.LBE1022
 20375 0aa8 76000000 		.4byte	.LBB1023
 20376 0aac 76000000 		.4byte	.LBE1023
 20377 0ab0 76000000 		.4byte	.LBB1024
 20378 0ab4 76000000 		.4byte	.LBE1024
 20379 0ab8 76000000 		.4byte	.LBB1025
 20380 0abc A6000000 		.4byte	.LBE1025
 20381 0ac0 AE000000 		.4byte	.LBB1026
 20382 0ac4 E8000000 		.4byte	.LBE1026
 20383 0ac8 00000000 		.4byte	0
 20384 0acc 00000000 		.4byte	0
 20385 0ad0 60000000 		.4byte	.LBB967
 20386 0ad4 60000000 		.4byte	.LBE967
 20387 0ad8 60000000 		.4byte	.LBB979
 20388 0adc 60000000 		.4byte	.LBE979
 20389 0ae0 60000000 		.4byte	.LBB980
 20390 0ae4 60000000 		.4byte	.LBE980
 20391 0ae8 60000000 		.4byte	.LBB981
 20392 0aec 60000000 		.4byte	.LBE981
 20393 0af0 60000000 		.4byte	.LBB982
 20394 0af4 66000000 		.4byte	.LBE982
ARM GAS  C:\Users\USER\AppData\Local\Temp\ccRejSya.s 			page 359


 20395 0af8 00000000 		.4byte	0
 20396 0afc 00000000 		.4byte	0
 20397 0b00 68000000 		.4byte	.LBB983
 20398 0b04 6A000000 		.4byte	.LBE983
 20399 0b08 70000000 		.4byte	.LBB986
 20400 0b0c 76000000 		.4byte	.LBE986
 20401 0b10 00000000 		.4byte	0
 20402 0b14 00000000 		.4byte	0
 20403 0b18 76000000 		.4byte	.LBB987
 20404 0b1c 76000000 		.4byte	.LBE987
 20405 0b20 76000000 		.4byte	.LBB999
 20406 0b24 76000000 		.4byte	.LBE999
 20407 0b28 76000000 		.4byte	.LBB1000
 20408 0b2c 76000000 		.4byte	.LBE1000
 20409 0b30 76000000 		.4byte	.LBB1001
 20410 0b34 76000000 		.4byte	.LBE1001
 20411 0b38 76000000 		.4byte	.LBB1002
 20412 0b3c 7E000000 		.4byte	.LBE1002
 20413 0b40 00000000 		.4byte	0
 20414 0b44 00000000 		.4byte	0
 20415 0b48 00000000 		.4byte	.LFB292
 20416 0b4c 86030000 		.4byte	.LFE292
 20417 0b50 00000000 		.4byte	.LFB293
 20418 0b54 72000000 		.4byte	.LFE293
 20419 0b58 00000000 		.4byte	.LFB274
 20420 0b5c 24000000 		.4byte	.LFE274
 20421 0b60 00000000 		.4byte	.LFB275
 20422 0b64 E4000000 		.4byte	.LFE275
 20423 0b68 00000000 		.4byte	.LFB276
 20424 0b6c 44000000 		.4byte	.LFE276
 20425 0b70 00000000 		.4byte	.LFB277
 20426 0b74 C8000000 		.4byte	.LFE277
 20427 0b78 00000000 		.4byte	.LFB278
 20428 0b7c 18000000 		.4byte	.LFE278
 20429 0b80 00000000 		.4byte	.LFB279
 20430 0b84 40010000 		.4byte	.LFE279
 20431 0b88 00000000 		.4byte	.LFB280
 20432 0b8c 0E000000 		.4byte	.LFE280
 20433 0b90 00000000 		.4byte	.LFB281
 20434 0b94 1A000000 		.4byte	.LFE281
 20435 0b98 00000000 		.4byte	.LFB282
 20436 0b9c 1A000000 		.4byte	.LFE282
 20437 0ba0 00000000 		.4byte	.LFB283
 20438 0ba4 12000000 		.4byte	.LFE283
 20439 0ba8 00000000 		.4byte	.LFB284
 20440 0bac 3A000000 		.4byte	.LFE284
 20441 0bb0 00000000 		.4byte	.LFB300
 20442 0bb4 9C000000 		.4byte	.LFE300
 20443 0bb8 00000000 		.4byte	.LFB285
 20444 0bbc 4A000000 		.4byte	.LFE285
 20445 0bc0 00000000 		.4byte	.LFB299
 20446 0bc4 D0000000 		.4byte	.LFE299
 20447 0bc8 00000000 		.4byte	.LFB273
 20448 0bcc E8000000 		.4byte	.LFE273
 20449 0bd0 00000000 		.4byte	.LFB286
 20450 0bd4 14000000 		.4byte	.LFE286
 20451 0bd8 00000000 		.4byte	.LFB287
ARM GAS  C:\Users\USER\AppData\Local\Temp\ccRejSya.s 			page 360


 20452 0bdc 28000000 		.4byte	.LFE287
 20453 0be0 00000000 		.4byte	.LFB288
 20454 0be4 14000000 		.4byte	.LFE288
 20455 0be8 00000000 		.4byte	.LFB289
 20456 0bec 14000000 		.4byte	.LFE289
 20457 0bf0 00000000 		.4byte	.LFB290
 20458 0bf4 14000000 		.4byte	.LFE290
 20459 0bf8 00000000 		.4byte	.LFB291
 20460 0bfc 14000000 		.4byte	.LFE291
 20461 0c00 00000000 		.4byte	0
 20462 0c04 00000000 		.4byte	0
 20463              		.section	.debug_line,"",%progbits
 20464              	.Ldebug_line0:
 20465 0000 D61C0000 		.section	.debug_str,"MS",%progbits,1
 20465      03000A06 
 20465      00000201 
 20465      FB0E0D00 
 20465      01010101 
 20466              	.LASF527:
 20467 0000 5553425F 		.ascii	"USB_STOP\000"
 20467      53544F50 
 20467      00
 20468              	.LASF265:
 20469 0009 706F7274 		.ascii	"port_intctx\000"
 20469      5F696E74 
 20469      63747800 
 20470              	.LASF286:
 20471 0015 63685F70 		.ascii	"ch_ptrsize\000"
 20471      74727369 
 20471      7A6500
 20472              	.LASF454:
 20473 0020 6576656E 		.ascii	"event\000"
 20473      7400
 20474              	.LASF365:
 20475 0026 43414E5F 		.ascii	"CAN_STARTING\000"
 20475      53544152 
 20475      54494E47 
 20475      00
 20476              	.LASF735:
 20477 0033 5F5F6675 		.ascii	"__func__\000"
 20477      6E635F5F 
 20477      00
 20478              	.LASF137:
 20479 003c 6D73675F 		.ascii	"msg_t\000"
 20479      7400
 20480              	.LASF391:
 20481 0042 4F504D4F 		.ascii	"OPMODE_SMBUS_DEVICE\000"
 20481      44455F53 
 20481      4D425553 
 20481      5F444556 
 20481      49434500 
 20482              	.LASF740:
 20483 0056 706F7274 		.ascii	"port_unlock_from_isr\000"
 20483      5F756E6C 
 20483      6F636B5F 
 20483      66726F6D 
 20483      5F697372 
ARM GAS  C:\Users\USER\AppData\Local\Temp\ccRejSya.s 			page 361


 20484              	.LASF482:
 20485 006b 55415254 		.ascii	"UART_TX_IDLE\000"
 20485      5F54585F 
 20485      49444C45 
 20485      00
 20486              	.LASF590:
 20487 0078 44494550 		.ascii	"DIEPTXF0\000"
 20487      54584630 
 20487      00
 20488              	.LASF666:
 20489 0081 55534244 		.ascii	"USBD1\000"
 20489      3100
 20490              	.LASF364:
 20491 0087 43414E5F 		.ascii	"CAN_STOP\000"
 20491      53544F50 
 20491      00
 20492              	.LASF299:
 20493 0090 63665F6F 		.ascii	"cf_off_time\000"
 20493      66665F74 
 20493      696D6500 
 20494              	.LASF190:
 20495 009c 63685F73 		.ascii	"ch_system_t\000"
 20495      79737465 
 20495      6D5F7400 
 20496              	.LASF3:
 20497 00a8 5F5F7569 		.ascii	"__uint8_t\000"
 20497      6E74385F 
 20497      7400
 20498              	.LASF272:
 20499 00b2 77747365 		.ascii	"wtsemp\000"
 20499      6D7000
 20500              	.LASF333:
 20501 00b9 5F426F6F 		.ascii	"_Bool\000"
 20501      6C00
 20502              	.LASF409:
 20503 00bf 646D6172 		.ascii	"dmarx\000"
 20503      7800
 20504              	.LASF68:
 20505 00c5 5F6D6273 		.ascii	"_mbstate\000"
 20505      74617465 
 20505      00
 20506              	.LASF47:
 20507 00ce 5F617465 		.ascii	"_atexit\000"
 20507      78697400 
 20508              	.LASF730:
 20509 00d6 6F73616C 		.ascii	"osalSysUnlock\000"
 20509      53797355 
 20509      6E6C6F63 
 20509      6B00
 20510              	.LASF609:
 20511 00e4 72657376 		.ascii	"resvd700\000"
 20511      64373030 
 20511      00
 20512              	.LASF620:
 20513 00ed 44564255 		.ascii	"DVBUSDIS\000"
 20513      53444953 
 20513      00
ARM GAS  C:\Users\USER\AppData\Local\Temp\ccRejSya.s 			page 362


 20514              	.LASF403:
 20515 00f6 6572726F 		.ascii	"errors\000"
 20515      727300
 20516              	.LASF472:
 20517 00fd 73706963 		.ascii	"spicallback_t\000"
 20517      616C6C62 
 20517      61636B5F 
 20517      7400
 20518              	.LASF186:
 20519 010b 76745F73 		.ascii	"vt_systime\000"
 20519      79737469 
 20519      6D6500
 20520              	.LASF525:
 20521 0116 75736265 		.ascii	"usbep_t\000"
 20521      705F7400 
 20522              	.LASF416:
 20523 011e 4943555F 		.ascii	"ICU_ACTIVE\000"
 20523      41435449 
 20523      564500
 20524              	.LASF253:
 20525 0129 5243435F 		.ascii	"RCC_TypeDef\000"
 20525      54797065 
 20525      44656600 
 20526              	.LASF37:
 20527 0135 5F5F746D 		.ascii	"__tm_mon\000"
 20527      5F6D6F6E 
 20527      00
 20528              	.LASF45:
 20529 013e 5F666E74 		.ascii	"_fntypes\000"
 20529      79706573 
 20529      00
 20530              	.LASF281:
 20531 0147 6D5F6E65 		.ascii	"m_next\000"
 20531      787400
 20532              	.LASF353:
 20533 014e 50434461 		.ascii	"PCData\000"
 20533      746100
 20534              	.LASF75:
 20535 0155 5F696E63 		.ascii	"_inc\000"
 20535      00
 20536              	.LASF48:
 20537 015a 5F696E64 		.ascii	"_ind\000"
 20537      00
 20538              	.LASF460:
 20539 015f 72656164 		.ascii	"read\000"
 20539      00
 20540              	.LASF594:
 20541 0164 47434346 		.ascii	"GCCFG\000"
 20541      4700
 20542              	.LASF428:
 20543 016a 42445452 		.ascii	"BDTR\000"
 20543      00
 20544              	.LASF698:
 20545 016f 6F74675F 		.ascii	"otg_epout_handler\000"
 20545      65706F75 
 20545      745F6861 
 20545      6E646C65 
ARM GAS  C:\Users\USER\AppData\Local\Temp\ccRejSya.s 			page 363


 20545      7200
 20546              	.LASF401:
 20547 0181 49324343 		.ascii	"I2CConfig\000"
 20547      6F6E6669 
 20547      6700
 20548              	.LASF127:
 20549 018b 75696E74 		.ascii	"uint16_t\000"
 20549      31365F74 
 20549      00
 20550              	.LASF410:
 20551 0194 646D6174 		.ascii	"dmatx\000"
 20551      7800
 20552              	.LASF664:
 20553 019a 736F665F 		.ascii	"sof_cb\000"
 20553      636200
 20554              	.LASF54:
 20555 01a1 5F666C61 		.ascii	"_flags\000"
 20555      677300
 20556              	.LASF715:
 20557 01a8 6E657874 		.ascii	"next\000"
 20557      00
 20558              	.LASF346:
 20559 01ad 6F737065 		.ascii	"ospeedr\000"
 20559      65647200 
 20560              	.LASF597:
 20561 01b5 44494550 		.ascii	"DIEPTXF\000"
 20561      54584600 
 20562              	.LASF305:
 20563 01bd 656C5F6E 		.ascii	"el_next\000"
 20563      65787400 
 20564              	.LASF510:
 20565 01c5 696E5F70 		.ascii	"in_params\000"
 20565      6172616D 
 20565      7300
 20566              	.LASF85:
 20567 01cf 5F637674 		.ascii	"_cvtlen\000"
 20567      6C656E00 
 20568              	.LASF699:
 20569 01d7 6570696E 		.ascii	"epint\000"
 20569      7400
 20570              	.LASF167:
 20571 01dd 63685F74 		.ascii	"ch_threads_queue\000"
 20571      68726561 
 20571      64735F71 
 20571      75657565 
 20571      00
 20572              	.LASF693:
 20573 01ee 7573625F 		.ascii	"usb_lld_stop\000"
 20573      6C6C645F 
 20573      73746F70 
 20573      00
 20574              	.LASF89:
 20575 01fb 5F736967 		.ascii	"_sig_func\000"
 20575      5F66756E 
 20575      6300
 20576              	.LASF148:
 20577 0205 705F6E65 		.ascii	"p_newer\000"
ARM GAS  C:\Users\USER\AppData\Local\Temp\ccRejSya.s 			page 364


 20577      77657200 
 20578              	.LASF607:
 20579 020d 48505254 		.ascii	"HPRT\000"
 20579      00
 20580              	.LASF561:
 20581 0212 4843494E 		.ascii	"HCINT\000"
 20581      5400
 20582              	.LASF749:
 20583 0218 63685379 		.ascii	"chSysPolledDelayX\000"
 20583      73506F6C 
 20583      6C656444 
 20583      656C6179 
 20583      5800
 20584              	.LASF296:
 20585 022a 63665F6F 		.ascii	"cf_off_flags\000"
 20585      66665F66 
 20585      6C616773 
 20585      00
 20586              	.LASF67:
 20587 0237 5F6C6F63 		.ascii	"_lock\000"
 20587      6B00
 20588              	.LASF63:
 20589 023d 5F6E6275 		.ascii	"_nbuf\000"
 20589      6600
 20590              	.LASF466:
 20591 0243 5350495F 		.ascii	"SPI_STOP\000"
 20591      53544F50 
 20591      00
 20592              	.LASF726:
 20593 024c 6379636C 		.ascii	"cycles\000"
 20593      657300
 20594              	.LASF121:
 20595 0253 5F756E75 		.ascii	"_unused\000"
 20595      73656400 
 20596              	.LASF352:
 20597 025b 50424461 		.ascii	"PBData\000"
 20597      746100
 20598              	.LASF669:
 20599 0262 65703063 		.ascii	"ep0config\000"
 20599      6F6E6669 
 20599      6700
 20600              	.LASF284:
 20601 026c 63685F73 		.ascii	"ch_size\000"
 20601      697A6500 
 20602              	.LASF603:
 20603 0274 48505458 		.ascii	"HPTXSTS\000"
 20603      53545300 
 20604              	.LASF345:
 20605 027c 6F747970 		.ascii	"otyper\000"
 20605      657200
 20606              	.LASF535:
 20607 0283 75736265 		.ascii	"usbepstatus_t\000"
 20607      70737461 
 20607      7475735F 
 20607      7400
 20608              	.LASF336:
 20609 0291 4F545950 		.ascii	"OTYPER\000"
ARM GAS  C:\Users\USER\AppData\Local\Temp\ccRejSya.s 			page 365


 20609      455200
 20610              	.LASF470:
 20611 0298 73706973 		.ascii	"spistate_t\000"
 20611      74617465 
 20611      5F7400
 20612              	.LASF559:
 20613 02a3 48434348 		.ascii	"HCCHAR\000"
 20613      415200
 20614              	.LASF385:
 20615 02aa 4932435F 		.ascii	"I2C_ACTIVE_RX\000"
 20615      41435449 
 20615      56455F52 
 20615      5800
 20616              	.LASF142:
 20617 02b8 74687265 		.ascii	"thread_t\000"
 20617      61645F74 
 20617      00
 20618              	.LASF307:
 20619 02c1 656C5F65 		.ascii	"el_events\000"
 20619      76656E74 
 20619      7300
 20620              	.LASF377:
 20621 02cb 736C6565 		.ascii	"sleep_event\000"
 20621      705F6576 
 20621      656E7400 
 20622              	.LASF185:
 20623 02d7 63685F76 		.ascii	"ch_virtual_timers_list\000"
 20623      69727475 
 20623      616C5F74 
 20623      696D6572 
 20623      735F6C69 
 20624              	.LASF330:
 20625 02ee 76656374 		.ascii	"vector\000"
 20625      6F7200
 20626              	.LASF585:
 20627 02f5 47494E54 		.ascii	"GINTSTS\000"
 20627      53545300 
 20628              	.LASF128:
 20629 02fd 696E7433 		.ascii	"int32_t\000"
 20629      325F7400 
 20630              	.LASF399:
 20631 0305 636C6F63 		.ascii	"clock_speed\000"
 20631      6B5F7370 
 20631      65656400 
 20632              	.LASF141:
 20633 0311 73797374 		.ascii	"systime_t\000"
 20633      696D655F 
 20633      7400
 20634              	.LASF379:
 20635 031b 43414E44 		.ascii	"CANDriver\000"
 20635      72697665 
 20635      7200
 20636              	.LASF99:
 20637 0325 5F616464 		.ascii	"_add\000"
 20637      00
 20638              	.LASF224:
 20639 032a 4D304152 		.ascii	"M0AR\000"
ARM GAS  C:\Users\USER\AppData\Local\Temp\ccRejSya.s 			page 366


 20639      00
 20640              	.LASF566:
 20641 032f 72657376 		.ascii	"resvd1c\000"
 20641      64316300 
 20642              	.LASF389:
 20643 0337 69326366 		.ascii	"i2cflags_t\000"
 20643      6C616773 
 20643      5F7400
 20644              	.LASF604:
 20645 0342 4841494E 		.ascii	"HAINT\000"
 20645      5400
 20646              	.LASF534:
 20647 0348 45505F53 		.ascii	"EP_STATUS_ACTIVE\000"
 20647      54415455 
 20647      535F4143 
 20647      54495645 
 20647      00
 20648              	.LASF219:
 20649 0359 46413152 		.ascii	"FA1R\000"
 20649      00
 20650              	.LASF723:
 20651 035e 6F73616C 		.ascii	"osalThreadResumeI\000"
 20651      54687265 
 20651      61645265 
 20651      73756D65 
 20651      4900
 20652              	.LASF750:
 20653 0370 6E766963 		.ascii	"nvicDisableVector\000"
 20653      44697361 
 20653      626C6556 
 20653      6563746F 
 20653      7200
 20654              	.LASF498:
 20655 0382 75617274 		.ascii	"uartecb_t\000"
 20655      6563625F 
 20655      7400
 20656              	.LASF601:
 20657 038c 48464E55 		.ascii	"HFNUM\000"
 20657      4D00
 20658              	.LASF323:
 20659 0392 716E6F74 		.ascii	"qnotify_t\000"
 20659      6966795F 
 20659      7400
 20660              	.LASF237:
 20661 039c 41504231 		.ascii	"APB1RSTR\000"
 20661      52535452 
 20661      00
 20662              	.LASF328:
 20663 03a5 69736869 		.ascii	"ishift\000"
 20663      667400
 20664              	.LASF711:
 20665 03ac 6F74675F 		.ascii	"otg_fifo_write_from_buffer\000"
 20665      6669666F 
 20665      5F777269 
 20665      74655F66 
 20665      726F6D5F 
 20666              	.LASF318:
ARM GAS  C:\Users\USER\AppData\Local\Temp\ccRejSya.s 			page 367


 20667 03c7 715F746F 		.ascii	"q_top\000"
 20667      7000
 20668              	.LASF56:
 20669 03cd 5F6C6266 		.ascii	"_lbfsize\000"
 20669      73697A65 
 20669      00
 20670              	.LASF552:
 20671 03d6 75645F73 		.ascii	"ud_string\000"
 20671      7472696E 
 20671      6700
 20672              	.LASF402:
 20673 03e0 49324344 		.ascii	"I2CDriver\000"
 20673      72697665 
 20673      7200
 20674              	.LASF384:
 20675 03ea 4932435F 		.ascii	"I2C_ACTIVE_TX\000"
 20675      41435449 
 20675      56455F54 
 20675      5800
 20676              	.LASF390:
 20677 03f8 4F504D4F 		.ascii	"OPMODE_I2C\000"
 20677      44455F49 
 20677      324300
 20678              	.LASF613:
 20679 0403 72657376 		.ascii	"resvd80C\000"
 20679      64383043 
 20679      00
 20680              	.LASF661:
 20681 040c 6576656E 		.ascii	"event_cb\000"
 20681      745F6362 
 20681      00
 20682              	.LASF580:
 20683 0415 474F5447 		.ascii	"GOTGCTL\000"
 20683      43544C00 
 20684              	.LASF555:
 20685 041d 75736265 		.ascii	"usbepcallback_t\000"
 20685      7063616C 
 20685      6C626163 
 20685      6B5F7400 
 20686              	.LASF66:
 20687 042d 5F646174 		.ascii	"_data\000"
 20687      6100
 20688              	.LASF193:
 20689 0433 76746C69 		.ascii	"vtlist\000"
 20689      737400
 20690              	.LASF414:
 20691 043a 4943555F 		.ascii	"ICU_READY\000"
 20691      52454144 
 20691      5900
 20692              	.LASF229:
 20693 0444 54524953 		.ascii	"TRISE\000"
 20693      4500
 20694              	.LASF619:
 20695 044a 72657376 		.ascii	"resvd824\000"
 20695      64383234 
 20695      00
 20696              	.LASF156:
ARM GAS  C:\Users\USER\AppData\Local\Temp\ccRejSya.s 			page 368


 20697 0453 705F7761 		.ascii	"p_waiting\000"
 20697      6974696E 
 20697      6700
 20698              	.LASF421:
 20699 045d 70636372 		.ascii	"pccrp\000"
 20699      7000
 20700              	.LASF315:
 20701 0463 715F7761 		.ascii	"q_waiting\000"
 20701      6974696E 
 20701      6700
 20702              	.LASF201:
 20703 046d 43414E5F 		.ascii	"CAN_TxMailBox_TypeDef\000"
 20703      54784D61 
 20703      696C426F 
 20703      785F5479 
 20703      70654465 
 20704              	.LASF192:
 20705 0483 726C6973 		.ascii	"rlist\000"
 20705      7400
 20706              	.LASF164:
 20707 0489 74687265 		.ascii	"threads_list_t\000"
 20707      6164735F 
 20707      6C697374 
 20707      5F7400
 20708              	.LASF267:
 20709 0498 746D5F63 		.ascii	"tm_calibration_t\000"
 20709      616C6962 
 20709      72617469 
 20709      6F6E5F74 
 20709      00
 20710              	.LASF324:
 20711 04a9 696E7075 		.ascii	"input_queue_t\000"
 20711      745F7175 
 20711      6575655F 
 20711      7400
 20712              	.LASF122:
 20713 04b7 5F5F6C6F 		.ascii	"__lock\000"
 20713      636B00
 20714              	.LASF394:
 20715 04be 5354445F 		.ascii	"STD_DUTY_CYCLE\000"
 20715      44555459 
 20715      5F435943 
 20715      4C4500
 20716              	.LASF70:
 20717 04cd 5F726565 		.ascii	"_reent\000"
 20717      6E7400
 20718              	.LASF292:
 20719 04d4 63665F6F 		.ascii	"cf_off_older\000"
 20719      66665F6F 
 20719      6C646572 
 20719      00
 20720              	.LASF646:
 20721 04e1 72787175 		.ascii	"rxqueued\000"
 20721      65756564 
 20721      00
 20722              	.LASF439:
 20723 04ea 69637563 		.ascii	"icuchannel_t\000"
ARM GAS  C:\Users\USER\AppData\Local\Temp\ccRejSya.s 			page 369


 20723      68616E6E 
 20723      656C5F74 
 20723      00
 20724              	.LASF368:
 20725 04f7 63616E73 		.ascii	"canstate_t\000"
 20725      74617465 
 20725      5F7400
 20726              	.LASF221:
 20727 0502 7346696C 		.ascii	"sFilterRegister\000"
 20727      74657252 
 20727      65676973 
 20727      74657200 
 20728              	.LASF91:
 20729 0512 5F5F7366 		.ascii	"__sf\000"
 20729      00
 20730              	.LASF618:
 20731 0517 72657376 		.ascii	"resvd820\000"
 20731      64383230 
 20731      00
 20732              	.LASF51:
 20733 0520 5F626173 		.ascii	"_base\000"
 20733      6500
 20734              	.LASF739:
 20735 0526 63685379 		.ascii	"chSysLock\000"
 20735      734C6F63 
 20735      6B00
 20736              	.LASF398:
 20737 0530 6F705F6D 		.ascii	"op_mode\000"
 20737      6F646500 
 20738              	.LASF108:
 20739 0538 5F6D6274 		.ascii	"_mbtowc_state\000"
 20739      6F77635F 
 20739      73746174 
 20739      6500
 20740              	.LASF670:
 20741 0546 66737061 		.ascii	"fsparams\000"
 20741      72616D73 
 20741      00
 20742              	.LASF728:
 20743 054f 6F73616C 		.ascii	"osalSysUnlockFromISR\000"
 20743      53797355 
 20743      6E6C6F63 
 20743      6B46726F 
 20743      6D495352 
 20744              	.LASF381:
 20745 0564 4932435F 		.ascii	"I2C_UNINIT\000"
 20745      554E494E 
 20745      495400
 20746              	.LASF449:
 20747 056f 53445F55 		.ascii	"SD_UNINIT\000"
 20747      4E494E49 
 20747      5400
 20748              	.LASF136:
 20749 0579 74707269 		.ascii	"tprio_t\000"
 20749      6F5F7400 
 20750              	.LASF243:
 20751 0581 41504232 		.ascii	"APB2ENR\000"
ARM GAS  C:\Users\USER\AppData\Local\Temp\ccRejSya.s 			page 370


 20751      454E5200 
 20752              	.LASF622:
 20753 0589 72657376 		.ascii	"resvd830\000"
 20753      64383330 
 20753      00
 20754              	.LASF32:
 20755 0592 5F5F746D 		.ascii	"__tm\000"
 20755      00
 20756              	.LASF624:
 20757 0597 72657376 		.ascii	"resvd838\000"
 20757      64383338 
 20757      00
 20758              	.LASF397:
 20759 05a0 69326364 		.ascii	"i2cdutycycle_t\000"
 20759      75747963 
 20759      79636C65 
 20759      5F7400
 20760              	.LASF625:
 20761 05af 72657376 		.ascii	"resvd83C\000"
 20761      64383343 
 20761      00
 20762              	.LASF405:
 20763 05b8 74687265 		.ascii	"thread\000"
 20763      616400
 20764              	.LASF621:
 20765 05bf 44564255 		.ascii	"DVBUSPULSE\000"
 20765      5350554C 
 20765      534500
 20766              	.LASF516:
 20767 05ca 73657475 		.ascii	"setup\000"
 20767      7000
 20768              	.LASF465:
 20769 05d0 5350495F 		.ascii	"SPI_UNINIT\000"
 20769      554E494E 
 20769      495400
 20770              	.LASF573:
 20771 05db 44545846 		.ascii	"DTXFSTS\000"
 20771      53545300 
 20772              	.LASF383:
 20773 05e3 4932435F 		.ascii	"I2C_READY\000"
 20773      52454144 
 20773      5900
 20774              	.LASF40:
 20775 05ed 5F5F746D 		.ascii	"__tm_yday\000"
 20775      5F796461 
 20775      7900
 20776              	.LASF427:
 20777 05f7 43434552 		.ascii	"CCER\000"
 20777      00
 20778              	.LASF258:
 20779 05fc 49325350 		.ascii	"I2SPR\000"
 20779      5200
 20780              	.LASF582:
 20781 0602 47414842 		.ascii	"GAHBCFG\000"
 20781      43464700 
 20782              	.LASF15:
 20783 060a 5F4C4F43 		.ascii	"_LOCK_T\000"
ARM GAS  C:\Users\USER\AppData\Local\Temp\ccRejSya.s 			page 371


 20783      4B5F5400 
 20784              	.LASF626:
 20785 0612 72657376 		.ascii	"resvd840\000"
 20785      64383430 
 20785      00
 20786              	.LASF254:
 20787 061b 43524350 		.ascii	"CRCPR\000"
 20787      5200
 20788              	.LASF701:
 20789 0621 6F74675F 		.ascii	"otg_rxfifo_handler\000"
 20789      72786669 
 20789      666F5F68 
 20789      616E646C 
 20789      657200
 20790              	.LASF6:
 20791 0634 5F5F7569 		.ascii	"__uint16_t\000"
 20791      6E743136 
 20791      5F7400
 20792              	.LASF641:
 20793 063f 74787175 		.ascii	"txqueued\000"
 20793      65756564 
 20793      00
 20794              	.LASF158:
 20795 0648 705F6D73 		.ascii	"p_msg\000"
 20795      6700
 20796              	.LASF100:
 20797 064e 5F756E75 		.ascii	"_unused_rand\000"
 20797      7365645F 
 20797      72616E64 
 20797      00
 20798              	.LASF588:
 20799 065b 47525853 		.ascii	"GRXSTSP\000"
 20799      54535000 
 20800              	.LASF587:
 20801 0663 47525853 		.ascii	"GRXSTSR\000"
 20801      54535200 
 20802              	.LASF746:
 20803 066b 63685468 		.ascii	"chThdDequeueAllI\000"
 20803      64446571 
 20803      75657565 
 20803      416C6C49 
 20803      00
 20804              	.LASF225:
 20805 067c 4D314152 		.ascii	"M1AR\000"
 20805      00
 20806              	.LASF523:
 20807 0681 77616974 		.ascii	"wait\000"
 20807      00
 20808              	.LASF226:
 20809 0686 444D415F 		.ascii	"DMA_Stream_TypeDef\000"
 20809      53747265 
 20809      616D5F54 
 20809      79706544 
 20809      656600
 20810              	.LASF756:
 20811 0699 5F757362 		.ascii	"_usb_reset\000"
 20811      5F726573 
ARM GAS  C:\Users\USER\AppData\Local\Temp\ccRejSya.s 			page 372


 20811      657400
 20812              	.LASF530:
 20813 06a4 5553425F 		.ascii	"USB_ACTIVE\000"
 20813      41435449 
 20813      564500
 20814              	.LASF575:
 20815 06af 73746D33 		.ascii	"stm32_otg_in_ep_t\000"
 20815      325F6F74 
 20815      675F696E 
 20815      5F65705F 
 20815      7400
 20816              	.LASF648:
 20817 06c1 7278636E 		.ascii	"rxcnt\000"
 20817      7400
 20818              	.LASF407:
 20819 06c7 7278646D 		.ascii	"rxdmamode\000"
 20819      616D6F64 
 20819      6500
 20820              	.LASF82:
 20821 06d1 5F726573 		.ascii	"_result_k\000"
 20821      756C745F 
 20821      6B00
 20822              	.LASF440:
 20823 06db 6D6F6465 		.ascii	"mode\000"
 20823      00
 20824              	.LASF74:
 20825 06e0 5F737464 		.ascii	"_stderr\000"
 20825      65727200 
 20826              	.LASF81:
 20827 06e8 5F726573 		.ascii	"_result\000"
 20827      756C7400 
 20828              	.LASF433:
 20829 06f0 4943555F 		.ascii	"ICU_INPUT_ACTIVE_HIGH\000"
 20829      494E5055 
 20829      545F4143 
 20829      54495645 
 20829      5F484947 
 20830              	.LASF44:
 20831 0706 5F64736F 		.ascii	"_dso_handle\000"
 20831      5F68616E 
 20831      646C6500 
 20832              	.LASF475:
 20833 0712 73737061 		.ascii	"sspad\000"
 20833      6400
 20834              	.LASF408:
 20835 0718 7478646D 		.ascii	"txdmamode\000"
 20835      616D6F64 
 20835      6500
 20836              	.LASF39:
 20837 0722 5F5F746D 		.ascii	"__tm_wday\000"
 20837      5F776461 
 20837      7900
 20838              	.LASF41:
 20839 072c 5F5F746D 		.ascii	"__tm_isdst\000"
 20839      5F697364 
 20839      737400
 20840              	.LASF682:
ARM GAS  C:\Users\USER\AppData\Local\Temp\ccRejSya.s 			page 373


 20841 0737 7573625F 		.ascii	"usb_lld_prepare_transmit\000"
 20841      6C6C645F 
 20841      70726570 
 20841      6172655F 
 20841      7472616E 
 20842              	.LASF263:
 20843 0750 73746B61 		.ascii	"stkalign_t\000"
 20843      6C69676E 
 20843      5F7400
 20844              	.LASF634:
 20845 075b 72785F66 		.ascii	"rx_fifo_size\000"
 20845      69666F5F 
 20845      73697A65 
 20845      00
 20846              	.LASF378:
 20847 0768 77616B65 		.ascii	"wakeup_event\000"
 20847      75705F65 
 20847      76656E74 
 20847      00
 20848              	.LASF180:
 20849 0775 76745F70 		.ascii	"vt_prev\000"
 20849      72657600 
 20850              	.LASF473:
 20851 077d 656E645F 		.ascii	"end_cb\000"
 20851      636200
 20852              	.LASF651:
 20853 0784 73657475 		.ascii	"setup_cb\000"
 20853      705F6362 
 20853      00
 20854              	.LASF4:
 20855 078d 756E7369 		.ascii	"unsigned char\000"
 20855      676E6564 
 20855      20636861 
 20855      7200
 20856              	.LASF73:
 20857 079b 5F737464 		.ascii	"_stdout\000"
 20857      6F757400 
 20858              	.LASF304:
 20859 07a3 6576656E 		.ascii	"event_listener\000"
 20859      745F6C69 
 20859      7374656E 
 20859      657200
 20860              	.LASF372:
 20861 07b2 74787175 		.ascii	"txqueue\000"
 20861      65756500 
 20862              	.LASF277:
 20863 07ba 735F636E 		.ascii	"s_cnt\000"
 20863      7400
 20864              	.LASF168:
 20865 07c0 72656164 		.ascii	"ready_list_t\000"
 20865      795F6C69 
 20865      73745F74 
 20865      00
 20866              	.LASF143:
 20867 07cd 63685F74 		.ascii	"ch_thread\000"
 20867      68726561 
 20867      6400
ARM GAS  C:\Users\USER\AppData\Local\Temp\ccRejSya.s 			page 374


 20868              	.LASF392:
 20869 07d7 4F504D4F 		.ascii	"OPMODE_SMBUS_HOST\000"
 20869      44455F53 
 20869      4D425553 
 20869      5F484F53 
 20869      5400
 20870              	.LASF115:
 20871 07e9 5F6D6273 		.ascii	"_mbsrtowcs_state\000"
 20871      72746F77 
 20871      63735F73 
 20871      74617465 
 20871      00
 20872              	.LASF668:
 20873 07fa 65703073 		.ascii	"ep0setup_buffer\000"
 20873      65747570 
 20873      5F627566 
 20873      66657200 
 20874              	.LASF246:
 20875 080a 41484233 		.ascii	"AHB3LPENR\000"
 20875      4C50454E 
 20875      5200
 20876              	.LASF30:
 20877 0814 5F776473 		.ascii	"_wds\000"
 20877      00
 20878              	.LASF367:
 20879 0819 43414E5F 		.ascii	"CAN_SLEEP\000"
 20879      534C4545 
 20879      5000
 20880              	.LASF52:
 20881 0823 5F73697A 		.ascii	"_size\000"
 20881      6500
 20882              	.LASF187:
 20883 0829 73797374 		.ascii	"system_debug_t\000"
 20883      656D5F64 
 20883      65627567 
 20883      5F7400
 20884              	.LASF424:
 20885 0838 44494552 		.ascii	"DIER\000"
 20885      00
 20886              	.LASF245:
 20887 083d 41484232 		.ascii	"AHB2LPENR\000"
 20887      4C50454E 
 20887      5200
 20888              	.LASF147:
 20889 0847 705F6374 		.ascii	"p_ctx\000"
 20889      7800
 20890              	.LASF183:
 20891 084d 76745F70 		.ascii	"vt_par\000"
 20891      617200
 20892              	.LASF760:
 20893 0854 443A5C67 		.ascii	"D:\\git\\oroca_bldc_dev\\oroca_bldc_FW\\oroca_bldc_"
 20893      69745C6F 
 20893      726F6361 
 20893      5F626C64 
 20893      635F6465 
 20894 0883 63686962 		.ascii	"chibios\000"
 20894      696F7300 
ARM GAS  C:\Users\USER\AppData\Local\Temp\ccRejSya.s 			page 375


 20895              	.LASF487:
 20896 088b 55415254 		.ascii	"UART_RX_ACTIVE\000"
 20896      5F52585F 
 20896      41435449 
 20896      564500
 20897              	.LASF59:
 20898 089a 5F777269 		.ascii	"_write\000"
 20898      746500
 20899              	.LASF256:
 20900 08a1 54584352 		.ascii	"TXCRCR\000"
 20900      435200
 20901              	.LASF483:
 20902 08a8 55415254 		.ascii	"UART_TX_ACTIVE\000"
 20902      5F54585F 
 20902      41435449 
 20902      564500
 20903              	.LASF396:
 20904 08b7 46415354 		.ascii	"FAST_DUTY_CYCLE_16_9\000"
 20904      5F445554 
 20904      595F4359 
 20904      434C455F 
 20904      31365F39 
 20905              	.LASF709:
 20906 08cc 6F74675F 		.ascii	"otg_do_pop\000"
 20906      646F5F70 
 20906      6F7000
 20907              	.LASF681:
 20908 08d7 7573625F 		.ascii	"usb_lld_start_out\000"
 20908      6C6C645F 
 20908      73746172 
 20908      745F6F75 
 20908      7400
 20909              	.LASF444:
 20910 08e9 6F766572 		.ascii	"overflow_cb\000"
 20910      666C6F77 
 20910      5F636200 
 20911              	.LASF130:
 20912 08f5 75696E74 		.ascii	"uint64_t\000"
 20912      36345F74 
 20912      00
 20913              	.LASF301:
 20914 08fe 63685F64 		.ascii	"ch_debug\000"
 20914      65627567 
 20914      00
 20915              	.LASF213:
 20916 0907 464D3152 		.ascii	"FM1R\000"
 20916      00
 20917              	.LASF360:
 20918 090c 50414C43 		.ascii	"PALConfig\000"
 20918      6F6E6669 
 20918      6700
 20919              	.LASF556:
 20920 0916 75736265 		.ascii	"usbeventcb_t\000"
 20920      76656E74 
 20920      63625F74 
 20920      00
 20921              	.LASF38:
ARM GAS  C:\Users\USER\AppData\Local\Temp\ccRejSya.s 			page 376


 20922 0923 5F5F746D 		.ascii	"__tm_year\000"
 20922      5F796561 
 20922      7200
 20923              	.LASF303:
 20924 092d 6576656E 		.ascii	"event_listener_t\000"
 20924      745F6C69 
 20924      7374656E 
 20924      65725F74 
 20924      00
 20925              	.LASF635:
 20926 093e 6F74675F 		.ascii	"otg_ram_size\000"
 20926      72616D5F 
 20926      73697A65 
 20926      00
 20927              	.LASF721:
 20928 094b 6F74675F 		.ascii	"otg_core_reset\000"
 20928      636F7265 
 20928      5F726573 
 20928      657400
 20929              	.LASF637:
 20930 095a 73746D33 		.ascii	"stm32_otg_params_t\000"
 20930      325F6F74 
 20930      675F7061 
 20930      72616D73 
 20930      5F7400
 20931              	.LASF629:
 20932 096d 72657376 		.ascii	"resvdD00\000"
 20932      64443030 
 20932      00
 20933              	.LASF255:
 20934 0976 52584352 		.ascii	"RXCRCR\000"
 20934      435200
 20935              	.LASF495:
 20936 097d 72786275 		.ascii	"rxbuf\000"
 20936      6600
 20937              	.LASF98:
 20938 0983 5F6D756C 		.ascii	"_mult\000"
 20938      7400
 20939              	.LASF278:
 20940 0989 63685F6D 		.ascii	"ch_mutex\000"
 20940      75746578 
 20940      00
 20941              	.LASF718:
 20942 0992 6669666F 		.ascii	"fifo\000"
 20942      00
 20943              	.LASF375:
 20944 0997 7478656D 		.ascii	"txempty_event\000"
 20944      7074795F 
 20944      6576656E 
 20944      7400
 20945              	.LASF235:
 20946 09a5 41484232 		.ascii	"AHB2RSTR\000"
 20946      52535452 
 20946      00
 20947              	.LASF357:
 20948 09ae 50474461 		.ascii	"PGData\000"
 20948      746100
ARM GAS  C:\Users\USER\AppData\Local\Temp\ccRejSya.s 			page 377


 20949              	.LASF113:
 20950 09b5 5F6D6272 		.ascii	"_mbrlen_state\000"
 20950      6C656E5F 
 20950      73746174 
 20950      6500
 20951              	.LASF745:
 20952 09c3 76616C75 		.ascii	"value\000"
 20952      6500
 20953              	.LASF291:
 20954 09c9 63665F6F 		.ascii	"cf_off_newer\000"
 20954      66665F6E 
 20954      65776572 
 20954      00
 20955              	.LASF614:
 20956 09d6 44494550 		.ascii	"DIEPMSK\000"
 20956      4D534B00 
 20957              	.LASF581:
 20958 09de 474F5447 		.ascii	"GOTGINT\000"
 20958      494E5400 
 20959              	.LASF478:
 20960 09e6 55415254 		.ascii	"UART_UNINIT\000"
 20960      5F554E49 
 20960      4E495400 
 20961              	.LASF653:
 20962 09f2 6F75745F 		.ascii	"out_cb\000"
 20962      636200
 20963              	.LASF605:
 20964 09f9 4841494E 		.ascii	"HAINTMSK\000"
 20964      544D534B 
 20964      00
 20965              	.LASF511:
 20966 0a02 6F75745F 		.ascii	"out_params\000"
 20966      70617261 
 20966      6D7300
 20967              	.LASF676:
 20968 0a0d 7573625F 		.ascii	"usb_lld_clear_in\000"
 20968      6C6C645F 
 20968      636C6561 
 20968      725F696E 
 20968      00
 20969              	.LASF72:
 20970 0a1e 5F737464 		.ascii	"_stdin\000"
 20970      696E00
 20971              	.LASF120:
 20972 0a25 5F6E6D61 		.ascii	"_nmalloc\000"
 20972      6C6C6F63 
 20972      00
 20973              	.LASF446:
 20974 0a2e 64696572 		.ascii	"dier\000"
 20974      00
 20975              	.LASF602:
 20976 0a33 72657376 		.ascii	"resvd40C\000"
 20976      64343043 
 20976      00
 20977              	.LASF177:
 20978 0a3c 76697274 		.ascii	"virtual_timer_t\000"
 20978      75616C5F 
ARM GAS  C:\Users\USER\AppData\Local\Temp\ccRejSya.s 			page 378


 20978      74696D65 
 20978      725F7400 
 20979              	.LASF172:
 20980 0a4c 725F6374 		.ascii	"r_ctx\000"
 20980      7800
 20981              	.LASF179:
 20982 0a52 76745F6E 		.ascii	"vt_next\000"
 20982      65787400 
 20983              	.LASF131:
 20984 0a5a 7274636E 		.ascii	"rtcnt_t\000"
 20984      745F7400 
 20985              	.LASF404:
 20986 0a62 6D757465 		.ascii	"mutex\000"
 20986      7800
 20987              	.LASF714:
 20988 0a68 73697A65 		.ascii	"size\000"
 20988      00
 20989              	.LASF522:
 20990 0a6d 74787065 		.ascii	"txpending\000"
 20990      6E64696E 
 20990      6700
 20991              	.LASF419:
 20992 0a77 636C6F63 		.ascii	"clock\000"
 20992      6B00
 20993              	.LASF334:
 20994 0a7d 636C6561 		.ascii	"clear\000"
 20994      7200
 20995              	.LASF431:
 20996 0a83 43435852 		.ascii	"CCXR\000"
 20996      00
 20997              	.LASF222:
 20998 0a88 43414E5F 		.ascii	"CAN_TypeDef\000"
 20998      54797065 
 20998      44656600 
 20999              	.LASF16:
 21000 0a94 5F6F6666 		.ascii	"_off_t\000"
 21000      5F7400
 21001              	.LASF569:
 21002 0a9b 72657376 		.ascii	"resvd4\000"
 21002      643400
 21003              	.LASF450:
 21004 0aa2 53445F53 		.ascii	"SD_STOP\000"
 21004      544F5000 
 21005              	.LASF560:
 21006 0aaa 72657376 		.ascii	"resvd8\000"
 21006      643800
 21007              	.LASF2:
 21008 0ab1 73697A65 		.ascii	"size_t\000"
 21008      5F7400
 21009              	.LASF103:
 21010 0ab8 5F6C6F63 		.ascii	"_localtime_buf\000"
 21010      616C7469 
 21010      6D655F62 
 21010      756600
 21011              	.LASF627:
 21012 0ac7 72657376 		.ascii	"resvd880\000"
 21012      64383830 
ARM GAS  C:\Users\USER\AppData\Local\Temp\ccRejSya.s 			page 379


 21012      00
 21013              	.LASF21:
 21014 0ad0 5F5F636F 		.ascii	"__count\000"
 21014      756E7400 
 21015              	.LASF126:
 21016 0ad8 75696E74 		.ascii	"uint8_t\000"
 21016      385F7400 
 21017              	.LASF680:
 21018 0ae0 7573625F 		.ascii	"usb_lld_start_in\000"
 21018      6C6C645F 
 21018      73746172 
 21018      745F696E 
 21018      00
 21019              	.LASF564:
 21020 0af1 72657376 		.ascii	"resvd14\000"
 21020      64313400 
 21021              	.LASF363:
 21022 0af9 43414E5F 		.ascii	"CAN_UNINIT\000"
 21022      554E494E 
 21022      495400
 21023              	.LASF565:
 21024 0b04 72657376 		.ascii	"resvd18\000"
 21024      64313800 
 21025              	.LASF174:
 21026 0b0c 725F6F6C 		.ascii	"r_older\000"
 21026      64657200 
 21027              	.LASF145:
 21028 0b14 705F7072 		.ascii	"p_prev\000"
 21028      657600
 21029              	.LASF293:
 21030 0b1b 63665F6F 		.ascii	"cf_off_name\000"
 21030      66665F6E 
 21030      616D6500 
 21031              	.LASF623:
 21032 0b27 44494550 		.ascii	"DIEPEMPMSK\000"
 21032      454D504D 
 21032      534B00
 21033              	.LASF533:
 21034 0b32 45505F53 		.ascii	"EP_STATUS_STALLED\000"
 21034      54415455 
 21034      535F5354 
 21034      414C4C45 
 21034      4400
 21035              	.LASF568:
 21036 0b44 44494550 		.ascii	"DIEPCTL\000"
 21036      43544C00 
 21037              	.LASF309:
 21038 0b4c 656C5F77 		.ascii	"el_wflags\000"
 21038      666C6167 
 21038      7300
 21039              	.LASF520:
 21040 0b56 6F746770 		.ascii	"otgparams\000"
 21040      6172616D 
 21040      7300
 21041              	.LASF269:
 21042 0b60 65786974 		.ascii	"exitcode\000"
 21042      636F6465 
ARM GAS  C:\Users\USER\AppData\Local\Temp\ccRejSya.s 			page 380


 21042      00
 21043              	.LASF354:
 21044 0b69 50444461 		.ascii	"PDData\000"
 21044      746100
 21045              	.LASF691:
 21046 0b70 7573625F 		.ascii	"usb_lld_set_address\000"
 21046      6C6C645F 
 21046      7365745F 
 21046      61646472 
 21046      65737300 
 21047              	.LASF708:
 21048 0b84 6F74675F 		.ascii	"otg_txfifo_handler\000"
 21048      74786669 
 21048      666F5F68 
 21048      616E646C 
 21048      657200
 21049              	.LASF86:
 21050 0b97 5F637674 		.ascii	"_cvtbuf\000"
 21050      62756600 
 21051              	.LASF657:
 21052 0b9f 6F75745F 		.ascii	"out_state\000"
 21052      73746174 
 21052      6500
 21053              	.LASF313:
 21054 0ba9 696F5F71 		.ascii	"io_queue_t\000"
 21054      75657565 
 21054      5F7400
 21055              	.LASF694:
 21056 0bb4 7573625F 		.ascii	"usb_lld_start\000"
 21056      6C6C645F 
 21056      73746172 
 21056      7400
 21057              	.LASF674:
 21058 0bc2 646F6E65 		.ascii	"done\000"
 21058      00
 21059              	.LASF382:
 21060 0bc7 4932435F 		.ascii	"I2C_STOP\000"
 21060      53544F50 
 21060      00
 21061              	.LASF406:
 21062 0bd0 61646472 		.ascii	"addr\000"
 21062      00
 21063              	.LASF724:
 21064 0bd5 6F73616C 		.ascii	"osalThreadSuspendS\000"
 21064      54687265 
 21064      61645375 
 21064      7370656E 
 21064      645300
 21065              	.LASF207:
 21066 0be8 52463052 		.ascii	"RF0R\000"
 21066      00
 21067              	.LASF734:
 21068 0bed 63685468 		.ascii	"chThdStartI\000"
 21068      64537461 
 21068      72744900 
 21069              	.LASF376:
 21070 0bf9 6572726F 		.ascii	"error_event\000"
ARM GAS  C:\Users\USER\AppData\Local\Temp\ccRejSya.s 			page 381


 21070      725F6576 
 21070      656E7400 
 21071              	.LASF260:
 21072 0c05 47545052 		.ascii	"GTPR\000"
 21072      00
 21073              	.LASF337:
 21074 0c0a 4F535045 		.ascii	"OSPEEDR\000"
 21074      45445200 
 21075              	.LASF592:
 21076 0c12 72657376 		.ascii	"resvd30\000"
 21076      64333000 
 21077              	.LASF20:
 21078 0c1a 5F5F7763 		.ascii	"__wchb\000"
 21078      686200
 21079              	.LASF114:
 21080 0c21 5F6D6272 		.ascii	"_mbrtowc_state\000"
 21080      746F7763 
 21080      5F737461 
 21080      746500
 21081              	.LASF448:
 21082 0c30 49435544 		.ascii	"ICUD3\000"
 21082      3300
 21083              	.LASF713:
 21084 0c36 6F74675F 		.ascii	"otg_ram_alloc\000"
 21084      72616D5F 
 21084      616C6C6F 
 21084      6300
 21085              	.LASF35:
 21086 0c44 5F5F746D 		.ascii	"__tm_hour\000"
 21086      5F686F75 
 21086      7200
 21087              	.LASF458:
 21088 0c4e 53657269 		.ascii	"SerialDriverVMT\000"
 21088      616C4472 
 21088      69766572 
 21088      564D5400 
 21089              	.LASF542:
 21090 0c5e 5553425F 		.ascii	"USB_EP0_ERROR\000"
 21090      4550305F 
 21090      4552524F 
 21090      5200
 21091              	.LASF18:
 21092 0c6c 77696E74 		.ascii	"wint_t\000"
 21092      5F7400
 21093              	.LASF87:
 21094 0c73 5F6E6577 		.ascii	"_new\000"
 21094      00
 21095              	.LASF631:
 21096 0c78 72657376 		.ascii	"resvdE04\000"
 21096      64453034 
 21096      00
 21097              	.LASF636:
 21098 0c81 6E756D5F 		.ascii	"num_endpoints\000"
 21098      656E6470 
 21098      6F696E74 
 21098      7300
 21099              	.LASF644:
ARM GAS  C:\Users\USER\AppData\Local\Temp\ccRejSya.s 			page 382


 21100 0c8f 746F7473 		.ascii	"totsize\000"
 21100      697A6500 
 21101              	.LASF94:
 21102 0c97 5F6E696F 		.ascii	"_niobs\000"
 21102      627300
 21103              	.LASF294:
 21104 0c9e 63665F6F 		.ascii	"cf_off_stklimit\000"
 21104      66665F73 
 21104      746B6C69 
 21104      6D697400 
 21105              	.LASF558:
 21106 0cae 75736267 		.ascii	"usbgetdescriptor_t\000"
 21106      65746465 
 21106      73637269 
 21106      70746F72 
 21106      5F7400
 21107              	.LASF175:
 21108 0cc1 725F6375 		.ascii	"r_current\000"
 21108      7272656E 
 21108      7400
 21109              	.LASF71:
 21110 0ccb 5F657272 		.ascii	"_errno\000"
 21110      6E6F00
 21111              	.LASF537:
 21112 0cd2 5553425F 		.ascii	"USB_EP0_TX\000"
 21112      4550305F 
 21112      545800
 21113              	.LASF512:
 21114 0cdd 65703073 		.ascii	"ep0state\000"
 21114      74617465 
 21114      00
 21115              	.LASF36:
 21116 0ce6 5F5F746D 		.ascii	"__tm_mday\000"
 21116      5F6D6461 
 21116      7900
 21117              	.LASF327:
 21118 0cf0 69666372 		.ascii	"ifcr\000"
 21118      00
 21119              	.LASF696:
 21120 0cf5 56656374 		.ascii	"Vector14C\000"
 21120      6F723134 
 21120      4300
 21121              	.LASF655:
 21122 0cff 6F75745F 		.ascii	"out_maxsize\000"
 21122      6D617873 
 21122      697A6500 
 21123              	.LASF343:
 21124 0d0b 73746D33 		.ascii	"stm32_gpio_t\000"
 21124      325F6770 
 21124      696F5F74 
 21124      00
 21125              	.LASF268:
 21126 0d18 7264796D 		.ascii	"rdymsg\000"
 21126      736700
 21127              	.LASF43:
 21128 0d1f 5F666E61 		.ascii	"_fnargs\000"
 21128      72677300 
ARM GAS  C:\Users\USER\AppData\Local\Temp\ccRejSya.s 			page 383


 21129              	.LASF198:
 21130 0d27 54445452 		.ascii	"TDTR\000"
 21130      00
 21131              	.LASF757:
 21132 0d2c 5F706F72 		.ascii	"_port_irq_epilogue\000"
 21132      745F6972 
 21132      715F6570 
 21132      696C6F67 
 21132      756500
 21133              	.LASF206:
 21134 0d3f 43414E5F 		.ascii	"CAN_FilterRegister_TypeDef\000"
 21134      46696C74 
 21134      65725265 
 21134      67697374 
 21134      65725F54 
 21135              	.LASF685:
 21136 0d5a 7573625F 		.ascii	"usb_lld_read_setup\000"
 21136      6C6C645F 
 21136      72656164 
 21136      5F736574 
 21136      757000
 21137              	.LASF595:
 21138 0d6d 72657376 		.ascii	"resvd58\000"
 21138      64353800 
 21139              	.LASF645:
 21140 0d75 55534249 		.ascii	"USBInEndpointState\000"
 21140      6E456E64 
 21140      706F696E 
 21140      74537461 
 21140      746500
 21141              	.LASF146:
 21142 0d88 705F7072 		.ascii	"p_prio\000"
 21142      696F00
 21143              	.LASF314:
 21144 0d8f 696F5F71 		.ascii	"io_queue\000"
 21144      75657565 
 21144      00
 21145              	.LASF351:
 21146 0d98 50414461 		.ascii	"PAData\000"
 21146      746100
 21147              	.LASF13:
 21148 0d9f 5F5F7569 		.ascii	"__uint64_t\000"
 21148      6E743634 
 21148      5F7400
 21149              	.LASF678:
 21150 0daa 7573625F 		.ascii	"usb_lld_stall_in\000"
 21150      6C6C645F 
 21150      7374616C 
 21150      6C5F696E 
 21150      00
 21151              	.LASF27:
 21152 0dbb 5F6E6578 		.ascii	"_next\000"
 21152      7400
 21153              	.LASF541:
 21154 0dc1 5553425F 		.ascii	"USB_EP0_SENDING_STS\000"
 21154      4550305F 
 21154      53454E44 
ARM GAS  C:\Users\USER\AppData\Local\Temp\ccRejSya.s 			page 384


 21154      494E475F 
 21154      53545300 
 21155              	.LASF111:
 21156 0dd5 5F736967 		.ascii	"_signal_buf\000"
 21156      6E616C5F 
 21156      62756600 
 21157              	.LASF443:
 21158 0de1 70657269 		.ascii	"period_cb\000"
 21158      6F645F63 
 21158      6200
 21159              	.LASF387:
 21160 0deb 69326373 		.ascii	"i2cstate_t\000"
 21160      74617465 
 21160      5F7400
 21161              	.LASF57:
 21162 0df6 5F636F6F 		.ascii	"_cookie\000"
 21162      6B696500 
 21163              	.LASF722:
 21164 0dfe 6F73616C 		.ascii	"osalThreadDequeueAllI\000"
 21164      54687265 
 21164      61644465 
 21164      71756575 
 21164      65416C6C 
 21165              	.LASF543:
 21166 0e14 75736265 		.ascii	"usbep0state_t\000"
 21166      70307374 
 21166      6174655F 
 21166      7400
 21167              	.LASF210:
 21168 0e22 7354784D 		.ascii	"sTxMailBox\000"
 21168      61696C42 
 21168      6F7800
 21169              	.LASF468:
 21170 0e2d 5350495F 		.ascii	"SPI_ACTIVE\000"
 21170      41435449 
 21170      564500
 21171              	.LASF317:
 21172 0e38 715F6275 		.ascii	"q_buffer\000"
 21172      66666572 
 21172      00
 21173              	.LASF238:
 21174 0e41 41504232 		.ascii	"APB2RSTR\000"
 21174      52535452 
 21174      00
 21175              	.LASF144:
 21176 0e4a 705F6E65 		.ascii	"p_next\000"
 21176      787400
 21177              	.LASF411:
 21178 0e51 49324344 		.ascii	"I2CD2\000"
 21178      3200
 21179              	.LASF507:
 21180 0e57 55534244 		.ascii	"USBDriver\000"
 21180      72697665 
 21180      7200
 21181              	.LASF628:
 21182 0e61 72657376 		.ascii	"resvd8C0\000"
 21182      64384330 
ARM GAS  C:\Users\USER\AppData\Local\Temp\ccRejSya.s 			page 385


 21182      00
 21183              	.LASF665:
 21184 0e6a 55534243 		.ascii	"USBConfig\000"
 21184      6F6E6669 
 21184      6700
 21185              	.LASF571:
 21186 0e74 72657376 		.ascii	"resvdC\000"
 21186      644300
 21187              	.LASF445:
 21188 0e7b 6368616E 		.ascii	"channel\000"
 21188      6E656C00 
 21189              	.LASF247:
 21190 0e83 41504231 		.ascii	"APB1LPENR\000"
 21190      4C50454E 
 21190      5200
 21191              	.LASF456:
 21192 0e8d 6F717565 		.ascii	"oqueue\000"
 21192      756500
 21193              	.LASF134:
 21194 0e94 74726566 		.ascii	"trefs_t\000"
 21194      735F7400 
 21195              	.LASF162:
 21196 0e9c 705F6D70 		.ascii	"p_mpool\000"
 21196      6F6F6C00 
 21197              	.LASF231:
 21198 0ea4 4932435F 		.ascii	"I2C_TypeDef\000"
 21198      54797065 
 21198      44656600 
 21199              	.LASF717:
 21200 0eb0 6F74675F 		.ascii	"otg_txfifo_flush\000"
 21200      74786669 
 21200      666F5F66 
 21200      6C757368 
 21200      00
 21201              	.LASF33:
 21202 0ec1 5F5F746D 		.ascii	"__tm_sec\000"
 21202      5F736563 
 21202      00
 21203              	.LASF658:
 21204 0eca 696E5F6D 		.ascii	"in_multiplier\000"
 21204      756C7469 
 21204      706C6965 
 21204      7200
 21205              	.LASF42:
 21206 0ed8 5F6F6E5F 		.ascii	"_on_exit_args\000"
 21206      65786974 
 21206      5F617267 
 21206      7300
 21207              	.LASF264:
 21208 0ee6 636F6E74 		.ascii	"context\000"
 21208      65787400 
 21209              	.LASF132:
 21210 0eee 746D6F64 		.ascii	"tmode_t\000"
 21210      655F7400 
 21211              	.LASF241:
 21212 0ef6 41484233 		.ascii	"AHB3ENR\000"
 21212      454E5200 
ARM GAS  C:\Users\USER\AppData\Local\Temp\ccRejSya.s 			page 386


 21213              	.LASF612:
 21214 0efe 44535453 		.ascii	"DSTS\000"
 21214      00
 21215              	.LASF491:
 21216 0f03 55415254 		.ascii	"UARTDriver\000"
 21216      44726976 
 21216      657200
 21217              	.LASF339:
 21218 0f0e 42535252 		.ascii	"BSRR\000"
 21218      00
 21219              	.LASF505:
 21220 0f13 55415254 		.ascii	"UARTConfig\000"
 21220      436F6E66 
 21220      696700
 21221              	.LASF331:
 21222 0f1e 73746D33 		.ascii	"stm32_dma_stream_t\000"
 21222      325F646D 
 21222      615F7374 
 21222      7265616D 
 21222      5F7400
 21223              	.LASF663:
 21224 0f31 72657175 		.ascii	"requests_hook_cb\000"
 21224      65737473 
 21224      5F686F6F 
 21224      6B5F6362 
 21224      00
 21225              	.LASF116:
 21226 0f42 5F776372 		.ascii	"_wcrtomb_state\000"
 21226      746F6D62 
 21226      5F737461 
 21226      746500
 21227              	.LASF642:
 21228 0f51 74787369 		.ascii	"txsize\000"
 21228      7A6500
 21229              	.LASF499:
 21230 0f58 7478656E 		.ascii	"txend1_cb\000"
 21230      64315F63 
 21230      6200
 21231              	.LASF506:
 21232 0f62 55415254 		.ascii	"UARTD6\000"
 21232      443600
 21233              	.LASF279:
 21234 0f69 6D5F7175 		.ascii	"m_queue\000"
 21234      65756500 
 21235              	.LASF502:
 21236 0f71 72786368 		.ascii	"rxchar_cb\000"
 21236      61725F63 
 21236      6200
 21237              	.LASF386:
 21238 0f7b 4932435F 		.ascii	"I2C_LOCKED\000"
 21238      4C4F434B 
 21238      454400
 21239              	.LASF442:
 21240 0f86 77696474 		.ascii	"width_cb\000"
 21240      685F6362 
 21240      00
 21241              	.LASF528:
ARM GAS  C:\Users\USER\AppData\Local\Temp\ccRejSya.s 			page 387


 21242 0f8f 5553425F 		.ascii	"USB_READY\000"
 21242      52454144 
 21242      5900
 21243              	.LASF464:
 21244 0f99 72656164 		.ascii	"readt\000"
 21244      7400
 21245              	.LASF584:
 21246 0f9f 47525354 		.ascii	"GRSTCTL\000"
 21246      43544C00 
 21247              	.LASF497:
 21248 0fa7 75617274 		.ascii	"uartccb_t\000"
 21248      6363625F 
 21248      7400
 21249              	.LASF26:
 21250 0fb1 5F5F554C 		.ascii	"__ULong\000"
 21250      6F6E6700 
 21251              	.LASF189:
 21252 0fb9 70616E69 		.ascii	"panic_msg\000"
 21252      635F6D73 
 21252      6700
 21253              	.LASF469:
 21254 0fc3 5350495F 		.ascii	"SPI_COMPLETE\000"
 21254      434F4D50 
 21254      4C455445 
 21254      00
 21255              	.LASF173:
 21256 0fd0 725F6E65 		.ascii	"r_newer\000"
 21256      77657200 
 21257              	.LASF549:
 21258 0fd8 5553425F 		.ascii	"USB_EVENT_STALLED\000"
 21258      4556454E 
 21258      545F5354 
 21258      414C4C45 
 21258      4400
 21259              	.LASF748:
 21260 0fea 63685468 		.ascii	"chThdSuspendS\000"
 21260      64537573 
 21260      70656E64 
 21260      5300
 21261              	.LASF239:
 21262 0ff8 41484231 		.ascii	"AHB1ENR\000"
 21262      454E5200 
 21263              	.LASF300:
 21264 1000 63686465 		.ascii	"chdebug_t\000"
 21264      6275675F 
 21264      7400
 21265              	.LASF741:
 21266 100a 706F7274 		.ascii	"port_lock_from_isr\000"
 21266      5F6C6F63 
 21266      6B5F6672 
 21266      6F6D5F69 
 21266      737200
 21267              	.LASF647:
 21268 101d 72787369 		.ascii	"rxsize\000"
 21268      7A6500
 21269              	.LASF688:
 21270 1024 7573625F 		.ascii	"usb_lld_disable_endpoints\000"
ARM GAS  C:\Users\USER\AppData\Local\Temp\ccRejSya.s 			page 388


 21270      6C6C645F 
 21270      64697361 
 21270      626C655F 
 21270      656E6470 
 21271              	.LASF415:
 21272 103e 4943555F 		.ascii	"ICU_WAITING\000"
 21272      57414954 
 21272      494E4700 
 21273              	.LASF563:
 21274 104a 48435453 		.ascii	"HCTSIZ\000"
 21274      495A00
 21275              	.LASF546:
 21276 1051 5553425F 		.ascii	"USB_EVENT_CONFIGURED\000"
 21276      4556454E 
 21276      545F434F 
 21276      4E464947 
 21276      55524544 
 21277              	.LASF461:
 21278 1066 70757474 		.ascii	"putt\000"
 21278      00
 21279              	.LASF759:
 21280 106b 7372632F 		.ascii	"src/ChibiOS_3.0.2/os/hal/ports/STM32/LLD/OTGv1/usb_"
 21280      43686962 
 21280      694F535F 
 21280      332E302E 
 21280      322F6F73 
 21281 109e 6C6C642E 		.ascii	"lld.c\000"
 21281      6300
 21282              	.LASF135:
 21283 10a4 74736C69 		.ascii	"tslices_t\000"
 21283      6365735F 
 21283      7400
 21284              	.LASF101:
 21285 10ae 5F737472 		.ascii	"_strtok_last\000"
 21285      746F6B5F 
 21285      6C617374 
 21285      00
 21286              	.LASF287:
 21287 10bb 63685F74 		.ascii	"ch_timesize\000"
 21287      696D6573 
 21287      697A6500 
 21288              	.LASF692:
 21289 10c7 7573625F 		.ascii	"usb_lld_reset\000"
 21289      6C6C645F 
 21289      72657365 
 21289      7400
 21290              	.LASF233:
 21291 10d5 43464752 		.ascii	"CFGR\000"
 21291      00
 21292              	.LASF524:
 21293 10da 77615F70 		.ascii	"wa_pump\000"
 21293      756D7000 
 21294              	.LASF312:
 21295 10e2 6576656E 		.ascii	"event_source_t\000"
 21295      745F736F 
 21295      75726365 
 21295      5F7400
ARM GAS  C:\Users\USER\AppData\Local\Temp\ccRejSya.s 			page 389


 21296              	.LASF598:
 21297 10f1 72657376 		.ascii	"resvd140\000"
 21297      64313430 
 21297      00
 21298              	.LASF181:
 21299 10fa 76745F64 		.ascii	"vt_delta\000"
 21299      656C7461 
 21299      00
 21300              	.LASF686:
 21301 1103 7573625F 		.ascii	"usb_lld_get_status_in\000"
 21301      6C6C645F 
 21301      6765745F 
 21301      73746174 
 21301      75735F69 
 21302              	.LASF97:
 21303 1119 5F736565 		.ascii	"_seed\000"
 21303      6400
 21304              	.LASF60:
 21305 111f 5F736565 		.ascii	"_seek\000"
 21305      6B00
 21306              	.LASF547:
 21307 1125 5553425F 		.ascii	"USB_EVENT_SUSPEND\000"
 21307      4556454E 
 21307      545F5355 
 21307      5350454E 
 21307      4400
 21308              	.LASF576:
 21309 1137 444F4550 		.ascii	"DOEPCTL\000"
 21309      43544C00 
 21310              	.LASF7:
 21311 113f 73686F72 		.ascii	"short unsigned int\000"
 21311      7420756E 
 21311      7369676E 
 21311      65642069 
 21311      6E7400
 21312              	.LASF1:
 21313 1152 7369676E 		.ascii	"signed char\000"
 21313      65642063 
 21313      68617200 
 21314              	.LASF154:
 21315 115e 705F7072 		.ascii	"p_preempt\000"
 21315      65656D70 
 21315      7400
 21316              	.LASF155:
 21317 1168 705F7469 		.ascii	"p_time\000"
 21317      6D6500
 21318              	.LASF200:
 21319 116f 54444852 		.ascii	"TDHR\000"
 21319      00
 21320              	.LASF690:
 21321 1174 6673697A 		.ascii	"fsize\000"
 21321      6500
 21322              	.LASF540:
 21323 117a 5553425F 		.ascii	"USB_EP0_RX\000"
 21323      4550305F 
 21323      525800
 21324              	.LASF517:
ARM GAS  C:\Users\USER\AppData\Local\Temp\ccRejSya.s 			page 390


 21325 1185 73746174 		.ascii	"status\000"
 21325      757300
 21326              	.LASF251:
 21327 118c 53534347 		.ascii	"SSCGR\000"
 21327      5200
 21328              	.LASF553:
 21329 1192 55534244 		.ascii	"USBDescriptor\000"
 21329      65736372 
 21329      6970746F 
 21329      7200
 21330              	.LASF703:
 21331 11a0 6669666F 		.ascii	"fifop\000"
 21331      7000
 21332              	.LASF84:
 21333 11a6 5F667265 		.ascii	"_freelist\000"
 21333      656C6973 
 21333      7400
 21334              	.LASF493:
 21335 11b0 72787374 		.ascii	"rxstate\000"
 21335      61746500 
 21336              	.LASF753:
 21337 11b8 63685468 		.ascii	"chThdCreateI\000"
 21337      64437265 
 21337      61746549 
 21337      00
 21338              	.LASF518:
 21339 11c5 61646472 		.ascii	"address\000"
 21339      65737300 
 21340              	.LASF157:
 21341 11cd 705F6D73 		.ascii	"p_msgqueue\000"
 21341      67717565 
 21341      756500
 21342              	.LASF297:
 21343 11d8 63665F6F 		.ascii	"cf_off_refs\000"
 21343      66665F72 
 21343      65667300 
 21344              	.LASF295:
 21345 11e4 63665F6F 		.ascii	"cf_off_state\000"
 21345      66665F73 
 21345      74617465 
 21345      00
 21346              	.LASF280:
 21347 11f1 6D5F6F77 		.ascii	"m_owner\000"
 21347      6E657200 
 21348              	.LASF65:
 21349 11f9 5F6F6666 		.ascii	"_offset\000"
 21349      73657400 
 21350              	.LASF197:
 21351 1201 53797374 		.ascii	"SystemCoreClock\000"
 21351      656D436F 
 21351      7265436C 
 21351      6F636B00 
 21352              	.LASF729:
 21353 1211 6F73616C 		.ascii	"osalSysLockFromISR\000"
 21353      5379734C 
 21353      6F636B46 
 21353      726F6D49 
ARM GAS  C:\Users\USER\AppData\Local\Temp\ccRejSya.s 			page 391


 21353      535200
 21354              	.LASF754:
 21355 1224 7573624F 		.ascii	"usbObjectInit\000"
 21355      626A6563 
 21355      74496E69 
 21355      7400
 21356              	.LASF370:
 21357 1232 73746174 		.ascii	"state\000"
 21357      6500
 21358              	.LASF285:
 21359 1238 63685F76 		.ascii	"ch_version\000"
 21359      65727369 
 21359      6F6E00
 21360              	.LASF50:
 21361 1243 5F5F7362 		.ascii	"__sbuf\000"
 21361      756600
 21362              	.LASF539:
 21363 124a 5553425F 		.ascii	"USB_EP0_WAITING_STS\000"
 21363      4550305F 
 21363      57414954 
 21363      494E475F 
 21363      53545300 
 21364              	.LASF110:
 21365 125e 5F6C3634 		.ascii	"_l64a_buf\000"
 21365      615F6275 
 21365      6600
 21366              	.LASF695:
 21367 1268 7573625F 		.ascii	"usb_lld_init\000"
 21367      6C6C645F 
 21367      696E6974 
 21367      00
 21368              	.LASF204:
 21369 1275 52444852 		.ascii	"RDHR\000"
 21369      00
 21370              	.LASF429:
 21371 127a 444D4152 		.ascii	"DMAR\000"
 21371      00
 21372              	.LASF191:
 21373 127f 63685F73 		.ascii	"ch_system\000"
 21373      79737465 
 21373      6D00
 21374              	.LASF252:
 21375 1289 504C4C49 		.ascii	"PLLI2SCFGR\000"
 21375      32534346 
 21375      475200
 21376              	.LASF102:
 21377 1294 5F617363 		.ascii	"_asctime_buf\000"
 21377      74696D65 
 21377      5F627566 
 21377      00
 21378              	.LASF486:
 21379 12a1 55415254 		.ascii	"UART_RX_IDLE\000"
 21379      5F52585F 
 21379      49444C45 
 21379      00
 21380              	.LASF697:
 21381 12ae 7573625F 		.ascii	"usb_lld_serve_interrupt\000"
ARM GAS  C:\Users\USER\AppData\Local\Temp\ccRejSya.s 			page 392


 21381      6C6C645F 
 21381      73657276 
 21381      655F696E 
 21381      74657272 
 21382              	.LASF19:
 21383 12c6 5F5F7763 		.ascii	"__wch\000"
 21383      6800
 21384              	.LASF275:
 21385 12cc 63685F73 		.ascii	"ch_semaphore\000"
 21385      656D6170 
 21385      686F7265 
 21385      00
 21386              	.LASF117:
 21387 12d9 5F776373 		.ascii	"_wcsrtombs_state\000"
 21387      72746F6D 
 21387      62735F73 
 21387      74617465 
 21387      00
 21388              	.LASF712:
 21389 12ea 6F74675F 		.ascii	"otg_do_push\000"
 21389      646F5F70 
 21389      75736800 
 21390              	.LASF572:
 21391 12f6 44494550 		.ascii	"DIEPTSIZ\000"
 21391      5453495A 
 21391      00
 21392              	.LASF742:
 21393 12ff 706F7274 		.ascii	"port_unlock\000"
 21393      5F756E6C 
 21393      6F636B00 
 21394              	.LASF166:
 21395 130b 74687265 		.ascii	"threads_queue_t\000"
 21395      6164735F 
 21395      71756575 
 21395      655F7400 
 21396              	.LASF153:
 21397 131b 705F7265 		.ascii	"p_refs\000"
 21397      667300
 21398              	.LASF650:
 21399 1322 65705F6D 		.ascii	"ep_mode\000"
 21399      6F646500 
 21400              	.LASF579:
 21401 132a 73746D33 		.ascii	"stm32_otg_out_ep_t\000"
 21401      325F6F74 
 21401      675F6F75 
 21401      745F6570 
 21401      5F7400
 21402              	.LASF199:
 21403 133d 54444C52 		.ascii	"TDLR\000"
 21403      00
 21404              	.LASF9:
 21405 1342 6C6F6E67 		.ascii	"long int\000"
 21405      20696E74 
 21405      00
 21406              	.LASF194:
 21407 134b 6D61696E 		.ascii	"mainthread\000"
 21407      74687265 
ARM GAS  C:\Users\USER\AppData\Local\Temp\ccRejSya.s 			page 393


 21407      616400
 21408              	.LASF514:
 21409 1356 6570306E 		.ascii	"ep0n\000"
 21409      00
 21410              	.LASF388:
 21411 135b 69326361 		.ascii	"i2caddr_t\000"
 21411      6464725F 
 21411      7400
 21412              	.LASF109:
 21413 1365 5F776374 		.ascii	"_wctomb_state\000"
 21413      6F6D625F 
 21413      73746174 
 21413      6500
 21414              	.LASF236:
 21415 1373 41484233 		.ascii	"AHB3RSTR\000"
 21415      52535452 
 21415      00
 21416              	.LASF758:
 21417 137c 474E5520 		.ascii	"GNU C99 8.2.1 20181213 (release) [gcc-8-branch revi"
 21417      43393920 
 21417      382E322E 
 21417      31203230 
 21417      31383132 
 21418 13af 73696F6E 		.ascii	"sion 267074] -mcpu=cortex-m4 -mfloat-abi=hard -mfpu"
 21418      20323637 
 21418      3037345D 
 21418      202D6D63 
 21418      70753D63 
 21419 13e2 3D667076 		.ascii	"=fpv4-sp-d16 -mno-thumb-interwork -mthumb -march=ar"
 21419      342D7370 
 21419      2D643136 
 21419      202D6D6E 
 21419      6F2D7468 
 21420 1415 6D763765 		.ascii	"mv7e-m+fp -ggdb -O2 -std=gnu99 -fomit-frame-pointer"
 21420      2D6D2B66 
 21420      70202D67 
 21420      67646220 
 21420      2D4F3220 
 21421 1448 202D6661 		.ascii	" -falign-functions=16 -ffunction-sections -fdata-se"
 21421      6C69676E 
 21421      2D66756E 
 21421      6374696F 
 21421      6E733D31 
 21422 147b 6374696F 		.ascii	"ctions -fno-common -fsingle-precision-constant\000"
 21422      6E73202D 
 21422      666E6F2D 
 21422      636F6D6D 
 21422      6F6E202D 
 21423              	.LASF316:
 21424 14aa 715F636F 		.ascii	"q_counter\000"
 21424      756E7465 
 21424      7200
 21425              	.LASF358:
 21426 14b4 50484461 		.ascii	"PHData\000"
 21426      746100
 21427              	.LASF361:
 21428 14bb 696F706F 		.ascii	"ioportid_t\000"
ARM GAS  C:\Users\USER\AppData\Local\Temp\ccRejSya.s 			page 394


 21428      72746964 
 21428      5F7400
 21429              	.LASF599:
 21430 14c6 48434647 		.ascii	"HCFG\000"
 21430      00
 21431              	.LASF494:
 21432 14cb 646D616D 		.ascii	"dmamode\000"
 21432      6F646500 
 21433              	.LASF95:
 21434 14d3 5F696F62 		.ascii	"_iobs\000"
 21434      7300
 21435              	.LASF76:
 21436 14d9 5F656D65 		.ascii	"_emergency\000"
 21436      7267656E 
 21436      637900
 21437              	.LASF462:
 21438 14e4 67657474 		.ascii	"gett\000"
 21438      00
 21439              	.LASF481:
 21440 14e9 75617274 		.ascii	"uartstate_t\000"
 21440      73746174 
 21440      655F7400 
 21441              	.LASF271:
 21442 14f5 77747472 		.ascii	"wttrp\000"
 21442      7000
 21443              	.LASF320:
 21444 14fb 715F7264 		.ascii	"q_rdptr\000"
 21444      70747200 
 21445              	.LASF119:
 21446 1503 5F6E6578 		.ascii	"_nextf\000"
 21446      746600
 21447              	.LASF459:
 21448 150a 77726974 		.ascii	"write\000"
 21448      6500
 21449              	.LASF105:
 21450 1510 5F72616E 		.ascii	"_rand_next\000"
 21450      645F6E65 
 21450      787400
 21451              	.LASF455:
 21452 151b 69717565 		.ascii	"iqueue\000"
 21452      756500
 21453              	.LASF652:
 21454 1522 696E5F63 		.ascii	"in_cb\000"
 21454      6200
 21455              	.LASF577:
 21456 1528 444F4550 		.ascii	"DOEPINT\000"
 21456      494E5400 
 21457              	.LASF340:
 21458 1530 4C434B52 		.ascii	"LCKR\000"
 21458      00
 21459              	.LASF452:
 21460 1535 73647374 		.ascii	"sdstate_t\000"
 21460      6174655F 
 21460      7400
 21461              	.LASF129:
 21462 153f 75696E74 		.ascii	"uint32_t\000"
 21462      33325F74 
ARM GAS  C:\Users\USER\AppData\Local\Temp\ccRejSya.s 			page 395


 21462      00
 21463              	.LASF28:
 21464 1548 5F6D6178 		.ascii	"_maxwds\000"
 21464      77647300 
 21465              	.LASF557:
 21466 1550 75736272 		.ascii	"usbreqhandler_t\000"
 21466      65716861 
 21466      6E646C65 
 21466      725F7400 
 21467              	.LASF203:
 21468 1560 52444C52 		.ascii	"RDLR\000"
 21468      00
 21469              	.LASF743:
 21470 1565 706F7274 		.ascii	"port_lock\000"
 21470      5F6C6F63 
 21470      6B00
 21471              	.LASF262:
 21472 156f 72656761 		.ascii	"regarm_t\000"
 21472      726D5F74 
 21472      00
 21473              	.LASF138:
 21474 1578 6576656E 		.ascii	"eventmask_t\000"
 21474      746D6173 
 21474      6B5F7400 
 21475              	.LASF544:
 21476 1584 5553425F 		.ascii	"USB_EVENT_RESET\000"
 21476      4556454E 
 21476      545F5245 
 21476      53455400 
 21477              	.LASF217:
 21478 1594 46464131 		.ascii	"FFA1R\000"
 21478      5200
 21479              	.LASF208:
 21480 159a 52463152 		.ascii	"RF1R\000"
 21480      00
 21481              	.LASF529:
 21482 159f 5553425F 		.ascii	"USB_SELECTED\000"
 21482      53454C45 
 21482      43544544 
 21482      00
 21483              	.LASF366:
 21484 15ac 43414E5F 		.ascii	"CAN_READY\000"
 21484      52454144 
 21484      5900
 21485              	.LASF747:
 21486 15b6 63685363 		.ascii	"chSchRescheduleS\000"
 21486      68526573 
 21486      63686564 
 21486      756C6553 
 21486      00
 21487              	.LASF11:
 21488 15c7 6C6F6E67 		.ascii	"long unsigned int\000"
 21488      20756E73 
 21488      69676E65 
 21488      6420696E 
 21488      7400
 21489              	.LASF684:
ARM GAS  C:\Users\USER\AppData\Local\Temp\ccRejSya.s 			page 396


 21490 15d9 7573625F 		.ascii	"usb_lld_prepare_receive\000"
 21490      6C6C645F 
 21490      70726570 
 21490      6172655F 
 21490      72656365 
 21491              	.LASF673:
 21492 15f1 65706D61 		.ascii	"epmask\000"
 21492      736B00
 21493              	.LASF319:
 21494 15f8 715F7772 		.ascii	"q_wrptr\000"
 21494      70747200 
 21495              	.LASF418:
 21496 1600 49435544 		.ascii	"ICUDriver\000"
 21496      72697665 
 21496      7200
 21497              	.LASF447:
 21498 160a 49435543 		.ascii	"ICUConfig\000"
 21498      6F6E6669 
 21498      6700
 21499              	.LASF545:
 21500 1614 5553425F 		.ascii	"USB_EVENT_ADDRESS\000"
 21500      4556454E 
 21500      545F4144 
 21500      44524553 
 21500      5300
 21501              	.LASF496:
 21502 1626 75617274 		.ascii	"uartcb_t\000"
 21502      63625F74 
 21502      00
 21503              	.LASF374:
 21504 162f 72786675 		.ascii	"rxfull_event\000"
 21504      6C6C5F65 
 21504      76656E74 
 21504      00
 21505              	.LASF550:
 21506 163c 75736265 		.ascii	"usbevent_t\000"
 21506      76656E74 
 21506      5F7400
 21507              	.LASF61:
 21508 1647 5F636C6F 		.ascii	"_close\000"
 21508      736500
 21509              	.LASF683:
 21510 164e 70636E74 		.ascii	"pcnt\000"
 21510      00
 21511              	.LASF25:
 21512 1653 63686172 		.ascii	"char\000"
 21512      00
 21513              	.LASF369:
 21514 1658 43414E43 		.ascii	"CANConfig\000"
 21514      6F6E6669 
 21514      6700
 21515              	.LASF355:
 21516 1662 50454461 		.ascii	"PEData\000"
 21516      746100
 21517              	.LASF170:
 21518 1669 725F7175 		.ascii	"r_queue\000"
 21518      65756500 
ARM GAS  C:\Users\USER\AppData\Local\Temp\ccRejSya.s 			page 397


 21519              	.LASF93:
 21520 1671 5F676C75 		.ascii	"_glue\000"
 21520      6500
 21521              	.LASF736:
 21522 1677 63685379 		.ascii	"chSysUnlockFromISR\000"
 21522      73556E6C 
 21522      6F636B46 
 21522      726F6D49 
 21522      535200
 21523              	.LASF589:
 21524 168a 47525846 		.ascii	"GRXFSIZ\000"
 21524      53495A00 
 21525              	.LASF457:
 21526 1692 75736172 		.ascii	"usart\000"
 21526      7400
 21527              	.LASF322:
 21528 1698 715F6C69 		.ascii	"q_link\000"
 21528      6E6B00
 21529              	.LASF720:
 21530 169f 6F74675F 		.ascii	"otg_disable_ep\000"
 21530      64697361 
 21530      626C655F 
 21530      657000
 21531              	.LASF437:
 21532 16ae 4943555F 		.ascii	"ICU_CHANNEL_1\000"
 21532      4348414E 
 21532      4E454C5F 
 21532      3100
 21533              	.LASF675:
 21534 16bc 7573625F 		.ascii	"usb_lld_pump\000"
 21534      6C6C645F 
 21534      70756D70 
 21534      00
 21535              	.LASF31:
 21536 16c9 5F426967 		.ascii	"_Bigint\000"
 21536      696E7400 
 21537              	.LASF586:
 21538 16d1 47494E54 		.ascii	"GINTMSK\000"
 21538      4D534B00 
 21539              	.LASF422:
 21540 16d9 69637563 		.ascii	"icucallback_t\000"
 21540      616C6C62 
 21540      61636B5F 
 21540      7400
 21541              	.LASF591:
 21542 16e7 484E5054 		.ascii	"HNPTXSTS\000"
 21542      58535453 
 21542      00
 21543              	.LASF242:
 21544 16f0 41504231 		.ascii	"APB1ENR\000"
 21544      454E5200 
 21545              	.LASF519:
 21546 16f8 636F6E66 		.ascii	"configuration\000"
 21546      69677572 
 21546      6174696F 
 21546      6E00
 21547              	.LASF88:
ARM GAS  C:\Users\USER\AppData\Local\Temp\ccRejSya.s 			page 398


 21548 1706 5F617465 		.ascii	"_atexit0\000"
 21548      78697430 
 21548      00
 21549              	.LASF350:
 21550 170f 73746D33 		.ascii	"stm32_gpio_setup_t\000"
 21550      325F6770 
 21550      696F5F73 
 21550      65747570 
 21550      5F7400
 21551              	.LASF667:
 21552 1722 6570305F 		.ascii	"ep0_state\000"
 21552      73746174 
 21552      6500
 21553              	.LASF704:
 21554 172c 6E746F67 		.ascii	"ntogo\000"
 21554      6F00
 21555              	.LASF434:
 21556 1732 4943555F 		.ascii	"ICU_INPUT_ACTIVE_LOW\000"
 21556      494E5055 
 21556      545F4143 
 21556      54495645 
 21556      5F4C4F57 
 21557              	.LASF332:
 21558 1747 5F73746D 		.ascii	"_stm32_dma_streams\000"
 21558      33325F64 
 21558      6D615F73 
 21558      74726561 
 21558      6D7300
 21559              	.LASF112:
 21560 175a 5F676574 		.ascii	"_getdate_err\000"
 21560      64617465 
 21560      5F657272 
 21560      00
 21561              	.LASF436:
 21562 1767 69637566 		.ascii	"icufreq_t\000"
 21562      7265715F 
 21562      7400
 21563              	.LASF751:
 21564 1771 63685363 		.ascii	"chSchReadyI\000"
 21564      68526561 
 21564      64794900 
 21565              	.LASF672:
 21566 177d 6F746770 		.ascii	"otgp\000"
 21566      00
 21567              	.LASF140:
 21568 1782 636E745F 		.ascii	"cnt_t\000"
 21568      7400
 21569              	.LASF538:
 21570 1788 5553425F 		.ascii	"USB_EP0_WAITING_TX0\000"
 21570      4550305F 
 21570      57414954 
 21570      494E475F 
 21570      54583000 
 21571              	.LASF513:
 21572 179c 6570306E 		.ascii	"ep0next\000"
 21572      65787400 
 21573              	.LASF567:
ARM GAS  C:\Users\USER\AppData\Local\Temp\ccRejSya.s 			page 399


 21574 17a4 73746D33 		.ascii	"stm32_otg_host_chn_t\000"
 21574      325F6F74 
 21574      675F686F 
 21574      73745F63 
 21574      686E5F74 
 21575              	.LASF700:
 21576 17b9 6F74675F 		.ascii	"otg_epin_handler\000"
 21576      6570696E 
 21576      5F68616E 
 21576      646C6572 
 21576      00
 21577              	.LASF731:
 21578 17ca 6F73616C 		.ascii	"osalSysLock\000"
 21578      5379734C 
 21578      6F636B00 
 21579              	.LASF342:
 21580 17d6 41465248 		.ascii	"AFRH\000"
 21580      00
 21581              	.LASF341:
 21582 17db 4146524C 		.ascii	"AFRL\000"
 21582      00
 21583              	.LASF124:
 21584 17e0 5F696D70 		.ascii	"_impure_ptr\000"
 21584      7572655F 
 21584      70747200 
 21585              	.LASF298:
 21586 17ec 63665F6F 		.ascii	"cf_off_preempt\000"
 21586      66665F70 
 21586      7265656D 
 21586      707400
 21587              	.LASF64:
 21588 17fb 5F626C6B 		.ascii	"_blksize\000"
 21588      73697A65 
 21588      00
 21589              	.LASF562:
 21590 1804 4843494E 		.ascii	"HCINTMSK\000"
 21590      544D534B 
 21590      00
 21591              	.LASF62:
 21592 180d 5F756275 		.ascii	"_ubuf\000"
 21592      6600
 21593              	.LASF371:
 21594 1813 636F6E66 		.ascii	"config\000"
 21594      696700
 21595              	.LASF107:
 21596 181a 5F6D626C 		.ascii	"_mblen_state\000"
 21596      656E5F73 
 21596      74617465 
 21596      00
 21597              	.LASF90:
 21598 1827 5F5F7367 		.ascii	"__sglue\000"
 21598      6C756500 
 21599              	.LASF123:
 21600 182f 5F5F6C6F 		.ascii	"__locale_t\000"
 21600      63616C65 
 21600      5F7400
 21601              	.LASF490:
ARM GAS  C:\Users\USER\AppData\Local\Temp\ccRejSya.s 			page 400


 21602 183a 75617274 		.ascii	"uartflags_t\000"
 21602      666C6167 
 21602      735F7400 
 21603              	.LASF80:
 21604 1846 5F5F636C 		.ascii	"__cleanup\000"
 21604      65616E75 
 21604      7000
 21605              	.LASF479:
 21606 1850 55415254 		.ascii	"UART_STOP\000"
 21606      5F53544F 
 21606      5000
 21607              	.LASF232:
 21608 185a 504C4C43 		.ascii	"PLLCFGR\000"
 21608      46475200 
 21609              	.LASF501:
 21610 1862 7278656E 		.ascii	"rxend_cb\000"
 21610      645F6362 
 21610      00
 21611              	.LASF176:
 21612 186b 76746675 		.ascii	"vtfunc_t\000"
 21612      6E635F74 
 21612      00
 21613              	.LASF205:
 21614 1874 43414E5F 		.ascii	"CAN_FIFOMailBox_TypeDef\000"
 21614      4649464F 
 21614      4D61696C 
 21614      426F785F 
 21614      54797065 
 21615              	.LASF270:
 21616 188c 77746F62 		.ascii	"wtobjp\000"
 21616      6A7000
 21617              	.LASF17:
 21618 1893 5F66706F 		.ascii	"_fpos_t\000"
 21618      735F7400 
 21619              	.LASF55:
 21620 189b 5F66696C 		.ascii	"_file\000"
 21620      6500
 21621              	.LASF161:
 21622 18a1 705F7265 		.ascii	"p_realprio\000"
 21622      616C7072 
 21622      696F00
 21623              	.LASF321:
 21624 18ac 715F6E6F 		.ascii	"q_notify\000"
 21624      74696679 
 21624      00
 21625              	.LASF273:
 21626 18b5 77746D74 		.ascii	"wtmtxp\000"
 21626      787000
 21627              	.LASF53:
 21628 18bc 5F5F7346 		.ascii	"__sFILE\000"
 21628      494C4500 
 21629              	.LASF49:
 21630 18c4 5F666E73 		.ascii	"_fns\000"
 21630      00
 21631              	.LASF649:
 21632 18c9 5553424F 		.ascii	"USBOutEndpointState\000"
 21632      7574456E 
ARM GAS  C:\Users\USER\AppData\Local\Temp\ccRejSya.s 			page 401


 21632      64706F69 
 21632      6E745374 
 21632      61746500 
 21633              	.LASF606:
 21634 18dd 72657376 		.ascii	"resvd41C\000"
 21634      64343143 
 21634      00
 21635              	.LASF23:
 21636 18e6 5F6D6273 		.ascii	"_mbstate_t\000"
 21636      74617465 
 21636      5F7400
 21637              	.LASF118:
 21638 18f1 5F685F65 		.ascii	"_h_errno\000"
 21638      72726E6F 
 21638      00
 21639              	.LASF202:
 21640 18fa 52445452 		.ascii	"RDTR\000"
 21640      00
 21641              	.LASF702:
 21642 18ff 6F74675F 		.ascii	"otg_fifo_read_to_queue\000"
 21642      6669666F 
 21642      5F726561 
 21642      645F746F 
 21642      5F717565 
 21643              	.LASF249:
 21644 1916 42444352 		.ascii	"BDCR\000"
 21644      00
 21645              	.LASF504:
 21646 191b 73706565 		.ascii	"speed\000"
 21646      6400
 21647              	.LASF169:
 21648 1921 63685F72 		.ascii	"ch_ready_list\000"
 21648      65616479 
 21648      5F6C6973 
 21648      7400
 21649              	.LASF500:
 21650 192f 7478656E 		.ascii	"txend2_cb\000"
 21650      64325F63 
 21650      6200
 21651              	.LASF338:
 21652 1939 50555044 		.ascii	"PUPDR\000"
 21652      5200
 21653              	.LASF8:
 21654 193f 5F5F696E 		.ascii	"__int32_t\000"
 21654      7433325F 
 21654      7400
 21655              	.LASF10:
 21656 1949 5F5F7569 		.ascii	"__uint32_t\000"
 21656      6E743332 
 21656      5F7400
 21657              	.LASF420:
 21658 1954 77636372 		.ascii	"wccrp\000"
 21658      7000
 21659              	.LASF188:
 21660 195a 63685F73 		.ascii	"ch_system_debug\000"
 21660      79737465 
 21660      6D5F6465 
ARM GAS  C:\Users\USER\AppData\Local\Temp\ccRejSya.s 			page 402


 21660      62756700 
 21661              	.LASF617:
 21662 196a 4441494E 		.ascii	"DAINTMSK\000"
 21662      544D534B 
 21662      00
 21663              	.LASF22:
 21664 1973 5F5F7661 		.ascii	"__value\000"
 21664      6C756500 
 21665              	.LASF536:
 21666 197b 5553425F 		.ascii	"USB_EP0_WAITING_SETUP\000"
 21666      4550305F 
 21666      57414954 
 21666      494E475F 
 21666      53455455 
 21667              	.LASF46:
 21668 1991 5F69735F 		.ascii	"_is_cxa\000"
 21668      63786100 
 21669              	.LASF349:
 21670 1999 61667268 		.ascii	"afrh\000"
 21670      00
 21671              	.LASF413:
 21672 199e 4943555F 		.ascii	"ICU_STOP\000"
 21672      53544F50 
 21672      00
 21673              	.LASF348:
 21674 19a7 6166726C 		.ascii	"afrl\000"
 21674      00
 21675              	.LASF640:
 21676 19ac 71756575 		.ascii	"queue\000"
 21676      6500
 21677              	.LASF515:
 21678 19b2 65703065 		.ascii	"ep0endcb\000"
 21678      6E646362 
 21678      00
 21679              	.LASF329:
 21680 19bb 73656C66 		.ascii	"selfindex\000"
 21680      696E6465 
 21680      7800
 21681              	.LASF302:
 21682 19c5 6D757465 		.ascii	"mutex_t\000"
 21682      785F7400 
 21683              	.LASF83:
 21684 19cd 5F703573 		.ascii	"_p5s\000"
 21684      00
 21685              	.LASF159:
 21686 19d2 705F6570 		.ascii	"p_epending\000"
 21686      656E6469 
 21686      6E6700
 21687              	.LASF532:
 21688 19dd 45505F53 		.ascii	"EP_STATUS_DISABLED\000"
 21688      54415455 
 21688      535F4449 
 21688      5341424C 
 21688      454400
 21689              	.LASF610:
 21690 19f0 44434647 		.ascii	"DCFG\000"
 21690      00
ARM GAS  C:\Users\USER\AppData\Local\Temp\ccRejSya.s 			page 403


 21691              	.LASF335:
 21692 19f5 4D4F4445 		.ascii	"MODER\000"
 21692      5200
 21693              	.LASF727:
 21694 19fb 6F73616C 		.ascii	"osalOsRescheduleS\000"
 21694      4F735265 
 21694      73636865 
 21694      64756C65 
 21694      5300
 21695              	.LASF209:
 21696 1a0d 52455345 		.ascii	"RESERVED0\000"
 21696      52564544 
 21696      3000
 21697              	.LASF212:
 21698 1a17 52455345 		.ascii	"RESERVED1\000"
 21698      52564544 
 21698      3100
 21699              	.LASF214:
 21700 1a21 52455345 		.ascii	"RESERVED2\000"
 21700      52564544 
 21700      3200
 21701              	.LASF216:
 21702 1a2b 52455345 		.ascii	"RESERVED3\000"
 21702      52564544 
 21702      3300
 21703              	.LASF218:
 21704 1a35 52455345 		.ascii	"RESERVED4\000"
 21704      52564544 
 21704      3400
 21705              	.LASF220:
 21706 1a3f 52455345 		.ascii	"RESERVED5\000"
 21706      52564544 
 21706      3500
 21707              	.LASF250:
 21708 1a49 52455345 		.ascii	"RESERVED6\000"
 21708      52564544 
 21708      3600
 21709              	.LASF660:
 21710 1a53 55534245 		.ascii	"USBEndpointConfig\000"
 21710      6E64706F 
 21710      696E7443 
 21710      6F6E6669 
 21710      6700
 21711              	.LASF373:
 21712 1a65 72787175 		.ascii	"rxqueue\000"
 21712      65756500 
 21713              	.LASF608:
 21714 1a6d 72657376 		.ascii	"resvd444\000"
 21714      64343434 
 21714      00
 21715              	.LASF362:
 21716 1a76 70616C5F 		.ascii	"pal_default_config\000"
 21716      64656661 
 21716      756C745F 
 21716      636F6E66 
 21716      696700
 21717              	.LASF488:
ARM GAS  C:\Users\USER\AppData\Local\Temp\ccRejSya.s 			page 404


 21718 1a89 55415254 		.ascii	"UART_RX_COMPLETE\000"
 21718      5F52585F 
 21718      434F4D50 
 21718      4C455445 
 21718      00
 21719              	.LASF306:
 21720 1a9a 656C5F6C 		.ascii	"el_listener\000"
 21720      69737465 
 21720      6E657200 
 21721              	.LASF639:
 21722 1aa6 6C696E65 		.ascii	"linear\000"
 21722      617200
 21723              	.LASF432:
 21724 1aad 73746D33 		.ascii	"stm32_tim_t\000"
 21724      325F7469 
 21724      6D5F7400 
 21725              	.LASF755:
 21726 1ab9 63685468 		.ascii	"chThdResumeI\000"
 21726      64526573 
 21726      756D6549 
 21726      00
 21727              	.LASF171:
 21728 1ac6 725F7072 		.ascii	"r_prio\000"
 21728      696F00
 21729              	.LASF521:
 21730 1acd 706D6E65 		.ascii	"pmnext\000"
 21730      787400
 21731              	.LASF196:
 21732 1ad4 49544D5F 		.ascii	"ITM_RxBuffer\000"
 21732      52784275 
 21732      66666572 
 21732      00
 21733              	.LASF438:
 21734 1ae1 4943555F 		.ascii	"ICU_CHANNEL_2\000"
 21734      4348414E 
 21734      4E454C5F 
 21734      3200
 21735              	.LASF14:
 21736 1aef 6C6F6E67 		.ascii	"long long unsigned int\000"
 21736      206C6F6E 
 21736      6720756E 
 21736      7369676E 
 21736      65642069 
 21737              	.LASF266:
 21738 1b06 6F666673 		.ascii	"offset\000"
 21738      657400
 21739              	.LASF244:
 21740 1b0d 41484231 		.ascii	"AHB1LPENR\000"
 21740      4C50454E 
 21740      5200
 21741              	.LASF503:
 21742 1b17 72786572 		.ascii	"rxerr_cb\000"
 21742      725F6362 
 21742      00
 21743              	.LASF477:
 21744 1b20 53504944 		.ascii	"SPID1\000"
 21744      3100
ARM GAS  C:\Users\USER\AppData\Local\Temp\ccRejSya.s 			page 405


 21745              	.LASF738:
 21746 1b26 63685379 		.ascii	"chSysUnlock\000"
 21746      73556E6C 
 21746      6F636B00 
 21747              	.LASF223:
 21748 1b32 4E445452 		.ascii	"NDTR\000"
 21748      00
 21749              	.LASF311:
 21750 1b37 65735F6E 		.ascii	"es_next\000"
 21750      65787400 
 21751              	.LASF104:
 21752 1b3f 5F67616D 		.ascii	"_gamma_signgam\000"
 21752      6D615F73 
 21752      69676E67 
 21752      616D00
 21753              	.LASF574:
 21754 1b4e 72657376 		.ascii	"resvd1C\000"
 21754      64314300 
 21755              	.LASF195:
 21756 1b56 69646C65 		.ascii	"idle_thread_wa\000"
 21756      5F746872 
 21756      6561645F 
 21756      776100
 21757              	.LASF570:
 21758 1b65 44494550 		.ascii	"DIEPINT\000"
 21758      494E5400 
 21759              	.LASF417:
 21760 1b6d 69637573 		.ascii	"icustate_t\000"
 21760      74617465 
 21760      5F7400
 21761              	.LASF259:
 21762 1b78 5350495F 		.ascii	"SPI_TypeDef\000"
 21762      54797065 
 21762      44656600 
 21763              	.LASF182:
 21764 1b84 76745F66 		.ascii	"vt_func\000"
 21764      756E6300 
 21765              	.LASF423:
 21766 1b8c 534D4352 		.ascii	"SMCR\000"
 21766      00
 21767              	.LASF615:
 21768 1b91 444F4550 		.ascii	"DOEPMSK\000"
 21768      4D534B00 
 21769              	.LASF716:
 21770 1b99 6F74675F 		.ascii	"otg_ram_reset\000"
 21770      72616D5F 
 21770      72657365 
 21770      7400
 21771              	.LASF178:
 21772 1ba7 63685F76 		.ascii	"ch_virtual_timer\000"
 21772      69727475 
 21772      616C5F74 
 21772      696D6572 
 21772      00
 21773              	.LASF152:
 21774 1bb8 705F666C 		.ascii	"p_flags\000"
 21774      61677300 
ARM GAS  C:\Users\USER\AppData\Local\Temp\ccRejSya.s 			page 406


 21775              	.LASF274:
 21776 1bc0 65776D61 		.ascii	"ewmask\000"
 21776      736B00
 21777              	.LASF308:
 21778 1bc7 656C5F66 		.ascii	"el_flags\000"
 21778      6C616773 
 21778      00
 21779              	.LASF310:
 21780 1bd0 6576656E 		.ascii	"event_source\000"
 21780      745F736F 
 21780      75726365 
 21780      00
 21781              	.LASF160:
 21782 1bdd 705F6D74 		.ascii	"p_mtxlist\000"
 21782      786C6973 
 21782      7400
 21783              	.LASF380:
 21784 1be7 43414E44 		.ascii	"CAND1\000"
 21784      3100
 21785              	.LASF215:
 21786 1bed 46533152 		.ascii	"FS1R\000"
 21786      00
 21787              	.LASF133:
 21788 1bf2 74737461 		.ascii	"tstate_t\000"
 21788      74655F74 
 21788      00
 21789              	.LASF125:
 21790 1bfb 5F676C6F 		.ascii	"_global_impure_ptr\000"
 21790      62616C5F 
 21790      696D7075 
 21790      72655F70 
 21790      747200
 21791              	.LASF616:
 21792 1c0e 4441494E 		.ascii	"DAINT\000"
 21792      5400
 21793              	.LASF476:
 21794 1c14 53504943 		.ascii	"SPIConfig\000"
 21794      6F6E6669 
 21794      6700
 21795              	.LASF77:
 21796 1c1e 5F756E73 		.ascii	"_unspecified_locale_info\000"
 21796      70656369 
 21796      66696564 
 21796      5F6C6F63 
 21796      616C655F 
 21797              	.LASF347:
 21798 1c37 70757064 		.ascii	"pupdr\000"
 21798      7200
 21799              	.LASF508:
 21800 1c3d 7472616E 		.ascii	"transmitting\000"
 21800      736D6974 
 21800      74696E67 
 21800      00
 21801              	.LASF687:
 21802 1c4a 7573625F 		.ascii	"usb_lld_get_status_out\000"
 21802      6C6C645F 
 21802      6765745F 
ARM GAS  C:\Users\USER\AppData\Local\Temp\ccRejSya.s 			page 407


 21802      73746174 
 21802      75735F6F 
 21803              	.LASF150:
 21804 1c61 705F6E61 		.ascii	"p_name\000"
 21804      6D6500
 21805              	.LASF79:
 21806 1c68 5F5F7364 		.ascii	"__sdidinit\000"
 21806      6964696E 
 21806      697400
 21807              	.LASF453:
 21808 1c73 53657269 		.ascii	"SerialDriver\000"
 21808      616C4472 
 21808      69766572 
 21808      00
 21809              	.LASF671:
 21810 1c80 75736270 		.ascii	"usbp\000"
 21810      00
 21811              	.LASF531:
 21812 1c85 75736273 		.ascii	"usbstate_t\000"
 21812      74617465 
 21812      5F7400
 21813              	.LASF578:
 21814 1c90 444F4550 		.ascii	"DOEPTSIZ\000"
 21814      5453495A 
 21814      00
 21815              	.LASF248:
 21816 1c99 41504232 		.ascii	"APB2LPENR\000"
 21816      4C50454E 
 21816      5200
 21817              	.LASF732:
 21818 1ca3 63685265 		.ascii	"chRegSetThreadName\000"
 21818      67536574 
 21818      54687265 
 21818      61644E61 
 21818      6D6500
 21819              	.LASF710:
 21820 1cb6 6F74675F 		.ascii	"otg_fifo_write_from_queue\000"
 21820      6669666F 
 21820      5F777269 
 21820      74655F66 
 21820      726F6D5F 
 21821              	.LASF290:
 21822 1cd0 63665F6F 		.ascii	"cf_off_ctx\000"
 21822      66665F63 
 21822      747800
 21823              	.LASF733:
 21824 1cdb 6E616D65 		.ascii	"name\000"
 21824      00
 21825              	.LASF489:
 21826 1ce0 75617274 		.ascii	"uartrxstate_t\000"
 21826      72787374 
 21826      6174655F 
 21826      7400
 21827              	.LASF24:
 21828 1cee 5F666C6F 		.ascii	"_flock_t\000"
 21828      636B5F74 
 21828      00
ARM GAS  C:\Users\USER\AppData\Local\Temp\ccRejSya.s 			page 408


 21829              	.LASF184:
 21830 1cf7 76697274 		.ascii	"virtual_timers_list_t\000"
 21830      75616C5F 
 21830      74696D65 
 21830      72735F6C 
 21830      6973745F 
 21831              	.LASF752:
 21832 1d0d 6E766963 		.ascii	"nvicEnableVector\000"
 21832      456E6162 
 21832      6C655665 
 21832      63746F72 
 21832      00
 21833              	.LASF706:
 21834 1d1e 6E773265 		.ascii	"nw2end\000"
 21834      6E6400
 21835              	.LASF485:
 21836 1d25 75617274 		.ascii	"uarttxstate_t\000"
 21836      74787374 
 21836      6174655F 
 21836      7400
 21837              	.LASF344:
 21838 1d33 6D6F6465 		.ascii	"moder\000"
 21838      7200
 21839              	.LASF471:
 21840 1d39 53504944 		.ascii	"SPIDriver\000"
 21840      72697665 
 21840      7200
 21841              	.LASF276:
 21842 1d43 735F7175 		.ascii	"s_queue\000"
 21842      65756500 
 21843              	.LASF257:
 21844 1d4b 49325343 		.ascii	"I2SCFGR\000"
 21844      46475200 
 21845              	.LASF282:
 21846 1d53 63685F69 		.ascii	"ch_identifier\000"
 21846      64656E74 
 21846      69666965 
 21846      7200
 21847              	.LASF463:
 21848 1d61 77726974 		.ascii	"writet\000"
 21848      657400
 21849              	.LASF12:
 21850 1d68 6C6F6E67 		.ascii	"long long int\000"
 21850      206C6F6E 
 21850      6720696E 
 21850      7400
 21851              	.LASF596:
 21852 1d76 48505458 		.ascii	"HPTXFSIZ\000"
 21852      4653495A 
 21852      00
 21853              	.LASF677:
 21854 1d7f 7573625F 		.ascii	"usb_lld_clear_out\000"
 21854      6C6C645F 
 21854      636C6561 
 21854      725F6F75 
 21854      7400
 21855              	.LASF289:
ARM GAS  C:\Users\USER\AppData\Local\Temp\ccRejSya.s 			page 409


 21856 1d91 63665F6F 		.ascii	"cf_off_prio\000"
 21856      66665F70 
 21856      72696F00 
 21857              	.LASF69:
 21858 1d9d 5F666C61 		.ascii	"_flags2\000"
 21858      67733200 
 21859              	.LASF737:
 21860 1da5 63685379 		.ascii	"chSysLockFromISR\000"
 21860      734C6F63 
 21860      6B46726F 
 21860      6D495352 
 21860      00
 21861              	.LASF435:
 21862 1db6 6963756D 		.ascii	"icumode_t\000"
 21862      6F64655F 
 21862      7400
 21863              	.LASF643:
 21864 1dc0 7478636E 		.ascii	"txcnt\000"
 21864      7400
 21865              	.LASF719:
 21866 1dc6 6F74675F 		.ascii	"otg_rxfifo_flush\000"
 21866      72786669 
 21866      666F5F66 
 21866      6C757368 
 21866      00
 21867              	.LASF662:
 21868 1dd7 6765745F 		.ascii	"get_descriptor_cb\000"
 21868      64657363 
 21868      72697074 
 21868      6F725F63 
 21868      6200
 21869              	.LASF78:
 21870 1de9 5F6C6F63 		.ascii	"_locale\000"
 21870      616C6500 
 21871              	.LASF139:
 21872 1df1 6576656E 		.ascii	"eventflags_t\000"
 21872      74666C61 
 21872      67735F74 
 21872      00
 21873              	.LASF467:
 21874 1dfe 5350495F 		.ascii	"SPI_READY\000"
 21874      52454144 
 21874      5900
 21875              	.LASF689:
 21876 1e08 7573625F 		.ascii	"usb_lld_init_endpoint\000"
 21876      6C6C645F 
 21876      696E6974 
 21876      5F656E64 
 21876      706F696E 
 21877              	.LASF632:
 21878 1e1e 4649464F 		.ascii	"FIFO\000"
 21878      00
 21879              	.LASF211:
 21880 1e23 73464946 		.ascii	"sFIFOMailBox\000"
 21880      4F4D6169 
 21880      6C426F78 
 21880      00
ARM GAS  C:\Users\USER\AppData\Local\Temp\ccRejSya.s 			page 410


 21881              	.LASF611:
 21882 1e30 4443544C 		.ascii	"DCTL\000"
 21882      00
 21883              	.LASF638:
 21884 1e35 74786275 		.ascii	"txbuf\000"
 21884      6600
 21885              	.LASF630:
 21886 1e3b 50434743 		.ascii	"PCGCCTL\000"
 21886      43544C00 
 21887              	.LASF548:
 21888 1e43 5553425F 		.ascii	"USB_EVENT_WAKEUP\000"
 21888      4556454E 
 21888      545F5741 
 21888      4B455550 
 21888      00
 21889              	.LASF744:
 21890 1e54 5F5F7365 		.ascii	"__set_BASEPRI\000"
 21890      745F4241 
 21890      53455052 
 21890      4900
 21891              	.LASF149:
 21892 1e62 705F6F6C 		.ascii	"p_older\000"
 21892      64657200 
 21893              	.LASF359:
 21894 1e6a 50494461 		.ascii	"PIData\000"
 21894      746100
 21895              	.LASF659:
 21896 1e71 73657475 		.ascii	"setup_buf\000"
 21896      705F6275 
 21896      6600
 21897              	.LASF593:
 21898 1e7b 72657376 		.ascii	"resvd34\000"
 21898      64333400 
 21899              	.LASF474:
 21900 1e83 7373706F 		.ascii	"ssport\000"
 21900      727400
 21901              	.LASF412:
 21902 1e8a 4943555F 		.ascii	"ICU_UNINIT\000"
 21902      554E494E 
 21902      495400
 21903              	.LASF163:
 21904 1e95 74687265 		.ascii	"thread_reference_t\000"
 21904      61645F72 
 21904      65666572 
 21904      656E6365 
 21904      5F7400
 21905              	.LASF509:
 21906 1ea8 72656365 		.ascii	"receiving\000"
 21906      6976696E 
 21906      6700
 21907              	.LASF92:
 21908 1eb2 5F5F4649 		.ascii	"__FILE\000"
 21908      4C4500
 21909              	.LASF441:
 21910 1eb9 66726571 		.ascii	"frequency\000"
 21910      75656E63 
 21910      7900
ARM GAS  C:\Users\USER\AppData\Local\Temp\ccRejSya.s 			page 411


 21911              	.LASF725:
 21912 1ec3 6F73616C 		.ascii	"osalSysPolledDelayX\000"
 21912      53797350 
 21912      6F6C6C65 
 21912      6444656C 
 21912      61795800 
 21913              	.LASF29:
 21914 1ed7 5F736967 		.ascii	"_sign\000"
 21914      6E00
 21915              	.LASF656:
 21916 1edd 696E5F73 		.ascii	"in_state\000"
 21916      74617465 
 21916      00
 21917              	.LASF34:
 21918 1ee6 5F5F746D 		.ascii	"__tm_min\000"
 21918      5F6D696E 
 21918      00
 21919              	.LASF283:
 21920 1eef 63685F7A 		.ascii	"ch_zero\000"
 21920      65726F00 
 21921              	.LASF395:
 21922 1ef7 46415354 		.ascii	"FAST_DUTY_CYCLE_2\000"
 21922      5F445554 
 21922      595F4359 
 21922      434C455F 
 21922      3200
 21923              	.LASF288:
 21924 1f09 63685F74 		.ascii	"ch_threadsize\000"
 21924      68726561 
 21924      6473697A 
 21924      6500
 21925              	.LASF230:
 21926 1f17 464C5452 		.ascii	"FLTR\000"
 21926      00
 21927              	.LASF480:
 21928 1f1c 55415254 		.ascii	"UART_READY\000"
 21928      5F524541 
 21928      445900
 21929              	.LASF425:
 21930 1f27 43434D52 		.ascii	"CCMR1\000"
 21930      3100
 21931              	.LASF426:
 21932 1f2d 43434D52 		.ascii	"CCMR2\000"
 21932      3200
 21933              	.LASF430:
 21934 1f33 43434D52 		.ascii	"CCMR3\000"
 21934      3300
 21935              	.LASF0:
 21936 1f39 756E7369 		.ascii	"unsigned int\000"
 21936      676E6564 
 21936      20696E74 
 21936      00
 21937              	.LASF106:
 21938 1f46 5F723438 		.ascii	"_r48\000"
 21938      00
 21939              	.LASF600:
 21940 1f4b 48464952 		.ascii	"HFIR\000"
ARM GAS  C:\Users\USER\AppData\Local\Temp\ccRejSya.s 			page 412


 21940      00
 21941              	.LASF526:
 21942 1f50 5553425F 		.ascii	"USB_UNINIT\000"
 21942      554E494E 
 21942      495400
 21943              	.LASF705:
 21944 1f5b 73747265 		.ascii	"streak\000"
 21944      616B00
 21945              	.LASF326:
 21946 1f62 73747265 		.ascii	"stream\000"
 21946      616D00
 21947              	.LASF393:
 21948 1f69 6932636F 		.ascii	"i2copmode_t\000"
 21948      706D6F64 
 21948      655F7400 
 21949              	.LASF707:
 21950 1f75 6F74675F 		.ascii	"otg_fifo_read_to_buffer\000"
 21950      6669666F 
 21950      5F726561 
 21950      645F746F 
 21950      5F627566 
 21951              	.LASF5:
 21952 1f8d 73686F72 		.ascii	"short int\000"
 21952      7420696E 
 21952      7400
 21953              	.LASF554:
 21954 1f97 75736263 		.ascii	"usbcallback_t\000"
 21954      616C6C62 
 21954      61636B5F 
 21954      7400
 21955              	.LASF58:
 21956 1fa5 5F726561 		.ascii	"_read\000"
 21956      6400
 21957              	.LASF583:
 21958 1fab 47555342 		.ascii	"GUSBCFG\000"
 21958      43464700 
 21959              	.LASF261:
 21960 1fb3 55534152 		.ascii	"USART_TypeDef\000"
 21960      545F5479 
 21960      70654465 
 21960      6600
 21961              	.LASF492:
 21962 1fc1 74787374 		.ascii	"txstate\000"
 21962      61746500 
 21963              	.LASF325:
 21964 1fc9 6F757470 		.ascii	"output_queue_t\000"
 21964      75745F71 
 21964      75657565 
 21964      5F7400
 21965              	.LASF96:
 21966 1fd8 5F72616E 		.ascii	"_rand48\000"
 21966      64343800 
 21967              	.LASF633:
 21968 1fe0 73746D33 		.ascii	"stm32_otg_t\000"
 21968      325F6F74 
 21968      675F7400 
 21969              	.LASF679:
ARM GAS  C:\Users\USER\AppData\Local\Temp\ccRejSya.s 			page 413


 21970 1fec 7573625F 		.ascii	"usb_lld_stall_out\000"
 21970      6C6C645F 
 21970      7374616C 
 21970      6C5F6F75 
 21970      7400
 21971              	.LASF400:
 21972 1ffe 64757479 		.ascii	"duty_cycle\000"
 21972      5F637963 
 21972      6C6500
 21973              	.LASF551:
 21974 2009 75645F73 		.ascii	"ud_size\000"
 21974      697A6500 
 21975              	.LASF240:
 21976 2011 41484232 		.ascii	"AHB2ENR\000"
 21976      454E5200 
 21977              	.LASF234:
 21978 2019 41484231 		.ascii	"AHB1RSTR\000"
 21978      52535452 
 21978      00
 21979              	.LASF654:
 21980 2022 696E5F6D 		.ascii	"in_maxsize\000"
 21980      61787369 
 21980      7A6500
 21981              	.LASF356:
 21982 202d 50464461 		.ascii	"PFData\000"
 21982      746100
 21983              	.LASF484:
 21984 2034 55415254 		.ascii	"UART_TX_COMPLETE\000"
 21984      5F54585F 
 21984      434F4D50 
 21984      4C455445 
 21984      00
 21985              	.LASF151:
 21986 2045 705F7374 		.ascii	"p_state\000"
 21986      61746500 
 21987              	.LASF165:
 21988 204d 63685F74 		.ascii	"ch_threads_list\000"
 21988      68726561 
 21988      64735F6C 
 21988      69737400 
 21989              	.LASF227:
 21990 205d 4F415231 		.ascii	"OAR1\000"
 21990      00
 21991              	.LASF228:
 21992 2062 4F415232 		.ascii	"OAR2\000"
 21992      00
 21993              	.LASF451:
 21994 2067 53445F52 		.ascii	"SD_READY\000"
 21994      45414459 
 21994      00
 21995              		.ident	"GCC: (GNU Tools for Arm Embedded Processors 8-2018-q4-major) 8.2.1 20181213 (release) [gcc
ARM GAS  C:\Users\USER\AppData\Local\Temp\ccRejSya.s 			page 414


DEFINED SYMBOLS
                            *ABS*:00000000 usb_lld.c
C:\Users\USER\AppData\Local\Temp\ccRejSya.s:18     .text.usb_lld_pump:00000000 $t
C:\Users\USER\AppData\Local\Temp\ccRejSya.s:27     .text.usb_lld_pump:00000000 usb_lld_pump
C:\Users\USER\AppData\Local\Temp\ccRejSya.s:1635   .text.usb_lld_pump:000002e4 $d
C:\Users\USER\AppData\Local\Temp\ccRejSya.s:1653   .text.usb_lld_pump:000002ec $t
C:\Users\USER\AppData\Local\Temp\ccRejSya.s:1933   .text.otg_disable_ep.isra.0:00000000 $t
C:\Users\USER\AppData\Local\Temp\ccRejSya.s:1940   .text.otg_disable_ep.isra.0:00000000 otg_disable_ep.isra.0
C:\Users\USER\AppData\Local\Temp\ccRejSya.s:2053   .text.usb_lld_init:00000000 $t
C:\Users\USER\AppData\Local\Temp\ccRejSya.s:2061   .text.usb_lld_init:00000000 usb_lld_init
C:\Users\USER\AppData\Local\Temp\ccRejSya.s:2096   .text.usb_lld_init:0000001c $d
C:\Users\USER\AppData\Local\Temp\ccRejSya.s:2102   .text.usb_lld_start:00000000 $t
C:\Users\USER\AppData\Local\Temp\ccRejSya.s:2110   .text.usb_lld_start:00000000 usb_lld_start
C:\Users\USER\AppData\Local\Temp\ccRejSya.s:2357   .text.usb_lld_start:000000d0 $d
C:\Users\USER\AppData\Local\Temp\ccRejSya.s:2366   .text.usb_lld_stop:00000000 $t
C:\Users\USER\AppData\Local\Temp\ccRejSya.s:2374   .text.usb_lld_stop:00000000 usb_lld_stop
C:\Users\USER\AppData\Local\Temp\ccRejSya.s:2447   .text.usb_lld_stop:0000003c $d
C:\Users\USER\AppData\Local\Temp\ccRejSya.s:2453   .text.usb_lld_reset:00000000 $t
C:\Users\USER\AppData\Local\Temp\ccRejSya.s:2461   .text.usb_lld_reset:00000000 usb_lld_reset
C:\Users\USER\AppData\Local\Temp\ccRejSya.s:2709   .text.usb_lld_reset:000000c0 $d
C:\Users\USER\AppData\Local\Temp\ccRejSya.s:2715   .text.usb_lld_set_address:00000000 $t
C:\Users\USER\AppData\Local\Temp\ccRejSya.s:2723   .text.usb_lld_set_address:00000000 usb_lld_set_address
C:\Users\USER\AppData\Local\Temp\ccRejSya.s:2752   .text.usb_lld_init_endpoint:00000000 $t
C:\Users\USER\AppData\Local\Temp\ccRejSya.s:2760   .text.usb_lld_init_endpoint:00000000 usb_lld_init_endpoint
C:\Users\USER\AppData\Local\Temp\ccRejSya.s:3042   .text.usb_lld_init_endpoint:00000138 $d
C:\Users\USER\AppData\Local\Temp\ccRejSya.s:3048   .text.usb_lld_disable_endpoints:00000000 $t
C:\Users\USER\AppData\Local\Temp\ccRejSya.s:3056   .text.usb_lld_disable_endpoints:00000000 usb_lld_disable_endpoints
C:\Users\USER\AppData\Local\Temp\ccRejSya.s:3086   .text.usb_lld_get_status_out:00000000 $t
C:\Users\USER\AppData\Local\Temp\ccRejSya.s:3094   .text.usb_lld_get_status_out:00000000 usb_lld_get_status_out
C:\Users\USER\AppData\Local\Temp\ccRejSya.s:3134   .text.usb_lld_get_status_in:00000000 $t
C:\Users\USER\AppData\Local\Temp\ccRejSya.s:3142   .text.usb_lld_get_status_in:00000000 usb_lld_get_status_in
C:\Users\USER\AppData\Local\Temp\ccRejSya.s:3182   .text.usb_lld_read_setup:00000000 $t
C:\Users\USER\AppData\Local\Temp\ccRejSya.s:3190   .text.usb_lld_read_setup:00000000 usb_lld_read_setup
C:\Users\USER\AppData\Local\Temp\ccRejSya.s:3216   .text.usb_lld_prepare_receive:00000000 $t
C:\Users\USER\AppData\Local\Temp\ccRejSya.s:3224   .text.usb_lld_prepare_receive:00000000 usb_lld_prepare_receive
C:\Users\USER\AppData\Local\Temp\ccRejSya.s:3294   .text.otg_epout_handler.constprop.7:00000000 $t
C:\Users\USER\AppData\Local\Temp\ccRejSya.s:3301   .text.otg_epout_handler.constprop.7:00000000 otg_epout_handler.constprop.7
C:\Users\USER\AppData\Local\Temp\ccRejSya.s:3559   .text.otg_epout_handler.constprop.7:00000098 $d
C:\Users\USER\AppData\Local\Temp\ccRejSya.s:3564   .text.usb_lld_prepare_transmit:00000000 $t
C:\Users\USER\AppData\Local\Temp\ccRejSya.s:3572   .text.usb_lld_prepare_transmit:00000000 usb_lld_prepare_transmit
C:\Users\USER\AppData\Local\Temp\ccRejSya.s:3659   .text.otg_epin_handler.constprop.8:00000000 $t
C:\Users\USER\AppData\Local\Temp\ccRejSya.s:3666   .text.otg_epin_handler.constprop.8:00000000 otg_epin_handler.constprop.8
C:\Users\USER\AppData\Local\Temp\ccRejSya.s:4102   .text.otg_epin_handler.constprop.8:000000c8 $d
C:\Users\USER\AppData\Local\Temp\ccRejSya.s:4115   .text.Vector14C:00000000 $t
C:\Users\USER\AppData\Local\Temp\ccRejSya.s:4123   .text.Vector14C:00000000 Vector14C
C:\Users\USER\AppData\Local\Temp\ccRejSya.s:4556   .text.Vector14C:000000e0 $d
C:\Users\USER\AppData\Local\Temp\ccRejSya.s:4564   .text.usb_lld_start_out:00000000 $t
C:\Users\USER\AppData\Local\Temp\ccRejSya.s:4572   .text.usb_lld_start_out:00000000 usb_lld_start_out
C:\Users\USER\AppData\Local\Temp\ccRejSya.s:4594   .text.usb_lld_start_in:00000000 $t
C:\Users\USER\AppData\Local\Temp\ccRejSya.s:4602   .text.usb_lld_start_in:00000000 usb_lld_start_in
C:\Users\USER\AppData\Local\Temp\ccRejSya.s:4644   .text.usb_lld_stall_out:00000000 $t
C:\Users\USER\AppData\Local\Temp\ccRejSya.s:4652   .text.usb_lld_stall_out:00000000 usb_lld_stall_out
C:\Users\USER\AppData\Local\Temp\ccRejSya.s:4674   .text.usb_lld_stall_in:00000000 $t
C:\Users\USER\AppData\Local\Temp\ccRejSya.s:4682   .text.usb_lld_stall_in:00000000 usb_lld_stall_in
C:\Users\USER\AppData\Local\Temp\ccRejSya.s:4704   .text.usb_lld_clear_out:00000000 $t
C:\Users\USER\AppData\Local\Temp\ccRejSya.s:4712   .text.usb_lld_clear_out:00000000 usb_lld_clear_out
C:\Users\USER\AppData\Local\Temp\ccRejSya.s:4734   .text.usb_lld_clear_in:00000000 $t
ARM GAS  C:\Users\USER\AppData\Local\Temp\ccRejSya.s 			page 415


C:\Users\USER\AppData\Local\Temp\ccRejSya.s:4742   .text.usb_lld_clear_in:00000000 usb_lld_clear_in
C:\Users\USER\AppData\Local\Temp\ccRejSya.s:4769   .bss.USBD1:00000000 USBD1
C:\Users\USER\AppData\Local\Temp\ccRejSya.s:4765   .bss.USBD1:00000000 $d
C:\Users\USER\AppData\Local\Temp\ccRejSya.s:4772   .bss.ep0_state:00000000 $d
C:\Users\USER\AppData\Local\Temp\ccRejSya.s:4775   .bss.ep0_state:00000000 ep0_state
C:\Users\USER\AppData\Local\Temp\ccRejSya.s:4778   .bss.ep0setup_buffer:00000000 $d
C:\Users\USER\AppData\Local\Temp\ccRejSya.s:4781   .bss.ep0setup_buffer:00000000 ep0setup_buffer
C:\Users\USER\AppData\Local\Temp\ccRejSya.s:4784   .rodata.CSWTCH.10:00000000 $d
C:\Users\USER\AppData\Local\Temp\ccRejSya.s:4788   .rodata.CSWTCH.10:00000000 CSWTCH.10
C:\Users\USER\AppData\Local\Temp\ccRejSya.s:4794   .rodata.ep0config:00000000 $d
C:\Users\USER\AppData\Local\Temp\ccRejSya.s:4798   .rodata.ep0config:00000000 ep0config
C:\Users\USER\AppData\Local\Temp\ccRejSya.s:4811   .rodata.fsparams:00000000 $d
C:\Users\USER\AppData\Local\Temp\ccRejSya.s:4815   .rodata.fsparams:00000000 fsparams
C:\Users\USER\AppData\Local\Temp\ccRejSya.s:4820   .rodata.usb_lld_pump.str1.4:00000000 $d

UNDEFINED SYMBOLS
chThdSuspendS
chThdDequeueAllI
chSchRescheduleS
ch
usbObjectInit
chSysPolledDelayX
nvicEnableVector
chThdCreateI
chSchReadyI
nvicDisableVector
chThdResumeI
_port_irq_epilogue
_usb_reset
_usb_ep0setup
_usb_ep0in
_usb_ep0out
