ARM GAS  C:\Users\USER\AppData\Local\Temp\ccRejSya.s 			page 1


   1              		.cpu cortex-m4
   2              		.eabi_attribute 27, 1
   3              		.eabi_attribute 28, 1
   4              		.eabi_attribute 20, 1
   5              		.eabi_attribute 21, 1
   6              		.eabi_attribute 23, 3
   7              		.eabi_attribute 24, 1
   8              		.eabi_attribute 25, 1
   9              		.eabi_attribute 26, 1
  10              		.eabi_attribute 30, 2
  11              		.eabi_attribute 34, 1
  12              		.eabi_attribute 18, 4
  13              		.file	"usb_lld.c"
  14              		.text
  15              	.Ltext0:
  16              		.cfi_sections	.debug_frame
  17              		.section	.text.usb_lld_pump,"ax",%progbits
  18              		.align	1
  19              		.p2align 4,,15
  20              		.global	usb_lld_pump
  21              		.arch armv7e-m
  22              		.syntax unified
  23              		.thumb
  24              		.thumb_func
  25              		.fpu fpv4-sp-d16
  26              		.type	usb_lld_pump, %function
  27              	usb_lld_pump:
  28              	.LVL0:
  29              	.LFB292:
  30              		.file 1 "src/ChibiOS_3.0.2/os/hal/ports/STM32/LLD/OTGv1/usb_lld.c"
  31              		.loc 1 1294 28 view -0
  32              		.cfi_startproc
  33              		@ args = 0, pretend = 0, frame = 16
  34              		@ frame_needed = 0, uses_anonymous_args = 0
  35              		.loc 1 1295 3 view .LVU1
  36              		.loc 1 1294 28 is_stmt 0 view .LVU2
  37 0000 2DE9F04F 		push	{r4, r5, r6, r7, r8, r9, r10, fp, lr}
  38              		.cfi_def_cfa_offset 36
  39              		.cfi_offset 4, -36
  40              		.cfi_offset 5, -32
  41              		.cfi_offset 6, -28
  42              		.cfi_offset 7, -24
  43              		.cfi_offset 8, -20
  44              		.cfi_offset 9, -16
  45              		.cfi_offset 10, -12
  46              		.cfi_offset 11, -8
  47              		.cfi_offset 14, -4
  48              	.LBB422:
  49              	.LBB423:
  50              		.file 2 "src/ChibiOS_3.0.2/os/rt/include/chregistry.h"
  51              		.loc 2 135 11 view .LVU3
  52 0004 B74B     		ldr	r3, .L106
  53              		.loc 2 135 30 view .LVU4
  54 0006 B849     		ldr	r1, .L106+4
  55 0008 9A69     		ldr	r2, [r3, #24]
  56              	.LVL1:
  57              		.loc 2 135 30 view .LVU5
ARM GAS  C:\Users\USER\AppData\Local\Temp\ccRejSya.s 			page 2


  58              	.LBE423:
  59              	.LBE422:
  60              		.loc 1 1296 3 is_stmt 1 view .LVU6
  61              		.loc 1 1296 16 is_stmt 0 view .LVU7
  62 000a 056D     		ldr	r5, [r0, #80]
  63              	.LVL2:
  64              		.loc 1 1299 3 is_stmt 1 view .LVU8
  65              	.LBB425:
  66              	.LBI422:
  67              		.loc 2 132 20 view .LVU9
  68              	.LBB424:
  69              		.loc 2 135 3 view .LVU10
  70              		.loc 2 135 30 is_stmt 0 view .LVU11
  71 000c 9161     		str	r1, [r2, #24]
  72              	.LVL3:
  73              		.loc 2 135 30 view .LVU12
  74              	.LBE424:
  75              	.LBE425:
  76              		.loc 1 1301 3 is_stmt 1 view .LVU13
  77              	.LBB426:
  78              	.LBI426:
  79              		.file 3 "src/ChibiOS_3.0.2/os/hal/osal/rt/osal.h"
  80              		.loc 3 491 20 view .LVU14
  81              	.LBE426:
  82              		.loc 3 493 3 view .LVU15
  83              	.LBB438:
  84              	.LBB427:
  85              	.LBI427:
  86              		.file 4 "src/ChibiOS_3.0.2/os/rt/include/chsys.h"
  87              		.loc 4 346 20 view .LVU16
  88              	.LBE427:
  89              	.LBE438:
  90              		.loc 4 348 3 view .LVU17
  91              	.LBB439:
  92              	.LBB435:
  93              	.LBB428:
  94              	.LBI428:
  95              		.file 5 "src/ChibiOS_3.0.2/os/rt/ports/ARMCMx/chcore_v7m.h"
  96              		.loc 5 444 20 view .LVU18
  97              	.LBE428:
  98              	.LBE435:
  99              	.LBE439:
 100              		.loc 5 447 3 view .LVU19
 101              	.LBB440:
 102              	.LBB436:
 103              	.LBB433:
 104              	.LBB429:
 105              	.LBI429:
 106              		.file 6 "src/ChibiOS_3.0.2/os/ext/CMSIS/include/core_cmFunc.h"
 107              		.loc 6 544 57 view .LVU20
 108              	.LBB430:
 109              		.loc 6 546 3 view .LVU21
 110              	.LBE430:
 111              	.LBE429:
 112              	.LBE433:
 113              	.LBE436:
 114              	.LBE440:
ARM GAS  C:\Users\USER\AppData\Local\Temp\ccRejSya.s 			page 3


 115              		.loc 1 1294 28 is_stmt 0 view .LVU22
 116 000e 85B0     		sub	sp, sp, #20
 117              		.cfi_def_cfa_offset 56
 118              	.LBB441:
 119              	.LBB437:
 120              	.LBB434:
 121              	.LBB432:
 122              	.LBB431:
 123              		.loc 6 546 3 view .LVU23
 124 0010 2023     		movs	r3, #32
 125              		.syntax unified
 126              	@ 546 "src/ChibiOS_3.0.2/os/ext/CMSIS/include/core_cmFunc.h" 1
 127 0012 83F31188 		MSR basepri, r3
 128              	@ 0 "" 2
 129              	.LVL4:
 130              		.loc 6 546 3 view .LVU24
 131              		.thumb
 132              		.syntax unified
 133              	.LBE431:
 134              	.LBE432:
 135              	.LBE434:
 136              	.LBE437:
 137              	.LBE441:
 138              		.loc 4 349 34 is_stmt 1 view .LVU25
 139              		.loc 4 350 20 view .LVU26
 140              	.LBB442:
 141              	.LBB443:
 142              	.LBB444:
 143              	.LBB445:
 144              	.LBB446:
 145              	.LBB447:
 146              	.LBB448:
 147              	.LBB449:
 148              	.LBB450:
 149              	.LBB451:
 150              		.loc 6 546 3 is_stmt 0 view .LVU27
 151 0016 0093     		str	r3, [sp]
 152 0018 00F16003 		add	r3, r0, #96
 153 001c A946     		mov	r9, r5
 154 001e 0393     		str	r3, [sp, #12]
 155 0020 0546     		mov	r5, r0
 156              	.LVL5:
 157              	.L51:
 158              		.loc 6 546 3 view .LVU28
 159              	.LBE451:
 160              	.LBE450:
 161              	.LBE449:
 162              	.LBE448:
 163              	.LBE447:
 164              	.LBE446:
 165              	.LBE445:
 166              	.LBE444:
 167              	.LBE443:
 168              	.LBE442:
 169              		.loc 1 1302 3 is_stmt 1 view .LVU29
 170              	.LBB732:
 171              		.loc 1 1303 5 view .LVU30
ARM GAS  C:\Users\USER\AppData\Local\Temp\ccRejSya.s 			page 4


 172              		.loc 1 1304 5 view .LVU31
 173              		.loc 1 1307 5 view .LVU32
 174              		.loc 1 1307 8 is_stmt 0 view .LVU33
 175 0022 2B78     		ldrb	r3, [r5]	@ zero_extendqisi2
 176 0024 012B     		cmp	r3, #1
 177 0026 05D0     		beq	.L2
 178              		.loc 1 1307 35 discriminator 1 view .LVU34
 179 0028 EB6D     		ldr	r3, [r5, #92]
 180 002a 63B9     		cbnz	r3, .L3
 181              		.loc 1 1308 42 view .LVU35
 182 002c D9F81430 		ldr	r3, [r9, #20]
 183              		.loc 1 1308 33 view .LVU36
 184 0030 DB06     		lsls	r3, r3, #27
 185 0032 08D4     		bmi	.L3
 186              	.L2:
 187              		.loc 1 1309 7 is_stmt 1 view .LVU37
 188              		.loc 1 1309 21 is_stmt 0 view .LVU38
 189 0034 D9F81830 		ldr	r3, [r9, #24]
 190              	.LBB523:
 191              	.LBB524:
 192              		.loc 3 688 10 view .LVU39
 193 0038 0398     		ldr	r0, [sp, #12]
 194              	.LBE524:
 195              	.LBE523:
 196              		.loc 1 1309 21 view .LVU40
 197 003a 43F01003 		orr	r3, r3, #16
 198 003e C9F81830 		str	r3, [r9, #24]
 199              		.loc 1 1310 7 is_stmt 1 view .LVU41
 200              	.LBB526:
 201              	.LBI523:
 202              		.loc 3 686 21 view .LVU42
 203              	.LBB525:
 204              		.loc 3 688 3 view .LVU43
 205              		.loc 3 688 10 is_stmt 0 view .LVU44
 206 0042 FFF7FEFF 		bl	chThdSuspendS
 207              	.LVL6:
 208              	.L3:
 209              		.loc 3 688 10 view .LVU45
 210              	.LBE525:
 211              	.LBE526:
 212              		.loc 1 1312 5 is_stmt 1 view .LVU46
 213              	.LBB527:
 214              	.LBI527:
 215              		.loc 3 502 20 view .LVU47
 216              	.LBE527:
 217              	.LBE732:
 218              		.loc 3 504 3 view .LVU48
 219              	.LBB733:
 220              	.LBB536:
 221              	.LBB528:
 222              	.LBI528:
 223              		.loc 4 358 20 view .LVU49
 224              	.LBB529:
 225              		.loc 4 360 22 view .LVU50
 226              		.loc 4 361 33 view .LVU51
 227              		.loc 4 367 3 view .LVU52
 228              		.loc 4 367 3 view .LVU53
ARM GAS  C:\Users\USER\AppData\Local\Temp\ccRejSya.s 			page 5


 229              		.loc 4 371 3 view .LVU54
 230              	.LBB530:
 231              	.LBI530:
 232              		.loc 5 458 20 view .LVU55
 233              	.LBE530:
 234              	.LBE529:
 235              	.LBE528:
 236              	.LBE536:
 237              	.LBE733:
 238              		.loc 5 461 3 view .LVU56
 239              	.LBB734:
 240              	.LBB537:
 241              	.LBB535:
 242              	.LBB534:
 243              	.LBB533:
 244              	.LBB531:
 245              	.LBI531:
 246              		.loc 6 544 57 view .LVU57
 247              	.LBB532:
 248              		.loc 6 546 3 view .LVU58
 249 0046 0023     		movs	r3, #0
 250              		.syntax unified
 251              	@ 546 "src/ChibiOS_3.0.2/os/ext/CMSIS/include/core_cmFunc.h" 1
 252 0048 83F31188 		MSR basepri, r3
 253              	@ 0 "" 2
 254              	.LVL7:
 255              		.loc 6 546 3 is_stmt 0 view .LVU59
 256              		.thumb
 257              		.syntax unified
 258              	.LBE532:
 259              	.LBE531:
 260              	.LBE533:
 261              	.LBE534:
 262              	.LBE535:
 263              	.LBE537:
 264              		.loc 1 1315 5 is_stmt 1 view .LVU60
 265              		.loc 1 1315 13 is_stmt 0 view .LVU61
 266 004c 9A46     		mov	r10, r3
 267              	.LVL8:
 268              	.L6:
 269              		.loc 1 1318 18 view .LVU62
 270 004e D9F81430 		ldr	r3, [r9, #20]
 271              		.loc 1 1318 13 view .LVU63
 272 0052 13F01003 		ands	r3, r3, #16
 273 0056 58D0     		beq	.L99
 274              	.L23:
 275              		.loc 1 1319 9 is_stmt 1 view .LVU64
 276              	.LVL9:
 277              	.LBB538:
 278              	.LBI443:
 279              		.loc 1 434 13 view .LVU65
 280              	.LBB512:
 281              		.loc 1 435 3 view .LVU66
 282              		.loc 1 437 3 view .LVU67
 283              		.loc 1 437 13 is_stmt 0 view .LVU68
 284 0058 2A6D     		ldr	r2, [r5, #80]
 285              		.loc 1 437 7 view .LVU69
ARM GAS  C:\Users\USER\AppData\Local\Temp\ccRejSya.s 			page 6


 286 005a 136A     		ldr	r3, [r2, #32]
 287              	.LVL10:
 288              		.loc 1 438 3 is_stmt 1 view .LVU70
 289              		.loc 1 438 15 is_stmt 0 view .LVU71
 290 005c 03F4F011 		and	r1, r3, #1966080
 291              		.loc 1 438 3 view .LVU72
 292 0060 B1F5802F 		cmp	r1, #262144
 293 0064 24D0     		beq	.L5
 294 0066 B1F5402F 		cmp	r1, #786432
 295 006a F0D1     		bne	.L6
 296              		.loc 1 442 5 is_stmt 1 view .LVU73
 297              	.LVL11:
 298              		.loc 1 443 5 view .LVU74
 299              		.loc 1 444 5 view .LVU75
 300              		.loc 1 443 9 is_stmt 0 view .LVU76
 301 006c 03F00F01 		and	r1, r3, #15
 302              	.LVL12:
 303              		.loc 1 444 58 view .LVU77
 304 0070 05EB8101 		add	r1, r5, r1, lsl #2
 305              	.LVL13:
 306              		.loc 1 442 9 view .LVU78
 307 0074 C3F30A13 		ubfx	r3, r3, #4, #11
 308              	.LVL14:
 309              		.loc 1 444 5 view .LVU79
 310 0078 C968     		ldr	r1, [r1, #12]
 311              	.LBB490:
 312              	.LBB491:
 313              		.loc 1 356 10 view .LVU80
 314 007a 0333     		adds	r3, r3, #3
 315              		.loc 1 358 9 view .LVU81
 316 007c 9B08     		lsrs	r3, r3, #2
 317              	.LBE491:
 318              	.LBE490:
 319              		.loc 1 444 5 view .LVU82
 320 007e 0C6A     		ldr	r4, [r1, #32]
 321              	.LVL15:
 322              	.LBB496:
 323              	.LBI490:
 324              		.loc 1 351 13 is_stmt 1 view .LVU83
 325              	.LBB495:
 326              		.loc 1 356 3 view .LVU84
 327              		.loc 1 357 3 view .LVU85
 328              		.loc 1 358 3 view .LVU86
 329              		.loc 1 358 9 is_stmt 0 view .LVU87
 330 0080 E5D0     		beq	.L6
 331 0082 02F58052 		add	r2, r2, #4096
 332              	.LVL16:
 333              		.loc 1 357 7 view .LVU88
 334 0086 0221     		movs	r1, #2
 335              	.LVL17:
 336              	.LBB492:
 337              		.loc 1 359 5 is_stmt 1 view .LVU89
 338              		.loc 1 359 14 is_stmt 0 view .LVU90
 339 0088 1668     		ldr	r6, [r2]
 340              	.LVL18:
 341              		.loc 1 360 5 is_stmt 1 view .LVU91
 342              		.loc 1 363 7 view .LVU92
ARM GAS  C:\Users\USER\AppData\Local\Temp\ccRejSya.s 			page 7


 343 008a 581E     		subs	r0, r3, #1
 344              		.loc 1 360 8 is_stmt 0 view .LVU93
 345 008c 49B1     		cbz	r1, .L100
 346              	.L9:
 347              		.loc 1 365 10 view .LVU94
 348 008e 0346     		mov	r3, r0
 349              		.loc 1 363 37 view .LVU95
 350 0090 44F8046B 		str	r6, [r4], #4
 351              	.LVL19:
 352              		.loc 1 364 7 is_stmt 1 view .LVU96
 353              		.loc 1 365 7 view .LVU97
 354              		.loc 1 365 10 is_stmt 0 view .LVU98
 355 0094 0139     		subs	r1, r1, #1
 356              	.LVL20:
 357              		.loc 1 367 5 is_stmt 1 view .LVU99
 358              		.loc 1 367 5 is_stmt 0 view .LVU100
 359              	.LBE492:
 360              		.loc 1 358 9 view .LVU101
 361 0096 002B     		cmp	r3, #0
 362 0098 D9D0     		beq	.L6
 363              	.LVL21:
 364              	.L98:
 365              	.LBB493:
 366              		.loc 1 359 5 is_stmt 1 view .LVU102
 367              		.loc 1 359 14 is_stmt 0 view .LVU103
 368 009a 1668     		ldr	r6, [r2]
 369              	.LVL22:
 370              		.loc 1 360 5 is_stmt 1 view .LVU104
 371              		.loc 1 363 7 view .LVU105
 372 009c 581E     		subs	r0, r3, #1
 373              		.loc 1 360 8 is_stmt 0 view .LVU106
 374 009e 0029     		cmp	r1, #0
 375 00a0 F5D1     		bne	.L9
 376              	.L100:
 377              	.LVL23:
 378              		.loc 1 367 5 is_stmt 1 view .LVU107
 379              		.loc 1 359 5 view .LVU108
 380              	.LBE493:
 381              		.loc 1 358 9 is_stmt 0 view .LVU109
 382 00a2 0028     		cmp	r0, #0
 383 00a4 D3D0     		beq	.L6
 384              		.loc 1 358 9 view .LVU110
 385 00a6 023B     		subs	r3, r3, #2
 386              	.LBB494:
 387              		.loc 1 359 14 view .LVU111
 388 00a8 1068     		ldr	r0, [r2]
 389              	.LVL24:
 390              		.loc 1 360 5 is_stmt 1 view .LVU112
 391              		.loc 1 367 5 view .LVU113
 392              		.loc 1 367 5 is_stmt 0 view .LVU114
 393              	.LBE494:
 394              		.loc 1 358 9 view .LVU115
 395 00aa 002B     		cmp	r3, #0
 396 00ac F5D1     		bne	.L98
 397              		.loc 1 358 9 view .LVU116
 398 00ae CEE7     		b	.L6
 399              	.LVL25:
ARM GAS  C:\Users\USER\AppData\Local\Temp\ccRejSya.s 			page 8


 400              	.L5:
 401              		.loc 1 358 9 view .LVU117
 402              	.LBE495:
 403              	.LBE496:
 404              		.loc 1 448 5 is_stmt 1 view .LVU118
 405              		.loc 1 449 9 is_stmt 0 view .LVU119
 406 00b0 03F00F06 		and	r6, r3, #15
 407 00b4 05EB8606 		add	r6, r5, r6, lsl #2
 408              		.loc 1 448 9 view .LVU120
 409 00b8 C3F30A14 		ubfx	r4, r3, #4, #11
 410              	.LVL26:
 411              		.loc 1 449 5 is_stmt 1 view .LVU121
 412              		.loc 1 450 5 view .LVU122
 413              		.loc 1 450 22 is_stmt 0 view .LVU123
 414 00bc F368     		ldr	r3, [r6, #12]
 415              	.LVL27:
 416              		.loc 1 450 22 view .LVU124
 417 00be 9F69     		ldr	r7, [r3, #24]
 418              		.loc 1 450 8 view .LVU125
 419 00c0 3B78     		ldrb	r3, [r7]	@ zero_extendqisi2
 420 00c2 F868     		ldr	r0, [r7, #12]
 421 00c4 002B     		cmp	r3, #0
 422 00c6 3CD1     		bne	.L101
 423              		.loc 1 457 7 is_stmt 1 view .LVU126
 424              		.loc 1 461 55 is_stmt 0 view .LVU127
 425 00c8 D7E9013E 		ldrd	r3, lr, [r7, #4]
 426              	.LVL28:
 427              	.LBB497:
 428              	.LBI497:
 429              		.loc 1 351 13 is_stmt 1 view .LVU128
 430              	.LBB498:
 431              		.loc 1 356 3 view .LVU129
 432              		.loc 1 357 14 is_stmt 0 view .LVU130
 433 00cc D91C     		adds	r1, r3, #3
 434              		.loc 1 356 10 view .LVU131
 435 00ce E31C     		adds	r3, r4, #3
 436              	.LVL29:
 437              		.loc 1 357 3 is_stmt 1 view .LVU132
 438              		.loc 1 357 14 is_stmt 0 view .LVU133
 439 00d0 A1EB0E01 		sub	r1, r1, lr
 440              		.loc 1 358 9 view .LVU134
 441 00d4 9B08     		lsrs	r3, r3, #2
 442              		.loc 1 357 7 view .LVU135
 443 00d6 4FEA9101 		lsr	r1, r1, #2
 444              	.LVL30:
 445              		.loc 1 358 3 is_stmt 1 view .LVU136
 446              		.loc 1 358 9 is_stmt 0 view .LVU137
 447 00da 0DD0     		beq	.L21
 448 00dc 02F58052 		add	r2, r2, #4096
 449              	.LVL31:
 450              		.loc 1 358 9 view .LVU138
 451 00e0 8446     		mov	ip, r0
 452 00e2 9046     		mov	r8, r2
 453              	.LVL32:
 454              	.L19:
 455              	.LBB499:
 456              		.loc 1 359 5 is_stmt 1 view .LVU139
ARM GAS  C:\Users\USER\AppData\Local\Temp\ccRejSya.s 			page 9


 457              		.loc 1 363 7 view .LVU140
 458              		.loc 1 359 14 is_stmt 0 view .LVU141
 459 00e4 D8F80020 		ldr	r2, [r8]
 460              	.LVL33:
 461              		.loc 1 360 5 is_stmt 1 view .LVU142
 462 00e8 5E1E     		subs	r6, r3, #1
 463              		.loc 1 360 8 is_stmt 0 view .LVU143
 464 00ea 11B3     		cbz	r1, .L102
 465              		.loc 1 365 10 view .LVU144
 466 00ec 3346     		mov	r3, r6
 467              	.LVL34:
 468              		.loc 1 363 37 view .LVU145
 469 00ee 4CF8042B 		str	r2, [ip], #4
 470              	.LVL35:
 471              		.loc 1 364 7 is_stmt 1 view .LVU146
 472              		.loc 1 365 7 view .LVU147
 473              		.loc 1 365 10 is_stmt 0 view .LVU148
 474 00f2 0139     		subs	r1, r1, #1
 475              	.LVL36:
 476              		.loc 1 367 5 is_stmt 1 view .LVU149
 477              		.loc 1 367 5 is_stmt 0 view .LVU150
 478              	.LBE499:
 479              		.loc 1 358 9 view .LVU151
 480 00f4 002B     		cmp	r3, #0
 481 00f6 F5D1     		bne	.L19
 482              	.LVL37:
 483              	.L21:
 484              		.loc 1 358 9 view .LVU152
 485              	.LBE498:
 486              	.LBE497:
 487              		.loc 1 462 7 is_stmt 1 view .LVU153
 488              		.loc 1 462 51 is_stmt 0 view .LVU154
 489 00f8 2044     		add	r0, r0, r4
 490 00fa F860     		str	r0, [r7, #12]
 491              	.L18:
 492              		.loc 1 464 5 is_stmt 1 view .LVU155
 493              	.LBE512:
 494              	.LBE538:
 495              		.loc 1 1318 18 is_stmt 0 view .LVU156
 496 00fc D9F81430 		ldr	r3, [r9, #20]
 497              	.LBB539:
 498              	.LBB513:
 499              		.loc 1 464 37 view .LVU157
 500 0100 7444     		add	r4, r4, lr
 501              	.LVL38:
 502              		.loc 1 464 37 view .LVU158
 503              	.LBE513:
 504              	.LBE539:
 505              		.loc 1 1318 13 view .LVU159
 506 0102 13F01003 		ands	r3, r3, #16
 507              	.LBB540:
 508              	.LBB514:
 509              		.loc 1 464 37 view .LVU160
 510 0106 BC60     		str	r4, [r7, #8]
 511              		.loc 1 465 5 is_stmt 1 view .LVU161
 512              	.LBE514:
 513              	.LBE540:
ARM GAS  C:\Users\USER\AppData\Local\Temp\ccRejSya.s 			page 10


 514              		.loc 1 1318 13 is_stmt 0 view .LVU162
 515 0108 A6D1     		bne	.L23
 516              	.LVL39:
 517              	.L99:
 518              		.loc 1 1322 7 is_stmt 1 view .LVU163
 519              		.loc 1 1322 19 is_stmt 0 view .LVU164
 520 010a 0121     		movs	r1, #1
 521              		.loc 1 1323 27 view .LVU165
 522 010c EA6D     		ldr	r2, [r5, #92]
 523              		.loc 1 1322 19 view .LVU166
 524 010e 01FA0AF1 		lsl	r1, r1, r10
 525              		.loc 1 1323 10 view .LVU167
 526 0112 1142     		tst	r1, r2
 527              		.loc 1 1322 19 view .LVU168
 528 0114 0291     		str	r1, [sp, #8]
 529              	.LVL40:
 530              		.loc 1 1323 7 is_stmt 1 view .LVU169
 531              		.loc 1 1323 10 is_stmt 0 view .LVU170
 532 0116 50D1     		bne	.L91
 533 0118 0AF10103 		add	r3, r10, #1
 534 011c 0193     		str	r3, [sp, #4]
 535              	.LVL41:
 536              	.L24:
 537              		.loc 1 1315 39 discriminator 2 view .LVU171
 538 011e 6B6D     		ldr	r3, [r5, #84]
 539              		.loc 1 1315 58 discriminator 2 view .LVU172
 540 0120 9DF804A0 		ldrb	r10, [sp, #4]	@ zero_extendqisi2
 541              	.LVL42:
 542              		.loc 1 1315 5 discriminator 2 view .LVU173
 543 0124 9B68     		ldr	r3, [r3, #8]
 544 0126 9A45     		cmp	r10, r3
 545 0128 91D9     		bls	.L6
 546              		.loc 1 1347 5 is_stmt 1 view .LVU174
 547              	.LBB541:
 548              	.LBI541:
 549              		.loc 3 491 20 view .LVU175
 550              	.LBE541:
 551              	.LBE734:
 552              		.loc 3 493 3 view .LVU176
 553              	.LBB735:
 554              	.LBB549:
 555              	.LBB542:
 556              	.LBI542:
 557              		.loc 4 346 20 view .LVU177
 558              	.LBE542:
 559              	.LBE549:
 560              	.LBE735:
 561              		.loc 4 348 3 view .LVU178
 562              	.LBB736:
 563              	.LBB550:
 564              	.LBB547:
 565              	.LBB543:
 566              	.LBI543:
 567              		.loc 5 444 20 view .LVU179
 568              	.LBE543:
 569              	.LBE547:
 570              	.LBE550:
ARM GAS  C:\Users\USER\AppData\Local\Temp\ccRejSya.s 			page 11


 571              	.LBE736:
 572              		.loc 5 447 3 view .LVU180
 573              	.LVL43:
 574              	.LBB737:
 575              	.LBB551:
 576              	.LBB548:
 577              	.LBB546:
 578              	.LBB544:
 579              	.LBI544:
 580              		.loc 6 544 57 view .LVU181
 581              	.LBB545:
 582              		.loc 6 546 3 view .LVU182
 583 012a 009B     		ldr	r3, [sp]
 584              		.syntax unified
 585              	@ 546 "src/ChibiOS_3.0.2/os/ext/CMSIS/include/core_cmFunc.h" 1
 586 012c 83F31188 		MSR basepri, r3
 587              	@ 0 "" 2
 588              	.LVL44:
 589              		.loc 6 546 3 is_stmt 0 view .LVU183
 590              		.thumb
 591              		.syntax unified
 592              	.LBE545:
 593              	.LBE544:
 594              	.LBE546:
 595              	.LBE548:
 596              	.LBE551:
 597              	.LBE737:
 598              		.loc 4 349 34 is_stmt 1 view .LVU184
 599              		.loc 4 350 20 view .LVU185
 600 0130 77E7     		b	.L51
 601              	.LVL45:
 602              	.L102:
 603              	.LBB738:
 604              	.LBB552:
 605              	.LBB515:
 606              	.LBB503:
 607              	.LBB502:
 608              	.LBB500:
 609              		.loc 1 367 5 view .LVU186
 610              		.loc 1 359 5 view .LVU187
 611              	.LBE500:
 612              		.loc 1 358 9 is_stmt 0 view .LVU188
 613 0132 002E     		cmp	r6, #0
 614 0134 E0D0     		beq	.L21
 615 0136 023B     		subs	r3, r3, #2
 616              	.LVL46:
 617              	.LBB501:
 618              		.loc 1 359 14 view .LVU189
 619 0138 D8F80020 		ldr	r2, [r8]
 620              	.LVL47:
 621              		.loc 1 360 5 is_stmt 1 view .LVU190
 622              		.loc 1 367 5 view .LVU191
 623              		.loc 1 367 5 is_stmt 0 view .LVU192
 624              	.LBE501:
 625              		.loc 1 358 9 view .LVU193
 626 013c 002B     		cmp	r3, #0
 627 013e D1D1     		bne	.L19
ARM GAS  C:\Users\USER\AppData\Local\Temp\ccRejSya.s 			page 12


 628 0140 DAE7     		b	.L21
 629              	.LVL48:
 630              	.L101:
 631              		.loc 1 358 9 view .LVU194
 632              	.LBE502:
 633              	.LBE503:
 634              		.loc 1 452 7 is_stmt 1 view .LVU195
 635              	.LBB504:
 636              	.LBI445:
 637              		.loc 1 380 13 view .LVU196
 638              	.LBB482:
 639              		.loc 1 383 3 view .LVU197
 640              		.loc 1 385 3 view .LVU198
 641              		.loc 1 386 3 view .LVU199
 642              		.loc 1 386 9 is_stmt 0 view .LVU200
 643 0142 3CB3     		cbz	r4, .L13
 644 0144 4169     		ldr	r1, [r0, #20]
 645 0146 02F58052 		add	r2, r2, #4096
 646              	.LVL49:
 647              		.loc 1 386 9 view .LVU201
 648 014a A446     		mov	ip, r4
 649              	.LVL50:
 650              	.L52:
 651              	.LBB459:
 652              		.loc 1 387 5 is_stmt 1 view .LVU202
 653              		.loc 1 388 5 view .LVU203
 654              		.loc 1 390 5 view .LVU204
 655              		.loc 1 390 8 is_stmt 0 view .LVU205
 656 014c BCF1030F 		cmp	ip, #3
 657 0150 07D9     		bls	.L14
 658              	.LVL51:
 659              	.L103:
 660              	.LBB460:
 661              		.loc 1 391 7 is_stmt 1 view .LVU206
 662              		.loc 1 392 7 view .LVU207
 663              		.loc 1 394 7 view .LVU208
 664              		.loc 1 395 7 view .LVU209
 665              		.loc 1 395 7 is_stmt 0 view .LVU210
 666              	.LBE460:
 667              	.LBE459:
 668              	.LBE482:
 669              	.LBE504:
 670              	.LBE515:
 671              	.LBE552:
 672              	.LBE738:
 673              		.loc 1 330 3 is_stmt 1 view .LVU211
 674              		.loc 1 338 3 view .LVU212
 675              	.LBB739:
 676              	.LBB553:
 677              	.LBB516:
 678              	.LBB505:
 679              	.LBB483:
 680              	.LBB462:
 681              	.LBB461:
 682              		.loc 1 396 7 view .LVU213
 683              		.loc 1 396 10 is_stmt 0 view .LVU214
 684 0152 0369     		ldr	r3, [r0, #16]
ARM GAS  C:\Users\USER\AppData\Local\Temp\ccRejSya.s 			page 13


 685 0154 8B42     		cmp	r3, r1
 686 0156 04D8     		bhi	.L14
 687              		.loc 1 397 9 is_stmt 1 view .LVU215
 688              		.loc 1 397 27 is_stmt 0 view .LVU216
 689 0158 C168     		ldr	r1, [r0, #12]
 690              		.loc 1 397 22 view .LVU217
 691 015a 4161     		str	r1, [r0, #20]
 692              		.loc 1 398 9 is_stmt 1 view .LVU218
 693              		.loc 1 398 9 is_stmt 0 view .LVU219
 694              	.LBE461:
 695              		.loc 1 387 5 is_stmt 1 view .LVU220
 696              		.loc 1 388 5 view .LVU221
 697              	.LVL52:
 698              		.loc 1 390 5 view .LVU222
 699              		.loc 1 390 8 is_stmt 0 view .LVU223
 700 015c BCF1030F 		cmp	ip, #3
 701 0160 F7D8     		bhi	.L103
 702              	.LVL53:
 703              	.L14:
 704              		.loc 1 404 5 is_stmt 1 view .LVU224
 705              		.loc 1 408 5 view .LVU225
 706              		.loc 1 408 7 is_stmt 0 view .LVU226
 707 0162 D2F800E0 		ldr	lr, [r2]
 708              	.LVL54:
 709              		.loc 1 409 5 is_stmt 1 view .LVU227
 710              		.loc 1 410 5 view .LVU228
 711              		.loc 1 408 7 is_stmt 0 view .LVU229
 712 0166 0023     		movs	r3, #0
 713              	.LVL55:
 714              	.L17:
 715              		.loc 1 411 7 is_stmt 1 view .LVU230
 716              		.loc 1 413 9 view .LVU231
 717              		.loc 1 414 7 view .LVU232
 718              		.loc 1 415 7 view .LVU233
 719              		.loc 1 411 37 is_stmt 0 view .LVU234
 720 0168 2EFA03F7 		lsr	r7, lr, r3
 721              		.loc 1 411 20 view .LVU235
 722 016c 01F10108 		add	r8, r1, #1
 723 0170 C0F81480 		str	r8, [r0, #20]
 724              		.loc 1 411 25 view .LVU236
 725 0174 0F70     		strb	r7, [r1]
 726              		.loc 1 412 7 is_stmt 1 view .LVU237
 727              		.loc 1 412 10 is_stmt 0 view .LVU238
 728 0176 D0E90417 		ldrd	r1, r7, [r0, #16]
 729 017a 8F42     		cmp	r7, r1
 730              		.loc 1 413 22 view .LVU239
 731 017c 24BF     		itt	cs
 732 017e C168     		ldrcs	r1, [r0, #12]
 733 0180 4161     		strcs	r1, [r0, #20]
 734              		.loc 1 410 11 view .LVU240
 735 0182 BCF1010C 		subs	ip, ip, #1
 736              	.LVL56:
 737              		.loc 1 410 11 view .LVU241
 738 0186 03F10803 		add	r3, r3, #8
 739 018a 03D0     		beq	.L13
 740              		.loc 1 410 24 view .LVU242
 741 018c 202B     		cmp	r3, #32
ARM GAS  C:\Users\USER\AppData\Local\Temp\ccRejSya.s 			page 14


 742 018e 4169     		ldr	r1, [r0, #20]
 743 0190 EAD1     		bne	.L17
 744 0192 DBE7     		b	.L52
 745              	.LVL57:
 746              	.L13:
 747              		.loc 1 410 24 view .LVU243
 748              	.LBE462:
 749              		.loc 1 420 3 is_stmt 1 view .LVU244
 750              	.LBB463:
 751              	.LBI447:
 752              		.loc 3 491 20 view .LVU245
 753              	.LBE463:
 754              	.LBE483:
 755              	.LBE505:
 756              	.LBE516:
 757              	.LBE553:
 758              	.LBE739:
 759              		.loc 3 493 3 view .LVU246
 760              	.LBB740:
 761              	.LBB554:
 762              	.LBB517:
 763              	.LBB506:
 764              	.LBB484:
 765              	.LBB464:
 766              	.LBB456:
 767              	.LBI448:
 768              		.loc 4 346 20 view .LVU247
 769              	.LBE456:
 770              	.LBE464:
 771              	.LBE484:
 772              	.LBE506:
 773              	.LBE517:
 774              	.LBE554:
 775              	.LBE740:
 776              		.loc 4 348 3 view .LVU248
 777              	.LBB741:
 778              	.LBB555:
 779              	.LBB518:
 780              	.LBB507:
 781              	.LBB485:
 782              	.LBB465:
 783              	.LBB457:
 784              	.LBB454:
 785              	.LBI449:
 786              		.loc 5 444 20 view .LVU249
 787              	.LBE454:
 788              	.LBE457:
 789              	.LBE465:
 790              	.LBE485:
 791              	.LBE507:
 792              	.LBE518:
 793              	.LBE555:
 794              	.LBE741:
 795              		.loc 5 447 3 view .LVU250
 796              	.LBB742:
 797              	.LBB556:
 798              	.LBB519:
ARM GAS  C:\Users\USER\AppData\Local\Temp\ccRejSya.s 			page 15


 799              	.LBB508:
 800              	.LBB486:
 801              	.LBB466:
 802              	.LBB458:
 803              	.LBB455:
 804              	.LBB453:
 805              	.LBI450:
 806              		.loc 6 544 57 view .LVU251
 807              	.LBB452:
 808              		.loc 6 546 3 view .LVU252
 809 0194 009B     		ldr	r3, [sp]
 810              		.syntax unified
 811              	@ 546 "src/ChibiOS_3.0.2/os/ext/CMSIS/include/core_cmFunc.h" 1
 812 0196 83F31188 		MSR basepri, r3
 813              	@ 0 "" 2
 814              	.LVL58:
 815              		.loc 6 546 3 is_stmt 0 view .LVU253
 816              		.thumb
 817              		.syntax unified
 818              	.LBE452:
 819              	.LBE453:
 820              	.LBE455:
 821              	.LBE458:
 822              	.LBE466:
 823              	.LBE486:
 824              	.LBE508:
 825              	.LBE519:
 826              	.LBE556:
 827              	.LBE742:
 828              		.loc 4 349 34 is_stmt 1 view .LVU254
 829              		.loc 4 350 20 view .LVU255
 830              	.LBB743:
 831              	.LBB557:
 832              	.LBB520:
 833              	.LBB509:
 834              	.LBB487:
 835              		.loc 1 421 3 view .LVU256
 836              		.loc 1 421 18 is_stmt 0 view .LVU257
 837 019a 8368     		ldr	r3, [r0, #8]
 838 019c 2344     		add	r3, r3, r4
 839 019e 8360     		str	r3, [r0, #8]
 840              		.loc 1 422 3 is_stmt 1 view .LVU258
 841              	.LVL59:
 842              	.LBB467:
 843              	.LBI467:
 844              		.loc 3 808 20 view .LVU259
 845              	.LBB468:
 846              		.loc 3 810 3 view .LVU260
 847 01a0 0021     		movs	r1, #0
 848 01a2 FFF7FEFF 		bl	chThdDequeueAllI
 849              	.LVL60:
 850              		.loc 3 810 3 is_stmt 0 view .LVU261
 851              	.LBE468:
 852              	.LBE467:
 853              		.loc 1 423 3 is_stmt 1 view .LVU262
 854              	.LBB469:
 855              	.LBI469:
ARM GAS  C:\Users\USER\AppData\Local\Temp\ccRejSya.s 			page 16


 856              		.loc 3 598 20 view .LVU263
 857              	.LBB470:
 858              		.loc 3 600 3 view .LVU264
 859 01a6 FFF7FEFF 		bl	chSchRescheduleS
 860              	.LVL61:
 861              	.LBE470:
 862              	.LBE469:
 863              		.loc 1 424 3 view .LVU265
 864              	.LBB471:
 865              	.LBI471:
 866              		.loc 3 502 20 view .LVU266
 867              	.LBE471:
 868              	.LBE487:
 869              	.LBE509:
 870              	.LBE520:
 871              	.LBE557:
 872              	.LBE743:
 873              		.loc 3 504 3 view .LVU267
 874              	.LBB744:
 875              	.LBB558:
 876              	.LBB521:
 877              	.LBB510:
 878              	.LBB488:
 879              	.LBB480:
 880              	.LBB472:
 881              	.LBI472:
 882              		.loc 4 358 20 view .LVU268
 883              	.LBB473:
 884              		.loc 4 360 22 view .LVU269
 885              		.loc 4 361 33 view .LVU270
 886              		.loc 4 367 3 view .LVU271
 887              		.loc 4 367 3 view .LVU272
 888              		.loc 4 371 3 view .LVU273
 889              	.LBB474:
 890              	.LBI474:
 891              		.loc 5 458 20 view .LVU274
 892              	.LBE474:
 893              	.LBE473:
 894              	.LBE472:
 895              	.LBE480:
 896              	.LBE488:
 897              	.LBE510:
 898              	.LBE521:
 899              	.LBE558:
 900              	.LBE744:
 901              		.loc 5 461 3 view .LVU275
 902              	.LBB745:
 903              	.LBB559:
 904              	.LBB522:
 905              	.LBB511:
 906              	.LBB489:
 907              	.LBB481:
 908              	.LBB479:
 909              	.LBB478:
 910              	.LBB477:
 911              	.LBB475:
 912              	.LBI475:
ARM GAS  C:\Users\USER\AppData\Local\Temp\ccRejSya.s 			page 17


 913              		.loc 6 544 57 view .LVU276
 914              	.LBB476:
 915              		.loc 6 546 3 view .LVU277
 916 01aa 0023     		movs	r3, #0
 917              		.syntax unified
 918              	@ 546 "src/ChibiOS_3.0.2/os/ext/CMSIS/include/core_cmFunc.h" 1
 919 01ac 83F31188 		MSR basepri, r3
 920              	@ 0 "" 2
 921              	.LVL62:
 922              		.loc 6 546 3 is_stmt 0 view .LVU278
 923              		.thumb
 924              		.syntax unified
 925 01b0 F368     		ldr	r3, [r6, #12]
 926 01b2 9F69     		ldr	r7, [r3, #24]
 927 01b4 D7F808E0 		ldr	lr, [r7, #8]
 928 01b8 A0E7     		b	.L18
 929              	.LVL63:
 930              	.L91:
 931              		.loc 6 546 3 view .LVU279
 932              	.LBE476:
 933              	.LBE475:
 934              	.LBE477:
 935              	.LBE478:
 936              	.LBE479:
 937              	.LBE481:
 938              	.LBE489:
 939              	.LBE511:
 940              	.LBE522:
 941              	.LBE559:
 942              	.LBB560:
 943              		.loc 1 1324 9 is_stmt 1 view .LVU280
 944              		.loc 1 1326 9 view .LVU281
 945              	.LBB561:
 946              	.LBI561:
 947              		.loc 3 491 20 view .LVU282
 948              	.LBE561:
 949              	.LBE560:
 950              	.LBE745:
 951              		.loc 3 493 3 view .LVU283
 952              	.LBB746:
 953              	.LBB704:
 954              	.LBB569:
 955              	.LBB562:
 956              	.LBI562:
 957              		.loc 4 346 20 view .LVU284
 958              	.LBE562:
 959              	.LBE569:
 960              	.LBE704:
 961              	.LBE746:
 962              		.loc 4 348 3 view .LVU285
 963              	.LBB747:
 964              	.LBB705:
 965              	.LBB570:
 966              	.LBB567:
 967              	.LBB563:
 968              	.LBI563:
 969              		.loc 5 444 20 view .LVU286
ARM GAS  C:\Users\USER\AppData\Local\Temp\ccRejSya.s 			page 18


 970              	.LBE563:
 971              	.LBE567:
 972              	.LBE570:
 973              	.LBE705:
 974              	.LBE747:
 975              		.loc 5 447 3 view .LVU287
 976              	.LBB748:
 977              	.LBB706:
 978              	.LBB571:
 979              	.LBB568:
 980              	.LBB566:
 981              	.LBB564:
 982              	.LBI564:
 983              		.loc 6 544 57 view .LVU288
 984              	.LBB565:
 985              		.loc 6 546 3 view .LVU289
 986 01ba 009A     		ldr	r2, [sp]
 987              		.syntax unified
 988              	@ 546 "src/ChibiOS_3.0.2/os/ext/CMSIS/include/core_cmFunc.h" 1
 989 01bc 82F31188 		MSR basepri, r2
 990              	@ 0 "" 2
 991              	.LVL64:
 992              		.loc 6 546 3 is_stmt 0 view .LVU290
 993              		.thumb
 994              		.syntax unified
 995              	.LBE565:
 996              	.LBE564:
 997              	.LBE566:
 998              	.LBE568:
 999              	.LBE571:
 1000              	.LBE706:
 1001              	.LBE748:
 1002              		.loc 4 349 34 is_stmt 1 view .LVU291
 1003              		.loc 4 350 20 view .LVU292
 1004              	.LBB749:
 1005              	.LBB707:
 1006              		.loc 1 1334 9 view .LVU293
 1007              		.loc 1 1334 23 is_stmt 0 view .LVU294
 1008 01c0 D9F80810 		ldr	r1, [r9, #8]
 1009              	.LVL65:
 1010              		.loc 1 1335 25 view .LVU295
 1011 01c4 EA6D     		ldr	r2, [r5, #92]
 1012 01c6 0298     		ldr	r0, [sp, #8]
 1013              		.loc 1 1334 23 view .LVU296
 1014 01c8 21F00101 		bic	r1, r1, #1
 1015              		.loc 1 1335 25 view .LVU297
 1016 01cc 22EA0002 		bic	r2, r2, r0
 1017              		.loc 1 1334 23 view .LVU298
 1018 01d0 C9F80810 		str	r1, [r9, #8]
 1019              		.loc 1 1335 9 is_stmt 1 view .LVU299
 1020              		.loc 1 1335 25 is_stmt 0 view .LVU300
 1021 01d4 EA65     		str	r2, [r5, #92]
 1022              		.loc 1 1336 9 is_stmt 1 view .LVU301
 1023              	.LBB572:
 1024              	.LBI572:
 1025              		.loc 3 502 20 view .LVU302
 1026              	.LBE572:
ARM GAS  C:\Users\USER\AppData\Local\Temp\ccRejSya.s 			page 19


 1027              	.LBE707:
 1028              	.LBE749:
 1029              		.loc 3 504 3 view .LVU303
 1030              	.LBB750:
 1031              	.LBB708:
 1032              	.LBB581:
 1033              	.LBB573:
 1034              	.LBI573:
 1035              		.loc 4 358 20 view .LVU304
 1036              	.LBB574:
 1037              		.loc 4 360 22 view .LVU305
 1038              		.loc 4 361 33 view .LVU306
 1039              		.loc 4 367 3 view .LVU307
 1040              		.loc 4 367 3 view .LVU308
 1041              		.loc 4 371 3 view .LVU309
 1042              	.LBB575:
 1043              	.LBI575:
 1044              		.loc 5 458 20 view .LVU310
 1045              	.LBE575:
 1046              	.LBE574:
 1047              	.LBE573:
 1048              	.LBE581:
 1049              	.LBE708:
 1050              	.LBE750:
 1051              		.loc 5 461 3 view .LVU311
 1052              	.LVL66:
 1053              	.LBB751:
 1054              	.LBB709:
 1055              	.LBB582:
 1056              	.LBB580:
 1057              	.LBB579:
 1058              	.LBB578:
 1059              	.LBB576:
 1060              	.LBI576:
 1061              		.loc 6 544 57 view .LVU312
 1062              	.LBB577:
 1063              		.loc 6 546 3 view .LVU313
 1064              		.syntax unified
 1065              	@ 546 "src/ChibiOS_3.0.2/os/ext/CMSIS/include/core_cmFunc.h" 1
 1066 01d6 83F31188 		MSR basepri, r3
 1067              	@ 0 "" 2
 1068              	.LVL67:
 1069              		.loc 6 546 3 is_stmt 0 view .LVU314
 1070              		.thumb
 1071              		.syntax unified
 1072              	.LBE577:
 1073              	.LBE576:
 1074              	.LBE578:
 1075              	.LBE579:
 1076              	.LBE580:
 1077              	.LBE582:
 1078              		.loc 1 1338 9 is_stmt 1 view .LVU315
 1079              	.LBB583:
 1080              	.LBI583:
 1081              		.loc 1 481 13 view .LVU316
 1082              	.LBE583:
 1083              	.LBE709:
ARM GAS  C:\Users\USER\AppData\Local\Temp\ccRejSya.s 			page 20


 1084              	.LBE751:
 1085              		.loc 1 484 3 view .LVU317
 1086              	.LBB752:
 1087              	.LBB710:
 1088              	.LBB651:
 1089              	.LBB584:
 1090              		.loc 1 485 5 view .LVU318
 1091              		.loc 1 488 5 view .LVU319
 1092 01da 05EB8A07 		add	r7, r5, r10, lsl #2
 1093              		.loc 1 488 18 is_stmt 0 view .LVU320
 1094 01de F968     		ldr	r1, [r7, #12]
 1095              		.loc 1 488 22 view .LVU321
 1096 01e0 4A69     		ldr	r2, [r1, #20]
 1097              		.loc 1 488 66 view .LVU322
 1098 01e2 D2E90130 		ldrd	r3, r0, [r2, #4]
 1099              		.loc 1 488 8 view .LVU323
 1100 01e6 9842     		cmp	r0, r3
 1101 01e8 80F0C080 		bcs	.L104
 1102              		.loc 1 492 5 is_stmt 1 view .LVU324
 1103              		.loc 1 498 15 is_stmt 0 view .LVU325
 1104 01ec D5F850E0 		ldr	lr, [r5, #80]
 1105              		.loc 1 493 26 view .LVU326
 1106 01f0 0C8A     		ldrh	r4, [r1, #16]
 1107              		.loc 1 498 28 view .LVU327
 1108 01f2 4FEA4A18 		lsl	r8, r10, #5
 1109 01f6 0EEB0806 		add	r6, lr, r8
 1110              		.loc 1 492 7 view .LVU328
 1111 01fa 1B1A     		subs	r3, r3, r0
 1112              	.LVL68:
 1113              		.loc 1 493 5 is_stmt 1 view .LVU329
 1114              		.loc 1 498 28 is_stmt 0 view .LVU330
 1115 01fc D6F81809 		ldr	r0, [r6, #2328]
 1116 0200 9C42     		cmp	r4, r3
 1117 0202 28BF     		it	cs
 1118 0204 1C46     		movcs	r4, r3
 1119              	.LVL69:
 1120              		.loc 1 498 5 is_stmt 1 view .LVU331
 1121              		.loc 1 498 37 is_stmt 0 view .LVU332
 1122 0206 83B2     		uxth	r3, r0
 1123              		.loc 1 498 8 view .LVU333
 1124 0208 B4EB830F 		cmp	r4, r3, lsl #2
 1125 020c 00F2A180 		bhi	.L27
 1126 0210 0AF10103 		add	r3, r10, #1
 1127 0214 0193     		str	r3, [sp, #4]
 1128 0216 1B03     		lsls	r3, r3, #12
 1129 0218 9B46     		mov	fp, r3
 1130              	.L28:
 1131              		.loc 1 505 5 is_stmt 1 view .LVU334
 1132              		.loc 1 505 8 is_stmt 0 view .LVU335
 1133 021a 1378     		ldrb	r3, [r2]	@ zero_extendqisi2
 1134 021c D068     		ldr	r0, [r2, #12]
 1135 021e 0EEB0B0C 		add	ip, lr, fp
 1136 0222 002B     		cmp	r3, #0
 1137 0224 7FD0     		beq	.L31
 1138              		.loc 1 507 7 is_stmt 1 view .LVU336
 1139              	.LVL70:
 1140              	.LBB585:
ARM GAS  C:\Users\USER\AppData\Local\Temp\ccRejSya.s 			page 21


 1141              	.LBI585:
 1142              		.loc 1 268 13 view .LVU337
 1143              	.LBB586:
 1144              		.loc 1 271 3 view .LVU338
 1145              		.loc 1 273 3 view .LVU339
 1146              		.loc 1 274 3 view .LVU340
 1147              		.loc 1 274 9 is_stmt 0 view .LVU341
 1148 0226 14B3     		cbz	r4, .L40
 1149 0228 D0F810E0 		ldr	lr, [r0, #16]
 1150              		.loc 1 274 9 view .LVU342
 1151 022c 2246     		mov	r2, r4
 1152              	.LVL71:
 1153              		.loc 1 274 9 view .LVU343
 1154 022e A246     		mov	r10, r4
 1155              	.LVL72:
 1156              	.L44:
 1157              	.LBB587:
 1158              		.loc 1 275 5 is_stmt 1 view .LVU344
 1159              		.loc 1 276 5 view .LVU345
 1160              		.loc 1 278 5 view .LVU346
 1161              		.loc 1 278 8 is_stmt 0 view .LVU347
 1162 0230 032A     		cmp	r2, #3
 1163 0232 8369     		ldr	r3, [r0, #24]
 1164 0234 5DD9     		bls	.L34
 1165              	.LBB588:
 1166              		.loc 1 279 7 is_stmt 1 view .LVU348
 1167              		.loc 1 280 7 view .LVU349
 1168              	.LVL73:
 1169              		.loc 1 282 7 view .LVU350
 1170              		.loc 1 280 53 is_stmt 0 view .LVU351
 1171 0236 BEEB0301 		subs	r1, lr, r3
 1172 023a 48BF     		it	mi
 1173 023c 0331     		addmi	r1, r1, #3
 1174              	.LBE588:
 1175              		.loc 1 276 12 view .LVU352
 1176 023e 9608     		lsrs	r6, r2, #2
 1177              	.LVL74:
 1178              	.LBB593:
 1179              		.loc 1 280 53 view .LVU353
 1180 0240 8910     		asrs	r1, r1, #2
 1181              		.loc 1 282 24 view .LVU354
 1182 0242 B142     		cmp	r1, r6
 1183 0244 28BF     		it	cs
 1184 0246 3146     		movcs	r1, r6
 1185              	.LVL75:
 1186              		.loc 1 282 54 view .LVU355
 1187 0248 8E00     		lsls	r6, r1, #2
 1188              	.LVL76:
 1189              		.loc 1 282 13 view .LVU356
 1190 024a 921B     		subs	r2, r2, r6
 1191              	.LVL77:
 1192              		.loc 1 283 7 is_stmt 1 view .LVU357
 1193              	.LBB589:
 1194              	.LBI589:
 1195              		.loc 1 231 17 view .LVU358
 1196              	.LBB590:
 1197              		.loc 1 233 3 view .LVU359
ARM GAS  C:\Users\USER\AppData\Local\Temp\ccRejSya.s 			page 22


 1198              		.loc 1 233 9 is_stmt 0 view .LVU360
 1199 024c 0029     		cmp	r1, #0
 1200 024e 7CD0     		beq	.L56
 1201 0250 1E44     		add	r6, r6, r3
 1202              	.LVL78:
 1203              	.L37:
 1204              		.loc 1 236 5 is_stmt 1 view .LVU361
 1205              		.loc 1 236 14 is_stmt 0 view .LVU362
 1206 0252 53F8041B 		ldr	r1, [r3], #4
 1207              	.LVL79:
 1208              		.loc 1 236 12 view .LVU363
 1209 0256 CCF80010 		str	r1, [ip]
 1210              		.loc 1 237 5 is_stmt 1 view .LVU364
 1211              	.LVL80:
 1212              		.loc 1 238 5 view .LVU365
 1213              		.loc 1 233 9 is_stmt 0 view .LVU366
 1214 025a B342     		cmp	r3, r6
 1215 025c F9D1     		bne	.L37
 1216              	.LVL81:
 1217              	.L36:
 1218              		.loc 1 240 3 is_stmt 1 view .LVU367
 1219              		.loc 1 240 3 is_stmt 0 view .LVU368
 1220              	.LBE590:
 1221              	.LBE589:
 1222              		.loc 1 284 10 view .LVU369
 1223 025e B645     		cmp	lr, r6
 1224              		.loc 1 283 20 view .LVU370
 1225 0260 8661     		str	r6, [r0, #24]
 1226              	.LVL82:
 1227              		.loc 1 284 7 is_stmt 1 view .LVU371
 1228              		.loc 1 284 10 is_stmt 0 view .LVU372
 1229 0262 43D8     		bhi	.L38
 1230              		.loc 1 285 9 is_stmt 1 view .LVU373
 1231              		.loc 1 285 22 is_stmt 0 view .LVU374
 1232 0264 C368     		ldr	r3, [r0, #12]
 1233 0266 8361     		str	r3, [r0, #24]
 1234              		.loc 1 286 9 is_stmt 1 view .LVU375
 1235              		.loc 1 286 9 is_stmt 0 view .LVU376
 1236              	.LBE593:
 1237              	.LBE587:
 1238              		.loc 1 274 9 view .LVU377
 1239 0268 002A     		cmp	r2, #0
 1240 026a E1D1     		bne	.L44
 1241              	.L95:
 1242              		.loc 1 274 9 view .LVU378
 1243 026c 5446     		mov	r4, r10
 1244              	.LVL83:
 1245              	.L40:
 1246              		.loc 1 309 3 is_stmt 1 view .LVU379
 1247              	.LBB595:
 1248              	.LBI595:
 1249              		.loc 3 491 20 view .LVU380
 1250              	.LBE595:
 1251              	.LBE586:
 1252              	.LBE585:
 1253              	.LBE584:
 1254              	.LBE651:
ARM GAS  C:\Users\USER\AppData\Local\Temp\ccRejSya.s 			page 23


 1255              	.LBE710:
 1256              	.LBE752:
 1257              		.loc 3 493 3 view .LVU381
 1258              	.LBB753:
 1259              	.LBB711:
 1260              	.LBB652:
 1261              	.LBB643:
 1262              	.LBB631:
 1263              	.LBB623:
 1264              	.LBB603:
 1265              	.LBB596:
 1266              	.LBI596:
 1267              		.loc 4 346 20 view .LVU382
 1268              	.LBE596:
 1269              	.LBE603:
 1270              	.LBE623:
 1271              	.LBE631:
 1272              	.LBE643:
 1273              	.LBE652:
 1274              	.LBE711:
 1275              	.LBE753:
 1276              		.loc 4 348 3 view .LVU383
 1277              	.LBB754:
 1278              	.LBB712:
 1279              	.LBB653:
 1280              	.LBB644:
 1281              	.LBB632:
 1282              	.LBB624:
 1283              	.LBB604:
 1284              	.LBB601:
 1285              	.LBB597:
 1286              	.LBI597:
 1287              		.loc 5 444 20 view .LVU384
 1288              	.LBE597:
 1289              	.LBE601:
 1290              	.LBE604:
 1291              	.LBE624:
 1292              	.LBE632:
 1293              	.LBE644:
 1294              	.LBE653:
 1295              	.LBE712:
 1296              	.LBE754:
 1297              		.loc 5 447 3 view .LVU385
 1298              	.LBB755:
 1299              	.LBB713:
 1300              	.LBB654:
 1301              	.LBB645:
 1302              	.LBB633:
 1303              	.LBB625:
 1304              	.LBB605:
 1305              	.LBB602:
 1306              	.LBB600:
 1307              	.LBB598:
 1308              	.LBI598:
 1309              		.loc 6 544 57 view .LVU386
 1310              	.LBB599:
 1311              		.loc 6 546 3 view .LVU387
ARM GAS  C:\Users\USER\AppData\Local\Temp\ccRejSya.s 			page 24


 1312 026e 009B     		ldr	r3, [sp]
 1313              		.syntax unified
 1314              	@ 546 "src/ChibiOS_3.0.2/os/ext/CMSIS/include/core_cmFunc.h" 1
 1315 0270 83F31188 		MSR basepri, r3
 1316              	@ 0 "" 2
 1317              	.LVL84:
 1318              		.loc 6 546 3 is_stmt 0 view .LVU388
 1319              		.thumb
 1320              		.syntax unified
 1321              	.LBE599:
 1322              	.LBE598:
 1323              	.LBE600:
 1324              	.LBE602:
 1325              	.LBE605:
 1326              	.LBE625:
 1327              	.LBE633:
 1328              	.LBE645:
 1329              	.LBE654:
 1330              	.LBE713:
 1331              	.LBE755:
 1332              		.loc 4 349 34 is_stmt 1 view .LVU389
 1333              		.loc 4 350 20 view .LVU390
 1334              	.LBB756:
 1335              	.LBB714:
 1336              	.LBB655:
 1337              	.LBB646:
 1338              	.LBB634:
 1339              	.LBB626:
 1340              		.loc 1 310 3 view .LVU391
 1341              		.loc 1 310 18 is_stmt 0 view .LVU392
 1342 0274 8368     		ldr	r3, [r0, #8]
 1343 0276 2344     		add	r3, r3, r4
 1344 0278 8360     		str	r3, [r0, #8]
 1345              		.loc 1 311 3 is_stmt 1 view .LVU393
 1346              	.LVL85:
 1347              	.LBB606:
 1348              	.LBI606:
 1349              		.loc 3 808 20 view .LVU394
 1350              	.LBB607:
 1351              		.loc 3 810 3 view .LVU395
 1352 027a 0021     		movs	r1, #0
 1353 027c FFF7FEFF 		bl	chThdDequeueAllI
 1354              	.LVL86:
 1355              		.loc 3 810 3 is_stmt 0 view .LVU396
 1356              	.LBE607:
 1357              	.LBE606:
 1358              		.loc 1 312 3 is_stmt 1 view .LVU397
 1359              	.LBB608:
 1360              	.LBI608:
 1361              		.loc 3 598 20 view .LVU398
 1362              	.LBB609:
 1363              		.loc 3 600 3 view .LVU399
 1364 0280 FFF7FEFF 		bl	chSchRescheduleS
 1365              	.LVL87:
 1366              	.LBE609:
 1367              	.LBE608:
 1368              		.loc 1 313 3 view .LVU400
ARM GAS  C:\Users\USER\AppData\Local\Temp\ccRejSya.s 			page 25


 1369              	.LBB610:
 1370              	.LBI610:
 1371              		.loc 3 502 20 view .LVU401
 1372              	.LBE610:
 1373              	.LBE626:
 1374              	.LBE634:
 1375              	.LBE646:
 1376              	.LBE655:
 1377              	.LBE714:
 1378              	.LBE756:
 1379              		.loc 3 504 3 view .LVU402
 1380              	.LBB757:
 1381              	.LBB715:
 1382              	.LBB656:
 1383              	.LBB647:
 1384              	.LBB635:
 1385              	.LBB627:
 1386              	.LBB619:
 1387              	.LBB611:
 1388              	.LBI611:
 1389              		.loc 4 358 20 view .LVU403
 1390              	.LBB612:
 1391              		.loc 4 360 22 view .LVU404
 1392              		.loc 4 361 33 view .LVU405
 1393              		.loc 4 367 3 view .LVU406
 1394              		.loc 4 367 3 view .LVU407
 1395              		.loc 4 371 3 view .LVU408
 1396              	.LBB613:
 1397              	.LBI613:
 1398              		.loc 5 458 20 view .LVU409
 1399              	.LBE613:
 1400              	.LBE612:
 1401              	.LBE611:
 1402              	.LBE619:
 1403              	.LBE627:
 1404              	.LBE635:
 1405              	.LBE647:
 1406              	.LBE656:
 1407              	.LBE715:
 1408              	.LBE757:
 1409              		.loc 5 461 3 view .LVU410
 1410              	.LBB758:
 1411              	.LBB716:
 1412              	.LBB657:
 1413              	.LBB648:
 1414              	.LBB636:
 1415              	.LBB628:
 1416              	.LBB620:
 1417              	.LBB618:
 1418              	.LBB617:
 1419              	.LBB616:
 1420              	.LBB614:
 1421              	.LBI614:
 1422              		.loc 6 544 57 view .LVU411
 1423              	.LBB615:
 1424              		.loc 6 546 3 view .LVU412
 1425 0284 0023     		movs	r3, #0
ARM GAS  C:\Users\USER\AppData\Local\Temp\ccRejSya.s 			page 26


 1426              		.syntax unified
 1427              	@ 546 "src/ChibiOS_3.0.2/os/ext/CMSIS/include/core_cmFunc.h" 1
 1428 0286 83F31188 		MSR basepri, r3
 1429              	@ 0 "" 2
 1430              	.LVL88:
 1431              		.loc 6 546 3 is_stmt 0 view .LVU413
 1432              		.thumb
 1433              		.syntax unified
 1434 028a F968     		ldr	r1, [r7, #12]
 1435              	.LVL89:
 1436              	.L33:
 1437              		.loc 6 546 3 view .LVU414
 1438              	.LBE615:
 1439              	.LBE614:
 1440              	.LBE616:
 1441              	.LBE617:
 1442              	.LBE618:
 1443              	.LBE620:
 1444              	.LBE628:
 1445              	.LBE636:
 1446              		.loc 1 521 5 is_stmt 1 view .LVU415
 1447              		.loc 1 521 18 is_stmt 0 view .LVU416
 1448 028c 4A69     		ldr	r2, [r1, #20]
 1449              		.loc 1 488 66 view .LVU417
 1450 028e D2E90103 		ldrd	r0, r3, [r2, #4]
 1451              		.loc 1 521 36 view .LVU418
 1452 0292 1C44     		add	r4, r4, r3
 1453              	.LVL90:
 1454              		.loc 1 488 8 view .LVU419
 1455 0294 A042     		cmp	r0, r4
 1456              		.loc 1 521 36 view .LVU420
 1457 0296 9460     		str	r4, [r2, #8]
 1458              	.LBE648:
 1459              	.LBE657:
 1460              	.LBE716:
 1461              	.LBE758:
 1462              		.loc 1 484 3 is_stmt 1 view .LVU421
 1463              	.LBB759:
 1464              	.LBB717:
 1465              	.LBB658:
 1466              	.LBB649:
 1467              		.loc 1 485 5 view .LVU422
 1468              		.loc 1 488 5 view .LVU423
 1469              		.loc 1 488 8 is_stmt 0 view .LVU424
 1470 0298 59D9     		bls	.L105
 1471              		.loc 1 492 5 is_stmt 1 view .LVU425
 1472              		.loc 1 498 15 is_stmt 0 view .LVU426
 1473 029a D5F850E0 		ldr	lr, [r5, #80]
 1474              		.loc 1 493 26 view .LVU427
 1475 029e B1F810C0 		ldrh	ip, [r1, #16]
 1476              		.loc 1 498 28 view .LVU428
 1477 02a2 0EEB080A 		add	r10, lr, r8
 1478              		.loc 1 492 7 view .LVU429
 1479 02a6 041B     		subs	r4, r0, r4
 1480              	.LVL91:
 1481              		.loc 1 493 5 is_stmt 1 view .LVU430
 1482              		.loc 1 498 28 is_stmt 0 view .LVU431
ARM GAS  C:\Users\USER\AppData\Local\Temp\ccRejSya.s 			page 27


 1483 02a8 DAF81839 		ldr	r3, [r10, #2328]
 1484 02ac 6445     		cmp	r4, ip
 1485 02ae 28BF     		it	cs
 1486 02b0 6446     		movcs	r4, ip
 1487              	.LVL92:
 1488              		.loc 1 498 5 is_stmt 1 view .LVU432
 1489              		.loc 1 498 37 is_stmt 0 view .LVU433
 1490 02b2 9BB2     		uxth	r3, r3
 1491              		.loc 1 498 8 view .LVU434
 1492 02b4 B4EB830F 		cmp	r4, r3, lsl #2
 1493 02b8 AFD9     		bls	.L28
 1494              		.loc 1 499 14 view .LVU435
 1495 02ba 0022     		movs	r2, #0
 1496              	.LVL93:
 1497              	.L30:
 1498              		.loc 1 499 14 view .LVU436
 1499              	.LBE649:
 1500              	.LBE658:
 1501              		.loc 1 1340 9 is_stmt 1 view .LVU437
 1502              	.LBB659:
 1503              	.LBI659:
 1504              		.loc 3 491 20 view .LVU438
 1505              	.LBE659:
 1506              	.LBE717:
 1507              	.LBE759:
 1508              		.loc 3 493 3 view .LVU439
 1509              	.LBB760:
 1510              	.LBB718:
 1511              	.LBB681:
 1512              	.LBB660:
 1513              	.LBI660:
 1514              		.loc 4 346 20 view .LVU440
 1515              	.LBE660:
 1516              	.LBE681:
 1517              	.LBE718:
 1518              	.LBE760:
 1519              		.loc 4 348 3 view .LVU441
 1520              	.LBB761:
 1521              	.LBB719:
 1522              	.LBB682:
 1523              	.LBB673:
 1524              	.LBB661:
 1525              	.LBI661:
 1526              		.loc 5 444 20 view .LVU442
 1527              	.LBE661:
 1528              	.LBE673:
 1529              	.LBE682:
 1530              	.LBE719:
 1531              	.LBE761:
 1532              		.loc 5 447 3 view .LVU443
 1533              	.LBB762:
 1534              	.LBB720:
 1535              	.LBB683:
 1536              	.LBB674:
 1537              	.LBB668:
 1538              	.LBB662:
 1539              	.LBI662:
ARM GAS  C:\Users\USER\AppData\Local\Temp\ccRejSya.s 			page 28


 1540              		.loc 6 544 57 view .LVU444
 1541              	.LBB663:
 1542              		.loc 6 546 3 view .LVU445
 1543 02bc 009B     		ldr	r3, [sp]
 1544              		.syntax unified
 1545              	@ 546 "src/ChibiOS_3.0.2/os/ext/CMSIS/include/core_cmFunc.h" 1
 1546 02be 83F31188 		MSR basepri, r3
 1547              	@ 0 "" 2
 1548              	.LVL94:
 1549              		.loc 6 546 3 is_stmt 0 view .LVU446
 1550              		.thumb
 1551              		.syntax unified
 1552              	.LBE663:
 1553              	.LBE662:
 1554              	.LBE668:
 1555              	.LBE674:
 1556              	.LBE683:
 1557              	.LBE720:
 1558              	.LBE762:
 1559              		.loc 4 349 34 is_stmt 1 view .LVU447
 1560              		.loc 4 350 20 view .LVU448
 1561              	.LBB763:
 1562              	.LBB721:
 1563              		.loc 1 1341 9 view .LVU449
 1564              		.loc 1 1341 23 is_stmt 0 view .LVU450
 1565 02c2 D9F80830 		ldr	r3, [r9, #8]
 1566 02c6 43F00103 		orr	r3, r3, #1
 1567 02ca C9F80830 		str	r3, [r9, #8]
 1568              		.loc 1 1342 9 is_stmt 1 view .LVU451
 1569              		.loc 1 1342 12 is_stmt 0 view .LVU452
 1570 02ce 2AB9     		cbnz	r2, .L26
 1571              	.LVL95:
 1572              	.L29:
 1573              		.loc 1 1343 11 is_stmt 1 view .LVU453
 1574              		.loc 1 1343 28 is_stmt 0 view .LVU454
 1575 02d0 D9F83438 		ldr	r3, [r9, #2100]
 1576 02d4 029A     		ldr	r2, [sp, #8]
 1577 02d6 1343     		orrs	r3, r3, r2
 1578 02d8 C9F83438 		str	r3, [r9, #2100]
 1579              	.L26:
 1580              		.loc 1 1344 9 is_stmt 1 view .LVU455
 1581              	.LBB684:
 1582              	.LBI684:
 1583              		.loc 3 502 20 view .LVU456
 1584              	.LBE684:
 1585              	.LBE721:
 1586              	.LBE763:
 1587              		.loc 3 504 3 view .LVU457
 1588              	.LBB764:
 1589              	.LBB722:
 1590              	.LBB693:
 1591              	.LBB685:
 1592              	.LBI685:
 1593              		.loc 4 358 20 view .LVU458
 1594              	.LBB686:
 1595              		.loc 4 360 22 view .LVU459
 1596              		.loc 4 361 33 view .LVU460
ARM GAS  C:\Users\USER\AppData\Local\Temp\ccRejSya.s 			page 29


 1597              		.loc 4 367 3 view .LVU461
 1598              		.loc 4 367 3 view .LVU462
 1599              		.loc 4 371 3 view .LVU463
 1600              	.LBB687:
 1601              	.LBI687:
 1602              		.loc 5 458 20 view .LVU464
 1603              	.LBE687:
 1604              	.LBE686:
 1605              	.LBE685:
 1606              	.LBE693:
 1607              	.LBE722:
 1608              	.LBE764:
 1609              		.loc 5 461 3 view .LVU465
 1610              	.LVL96:
 1611              	.LBB765:
 1612              	.LBB723:
 1613              	.LBB694:
 1614              	.LBB692:
 1615              	.LBB691:
 1616              	.LBB690:
 1617              	.LBB688:
 1618              	.LBI688:
 1619              		.loc 6 544 57 view .LVU466
 1620              	.LBB689:
 1621              		.loc 6 546 3 view .LVU467
 1622 02dc 0023     		movs	r3, #0
 1623              		.syntax unified
 1624              	@ 546 "src/ChibiOS_3.0.2/os/ext/CMSIS/include/core_cmFunc.h" 1
 1625 02de 83F31188 		MSR basepri, r3
 1626              	@ 0 "" 2
 1627              	.LVL97:
 1628              		.loc 6 546 3 is_stmt 0 view .LVU468
 1629              		.thumb
 1630              		.syntax unified
 1631 02e2 1CE7     		b	.L24
 1632              	.L107:
 1633              		.align	2
 1634              	.L106:
 1635 02e4 00000000 		.word	ch
 1636 02e8 00000000 		.word	.LC0
 1637              	.LVL98:
 1638              	.L38:
 1639              		.loc 6 546 3 view .LVU469
 1640              	.LBE689:
 1641              	.LBE688:
 1642              	.LBE690:
 1643              	.LBE691:
 1644              	.LBE692:
 1645              	.LBE694:
 1646              	.LBB695:
 1647              	.LBB650:
 1648              	.LBB637:
 1649              	.LBB629:
 1650              	.LBB621:
 1651              		.loc 1 292 5 is_stmt 1 view .LVU470
 1652              		.loc 1 292 8 is_stmt 0 view .LVU471
 1653 02ec 002A     		cmp	r2, #0
ARM GAS  C:\Users\USER\AppData\Local\Temp\ccRejSya.s 			page 30


 1654 02ee BDD0     		beq	.L95
 1655 02f0 3346     		mov	r3, r6
 1656              	.L34:
 1657              		.loc 1 292 8 view .LVU472
 1658 02f2 0021     		movs	r1, #0
 1659 02f4 0E46     		mov	r6, r1
 1660              	.L43:
 1661              	.LVL99:
 1662              		.loc 1 299 7 is_stmt 1 view .LVU473
 1663              		.loc 1 301 9 view .LVU474
 1664              		.loc 1 302 7 view .LVU475
 1665              		.loc 1 303 7 view .LVU476
 1666              		.loc 1 299 35 is_stmt 0 view .LVU477
 1667 02f6 5C1C     		adds	r4, r3, #1
 1668 02f8 8461     		str	r4, [r0, #24]
 1669              		.loc 1 299 12 view .LVU478
 1670 02fa 1B78     		ldrb	r3, [r3]	@ zero_extendqisi2
 1671              		.loc 1 300 10 view .LVU479
 1672 02fc A645     		cmp	lr, r4
 1673              		.loc 1 299 38 view .LVU480
 1674 02fe 03FA01F3 		lsl	r3, r3, r1
 1675              		.loc 1 299 9 view .LVU481
 1676 0302 46EA0306 		orr	r6, r6, r3
 1677              	.LVL100:
 1678              		.loc 1 301 22 view .LVU482
 1679 0306 9CBF     		itt	ls
 1680 0308 C368     		ldrls	r3, [r0, #12]
 1681 030a 8361     		strls	r3, [r0, #24]
 1682              		.loc 1 298 11 view .LVU483
 1683 030c 013A     		subs	r2, r2, #1
 1684              	.LVL101:
 1685              		.loc 1 299 9 view .LVU484
 1686 030e 01F10801 		add	r1, r1, #8
 1687              	.LVL102:
 1688              		.loc 1 300 7 is_stmt 1 view .LVU485
 1689              		.loc 1 298 11 is_stmt 0 view .LVU486
 1690 0312 03D0     		beq	.L42
 1691              		.loc 1 298 24 view .LVU487
 1692 0314 2029     		cmp	r1, #32
 1693 0316 01D0     		beq	.L42
 1694 0318 8369     		ldr	r3, [r0, #24]
 1695 031a ECE7     		b	.L43
 1696              	.L42:
 1697              		.loc 1 305 5 is_stmt 1 view .LVU488
 1698              		.loc 1 305 12 is_stmt 0 view .LVU489
 1699 031c CCF80060 		str	r6, [ip]
 1700              		.loc 1 305 12 view .LVU490
 1701              	.LBE621:
 1702              		.loc 1 274 9 view .LVU491
 1703 0320 002A     		cmp	r2, #0
 1704 0322 85D1     		bne	.L44
 1705              		.loc 1 274 9 view .LVU492
 1706 0324 A2E7     		b	.L95
 1707              	.LVL103:
 1708              	.L31:
 1709              		.loc 1 274 9 view .LVU493
 1710              	.LBE629:
ARM GAS  C:\Users\USER\AppData\Local\Temp\ccRejSya.s 			page 31


 1711              	.LBE637:
 1712              		.loc 1 513 7 is_stmt 1 view .LVU494
 1713              	.LBB638:
 1714              	.LBI638:
 1715              		.loc 1 252 13 view .LVU495
 1716              	.LBB639:
 1717              		.loc 1 256 3 view .LVU496
 1718              		.loc 1 256 41 is_stmt 0 view .LVU497
 1719 0326 04F1030E 		add	lr, r4, #3
 1720              	.LVL104:
 1721              	.LBB640:
 1722              	.LBI640:
 1723              		.loc 1 231 17 is_stmt 1 view .LVU498
 1724              	.LBB641:
 1725              		.loc 1 233 3 view .LVU499
 1726              		.loc 1 233 9 is_stmt 0 view .LVU500
 1727 032a 5FEA9E0E 		lsrs	lr, lr, #2
 1728              	.LVL105:
 1729              		.loc 1 233 9 view .LVU501
 1730 032e 09D0     		beq	.L47
 1731 0330 00EB8E0E 		add	lr, r0, lr, lsl #2
 1732              	.LVL106:
 1733              		.loc 1 233 9 view .LVU502
 1734 0334 0346     		mov	r3, r0
 1735              	.LVL107:
 1736              	.L46:
 1737              		.loc 1 236 5 is_stmt 1 view .LVU503
 1738              		.loc 1 236 14 is_stmt 0 view .LVU504
 1739 0336 53F8041B 		ldr	r1, [r3], #4
 1740              	.LVL108:
 1741              		.loc 1 236 12 view .LVU505
 1742 033a CCF80010 		str	r1, [ip]
 1743              		.loc 1 237 5 is_stmt 1 view .LVU506
 1744              	.LVL109:
 1745              		.loc 1 238 5 view .LVU507
 1746              		.loc 1 233 9 is_stmt 0 view .LVU508
 1747 033e 7345     		cmp	r3, lr
 1748 0340 F9D1     		bne	.L46
 1749 0342 F968     		ldr	r1, [r7, #12]
 1750              	.LVL110:
 1751              	.L47:
 1752              		.loc 1 240 3 is_stmt 1 view .LVU509
 1753              		.loc 1 240 3 is_stmt 0 view .LVU510
 1754              	.LBE641:
 1755              	.LBE640:
 1756              	.LBE639:
 1757              	.LBE638:
 1758              		.loc 1 516 7 is_stmt 1 view .LVU511
 1759              		.loc 1 516 50 is_stmt 0 view .LVU512
 1760 0344 2044     		add	r0, r0, r4
 1761 0346 D060     		str	r0, [r2, #12]
 1762 0348 A0E7     		b	.L33
 1763              	.LVL111:
 1764              	.L56:
 1765              	.LBB642:
 1766              	.LBB630:
 1767              	.LBB622:
ARM GAS  C:\Users\USER\AppData\Local\Temp\ccRejSya.s 			page 32


 1768              	.LBB594:
 1769              	.LBB592:
 1770              	.LBB591:
 1771              		.loc 1 233 9 view .LVU513
 1772 034a 1E46     		mov	r6, r3
 1773 034c 87E7     		b	.L36
 1774              	.LVL112:
 1775              	.L105:
 1776              		.loc 1 233 9 view .LVU514
 1777              	.LBE591:
 1778              	.LBE592:
 1779              	.LBE594:
 1780              	.LBE622:
 1781              	.LBE630:
 1782              	.LBE642:
 1783              		.loc 1 489 14 view .LVU515
 1784 034e 0122     		movs	r2, #1
 1785 0350 B4E7     		b	.L30
 1786              	.LVL113:
 1787              	.L27:
 1788              		.loc 1 489 14 view .LVU516
 1789              	.LBE650:
 1790              	.LBE695:
 1791              		.loc 1 1340 9 is_stmt 1 view .LVU517
 1792              	.LBB696:
 1793              		.loc 3 491 20 view .LVU518
 1794              	.LBE696:
 1795              	.LBE723:
 1796              	.LBE765:
 1797              		.loc 3 493 3 view .LVU519
 1798              	.LBB766:
 1799              	.LBB724:
 1800              	.LBB697:
 1801              	.LBB675:
 1802              		.loc 4 346 20 view .LVU520
 1803              	.LBE675:
 1804              	.LBE697:
 1805              	.LBE724:
 1806              	.LBE766:
 1807              		.loc 4 348 3 view .LVU521
 1808              	.LBB767:
 1809              	.LBB725:
 1810              	.LBB698:
 1811              	.LBB676:
 1812              	.LBB669:
 1813              		.loc 5 444 20 view .LVU522
 1814              	.LBE669:
 1815              	.LBE676:
 1816              	.LBE698:
 1817              	.LBE725:
 1818              	.LBE767:
 1819              		.loc 5 447 3 view .LVU523
 1820              	.LBB768:
 1821              	.LBB726:
 1822              	.LBB699:
 1823              	.LBB677:
 1824              	.LBB670:
ARM GAS  C:\Users\USER\AppData\Local\Temp\ccRejSya.s 			page 33


 1825              	.LBB666:
 1826              		.loc 6 544 57 view .LVU524
 1827              	.LBB664:
 1828              		.loc 6 546 3 view .LVU525
 1829 0352 009B     		ldr	r3, [sp]
 1830              		.syntax unified
 1831              	@ 546 "src/ChibiOS_3.0.2/os/ext/CMSIS/include/core_cmFunc.h" 1
 1832 0354 83F31188 		MSR basepri, r3
 1833              	@ 0 "" 2
 1834              	.LVL114:
 1835              		.loc 6 546 3 is_stmt 0 view .LVU526
 1836              		.thumb
 1837              		.syntax unified
 1838              	.LBE664:
 1839              	.LBE666:
 1840              	.LBE670:
 1841              	.LBE677:
 1842              	.LBE699:
 1843              	.LBE726:
 1844              	.LBE768:
 1845              		.loc 4 349 34 is_stmt 1 view .LVU527
 1846              		.loc 4 350 20 view .LVU528
 1847              	.LBB769:
 1848              	.LBB727:
 1849              		.loc 1 1341 9 view .LVU529
 1850              		.loc 1 1341 23 is_stmt 0 view .LVU530
 1851 0358 D9F80830 		ldr	r3, [r9, #8]
 1852 035c 0AF10102 		add	r2, r10, #1
 1853 0360 43F00103 		orr	r3, r3, #1
 1854 0364 0192     		str	r2, [sp, #4]
 1855 0366 C9F80830 		str	r3, [r9, #8]
 1856              		.loc 1 1342 9 is_stmt 1 view .LVU531
 1857 036a B1E7     		b	.L29
 1858              	.LVL115:
 1859              	.L104:
 1860              		.loc 1 1340 9 view .LVU532
 1861              	.LBB700:
 1862              		.loc 3 491 20 view .LVU533
 1863              	.LBE700:
 1864              	.LBE727:
 1865              	.LBE769:
 1866              		.loc 3 493 3 view .LVU534
 1867              	.LBB770:
 1868              	.LBB728:
 1869              	.LBB701:
 1870              	.LBB678:
 1871              		.loc 4 346 20 view .LVU535
 1872              	.LBE678:
 1873              	.LBE701:
 1874              	.LBE728:
 1875              	.LBE770:
 1876              		.loc 4 348 3 view .LVU536
 1877              	.LBB771:
 1878              	.LBB729:
 1879              	.LBB702:
 1880              	.LBB679:
 1881              	.LBB671:
ARM GAS  C:\Users\USER\AppData\Local\Temp\ccRejSya.s 			page 34


 1882              		.loc 5 444 20 view .LVU537
 1883              	.LBE671:
 1884              	.LBE679:
 1885              	.LBE702:
 1886              	.LBE729:
 1887              	.LBE771:
 1888              		.loc 5 447 3 view .LVU538
 1889              	.LBB772:
 1890              	.LBB730:
 1891              	.LBB703:
 1892              	.LBB680:
 1893              	.LBB672:
 1894              	.LBB667:
 1895              		.loc 6 544 57 view .LVU539
 1896              	.LBB665:
 1897              		.loc 6 546 3 view .LVU540
 1898 036c 009B     		ldr	r3, [sp]
 1899              		.syntax unified
 1900              	@ 546 "src/ChibiOS_3.0.2/os/ext/CMSIS/include/core_cmFunc.h" 1
 1901 036e 83F31188 		MSR basepri, r3
 1902              	@ 0 "" 2
 1903              	.LVL116:
 1904              		.loc 6 546 3 is_stmt 0 view .LVU541
 1905              		.thumb
 1906              		.syntax unified
 1907              	.LBE665:
 1908              	.LBE667:
 1909              	.LBE672:
 1910              	.LBE680:
 1911              	.LBE703:
 1912              	.LBE730:
 1913              	.LBE772:
 1914              		.loc 4 349 34 is_stmt 1 view .LVU542
 1915              		.loc 4 350 20 view .LVU543
 1916              	.LBB773:
 1917              	.LBB731:
 1918              		.loc 1 1341 9 view .LVU544
 1919              		.loc 1 1341 23 is_stmt 0 view .LVU545
 1920 0372 D9F80830 		ldr	r3, [r9, #8]
 1921 0376 0AF10102 		add	r2, r10, #1
 1922 037a 43F00103 		orr	r3, r3, #1
 1923 037e 0192     		str	r2, [sp, #4]
 1924 0380 C9F80830 		str	r3, [r9, #8]
 1925              		.loc 1 1342 9 is_stmt 1 view .LVU546
 1926 0384 AAE7     		b	.L26
 1927              	.LBE731:
 1928              	.LBE773:
 1929              		.cfi_endproc
 1930              	.LFE292:
 1931              		.size	usb_lld_pump, .-usb_lld_pump
 1932 0386 00BF     		.section	.text.otg_disable_ep.isra.0,"ax",%progbits
 1933              		.align	1
 1934              		.p2align 4,,15
 1935              		.syntax unified
 1936              		.thumb
 1937              		.thumb_func
 1938              		.fpu fpv4-sp-d16
ARM GAS  C:\Users\USER\AppData\Local\Temp\ccRejSya.s 			page 35


 1939              		.type	otg_disable_ep.isra.0, %function
 1940              	otg_disable_ep.isra.0:
 1941              	.LFB293:
 1942              		.loc 1 132 13 view -0
 1943              		.cfi_startproc
 1944              		@ args = 0, pretend = 0, frame = 0
 1945              		@ frame_needed = 0, uses_anonymous_args = 0
 1946              	.LVL117:
 1947              		.loc 1 132 13 is_stmt 0 view .LVU548
 1948 0000 F0B5     		push	{r4, r5, r6, r7, lr}
 1949              		.cfi_def_cfa_offset 20
 1950              		.cfi_offset 4, -20
 1951              		.cfi_offset 5, -16
 1952              		.cfi_offset 6, -12
 1953              		.cfi_offset 7, -8
 1954              		.cfi_offset 14, -4
 1955              		.loc 1 136 10 view .LVU549
 1956 0002 0024     		movs	r4, #0
 1957 0004 D1F808C0 		ldr	ip, [r1, #8]
 1958              		.loc 1 147 27 view .LVU550
 1959 0008 2546     		mov	r5, r4
 1960              		.loc 1 141 27 view .LVU551
 1961 000a 4FF0804E 		mov	lr, #1073741824
 1962              		.loc 1 149 25 view .LVU552
 1963 000e 4FF0FF36 		mov	r6, #-1
 1964 0012 14E0     		b	.L115
 1965              	.LVL118:
 1966              	.L109:
 1967              		.loc 1 147 7 is_stmt 1 view .LVU553
 1968              		.loc 1 147 27 is_stmt 0 view .LVU554
 1969 0014 C1F80059 		str	r5, [r1, #2304]
 1970              	.L111:
 1971              		.loc 1 148 5 is_stmt 1 view .LVU555
 1972              		.loc 1 148 26 is_stmt 0 view .LVU556
 1973 0018 C218     		adds	r2, r0, r3
 1974 001a C2F81059 		str	r5, [r2, #2320]
 1975              		.loc 1 149 5 is_stmt 1 view .LVU557
 1976              		.loc 1 149 25 is_stmt 0 view .LVU558
 1977 001e C2F80869 		str	r6, [r2, #2312]
 1978              		.loc 1 155 5 is_stmt 1 view .LVU559
 1979              		.loc 1 155 21 is_stmt 0 view .LVU560
 1980 0022 D1F8007B 		ldr	r7, [r1, #2816]
 1981              		.loc 1 155 8 view .LVU561
 1982 0026 002F     		cmp	r7, #0
 1983 0028 17DB     		blt	.L122
 1984              		.loc 1 162 7 is_stmt 1 view .LVU562
 1985              		.loc 1 162 27 is_stmt 0 view .LVU563
 1986 002a C1F8005B 		str	r5, [r1, #2816]
 1987              	.L114:
 1988              		.loc 1 163 5 is_stmt 1 view .LVU564
 1989              		.loc 1 163 26 is_stmt 0 view .LVU565
 1990 002e 0344     		add	r3, r3, r0
 1991              		.loc 1 136 53 view .LVU566
 1992 0030 0134     		adds	r4, r4, #1
 1993              	.LVL119:
 1994              		.loc 1 136 3 view .LVU567
 1995 0032 6445     		cmp	r4, ip
ARM GAS  C:\Users\USER\AppData\Local\Temp\ccRejSya.s 			page 36


 1996              		.loc 1 163 26 view .LVU568
 1997 0034 C3F8105B 		str	r5, [r3, #2832]
 1998              		.loc 1 164 5 is_stmt 1 view .LVU569
 1999              	.LVL120:
 2000              		.loc 1 164 25 is_stmt 0 view .LVU570
 2001 0038 C3F8086B 		str	r6, [r3, #2824]
 2002              		.loc 1 136 3 view .LVU571
 2003 003c 14D8     		bhi	.L123
 2004              	.LVL121:
 2005              	.L115:
 2006              		.loc 1 140 5 is_stmt 1 view .LVU572
 2007 003e 6301     		lsls	r3, r4, #5
 2008 0040 C118     		adds	r1, r0, r3
 2009              		.loc 1 140 21 is_stmt 0 view .LVU573
 2010 0042 D1F80029 		ldr	r2, [r1, #2304]
 2011              		.loc 1 140 8 view .LVU574
 2012 0046 002A     		cmp	r2, #0
 2013 0048 E4DA     		bge	.L109
 2014              		.loc 1 141 7 is_stmt 1 view .LVU575
 2015              		.loc 1 141 27 is_stmt 0 view .LVU576
 2016 004a C1F800E9 		str	lr, [r1, #2304]
 2017              		.loc 1 143 7 is_stmt 1 view .LVU577
 2018              		.loc 1 143 27 is_stmt 0 view .LVU578
 2019 004e 0F46     		mov	r7, r1
 2020              	.L110:
 2021              		.loc 1 144 9 is_stmt 1 view .LVU579
 2022              		.loc 1 143 27 is_stmt 0 view .LVU580
 2023 0050 D7F80829 		ldr	r2, [r7, #2312]
 2024              		.loc 1 143 13 view .LVU581
 2025 0054 9207     		lsls	r2, r2, #30
 2026 0056 FBD5     		bpl	.L110
 2027 0058 DEE7     		b	.L111
 2028              	.L122:
 2029              		.loc 1 156 7 is_stmt 1 view .LVU582
 2030              		.loc 1 156 27 is_stmt 0 view .LVU583
 2031 005a C1F800EB 		str	lr, [r1, #2816]
 2032              		.loc 1 158 7 is_stmt 1 view .LVU584
 2033              	.L113:
 2034              		.loc 1 159 9 view .LVU585
 2035              		.loc 1 158 27 is_stmt 0 view .LVU586
 2036 005e D2F8081B 		ldr	r1, [r2, #2824]
 2037              		.loc 1 158 13 view .LVU587
 2038 0062 C906     		lsls	r1, r1, #27
 2039 0064 FBD5     		bpl	.L113
 2040 0066 E2E7     		b	.L114
 2041              	.L123:
 2042              		.loc 1 166 3 is_stmt 1 view .LVU588
 2043              		.loc 1 166 18 is_stmt 0 view .LVU589
 2044 0068 4FF00113 		mov	r3, #65537
 2045 006c C0F81C38 		str	r3, [r0, #2076]
 2046              		.loc 1 167 1 view .LVU590
 2047 0070 F0BD     		pop	{r4, r5, r6, r7, pc}
 2048              		.loc 1 167 1 view .LVU591
 2049              		.cfi_endproc
 2050              	.LFE293:
 2051              		.size	otg_disable_ep.isra.0, .-otg_disable_ep.isra.0
 2052 0072 00BF     		.section	.text.usb_lld_init,"ax",%progbits
ARM GAS  C:\Users\USER\AppData\Local\Temp\ccRejSya.s 			page 37


 2053              		.align	1
 2054              		.p2align 4,,15
 2055              		.global	usb_lld_init
 2056              		.syntax unified
 2057              		.thumb
 2058              		.thumb_func
 2059              		.fpu fpv4-sp-d16
 2060              		.type	usb_lld_init, %function
 2061              	usb_lld_init:
 2062              	.LFB274:
 2063              		.loc 1 744 25 is_stmt 1 view -0
 2064              		.cfi_startproc
 2065              		@ args = 0, pretend = 0, frame = 0
 2066              		@ frame_needed = 0, uses_anonymous_args = 0
 2067              		.loc 1 748 3 view .LVU593
 2068              		.loc 1 744 25 is_stmt 0 view .LVU594
 2069 0000 10B5     		push	{r4, lr}
 2070              		.cfi_def_cfa_offset 8
 2071              		.cfi_offset 4, -8
 2072              		.cfi_offset 14, -4
 2073              		.loc 1 748 3 view .LVU595
 2074 0002 064C     		ldr	r4, .L126
 2075 0004 2046     		mov	r0, r4
 2076 0006 FFF7FEFF 		bl	usbObjectInit
 2077              	.LVL122:
 2078              		.loc 1 749 3 is_stmt 1 view .LVU596
 2079              		.loc 1 750 19 is_stmt 0 view .LVU597
 2080 000a 4FF0A043 		mov	r3, #1342177280
 2081              		.loc 1 751 19 view .LVU598
 2082 000e 044A     		ldr	r2, .L126+4
 2083              		.loc 1 750 19 view .LVU599
 2084 0010 2365     		str	r3, [r4, #80]
 2085              		.loc 1 749 19 view .LVU600
 2086 0012 0023     		movs	r3, #0
 2087              		.loc 1 751 19 view .LVU601
 2088 0014 6265     		str	r2, [r4, #84]
 2089              		.loc 1 754 12 view .LVU602
 2090 0016 C4E91833 		strd	r3, r3, [r4, #96]
 2091              		.loc 1 794 1 view .LVU603
 2092 001a 10BD     		pop	{r4, pc}
 2093              	.L127:
 2094              		.align	2
 2095              	.L126:
 2096 001c 00000000 		.word	.LANCHOR0
 2097 0020 00000000 		.word	.LANCHOR1
 2098              		.cfi_endproc
 2099              	.LFE274:
 2100              		.size	usb_lld_init, .-usb_lld_init
 2101              		.section	.text.usb_lld_start,"ax",%progbits
 2102              		.align	1
 2103              		.p2align 4,,15
 2104              		.global	usb_lld_start
 2105              		.syntax unified
 2106              		.thumb
 2107              		.thumb_func
 2108              		.fpu fpv4-sp-d16
 2109              		.type	usb_lld_start, %function
ARM GAS  C:\Users\USER\AppData\Local\Temp\ccRejSya.s 			page 38


 2110              	usb_lld_start:
 2111              	.LVL123:
 2112              	.LFB275:
 2113              		.loc 1 806 37 is_stmt 1 view -0
 2114              		.cfi_startproc
 2115              		@ args = 0, pretend = 0, frame = 0
 2116              		@ frame_needed = 0, uses_anonymous_args = 0
 2117              		.loc 1 807 3 view .LVU605
 2118              		.loc 1 809 3 view .LVU606
 2119              		.loc 1 809 6 is_stmt 0 view .LVU607
 2120 0000 0378     		ldrb	r3, [r0]	@ zero_extendqisi2
 2121 0002 012B     		cmp	r3, #1
 2122 0004 00D0     		beq	.L143
 2123 0006 7047     		bx	lr
 2124              	.L143:
 2125              		.loc 1 806 37 view .LVU608
 2126 0008 70B5     		push	{r4, r5, r6, lr}
 2127              		.cfi_def_cfa_offset 16
 2128              		.cfi_offset 4, -16
 2129              		.cfi_offset 5, -12
 2130              		.cfi_offset 6, -8
 2131              		.cfi_offset 14, -4
 2132              		.loc 1 812 8 view .LVU609
 2133 000a 314B     		ldr	r3, .L147
 2134              		.loc 1 807 16 view .LVU610
 2135 000c 066D     		ldr	r6, [r0, #80]
 2136              		.loc 1 812 5 is_stmt 1 view .LVU611
 2137              		.loc 1 812 8 is_stmt 0 view .LVU612
 2138 000e 9842     		cmp	r0, r3
 2139              		.loc 1 806 37 view .LVU613
 2140 0010 82B0     		sub	sp, sp, #8
 2141              		.cfi_def_cfa_offset 24
 2142 0012 0446     		mov	r4, r0
 2143              		.loc 1 812 8 view .LVU614
 2144 0014 3BD0     		beq	.L144
 2145              		.loc 1 807 16 view .LVU615
 2146 0016 3546     		mov	r5, r6
 2147              	.LVL124:
 2148              	.L130:
 2149              		.loc 1 836 5 is_stmt 1 view .LVU616
 2150              		.loc 1 836 21 is_stmt 0 view .LVU617
 2151 0018 0023     		movs	r3, #0
 2152              		.loc 1 841 19 view .LVU618
 2153 001a 2E4A     		ldr	r2, .L147+4
 2154              		.loc 1 836 21 view .LVU619
 2155 001c E365     		str	r3, [r4, #92]
 2156              		.loc 1 841 5 is_stmt 1 view .LVU620
 2157              		.loc 1 844 16 is_stmt 0 view .LVU621
 2158 001e 2E49     		ldr	r1, .L147+8
 2159              		.loc 1 841 19 view .LVU622
 2160 0020 F260     		str	r2, [r6, #12]
 2161              		.loc 1 844 5 is_stmt 1 view .LVU623
 2162              		.loc 1 851 17 is_stmt 0 view .LVU624
 2163 0022 4FF43412 		mov	r2, #2949120
 2164              		.loc 1 844 16 view .LVU625
 2165 0026 C6F80018 		str	r1, [r6, #2048]
 2166              		.loc 1 847 5 is_stmt 1 view .LVU626
ARM GAS  C:\Users\USER\AppData\Local\Temp\ccRejSya.s 			page 39


 2167              	.LBB782:
 2168              	.LBB783:
 2169              	.LBB784:
 2170              	.LBB785:
 2171              		.loc 3 573 3 is_stmt 0 view .LVU627
 2172 002a 2020     		movs	r0, #32
 2173              	.LBE785:
 2174              	.LBE784:
 2175              	.LBE783:
 2176              	.LBE782:
 2177              		.loc 1 847 19 view .LVU628
 2178 002c C6F8003E 		str	r3, [r6, #3584]
 2179              		.loc 1 851 5 is_stmt 1 view .LVU629
 2180              		.loc 1 851 17 is_stmt 0 view .LVU630
 2181 0030 B263     		str	r2, [r6, #56]
 2182              		.loc 1 858 5 is_stmt 1 view .LVU631
 2183              	.LBB791:
 2184              	.LBI782:
 2185              		.loc 1 115 13 view .LVU632
 2186              	.LVL125:
 2187              	.LBB790:
 2188              		.loc 1 116 3 view .LVU633
 2189              		.loc 1 118 3 view .LVU634
 2190              	.LBB787:
 2191              	.LBI784:
 2192              		.loc 3 571 20 view .LVU635
 2193              	.LBB786:
 2194              		.loc 3 573 3 view .LVU636
 2195 0032 FFF7FEFF 		bl	chSysPolledDelayX
 2196              	.LVL126:
 2197              		.loc 3 573 3 is_stmt 0 view .LVU637
 2198              	.LBE786:
 2199              	.LBE787:
 2200              		.loc 1 121 3 is_stmt 1 view .LVU638
 2201              		.loc 1 121 17 is_stmt 0 view .LVU639
 2202 0036 0123     		movs	r3, #1
 2203 0038 2B61     		str	r3, [r5, #16]
 2204              		.loc 1 122 3 is_stmt 1 view .LVU640
 2205              	.L131:
 2206              		.loc 1 123 5 view .LVU641
 2207              		.loc 1 122 15 is_stmt 0 view .LVU642
 2208 003a 2B69     		ldr	r3, [r5, #16]
 2209              		.loc 1 122 9 view .LVU643
 2210 003c DB07     		lsls	r3, r3, #31
 2211 003e FCD4     		bmi	.L131
 2212              		.loc 1 125 3 is_stmt 1 view .LVU644
 2213              	.LVL127:
 2214              	.LBB788:
 2215              	.LBI788:
 2216              		.loc 3 571 20 view .LVU645
 2217              	.LBB789:
 2218              		.loc 3 573 3 view .LVU646
 2219 0040 0C20     		movs	r0, #12
 2220 0042 FFF7FEFF 		bl	chSysPolledDelayX
 2221              	.LVL128:
 2222              	.L132:
 2223              	.LBE789:
ARM GAS  C:\Users\USER\AppData\Local\Temp\ccRejSya.s 			page 40


 2224              	.LBE788:
 2225              		.loc 1 129 5 view .LVU647
 2226              		.loc 1 128 15 is_stmt 0 view .LVU648
 2227 0046 2B69     		ldr	r3, [r5, #16]
 2228              		.loc 1 128 9 view .LVU649
 2229 0048 002B     		cmp	r3, #0
 2230 004a FCDA     		bge	.L132
 2231              		.loc 1 128 9 view .LVU650
 2232              	.LBE790:
 2233              	.LBE791:
 2234              		.loc 1 861 5 is_stmt 1 view .LVU651
 2235              		.loc 1 861 19 is_stmt 0 view .LVU652
 2236 004c 0025     		movs	r5, #0
 2237 004e B560     		str	r5, [r6, #8]
 2238              		.loc 1 864 5 is_stmt 1 view .LVU653
 2239 0050 D4E91401 		ldrd	r0, r1, [r4, #80]
 2240 0054 FFF7FEFF 		bl	otg_disable_ep.isra.0
 2241              	.LVL129:
 2242              		.loc 1 868 5 view .LVU654
 2243              		.loc 1 871 21 is_stmt 0 view .LVU655
 2244 0058 6368     		ldr	r3, [r4, #4]
 2245              		.loc 1 868 20 view .LVU656
 2246 005a C6F81058 		str	r5, [r6, #2064]
 2247              		.loc 1 869 5 is_stmt 1 view .LVU657
 2248              		.loc 1 871 8 is_stmt 0 view .LVU658
 2249 005e DB68     		ldr	r3, [r3, #12]
 2250              		.loc 1 869 20 view .LVU659
 2251 0060 C6F81458 		str	r5, [r6, #2068]
 2252              		.loc 1 870 5 is_stmt 1 view .LVU660
 2253              		.loc 1 870 20 is_stmt 0 view .LVU661
 2254 0064 C6F81C58 		str	r5, [r6, #2076]
 2255              		.loc 1 871 5 is_stmt 1 view .LVU662
 2256              		.loc 1 871 8 is_stmt 0 view .LVU663
 2257 0068 6BB1     		cbz	r3, .L145
 2258              		.loc 1 875 7 is_stmt 1 view .LVU664
 2259              		.loc 1 875 22 is_stmt 0 view .LVU665
 2260 006a 43F20803 		movw	r3, #12296
 2261 006e B361     		str	r3, [r6, #24]
 2262              	.L134:
 2263              		.loc 1 877 5 is_stmt 1 view .LVU666
 2264              		.loc 1 881 8 is_stmt 0 view .LVU667
 2265 0070 636E     		ldr	r3, [r4, #100]
 2266              		.loc 1 877 20 view .LVU668
 2267 0072 4FF0FF32 		mov	r2, #-1
 2268 0076 7261     		str	r2, [r6, #20]
 2269              		.loc 1 881 5 is_stmt 1 view .LVU669
 2270              		.loc 1 881 8 is_stmt 0 view .LVU670
 2271 0078 D3B1     		cbz	r3, .L146
 2272              	.L135:
 2273              		.loc 1 891 5 is_stmt 1 view .LVU671
 2274              		.loc 1 891 19 is_stmt 0 view .LVU672
 2275 007a B368     		ldr	r3, [r6, #8]
 2276 007c 43F00103 		orr	r3, r3, #1
 2277 0080 B360     		str	r3, [r6, #8]
 2278              		.loc 1 893 1 view .LVU673
 2279 0082 02B0     		add	sp, sp, #8
 2280              		.cfi_remember_state
ARM GAS  C:\Users\USER\AppData\Local\Temp\ccRejSya.s 			page 41


 2281              		.cfi_def_cfa_offset 16
 2282              		@ sp needed
 2283 0084 70BD     		pop	{r4, r5, r6, pc}
 2284              	.LVL130:
 2285              	.L145:
 2286              		.cfi_restore_state
 2287              		.loc 1 872 7 is_stmt 1 view .LVU674
 2288              		.loc 1 872 22 is_stmt 0 view .LVU675
 2289 0086 4FF44053 		mov	r3, #12288
 2290 008a B361     		str	r3, [r6, #24]
 2291 008c F0E7     		b	.L134
 2292              	.LVL131:
 2293              	.L144:
 2294              		.loc 1 814 7 is_stmt 1 view .LVU676
 2295 008e 134B     		ldr	r3, .L147+12
 2296 0090 5A6B     		ldr	r2, [r3, #52]
 2297 0092 42F08002 		orr	r2, r2, #128
 2298 0096 5A63     		str	r2, [r3, #52]
 2299              		.loc 1 814 7 view .LVU677
 2300              		.loc 1 814 29 view .LVU678
 2301              		.loc 1 815 7 view .LVU679
 2302 0098 5A69     		ldr	r2, [r3, #20]
 2303 009a 0020     		movs	r0, #0
 2304              	.LVL132:
 2305              		.loc 1 815 7 is_stmt 0 view .LVU680
 2306 009c 42F08002 		orr	r2, r2, #128
 2307 00a0 5A61     		str	r2, [r3, #20]
 2308              		.loc 1 815 7 is_stmt 1 view .LVU681
 2309              		.loc 1 818 7 is_stmt 0 view .LVU682
 2310 00a2 0E21     		movs	r1, #14
 2311              		.loc 1 815 7 view .LVU683
 2312 00a4 5861     		str	r0, [r3, #20]
 2313              		.loc 1 815 23 is_stmt 1 view .LVU684
 2314              		.loc 1 818 7 view .LVU685
 2315 00a6 4320     		movs	r0, #67
 2316 00a8 FFF7FEFF 		bl	nvicEnableVector
 2317              	.LVL133:
 2318              		.loc 1 818 7 is_stmt 0 view .LVU686
 2319 00ac 256D     		ldr	r5, [r4, #80]
 2320 00ae B3E7     		b	.L130
 2321              	.LVL134:
 2322              	.L146:
 2323              		.loc 1 882 7 is_stmt 1 view .LVU687
 2324              		.loc 1 882 18 is_stmt 0 view .LVU688
 2325 00b0 0B4B     		ldr	r3, .L147+16
 2326 00b2 0094     		str	r4, [sp]
 2327 00b4 0222     		movs	r2, #2
 2328 00b6 4FF40671 		mov	r1, #536
 2329 00ba 04F16800 		add	r0, r4, #104
 2330 00be FFF7FEFF 		bl	chThdCreateI
 2331              	.LVL135:
 2332              		.loc 1 882 16 view .LVU689
 2333 00c2 6066     		str	r0, [r4, #100]
 2334              		.loc 1 885 7 is_stmt 1 view .LVU690
 2335              	.LVL136:
 2336              	.LBB792:
 2337              	.LBI792:
ARM GAS  C:\Users\USER\AppData\Local\Temp\ccRejSya.s 			page 42


 2338              		.file 7 "src/ChibiOS_3.0.2/os/rt/include/chthreads.h"
 2339              		.loc 7 245 25 view .LVU691
 2340              	.LBB793:
 2341              		.loc 7 247 3 view .LVU692
 2342              		.loc 7 247 3 view .LVU693
 2343              		.loc 7 249 3 view .LVU694
 2344              		.loc 7 249 10 is_stmt 0 view .LVU695
 2345 00c4 FFF7FEFF 		bl	chSchReadyI
 2346              	.LVL137:
 2347              		.loc 7 249 10 view .LVU696
 2348              	.LBE793:
 2349              	.LBE792:
 2350              		.loc 1 886 7 is_stmt 1 view .LVU697
 2351 00c8 FFF7FEFF 		bl	chSchRescheduleS
 2352              	.LVL138:
 2353 00cc D5E7     		b	.L135
 2354              	.L148:
 2355 00ce 00BF     		.align	2
 2356              	.L147:
 2357 00d0 00000000 		.word	.LANCHOR0
 2358 00d4 40140040 		.word	1073747008
 2359 00d8 03002002 		.word	35651587
 2360 00dc 00380240 		.word	1073887232
 2361 00e0 00000000 		.word	usb_lld_pump
 2362              		.cfi_endproc
 2363              	.LFE275:
 2364              		.size	usb_lld_start, .-usb_lld_start
 2365              		.section	.text.usb_lld_stop,"ax",%progbits
 2366              		.align	1
 2367              		.p2align 4,,15
 2368              		.global	usb_lld_stop
 2369              		.syntax unified
 2370              		.thumb
 2371              		.thumb_func
 2372              		.fpu fpv4-sp-d16
 2373              		.type	usb_lld_stop, %function
 2374              	usb_lld_stop:
 2375              	.LVL139:
 2376              	.LFB276:
 2377              		.loc 1 902 36 view -0
 2378              		.cfi_startproc
 2379              		@ args = 0, pretend = 0, frame = 0
 2380              		@ frame_needed = 0, uses_anonymous_args = 0
 2381              		.loc 1 903 3 view .LVU699
 2382              		.loc 1 906 3 view .LVU700
 2383              		.loc 1 902 36 is_stmt 0 view .LVU701
 2384 0000 38B5     		push	{r3, r4, r5, lr}
 2385              		.cfi_def_cfa_offset 16
 2386              		.cfi_offset 3, -16
 2387              		.cfi_offset 4, -12
 2388              		.cfi_offset 5, -8
 2389              		.cfi_offset 14, -4
 2390              		.loc 1 906 6 view .LVU702
 2391 0002 0378     		ldrb	r3, [r0]	@ zero_extendqisi2
 2392 0004 012B     		cmp	r3, #1
 2393 0006 00D1     		bne	.L154
 2394              	.LVL140:
ARM GAS  C:\Users\USER\AppData\Local\Temp\ccRejSya.s 			page 43


 2395              	.L149:
 2396              		.loc 1 932 1 view .LVU703
 2397 0008 38BD     		pop	{r3, r4, r5, pc}
 2398              	.LVL141:
 2399              	.L154:
 2400              		.loc 1 910 5 view .LVU704
 2401 000a D0E91451 		ldrd	r5, r1, [r0, #80]
 2402 000e 0446     		mov	r4, r0
 2403 0010 2846     		mov	r0, r5
 2404              	.LVL142:
 2405              		.loc 1 910 5 view .LVU705
 2406 0012 FFF7FEFF 		bl	otg_disable_ep.isra.0
 2407              	.LVL143:
 2408              		.loc 1 912 5 is_stmt 1 view .LVU706
 2409              		.loc 1 919 8 is_stmt 0 view .LVU707
 2410 0016 094A     		ldr	r2, .L155
 2411              		.loc 1 912 21 view .LVU708
 2412 0018 0023     		movs	r3, #0
 2413              		.loc 1 919 8 view .LVU709
 2414 001a 9442     		cmp	r4, r2
 2415              		.loc 1 912 21 view .LVU710
 2416 001c E365     		str	r3, [r4, #92]
 2417              		.loc 1 914 5 is_stmt 1 view .LVU711
 2418              		.loc 1 914 22 is_stmt 0 view .LVU712
 2419 001e C5F81C38 		str	r3, [r5, #2076]
 2420              		.loc 1 915 5 is_stmt 1 view .LVU713
 2421              		.loc 1 915 22 is_stmt 0 view .LVU714
 2422 0022 AB60     		str	r3, [r5, #8]
 2423              		.loc 1 916 5 is_stmt 1 view .LVU715
 2424              		.loc 1 916 22 is_stmt 0 view .LVU716
 2425 0024 AB63     		str	r3, [r5, #56]
 2426              		.loc 1 919 5 is_stmt 1 view .LVU717
 2427              		.loc 1 919 8 is_stmt 0 view .LVU718
 2428 0026 EFD1     		bne	.L149
 2429              		.loc 1 920 7 is_stmt 1 view .LVU719
 2430 0028 4320     		movs	r0, #67
 2431 002a FFF7FEFF 		bl	nvicDisableVector
 2432              	.LVL144:
 2433              		.loc 1 921 7 view .LVU720
 2434 002e 044A     		ldr	r2, .L155+4
 2435 0030 536B     		ldr	r3, [r2, #52]
 2436 0032 23F08003 		bic	r3, r3, #128
 2437 0036 5363     		str	r3, [r2, #52]
 2438              		.loc 1 921 7 view .LVU721
 2439              		.loc 1 921 30 view .LVU722
 2440              		.loc 1 932 1 is_stmt 0 view .LVU723
 2441 0038 38BD     		pop	{r3, r4, r5, pc}
 2442              	.LVL145:
 2443              	.L156:
 2444              		.loc 1 932 1 view .LVU724
 2445 003a 00BF     		.align	2
 2446              	.L155:
 2447 003c 00000000 		.word	.LANCHOR0
 2448 0040 00380240 		.word	1073887232
 2449              		.cfi_endproc
 2450              	.LFE276:
 2451              		.size	usb_lld_stop, .-usb_lld_stop
ARM GAS  C:\Users\USER\AppData\Local\Temp\ccRejSya.s 			page 44


 2452              		.section	.text.usb_lld_reset,"ax",%progbits
 2453              		.align	1
 2454              		.p2align 4,,15
 2455              		.global	usb_lld_reset
 2456              		.syntax unified
 2457              		.thumb
 2458              		.thumb_func
 2459              		.fpu fpv4-sp-d16
 2460              		.type	usb_lld_reset, %function
 2461              	usb_lld_reset:
 2462              	.LVL146:
 2463              	.LFB277:
 2464              		.loc 1 941 37 is_stmt 1 view -0
 2465              		.cfi_startproc
 2466              		@ args = 0, pretend = 0, frame = 0
 2467              		@ frame_needed = 0, uses_anonymous_args = 0
 2468              		.loc 1 942 3 view .LVU726
 2469              		.loc 1 943 3 view .LVU727
 2470              		.loc 1 941 37 is_stmt 0 view .LVU728
 2471 0000 F8B5     		push	{r3, r4, r5, r6, r7, lr}
 2472              		.cfi_def_cfa_offset 24
 2473              		.cfi_offset 3, -24
 2474              		.cfi_offset 4, -20
 2475              		.cfi_offset 5, -16
 2476              		.cfi_offset 6, -12
 2477              		.cfi_offset 7, -8
 2478              		.cfi_offset 14, -4
 2479              		.loc 1 943 16 view .LVU729
 2480 0002 056D     		ldr	r5, [r0, #80]
 2481              	.LVL147:
 2482              		.loc 1 946 3 is_stmt 1 view .LVU730
 2483              	.LBB794:
 2484              	.LBB795:
 2485              		.loc 1 182 17 is_stmt 0 view .LVU731
 2486 0004 2023     		movs	r3, #32
 2487              	.LBE795:
 2488              	.LBE794:
 2489              		.loc 1 941 37 view .LVU732
 2490 0006 0646     		mov	r6, r0
 2491              	.LVL148:
 2492              	.LBB799:
 2493              	.LBI794:
 2494              		.loc 1 179 13 is_stmt 1 view .LVU733
 2495              	.LBB798:
 2496              		.loc 1 180 3 view .LVU734
 2497              		.loc 1 182 3 view .LVU735
 2498              		.loc 1 182 17 is_stmt 0 view .LVU736
 2499 0008 2B61     		str	r3, [r5, #16]
 2500              		.loc 1 183 3 is_stmt 1 view .LVU737
 2501              	.L158:
 2502              		.loc 1 184 5 view .LVU738
 2503              		.loc 1 183 15 is_stmt 0 view .LVU739
 2504 000a 2C69     		ldr	r4, [r5, #16]
 2505              		.loc 1 183 9 view .LVU740
 2506 000c 14F02004 		ands	r4, r4, #32
 2507 0010 FBD1     		bne	.L158
 2508              		.loc 1 186 3 is_stmt 1 view .LVU741
ARM GAS  C:\Users\USER\AppData\Local\Temp\ccRejSya.s 			page 45


 2509              	.LVL149:
 2510              	.LBB796:
 2511              	.LBI796:
 2512              		.loc 3 571 20 view .LVU742
 2513              	.LBB797:
 2514              		.loc 3 573 3 view .LVU743
 2515 0012 0C20     		movs	r0, #12
 2516              	.LVL150:
 2517              		.loc 3 573 3 is_stmt 0 view .LVU744
 2518 0014 FFF7FEFF 		bl	chSysPolledDelayX
 2519              	.LVL151:
 2520              		.loc 3 573 3 view .LVU745
 2521              	.LBE797:
 2522              	.LBE796:
 2523              	.LBE798:
 2524              	.LBE799:
 2525              		.loc 1 949 3 is_stmt 1 view .LVU746
 2526              		.loc 1 949 24 is_stmt 0 view .LVU747
 2527 0018 D6F854C0 		ldr	ip, [r6, #84]
 2528              		.loc 1 949 10 view .LVU748
 2529 001c 2346     		mov	r3, r4
 2530              		.loc 1 949 35 view .LVU749
 2531 001e DCF80870 		ldr	r7, [ip, #8]
 2532              		.loc 1 950 25 view .LVU750
 2533 0022 4FF00060 		mov	r0, #134217728
 2534              		.loc 1 952 25 view .LVU751
 2535 0026 FF21     		movs	r1, #255
 2536 0028 00E0     		b	.L159
 2537              	.LVL152:
 2538              	.L161:
 2539              		.loc 1 952 25 view .LVU752
 2540 002a 2346     		mov	r3, r4
 2541              	.LVL153:
 2542              	.L159:
 2543              		.loc 1 950 5 is_stmt 1 discriminator 3 view .LVU753
 2544 002c 05EB4312 		add	r2, r5, r3, lsl #5
 2545              		.loc 1 949 3 is_stmt 0 discriminator 3 view .LVU754
 2546 0030 BB42     		cmp	r3, r7
 2547              		.loc 1 950 25 discriminator 3 view .LVU755
 2548 0032 C2F80009 		str	r0, [r2, #2304]
 2549              		.loc 1 951 5 is_stmt 1 discriminator 3 view .LVU756
 2550              		.loc 1 949 53 is_stmt 0 discriminator 3 view .LVU757
 2551 0036 03F10104 		add	r4, r3, #1
 2552              		.loc 1 951 25 discriminator 3 view .LVU758
 2553 003a C2F8000B 		str	r0, [r2, #2816]
 2554              		.loc 1 952 5 is_stmt 1 discriminator 3 view .LVU759
 2555              		.loc 1 952 25 is_stmt 0 discriminator 3 view .LVU760
 2556 003e C2F80819 		str	r1, [r2, #2312]
 2557              		.loc 1 953 5 is_stmt 1 discriminator 3 view .LVU761
 2558              	.LVL154:
 2559              		.loc 1 953 25 is_stmt 0 discriminator 3 view .LVU762
 2560 0042 C2F8081B 		str	r1, [r2, #2824]
 2561              		.loc 1 949 3 discriminator 3 view .LVU763
 2562 0046 F0D1     		bne	.L161
 2563              		.loc 1 957 3 is_stmt 1 view .LVU764
 2564              	.LBB800:
 2565              	.LBB801:
ARM GAS  C:\Users\USER\AppData\Local\Temp\ccRejSya.s 			page 46


 2566              		.loc 1 198 33 is_stmt 0 view .LVU765
 2567 0048 DCF80030 		ldr	r3, [ip]
 2568              	.LBE801:
 2569              	.LBE800:
 2570              		.loc 1 958 18 view .LVU766
 2571 004c 4FF00112 		mov	r2, #65537
 2572              		.loc 1 957 15 view .LVU767
 2573 0050 4FF0FF31 		mov	r1, #-1
 2574 0054 C5F81818 		str	r1, [r5, #2072]
 2575              		.loc 1 958 3 is_stmt 1 view .LVU768
 2576              		.loc 1 958 18 is_stmt 0 view .LVU769
 2577 0058 C5F81C28 		str	r2, [r5, #2076]
 2578              		.loc 1 961 3 is_stmt 1 view .LVU770
 2579              	.LBB803:
 2580              	.LBI800:
 2581              		.loc 1 196 13 view .LVU771
 2582              	.LVL155:
 2583              	.LBB802:
 2584              		.loc 1 198 3 view .LVU772
 2585              		.loc 1 198 16 is_stmt 0 view .LVU773
 2586 005c B365     		str	r3, [r6, #88]
 2587              	.LBE802:
 2588              	.LBE803:
 2589              		.loc 1 964 3 is_stmt 1 view .LVU774
 2590              		.loc 1 964 34 is_stmt 0 view .LVU775
 2591 005e DCF80030 		ldr	r3, [ip]
 2592              		.loc 1 965 3 view .LVU776
 2593 0062 326D     		ldr	r2, [r6, #80]
 2594              		.loc 1 964 17 view .LVU777
 2595 0064 6B62     		str	r3, [r5, #36]
 2596              		.loc 1 965 3 is_stmt 1 view .LVU778
 2597              	.LBB804:
 2598              	.LBI804:
 2599              		.loc 1 169 13 view .LVU779
 2600              	.LVL156:
 2601              	.LBB805:
 2602              		.loc 1 170 3 view .LVU780
 2603              		.loc 1 172 3 view .LVU781
 2604              		.loc 1 172 17 is_stmt 0 view .LVU782
 2605 0066 1023     		movs	r3, #16
 2606 0068 1361     		str	r3, [r2, #16]
 2607              		.loc 1 173 3 is_stmt 1 view .LVU783
 2608              	.LVL157:
 2609              	.L160:
 2610              		.loc 1 174 5 view .LVU784
 2611              		.loc 1 173 15 is_stmt 0 view .LVU785
 2612 006a 1469     		ldr	r4, [r2, #16]
 2613              		.loc 1 173 9 view .LVU786
 2614 006c 14F01004 		ands	r4, r4, #16
 2615 0070 FBD1     		bne	.L160
 2616              		.loc 1 176 3 is_stmt 1 view .LVU787
 2617              	.LVL158:
 2618              	.LBB806:
 2619              	.LBI806:
 2620              		.loc 3 571 20 view .LVU788
 2621              	.LBB807:
 2622              		.loc 3 573 3 view .LVU789
ARM GAS  C:\Users\USER\AppData\Local\Temp\ccRejSya.s 			page 47


 2623 0072 0C20     		movs	r0, #12
 2624 0074 FFF7FEFF 		bl	chSysPolledDelayX
 2625              	.LVL159:
 2626              		.loc 3 573 3 is_stmt 0 view .LVU790
 2627              	.LBE807:
 2628              	.LBE806:
 2629              	.LBE805:
 2630              	.LBE804:
 2631              		.loc 1 968 3 is_stmt 1 view .LVU791
 2632              		.loc 1 968 21 is_stmt 0 view .LVU792
 2633 0078 D5F80038 		ldr	r3, [r5, #2048]
 2634              		.loc 1 978 23 view .LVU793
 2635 007c 104A     		ldr	r2, .L165
 2636              		.loc 1 976 16 view .LVU794
 2637 007e 1149     		ldr	r1, .L165+4
 2638              		.loc 1 968 46 view .LVU795
 2639 0080 23F4FE63 		bic	r3, r3, #2032
 2640              		.loc 1 968 14 view .LVU796
 2641 0084 C5F80038 		str	r3, [r5, #2048]
 2642              		.loc 1 971 3 is_stmt 1 view .LVU797
 2643              		.loc 1 971 18 is_stmt 0 view .LVU798
 2644 0088 AB69     		ldr	r3, [r5, #24]
 2645 008a 43F44023 		orr	r3, r3, #786432
 2646 008e 43F01003 		orr	r3, r3, #16
 2647 0092 AB61     		str	r3, [r5, #24]
 2648              		.loc 1 972 3 is_stmt 1 view .LVU799
 2649              		.loc 1 972 19 is_stmt 0 view .LVU800
 2650 0094 0923     		movs	r3, #9
 2651 0096 C5F81038 		str	r3, [r5, #2064]
 2652              		.loc 1 973 3 is_stmt 1 view .LVU801
 2653              		.loc 1 973 19 is_stmt 0 view .LVU802
 2654 009a C5F81438 		str	r3, [r5, #2068]
 2655              		.loc 1 976 3 is_stmt 1 view .LVU803
 2656              		.loc 1 976 16 is_stmt 0 view .LVU804
 2657 009e F160     		str	r1, [r6, #12]
 2658              		.loc 1 977 3 is_stmt 1 view .LVU805
 2659              		.loc 1 977 24 is_stmt 0 view .LVU806
 2660 00a0 C5F8104B 		str	r4, [r5, #2832]
 2661              		.loc 1 978 3 is_stmt 1 view .LVU807
 2662              		.loc 1 978 23 is_stmt 0 view .LVU808
 2663 00a4 C5F8002B 		str	r2, [r5, #2816]
 2664              		.loc 1 980 3 is_stmt 1 view .LVU809
 2665              		.loc 1 980 24 is_stmt 0 view .LVU810
 2666 00a8 C5F81049 		str	r4, [r5, #2320]
 2667              		.loc 1 981 3 is_stmt 1 view .LVU811
 2668              		.loc 1 981 23 is_stmt 0 view .LVU812
 2669 00ac C5F80029 		str	r2, [r5, #2304]
 2670              		.loc 1 983 3 is_stmt 1 view .LVU813
 2671              	.LVL160:
 2672              	.LBB808:
 2673              	.LBI808:
 2674              		.loc 1 209 17 view .LVU814
 2675              	.LBB809:
 2676              		.loc 1 210 3 view .LVU815
 2677              		.loc 1 212 3 view .LVU816
 2678              		.loc 1 212 8 is_stmt 0 view .LVU817
 2679 00b0 B36D     		ldr	r3, [r6, #88]
ARM GAS  C:\Users\USER\AppData\Local\Temp\ccRejSya.s 			page 48


 2680              	.LVL161:
 2681              		.loc 1 213 3 is_stmt 1 view .LVU818
 2682              		.loc 1 213 16 is_stmt 0 view .LVU819
 2683 00b2 03F11002 		add	r2, r3, #16
 2684              	.LBE809:
 2685              	.LBE808:
 2686              		.loc 1 983 63 view .LVU820
 2687 00b6 43F48013 		orr	r3, r3, #1048576
 2688              	.LVL162:
 2689              	.LBB811:
 2690              	.LBB810:
 2691              		.loc 1 213 16 view .LVU821
 2692 00ba B265     		str	r2, [r6, #88]
 2693              	.LVL163:
 2694              		.loc 1 214 3 is_stmt 1 view .LVU822
 2695              		.loc 1 214 3 view .LVU823
 2696              		.loc 1 216 3 view .LVU824
 2697              		.loc 1 216 3 is_stmt 0 view .LVU825
 2698              	.LBE810:
 2699              	.LBE811:
 2700              		.loc 1 983 18 view .LVU826
 2701 00bc AB62     		str	r3, [r5, #40]
 2702              		.loc 1 986 1 view .LVU827
 2703 00be F8BD     		pop	{r3, r4, r5, r6, r7, pc}
 2704              	.LVL164:
 2705              	.L166:
 2706              		.loc 1 986 1 view .LVU828
 2707              		.align	2
 2708              	.L165:
 2709 00c0 40800010 		.word	268468288
 2710 00c4 00000000 		.word	.LANCHOR2
 2711              		.cfi_endproc
 2712              	.LFE277:
 2713              		.size	usb_lld_reset, .-usb_lld_reset
 2714              		.section	.text.usb_lld_set_address,"ax",%progbits
 2715              		.align	1
 2716              		.p2align 4,,15
 2717              		.global	usb_lld_set_address
 2718              		.syntax unified
 2719              		.thumb
 2720              		.thumb_func
 2721              		.fpu fpv4-sp-d16
 2722              		.type	usb_lld_set_address, %function
 2723              	usb_lld_set_address:
 2724              	.LVL165:
 2725              	.LFB278:
 2726              		.loc 1 995 43 is_stmt 1 view -0
 2727              		.cfi_startproc
 2728              		@ args = 0, pretend = 0, frame = 0
 2729              		@ frame_needed = 0, uses_anonymous_args = 0
 2730              		@ link register save eliminated.
 2731              		.loc 1 996 3 view .LVU830
 2732              		.loc 1 996 16 is_stmt 0 view .LVU831
 2733 0000 026D     		ldr	r2, [r0, #80]
 2734              	.LVL166:
 2735              		.loc 1 998 3 is_stmt 1 view .LVU832
 2736              		.loc 1 998 48 is_stmt 0 view .LVU833
ARM GAS  C:\Users\USER\AppData\Local\Temp\ccRejSya.s 			page 49


 2737 0002 90F84E10 		ldrb	r1, [r0, #78]	@ zero_extendqisi2
 2738              		.loc 1 998 21 view .LVU834
 2739 0006 D2F80038 		ldr	r3, [r2, #2048]
 2740              		.loc 1 998 28 view .LVU835
 2741 000a 23F4FE63 		bic	r3, r3, #2032
 2742              		.loc 1 998 46 view .LVU836
 2743 000e 43EA0113 		orr	r3, r3, r1, lsl #4
 2744              		.loc 1 998 14 view .LVU837
 2745 0012 C2F80038 		str	r3, [r2, #2048]
 2746              		.loc 1 999 1 view .LVU838
 2747 0016 7047     		bx	lr
 2748              		.cfi_endproc
 2749              	.LFE278:
 2750              		.size	usb_lld_set_address, .-usb_lld_set_address
 2751              		.section	.text.usb_lld_init_endpoint,"ax",%progbits
 2752              		.align	1
 2753              		.p2align 4,,15
 2754              		.global	usb_lld_init_endpoint
 2755              		.syntax unified
 2756              		.thumb
 2757              		.thumb_func
 2758              		.fpu fpv4-sp-d16
 2759              		.type	usb_lld_init_endpoint, %function
 2760              	usb_lld_init_endpoint:
 2761              	.LVL167:
 2762              	.LFB279:
 2763              		.loc 1 1009 57 is_stmt 1 view -0
 2764              		.cfi_startproc
 2765              		@ args = 0, pretend = 0, frame = 0
 2766              		@ frame_needed = 0, uses_anonymous_args = 0
 2767              		.loc 1 1009 57 is_stmt 0 view .LVU840
 2768 0000 2DE9F843 		push	{r3, r4, r5, r6, r7, r8, r9, lr}
 2769              		.cfi_def_cfa_offset 32
 2770              		.cfi_offset 3, -32
 2771              		.cfi_offset 4, -28
 2772              		.cfi_offset 5, -24
 2773              		.cfi_offset 6, -20
 2774              		.cfi_offset 7, -16
 2775              		.cfi_offset 8, -12
 2776              		.cfi_offset 9, -8
 2777              		.cfi_offset 14, -4
 2778 0004 0EB2     		sxth	r6, r1
 2779 0006 00EB8607 		add	r7, r0, r6, lsl #2
 2780              		.loc 1 1011 16 view .LVU841
 2781 000a 046D     		ldr	r4, [r0, #80]
 2782              		.loc 1 1014 20 view .LVU842
 2783 000c FB68     		ldr	r3, [r7, #12]
 2784 000e DFF82C81 		ldr	r8, .L179+4
 2785              		.loc 1 1014 34 view .LVU843
 2786 0012 1A68     		ldr	r2, [r3]
 2787              		.loc 1 1033 6 view .LVU844
 2788 0014 D3F80CE0 		ldr	lr, [r3, #12]
 2789              		.loc 1 1009 57 view .LVU845
 2790 0018 0D46     		mov	r5, r1
 2791              		.loc 1 1010 3 is_stmt 1 view .LVU846
 2792              		.loc 1 1011 3 view .LVU847
 2793              	.LVL168:
ARM GAS  C:\Users\USER\AppData\Local\Temp\ccRejSya.s 			page 50


 2794              		.loc 1 1014 3 view .LVU848
 2795              		.loc 1 1032 25 is_stmt 0 view .LVU849
 2796 001a 4901     		lsls	r1, r1, #5
 2797              	.LVL169:
 2798              		.loc 1 1014 34 view .LVU850
 2799 001c 02F00302 		and	r2, r2, #3
 2800              		.loc 1 1032 25 view .LVU851
 2801 0020 04EB010C 		add	ip, r4, r1
 2802 0024 4FF00009 		mov	r9, #0
 2803 0028 58F82280 		ldr	r8, [r8, r2, lsl #2]
 2804              	.LVL170:
 2805              		.loc 1 1032 3 is_stmt 1 view .LVU852
 2806              		.loc 1 1032 25 is_stmt 0 view .LVU853
 2807 002c CCF8109B 		str	r9, [ip, #2832]
 2808              		.loc 1 1033 3 is_stmt 1 view .LVU854
 2809 0030 05F11002 		add	r2, r5, #16
 2810 0034 4FF0010C 		mov	ip, #1
 2811 0038 0CFA02F2 		lsl	r2, ip, r2
 2812              		.loc 1 1033 6 is_stmt 0 view .LVU855
 2813 003c BEF1000F 		cmp	lr, #0
 2814 0040 6AD0     		beq	.L169
 2815              		.loc 1 1034 5 is_stmt 1 view .LVU856
 2816              		.loc 1 1034 34 is_stmt 0 view .LVU857
 2817 0042 B3F812E0 		ldrh	lr, [r3, #18]
 2818              		.loc 1 1034 26 view .LVU858
 2819 0046 05F1580C 		add	ip, r5, #88
 2820 004a 4FEA4C1C 		lsl	ip, ip, #5
 2821              		.loc 1 1034 32 view .LVU859
 2822 004e 4EEA080E 		orr	lr, lr, r8
 2823              		.loc 1 1034 26 view .LVU860
 2824 0052 44F80CE0 		str	lr, [r4, ip]
 2825              		.loc 1 1035 5 is_stmt 1 view .LVU861
 2826              		.loc 1 1035 20 is_stmt 0 view .LVU862
 2827 0056 D4F81CC8 		ldr	ip, [r4, #2076]
 2828 005a 4CEA0202 		orr	r2, ip, r2
 2829 005e C4F81C28 		str	r2, [r4, #2076]
 2830              	.L170:
 2831              		.loc 1 1043 3 is_stmt 1 view .LVU863
 2832              		.loc 1 1043 25 is_stmt 0 view .LVU864
 2833 0062 2144     		add	r1, r1, r4
 2834              		.loc 1 1044 6 view .LVU865
 2835 0064 D3F808E0 		ldr	lr, [r3, #8]
 2836              		.loc 1 1043 25 view .LVU866
 2837 0068 4FF0000C 		mov	ip, #0
 2838 006c AA01     		lsls	r2, r5, #6
 2839 006e C1F810C9 		str	ip, [r1, #2320]
 2840              		.loc 1 1044 3 is_stmt 1 view .LVU867
 2841 0072 42F0200C 		orr	ip, r2, #32
 2842 0076 6A1E     		subs	r2, r5, #1
 2843              		.loc 1 1044 6 is_stmt 0 view .LVU868
 2844 0078 BEF1000F 		cmp	lr, #0
 2845 007c 2BD0     		beq	.L171
 2846              		.loc 1 1046 5 is_stmt 1 view .LVU869
 2847              		.loc 1 1047 22 is_stmt 0 view .LVU870
 2848 007e 9E8B     		ldrh	r6, [r3, #28]
 2849              		.loc 1 1046 39 view .LVU871
 2850 0080 198A     		ldrh	r1, [r3, #16]
ARM GAS  C:\Users\USER\AppData\Local\Temp\ccRejSya.s 			page 51


 2851              		.loc 1 1047 8 view .LVU872
 2852 0082 012E     		cmp	r6, #1
 2853              		.loc 1 1046 11 view .LVU873
 2854 0084 4FEA9103 		lsr	r3, r1, #2
 2855              	.LVL171:
 2856              		.loc 1 1047 5 is_stmt 1 view .LVU874
 2857              		.loc 1 1048 7 view .LVU875
 2858              		.loc 1 1049 27 is_stmt 0 view .LVU876
 2859 0088 02F14002 		add	r2, r2, #64
 2860              	.LBB812:
 2861              	.LBB813:
 2862              		.loc 1 212 8 view .LVU877
 2863 008c 816D     		ldr	r1, [r0, #88]
 2864              	.LBE813:
 2865              	.LBE812:
 2866              		.loc 1 1048 13 view .LVU878
 2867 008e 88BF     		it	hi
 2868 0090 7343     		mulhi	r3, r6, r3
 2869              	.LVL172:
 2870              		.loc 1 1049 5 is_stmt 1 view .LVU879
 2871              	.LBB817:
 2872              	.LBI812:
 2873              		.loc 1 209 17 view .LVU880
 2874              	.LBB814:
 2875              		.loc 1 210 3 view .LVU881
 2876              		.loc 1 212 3 view .LVU882
 2877              		.loc 1 213 3 view .LVU883
 2878              	.LBE814:
 2879              	.LBE817:
 2880              		.loc 1 1049 27 is_stmt 0 view .LVU884
 2881 0092 04EB8202 		add	r2, r4, r2, lsl #2
 2882              	.LBB818:
 2883              	.LBB815:
 2884              		.loc 1 213 16 view .LVU885
 2885 0096 5E18     		adds	r6, r3, r1
 2886              	.LBE815:
 2887              	.LBE818:
 2888              		.loc 1 1049 53 view .LVU886
 2889 0098 41EA0343 		orr	r3, r1, r3, lsl #16
 2890              	.LVL173:
 2891              	.LBB819:
 2892              	.LBB816:
 2893              		.loc 1 213 16 view .LVU887
 2894 009c 8665     		str	r6, [r0, #88]
 2895              		.loc 1 214 3 is_stmt 1 view .LVU888
 2896              		.loc 1 214 3 view .LVU889
 2897              		.loc 1 216 3 view .LVU890
 2898              	.LVL174:
 2899              		.loc 1 216 3 is_stmt 0 view .LVU891
 2900              	.LBE816:
 2901              	.LBE819:
 2902              		.loc 1 1049 27 view .LVU892
 2903 009e 5360     		str	r3, [r2, #4]
 2904              		.loc 1 1051 5 is_stmt 1 view .LVU893
 2905              	.LVL175:
 2906              	.LBB820:
 2907              	.LBI820:
ARM GAS  C:\Users\USER\AppData\Local\Temp\ccRejSya.s 			page 52


 2908              		.loc 1 179 13 view .LVU894
 2909              	.LBB821:
 2910              		.loc 1 180 3 view .LVU895
 2911              		.loc 1 182 3 view .LVU896
 2912              		.loc 1 182 17 is_stmt 0 view .LVU897
 2913 00a0 C4F810C0 		str	ip, [r4, #16]
 2914              		.loc 1 183 3 is_stmt 1 view .LVU898
 2915              	.L173:
 2916              		.loc 1 184 5 view .LVU899
 2917              		.loc 1 183 15 is_stmt 0 view .LVU900
 2918 00a4 2369     		ldr	r3, [r4, #16]
 2919              		.loc 1 183 9 view .LVU901
 2920 00a6 9A06     		lsls	r2, r3, #26
 2921 00a8 FCD4     		bmi	.L173
 2922              		.loc 1 186 3 is_stmt 1 view .LVU902
 2923              	.LVL176:
 2924              	.LBB822:
 2925              	.LBI822:
 2926              		.loc 3 571 20 view .LVU903
 2927              	.LBB823:
 2928              		.loc 3 573 3 view .LVU904
 2929 00aa 0C20     		movs	r0, #12
 2930              	.LVL177:
 2931              		.loc 3 573 3 is_stmt 0 view .LVU905
 2932 00ac FFF7FEFF 		bl	chSysPolledDelayX
 2933              	.LVL178:
 2934              		.loc 3 573 3 view .LVU906
 2935              	.LBE823:
 2936              	.LBE822:
 2937              	.LBE821:
 2938              	.LBE820:
 2939              		.loc 1 1053 5 is_stmt 1 view .LVU907
 2940              		.loc 1 1055 28 is_stmt 0 view .LVU908
 2941 00b0 FB68     		ldr	r3, [r7, #12]
 2942 00b2 1B8A     		ldrh	r3, [r3, #16]
 2943              		.loc 1 1053 26 view .LVU909
 2944 00b4 05F14802 		add	r2, r5, #72
 2945              		.loc 1 1054 47 view .LVU910
 2946 00b8 43EA8553 		orr	r3, r3, r5, lsl #22
 2947              		.loc 1 1053 26 view .LVU911
 2948 00bc 5201     		lsls	r2, r2, #5
 2949              		.loc 1 1054 47 view .LVU912
 2950 00be 43EA0803 		orr	r3, r3, r8
 2951              		.loc 1 1053 26 view .LVU913
 2952 00c2 A350     		str	r3, [r4, r2]
 2953              		.loc 1 1056 5 is_stmt 1 view .LVU914
 2954              		.loc 1 1056 23 is_stmt 0 view .LVU915
 2955 00c4 0121     		movs	r1, #1
 2956              		.loc 1 1056 20 view .LVU916
 2957 00c6 D4F81C38 		ldr	r3, [r4, #2076]
 2958              		.loc 1 1056 23 view .LVU917
 2959 00ca A940     		lsls	r1, r1, r5
 2960              		.loc 1 1056 20 view .LVU918
 2961 00cc 1943     		orrs	r1, r1, r3
 2962 00ce C4F81C18 		str	r1, [r4, #2076]
 2963              		.loc 1 1064 1 view .LVU919
 2964 00d2 BDE8F883 		pop	{r3, r4, r5, r6, r7, r8, r9, pc}
ARM GAS  C:\Users\USER\AppData\Local\Temp\ccRejSya.s 			page 53


 2965              	.LVL179:
 2966              	.L171:
 2967              		.loc 1 1059 5 is_stmt 1 view .LVU920
 2968              		.loc 1 1059 27 is_stmt 0 view .LVU921
 2969 00d6 05F13F03 		add	r3, r5, #63
 2970 00da 04EB8303 		add	r3, r4, r3, lsl #2
 2971 00de 164A     		ldr	r2, .L179
 2972 00e0 5A60     		str	r2, [r3, #4]
 2973              		.loc 1 1060 5 is_stmt 1 view .LVU922
 2974              	.LVL180:
 2975              	.LBB824:
 2976              	.LBI824:
 2977              		.loc 1 179 13 view .LVU923
 2978              	.LBB825:
 2979              		.loc 1 180 3 view .LVU924
 2980              		.loc 1 182 3 view .LVU925
 2981              		.loc 1 182 17 is_stmt 0 view .LVU926
 2982 00e2 C4F810C0 		str	ip, [r4, #16]
 2983              		.loc 1 183 3 is_stmt 1 view .LVU927
 2984              	.L175:
 2985              		.loc 1 184 5 view .LVU928
 2986              		.loc 1 183 15 is_stmt 0 view .LVU929
 2987 00e6 2369     		ldr	r3, [r4, #16]
 2988              		.loc 1 183 9 view .LVU930
 2989 00e8 9B06     		lsls	r3, r3, #26
 2990 00ea FCD4     		bmi	.L175
 2991              		.loc 1 186 3 is_stmt 1 view .LVU931
 2992              	.LVL181:
 2993              	.LBB826:
 2994              	.LBI826:
 2995              		.loc 3 571 20 view .LVU932
 2996              	.LBB827:
 2997              		.loc 3 573 3 view .LVU933
 2998 00ec 04EB4616 		add	r6, r4, r6, lsl #5
 2999 00f0 0C20     		movs	r0, #12
 3000              	.LVL182:
 3001              		.loc 3 573 3 is_stmt 0 view .LVU934
 3002 00f2 FFF7FEFF 		bl	chSysPolledDelayX
 3003              	.LVL183:
 3004              		.loc 3 573 3 view .LVU935
 3005              	.LBE827:
 3006              	.LBE826:
 3007              	.LBE825:
 3008              	.LBE824:
 3009              		.loc 1 1061 5 is_stmt 1 view .LVU936
 3010              		.loc 1 1061 26 is_stmt 0 view .LVU937
 3011 00f6 D6F80039 		ldr	r3, [r6, #2304]
 3012 00fa 23F40043 		bic	r3, r3, #32768
 3013 00fe C6F80039 		str	r3, [r6, #2304]
 3014              		.loc 1 1062 5 is_stmt 1 view .LVU938
 3015              		.loc 1 1062 20 is_stmt 0 view .LVU939
 3016 0102 D4F81C38 		ldr	r3, [r4, #2076]
 3017              		.loc 1 1062 24 view .LVU940
 3018 0106 0122     		movs	r2, #1
 3019 0108 02FA05F5 		lsl	r5, r2, r5
 3020              		.loc 1 1062 20 view .LVU941
 3021 010c 23EA0503 		bic	r3, r3, r5
ARM GAS  C:\Users\USER\AppData\Local\Temp\ccRejSya.s 			page 54


 3022 0110 C4F81C38 		str	r3, [r4, #2076]
 3023              		.loc 1 1064 1 view .LVU942
 3024 0114 BDE8F883 		pop	{r3, r4, r5, r6, r7, r8, r9, pc}
 3025              	.LVL184:
 3026              	.L169:
 3027              		.loc 1 1038 5 is_stmt 1 view .LVU943
 3028 0118 04EB461E 		add	lr, r4, r6, lsl #5
 3029              		.loc 1 1038 26 is_stmt 0 view .LVU944
 3030 011c DEF800CB 		ldr	ip, [lr, #2816]
 3031 0120 2CF4004C 		bic	ip, ip, #32768
 3032 0124 CEF800CB 		str	ip, [lr, #2816]
 3033              		.loc 1 1039 5 is_stmt 1 view .LVU945
 3034              		.loc 1 1039 20 is_stmt 0 view .LVU946
 3035 0128 D4F81CC8 		ldr	ip, [r4, #2076]
 3036 012c 2CEA0202 		bic	r2, ip, r2
 3037 0130 C4F81C28 		str	r2, [r4, #2076]
 3038 0134 95E7     		b	.L170
 3039              	.L180:
 3040 0136 00BF     		.align	2
 3041              	.L179:
 3042 0138 00040002 		.word	33555456
 3043 013c 00000000 		.word	.LANCHOR3
 3044              		.cfi_endproc
 3045              	.LFE279:
 3046              		.size	usb_lld_init_endpoint, .-usb_lld_init_endpoint
 3047              		.section	.text.usb_lld_disable_endpoints,"ax",%progbits
 3048              		.align	1
 3049              		.p2align 4,,15
 3050              		.global	usb_lld_disable_endpoints
 3051              		.syntax unified
 3052              		.thumb
 3053              		.thumb_func
 3054              		.fpu fpv4-sp-d16
 3055              		.type	usb_lld_disable_endpoints, %function
 3056              	usb_lld_disable_endpoints:
 3057              	.LVL185:
 3058              	.LFB280:
 3059              		.loc 1 1073 49 is_stmt 1 view -0
 3060              		.cfi_startproc
 3061              		@ args = 0, pretend = 0, frame = 0
 3062              		@ frame_needed = 0, uses_anonymous_args = 0
 3063              		@ link register save eliminated.
 3064              		.loc 1 1076 3 view .LVU948
 3065              		.loc 1 1073 49 is_stmt 0 view .LVU949
 3066 0000 0346     		mov	r3, r0
 3067              		.loc 1 1079 3 view .LVU950
 3068 0002 D0E91401 		ldrd	r0, r1, [r0, #80]
 3069              	.LVL186:
 3070              	.LBB828:
 3071              	.LBB829:
 3072              		.loc 1 198 33 view .LVU951
 3073 0006 0A68     		ldr	r2, [r1]
 3074              		.loc 1 198 16 view .LVU952
 3075 0008 9A65     		str	r2, [r3, #88]
 3076              	.LBE829:
 3077              	.LBE828:
 3078              		.loc 1 1079 3 is_stmt 1 view .LVU953
ARM GAS  C:\Users\USER\AppData\Local\Temp\ccRejSya.s 			page 55


 3079 000a FFF7FEBF 		b	otg_disable_ep.isra.0
 3080              	.LVL187:
 3081              		.loc 1 1079 3 is_stmt 0 view .LVU954
 3082              		.cfi_endproc
 3083              	.LFE280:
 3084              		.size	usb_lld_disable_endpoints, .-usb_lld_disable_endpoints
 3085 000e 00BF     		.section	.text.usb_lld_get_status_out,"ax",%progbits
 3086              		.align	1
 3087              		.p2align 4,,15
 3088              		.global	usb_lld_get_status_out
 3089              		.syntax unified
 3090              		.thumb
 3091              		.thumb_func
 3092              		.fpu fpv4-sp-d16
 3093              		.type	usb_lld_get_status_out, %function
 3094              	usb_lld_get_status_out:
 3095              	.LVL188:
 3096              	.LFB281:
 3097              		.loc 1 1094 67 is_stmt 1 view -0
 3098              		.cfi_startproc
 3099              		@ args = 0, pretend = 0, frame = 0
 3100              		@ frame_needed = 0, uses_anonymous_args = 0
 3101              		@ link register save eliminated.
 3102              		.loc 1 1095 3 view .LVU956
 3103              		.loc 1 1097 3 view .LVU957
 3104              		.loc 1 1099 3 view .LVU958
 3105              		.loc 1 1099 7 is_stmt 0 view .LVU959
 3106 0000 5831     		adds	r1, r1, #88
 3107              	.LVL189:
 3108              		.loc 1 1099 13 view .LVU960
 3109 0002 036D     		ldr	r3, [r0, #80]
 3110              		.loc 1 1099 7 view .LVU961
 3111 0004 4901     		lsls	r1, r1, #5
 3112 0006 5B58     		ldr	r3, [r3, r1]
 3113              	.LVL190:
 3114              		.loc 1 1100 3 is_stmt 1 view .LVU962
 3115              		.loc 1 1100 6 is_stmt 0 view .LVU963
 3116 0008 13F40040 		ands	r0, r3, #32768
 3117              	.LVL191:
 3118              		.loc 1 1100 6 view .LVU964
 3119 000c 04D0     		beq	.L183
 3120              		.loc 1 1102 3 is_stmt 1 view .LVU965
 3121              		.loc 1 1102 6 is_stmt 0 view .LVU966
 3122 000e 13F4001F 		tst	r3, #2097152
 3123              		.loc 1 1103 12 view .LVU967
 3124 0012 0CBF     		ite	eq
 3125 0014 0220     		moveq	r0, #2
 3126 0016 0120     		movne	r0, #1
 3127              	.L183:
 3128              		.loc 1 1105 1 view .LVU968
 3129 0018 7047     		bx	lr
 3130              		.cfi_endproc
 3131              	.LFE281:
 3132              		.size	usb_lld_get_status_out, .-usb_lld_get_status_out
 3133 001a 00BF     		.section	.text.usb_lld_get_status_in,"ax",%progbits
 3134              		.align	1
 3135              		.p2align 4,,15
ARM GAS  C:\Users\USER\AppData\Local\Temp\ccRejSya.s 			page 56


 3136              		.global	usb_lld_get_status_in
 3137              		.syntax unified
 3138              		.thumb
 3139              		.thumb_func
 3140              		.fpu fpv4-sp-d16
 3141              		.type	usb_lld_get_status_in, %function
 3142              	usb_lld_get_status_in:
 3143              	.LVL192:
 3144              	.LFB282:
 3145              		.loc 1 1119 66 is_stmt 1 view -0
 3146              		.cfi_startproc
 3147              		@ args = 0, pretend = 0, frame = 0
 3148              		@ frame_needed = 0, uses_anonymous_args = 0
 3149              		@ link register save eliminated.
 3150              		.loc 1 1120 3 view .LVU970
 3151              		.loc 1 1122 3 view .LVU971
 3152              		.loc 1 1124 3 view .LVU972
 3153              		.loc 1 1124 7 is_stmt 0 view .LVU973
 3154 0000 4831     		adds	r1, r1, #72
 3155              	.LVL193:
 3156              		.loc 1 1124 13 view .LVU974
 3157 0002 036D     		ldr	r3, [r0, #80]
 3158              		.loc 1 1124 7 view .LVU975
 3159 0004 4901     		lsls	r1, r1, #5
 3160 0006 5B58     		ldr	r3, [r3, r1]
 3161              	.LVL194:
 3162              		.loc 1 1125 3 is_stmt 1 view .LVU976
 3163              		.loc 1 1125 6 is_stmt 0 view .LVU977
 3164 0008 13F40040 		ands	r0, r3, #32768
 3165              	.LVL195:
 3166              		.loc 1 1125 6 view .LVU978
 3167 000c 04D0     		beq	.L187
 3168              		.loc 1 1127 3 is_stmt 1 view .LVU979
 3169              		.loc 1 1127 6 is_stmt 0 view .LVU980
 3170 000e 13F4001F 		tst	r3, #2097152
 3171              		.loc 1 1128 12 view .LVU981
 3172 0012 0CBF     		ite	eq
 3173 0014 0220     		moveq	r0, #2
 3174 0016 0120     		movne	r0, #1
 3175              	.L187:
 3176              		.loc 1 1130 1 view .LVU982
 3177 0018 7047     		bx	lr
 3178              		.cfi_endproc
 3179              	.LFE282:
 3180              		.size	usb_lld_get_status_in, .-usb_lld_get_status_in
 3181 001a 00BF     		.section	.text.usb_lld_read_setup,"ax",%progbits
 3182              		.align	1
 3183              		.p2align 4,,15
 3184              		.global	usb_lld_read_setup
 3185              		.syntax unified
 3186              		.thumb
 3187              		.thumb_func
 3188              		.fpu fpv4-sp-d16
 3189              		.type	usb_lld_read_setup, %function
 3190              	usb_lld_read_setup:
 3191              	.LVL196:
 3192              	.LFB283:
ARM GAS  C:\Users\USER\AppData\Local\Temp\ccRejSya.s 			page 57


 3193              		.loc 1 1146 68 is_stmt 1 view -0
 3194              		.cfi_startproc
 3195              		@ args = 0, pretend = 0, frame = 0
 3196              		@ frame_needed = 0, uses_anonymous_args = 0
 3197              		@ link register save eliminated.
 3198              		.loc 1 1148 3 view .LVU984
 3199              		.loc 1 1148 24 is_stmt 0 view .LVU985
 3200 0000 00EB8101 		add	r1, r0, r1, lsl #2
 3201              	.LVL197:
 3202              		.loc 1 1148 28 view .LVU986
 3203 0004 CB68     		ldr	r3, [r1, #12]
 3204              		.loc 1 1148 3 view .LVU987
 3205 0006 1B6A     		ldr	r3, [r3, #32]
 3206 0008 1968     		ldr	r1, [r3]	@ unaligned
 3207 000a 5B68     		ldr	r3, [r3, #4]	@ unaligned
 3208 000c 5360     		str	r3, [r2, #4]	@ unaligned
 3209 000e 1160     		str	r1, [r2]	@ unaligned
 3210              		.loc 1 1149 1 view .LVU988
 3211 0010 7047     		bx	lr
 3212              		.cfi_endproc
 3213              	.LFE283:
 3214              		.size	usb_lld_read_setup, .-usb_lld_read_setup
 3215 0012 00BF     		.section	.text.usb_lld_prepare_receive,"ax",%progbits
 3216              		.align	1
 3217              		.p2align 4,,15
 3218              		.global	usb_lld_prepare_receive
 3219              		.syntax unified
 3220              		.thumb
 3221              		.thumb_func
 3222              		.fpu fpv4-sp-d16
 3223              		.type	usb_lld_prepare_receive, %function
 3224              	usb_lld_prepare_receive:
 3225              	.LVL198:
 3226              	.LFB284:
 3227              		.loc 1 1159 59 is_stmt 1 view -0
 3228              		.cfi_startproc
 3229              		@ args = 0, pretend = 0, frame = 0
 3230              		@ frame_needed = 0, uses_anonymous_args = 0
 3231              		@ link register save eliminated.
 3232              		.loc 1 1160 3 view .LVU990
 3233              		.loc 1 1161 3 view .LVU991
 3234              		.loc 1 1161 39 is_stmt 0 view .LVU992
 3235 0000 00EB8103 		add	r3, r0, r1, lsl #2
 3236              		.loc 1 1159 59 view .LVU993
 3237 0004 10B4     		push	{r4}
 3238              		.cfi_def_cfa_offset 4
 3239              		.cfi_offset 4, -4
 3240              		.loc 1 1161 39 view .LVU994
 3241 0006 DC68     		ldr	r4, [r3, #12]
 3242              		.loc 1 1161 24 view .LVU995
 3243 0008 A269     		ldr	r2, [r4, #24]
 3244              	.LVL199:
 3245              		.loc 1 1164 3 is_stmt 1 view .LVU996
 3246              		.loc 1 1164 21 is_stmt 0 view .LVU997
 3247 000a 5368     		ldr	r3, [r2, #4]
 3248              		.loc 1 1164 16 view .LVU998
 3249 000c 1361     		str	r3, [r2, #16]
ARM GAS  C:\Users\USER\AppData\Local\Temp\ccRejSya.s 			page 58


 3250              		.loc 1 1165 3 is_stmt 1 view .LVU999
 3251              		.loc 1 1165 6 is_stmt 0 view .LVU1000
 3252 000e 19B9     		cbnz	r1, .L192
 3253              		.loc 1 1165 17 discriminator 1 view .LVU1001
 3254 0010 402B     		cmp	r3, #64
 3255              		.loc 1 1166 7 is_stmt 1 discriminator 1 view .LVU1002
 3256              		.loc 1 1166 19 is_stmt 0 discriminator 1 view .LVU1003
 3257 0012 84BF     		itt	hi
 3258 0014 4023     		movhi	r3, #64
 3259 0016 5360     		strhi	r3, [r2, #4]
 3260              	.L192:
 3261              		.loc 1 1168 3 is_stmt 1 view .LVU1004
 3262              		.loc 1 1168 38 is_stmt 0 view .LVU1005
 3263 0018 648A     		ldrh	r4, [r4, #18]
 3264              	.LVL200:
 3265              		.loc 1 1170 3 is_stmt 1 view .LVU1006
 3266              		.loc 1 1170 7 is_stmt 0 view .LVU1007
 3267 001a 006D     		ldr	r0, [r0, #80]
 3268              	.LVL201:
 3269              		.loc 1 1168 52 view .LVU1008
 3270 001c 621E     		subs	r2, r4, #1
 3271              	.LVL202:
 3272              		.loc 1 1168 52 view .LVU1009
 3273 001e 1A44     		add	r2, r2, r3
 3274              		.loc 1 1170 30 view .LVU1010
 3275 0020 00EB4110 		add	r0, r0, r1, lsl #5
 3276              		.loc 1 1168 8 view .LVU1011
 3277 0024 B2FBF4F2 		udiv	r2, r2, r4
 3278              		.loc 1 1170 76 view .LVU1012
 3279 0028 43EAC243 		orr	r3, r3, r2, lsl #19
 3280              	.LVL203:
 3281              		.loc 1 1170 76 view .LVU1013
 3282 002c 43F0C043 		orr	r3, r3, #1610612736
 3283              		.loc 1 1170 30 view .LVU1014
 3284 0030 C0F8103B 		str	r3, [r0, #2832]
 3285              		.loc 1 1173 1 view .LVU1015
 3286 0034 5DF8044B 		ldr	r4, [sp], #4
 3287              		.cfi_restore 4
 3288              		.cfi_def_cfa_offset 0
 3289 0038 7047     		bx	lr
 3290              		.cfi_endproc
 3291              	.LFE284:
 3292              		.size	usb_lld_prepare_receive, .-usb_lld_prepare_receive
 3293 003a 00BF     		.section	.text.otg_epout_handler.constprop.7,"ax",%progbits
 3294              		.align	1
 3295              		.p2align 4,,15
 3296              		.syntax unified
 3297              		.thumb
 3298              		.thumb_func
 3299              		.fpu fpv4-sp-d16
 3300              		.type	otg_epout_handler.constprop.7, %function
 3301              	otg_epout_handler.constprop.7:
 3302              	.LVL204:
 3303              	.LFB300:
 3304              		.loc 1 581 13 is_stmt 1 view -0
 3305              		.cfi_startproc
 3306              		@ args = 0, pretend = 0, frame = 0
ARM GAS  C:\Users\USER\AppData\Local\Temp\ccRejSya.s 			page 59


 3307              		@ frame_needed = 0, uses_anonymous_args = 0
 3308              		.loc 1 582 3 view .LVU1017
 3309              		.loc 1 581 13 is_stmt 0 view .LVU1018
 3310 0000 2DE9F041 		push	{r4, r5, r6, r7, r8, lr}
 3311              		.cfi_def_cfa_offset 24
 3312              		.cfi_offset 4, -24
 3313              		.cfi_offset 5, -20
 3314              		.cfi_offset 6, -16
 3315              		.cfi_offset 7, -12
 3316              		.cfi_offset 8, -8
 3317              		.cfi_offset 14, -4
 3318              		.loc 1 582 16 view .LVU1019
 3319 0004 244E     		ldr	r6, .L213
 3320 0006 376D     		ldr	r7, [r6, #80]
 3321              	.LVL205:
 3322              		.loc 1 583 3 is_stmt 1 view .LVU1020
 3323              		.loc 1 583 12 is_stmt 0 view .LVU1021
 3324 0008 07EB4013 		add	r3, r7, r0, lsl #5
 3325              		.loc 1 581 13 view .LVU1022
 3326 000c 0546     		mov	r5, r0
 3327              		.loc 1 583 12 view .LVU1023
 3328 000e D3F8084B 		ldr	r4, [r3, #2824]
 3329              	.LVL206:
 3330              		.loc 1 586 3 is_stmt 1 view .LVU1024
 3331              		.loc 1 586 24 is_stmt 0 view .LVU1025
 3332 0012 C3F8084B 		str	r4, [r3, #2824]
 3333              		.loc 1 588 3 is_stmt 1 view .LVU1026
 3334              		.loc 1 588 6 is_stmt 0 view .LVU1027
 3335 0016 2007     		lsls	r0, r4, #28
 3336              	.LVL207:
 3337              		.loc 1 588 6 view .LVU1028
 3338 0018 03D5     		bpl	.L195
 3339              		.loc 1 588 38 view .LVU1029
 3340 001a D7F81438 		ldr	r3, [r7, #2068]
 3341              		.loc 1 588 30 view .LVU1030
 3342 001e 1907     		lsls	r1, r3, #28
 3343 0020 32D4     		bmi	.L211
 3344              	.L195:
 3345              		.loc 1 591 39 is_stmt 1 view .LVU1031
 3346              		.loc 1 594 3 view .LVU1032
 3347              		.loc 1 594 6 is_stmt 0 view .LVU1033
 3348 0022 E207     		lsls	r2, r4, #31
 3349 0024 2ED5     		bpl	.L194
 3350              		.loc 1 594 38 view .LVU1034
 3351 0026 D7F81438 		ldr	r3, [r7, #2068]
 3352              		.loc 1 594 30 view .LVU1035
 3353 002a DB07     		lsls	r3, r3, #31
 3354 002c 2AD5     		bpl	.L194
 3355              	.LBB830:
 3356              		.loc 1 596 5 is_stmt 1 view .LVU1036
 3357              		.loc 1 596 41 is_stmt 0 view .LVU1037
 3358 002e 06EB8503 		add	r3, r6, r5, lsl #2
 3359 0032 D968     		ldr	r1, [r3, #12]
 3360              		.loc 1 596 26 view .LVU1038
 3361 0034 8B69     		ldr	r3, [r1, #24]
 3362              	.LVL208:
 3363              		.loc 1 598 5 is_stmt 1 view .LVU1039
ARM GAS  C:\Users\USER\AppData\Local\Temp\ccRejSya.s 			page 60


 3364              		.loc 1 598 12 is_stmt 0 view .LVU1040
 3365 0036 5868     		ldr	r0, [r3, #4]
 3366              		.loc 1 598 26 view .LVU1041
 3367 0038 1A69     		ldr	r2, [r3, #16]
 3368              		.loc 1 598 8 view .LVU1042
 3369 003a 9042     		cmp	r0, r2
 3370 003c 0CD3     		bcc	.L212
 3371              		.loc 1 611 7 is_stmt 1 view .LVU1043
 3372 003e 7389     		ldrh	r3, [r6, #10]
 3373              	.LVL209:
 3374              		.loc 1 611 7 is_stmt 0 view .LVU1044
 3375 0040 CC68     		ldr	r4, [r1, #12]
 3376              	.LVL210:
 3377              		.loc 1 611 7 view .LVU1045
 3378 0042 1548     		ldr	r0, .L213
 3379 0044 0122     		movs	r2, #1
 3380 0046 AA40     		lsls	r2, r2, r5
 3381 0048 23EA0203 		bic	r3, r3, r2
 3382 004c 7381     		strh	r3, [r6, #10]	@ movhi
 3383              		.loc 1 611 7 is_stmt 1 view .LVU1046
 3384 004e 2946     		mov	r1, r5
 3385              	.LVL211:
 3386              		.loc 1 611 7 is_stmt 0 view .LVU1047
 3387 0050 2346     		mov	r3, r4
 3388              	.LBE830:
 3389              		.loc 1 614 1 view .LVU1048
 3390 0052 BDE8F041 		pop	{r4, r5, r6, r7, r8, lr}
 3391              		.cfi_remember_state
 3392              		.cfi_restore 14
 3393              		.cfi_restore 8
 3394              		.cfi_restore 7
 3395              		.cfi_restore 6
 3396              		.cfi_restore 5
 3397              		.cfi_restore 4
 3398              		.cfi_def_cfa_offset 0
 3399              	.LVL212:
 3400              	.LBB855:
 3401              		.loc 1 611 7 view .LVU1049
 3402 0056 1847     		bx	r3	@ indirect register sibling call
 3403              	.LVL213:
 3404              	.L212:
 3405              		.cfi_restore_state
 3406              		.loc 1 602 7 is_stmt 1 view .LVU1050
 3407              		.loc 1 602 34 is_stmt 0 view .LVU1051
 3408 0058 121A     		subs	r2, r2, r0
 3409              		.loc 1 603 19 view .LVU1052
 3410 005a 0024     		movs	r4, #0
 3411              	.LVL214:
 3412              		.loc 1 603 19 view .LVU1053
 3413 005c C3E90124 		strd	r2, r4, [r3, #4]
 3414              		.loc 1 604 7 is_stmt 1 view .LVU1054
 3415 0060 2946     		mov	r1, r5
 3416 0062 0D48     		ldr	r0, .L213
 3417 0064 FFF7FEFF 		bl	usb_lld_prepare_receive
 3418              	.LVL215:
 3419              		.loc 1 605 7 view .LVU1055
 3420              	.LBB831:
ARM GAS  C:\Users\USER\AppData\Local\Temp\ccRejSya.s 			page 61


 3421              	.LBI831:
 3422              		.loc 4 386 20 view .LVU1056
 3423              	.LBE831:
 3424              	.LBE855:
 3425              		.loc 4 388 3 view .LVU1057
 3426              	.LBB856:
 3427              	.LBB839:
 3428              	.LBB832:
 3429              	.LBI832:
 3430              		.loc 5 473 20 view .LVU1058
 3431              	.LBE832:
 3432              	.LBE839:
 3433              	.LBE856:
 3434              		.loc 5 475 3 view .LVU1059
 3435              	.LBB857:
 3436              	.LBB840:
 3437              	.LBB837:
 3438              	.LBB833:
 3439              	.LBI833:
 3440              		.loc 5 444 20 view .LVU1060
 3441              	.LBE833:
 3442              	.LBE837:
 3443              	.LBE840:
 3444              	.LBE857:
 3445              		.loc 5 447 3 view .LVU1061
 3446              	.LBB858:
 3447              	.LBB841:
 3448              	.LBB838:
 3449              	.LBB836:
 3450              	.LBB834:
 3451              	.LBI834:
 3452              		.loc 6 544 57 view .LVU1062
 3453              	.LBB835:
 3454              		.loc 6 546 3 view .LVU1063
 3455 0068 2023     		movs	r3, #32
 3456              		.syntax unified
 3457              	@ 546 "src/ChibiOS_3.0.2/os/ext/CMSIS/include/core_cmFunc.h" 1
 3458 006a 83F31188 		MSR basepri, r3
 3459              	@ 0 "" 2
 3460              	.LVL216:
 3461              		.loc 6 546 3 is_stmt 0 view .LVU1064
 3462              		.thumb
 3463              		.syntax unified
 3464              	.LBE835:
 3465              	.LBE834:
 3466              	.LBE836:
 3467              	.LBE838:
 3468              	.LBE841:
 3469              	.LBE858:
 3470              		.loc 4 389 34 is_stmt 1 view .LVU1065
 3471              		.loc 4 390 29 view .LVU1066
 3472              	.LBB859:
 3473              		.loc 1 606 7 view .LVU1067
 3474              	.LBB842:
 3475              	.LBI842:
 3476              		.loc 1 1212 6 view .LVU1068
 3477              	.LBB843:
ARM GAS  C:\Users\USER\AppData\Local\Temp\ccRejSya.s 			page 62


 3478              		.loc 1 1214 3 view .LVU1069
 3479 006e 336D     		ldr	r3, [r6, #80]
 3480 0070 03EB4515 		add	r5, r3, r5, lsl #5
 3481              	.LVL217:
 3482              		.loc 1 1214 29 is_stmt 0 view .LVU1070
 3483 0074 D5F8003B 		ldr	r3, [r5, #2816]
 3484 0078 43F08063 		orr	r3, r3, #67108864
 3485 007c C5F8003B 		str	r3, [r5, #2816]
 3486              	.LVL218:
 3487              		.loc 1 1214 29 view .LVU1071
 3488              	.LBE843:
 3489              	.LBE842:
 3490              		.loc 1 607 7 is_stmt 1 view .LVU1072
 3491              	.LBB844:
 3492              	.LBI844:
 3493              		.loc 4 406 20 view .LVU1073
 3494              	.LBE844:
 3495              	.LBE859:
 3496              		.loc 4 408 31 view .LVU1074
 3497              		.loc 4 409 33 view .LVU1075
 3498              		.loc 4 410 3 view .LVU1076
 3499              	.LBB860:
 3500              	.LBB852:
 3501              	.LBB845:
 3502              	.LBI845:
 3503              		.loc 5 484 20 view .LVU1077
 3504              	.LBE845:
 3505              	.LBE852:
 3506              	.LBE860:
 3507              		.loc 5 486 3 view .LVU1078
 3508              	.LBB861:
 3509              	.LBB853:
 3510              	.LBB850:
 3511              	.LBB846:
 3512              	.LBI846:
 3513              		.loc 5 458 20 view .LVU1079
 3514              	.LBE846:
 3515              	.LBE850:
 3516              	.LBE853:
 3517              	.LBE861:
 3518              		.loc 5 461 3 view .LVU1080
 3519              	.LBB862:
 3520              	.LBB854:
 3521              	.LBB851:
 3522              	.LBB849:
 3523              	.LBB847:
 3524              	.LBI847:
 3525              		.loc 6 544 57 view .LVU1081
 3526              	.LBB848:
 3527              		.loc 6 546 3 view .LVU1082
 3528              		.syntax unified
 3529              	@ 546 "src/ChibiOS_3.0.2/os/ext/CMSIS/include/core_cmFunc.h" 1
 3530 0080 84F31188 		MSR basepri, r4
 3531              	@ 0 "" 2
 3532              	.LVL219:
 3533              		.thumb
 3534              		.syntax unified
ARM GAS  C:\Users\USER\AppData\Local\Temp\ccRejSya.s 			page 63


 3535              	.L194:
 3536              		.loc 6 546 3 is_stmt 0 view .LVU1083
 3537              	.LBE848:
 3538              	.LBE847:
 3539              	.LBE849:
 3540              	.LBE851:
 3541              	.LBE854:
 3542              	.LBE862:
 3543              		.loc 1 614 1 view .LVU1084
 3544 0084 BDE8F081 		pop	{r4, r5, r6, r7, r8, pc}
 3545              	.LVL220:
 3546              	.L211:
 3547              		.loc 1 591 5 is_stmt 1 view .LVU1085
 3548 0088 06EB8503 		add	r3, r6, r5, lsl #2
 3549 008c 2946     		mov	r1, r5
 3550 008e DB68     		ldr	r3, [r3, #12]
 3551 0090 3046     		mov	r0, r6
 3552 0092 5B68     		ldr	r3, [r3, #4]
 3553 0094 9847     		blx	r3
 3554              	.LVL221:
 3555 0096 C4E7     		b	.L195
 3556              	.L214:
 3557              		.align	2
 3558              	.L213:
 3559 0098 00000000 		.word	.LANCHOR0
 3560              		.cfi_endproc
 3561              	.LFE300:
 3562              		.size	otg_epout_handler.constprop.7, .-otg_epout_handler.constprop.7
 3563              		.section	.text.usb_lld_prepare_transmit,"ax",%progbits
 3564              		.align	1
 3565              		.p2align 4,,15
 3566              		.global	usb_lld_prepare_transmit
 3567              		.syntax unified
 3568              		.thumb
 3569              		.thumb_func
 3570              		.fpu fpv4-sp-d16
 3571              		.type	usb_lld_prepare_transmit, %function
 3572              	usb_lld_prepare_transmit:
 3573              	.LVL222:
 3574              	.LFB285:
 3575              		.loc 1 1183 60 view -0
 3576              		.cfi_startproc
 3577              		@ args = 0, pretend = 0, frame = 0
 3578              		@ frame_needed = 0, uses_anonymous_args = 0
 3579              		@ link register save eliminated.
 3580              		.loc 1 1184 3 view .LVU1087
 3581              		.loc 1 1184 38 is_stmt 0 view .LVU1088
 3582 0000 00EB8103 		add	r3, r0, r1, lsl #2
 3583              		.loc 1 1183 60 view .LVU1089
 3584 0004 10B4     		push	{r4}
 3585              		.cfi_def_cfa_offset 4
 3586              		.cfi_offset 4, -4
 3587              		.loc 1 1184 38 view .LVU1090
 3588 0006 DC68     		ldr	r4, [r3, #12]
 3589 0008 026D     		ldr	r2, [r0, #80]
 3590              		.loc 1 1184 23 view .LVU1091
 3591 000a 6069     		ldr	r0, [r4, #20]
ARM GAS  C:\Users\USER\AppData\Local\Temp\ccRejSya.s 			page 64


 3592              	.LVL223:
 3593              		.loc 1 1187 3 is_stmt 1 view .LVU1092
 3594              		.loc 1 1187 21 is_stmt 0 view .LVU1093
 3595 000c 4368     		ldr	r3, [r0, #4]
 3596              		.loc 1 1187 16 view .LVU1094
 3597 000e 0361     		str	r3, [r0, #16]
 3598              		.loc 1 1188 3 is_stmt 1 view .LVU1095
 3599              		.loc 1 1188 6 is_stmt 0 view .LVU1096
 3600 0010 43B9     		cbnz	r3, .L216
 3601              		.loc 1 1190 5 is_stmt 1 view .LVU1097
 3602              		.loc 1 1190 32 is_stmt 0 view .LVU1098
 3603 0012 02EB4112 		add	r2, r2, r1, lsl #5
 3604 0016 4FF40023 		mov	r3, #524288
 3605 001a C2F81039 		str	r3, [r2, #2320]
 3606              		.loc 1 1202 1 view .LVU1099
 3607 001e 5DF8044B 		ldr	r4, [sp], #4
 3608              		.cfi_remember_state
 3609              		.cfi_restore 4
 3610              		.cfi_def_cfa_offset 0
 3611 0022 7047     		bx	lr
 3612              	.L216:
 3613              		.cfi_restore_state
 3614              	.LBB863:
 3615              		.loc 1 1193 5 is_stmt 1 view .LVU1100
 3616              		.loc 1 1193 8 is_stmt 0 view .LVU1101
 3617 0024 19B9     		cbnz	r1, .L218
 3618              		.loc 1 1193 19 discriminator 1 view .LVU1102
 3619 0026 402B     		cmp	r3, #64
 3620              		.loc 1 1194 7 is_stmt 1 discriminator 1 view .LVU1103
 3621              		.loc 1 1194 19 is_stmt 0 discriminator 1 view .LVU1104
 3622 0028 84BF     		itt	hi
 3623 002a 4023     		movhi	r3, #64
 3624 002c 4360     		strhi	r3, [r0, #4]
 3625              	.L218:
 3626              		.loc 1 1197 5 is_stmt 1 view .LVU1105
 3627              		.loc 1 1197 49 is_stmt 0 view .LVU1106
 3628 002e 208A     		ldrh	r0, [r4, #16]
 3629              	.LVL224:
 3630              		.loc 1 1199 5 is_stmt 1 view .LVU1107
 3631              	.LBE863:
 3632              		.loc 1 1202 1 is_stmt 0 view .LVU1108
 3633 0030 5DF8044B 		ldr	r4, [sp], #4
 3634              		.cfi_restore 4
 3635              		.cfi_def_cfa_offset 0
 3636              	.LVL225:
 3637              	.LBB864:
 3638              		.loc 1 1199 32 view .LVU1109
 3639 0034 02EB4112 		add	r2, r2, r1, lsl #5
 3640              		.loc 1 1197 62 view .LVU1110
 3641 0038 411E     		subs	r1, r0, #1
 3642              	.LVL226:
 3643              		.loc 1 1197 62 view .LVU1111
 3644 003a 1944     		add	r1, r1, r3
 3645              		.loc 1 1197 14 view .LVU1112
 3646 003c B1FBF0F1 		udiv	r1, r1, r0
 3647              		.loc 1 1199 56 view .LVU1113
 3648 0040 43EAC143 		orr	r3, r3, r1, lsl #19
ARM GAS  C:\Users\USER\AppData\Local\Temp\ccRejSya.s 			page 65


 3649              	.LVL227:
 3650              		.loc 1 1199 32 view .LVU1114
 3651 0044 C2F81039 		str	r3, [r2, #2320]
 3652              	.LBE864:
 3653              		.loc 1 1202 1 view .LVU1115
 3654 0048 7047     		bx	lr
 3655              		.cfi_endproc
 3656              	.LFE285:
 3657              		.size	usb_lld_prepare_transmit, .-usb_lld_prepare_transmit
 3658 004a 00BF     		.section	.text.otg_epin_handler.constprop.8,"ax",%progbits
 3659              		.align	1
 3660              		.p2align 4,,15
 3661              		.syntax unified
 3662              		.thumb
 3663              		.thumb_func
 3664              		.fpu fpv4-sp-d16
 3665              		.type	otg_epin_handler.constprop.8, %function
 3666              	otg_epin_handler.constprop.8:
 3667              	.LVL228:
 3668              	.LFB299:
 3669              		.loc 1 533 13 is_stmt 1 view -0
 3670              		.cfi_startproc
 3671              		@ args = 0, pretend = 0, frame = 0
 3672              		@ frame_needed = 0, uses_anonymous_args = 0
 3673              		.loc 1 534 3 view .LVU1117
 3674              		.loc 1 533 13 is_stmt 0 view .LVU1118
 3675 0000 2DE9F041 		push	{r4, r5, r6, r7, r8, lr}
 3676              		.cfi_def_cfa_offset 24
 3677              		.cfi_offset 4, -24
 3678              		.cfi_offset 5, -20
 3679              		.cfi_offset 6, -16
 3680              		.cfi_offset 7, -12
 3681              		.cfi_offset 8, -8
 3682              		.cfi_offset 14, -4
 3683              		.loc 1 534 16 view .LVU1119
 3684 0004 304F     		ldr	r7, .L240
 3685 0006 3D6D     		ldr	r5, [r7, #80]
 3686              	.LVL229:
 3687              		.loc 1 535 3 is_stmt 1 view .LVU1120
 3688              		.loc 1 535 12 is_stmt 0 view .LVU1121
 3689 0008 05EB4013 		add	r3, r5, r0, lsl #5
 3690              		.loc 1 533 13 view .LVU1122
 3691 000c 0646     		mov	r6, r0
 3692              		.loc 1 535 12 view .LVU1123
 3693 000e D3F80849 		ldr	r4, [r3, #2312]
 3694              	.LVL230:
 3695              		.loc 1 537 3 is_stmt 1 view .LVU1124
 3696              		.loc 1 537 24 is_stmt 0 view .LVU1125
 3697 0012 C3F80849 		str	r4, [r3, #2312]
 3698              		.loc 1 539 3 is_stmt 1 view .LVU1126
 3699              		.loc 1 541 3 view .LVU1127
 3700              		.loc 1 542 3 view .LVU1128
 3701              		.loc 1 542 6 is_stmt 0 view .LVU1129
 3702 0016 E107     		lsls	r1, r4, #31
 3703 0018 03D5     		bpl	.L221
 3704              		.loc 1 542 38 view .LVU1130
 3705 001a D5F81038 		ldr	r3, [r5, #2064]
ARM GAS  C:\Users\USER\AppData\Local\Temp\ccRejSya.s 			page 66


 3706              		.loc 1 542 30 view .LVU1131
 3707 001e DA07     		lsls	r2, r3, #31
 3708 0020 0AD4     		bmi	.L237
 3709              	.LVL231:
 3710              	.L221:
 3711              	.LBB865:
 3712              		.loc 1 559 38 is_stmt 1 view .LVU1132
 3713              	.LBE865:
 3714              		.loc 1 562 3 view .LVU1133
 3715              		.loc 1 562 6 is_stmt 0 view .LVU1134
 3716 0022 2306     		lsls	r3, r4, #24
 3717 0024 06D5     		bpl	.L220
 3718              		.loc 1 563 27 view .LVU1135
 3719 0026 0123     		movs	r3, #1
 3720              		.loc 1 563 12 view .LVU1136
 3721 0028 D5F83428 		ldr	r2, [r5, #2100]
 3722              		.loc 1 563 27 view .LVU1137
 3723 002c 03FA06F6 		lsl	r6, r3, r6
 3724              		.loc 1 562 30 view .LVU1138
 3725 0030 1642     		tst	r6, r2
 3726 0032 15D1     		bne	.L238
 3727              	.L220:
 3728              		.loc 1 571 1 view .LVU1139
 3729 0034 BDE8F081 		pop	{r4, r5, r6, r7, r8, pc}
 3730              	.LVL232:
 3731              	.L237:
 3732              	.LBB900:
 3733              		.loc 1 544 5 is_stmt 1 view .LVU1140
 3734              		.loc 1 544 40 is_stmt 0 view .LVU1141
 3735 0038 07EB8003 		add	r3, r7, r0, lsl #2
 3736 003c D968     		ldr	r1, [r3, #12]
 3737              		.loc 1 544 25 view .LVU1142
 3738 003e 4B69     		ldr	r3, [r1, #20]
 3739              	.LVL233:
 3740              		.loc 1 546 5 is_stmt 1 view .LVU1143
 3741              		.loc 1 546 12 is_stmt 0 view .LVU1144
 3742 0040 5868     		ldr	r0, [r3, #4]
 3743              	.LVL234:
 3744              		.loc 1 546 26 view .LVU1145
 3745 0042 1A69     		ldr	r2, [r3, #16]
 3746              		.loc 1 546 8 view .LVU1146
 3747 0044 9042     		cmp	r0, r2
 3748 0046 20D3     		bcc	.L239
 3749              		.loc 1 559 7 is_stmt 1 view .LVU1147
 3750 0048 3B89     		ldrh	r3, [r7, #8]
 3751              	.LVL235:
 3752              		.loc 1 559 7 is_stmt 0 view .LVU1148
 3753 004a D1F80880 		ldr	r8, [r1, #8]
 3754 004e 0122     		movs	r2, #1
 3755 0050 B240     		lsls	r2, r2, r6
 3756 0052 23EA0203 		bic	r3, r3, r2
 3757 0056 3B81     		strh	r3, [r7, #8]	@ movhi
 3758              		.loc 1 559 7 is_stmt 1 view .LVU1149
 3759 0058 3146     		mov	r1, r6
 3760              	.LVL236:
 3761              		.loc 1 559 7 is_stmt 0 view .LVU1150
 3762 005a 3846     		mov	r0, r7
ARM GAS  C:\Users\USER\AppData\Local\Temp\ccRejSya.s 			page 67


 3763 005c C047     		blx	r8
 3764              	.LVL237:
 3765              		.loc 1 559 7 view .LVU1151
 3766 005e E0E7     		b	.L221
 3767              	.L238:
 3768              		.loc 1 559 7 view .LVU1152
 3769              	.LBE900:
 3770              		.loc 1 565 5 is_stmt 1 view .LVU1153
 3771              	.LBB901:
 3772              	.LBI901:
 3773              		.loc 3 513 20 view .LVU1154
 3774              	.LBE901:
 3775              		.loc 3 515 3 view .LVU1155
 3776              	.LBB913:
 3777              	.LBB902:
 3778              	.LBI902:
 3779              		.loc 4 386 20 view .LVU1156
 3780              	.LBE902:
 3781              	.LBE913:
 3782              		.loc 4 388 3 view .LVU1157
 3783              	.LBB914:
 3784              	.LBB910:
 3785              	.LBB903:
 3786              	.LBI903:
 3787              		.loc 5 473 20 view .LVU1158
 3788              	.LBE903:
 3789              	.LBE910:
 3790              	.LBE914:
 3791              		.loc 5 475 3 view .LVU1159
 3792              	.LBB915:
 3793              	.LBB911:
 3794              	.LBB908:
 3795              	.LBB904:
 3796              	.LBI904:
 3797              		.loc 5 444 20 view .LVU1160
 3798              	.LBE904:
 3799              	.LBE908:
 3800              	.LBE911:
 3801              	.LBE915:
 3802              		.loc 5 447 3 view .LVU1161
 3803              	.LVL238:
 3804              	.LBB916:
 3805              	.LBB912:
 3806              	.LBB909:
 3807              	.LBB907:
 3808              	.LBB905:
 3809              	.LBI905:
 3810              		.loc 6 544 57 view .LVU1162
 3811              	.LBB906:
 3812              		.loc 6 546 3 view .LVU1163
 3813 0060 2023     		movs	r3, #32
 3814              		.syntax unified
 3815              	@ 546 "src/ChibiOS_3.0.2/os/ext/CMSIS/include/core_cmFunc.h" 1
 3816 0062 83F31188 		MSR basepri, r3
 3817              	@ 0 "" 2
 3818              	.LVL239:
 3819              		.loc 6 546 3 is_stmt 0 view .LVU1164
ARM GAS  C:\Users\USER\AppData\Local\Temp\ccRejSya.s 			page 68


 3820              		.thumb
 3821              		.syntax unified
 3822              	.LBE906:
 3823              	.LBE905:
 3824              	.LBE907:
 3825              	.LBE909:
 3826              	.LBE912:
 3827              	.LBE916:
 3828              		.loc 4 389 34 is_stmt 1 view .LVU1165
 3829              		.loc 4 390 29 view .LVU1166
 3830              		.loc 1 566 5 view .LVU1167
 3831              		.loc 1 567 22 is_stmt 0 view .LVU1168
 3832 0066 D5F83428 		ldr	r2, [r5, #2100]
 3833              		.loc 1 566 21 view .LVU1169
 3834 006a FB6D     		ldr	r3, [r7, #92]
 3835              	.LBB917:
 3836              	.LBB918:
 3837              		.loc 3 728 3 view .LVU1170
 3838 006c 1748     		ldr	r0, .L240+4
 3839              	.LBE918:
 3840              	.LBE917:
 3841              		.loc 1 567 22 view .LVU1171
 3842 006e 22EA0602 		bic	r2, r2, r6
 3843 0072 C5F83428 		str	r2, [r5, #2100]
 3844              		.loc 1 566 21 view .LVU1172
 3845 0076 1E43     		orrs	r6, r6, r3
 3846              	.LBB921:
 3847              	.LBB919:
 3848              		.loc 3 728 3 view .LVU1173
 3849 0078 0021     		movs	r1, #0
 3850              	.LBE919:
 3851              	.LBE921:
 3852              		.loc 1 566 21 view .LVU1174
 3853 007a FE65     		str	r6, [r7, #92]
 3854              		.loc 1 567 5 is_stmt 1 view .LVU1175
 3855              		.loc 1 568 5 view .LVU1176
 3856              	.LVL240:
 3857              	.LBB922:
 3858              	.LBI917:
 3859              		.loc 3 726 20 view .LVU1177
 3860              	.LBB920:
 3861              		.loc 3 728 3 view .LVU1178
 3862 007c FFF7FEFF 		bl	chThdResumeI
 3863              	.LVL241:
 3864              		.loc 3 728 3 is_stmt 0 view .LVU1179
 3865              	.LBE920:
 3866              	.LBE922:
 3867              		.loc 1 569 5 is_stmt 1 view .LVU1180
 3868              	.LBB923:
 3869              	.LBI923:
 3870              		.loc 3 524 20 view .LVU1181
 3871              	.LBE923:
 3872              		.loc 3 526 3 view .LVU1182
 3873              	.LBB935:
 3874              	.LBB924:
 3875              	.LBI924:
 3876              		.loc 4 406 20 view .LVU1183
ARM GAS  C:\Users\USER\AppData\Local\Temp\ccRejSya.s 			page 69


 3877              	.LBE924:
 3878              	.LBE935:
 3879              		.loc 4 408 31 view .LVU1184
 3880              		.loc 4 409 33 view .LVU1185
 3881              		.loc 4 410 3 view .LVU1186
 3882              	.LBB936:
 3883              	.LBB932:
 3884              	.LBB925:
 3885              	.LBI925:
 3886              		.loc 5 484 20 view .LVU1187
 3887              	.LBE925:
 3888              	.LBE932:
 3889              	.LBE936:
 3890              		.loc 5 486 3 view .LVU1188
 3891              	.LBB937:
 3892              	.LBB933:
 3893              	.LBB930:
 3894              	.LBB926:
 3895              	.LBI926:
 3896              		.loc 5 458 20 view .LVU1189
 3897              	.LBE926:
 3898              	.LBE930:
 3899              	.LBE933:
 3900              	.LBE937:
 3901              		.loc 5 461 3 view .LVU1190
 3902              	.LBB938:
 3903              	.LBB934:
 3904              	.LBB931:
 3905              	.LBB929:
 3906              	.LBB927:
 3907              	.LBI927:
 3908              		.loc 6 544 57 view .LVU1191
 3909              	.LBB928:
 3910              		.loc 6 546 3 view .LVU1192
 3911 0080 0023     		movs	r3, #0
 3912              		.syntax unified
 3913              	@ 546 "src/ChibiOS_3.0.2/os/ext/CMSIS/include/core_cmFunc.h" 1
 3914 0082 83F31188 		MSR basepri, r3
 3915              	@ 0 "" 2
 3916              	.LVL242:
 3917              		.loc 6 546 3 is_stmt 0 view .LVU1193
 3918              		.thumb
 3919              		.syntax unified
 3920              	.LBE928:
 3921              	.LBE927:
 3922              	.LBE929:
 3923              	.LBE931:
 3924              	.LBE934:
 3925              	.LBE938:
 3926              		.loc 1 571 1 view .LVU1194
 3927 0086 BDE8F081 		pop	{r4, r5, r6, r7, r8, pc}
 3928              	.LVL243:
 3929              	.L239:
 3930              	.LBB939:
 3931              		.loc 1 550 7 is_stmt 1 view .LVU1195
 3932              		.loc 1 550 34 is_stmt 0 view .LVU1196
 3933 008a 121A     		subs	r2, r2, r0
ARM GAS  C:\Users\USER\AppData\Local\Temp\ccRejSya.s 			page 70


 3934              		.loc 1 551 19 view .LVU1197
 3935 008c 4FF00008 		mov	r8, #0
 3936 0090 C3E90128 		strd	r2, r8, [r3, #4]
 3937              		.loc 1 552 7 is_stmt 1 view .LVU1198
 3938 0094 3146     		mov	r1, r6
 3939 0096 3846     		mov	r0, r7
 3940 0098 FFF7FEFF 		bl	usb_lld_prepare_transmit
 3941              	.LVL244:
 3942              		.loc 1 553 7 view .LVU1199
 3943              	.LBB866:
 3944              	.LBI866:
 3945              		.loc 3 513 20 view .LVU1200
 3946              	.LBE866:
 3947              	.LBE939:
 3948              		.loc 3 515 3 view .LVU1201
 3949              	.LBB940:
 3950              	.LBB878:
 3951              	.LBB867:
 3952              	.LBI867:
 3953              		.loc 4 386 20 view .LVU1202
 3954              	.LBE867:
 3955              	.LBE878:
 3956              	.LBE940:
 3957              		.loc 4 388 3 view .LVU1203
 3958              	.LBB941:
 3959              	.LBB879:
 3960              	.LBB875:
 3961              	.LBB868:
 3962              	.LBI868:
 3963              		.loc 5 473 20 view .LVU1204
 3964              	.LBE868:
 3965              	.LBE875:
 3966              	.LBE879:
 3967              	.LBE941:
 3968              		.loc 5 475 3 view .LVU1205
 3969              	.LBB942:
 3970              	.LBB880:
 3971              	.LBB876:
 3972              	.LBB873:
 3973              	.LBB869:
 3974              	.LBI869:
 3975              		.loc 5 444 20 view .LVU1206
 3976              	.LBE869:
 3977              	.LBE873:
 3978              	.LBE876:
 3979              	.LBE880:
 3980              	.LBE942:
 3981              		.loc 5 447 3 view .LVU1207
 3982              	.LBB943:
 3983              	.LBB881:
 3984              	.LBB877:
 3985              	.LBB874:
 3986              	.LBB872:
 3987              	.LBB870:
 3988              	.LBI870:
 3989              		.loc 6 544 57 view .LVU1208
 3990              	.LBB871:
ARM GAS  C:\Users\USER\AppData\Local\Temp\ccRejSya.s 			page 71


 3991              		.loc 6 546 3 view .LVU1209
 3992 009c 2023     		movs	r3, #32
 3993              		.syntax unified
 3994              	@ 546 "src/ChibiOS_3.0.2/os/ext/CMSIS/include/core_cmFunc.h" 1
 3995 009e 83F31188 		MSR basepri, r3
 3996              	@ 0 "" 2
 3997              	.LVL245:
 3998              		.loc 6 546 3 is_stmt 0 view .LVU1210
 3999              		.thumb
 4000              		.syntax unified
 4001              	.LBE871:
 4002              	.LBE870:
 4003              	.LBE872:
 4004              	.LBE874:
 4005              	.LBE877:
 4006              	.LBE881:
 4007              	.LBE943:
 4008              		.loc 4 389 34 is_stmt 1 view .LVU1211
 4009              		.loc 4 390 29 view .LVU1212
 4010              	.LBB944:
 4011              		.loc 1 554 7 view .LVU1213
 4012              	.LBB882:
 4013              	.LBI882:
 4014              		.loc 1 1225 6 view .LVU1214
 4015              	.LBB883:
 4016              		.loc 1 1227 3 view .LVU1215
 4017              		.loc 1 1227 7 is_stmt 0 view .LVU1216
 4018 00a2 3A6D     		ldr	r2, [r7, #80]
 4019 00a4 02EB4610 		add	r0, r2, r6, lsl #5
 4020              		.loc 1 1228 28 view .LVU1217
 4021 00a8 0123     		movs	r3, #1
 4022              		.loc 1 1227 29 view .LVU1218
 4023 00aa D0F80019 		ldr	r1, [r0, #2304]
 4024 00ae 41F00441 		orr	r1, r1, #-2080374784
 4025 00b2 C0F80019 		str	r1, [r0, #2304]
 4026              		.loc 1 1228 3 is_stmt 1 view .LVU1219
 4027              		.loc 1 1228 25 is_stmt 0 view .LVU1220
 4028 00b6 D2F83418 		ldr	r1, [r2, #2100]
 4029              		.loc 1 1228 28 view .LVU1221
 4030 00ba B340     		lsls	r3, r3, r6
 4031              		.loc 1 1228 25 view .LVU1222
 4032 00bc 0B43     		orrs	r3, r3, r1
 4033 00be C2F83438 		str	r3, [r2, #2100]
 4034              	.LVL246:
 4035              		.loc 1 1228 25 view .LVU1223
 4036              	.LBE883:
 4037              	.LBE882:
 4038              		.loc 1 555 7 is_stmt 1 view .LVU1224
 4039              	.LBB884:
 4040              	.LBI884:
 4041              		.loc 3 524 20 view .LVU1225
 4042              	.LBE884:
 4043              	.LBE944:
 4044              		.loc 3 526 3 view .LVU1226
 4045              	.LBB945:
 4046              	.LBB896:
 4047              	.LBB885:
ARM GAS  C:\Users\USER\AppData\Local\Temp\ccRejSya.s 			page 72


 4048              	.LBI885:
 4049              		.loc 4 406 20 view .LVU1227
 4050              	.LBE885:
 4051              	.LBE896:
 4052              	.LBE945:
 4053              		.loc 4 408 31 view .LVU1228
 4054              		.loc 4 409 33 view .LVU1229
 4055              		.loc 4 410 3 view .LVU1230
 4056              	.LBB946:
 4057              	.LBB897:
 4058              	.LBB893:
 4059              	.LBB886:
 4060              	.LBI886:
 4061              		.loc 5 484 20 view .LVU1231
 4062              	.LBE886:
 4063              	.LBE893:
 4064              	.LBE897:
 4065              	.LBE946:
 4066              		.loc 5 486 3 view .LVU1232
 4067              	.LBB947:
 4068              	.LBB898:
 4069              	.LBB894:
 4070              	.LBB891:
 4071              	.LBB887:
 4072              	.LBI887:
 4073              		.loc 5 458 20 view .LVU1233
 4074              	.LBE887:
 4075              	.LBE891:
 4076              	.LBE894:
 4077              	.LBE898:
 4078              	.LBE947:
 4079              		.loc 5 461 3 view .LVU1234
 4080              	.LBB948:
 4081              	.LBB899:
 4082              	.LBB895:
 4083              	.LBB892:
 4084              	.LBB890:
 4085              	.LBB888:
 4086              	.LBI888:
 4087              		.loc 6 544 57 view .LVU1235
 4088              	.LBB889:
 4089              		.loc 6 546 3 view .LVU1236
 4090              		.syntax unified
 4091              	@ 546 "src/ChibiOS_3.0.2/os/ext/CMSIS/include/core_cmFunc.h" 1
 4092 00c2 88F31188 		MSR basepri, r8
 4093              	@ 0 "" 2
 4094              	.LVL247:
 4095              		.loc 6 546 3 is_stmt 0 view .LVU1237
 4096              		.thumb
 4097              		.syntax unified
 4098 00c6 ACE7     		b	.L221
 4099              	.L241:
 4100              		.align	2
 4101              	.L240:
 4102 00c8 00000000 		.word	.LANCHOR0
 4103 00cc 60000000 		.word	.LANCHOR0+96
 4104              	.LBE889:
ARM GAS  C:\Users\USER\AppData\Local\Temp\ccRejSya.s 			page 73


 4105              	.LBE888:
 4106              	.LBE890:
 4107              	.LBE892:
 4108              	.LBE895:
 4109              	.LBE899:
 4110              	.LBE948:
 4111              		.cfi_endproc
 4112              	.LFE299:
 4113              		.size	otg_epin_handler.constprop.8, .-otg_epin_handler.constprop.8
 4114              		.section	.text.Vector14C,"ax",%progbits
 4115              		.align	1
 4116              		.p2align 4,,15
 4117              		.global	Vector14C
 4118              		.syntax unified
 4119              		.thumb
 4120              		.thumb_func
 4121              		.fpu fpv4-sp-d16
 4122              		.type	Vector14C, %function
 4123              	Vector14C:
 4124              	.LFB273:
 4125              		.loc 1 706 38 is_stmt 1 view -0
 4126              		.cfi_startproc
 4127              		@ args = 0, pretend = 0, frame = 0
 4128              		@ frame_needed = 0, uses_anonymous_args = 0
 4129              		.loc 1 708 3 view .LVU1239
 4130              		.loc 1 708 3 view .LVU1240
 4131              		.loc 1 708 22 view .LVU1241
 4132              		.loc 1 710 3 view .LVU1242
 4133              	.LBB965:
 4134              	.LBI965:
 4135              		.loc 1 623 13 view .LVU1243
 4136              	.LVL248:
 4137              	.LBB966:
 4138              		.loc 1 624 3 view .LVU1244
 4139              	.LBE966:
 4140              	.LBE965:
 4141              		.loc 1 706 38 is_stmt 0 view .LVU1245
 4142 0000 70B5     		push	{r4, r5, r6, lr}
 4143              		.cfi_def_cfa_offset 16
 4144              		.cfi_offset 4, -16
 4145              		.cfi_offset 5, -12
 4146              		.cfi_offset 6, -8
 4147              		.cfi_offset 14, -4
 4148              	.LBB1015:
 4149              	.LBB1003:
 4150              		.loc 1 624 16 view .LVU1246
 4151 0002 374D     		ldr	r5, .L312
 4152 0004 2E6D     		ldr	r6, [r5, #80]
 4153              	.LVL249:
 4154              		.loc 1 625 3 is_stmt 1 view .LVU1247
 4155              		.loc 1 627 3 view .LVU1248
 4156              		.loc 1 627 8 is_stmt 0 view .LVU1249
 4157 0006 7469     		ldr	r4, [r6, #20]
 4158              	.LVL250:
 4159              		.loc 1 628 3 is_stmt 1 view .LVU1250
 4160              		.loc 1 628 14 is_stmt 0 view .LVU1251
 4161 0008 B369     		ldr	r3, [r6, #24]
ARM GAS  C:\Users\USER\AppData\Local\Temp\ccRejSya.s 			page 74


 4162              		.loc 1 628 7 view .LVU1252
 4163 000a 1C40     		ands	r4, r4, r3
 4164              	.LVL251:
 4165              		.loc 1 629 3 is_stmt 1 view .LVU1253
 4166              		.loc 1 632 6 is_stmt 0 view .LVU1254
 4167 000c E104     		lsls	r1, r4, #19
 4168              		.loc 1 629 17 view .LVU1255
 4169 000e 7461     		str	r4, [r6, #20]
 4170              		.loc 1 632 3 is_stmt 1 view .LVU1256
 4171              		.loc 1 632 6 is_stmt 0 view .LVU1257
 4172 0010 35D4     		bmi	.L301
 4173              	.L244:
 4174              		.loc 1 634 52 is_stmt 1 view .LVU1258
 4175              		.loc 1 638 3 view .LVU1259
 4176              		.loc 1 638 6 is_stmt 0 view .LVU1260
 4177 0012 A204     		lsls	r2, r4, #18
 4178              		.loc 1 639 5 is_stmt 1 view .LVU1261
 4179              		.loc 1 643 3 view .LVU1262
 4180              		.loc 1 639 5 is_stmt 0 view .LVU1263
 4181 0014 48BF     		it	mi
 4182 0016 D6F80838 		ldrmi	r3, [r6, #2056]
 4183              		.loc 1 643 6 view .LVU1264
 4184 001a 2307     		lsls	r3, r4, #28
 4185 001c 04D5     		bpl	.L247
 4186              		.loc 1 644 5 is_stmt 1 view .LVU1265
 4187 001e 6B68     		ldr	r3, [r5, #4]
 4188 0020 DB68     		ldr	r3, [r3, #12]
 4189 0022 0BB1     		cbz	r3, .L247
 4190              		.loc 1 644 5 view .LVU1266
 4191 0024 2E48     		ldr	r0, .L312
 4192 0026 9847     		blx	r3
 4193              	.LVL252:
 4194              	.L247:
 4195              		.loc 1 644 33 view .LVU1267
 4196              		.loc 1 648 3 view .LVU1268
 4197              		.loc 1 648 6 is_stmt 0 view .LVU1269
 4198 0028 E506     		lsls	r5, r4, #27
 4199 002a 19D4     		bmi	.L302
 4200              	.L248:
 4201              		.loc 1 658 3 is_stmt 1 view .LVU1270
 4202              		.loc 1 659 6 is_stmt 0 view .LVU1271
 4203 002c 6003     		lsls	r0, r4, #13
 4204              		.loc 1 658 7 view .LVU1272
 4205 002e D6F81858 		ldr	r5, [r6, #2072]
 4206              	.LVL253:
 4207              		.loc 1 659 3 is_stmt 1 view .LVU1273
 4208              		.loc 1 659 6 is_stmt 0 view .LVU1274
 4209 0032 07D5     		bpl	.L250
 4210              		.loc 1 660 5 is_stmt 1 view .LVU1275
 4211              		.loc 1 660 8 is_stmt 0 view .LVU1276
 4212 0034 E907     		lsls	r1, r5, #31
 4213 0036 43D4     		bmi	.L303
 4214              	.L251:
 4215              		.loc 1 662 5 is_stmt 1 view .LVU1277
 4216              		.loc 1 662 8 is_stmt 0 view .LVU1278
 4217 0038 AA07     		lsls	r2, r5, #30
 4218 003a 38D4     		bmi	.L304
ARM GAS  C:\Users\USER\AppData\Local\Temp\ccRejSya.s 			page 75


 4219              		.loc 1 664 5 is_stmt 1 view .LVU1279
 4220              		.loc 1 664 8 is_stmt 0 view .LVU1280
 4221 003c 6B07     		lsls	r3, r5, #29
 4222 003e 3BD4     		bmi	.L305
 4223              	.L253:
 4224              		.loc 1 666 5 is_stmt 1 view .LVU1281
 4225              		.loc 1 666 8 is_stmt 0 view .LVU1282
 4226 0040 2E07     		lsls	r6, r5, #28
 4227              	.LVL254:
 4228              		.loc 1 666 8 view .LVU1283
 4229 0042 27D4     		bmi	.L306
 4230              	.L250:
 4231              		.loc 1 675 3 is_stmt 1 view .LVU1284
 4232              		.loc 1 675 6 is_stmt 0 view .LVU1285
 4233 0044 2403     		lsls	r4, r4, #12
 4234              	.LVL255:
 4235              		.loc 1 675 6 view .LVU1286
 4236 0046 07D5     		bpl	.L256
 4237              	.L311:
 4238              		.loc 1 676 5 is_stmt 1 view .LVU1287
 4239              		.loc 1 676 8 is_stmt 0 view .LVU1288
 4240 0048 E803     		lsls	r0, r5, #15
 4241 004a 45D4     		bmi	.L307
 4242              	.L257:
 4243              		.loc 1 678 5 is_stmt 1 view .LVU1289
 4244              		.loc 1 678 8 is_stmt 0 view .LVU1290
 4245 004c A903     		lsls	r1, r5, #14
 4246 004e 3FD4     		bmi	.L308
 4247              	.L258:
 4248              		.loc 1 680 5 is_stmt 1 view .LVU1291
 4249              		.loc 1 680 8 is_stmt 0 view .LVU1292
 4250 0050 6A03     		lsls	r2, r5, #13
 4251 0052 39D4     		bmi	.L309
 4252              	.L259:
 4253              		.loc 1 682 5 is_stmt 1 view .LVU1293
 4254              		.loc 1 682 8 is_stmt 0 view .LVU1294
 4255 0054 2B03     		lsls	r3, r5, #12
 4256 0056 23D4     		bmi	.L310
 4257              	.L256:
 4258              	.LVL256:
 4259              		.loc 1 682 8 view .LVU1295
 4260              	.LBE1003:
 4261              	.LBE1015:
 4262              		.loc 1 712 3 is_stmt 1 view .LVU1296
 4263              		.loc 1 712 3 view .LVU1297
 4264              		.loc 1 713 1 is_stmt 0 view .LVU1298
 4265 0058 BDE87040 		pop	{r4, r5, r6, lr}
 4266              		.cfi_remember_state
 4267              		.cfi_restore 14
 4268              		.cfi_restore 6
 4269              		.cfi_restore 5
 4270              		.cfi_restore 4
 4271              		.cfi_def_cfa_offset 0
 4272              		.loc 1 712 3 view .LVU1299
 4273 005c FFF7FEBF 		b	_port_irq_epilogue
 4274              	.LVL257:
 4275              	.L302:
ARM GAS  C:\Users\USER\AppData\Local\Temp\ccRejSya.s 			page 76


 4276              		.cfi_restore_state
 4277              	.LBB1016:
 4278              	.LBB1004:
 4279              		.loc 1 651 5 is_stmt 1 view .LVU1300
 4280              	.LBB967:
 4281              	.LBI967:
 4282              		.loc 3 513 20 view .LVU1301
 4283              	.LBE967:
 4284              	.LBE1004:
 4285              	.LBE1016:
 4286              		.loc 3 515 3 view .LVU1302
 4287              	.LBB1017:
 4288              	.LBB1005:
 4289              	.LBB979:
 4290              	.LBB968:
 4291              	.LBI968:
 4292              		.loc 4 386 20 view .LVU1303
 4293              	.LBE968:
 4294              	.LBE979:
 4295              	.LBE1005:
 4296              	.LBE1017:
 4297              		.loc 4 388 3 view .LVU1304
 4298              	.LBB1018:
 4299              	.LBB1006:
 4300              	.LBB980:
 4301              	.LBB976:
 4302              	.LBB969:
 4303              	.LBI969:
 4304              		.loc 5 473 20 view .LVU1305
 4305              	.LBE969:
 4306              	.LBE976:
 4307              	.LBE980:
 4308              	.LBE1006:
 4309              	.LBE1018:
 4310              		.loc 5 475 3 view .LVU1306
 4311              	.LBB1019:
 4312              	.LBB1007:
 4313              	.LBB981:
 4314              	.LBB977:
 4315              	.LBB974:
 4316              	.LBB970:
 4317              	.LBI970:
 4318              		.loc 5 444 20 view .LVU1307
 4319              	.LBE970:
 4320              	.LBE974:
 4321              	.LBE977:
 4322              	.LBE981:
 4323              	.LBE1007:
 4324              	.LBE1019:
 4325              		.loc 5 447 3 view .LVU1308
 4326              	.LBB1020:
 4327              	.LBB1008:
 4328              	.LBB982:
 4329              	.LBB978:
 4330              	.LBB975:
 4331              	.LBB973:
 4332              	.LBB971:
ARM GAS  C:\Users\USER\AppData\Local\Temp\ccRejSya.s 			page 77


 4333              	.LBI971:
 4334              		.loc 6 544 57 view .LVU1309
 4335              	.LBB972:
 4336              		.loc 6 546 3 view .LVU1310
 4337 0060 2023     		movs	r3, #32
 4338              		.syntax unified
 4339              	@ 546 "src/ChibiOS_3.0.2/os/ext/CMSIS/include/core_cmFunc.h" 1
 4340 0062 83F31188 		MSR basepri, r3
 4341              	@ 0 "" 2
 4342              	.LVL258:
 4343              		.loc 6 546 3 is_stmt 0 view .LVU1311
 4344              		.thumb
 4345              		.syntax unified
 4346              	.LBE972:
 4347              	.LBE971:
 4348              	.LBE973:
 4349              	.LBE975:
 4350              	.LBE978:
 4351              	.LBE982:
 4352              	.LBE1008:
 4353              	.LBE1020:
 4354              		.loc 4 389 34 is_stmt 1 view .LVU1312
 4355              		.loc 4 390 29 view .LVU1313
 4356              	.LBB1021:
 4357              	.LBB1009:
 4358              		.loc 1 652 5 view .LVU1314
 4359              		.loc 1 652 19 is_stmt 0 view .LVU1315
 4360 0066 B369     		ldr	r3, [r6, #24]
 4361              	.LBB983:
 4362              	.LBB984:
 4363              		.loc 3 728 3 view .LVU1316
 4364 0068 1E48     		ldr	r0, .L312+4
 4365              	.LBE984:
 4366              	.LBE983:
 4367              		.loc 1 652 19 view .LVU1317
 4368 006a 23F01003 		bic	r3, r3, #16
 4369 006e B361     		str	r3, [r6, #24]
 4370              		.loc 1 653 5 is_stmt 1 view .LVU1318
 4371              	.LVL259:
 4372              	.LBB986:
 4373              	.LBI983:
 4374              		.loc 3 726 20 view .LVU1319
 4375              	.LBB985:
 4376              		.loc 3 728 3 view .LVU1320
 4377 0070 0021     		movs	r1, #0
 4378 0072 FFF7FEFF 		bl	chThdResumeI
 4379              	.LVL260:
 4380              		.loc 3 728 3 is_stmt 0 view .LVU1321
 4381              	.LBE985:
 4382              	.LBE986:
 4383              		.loc 1 654 5 is_stmt 1 view .LVU1322
 4384              	.LBB987:
 4385              	.LBI987:
 4386              		.loc 3 524 20 view .LVU1323
 4387              	.LBE987:
 4388              	.LBE1009:
 4389              	.LBE1021:
ARM GAS  C:\Users\USER\AppData\Local\Temp\ccRejSya.s 			page 78


 4390              		.loc 3 526 3 view .LVU1324
 4391              	.LBB1022:
 4392              	.LBB1010:
 4393              	.LBB999:
 4394              	.LBB988:
 4395              	.LBI988:
 4396              		.loc 4 406 20 view .LVU1325
 4397              	.LBE988:
 4398              	.LBE999:
 4399              	.LBE1010:
 4400              	.LBE1022:
 4401              		.loc 4 408 31 view .LVU1326
 4402              		.loc 4 409 33 view .LVU1327
 4403              		.loc 4 410 3 view .LVU1328
 4404              	.LBB1023:
 4405              	.LBB1011:
 4406              	.LBB1000:
 4407              	.LBB996:
 4408              	.LBB989:
 4409              	.LBI989:
 4410              		.loc 5 484 20 view .LVU1329
 4411              	.LBE989:
 4412              	.LBE996:
 4413              	.LBE1000:
 4414              	.LBE1011:
 4415              	.LBE1023:
 4416              		.loc 5 486 3 view .LVU1330
 4417              	.LBB1024:
 4418              	.LBB1012:
 4419              	.LBB1001:
 4420              	.LBB997:
 4421              	.LBB994:
 4422              	.LBB990:
 4423              	.LBI990:
 4424              		.loc 5 458 20 view .LVU1331
 4425              	.LBE990:
 4426              	.LBE994:
 4427              	.LBE997:
 4428              	.LBE1001:
 4429              	.LBE1012:
 4430              	.LBE1024:
 4431              		.loc 5 461 3 view .LVU1332
 4432              	.LBB1025:
 4433              	.LBB1013:
 4434              	.LBB1002:
 4435              	.LBB998:
 4436              	.LBB995:
 4437              	.LBB993:
 4438              	.LBB991:
 4439              	.LBI991:
 4440              		.loc 6 544 57 view .LVU1333
 4441              	.LBB992:
 4442              		.loc 6 546 3 view .LVU1334
 4443 0076 0023     		movs	r3, #0
 4444              		.syntax unified
 4445              	@ 546 "src/ChibiOS_3.0.2/os/ext/CMSIS/include/core_cmFunc.h" 1
 4446 0078 83F31188 		MSR basepri, r3
ARM GAS  C:\Users\USER\AppData\Local\Temp\ccRejSya.s 			page 79


 4447              	@ 0 "" 2
 4448              	.LVL261:
 4449              		.loc 6 546 3 is_stmt 0 view .LVU1335
 4450              		.thumb
 4451              		.syntax unified
 4452 007c D6E7     		b	.L248
 4453              	.L301:
 4454              		.loc 6 546 3 view .LVU1336
 4455              	.LBE992:
 4456              	.LBE991:
 4457              	.LBE993:
 4458              	.LBE995:
 4459              	.LBE998:
 4460              	.LBE1002:
 4461              		.loc 1 633 5 is_stmt 1 view .LVU1337
 4462 007e 2846     		mov	r0, r5
 4463 0080 FFF7FEFF 		bl	_usb_reset
 4464              	.LVL262:
 4465              		.loc 1 634 5 view .LVU1338
 4466 0084 6B68     		ldr	r3, [r5, #4]
 4467 0086 1B68     		ldr	r3, [r3]
 4468 0088 002B     		cmp	r3, #0
 4469 008a C2D0     		beq	.L244
 4470              		.loc 1 634 5 view .LVU1339
 4471 008c 0021     		movs	r1, #0
 4472 008e 2846     		mov	r0, r5
 4473 0090 9847     		blx	r3
 4474              	.LVL263:
 4475 0092 BEE7     		b	.L244
 4476              	.LVL264:
 4477              	.L306:
 4478              		.loc 1 667 7 view .LVU1340
 4479 0094 0320     		movs	r0, #3
 4480 0096 FFF7FEFF 		bl	otg_epin_handler.constprop.8
 4481              	.LVL265:
 4482              		.loc 1 675 3 view .LVU1341
 4483              		.loc 1 675 6 is_stmt 0 view .LVU1342
 4484 009a 2403     		lsls	r4, r4, #12
 4485              	.LVL266:
 4486              		.loc 1 675 6 view .LVU1343
 4487 009c DCD5     		bpl	.L256
 4488 009e D3E7     		b	.L311
 4489              	.L310:
 4490              		.loc 1 683 7 is_stmt 1 view .LVU1344
 4491 00a0 0320     		movs	r0, #3
 4492 00a2 FFF7FEFF 		bl	otg_epout_handler.constprop.7
 4493              	.LVL267:
 4494              		.loc 1 683 7 is_stmt 0 view .LVU1345
 4495              	.LBE1013:
 4496              	.LBE1025:
 4497              		.loc 1 712 3 is_stmt 1 view .LVU1346
 4498              		.loc 1 712 3 view .LVU1347
 4499              		.loc 1 713 1 is_stmt 0 view .LVU1348
 4500 00a6 BDE87040 		pop	{r4, r5, r6, lr}
 4501              		.cfi_remember_state
 4502              		.cfi_restore 14
 4503              		.cfi_restore 6
ARM GAS  C:\Users\USER\AppData\Local\Temp\ccRejSya.s 			page 80


 4504              		.cfi_restore 5
 4505              		.cfi_restore 4
 4506              		.cfi_def_cfa_offset 0
 4507              		.loc 1 712 3 view .LVU1349
 4508 00aa FFF7FEBF 		b	_port_irq_epilogue
 4509              	.LVL268:
 4510              	.L304:
 4511              		.cfi_restore_state
 4512              	.LBB1026:
 4513              	.LBB1014:
 4514              		.loc 1 663 7 is_stmt 1 view .LVU1350
 4515 00ae 0120     		movs	r0, #1
 4516 00b0 FFF7FEFF 		bl	otg_epin_handler.constprop.8
 4517              	.LVL269:
 4518              		.loc 1 664 5 view .LVU1351
 4519              		.loc 1 664 8 is_stmt 0 view .LVU1352
 4520 00b4 6B07     		lsls	r3, r5, #29
 4521 00b6 C3D5     		bpl	.L253
 4522              	.L305:
 4523              		.loc 1 665 7 is_stmt 1 view .LVU1353
 4524 00b8 0220     		movs	r0, #2
 4525 00ba FFF7FEFF 		bl	otg_epin_handler.constprop.8
 4526              	.LVL270:
 4527 00be BFE7     		b	.L253
 4528              	.L303:
 4529              		.loc 1 661 7 view .LVU1354
 4530 00c0 0020     		movs	r0, #0
 4531 00c2 FFF7FEFF 		bl	otg_epin_handler.constprop.8
 4532              	.LVL271:
 4533 00c6 B7E7     		b	.L251
 4534              	.LVL272:
 4535              	.L309:
 4536              		.loc 1 681 7 view .LVU1355
 4537 00c8 0220     		movs	r0, #2
 4538 00ca FFF7FEFF 		bl	otg_epout_handler.constprop.7
 4539              	.LVL273:
 4540 00ce C1E7     		b	.L259
 4541              	.L308:
 4542              		.loc 1 679 7 view .LVU1356
 4543 00d0 0120     		movs	r0, #1
 4544 00d2 FFF7FEFF 		bl	otg_epout_handler.constprop.7
 4545              	.LVL274:
 4546 00d6 BBE7     		b	.L258
 4547              	.L307:
 4548              		.loc 1 677 7 view .LVU1357
 4549 00d8 0020     		movs	r0, #0
 4550 00da FFF7FEFF 		bl	otg_epout_handler.constprop.7
 4551              	.LVL275:
 4552 00de B5E7     		b	.L257
 4553              	.L313:
 4554              		.align	2
 4555              	.L312:
 4556 00e0 00000000 		.word	.LANCHOR0
 4557 00e4 60000000 		.word	.LANCHOR0+96
 4558              	.LBE1014:
 4559              	.LBE1026:
 4560              		.cfi_endproc
ARM GAS  C:\Users\USER\AppData\Local\Temp\ccRejSya.s 			page 81


 4561              	.LFE273:
 4562              		.size	Vector14C, .-Vector14C
 4563              		.section	.text.usb_lld_start_out,"ax",%progbits
 4564              		.align	1
 4565              		.p2align 4,,15
 4566              		.global	usb_lld_start_out
 4567              		.syntax unified
 4568              		.thumb
 4569              		.thumb_func
 4570              		.fpu fpv4-sp-d16
 4571              		.type	usb_lld_start_out, %function
 4572              	usb_lld_start_out:
 4573              	.LVL276:
 4574              	.LFB286:
 4575              		.loc 1 1212 53 view -0
 4576              		.cfi_startproc
 4577              		@ args = 0, pretend = 0, frame = 0
 4578              		@ frame_needed = 0, uses_anonymous_args = 0
 4579              		@ link register save eliminated.
 4580              		.loc 1 1214 3 view .LVU1359
 4581 0000 036D     		ldr	r3, [r0, #80]
 4582 0002 03EB4111 		add	r1, r3, r1, lsl #5
 4583              	.LVL277:
 4584              		.loc 1 1214 29 is_stmt 0 view .LVU1360
 4585 0006 D1F8003B 		ldr	r3, [r1, #2816]
 4586 000a 43F08063 		orr	r3, r3, #67108864
 4587 000e C1F8003B 		str	r3, [r1, #2816]
 4588              		.loc 1 1215 1 view .LVU1361
 4589 0012 7047     		bx	lr
 4590              		.cfi_endproc
 4591              	.LFE286:
 4592              		.size	usb_lld_start_out, .-usb_lld_start_out
 4593              		.section	.text.usb_lld_start_in,"ax",%progbits
 4594              		.align	1
 4595              		.p2align 4,,15
 4596              		.global	usb_lld_start_in
 4597              		.syntax unified
 4598              		.thumb
 4599              		.thumb_func
 4600              		.fpu fpv4-sp-d16
 4601              		.type	usb_lld_start_in, %function
 4602              	usb_lld_start_in:
 4603              	.LVL278:
 4604              	.LFB287:
 4605              		.loc 1 1225 52 is_stmt 1 view -0
 4606              		.cfi_startproc
 4607              		@ args = 0, pretend = 0, frame = 0
 4608              		@ frame_needed = 0, uses_anonymous_args = 0
 4609              		@ link register save eliminated.
 4610              		.loc 1 1227 3 view .LVU1363
 4611              		.loc 1 1227 7 is_stmt 0 view .LVU1364
 4612 0000 026D     		ldr	r2, [r0, #80]
 4613              		.loc 1 1225 52 view .LVU1365
 4614 0002 10B4     		push	{r4}
 4615              		.cfi_def_cfa_offset 4
 4616              		.cfi_offset 4, -4
 4617 0004 02EB4114 		add	r4, r2, r1, lsl #5
ARM GAS  C:\Users\USER\AppData\Local\Temp\ccRejSya.s 			page 82


 4618              		.loc 1 1228 28 view .LVU1366
 4619 0008 0123     		movs	r3, #1
 4620              		.loc 1 1227 29 view .LVU1367
 4621 000a D4F80009 		ldr	r0, [r4, #2304]
 4622              	.LVL279:
 4623              		.loc 1 1227 29 view .LVU1368
 4624 000e 40F00440 		orr	r0, r0, #-2080374784
 4625 0012 C4F80009 		str	r0, [r4, #2304]
 4626              		.loc 1 1228 3 is_stmt 1 view .LVU1369
 4627              		.loc 1 1228 25 is_stmt 0 view .LVU1370
 4628 0016 D2F83408 		ldr	r0, [r2, #2100]
 4629              		.loc 1 1229 1 view .LVU1371
 4630 001a 5DF8044B 		ldr	r4, [sp], #4
 4631              		.cfi_restore 4
 4632              		.cfi_def_cfa_offset 0
 4633              		.loc 1 1228 28 view .LVU1372
 4634 001e 8B40     		lsls	r3, r3, r1
 4635              		.loc 1 1228 25 view .LVU1373
 4636 0020 0343     		orrs	r3, r3, r0
 4637 0022 C2F83438 		str	r3, [r2, #2100]
 4638              		.loc 1 1229 1 view .LVU1374
 4639 0026 7047     		bx	lr
 4640              		.cfi_endproc
 4641              	.LFE287:
 4642              		.size	usb_lld_start_in, .-usb_lld_start_in
 4643              		.section	.text.usb_lld_stall_out,"ax",%progbits
 4644              		.align	1
 4645              		.p2align 4,,15
 4646              		.global	usb_lld_stall_out
 4647              		.syntax unified
 4648              		.thumb
 4649              		.thumb_func
 4650              		.fpu fpv4-sp-d16
 4651              		.type	usb_lld_stall_out, %function
 4652              	usb_lld_stall_out:
 4653              	.LVL280:
 4654              	.LFB288:
 4655              		.loc 1 1239 53 is_stmt 1 view -0
 4656              		.cfi_startproc
 4657              		@ args = 0, pretend = 0, frame = 0
 4658              		@ frame_needed = 0, uses_anonymous_args = 0
 4659              		@ link register save eliminated.
 4660              		.loc 1 1241 3 view .LVU1376
 4661 0000 036D     		ldr	r3, [r0, #80]
 4662 0002 03EB4111 		add	r1, r3, r1, lsl #5
 4663              	.LVL281:
 4664              		.loc 1 1241 29 is_stmt 0 view .LVU1377
 4665 0006 D1F8003B 		ldr	r3, [r1, #2816]
 4666 000a 43F40013 		orr	r3, r3, #2097152
 4667 000e C1F8003B 		str	r3, [r1, #2816]
 4668              		.loc 1 1242 1 view .LVU1378
 4669 0012 7047     		bx	lr
 4670              		.cfi_endproc
 4671              	.LFE288:
 4672              		.size	usb_lld_stall_out, .-usb_lld_stall_out
 4673              		.section	.text.usb_lld_stall_in,"ax",%progbits
 4674              		.align	1
ARM GAS  C:\Users\USER\AppData\Local\Temp\ccRejSya.s 			page 83


 4675              		.p2align 4,,15
 4676              		.global	usb_lld_stall_in
 4677              		.syntax unified
 4678              		.thumb
 4679              		.thumb_func
 4680              		.fpu fpv4-sp-d16
 4681              		.type	usb_lld_stall_in, %function
 4682              	usb_lld_stall_in:
 4683              	.LVL282:
 4684              	.LFB289:
 4685              		.loc 1 1252 52 is_stmt 1 view -0
 4686              		.cfi_startproc
 4687              		@ args = 0, pretend = 0, frame = 0
 4688              		@ frame_needed = 0, uses_anonymous_args = 0
 4689              		@ link register save eliminated.
 4690              		.loc 1 1254 3 view .LVU1380
 4691 0000 036D     		ldr	r3, [r0, #80]
 4692 0002 03EB4111 		add	r1, r3, r1, lsl #5
 4693              	.LVL283:
 4694              		.loc 1 1254 29 is_stmt 0 view .LVU1381
 4695 0006 D1F80039 		ldr	r3, [r1, #2304]
 4696 000a 43F40013 		orr	r3, r3, #2097152
 4697 000e C1F80039 		str	r3, [r1, #2304]
 4698              		.loc 1 1255 1 view .LVU1382
 4699 0012 7047     		bx	lr
 4700              		.cfi_endproc
 4701              	.LFE289:
 4702              		.size	usb_lld_stall_in, .-usb_lld_stall_in
 4703              		.section	.text.usb_lld_clear_out,"ax",%progbits
 4704              		.align	1
 4705              		.p2align 4,,15
 4706              		.global	usb_lld_clear_out
 4707              		.syntax unified
 4708              		.thumb
 4709              		.thumb_func
 4710              		.fpu fpv4-sp-d16
 4711              		.type	usb_lld_clear_out, %function
 4712              	usb_lld_clear_out:
 4713              	.LVL284:
 4714              	.LFB290:
 4715              		.loc 1 1265 53 is_stmt 1 view -0
 4716              		.cfi_startproc
 4717              		@ args = 0, pretend = 0, frame = 0
 4718              		@ frame_needed = 0, uses_anonymous_args = 0
 4719              		@ link register save eliminated.
 4720              		.loc 1 1267 3 view .LVU1384
 4721 0000 036D     		ldr	r3, [r0, #80]
 4722 0002 03EB4111 		add	r1, r3, r1, lsl #5
 4723              	.LVL285:
 4724              		.loc 1 1267 29 is_stmt 0 view .LVU1385
 4725 0006 D1F8003B 		ldr	r3, [r1, #2816]
 4726 000a 23F40013 		bic	r3, r3, #2097152
 4727 000e C1F8003B 		str	r3, [r1, #2816]
 4728              		.loc 1 1268 1 view .LVU1386
 4729 0012 7047     		bx	lr
 4730              		.cfi_endproc
 4731              	.LFE290:
ARM GAS  C:\Users\USER\AppData\Local\Temp\ccRejSya.s 			page 84


 4732              		.size	usb_lld_clear_out, .-usb_lld_clear_out
 4733              		.section	.text.usb_lld_clear_in,"ax",%progbits
 4734              		.align	1
 4735              		.p2align 4,,15
 4736              		.global	usb_lld_clear_in
 4737              		.syntax unified
 4738              		.thumb
 4739              		.thumb_func
 4740              		.fpu fpv4-sp-d16
 4741              		.type	usb_lld_clear_in, %function
 4742              	usb_lld_clear_in:
 4743              	.LVL286:
 4744              	.LFB291:
 4745              		.loc 1 1278 52 is_stmt 1 view -0
 4746              		.cfi_startproc
 4747              		@ args = 0, pretend = 0, frame = 0
 4748              		@ frame_needed = 0, uses_anonymous_args = 0
 4749              		@ link register save eliminated.
 4750              		.loc 1 1280 3 view .LVU1388
 4751 0000 036D     		ldr	r3, [r0, #80]
 4752 0002 03EB4111 		add	r1, r3, r1, lsl #5
 4753              	.LVL287:
 4754              		.loc 1 1280 29 is_stmt 0 view .LVU1389
 4755 0006 D1F80039 		ldr	r3, [r1, #2304]
 4756 000a 23F40013 		bic	r3, r3, #2097152
 4757 000e C1F80039 		str	r3, [r1, #2304]
 4758              		.loc 1 1281 1 view .LVU1390
 4759 0012 7047     		bx	lr
 4760              		.cfi_endproc
 4761              	.LFE291:
 4762              		.size	usb_lld_clear_in, .-usb_lld_clear_in
 4763              		.global	USBD1
 4764              		.section	.bss.USBD1,"aw",%nobits
 4765              		.align	3
 4766              		.set	.LANCHOR0,. + 0
 4767              		.type	USBD1, %object
 4768              		.size	USBD1, 640
 4769              	USBD1:
 4770 0000 00000000 		.space	640
 4770      00000000 
 4770      00000000 
 4770      00000000 
 4770      00000000 
 4771              		.section	.bss.ep0_state,"aw",%nobits
 4772              		.align	2
 4773              		.type	ep0_state, %object
 4774              		.size	ep0_state, 20
 4775              	ep0_state:
 4776 0000 00000000 		.space	20
 4776      00000000 
 4776      00000000 
 4776      00000000 
 4776      00000000 
 4777              		.section	.bss.ep0setup_buffer,"aw",%nobits
 4778              		.align	2
 4779              		.type	ep0setup_buffer, %object
 4780              		.size	ep0setup_buffer, 8
ARM GAS  C:\Users\USER\AppData\Local\Temp\ccRejSya.s 			page 85


 4781              	ep0setup_buffer:
 4782 0000 00000000 		.space	8
 4782      00000000 
 4783              		.section	.rodata.CSWTCH.10,"a"
 4784              		.align	2
 4785              		.set	.LANCHOR3,. + 0
 4786              		.type	CSWTCH.10, %object
 4787              		.size	CSWTCH.10, 16
 4788              	CSWTCH.10:
 4789 0000 00800010 		.word	268468224
 4790 0004 00800410 		.word	268730368
 4791 0008 00800810 		.word	268992512
 4792 000c 00800C10 		.word	269254656
 4793              		.section	.rodata.ep0config,"a"
 4794              		.align	2
 4795              		.set	.LANCHOR2,. + 0
 4796              		.type	ep0config, %object
 4797              		.size	ep0config, 36
 4798              	ep0config:
 4799 0000 00000000 		.word	0
 4800 0004 00000000 		.word	_usb_ep0setup
 4801 0008 00000000 		.word	_usb_ep0in
 4802 000c 00000000 		.word	_usb_ep0out
 4803 0010 4000     		.short	64
 4804 0012 4000     		.short	64
 4805 0014 00000000 		.word	ep0_state
 4806 0018 00000000 		.word	ep0_state
 4807 001c 0100     		.short	1
 4808 001e 0000     		.space	2
 4809 0020 00000000 		.word	ep0setup_buffer
 4810              		.section	.rodata.fsparams,"a"
 4811              		.align	2
 4812              		.set	.LANCHOR1,. + 0
 4813              		.type	fsparams, %object
 4814              		.size	fsparams, 12
 4815              	fsparams:
 4816 0000 80000000 		.word	128
 4817 0004 40010000 		.word	320
 4818 0008 03000000 		.word	3
 4819              		.section	.rodata.usb_lld_pump.str1.4,"aMS",%progbits,1
 4820              		.align	2
 4821              	.LC0:
 4822 0000 7573625F 		.ascii	"usb_lld_pump\000"
 4822      6C6C645F 
 4822      70756D70 
 4822      00
 4823              		.text
 4824              	.Letext0:
 4825              		.file 8 "c:\\program files (x86)\\gnu tools arm embedded\\8 2018-q4-major\\lib\\gcc\\arm-none-eabi
 4826              		.file 9 "c:\\program files (x86)\\gnu tools arm embedded\\8 2018-q4-major\\arm-none-eabi\\include\
 4827              		.file 10 "c:\\program files (x86)\\gnu tools arm embedded\\8 2018-q4-major\\arm-none-eabi\\include
 4828              		.file 11 "c:\\program files (x86)\\gnu tools arm embedded\\8 2018-q4-major\\arm-none-eabi\\include
 4829              		.file 12 "c:\\program files (x86)\\gnu tools arm embedded\\8 2018-q4-major\\arm-none-eabi\\include
 4830              		.file 13 "c:\\program files (x86)\\gnu tools arm embedded\\8 2018-q4-major\\arm-none-eabi\\include
 4831              		.file 14 "src/ChibiOS_3.0.2/os/rt/ports/ARMCMx/compilers/GCC/chtypes.h"
 4832              		.file 15 "src/ChibiOS_3.0.2/os/rt/include/chsystypes.h"
 4833              		.file 16 "src/ChibiOS_3.0.2/os/rt/include/chschd.h"
ARM GAS  C:\Users\USER\AppData\Local\Temp\ccRejSya.s 			page 86


 4834              		.file 17 "src/ChibiOS_3.0.2/os/ext/CMSIS/include/core_cm4.h"
 4835              		.file 18 "src/ChibiOS_3.0.2/os/ext/CMSIS/ST/system_stm32f4xx.h"
 4836              		.file 19 "src/ChibiOS_3.0.2/os/ext/CMSIS/ST/stm32f407xx.h"
 4837              		.file 20 "src/ChibiOS_3.0.2/os/rt/ports/ARMCMx/chcore.h"
 4838              		.file 21 "src/ChibiOS_3.0.2/os/rt/include/chtm.h"
 4839              		.file 22 "src/ChibiOS_3.0.2/os/rt/include/chsem.h"
 4840              		.file 23 "src/ChibiOS_3.0.2/os/rt/include/chmtx.h"
 4841              		.file 24 "src/ChibiOS_3.0.2/os/rt/include/chevents.h"
 4842              		.file 25 "src/ChibiOS_3.0.2/os/rt/include/chqueues.h"
 4843              		.file 26 "src/ChibiOS_3.0.2/os/hal/ports/STM32/STM32F4xx/stm32_dma.h"
 4844              		.file 27 "src/ChibiOS_3.0.2/os/hal/ports/STM32/LLD/GPIOv2/pal_lld.h"
 4845              		.file 28 "src/ChibiOS_3.0.2/os/hal/include/can.h"
 4846              		.file 29 "src/ChibiOS_3.0.2/os/hal/ports/STM32/LLD/can_lld.h"
 4847              		.file 30 "src/ChibiOS_3.0.2/os/hal/include/i2c.h"
 4848              		.file 31 "src/ChibiOS_3.0.2/os/hal/ports/STM32/LLD/I2Cv1/i2c_lld.h"
 4849              		.file 32 "src/ChibiOS_3.0.2/os/hal/include/icu.h"
 4850              		.file 33 "src/ChibiOS_3.0.2/os/hal/ports/STM32/LLD/TIMv1/icu_lld.h"
 4851              		.file 34 "src/ChibiOS_3.0.2/os/hal/ports/STM32/LLD/TIMv1/stm32_tim.h"
 4852              		.file 35 "src/ChibiOS_3.0.2/os/hal/include/serial.h"
 4853              		.file 36 "src/ChibiOS_3.0.2/os/hal/ports/STM32/LLD/USARTv1/serial_lld.h"
 4854              		.file 37 "src/ChibiOS_3.0.2/os/hal/include/spi.h"
 4855              		.file 38 "src/ChibiOS_3.0.2/os/hal/ports/STM32/LLD/SPIv1/spi_lld.h"
 4856              		.file 39 "src/ChibiOS_3.0.2/os/hal/include/uart.h"
 4857              		.file 40 "src/ChibiOS_3.0.2/os/hal/ports/STM32/LLD/USARTv1/uart_lld.h"
 4858              		.file 41 "src/ChibiOS_3.0.2/os/hal/include/usb.h"
 4859              		.file 42 "src/ChibiOS_3.0.2/os/hal/ports/STM32/LLD/OTGv1/usb_lld.h"
 4860              		.file 43 "src/ChibiOS_3.0.2/os/hal/ports/STM32/LLD/OTGv1/stm32_otg.h"
 4861              		.file 44 "src/ChibiOS_3.0.2/os/hal/ports/common/ARMCMx/nvic.h"