ARM GAS  C:\Users\IDONNO~1\AppData\Local\Temp\cclcxg8V.s 			page 1


   1              		.syntax unified
   2              		.cpu cortex-m4
   3              		.eabi_attribute 27, 1
   4              		.eabi_attribute 28, 1
   5              		.fpu fpv4-sp-d16
   6              		.eabi_attribute 20, 1
   7              		.eabi_attribute 21, 1
   8              		.eabi_attribute 23, 3
   9              		.eabi_attribute 24, 1
  10              		.eabi_attribute 25, 1
  11              		.eabi_attribute 26, 1
  12              		.eabi_attribute 30, 2
  13              		.eabi_attribute 34, 1
  14              		.eabi_attribute 18, 4
  15              		.thumb
  16              		.syntax unified
  17              		.file	"ws2811.c"
  18              		.text
  19              	.Ltext0:
  20              		.cfi_sections	.debug_frame
  21              		.section	.text.ws2811_init,"ax",%progbits
  22              		.align	2
  23              		.p2align 4,,15
  24              		.global	ws2811_init
  25              		.thumb
  26              		.thumb_func
  27              		.type	ws2811_init, %function
  28              	ws2811_init:
  29              	.LFB256:
  30              		.file 1 "src/core/ws2811.c"
  31              		.loc 1 47 0
  32              		.cfi_startproc
  33              		@ args = 0, pretend = 0, frame = 96
  34              		@ frame_needed = 0, uses_anonymous_args = 0
  35              	.LVL0:
  36 0000 F0B5     		push	{r4, r5, r6, r7, lr}
  37              		.cfi_def_cfa_offset 20
  38              		.cfi_offset 4, -20
  39              		.cfi_offset 5, -16
  40              		.cfi_offset 6, -12
  41              		.cfi_offset 7, -8
  42              		.cfi_offset 14, -4
  43 0002 2DED028B 		vpush.64	{d8}
  44              		.cfi_def_cfa_offset 28
  45              		.cfi_offset 80, -28
  46              		.cfi_offset 81, -24
  47 0006 5E4E     		ldr	r6, .L16
  48 0008 99B0     		sub	sp, sp, #100
  49              		.cfi_def_cfa_offset 128
  50              		.loc 1 56 0
  51 000a 0021     		movs	r1, #0
  52 000c 06F17402 		add	r2, r6, #116
  53              		.loc 1 47 0
  54 0010 3346     		mov	r3, r6
  55              	.LVL1:
  56              	.L2:
  57              		.loc 1 56 0 discriminator 3
ARM GAS  C:\Users\IDONNO~1\AppData\Local\Temp\cclcxg8V.s 			page 2


  58 0012 43F8041F 		str	r1, [r3, #4]!
  59              		.loc 1 55 0 discriminator 3
  60 0016 9A42     		cmp	r2, r3
  61 0018 FBD1     		bne	.L2
  62 001a 5A49     		ldr	r1, .L16+4
  63 001c 5A4D     		ldr	r5, .L16+8
  64 001e 01F5AE67 		add	r7, r1, #1392
  65              	.LBB12:
  66              		.loc 1 66 0
  67 0022 1424     		movs	r4, #20
  68              		.loc 1 64 0
  69 0024 5320     		movs	r0, #83
  70              	.L6:
  71              		.loc 1 60 0
  72 0026 56F8043F 		ldr	r3, [r6, #4]!
  73              	.LVL2:
  74              	.LBB13:
  75              	.LBB14:
  76              		.loc 1 234 0
  77 002a C3F30742 		ubfx	r2, r3, #16, #8
  78              		.loc 1 235 0
  79 002e C3F3072E 		ubfx	lr, r3, #8, #8
  80              		.loc 1 234 0
  81 0032 AA5C     		ldrb	r2, [r5, r2]	@ zero_extendqisi2
  82              	.LVL3:
  83              		.loc 1 235 0
  84 0034 15F80EE0 		ldrb	lr, [r5, lr]	@ zero_extendqisi2
  85              	.LVL4:
  86              		.loc 1 236 0
  87 0038 DBB2     		uxtb	r3, r3
  88              	.LVL5:
  89              		.loc 1 238 0
  90 003a 1202     		lsls	r2, r2, #8
  91              	.LVL6:
  92              		.loc 1 236 0
  93 003c EB5C     		ldrb	r3, [r5, r3]	@ zero_extendqisi2
  94              	.LVL7:
  95              		.loc 1 238 0
  96 003e 42EA0E42 		orr	r2, r2, lr, lsl #16
  97 0042 1A43     		orrs	r2, r2, r3
  98              	.LVL8:
  99 0044 A1F13003 		sub	r3, r1, #48
 100              	.LVL9:
 101              	.L5:
 102              	.LBE14:
 103              	.LBE13:
 104              		.loc 1 63 0
 105 0048 12F4000F 		tst	r2, #8388608
 106              		.loc 1 64 0
 107 004c 14BF     		ite	ne
 108 004e 1880     		strhne	r0, [r3]	@ movhi
 109              		.loc 1 66 0
 110 0050 1C80     		strheq	r4, [r3]	@ movhi
 111 0052 0233     		adds	r3, r3, #2
 112              		.loc 1 62 0
 113 0054 9942     		cmp	r1, r3
 114              		.loc 1 68 0
ARM GAS  C:\Users\IDONNO~1\AppData\Local\Temp\cclcxg8V.s 			page 3


 115 0056 4FEA4202 		lsl	r2, r2, #1
 116              	.LVL10:
 117              		.loc 1 62 0
 118 005a F5D1     		bne	.L5
 119 005c 3031     		adds	r1, r1, #48
 120              	.LBE12:
 121              		.loc 1 59 0 discriminator 2
 122 005e B942     		cmp	r1, r7
 123 0060 E1D1     		bne	.L6
 124 0062 4A4B     		ldr	r3, .L16+12
 125              		.loc 1 75 0
 126 0064 0021     		movs	r1, #0
 127 0066 03F16402 		add	r2, r3, #100
 128              	.LVL11:
 129              	.L7:
 130              		.loc 1 75 0 is_stmt 0 discriminator 3
 131 006a 23F8021F 		strh	r1, [r3, #2]!	@ movhi
 132              		.loc 1 74 0 is_stmt 1 discriminator 3
 133 006e 9A42     		cmp	r2, r3
 134 0070 FBD1     		bne	.L7
 135 0072 474D     		ldr	r5, .L16+16
 136              	.LBB15:
 137              		.loc 1 80 0
 138 0074 9FED478A 		vldr.32	s16, .L16+20
 139              	.LBE15:
 140              		.loc 1 74 0
 141 0078 0024     		movs	r4, #0
 142              	.L8:
 143              	.LVL12:
 144              	.LBB16:
 145              		.loc 1 80 0 discriminator 3
 146 007a 07EE904A 		vmov	s15, r4	@ int
 147 007e B8EEE70A 		vcvt.f32.s32	s0, s15
 148 0082 DFED450A 		vldr.32	s1, .L16+24
 149 0086 80EE080A 		vdiv.f32	s0, s0, s16
 150 008a FFF7FEFF 		bl	powf
 151              	.LVL13:
 152              		.loc 1 79 0 discriminator 3
 153 008e 0134     		adds	r4, r4, #1
 154              	.LVL14:
 155              		.loc 1 80 0 discriminator 3
 156 0090 20EE080A 		vmul.f32	s0, s0, s16
 157 0094 FFF7FEFF 		bl	roundf
 158              	.LVL15:
 159 0098 FDEEC07A 		vcvt.s32.f32	s15, s0
 160              		.loc 1 79 0 discriminator 3
 161 009c B4F5807F 		cmp	r4, #256
 162              		.loc 1 80 0 discriminator 3
 163 00a0 17EE903A 		vmov	r3, s15	@ int
 164 00a4 05F8013F 		strb	r3, [r5, #1]!
 165              		.loc 1 79 0 discriminator 3
 166 00a8 E7D1     		bne	.L8
 167              	.LBE16:
 168              		.loc 1 84 0
 169 00aa 4FF48772 		mov	r2, #270
 170 00ae 8021     		movs	r1, #128
 171 00b0 3A48     		ldr	r0, .L16+28
ARM GAS  C:\Users\IDONNO~1\AppData\Local\Temp\cclcxg8V.s 			page 4


 172              		.loc 1 106 0
 173 00b2 3B4F     		ldr	r7, .L16+32
 174              		.loc 1 84 0
 175 00b4 FFF7FEFF 		bl	_pal_lld_setgroupmode
 176              	.LVL16:
 177              		.loc 1 96 0
 178 00b8 0121     		movs	r1, #1
 179 00ba 4FF40010 		mov	r0, #2097152
 180 00be FFF7FEFF 		bl	RCC_AHB1PeriphClockCmd
 181              	.LVL17:
 182              		.loc 1 99 0
 183 00c2 3848     		ldr	r0, .L16+36
 184 00c4 FFF7FEFF 		bl	DMA_DeInit
 185              	.LVL18:
 186              		.loc 1 100 0
 187 00c8 3749     		ldr	r1, .L16+40
 188              		.loc 1 113 0
 189 00ca 1294     		str	r4, [sp, #72]
 190              		.loc 1 100 0
 191 00cc 0A91     		str	r1, [sp, #40]
 192              		.loc 1 105 0
 193 00ce 4FF08064 		mov	r4, #67108864
 194              	.LVL19:
 195              		.loc 1 107 0
 196 00d2 4022     		movs	r2, #64
 197              		.loc 1 108 0
 198 00d4 40F2EA23 		movw	r3, #746
 199              		.loc 1 111 0
 200 00d8 4FF40061 		mov	r1, #2048
 201              		.loc 1 109 0
 202 00dc 0025     		movs	r5, #0
 203              		.loc 1 110 0
 204 00de 4FF48066 		mov	r6, #1024
 205              		.loc 1 105 0
 206 00e2 0994     		str	r4, [sp, #36]
 207              		.loc 1 107 0
 208 00e4 0C92     		str	r2, [sp, #48]
 209              		.loc 1 108 0
 210 00e6 0D93     		str	r3, [sp, #52]
 211              		.loc 1 114 0
 212 00e8 4FF40032 		mov	r2, #131072
 213              		.loc 1 116 0
 214 00ec 0323     		movs	r3, #3
 215              		.loc 1 111 0
 216 00ee 1091     		str	r1, [sp, #64]
 217              		.loc 1 121 0
 218 00f0 2C48     		ldr	r0, .L16+36
 219              		.loc 1 114 0
 220 00f2 1392     		str	r2, [sp, #76]
 221              		.loc 1 121 0
 222 00f4 09A9     		add	r1, sp, #36
 223              		.loc 1 112 0
 224 00f6 4FF40054 		mov	r4, #8192
 225              		.loc 1 116 0
 226 00fa 1593     		str	r3, [sp, #84]
 227              		.loc 1 112 0
 228 00fc 1194     		str	r4, [sp, #68]
ARM GAS  C:\Users\IDONNO~1\AppData\Local\Temp\cclcxg8V.s 			page 5


 229              		.loc 1 106 0
 230 00fe 0B97     		str	r7, [sp, #44]
 231              		.loc 1 109 0
 232 0100 0E95     		str	r5, [sp, #56]
 233              		.loc 1 115 0
 234 0102 1495     		str	r5, [sp, #80]
 235              		.loc 1 117 0
 236 0104 1695     		str	r5, [sp, #88]
 237              		.loc 1 118 0
 238 0106 1795     		str	r5, [sp, #92]
 239              		.loc 1 110 0
 240 0108 0F96     		str	r6, [sp, #60]
 241              		.loc 1 121 0
 242 010a FFF7FEFF 		bl	DMA_Init
 243              	.LVL20:
 244              		.loc 1 126 0
 245 010e 0121     		movs	r1, #1
 246 0110 0420     		movs	r0, #4
 247 0112 FFF7FEFF 		bl	RCC_APB1PeriphClockCmd
 248              	.LVL21:
 249              		.loc 1 131 0
 250 0116 6823     		movs	r3, #104
 251              		.loc 1 135 0
 252 0118 01A9     		add	r1, sp, #4
 253 011a 2448     		ldr	r0, .L16+44
 254              		.loc 1 131 0
 255 011c 0293     		str	r3, [sp, #8]
 256              		.loc 1 139 0
 257 011e 0124     		movs	r4, #1
 258              		.loc 1 129 0
 259 0120 ADF80450 		strh	r5, [sp, #4]	@ movhi
 260              		.loc 1 130 0
 261 0124 ADF80650 		strh	r5, [sp, #6]	@ movhi
 262              		.loc 1 132 0
 263 0128 ADF80C50 		strh	r5, [sp, #12]	@ movhi
 264              		.loc 1 133 0
 265 012c 8DF80E50 		strb	r5, [sp, #14]
 266              		.loc 1 135 0
 267 0130 FFF7FEFF 		bl	TIM_TimeBaseInit
 268              	.LVL22:
 269              		.loc 1 138 0
 270 0134 6023     		movs	r3, #96
 271              		.loc 1 140 0
 272 0136 3A88     		ldrh	r2, [r7]
 273              		.loc 1 144 0
 274 0138 1C48     		ldr	r0, .L16+44
 275              		.loc 1 138 0
 276 013a ADF81030 		strh	r3, [sp, #16]	@ movhi
 277              		.loc 1 144 0
 278 013e 04A9     		add	r1, sp, #16
 279              		.loc 1 140 0
 280 0140 0692     		str	r2, [sp, #24]
 281              		.loc 1 141 0
 282 0142 ADF81C50 		strh	r5, [sp, #28]	@ movhi
 283              		.loc 1 139 0
 284 0146 ADF81240 		strh	r4, [sp, #18]	@ movhi
 285              		.loc 1 144 0
ARM GAS  C:\Users\IDONNO~1\AppData\Local\Temp\cclcxg8V.s 			page 6


 286 014a FFF7FEFF 		bl	TIM_OC2Init
 287              	.LVL23:
 288              		.loc 1 145 0
 289 014e 0821     		movs	r1, #8
 290 0150 1648     		ldr	r0, .L16+44
 291 0152 FFF7FEFF 		bl	TIM_OC2PreloadConfig
 292              	.LVL24:
 293              		.loc 1 152 0
 294 0156 2146     		mov	r1, r4
 295 0158 1448     		ldr	r0, .L16+44
 296 015a FFF7FEFF 		bl	TIM_Cmd
 297              	.LVL25:
 298              		.loc 1 156 0
 299 015e 2146     		mov	r1, r4
 300 0160 1048     		ldr	r0, .L16+36
 301 0162 FFF7FEFF 		bl	DMA_Cmd
 302              	.LVL26:
 303              		.loc 1 163 0
 304 0166 2246     		mov	r2, r4
 305 0168 3146     		mov	r1, r6
 306 016a 1048     		ldr	r0, .L16+44
 307 016c FFF7FEFF 		bl	TIM_DMACmd
 308              	.LVL27:
 309              		.loc 1 169 0
 310 0170 2146     		mov	r1, r4
 311 0172 0E48     		ldr	r0, .L16+44
 312 0174 FFF7FEFF 		bl	TIM_CtrlPWMOutputs
 313              	.LVL28:
 314              		.loc 1 170 0
 315 0178 19B0     		add	sp, sp, #100
 316              		.cfi_def_cfa_offset 28
 317              		@ sp needed
 318 017a BDEC028B 		vldm	sp!, {d8}
 319              		.cfi_restore 80
 320              		.cfi_restore 81
 321              		.cfi_def_cfa_offset 20
 322 017e F0BD     		pop	{r4, r5, r6, r7, pc}
 323              	.L17:
 324              		.align	2
 325              	.L16:
 326 0180 FCFFFFFF 		.word	.LANCHOR0-4
 327 0184 30000000 		.word	.LANCHOR1+48
 328 0188 00000000 		.word	.LANCHOR2
 329 018c 6C050000 		.word	.LANCHOR1+1388
 330 0190 FFFFFFFF 		.word	.LANCHOR2-1
 331 0194 00007F43 		.word	1132396544
 332 0198 E4380E40 		.word	1074673892
 333 019c 00040240 		.word	1073873920
 334 01a0 00000000 		.word	.LANCHOR1
 335 01a4 58600240 		.word	1073897560
 336 01a8 38080040 		.word	1073743928
 337 01ac 00080040 		.word	1073743872
 338              		.cfi_endproc
 339              	.LFE256:
 340              		.size	ws2811_init, .-ws2811_init
 341              		.section	.text.ws2811_set_led_color,"ax",%progbits
 342              		.align	2
ARM GAS  C:\Users\IDONNO~1\AppData\Local\Temp\cclcxg8V.s 			page 7


 343              		.p2align 4,,15
 344              		.global	ws2811_set_led_color
 345              		.thumb
 346              		.thumb_func
 347              		.type	ws2811_set_led_color, %function
 348              	ws2811_set_led_color:
 349              	.LFB257:
 350              		.loc 1 172 0
 351              		.cfi_startproc
 352              		@ args = 0, pretend = 0, frame = 0
 353              		@ frame_needed = 0, uses_anonymous_args = 0
 354              		@ link register save eliminated.
 355              	.LVL29:
 356              		.loc 1 173 0
 357 0000 1B28     		cmp	r0, #27
 358 0002 24DC     		bgt	.L27
 359              		.loc 1 172 0
 360 0004 30B4     		push	{r4, r5}
 361              		.cfi_def_cfa_offset 8
 362              		.cfi_offset 4, -8
 363              		.cfi_offset 5, -4
 364              	.LBB17:
 365              		.loc 1 174 0
 366 0006 124A     		ldr	r2, .L28
 367              	.LBB18:
 368              	.LBB19:
 369              		.loc 1 234 0
 370 0008 124C     		ldr	r4, .L28+4
 371              	.LBE19:
 372              	.LBE18:
 373              		.loc 1 174 0
 374 000a 42F82010 		str	r1, [r2, r0, lsl #2]
 375              	.LVL30:
 376              	.LBB21:
 377              	.LBB20:
 378              		.loc 1 234 0
 379 000e C1F30742 		ubfx	r2, r1, #16, #8
 380              		.loc 1 235 0
 381 0012 C1F30725 		ubfx	r5, r1, #8, #8
 382              		.loc 1 234 0
 383 0016 A25C     		ldrb	r2, [r4, r2]	@ zero_extendqisi2
 384              	.LVL31:
 385              		.loc 1 235 0
 386 0018 655D     		ldrb	r5, [r4, r5]	@ zero_extendqisi2
 387              	.LVL32:
 388 001a 0F4B     		ldr	r3, .L28+8
 389              		.loc 1 236 0
 390 001c C9B2     		uxtb	r1, r1
 391              	.LVL33:
 392 001e 00EB4000 		add	r0, r0, r0, lsl #1
 393              	.LVL34:
 394 0022 615C     		ldrb	r1, [r4, r1]	@ zero_extendqisi2
 395              	.LVL35:
 396 0024 0001     		lsls	r0, r0, #4
 397              		.loc 1 238 0
 398 0026 1202     		lsls	r2, r2, #8
 399              	.LVL36:
ARM GAS  C:\Users\IDONNO~1\AppData\Local\Temp\cclcxg8V.s 			page 8


 400 0028 00F13004 		add	r4, r0, #48
 401              	.LVL37:
 402 002c 42EA0542 		orr	r2, r2, r5, lsl #16
 403 0030 0A43     		orrs	r2, r2, r1
 404              	.LVL38:
 405 0032 1919     		adds	r1, r3, r4
 406 0034 0344     		add	r3, r3, r0
 407              	.LBE20:
 408              	.LBE21:
 409              		.loc 1 183 0
 410 0036 1424     		movs	r4, #20
 411              		.loc 1 181 0
 412 0038 5320     		movs	r0, #83
 413              	.LVL39:
 414              	.L22:
 415              		.loc 1 180 0
 416 003a 1502     		lsls	r5, r2, #8
 417              		.loc 1 181 0
 418 003c 4CBF     		ite	mi
 419 003e 1880     		strhmi	r0, [r3]	@ movhi
 420              		.loc 1 183 0
 421 0040 1C80     		strhpl	r4, [r3]	@ movhi
 422 0042 0233     		adds	r3, r3, #2
 423              		.loc 1 179 0
 424 0044 8B42     		cmp	r3, r1
 425              		.loc 1 185 0
 426 0046 4FEA4202 		lsl	r2, r2, #1
 427              	.LVL40:
 428              		.loc 1 179 0
 429 004a F6D1     		bne	.L22
 430              	.LBE17:
 431              		.loc 1 188 0
 432 004c 30BC     		pop	{r4, r5}
 433              		.cfi_restore 5
 434              		.cfi_restore 4
 435              		.cfi_def_cfa_offset 0
 436              	.LVL41:
 437              	.L27:
 438 004e 7047     		bx	lr
 439              	.L29:
 440              		.align	2
 441              	.L28:
 442 0050 00000000 		.word	.LANCHOR0
 443 0054 00000000 		.word	.LANCHOR2
 444 0058 00000000 		.word	.LANCHOR1
 445              		.cfi_endproc
 446              	.LFE257:
 447              		.size	ws2811_set_led_color, .-ws2811_set_led_color
 448              		.section	.text.ws2811_get_led_color,"ax",%progbits
 449              		.align	2
 450              		.p2align 4,,15
 451              		.global	ws2811_get_led_color
 452              		.thumb
 453              		.thumb_func
 454              		.type	ws2811_get_led_color, %function
 455              	ws2811_get_led_color:
 456              	.LFB258:
ARM GAS  C:\Users\IDONNO~1\AppData\Local\Temp\cclcxg8V.s 			page 9


 457              		.loc 1 190 0
 458              		.cfi_startproc
 459              		@ args = 0, pretend = 0, frame = 0
 460              		@ frame_needed = 0, uses_anonymous_args = 0
 461              		@ link register save eliminated.
 462              	.LVL42:
 463              		.loc 1 191 0
 464 0000 1B28     		cmp	r0, #27
 465              		.loc 1 192 0
 466 0002 DABF     		itte	le
 467 0004 024B     		ldrle	r3, .L33
 468 0006 53F82000 		ldrle	r0, [r3, r0, lsl #2]
 469              	.LVL43:
 470              		.loc 1 195 0
 471 000a 0020     		movgt	r0, #0
 472              		.loc 1 196 0
 473 000c 7047     		bx	lr
 474              	.L34:
 475 000e 00BF     		.align	2
 476              	.L33:
 477 0010 00000000 		.word	.LANCHOR0
 478              		.cfi_endproc
 479              	.LFE258:
 480              		.size	ws2811_get_led_color, .-ws2811_get_led_color
 481              		.section	.text.ws2811_all_off,"ax",%progbits
 482              		.align	2
 483              		.p2align 4,,15
 484              		.global	ws2811_all_off
 485              		.thumb
 486              		.thumb_func
 487              		.type	ws2811_all_off, %function
 488              	ws2811_all_off:
 489              	.LFB259:
 490              		.loc 1 198 0
 491              		.cfi_startproc
 492              		@ args = 0, pretend = 0, frame = 0
 493              		@ frame_needed = 0, uses_anonymous_args = 0
 494              		@ link register save eliminated.
 495              	.LVL44:
 496 0000 084B     		ldr	r3, .L40
 497              		.loc 1 202 0
 498 0002 0021     		movs	r1, #0
 499 0004 03F17002 		add	r2, r3, #112
 500              	.LVL45:
 501              	.L36:
 502              		.loc 1 202 0 is_stmt 0 discriminator 3
 503 0008 43F8041F 		str	r1, [r3, #4]!
 504              		.loc 1 201 0 is_stmt 1 discriminator 3
 505 000c 9342     		cmp	r3, r2
 506 000e FBD1     		bne	.L36
 507 0010 054B     		ldr	r3, .L40+4
 508              		.loc 1 206 0
 509 0012 1421     		movs	r1, #20
 510 0014 03F5A862 		add	r2, r3, #1344
 511              	.L37:
 512              		.loc 1 206 0 is_stmt 0 discriminator 3
 513 0018 23F8021F 		strh	r1, [r3, #2]!	@ movhi
ARM GAS  C:\Users\IDONNO~1\AppData\Local\Temp\cclcxg8V.s 			page 10


 514              		.loc 1 205 0 is_stmt 1 discriminator 3
 515 001c 9342     		cmp	r3, r2
 516 001e FBD1     		bne	.L37
 517              		.loc 1 208 0
 518 0020 7047     		bx	lr
 519              	.L41:
 520 0022 00BF     		.align	2
 521              	.L40:
 522 0024 FCFFFFFF 		.word	.LANCHOR0-4
 523 0028 FEFFFFFF 		.word	.LANCHOR1-2
 524              		.cfi_endproc
 525              	.LFE259:
 526              		.size	ws2811_all_off, .-ws2811_all_off
 527              		.section	.text.ws2811_set_all,"ax",%progbits
 528              		.align	2
 529              		.p2align 4,,15
 530              		.global	ws2811_set_all
 531              		.thumb
 532              		.thumb_func
 533              		.type	ws2811_set_all, %function
 534              	ws2811_set_all:
 535              	.LFB260:
 536              		.loc 1 210 0
 537              		.cfi_startproc
 538              		@ args = 0, pretend = 0, frame = 0
 539              		@ frame_needed = 0, uses_anonymous_args = 0
 540              	.LVL46:
 541 0000 F0B5     		push	{r4, r5, r6, r7, lr}
 542              		.cfi_def_cfa_offset 20
 543              		.cfi_offset 4, -20
 544              		.cfi_offset 5, -16
 545              		.cfi_offset 6, -12
 546              		.cfi_offset 7, -8
 547              		.cfi_offset 14, -4
 548 0002 134B     		ldr	r3, .L50
 549 0004 1349     		ldr	r1, .L50+4
 550 0006 144E     		ldr	r6, .L50+8
 551 0008 C0F30742 		ubfx	r2, r0, #16, #8
 552 000c C0F30725 		ubfx	r5, r0, #8, #8
 553 0010 9A5C     		ldrb	r2, [r3, r2]	@ zero_extendqisi2
 554 0012 5F5D     		ldrb	r7, [r3, r5]	@ zero_extendqisi2
 555 0014 C4B2     		uxtb	r4, r0
 556 0016 1202     		lsls	r2, r2, #8
 557 0018 1B5D     		ldrb	r3, [r3, r4]	@ zero_extendqisi2
 558 001a 42EA0747 		orr	r7, r2, r7, lsl #16
 559 001e 1F43     		orrs	r7, r7, r3
 560 0020 01F5A86E 		add	lr, r1, #1344
 561              	.LBB22:
 562              		.loc 1 222 0
 563 0024 1425     		movs	r5, #20
 564              		.loc 1 220 0
 565 0026 5324     		movs	r4, #83
 566              	.LVL47:
 567              	.L46:
 568              		.loc 1 214 0
 569 0028 46F8040F 		str	r0, [r6, #4]!
 570              	.LVL48:
ARM GAS  C:\Users\IDONNO~1\AppData\Local\Temp\cclcxg8V.s 			page 11


 571 002c A1F13003 		sub	r3, r1, #48
 572              		.loc 1 216 0
 573 0030 3A46     		mov	r2, r7
 574              	.LVL49:
 575              	.L45:
 576              		.loc 1 219 0
 577 0032 12F4000F 		tst	r2, #8388608
 578              		.loc 1 220 0
 579 0036 14BF     		ite	ne
 580 0038 1C80     		strhne	r4, [r3]	@ movhi
 581              		.loc 1 222 0
 582 003a 1D80     		strheq	r5, [r3]	@ movhi
 583 003c 0233     		adds	r3, r3, #2
 584              		.loc 1 218 0
 585 003e 9942     		cmp	r1, r3
 586              		.loc 1 224 0
 587 0040 4FEA4202 		lsl	r2, r2, #1
 588              	.LVL50:
 589              		.loc 1 218 0
 590 0044 F5D1     		bne	.L45
 591 0046 3031     		adds	r1, r1, #48
 592              	.LBE22:
 593              		.loc 1 213 0 discriminator 2
 594 0048 7145     		cmp	r1, lr
 595 004a EDD1     		bne	.L46
 596              		.loc 1 227 0
 597 004c F0BD     		pop	{r4, r5, r6, r7, pc}
 598              	.L51:
 599 004e 00BF     		.align	2
 600              	.L50:
 601 0050 00000000 		.word	.LANCHOR2
 602 0054 30000000 		.word	.LANCHOR1+48
 603 0058 FCFFFFFF 		.word	.LANCHOR0-4
 604              		.cfi_endproc
 605              	.LFE260:
 606              		.size	ws2811_set_all, .-ws2811_set_all
 607              		.section	.bss.RGBdata,"aw",%nobits
 608              		.align	2
 609              		.set	.LANCHOR0,. + 0
 610              		.type	RGBdata, %object
 611              		.size	RGBdata, 116
 612              	RGBdata:
 613 0000 00000000 		.space	116
 613      00000000 
 613      00000000 
 613      00000000 
 613      00000000 
 614              		.section	.bss.bitbuffer,"aw",%nobits
 615              		.align	2
 616              		.set	.LANCHOR1,. + 0
 617              		.type	bitbuffer, %object
 618              		.size	bitbuffer, 1492
 619              	bitbuffer:
 620 0000 00000000 		.space	1492
 620      00000000 
 620      00000000 
 620      00000000 
ARM GAS  C:\Users\IDONNO~1\AppData\Local\Temp\cclcxg8V.s 			page 12


 620      00000000 
 621              		.section	.bss.gamma_table,"aw",%nobits
 622              		.align	2
 623              		.set	.LANCHOR2,. + 0
 624              		.type	gamma_table, %object
 625              		.size	gamma_table, 256
 626              	gamma_table:
 627 0000 00000000 		.space	256
 627      00000000 
 627      00000000 
 627      00000000 
 627      00000000 
 628              		.text
 629              	.Letext0:
 630              		.file 2 "c:\\program files (x86)\\gnu tools arm embedded\\5.4 2016q3\\lib\\gcc\\arm-none-eabi\\5.4
 631              		.file 3 "c:\\program files (x86)\\gnu tools arm embedded\\5.4 2016q3\\arm-none-eabi\\include\\mach
 632              		.file 4 "c:\\program files (x86)\\gnu tools arm embedded\\5.4 2016q3\\arm-none-eabi\\include\\sys\
 633              		.file 5 "src/ChibiOS_3.0.2/os/rt/ports/ARMCMx/compilers/GCC/chtypes.h"
 634              		.file 6 "src/ChibiOS_3.0.2/os/rt/include/chsystypes.h"
 635              		.file 7 "src/ChibiOS_3.0.2/os/rt/include/chschd.h"
 636              		.file 8 "src/ChibiOS_3.0.2/os/ext/CMSIS/ST/stm32f407xx.h"
 637              		.file 9 "src/ChibiOS_3.0.2/os/rt/ports/ARMCMx/chcore.h"
 638              		.file 10 "src/ChibiOS_3.0.2/os/rt/ports/ARMCMx/chcore_v7m.h"
 639              		.file 11 "src/ChibiOS_3.0.2/os/rt/include/chtm.h"
 640              		.file 12 "src/ChibiOS_3.0.2/os/rt/include/chsem.h"
 641              		.file 13 "src/ChibiOS_3.0.2/os/rt/include/chmtx.h"
 642              		.file 14 "src/ChibiOS_3.0.2/ext/stdperiph_stm32f4/inc/stm32f4xx_dma.h"
 643              		.file 15 "src/ChibiOS_3.0.2/ext/stdperiph_stm32f4/inc/stm32f4xx_tim.h"
 644              		.file 16 "src/ChibiOS_3.0.2/os/hal/ports/STM32/LLD/GPIOv2/pal_lld.h"
 645              		.file 17 "c:\\program files (x86)\\gnu tools arm embedded\\5.4 2016q3\\arm-none-eabi\\include\\mat
 646              		.file 18 "src/ChibiOS_3.0.2/ext/stdperiph_stm32f4/inc/stm32f4xx_rcc.h"
 647              		.file 19 "src/ChibiOS_3.0.2/os/ext/CMSIS/ST/stm32f4xx.h"
 648              		.file 20 "src/ChibiOS_3.0.2/os/ext/CMSIS/include/core_cm4.h"